1	C:\wlua_dump\path\Lotus\Scripts\EffectsEnergyColorEffects.lua
Pos   Hex Data           Description or Code
------------------------------------------------------------------------
0000                     ** source chunk: C:\wlua_dump\path\Lotus\Scripts\EffectsEnergyColorEffects.lua
                         ** global header start **
0000  7F                 header signature: ""
0001  00                 version (major:minor hex digits)
0002  00                 format (0=official)
0003  00                 endianness (1=little endian)
0004  00                 size of int (bytes)
0005  00                 size of size_t (bytes)
0006  02                 size of Instruction (bytes)
0007  0C                 size of number (bytes)
0008  5F                 integral (1=integral)
495
                         * number type: single
                         * x86 standard (32-bit, little endian, doubles)
                         ** global header end **
/Lotus/Types/Enemies/TennoReplicants/TennoReplicantAvatar
/Lotus/Types/Enemies/Stalker/StalkerAvatar
/Lotus/Types/Enemies/KuvaLich/KuvaLichAAvatar
/Lotus/Types/Enemies/KuvaLich/KuvaLichFemaleAAvatar
/Lotus/Types/Game/FlightJetPackItems/PlayerFlightJetPackItem
Lotus.Scripts.Effects.EffectsColorUtilities
Engine
SLOT_1
SLOT_2
SLOT_6
ApplyEnergyColor
SetMaterialParam
ApplyEnergyColorDeco
ApplyEnergyColorParticles
ApplyEnergyColorLensflare
ApplyEnergyColorLight
ApplyEnergyColorBeam
ApplyEnergyColorSuit
ApplyEnergyColorWeaponTrail
FlowRotationTest
SetEnergyColor
gLotusWeaponType
gLotusAvatarType
gEntityType
gPowerSuitType
gProjectileType
gTennoAvatarType
gLotusSentinelAvatarType
isArchwing
isPrimaryWeapon
Engine
SLOT_2
isMeleeWeapon
isSecondaryWeapon
SLOT_1
useAltEnergyColor
Param
TintColor
Lotus_Game
Attachments
useOperatorEyes
Eyes
EnergyColor
mEnergyColor
isHitEffect
projectileParents
isAttachedToWeapon
gTennoAvatarType
gLotusMirrorAvatarType
isMeleeWeapon
isSecondaryWeapon
Engine
SLOT_1
MAIN_HAND
gProjectileType
gLotusWeaponType
isSentinelWeapon
destroyIfIllusionAvatar
useAltEnergyColor
Lotus_Game
Attachments
useOperatorEyes
Eyes
PrimaryColors
EnergyColor
mEnergyColor
sleepFirst
isWeaponProjectile
getParentFirst
applyToParentColor
invertColor
red
green
blue
Param
applyToChildren
applyLowHigh
isBaroDangle
x
y
z
sleepFirst
Param
newEnergyColor
red
green
blue
applyToChildren
gDecorationType
gBaseAvatarType
gProjectileType
isMeleeWeapon
isSecondaryWeapon
Engine
SLOT_1
SLOT_2
isSentinelWeapon
gLotusMirrorAvatarType
destroyIfIllusionAvatar
Lotus_Game
PrimaryColors
gLotusWeaponDecorationType
EnergyColor
mEnergyColor
applyToParentColor
invertColor
red
green
blue
Param
applyLowHigh
applyToChildren
gDecorationType
sleepFirst
passCreatorThrough
isWeaponProjectile
getParentFirst
invertColor
red
green
blue
alpha
applyLowHigh
minScale
isLightningParticle
swapMinMax
disableParticles
passCreatorThrough
getRootObjectColor
isWeaponProjectile
getParentFirst
red
lensFlareAtten
green
blue
HueClamp
alpha
newSaturate
newBrightness
passCreatorThrough
destroyIfIllusionAvatar
isAttachedToWeapon
gLotusMirrorAvatarType
isWeaponProjectile
getParentFirst
HueClamp
alpha
newSaturate
newBrightness
isWeaponProjectile
getParentFirst
applyLowHigh
beamSetWave
beamWaveAmp
destroyBeam
beamDelay
gPowerSuitType
Lotus_Game
PrimaryColors
EnergyColor
mEnergyColor
applyLowHigh
gRegion
gBaseAvatarType
passCreatorThrough
isWeaponProjectile
getParentFirst
applyLowHigh
gGameRules
gLotusHubGameRulesType
pitch
gPowerSuitType
getParentFirst
gBaseAvatarType
applyToWeaponsToo
Lotus_Game
PrimaryColors
EnergyColor
newEnergyColor
                         
0001                     ** function [0] definition (level 1)
                         ** start of function **
0001  00                 string size (0)
                         source name: (none)
0002  00                 line defined (0)
0003  00                 last line defined (0)
0004  00                 nups (0)
0005  00                 numparams (0)
0006  02                 is_vararg (2)
0007  0C                 maxstacksize (12)
                         * code:
0008  5F                 sizecode (95)
0009  19000000           [01] loadk      0   0        ; 0
000D  5D400000           [02] getglobal  1   1        ; 738251817
0011  99800000           [03] loadk      2   2        ; "/Lotus/Types/Enemies/TennoReplicants/TennoReplicantAvatar"
0015  62800001           [04] call       1   2   2  
0019  9D400000           [05] getglobal  2   1        ; 738251817
001D  D9C00000           [06] loadk      3   3        ; "/Lotus/Types/Enemies/Stalker/StalkerAvatar"
0021  A2800001           [07] call       2   2   2  
0025  DD400000           [08] getglobal  3   1        ; 738251817
0029  19010100           [09] loadk      4   4        ; "/Lotus/Types/Enemies/KuvaLich/KuvaLichAAvatar"
002D  E2800001           [10] call       3   2   2  
0031  1D410000           [11] getglobal  4   1        ; 738251817
0035  59410100           [12] loadk      5   5        ; "/Lotus/Types/Enemies/KuvaLich/KuvaLichFemaleAAvatar"
0039  22810001           [13] call       4   2   2  
003D  5D410000           [14] getglobal  5   1        ; 738251817
0041  99810100           [15] loadk      6   6        ; "/Lotus/Types/Game/FlightJetPackItems/PlayerFlightJetPackItem"
0045  62810001           [16] call       5   2   2  
0049  9DC10100           [17] getglobal  6   7        ; 849075268
004D  D9010200           [18] loadk      7   8        ; "Lotus.Scripts.Effects.EffectsColorUtilities"
0051  A2810001           [19] call       6   2   2  
0055  CB018001           [20] newtable   7   3   0    ; array=3, hash=0
0059  1D420200           [21] getglobal  8   9        ; Engine
005D  0E824204           [22] gettable   8   8   266  ; "SLOT_1"
0061  5D420200           [23] getglobal  9   9        ; Engine
0065  4EC2C204           [24] gettable   9   9   267  ; "SLOT_2"
0069  9D420200           [25] getglobal  10  9        ; Engine
006D  8E024305           [26] gettable   10  10  268  ; "SLOT_6"
0071  DB418001           [27] setlist    7   3   1    ; index 1 to 3
0075  25020000           [28] closure    8   0      
0079  12008002           [29] move       0   5      
007D  12008000           [30] move       0   1      
0081  12000001           [31] move       0   2      
0085  12008001           [32] move       0   3      
0089  12000002           [33] move       0   4      
008D  65420000           [34] closure    9   1      
0091  12000003           [35] move       0   6      
0095  A5820000           [36] closure    10  2      
0099  12008004           [37] move       0   9      
009D  12000004           [38] move       0   8      
00A1  12000003           [39] move       0   6      
00A5  A0420300           [40] setglobal  10  13       ; ApplyEnergyColor
00A9  A0820300           [41] setglobal  10  14       ; -2035091121
00AD  A5C20000           [42] closure    10  3      
00B1  12000003           [43] move       0   6      
00B5  A0C20300           [44] setglobal  10  15       ; SetMaterialParam
00B9  A0020400           [45] setglobal  10  16       ; -786111647
00BD  A5020100           [46] closure    10  4      
00C1  12000003           [47] move       0   6      
00C5  E5420100           [48] closure    11  5      
00C9  12000005           [49] move       0   10     
00CD  12000003           [50] move       0   6      
00D1  E0420400           [51] setglobal  11  17       ; ApplyEnergyColorDeco
00D5  E0820400           [52] setglobal  11  18       ; 936331030
00D9  E5820100           [53] closure    11  6      
00DD  12008004           [54] move       0   9      
00E1  12000004           [55] move       0   8      
00E5  12000000           [56] move       0   0      
00E9  12000003           [57] move       0   6      
00ED  E0C20400           [58] setglobal  11  19       ; ApplyEnergyColorParticles
00F1  E0020500           [59] setglobal  11  20       ; 1433743938
00F5  E5C20100           [60] closure    11  7      
00F9  12008004           [61] move       0   9      
00FD  12000004           [62] move       0   8      
0101  12000003           [63] move       0   6      
0105  E0420500           [64] setglobal  11  21       ; ApplyEnergyColorLensflare
0109  E0820500           [65] setglobal  11  22       ; 702791601
010D  E5020200           [66] closure    11  8      
0111  12008004           [67] move       0   9      
0115  12000004           [68] move       0   8      
0119  12000003           [69] move       0   6      
011D  E0C20500           [70] setglobal  11  23       ; ApplyEnergyColorLight
0121  E0020600           [71] setglobal  11  24       ; -1872181291
0125  E5420200           [72] closure    11  9      
0129  12008004           [73] move       0   9      
012D  12000004           [74] move       0   8      
0131  12000003           [75] move       0   6      
0135  E0420600           [76] setglobal  11  25       ; ApplyEnergyColorBeam
0139  E0820600           [77] setglobal  11  26       ; 1796165140
013D  E5820200           [78] closure    11  10     
0141  12000003           [79] move       0   6      
0145  E0C20600           [80] setglobal  11  27       ; ApplyEnergyColorSuit
0149  E0020700           [81] setglobal  11  28       ; 664867891
014D  E5C20200           [82] closure    11  11     
0151  12008004           [83] move       0   9      
0155  12000004           [84] move       0   8      
0159  12000003           [85] move       0   6      
015D  E0420700           [86] setglobal  11  29       ; ApplyEnergyColorWeaponTrail
0161  E0820700           [87] setglobal  11  30       ; -905306359
0165  E5020300           [88] closure    11  12     
0169  E0C20700           [89] setglobal  11  31       ; FlowRotationTest
016D  E0020800           [90] setglobal  11  32       ; -731346593
0171  E5420300           [91] closure    11  13     
0175  12008003           [92] move       0   7      
0179  E0420800           [93] setglobal  11  33       ; SetEnergyColor
017D  E0820800           [94] setglobal  11  34       ; 1452450961
0181  1E008000           [95] return     0   1      
                         * constants:
0185  23                 sizek (35)
0186  03                 const type 3
0187  0000403F           const [0]: (0)
018B  01                 const type 3
018C  29D4002C           const [1]: (738251817)
0190  04                 const type 4
0191  3A                 string size (58)
0192  2F4C6F7475732F54+  "/Lotus/T"
019A  797065732F456E65+  "ypes/Ene"
01A2  6D6965732F54656E+  "mies/Ten"
01AA  6E6F5265706C6963+  "noReplic"
01B2  616E74732F54656E+  "ants/Ten"
01BA  6E6F5265706C6963+  "noReplic"
01C2  616E744176617461+  "antAvata"
01CA  7200               "r\0"
                         const [2]: "/Lotus/Types/Enemies/TennoReplicants/TennoReplicantAvatar"
01CC  04                 const type 4
01CD  2B                 string size (43)
01CE  2F4C6F7475732F54+  "/Lotus/T"
01D6  797065732F456E65+  "ypes/Ene"
01DE  6D6965732F537461+  "mies/Sta"
01E6  6C6B65722F537461+  "lker/Sta"
01EE  6C6B657241766174+  "lkerAvat"
01F6  617200             "ar\0"
                         const [3]: "/Lotus/Types/Enemies/Stalker/StalkerAvatar"
01F9  04                 const type 4
01FA  2E                 string size (46)
01FB  2F4C6F7475732F54+  "/Lotus/T"
0203  797065732F456E65+  "ypes/Ene"
020B  6D6965732F4B7576+  "mies/Kuv"
0213  614C6963682F4B75+  "aLich/Ku"
021B  76614C6963684141+  "vaLichAA"
0223  766174617200       "vatar\0"
                         const [4]: "/Lotus/Types/Enemies/KuvaLich/KuvaLichAAvatar"
0229  04                 const type 4
022A  34                 string size (52)
022B  2F4C6F7475732F54+  "/Lotus/T"
0233  797065732F456E65+  "ypes/Ene"
023B  6D6965732F4B7576+  "mies/Kuv"
0243  614C6963682F4B75+  "aLich/Ku"
024B  76614C6963684665+  "vaLichFe"
0253  6D616C6541417661+  "maleAAva"
025B  74617200           "tar\0"
                         const [5]: "/Lotus/Types/Enemies/KuvaLich/KuvaLichFemaleAAvatar"
025F  04                 const type 4
0260  3D                 string size (61)
0261  2F4C6F7475732F54+  "/Lotus/T"
0269  797065732F47616D+  "ypes/Gam"
0271  652F466C69676874+  "e/Flight"
0279  4A65745061636B49+  "JetPackI"
0281  74656D732F506C61+  "tems/Pla"
0289  796572466C696768+  "yerFligh"
0291  744A65745061636B+  "tJetPack"
0299  4974656D00         "Item\0"
                         const [6]: "/Lotus/Types/Game/FlightJetPackItems/PlayerFlightJetPackItem"
029E  01                 const type 3
029F  44DC9B32           const [7]: (849075268)
02A3  04                 const type 4
02A4  2C                 string size (44)
02A5  4C6F7475732E5363+  "Lotus.Sc"
02AD  72697074732E4566+  "ripts.Ef"
02B5  66656374732E4566+  "fects.Ef"
02BD  6665637473436F6C+  "fectsCol"
02C5  6F725574696C6974+  "orUtilit"
02CD  69657300           "ies\0"
                         const [8]: "Lotus.Scripts.Effects.EffectsColorUtilities"
02D1  04                 const type 4
02D2  07                 string size (7)
02D3  456E67696E6500     "Engine\0"
                         const [9]: "Engine"
02DA  04                 const type 4
02DB  07                 string size (7)
02DC  534C4F545F3100     "SLOT_1\0"
                         const [10]: "SLOT_1"
02E3  04                 const type 4
02E4  07                 string size (7)
02E5  534C4F545F3200     "SLOT_2\0"
                         const [11]: "SLOT_2"
02EC  04                 const type 4
02ED  07                 string size (7)
02EE  534C4F545F3600     "SLOT_6\0"
                         const [12]: "SLOT_6"
02F5  04                 const type 4
02F6  11                 string size (17)
02F7  4170706C79456E65+  "ApplyEne"
02FF  726779436F6C6F72+  "rgyColor"
0307  00                 "\0"
                         const [13]: "ApplyEnergyColor"
0308  01                 const type 3
0309  4FF9B286           const [14]: (-2035091121)
030D  04                 const type 4
030E  11                 string size (17)
030F  5365744D61746572+  "SetMater"
0317  69616C506172616D+  "ialParam"
031F  00                 "\0"
                         const [15]: "SetMaterialParam"
0320  01                 const type 3
0321  61E324D1           const [16]: (-786111647)
0325  04                 const type 4
0326  15                 string size (21)
0327  4170706C79456E65+  "ApplyEne"
032F  726779436F6C6F72+  "rgyColor"
0337  4465636F00         "Deco\0"
                         const [17]: "ApplyEnergyColorDeco"
033C  01                 const type 3
033D  1647CF37           const [18]: (936331030)
0341  04                 const type 4
0342  1A                 string size (26)
0343  4170706C79456E65+  "ApplyEne"
034B  726779436F6C6F72+  "rgyColor"
0353  5061727469636C65+  "Particle"
035B  7300               "s\0"
                         const [19]: "ApplyEnergyColorParticles"
035D  01                 const type 3
035E  42327555           const [20]: (1433743938)
0362  04                 const type 4
0363  1A                 string size (26)
0364  4170706C79456E65+  "ApplyEne"
036C  726779436F6C6F72+  "rgyColor"
0374  4C656E73666C6172+  "Lensflar"
037C  6500               "e\0"
                         const [21]: "ApplyEnergyColorLensflare"
037E  01                 const type 3
037F  B1BFE329           const [22]: (702791601)
0383  04                 const type 4
0384  16                 string size (22)
0385  4170706C79456E65+  "ApplyEne"
038D  726779436F6C6F72+  "rgyColor"
0395  4C6967687400       "Light\0"
                         const [23]: "ApplyEnergyColorLight"
039B  01                 const type 3
039C  D5C76890           const [24]: (-1872181291)
03A0  04                 const type 4
03A1  15                 string size (21)
03A2  4170706C79456E65+  "ApplyEne"
03AA  726779436F6C6F72+  "rgyColor"
03B2  4265616D00         "Beam\0"
                         const [25]: "ApplyEnergyColorBeam"
03B7  01                 const type 3
03B8  144E0F6B           const [26]: (1796165140)
03BC  04                 const type 4
03BD  15                 string size (21)
03BE  4170706C79456E65+  "ApplyEne"
03C6  726779436F6C6F72+  "rgyColor"
03CE  5375697400         "Suit\0"
                         const [27]: "ApplyEnergyColorSuit"
03D3  01                 const type 3
03D4  3314A127           const [28]: (664867891)
03D8  04                 const type 4
03D9  1C                 string size (28)
03DA  4170706C79456E65+  "ApplyEne"
03E2  726779436F6C6F72+  "rgyColor"
03EA  576561706F6E5472+  "WeaponTr"
03F2  61696C00           "ail\0"
                         const [29]: "ApplyEnergyColorWeaponTrail"
03F6  01                 const type 3
03F7  091F0ACA           const [30]: (-905306359)
03FB  04                 const type 4
03FC  11                 string size (17)
03FD  466C6F77526F7461+  "FlowRota"
0405  74696F6E54657374+  "tionTest"
040D  00                 "\0"
                         const [31]: "FlowRotationTest"
040E  01                 const type 3
040F  5F8968D4           const [32]: (-731346593)
0413  04                 const type 4
0414  0F                 string size (15)
0415  536574456E657267+  "SetEnerg"
041D  79436F6C6F7200     "yColor\0"
                         const [33]: "SetEnergyColor"
0424  01                 const type 3
0425  91A49256           const [34]: (1452450961)
                         * functions:
0429  0E                 sizep (14)
                         
042A                     ** function [0] definition (level 2)
                         ** start of function **
042A  00                 string size (0)
                         source name: (none)
042B  30                 line defined (48)
042C  9A                 last line defined (154)
042D  01                 nups (5)
042E  05                 numparams (2)
042F  02                 is_vararg (0)
0430  00                 maxstacksize (16)
                         * code:
0433  02                 sizecode (308)
0434  58000000           [001] test       1       0    ; to [3] if true
0438  1AC00080           [002] jmp        4            ; to [7]
043C  24014000           [003] self       4   0   256  ; -704974830
0440  22810001           [004] call       4   2   2  
0444  D2000002           [005] move       3   4      
0448  1A800080           [006] jmp        3            ; to [10]
044C  24414000           [007] self       4   0   257  ; 129677183
0450  22810001           [008] call       4   2   2  
0454  D2000002           [009] move       3   4      
0458  1D810000           [010] getglobal  4   2        ; 1074689893
045C  52018001           [011] move       5   3      
0460  22810001           [012] call       4   2   2  
0464  18010000           [013] test       4       0    ; to [15] if true
0468  1A000080           [014] jmp        1            ; to [16]
046C  1E008000           [015] return     0   1      
0470  24C1C001           [016] self       4   3   259  ; -1957065004
0474  9D010100           [017] getglobal  6   4        ; gLotusWeaponType
0478  22818001           [018] call       4   3   2  
047C  18010000           [019] test       4       0    ; to [21] if true
0480  1A400180           [020] jmp        6            ; to [27]
0484  2441C101           [021] self       4   3   261  ; -2035091121
0488  92010000           [022] move       6   0      
048C  22418001           [023] call       4   3   1  
0490  06010002           [024] loadnil    4   4      
0494  1E010001           [025] return     4   2      
0498  1A000C80           [026] jmp        49           ; to [76]
049C  24C1C001           [027] self       4   3   259  ; -1957065004
04A0  9D810100           [028] getglobal  6   6        ; gLotusAvatarType
04A4  22818001           [029] call       4   3   2  
04A8  18010000           [030] test       4       0    ; to [32] if true
04AC  1A400080           [031] jmp        2            ; to [34]
04B0  92008001           [032] move       2   3      
04B4  1A400A80           [033] jmp        42           ; to [76]
04B8  2441C001           [034] self       4   3   257  ; 129677183
04BC  22810001           [035] call       4   2   2  
04C0  5D810000           [036] getglobal  5   2        ; 1074689893
04C4  92010002           [037] move       6   4      
04C8  62810001           [038] call       5   2   2  
04CC  58410000           [039] test       5       1    ; to [41] if false
04D0  1A800580           [040] jmp        23           ; to [64]
04D4  64C14002           [041] self       5   4   259  ; -1957065004
04D8  DDC10100           [042] getglobal  7   7        ; gEntityType
04DC  62818001           [043] call       5   3   2  
04E0  58010000           [044] test       5       0    ; to [46] if true
04E4  1AC00080           [045] jmp        4            ; to [50]
04E8  64014002           [046] self       5   4   256  ; -704974830
04EC  62810001           [047] call       5   2   2  
04F0  92008002           [048] move       2   5      
04F4  1A400680           [049] jmp        26           ; to [76]
04F8  64C14002           [050] self       5   4   259  ; -1957065004
04FC  DD010200           [051] getglobal  7   8        ; gPowerSuitType
0500  62818001           [052] call       5   3   2  
0504  58410000           [053] test       5       1    ; to [55] if false
0508  1A000180           [054] jmp        5            ; to [60]
050C  64C14002           [055] self       5   4   259  ; -1957065004
0510  D3010000           [056] getupval   7   0      
0514  62818001           [057] call       5   3   2  
0518  58010000           [058] test       5       0    ; to [60] if true
051C  1AC00380           [059] jmp        16           ; to [76]
0520  64414202           [060] self       5   4   265  ; -1538682285
0524  62810001           [061] call       5   2   2  
0528  92008002           [062] move       2   5      
052C  1AC00280           [063] jmp        12           ; to [76]
0530  64C1C001           [064] self       5   3   259  ; -1957065004
0534  DD810200           [065] getglobal  7   10       ; gProjectileType
0538  62818001           [066] call       5   3   2  
053C  58010000           [067] test       5       0    ; to [69] if true
0540  1AC00080           [068] jmp        4            ; to [73]
0544  64C1C201           [069] self       5   3   267  ; 2082429591
0548  62810001           [070] call       5   2   2  
054C  92008002           [071] move       2   5      
0550  1A800080           [072] jmp        3            ; to [76]
0554  6401C001           [073] self       5   3   256  ; -704974830
0558  62810001           [074] call       5   2   2  
055C  92008002           [075] move       2   5      
0560  5D810000           [076] getglobal  5   2        ; 1074689893
0564  92010001           [077] move       6   2      
0568  62810001           [078] call       5   2   2  
056C  58010000           [079] test       5       0    ; to [81] if true
0570  1A400080           [080] jmp        2            ; to [83]
0574  46018002           [081] loadnil    5   5      
0578  5E010001           [082] return     5   2      
057C  64C14001           [083] self       5   2   259  ; -1957065004
0580  D3018000           [084] getupval   7   1      
0584  62818001           [085] call       5   3   2  
0588  58010000           [086] test       5       0    ; to [88] if true
058C  1A800180           [087] jmp        7            ; to [95]
0590  5D010300           [088] getglobal  5   12       ; -1247440829
0594  99410300           [089] loadk      6   13       ; 0
0598  D9810300           [090] loadk      7   14       ; 0
059C  19C20300           [091] loadk      8   15       ; 0
05A0  59020400           [092] loadk      9   16       ; 0
05A4  62818002           [093] call       5   5   2  
05A8  5E010001           [094] return     5   2      
05AC  A4C14001           [095] self       6   2   259  ; -1957065004
05B0  13020001           [096] getupval   8   2      
05B4  A2818001           [097] call       6   3   2  
05B8  98010000           [098] test       6       0    ; to [100] if true
05BC  1A800180           [099] jmp        7            ; to [107]
05C0  9D010300           [100] getglobal  6   12       ; -1247440829
05C4  D9010400           [101] loadk      7   16       ; 0
05C8  19420400           [102] loadk      8   17       ; 0
05CC  59420400           [103] loadk      9   17       ; 0
05D0  99020400           [104] loadk      10  16       ; 0
05D4  A2818002           [105] call       6   5   2  
05D8  9E010001           [106] return     6   2      
05DC  E4C14001           [107] self       7   2   259  ; -1957065004
05E0  5D820400           [108] getglobal  9   18       ; gTennoAvatarType
05E4  E2818001           [109] call       7   3   2  
05E8  D8410000           [110] test       7       1    ; to [112] if false
05EC  1A400480           [111] jmp        18           ; to [130]
05F0  E4C14001           [112] self       7   2   259  ; -1957065004
05F4  5DC20400           [113] getglobal  9   19       ; gLotusSentinelAvatarType
05F8  E2818001           [114] call       7   3   2  
05FC  D8410000           [115] test       7       1    ; to [117] if false
0600  1A000380           [116] jmp        13           ; to [130]
0604  E4C14001           [117] self       7   2   259  ; -1957065004
0608  53028001           [118] getupval   9   3      
060C  E2818001           [119] call       7   3   2  
0610  D8410000           [120] test       7       1    ; to [122] if false
0614  1AC00180           [121] jmp        8            ; to [130]
0618  E4C14001           [122] self       7   2   259  ; -1957065004
061C  53020002           [123] getupval   9   4      
0620  E2818001           [124] call       7   3   2  
0624  D8010000           [125] test       7       0    ; to [127] if true
0628  1A000080           [126] jmp        1            ; to [128]
062C  1A400080           [127] jmp        2            ; to [130]
0630  C6018003           [128] loadnil    7   7      
0634  DE010001           [129] return     7   2      
0638  DD810000           [130] getglobal  7   2        ; 1074689893
063C  12020001           [131] move       8   2      
0640  E2810001           [132] call       7   2   2  
0644  D8010000           [133] test       7       0    ; to [135] if true
0648  1A400080           [134] jmp        2            ; to [137]
fail op	35
064C  23808001           [135] close      0  
0650  1A802A80           [136] jmp        171          ; to [308]
0654  D9010500           [137] loadk      7   20       ; 0
0658  06020004           [138] loadnil    8   8      
fail op	21
065C  15C08188           [139] concat     0   273 7  
0660  1A000780           [140] jmp        29           ; to [170]
0664  5D820000           [141] getglobal  9   2        ; 1074689893
0668  92020004           [142] move       10  8      
066C  62820001           [143] call       9   2   2  
0670  58020000           [144] test       9       0    ; to [146] if true
0674  1AC00580           [145] jmp        24           ; to [170]
0678  5D820000           [146] getglobal  9   2        ; 1074689893
067C  92020001           [147] move       10  2      
0680  62820001           [148] call       9   2   2  
0684  58420000           [149] test       9       1    ; to [151] if false
0688  1A800480           [150] jmp        19           ; to [170]
068C  5D420500           [151] getglobal  9   21       ; isArchwing
0690  58020000           [152] test       9       0    ; to [154] if true
0694  1A400180           [153] jmp        6            ; to [160]
0698  64824501           [154] self       9   2   278  ; -1917464545
069C  62820001           [155] call       9   2   2  
06A0  64C2C504           [156] self       9   9   279  ; -400899663
06A4  62820001           [157] call       9   2   2  
06A8  12028004           [158] move       8   9      
06AC  1A000180           [159] jmp        5            ; to [165]
06B0  64824501           [160] self       9   2   278  ; -1917464545
06B4  62820001           [161] call       9   2   2  
06B8  6402C604           [162] self       9   9   280  ; 1769516121
06BC  62820001           [163] call       9   2   2  
06C0  12028004           [164] move       8   9      
06C4  CD41C603           [165] sub        7   7   281  ; 0
06C8  5D820600           [166] getglobal  9   26       ; 538022378
06CC  99420400           [167] loadk      10  17       ; 0
06D0  62420001           [168] call       9   2   1  
06D4  1A00F87F           [169] jmp        -31          ; to [139]
06D8  5DC20600           [170] getglobal  9   27       ; isPrimaryWeapon
06DC  58020000           [171] test       9       0    ; to [173] if true
06E0  1AC00280           [172] jmp        12           ; to [185]
06E4  5D820000           [173] getglobal  9   2        ; 1074689893
06E8  92020001           [174] move       10  2      
06EC  62820001           [175] call       9   2   2  
06F0  58420000           [176] test       9       1    ; to [178] if false
06F4  1A800180           [177] jmp        7            ; to [185]
06F8  64824501           [178] self       9   2   278  ; -1917464545
06FC  62820001           [179] call       9   2   2  
0700  6402C704           [180] self       9   9   284  ; 1674984496
0704  DD420700           [181] getglobal  11  29       ; Engine
0708  CE82C705           [182] gettable   11  11  286  ; "SLOT_2"
070C  62828001           [183] call       9   3   2  
0710  12028004           [184] move       8   9      
0714  5DC20700           [185] getglobal  9   31       ; isMeleeWeapon
0718  58020000           [186] test       9       0    ; to [188] if true
071C  1A400280           [187] jmp        10           ; to [198]
0720  5D820000           [188] getglobal  9   2        ; 1074689893
0724  92020001           [189] move       10  2      
0728  62820001           [190] call       9   2   2  
072C  58420000           [191] test       9       1    ; to [193] if false
0730  1A000180           [192] jmp        5            ; to [198]
0734  64824501           [193] self       9   2   278  ; -1917464545
0738  62820001           [194] call       9   2   2  
073C  6402C804           [195] self       9   9   288  ; 1885503231
0740  62820001           [196] call       9   2   2  
0744  12028004           [197] move       8   9      
0748  5D420800           [198] getglobal  9   33       ; isSecondaryWeapon
074C  58020000           [199] test       9       0    ; to [201] if true
0750  1AC00280           [200] jmp        12           ; to [213]
0754  5D820000           [201] getglobal  9   2        ; 1074689893
0758  92020001           [202] move       10  2      
075C  62820001           [203] call       9   2   2  
0760  58420000           [204] test       9       1    ; to [206] if false
0764  1A800180           [205] jmp        7            ; to [213]
0768  64824501           [206] self       9   2   278  ; -1917464545
076C  62820001           [207] call       9   2   2  
0770  6402C704           [208] self       9   9   284  ; 1674984496
0774  DD420700           [209] getglobal  11  29       ; Engine
0778  CE82C805           [210] gettable   11  11  290  ; "SLOT_1"
077C  62828001           [211] call       9   3   2  
0780  12028004           [212] move       8   9      
0784  5D820000           [213] getglobal  9   2        ; 1074689893
0788  92020004           [214] move       10  8      
078C  62820001           [215] call       9   2   2  
0790  58420000           [216] test       9       1    ; to [218] if false
0794  1A401680           [217] jmp        90           ; to [308]
0798  64C24804           [218] self       9   8   291  ; -1348043987
079C  62820001           [219] call       9   2   2  
07A0  D9010500           [220] loadk      7   20       ; 0
fail op	21
07A4  15C08188           [221] concat     0   273 7  
07A8  1AC00580           [222] jmp        24           ; to [247]
07AC  A402C904           [223] self       10  9   292  ; 979293742
07B0  A2820001           [224] call       10  2   2  
07B4  98420000           [225] test       10      1    ; to [227] if false
07B8  1AC00480           [226] jmp        20           ; to [247]
07BC  9D820000           [227] getglobal  10  2        ; 1074689893
07C0  D2020004           [228] move       11  8      
07C4  A2820001           [229] call       10  2   2  
07C8  98420000           [230] test       10      1    ; to [232] if false
07CC  1A800380           [231] jmp        15           ; to [247]
07D0  A4C24804           [232] self       10  8   291  ; -1348043987
07D4  A2820001           [233] call       10  2   2  
07D8  52020005           [234] move       9   10     
07DC  CD41C603           [235] sub        7   7   281  ; 0
07E0  9D820600           [236] getglobal  10  26       ; 538022378
07E4  D9420400           [237] loadk      11  17       ; 0
07E8  A2420001           [238] call       10  2   1  
07EC  9D820000           [239] getglobal  10  2        ; 1074689893
07F0  D2020004           [240] move       11  8      
07F4  A2820001           [241] call       10  2   2  
07F8  98020000           [242] test       10      0    ; to [244] if true
07FC  1A00FA7F           [243] jmp        -23          ; to [221]
0800  86020005           [244] loadnil    10  10     
0804  9E020001           [245] return     10  2      
0808  1A40F97F           [246] jmp        -26          ; to [221]
080C  86028005           [247] loadnil    10  11     
0810  1D430900           [248] getglobal  12  37       ; useAltEnergyColor
0814  18030000           [249] test       12      0    ; to [251] if true
0818  1A400480           [250] jmp        18           ; to [269]
081C  1D830900           [251] getglobal  12  38       ; Param
0820  5DC30900           [252] getglobal  13  39       ; -332969190
0824  99030A00           [253] loadk      14  40       ; "TintColor"
0828  62830001           [254] call       13  2   2  
fail op	35
082C  23400306           [255] close      0  
0830  1A400180           [256] jmp        6            ; to [263]
0834  24434104           [257] self       12  8   261  ; -2035091121
0838  92030000           [258] move       14  0      
083C  D7038000           [259] loadbool   15  1   0    ; true
0840  22430002           [260] call       12  4   1  
0844  06030006           [261] loadnil    12  12     
0848  1E030001           [262] return     12  2      
084C  2443CA04           [263] self       12  9   297  ; -479391803
0850  9D830A00           [264] getglobal  14  42       ; Lotus_Game
0854  8EC34A07           [265] gettable   14  14  299  ; "Attachments"
0858  22838001           [266] call       12  3   2  
085C  D2020006           [267] move       11  12     
0860  1AC00680           [268] jmp        28           ; to [297]
0864  1D030B00           [269] getglobal  12  44       ; useOperatorEyes
0868  18030000           [270] test       12      0    ; to [272] if true
086C  1A400180           [271] jmp        6            ; to [278]
0870  2443CA04           [272] self       12  9   297  ; -479391803
0874  9D830A00           [273] getglobal  14  42       ; Lotus_Game
0878  8E434B07           [274] gettable   14  14  301  ; "Eyes"
087C  22838001           [275] call       12  3   2  
0880  D2020006           [276] move       11  12     
0884  1A800480           [277] jmp        19           ; to [297]
0888  1D030300           [278] getglobal  12  12       ; -1247440829
088C  22838000           [279] call       12  1   2  
0890  92020006           [280] move       10  12     
0894  1D830900           [281] getglobal  12  38       ; Param
0898  5DC30900           [282] getglobal  13  39       ; -332969190
089C  99030A00           [283] loadk      14  40       ; "TintColor"
08A0  62830001           [284] call       13  2   2  
fail op	35
08A4  23400306           [285] close      0  
08A8  1A000180           [286] jmp        5            ; to [292]
08AC  24434104           [287] self       12  8   261  ; -2035091121
08B0  92030000           [288] move       14  0      
08B4  22438001           [289] call       12  3   1  
08B8  06030006           [290] loadnil    12  12     
08BC  1E030001           [291] return     12  2      
08C0  24834B04           [292] self       12  8   302  ; -881144909
08C4  92030005           [293] move       14  10     
08C8  D7030000           [294] loadbool   15  0   0    ; false
08CC  22430002           [295] call       12  4   1  
08D0  9E020001           [296] return     10  2      
08D4  2403C905           [297] self       12  11  292  ; 979293742
08D8  9D830A00           [298] getglobal  14  42       ; Lotus_Game
08DC  8EC34B07           [299] gettable   14  14  303  ; "EnergyColor"
08E0  22838001           [300] call       12  3   2  
08E4  18030000           [301] test       12      0    ; to [303] if true
08E8  1AC00080           [302] jmp        4            ; to [307]
08EC  1D030300           [303] getglobal  12  12       ; -1247440829
08F0  4E03CC05           [304] gettable   13  11  304  ; "mEnergyColor"
08F4  22830001           [305] call       12  2   2  
08F8  92020006           [306] move       10  12     
08FC  9E020001           [307] return     10  2      
0900  1E008000           [308] return     0   1      
                         * constants:
0904  31                 sizek (49)
0905  01                 const type 3
0906  12F0FAD5           const [0]: (-704974830)
090A  01                 const type 3
090B  7FB7BA07           const [1]: (129677183)
090F  01                 const type 3
0910  65770E40           const [2]: (1074689893)
0914  01                 const type 3
0915  D48E598B           const [3]: (-1957065004)
0919  04                 const type 4
091A  11                 string size (17)
091B  674C6F7475735765+  "gLotusWe"
0923  61706F6E54797065+  "aponType"
092B  00                 "\0"
                         const [4]: "gLotusWeaponType"
092C  01                 const type 3
092D  4FF9B286           const [5]: (-2035091121)
0931  04                 const type 4
0932  11                 string size (17)
0933  674C6F7475734176+  "gLotusAv"
093B  6174617254797065+  "atarType"
0943  00                 "\0"
                         const [6]: "gLotusAvatarType"
0944  04                 const type 4
0945  0C                 string size (12)
0946  67456E7469747954+  "gEntityT"
094E  79706500           "ype\0"
                         const [7]: "gEntityType"
0952  04                 const type 4
0953  0F                 string size (15)
0954  67506F7765725375+  "gPowerSu"
095C  69745479706500     "itType\0"
                         const [8]: "gPowerSuitType"
0963  01                 const type 3
0964  539249A4           const [9]: (-1538682285)
0968  04                 const type 4
0969  10                 string size (16)
096A  6750726F6A656374+  "gProject"
0972  696C655479706500   "ileType\0"
                         const [10]: "gProjectileType"
097A  01                 const type 3
097B  975A1F7C           const [11]: (2082429591)
097F  01                 const type 3
0980  4390A5B5           const [12]: (-1247440829)
0984  03                 const type 3
0985  0000A040           const [13]: (0)
0989  03                 const type 3
098A  00001143           const [14]: (0)
098E  03                 const type 3
098F  00002F43           const [15]: (0)
0993  03                 const type 3
0994  00007F43           const [16]: (0)
0998  03                 const type 3
0999  00000000           const [17]: (0)
099D  04                 const type 4
099E  11                 string size (17)
099F  6754656E6E6F4176+  "gTennoAv"
09A7  6174617254797065+  "atarType"
09AF  00                 "\0"
                         const [18]: "gTennoAvatarType"
09B0  04                 const type 4
09B1  19                 string size (25)
09B2  674C6F7475735365+  "gLotusSe"
09BA  6E74696E656C4176+  "ntinelAv"
09C2  6174617254797065+  "atarType"
09CA  00                 "\0"
                         const [19]: "gLotusSentinelAvatarType"
09CB  03                 const type 3
09CC  00000041           const [20]: (0)
09D0  04                 const type 4
09D1  0B                 string size (11)
09D2  6973417263687769+  "isArchwi"
09DA  6E6700             "ng\0"
                         const [21]: "isArchwing"
09DD  01                 const type 3
09DE  1FD0B58D           const [22]: (-1917464545)
09E2  01                 const type 3
09E3  B1C11AE8           const [23]: (-400899663)
09E7  01                 const type 3
09E8  59AC7869           const [24]: (1769516121)
09EC  03                 const type 3
09ED  0000803F           const [25]: (0)
09F1  01                 const type 3
09F2  EA911120           const [26]: (538022378)
09F6  04                 const type 4
09F7  10                 string size (16)
09F8  69735072696D6172+  "isPrimar"
0A00  79576561706F6E00   "yWeapon\0"
                         const [27]: "isPrimaryWeapon"
0A08  01                 const type 3
0A09  303CD663           const [28]: (1674984496)
0A0D  04                 const type 4
0A0E  07                 string size (7)
0A0F  456E67696E6500     "Engine\0"
                         const [29]: "Engine"
0A16  04                 const type 4
0A17  07                 string size (7)
0A18  534C4F545F3200     "SLOT_2\0"
                         const [30]: "SLOT_2"
0A1F  04                 const type 4
0A20  0E                 string size (14)
0A21  69734D656C656557+  "isMeleeW"
0A29  6561706F6E00       "eapon\0"
                         const [31]: "isMeleeWeapon"
0A2F  01                 const type 3
0A30  FF7E6270           const [32]: (1885503231)
0A34  04                 const type 4
0A35  12                 string size (18)
0A36  69735365636F6E64+  "isSecond"
0A3E  617279576561706F+  "aryWeapo"
0A46  6E00               "n\0"
                         const [33]: "isSecondaryWeapon"
0A48  04                 const type 4
0A49  07                 string size (7)
0A4A  534C4F545F3100     "SLOT_1\0"
                         const [34]: "SLOT_1"
0A51  01                 const type 3
0A52  2D7BA6AF           const [35]: (-1348043987)
0A56  01                 const type 3
0A57  2ED65E3A           const [36]: (979293742)
0A5B  04                 const type 4
0A5C  12                 string size (18)
0A5D  757365416C74456E+  "useAltEn"
0A65  65726779436F6C6F+  "ergyColo"
0A6D  7200               "r\0"
                         const [37]: "useAltEnergyColor"
0A6F  04                 const type 4
0A70  06                 string size (6)
0A71  506172616D00       "Param\0"
                         const [38]: "Param"
0A77  01                 const type 3
0A78  1A4B27EC           const [39]: (-332969190)
0A7C  04                 const type 4
0A7D  0A                 string size (10)
0A7E  54696E74436F6C6F+  "TintColo"
0A86  7200               "r\0"
                         const [40]: "TintColor"
0A88  01                 const type 3
0A89  C50F6DE3           const [41]: (-479391803)
0A8D  04                 const type 4
0A8E  0B                 string size (11)
0A8F  4C6F7475735F4761+  "Lotus_Ga"
0A97  6D6500             "me\0"
                         const [42]: "Lotus_Game"
0A9A  04                 const type 4
0A9B  0C                 string size (12)
0A9C  4174746163686D65+  "Attachme"
0AA4  6E747300           "nts\0"
                         const [43]: "Attachments"
0AA8  04                 const type 4
0AA9  10                 string size (16)
0AAA  7573654F70657261+  "useOpera"
0AB2  746F724579657300   "torEyes\0"
                         const [44]: "useOperatorEyes"
0ABA  04                 const type 4
0ABB  05                 string size (5)
0ABC  4579657300         "Eyes\0"
                         const [45]: "Eyes"
0AC1  01                 const type 3
0AC2  B3CB7ACB           const [46]: (-881144909)
0AC6  04                 const type 4
0AC7  0C                 string size (12)
0AC8  456E65726779436F+  "EnergyCo"
0AD0  6C6F7200           "lor\0"
                         const [47]: "EnergyColor"
0AD4  04                 const type 4
0AD5  0D                 string size (13)
0AD6  6D456E6572677943+  "mEnergyC"
0ADE  6F6C6F7200         "olor\0"
                         const [48]: "mEnergyColor"
                         * functions:
0AE3  00                 sizep (0)
                         * lines:
0AE5  02                 sizelineinfo (308)
                         [pc] (line)
0AE6  33                 [001] (51)
0AE7  00                 [002] (51)
0AE8  00                 [003] (52)
0AE9  00                 [004] (52)
0AEA  33                 [005] (52)
0AEB  00                 [006] (52)
0AEC  00                 [007] (54)
0AED  00                 [008] (54)
0AEE  34                 [009] (54)
0AEF  00                 [010] (56)
0AF0  00                 [011] (56)
0AF1  00                 [012] (56)
0AF2  34                 [013] (56)
0AF3  00                 [014] (56)
0AF4  00                 [015] (57)
0AF5  00                 [016] (59)
0AF6  34                 [017] (59)
0AF7  00                 [018] (59)
0AF8  00                 [019] (59)
0AF9  00                 [020] (59)
0AFA  34                 [021] (60)
0AFB  00                 [022] (60)
0AFC  00                 [023] (60)
0AFD  00                 [024] (61)
0AFE  36                 [025] (61)
0AFF  00                 [026] (61)
0B00  00                 [027] (62)
0B01  00                 [028] (62)
0B02  36                 [029] (62)
0B03  00                 [030] (62)
0B04  00                 [031] (62)
0B05  00                 [032] (63)
0B06  36                 [033] (63)
0B07  00                 [034] (65)
0B08  00                 [035] (65)
0B09  00                 [036] (66)
0B0A  38                 [037] (66)
0B0B  00                 [038] (66)
0B0C  00                 [039] (66)
0B0D  00                 [040] (66)
0B0E  38                 [041] (67)
0B0F  00                 [042] (67)
0B10  00                 [043] (67)
0B11  00                 [044] (67)
0B12  38                 [045] (67)
0B13  00                 [046] (68)
0B14  00                 [047] (68)
0B15  00                 [048] (68)
0B16  38                 [049] (68)
0B17  00                 [050] (69)
0B18  00                 [051] (69)
0B19  00                 [052] (69)
0B1A  38                 [053] (69)
0B1B  00                 [054] (69)
0B1C  00                 [055] (69)
0B1D  00                 [056] (69)
0B1E  39                 [057] (69)
0B1F  00                 [058] (69)
0B20  00                 [059] (69)
0B21  00                 [060] (70)
0B22  3B                 [061] (70)
0B23  00                 [062] (70)
0B24  00                 [063] (71)
0B25  00                 [064] (72)
0B26  3B                 [065] (72)
0B27  00                 [066] (72)
0B28  00                 [067] (72)
0B29  00                 [068] (72)
0B2A  3B                 [069] (73)
0B2B  00                 [070] (73)
0B2C  00                 [071] (73)
0B2D  00                 [072] (73)
0B2E  3B                 [073] (75)
0B2F  00                 [074] (75)
0B30  00                 [075] (75)
0B31  00                 [076] (78)
0B32  3B                 [077] (78)
0B33  00                 [078] (78)
0B34  00                 [079] (78)
0B35  00                 [080] (78)
0B36  3C                 [081] (79)
0B37  00                 [082] (79)
0B38  00                 [083] (81)
0B39  00                 [084] (81)
0B3A  3C                 [085] (81)
0B3B  00                 [086] (81)
0B3C  00                 [087] (81)
0B3D  00                 [088] (82)
0B3E  3C                 [089] (82)
0B3F  00                 [090] (82)
0B40  00                 [091] (82)
0B41  00                 [092] (82)
0B42  3D                 [093] (82)
0B43  00                 [094] (83)
0B44  00                 [095] (85)
0B45  00                 [096] (85)
0B46  3D                 [097] (85)
0B47  00                 [098] (85)
0B48  00                 [099] (85)
0B49  00                 [100] (86)
0B4A  3D                 [101] (86)
0B4B  00                 [102] (86)
0B4C  00                 [103] (86)
0B4D  00                 [104] (86)
0B4E  3E                 [105] (86)
0B4F  00                 [106] (87)
0B50  00                 [107] (89)
0B51  00                 [108] (89)
0B52  3E                 [109] (89)
0B53  00                 [110] (89)
0B54  00                 [111] (89)
0B55  00                 [112] (89)
0B56  3E                 [113] (89)
0B57  00                 [114] (89)
0B58  00                 [115] (89)
0B59  00                 [116] (89)
0B5A  3E                 [117] (90)
0B5B  00                 [118] (90)
0B5C  00                 [119] (90)
0B5D  00                 [120] (90)
0B5E  3E                 [121] (90)
0B5F  00                 [122] (90)
0B60  00                 [123] (90)
0B61  00                 [124] (90)
0B62  3F                 [125] (90)
0B63  00                 [126] (90)
0B64  00                 [127] (90)
0B65  00                 [128] (92)
0B66  3F                 [129] (92)
0B67  00                 [130] (95)
0B68  00                 [131] (95)
0B69  00                 [132] (95)
0B6A  41                 [133] (95)
0B6B  00                 [134] (95)
0B6C  00                 [135] (95)
0B6D  00                 [136] (95)
0B6E  41                 [137] (96)
0B6F  00                 [138] (97)
0B70  00                 [139] (98)
0B71  00                 [140] (98)
0B72  42                 [141] (98)
0B73  00                 [142] (98)
0B74  00                 [143] (98)
0B75  00                 [144] (98)
0B76  42                 [145] (98)
0B77  00                 [146] (98)
0B78  00                 [147] (98)
0B79  00                 [148] (98)
0B7A  42                 [149] (98)
0B7B  00                 [150] (98)
0B7C  00                 [151] (99)
0B7D  00                 [152] (99)
0B7E  42                 [153] (99)
0B7F  00                 [154] (100)
0B80  00                 [155] (100)
0B81  00                 [156] (100)
0B82  42                 [157] (100)
0B83  00                 [158] (100)
0B84  00                 [159] (100)
0B85  00                 [160] (102)
0B86  43                 [161] (102)
0B87  00                 [162] (102)
0B88  00                 [163] (102)
0B89  00                 [164] (102)
0B8A  43                 [165] (104)
0B8B  00                 [166] (105)
0B8C  00                 [167] (105)
0B8D  00                 [168] (105)
0B8E  43                 [169] (105)
0B8F  00                 [170] (107)
0B90  00                 [171] (107)
0B91  00                 [172] (107)
0B92  43                 [173] (107)
0B93  00                 [174] (107)
0B94  00                 [175] (107)
0B95  00                 [176] (107)
0B96  43                 [177] (107)
0B97  00                 [178] (108)
0B98  00                 [179] (108)
0B99  00                 [180] (108)
0B9A  44                 [181] (108)
0B9B  00                 [182] (108)
0B9C  00                 [183] (108)
0B9D  00                 [184] (108)
0B9E  44                 [185] (110)
0B9F  00                 [186] (110)
0BA0  00                 [187] (110)
0BA1  00                 [188] (110)
0BA2  44                 [189] (110)
0BA3  00                 [190] (110)
0BA4  00                 [191] (110)
0BA5  00                 [192] (110)
0BA6  44                 [193] (111)
0BA7  00                 [194] (111)
0BA8  00                 [195] (111)
0BA9  00                 [196] (111)
0BAA  45                 [197] (111)
0BAB  00                 [198] (113)
0BAC  00                 [199] (113)
0BAD  00                 [200] (113)
0BAE  45                 [201] (113)
0BAF  00                 [202] (113)
0BB0  00                 [203] (113)
0BB1  00                 [204] (113)
0BB2  45                 [205] (113)
0BB3  00                 [206] (114)
0BB4  00                 [207] (114)
0BB5  00                 [208] (114)
0BB6  45                 [209] (114)
0BB7  00                 [210] (114)
0BB8  00                 [211] (114)
0BB9  00                 [212] (114)
0BBA  45                 [213] (116)
0BBB  00                 [214] (116)
0BBC  00                 [215] (116)
0BBD  00                 [216] (116)
0BBE  45                 [217] (116)
0BBF  00                 [218] (117)
0BC0  00                 [219] (117)
0BC1  00                 [220] (118)
0BC2  45                 [221] (119)
0BC3  00                 [222] (119)
0BC4  00                 [223] (119)
0BC5  00                 [224] (119)
0BC6  45                 [225] (119)
0BC7  00                 [226] (119)
0BC8  00                 [227] (119)
0BC9  00                 [228] (119)
0BCA  45                 [229] (119)
0BCB  00                 [230] (119)
0BCC  00                 [231] (119)
0BCD  00                 [232] (120)
0BCE  45                 [233] (120)
0BCF  00                 [234] (120)
0BD0  00                 [235] (121)
0BD1  00                 [236] (122)
0BD2  46                 [237] (122)
0BD3  00                 [238] (122)
0BD4  00                 [239] (123)
0BD5  00                 [240] (123)
0BD6  46                 [241] (123)
0BD7  00                 [242] (123)
0BD8  00                 [243] (123)
0BD9  00                 [244] (124)
0BDA  46                 [245] (124)
0BDB  00                 [246] (125)
0BDC  00                 [247] (-128)
0BDD  00                 [248] (-126)
0BDE  47                 [249] (-126)
0BDF  00                 [250] (-126)
0BE0  00                 [251] (-125)
0BE1  00                 [252] (-125)
0BE2  48                 [253] (-125)
0BE3  00                 [254] (-125)
0BE4  00                 [255] (-125)
0BE5  00                 [256] (-125)
0BE6  48                 [257] (-124)
0BE7  00                 [258] (-124)
0BE8  00                 [259] (-124)
0BE9  00                 [260] (-124)
0BEA  48                 [261] (-123)
0BEB  00                 [262] (-123)
0BEC  00                 [263] (-121)
0BED  00                 [264] (-121)
0BEE  48                 [265] (-121)
0BEF  00                 [266] (-121)
0BF0  00                 [267] (-121)
0BF1  00                 [268] (-121)
0BF2  48                 [269] (-120)
0BF3  00                 [270] (-120)
0BF4  00                 [271] (-120)
0BF5  00                 [272] (-119)
0BF6  49                 [273] (-119)
0BF7  00                 [274] (-119)
0BF8  00                 [275] (-119)
0BF9  00                 [276] (-119)
0BFA  49                 [277] (-119)
0BFB  00                 [278] (-117)
0BFC  00                 [279] (-117)
0BFD  00                 [280] (-117)
0BFE  49                 [281] (-116)
0BFF  00                 [282] (-116)
0C00  00                 [283] (-116)
0C01  00                 [284] (-116)
0C02  49                 [285] (-116)
0C03  00                 [286] (-116)
0C04  00                 [287] (-115)
0C05  00                 [288] (-115)
0C06  4B                 [289] (-115)
0C07  00                 [290] (-114)
0C08  00                 [291] (-114)
0C09  00                 [292] (-112)
0C0A  4B                 [293] (-112)
0C0B  00                 [294] (-112)
0C0C  00                 [295] (-112)
0C0D  00                 [296] (-111)
0C0E  4B                 [297] (-108)
0C0F  00                 [298] (-108)
0C10  00                 [299] (-108)
0C11  00                 [300] (-108)
0C12  4E                 [301] (-108)
0C13  00                 [302] (-108)
0C14  00                 [303] (-107)
0C15  00                 [304] (-107)
0C16  4E                 [305] (-107)
0C17  00                 [306] (-107)
0C18  00                 [307] (-105)
0C19  00                 [308] (-102)
                         * locals:
0FB6  00                 sizelocvars (0)
                         * upvalues:
0FB7  00                 sizeupvalues (0)
                         ** end of function **

                         
0FB8                     ** function [1] definition (level 2)
                         ** start of function **
0FB8  00                 string size (0)
                         source name: (none)
0FBA  01                 line defined (156)
0FBB  F1                 last line defined (241)
0FBC  01                 nups (1)
0FBD  01                 numparams (1)
0FBE  01                 is_vararg (0)
0FBF  00                 maxstacksize (19)
                         * code:
0FC2  01                 sizecode (207)
0FC3  92000000           [001] move       2   0      
0FC7  DD000000           [002] getglobal  3   0        ; isHitEffect
0FCB  D8000000           [003] test       3       0    ; to [5] if true
0FCF  1A400080           [004] jmp        2            ; to [7]
0FD3  52000000           [005] move       1   0      
0FD7  1AC00380           [006] jmp        16           ; to [23]
0FDB  DD400000           [007] getglobal  3   1        ; projectileParents
fail op	35
0FDF  2380C001           [008] close      0  
0FE3  1AC00080           [009] jmp        4            ; to [14]
0FE7  E4C04000           [010] self       3   0   259  ; -704974830
0FEB  E2800001           [011] call       3   2   2  
0FEF  52008001           [012] move       1   3      
0FF3  1A000280           [013] jmp        9            ; to [23]
0FF7  D9000100           [014] loadk      3   4        ; 0
0FFB  1D410000           [015] getglobal  4   1        ; projectileParents
0FFF  59010100           [016] loadk      5   4        ; 0
1003  D0C00080           [017] forprep    3   4        ; to [22]
1007  E4414101           [018] self       7   2   261  ; -1870903749
100B  E2810001           [019] call       7   2   2  
100F  52008003           [020] move       1   7      
1013  92008000           [021] move       2   1      
1017  D480FE7F           [022] forloop    3   -5       ; to [18] if loop
101B  DD810100           [023] getglobal  7   6        ; 538022378
101F  19820000           [024] loadk      8   2        ; 0
1023  E2410001           [025] call       7   2   1  
1027  DDC10100           [026] getglobal  7   7        ; 1074689893
102B  12028000           [027] move       8   1      
102F  E2810001           [028] call       7   2   2  
1033  D8010000           [029] test       7       0    ; to [31] if true
1037  1A000080           [030] jmp        1            ; to [32]
103B  1E008000           [031] return     0   1      
103F  C6018003           [032] loadnil    7   7      
1043  1D020200           [033] getglobal  8   8        ; isAttachedToWeapon
1047  18020000           [034] test       8       0    ; to [36] if true
104B  1AC00980           [035] jmp        40           ; to [76]
104F  2442C200           [036] self       8   1   265  ; -1957065004
1053  9D820200           [037] getglobal  10  10       ; gTennoAvatarType
1057  22828001           [038] call       8   3   2  
105B  18420000           [039] test       8       1    ; to [41] if false
105F  1A800180           [040] jmp        7            ; to [48]
1063  2442C200           [041] self       8   1   265  ; -1957065004
1067  9DC20200           [042] getglobal  10  11       ; gLotusMirrorAvatarType
106B  22828001           [043] call       8   3   2  
106F  18420000           [044] test       8       1    ; to [46] if false
1073  1A400080           [045] jmp        2            ; to [48]
1077  06020004           [046] loadnil    8   8      
107B  1E020001           [047] return     8   2      
107F  1D020300           [048] getglobal  8   12       ; isMeleeWeapon
1083  18020000           [049] test       8       0    ; to [51] if true
1087  1A400180           [050] jmp        6            ; to [57]
108B  2442C300           [051] self       8   1   269  ; -1917464545
108F  22820001           [052] call       8   2   2  
1093  24824304           [053] self       8   8   270  ; 1885503231
1097  22820001           [054] call       8   2   2  
109B  D2010004           [055] move       7   8      
109F  1A400880           [056] jmp        34           ; to [91]
10A3  1DC20300           [057] getglobal  8   15       ; isSecondaryWeapon
10A7  18020000           [058] test       8       0    ; to [60] if true
10AB  1AC00180           [059] jmp        8            ; to [68]
10AF  2442C300           [060] self       8   1   269  ; -1917464545
10B3  22820001           [061] call       8   2   2  
10B7  24024404           [062] self       8   8   272  ; 1674984496
10BB  9D420400           [063] getglobal  10  17       ; Engine
10BF  8E824405           [064] gettable   10  10  274  ; "SLOT_1"
10C3  22828001           [065] call       8   3   2  
10C7  D2010004           [066] move       7   8      
10CB  1A800580           [067] jmp        23           ; to [91]
10CF  2442C300           [068] self       8   1   269  ; -1917464545
10D3  22820001           [069] call       8   2   2  
10D7  24C24404           [070] self       8   8   275  ; 1856017039
10DB  9D420400           [071] getglobal  10  17       ; Engine
10DF  8E024505           [072] gettable   10  10  276  ; "MAIN_HAND"
10E3  22828001           [073] call       8   3   2  
10E7  D2010004           [074] move       7   8      
10EB  1A800380           [075] jmp        15           ; to [91]
10EF  1D020000           [076] getglobal  8   0        ; isHitEffect
10F3  18020000           [077] test       8       0    ; to [79] if true
10F7  1AC00080           [078] jmp        4            ; to [83]
10FB  2442C500           [079] self       8   1   277  ; 129677183
10FF  22820001           [080] call       8   2   2  
1103  D2010004           [081] move       7   8      
1107  1AC00180           [082] jmp        8            ; to [91]
110B  2442C200           [083] self       8   1   265  ; -1957065004
110F  9D820500           [084] getglobal  10  22       ; gProjectileType
1113  22828001           [085] call       8   3   2  
1117  18020000           [086] test       8       0    ; to [88] if true
111B  1A800080           [087] jmp        3            ; to [91]
111F  24C2C500           [088] self       8   1   279  ; 1242528274
1123  22820001           [089] call       8   2   2  
1127  D2010004           [090] move       7   8      
112B  1DC20100           [091] getglobal  8   7        ; 1074689893
112F  52028003           [092] move       9   7      
1133  22820001           [093] call       8   2   2  
1137  18420000           [094] test       8       1    ; to [96] if false
113B  1A000180           [095] jmp        5            ; to [101]
113F  2442C203           [096] self       8   7   265  ; -1957065004
1143  9D020600           [097] getglobal  10  24       ; gLotusWeaponType
1147  22828001           [098] call       8   3   2  
114B  18420000           [099] test       8       1    ; to [101] if false
114F  1A400080           [100] jmp        2            ; to [103]
1153  06020004           [101] loadnil    8   8      
1157  1E020001           [102] return     8   2      
115B  1DC20100           [103] getglobal  8   7        ; 1074689893
115F  52028003           [104] move       9   7      
1163  22820001           [105] call       8   2   2  
1167  18420000           [106] test       8       1    ; to [108] if false
116B  1A801880           [107] jmp        99           ; to [207]
116F  06020004           [108] loadnil    8   8      
1173  5D420600           [109] getglobal  9   25       ; isSentinelWeapon
1177  58020000           [110] test       9       0    ; to [112] if true
117B  1A400280           [111] jmp        10           ; to [122]
117F  6482C603           [112] self       9   7   282  ; -1538682285
1183  62820001           [113] call       9   2   2  
1187  A442C304           [114] self       10  9   269  ; -1917464545
118B  A2820001           [115] call       10  2   2  
118F  A4C24605           [116] self       10  10  283  ; 1769516121
1193  A2820001           [117] call       10  2   2  
1197  E4024705           [118] self       11  10  284  ; -1348043987
119B  E2820001           [119] call       11  2   2  
119F  12028005           [120] move       8   11     
11A3  1A400780           [121] jmp        30           ; to [152]
11A7  E442C703           [122] self       11  7   285  ; -1316189862
11AB  E2820001           [123] call       11  2   2  
11AF  1DC30100           [124] getglobal  12  7        ; 1074689893
11B3  52038005           [125] move       13  11     
11B7  22830001           [126] call       12  2   2  
11BB  18430000           [127] test       12      1    ; to [129] if false
11BF  1AC00480           [128] jmp        20           ; to [149]
11C3  2443C205           [129] self       12  11  265  ; -1957065004
11C7  9DC30200           [130] getglobal  14  11       ; gLotusMirrorAvatarType
11CB  22838001           [131] call       12  3   2  
11CF  18030000           [132] test       12      0    ; to [134] if true
11D3  1A800380           [133] jmp        15           ; to [149]
11D7  13030000           [134] getupval   12  0      
11DB  0E834706           [135] gettable   12  12  286  ; -1824732170
11DF  22838000           [136] call       12  1   2  
11E3  5DC30700           [137] getglobal  13  31       ; destroyIfIllusionAvatar
11E7  58030000           [138] test       13      0    ; to [140] if true
11EB  1A400180           [139] jmp        6            ; to [146]
fail op	35
11EF  63004806           [140] close      1  
11F3  1A400080           [141] jmp        2            ; to [144]
11F7  64434800           [142] self       13  0   289  ; -725453761
11FB  62430001           [143] call       13  2   1  
11FF  1E008000           [144] return     0   1      
1203  1A800080           [145] jmp        3            ; to [149]
fail op	21
1207  15004106           [146] concat     0   12  260
120B  1A000080           [147] jmp        1            ; to [149]
120F  1E008000           [148] return     0   1      
1213  6403C703           [149] self       13  7   284  ; -1348043987
1217  62830001           [150] call       13  2   2  
121B  12028006           [151] move       8   13     
121F  59830800           [152] loadk      13  34       ; 0
fail op	21
1223  15400381           [153] concat     0   258 13 
1227  1A000480           [154] jmp        17           ; to [172]
122B  A4C34804           [155] self       14  8   291  ; 979293742
122F  A2830001           [156] call       14  2   2  
1233  98430000           [157] test       14      1    ; to [159] if false
1237  1A000380           [158] jmp        13           ; to [172]
123B  9DC30100           [159] getglobal  14  7        ; 1074689893
123F  D2038003           [160] move       15  7      
1243  A2830001           [161] call       14  2   2  
1247  98430000           [162] test       14      1    ; to [164] if false
124B  1AC00180           [163] jmp        8            ; to [172]
124F  A403C703           [164] self       14  7   284  ; -1348043987
1253  A2830001           [165] call       14  2   2  
1257  12020007           [166] move       8   14     
125B  4D03C106           [167] sub        13  13  260  ; 0
125F  9D830100           [168] getglobal  14  6        ; 538022378
1263  D9830000           [169] loadk      15  2        ; 0
1267  A2430001           [170] call       14  2   1  
126B  1A00FB7F           [171] jmp        -19          ; to [153]
126F  86038007           [172] loadnil    14  15     
1273  1D040900           [173] getglobal  16  36       ; useAltEnergyColor
1277  18040000           [174] test       16      0    ; to [176] if true
127B  1A400180           [175] jmp        6            ; to [182]
127F  24444904           [176] self       16  8   293  ; -479391803
1283  9D840900           [177] getglobal  18  38       ; Lotus_Game
1287  8EC44909           [178] gettable   18  18  295  ; "Attachments"
128B  22848001           [179] call       16  3   2  
128F  D2030008           [180] move       15  16     
1293  1A400380           [181] jmp        14           ; to [196]
1297  1D040A00           [182] getglobal  16  40       ; useOperatorEyes
129B  18040000           [183] test       16      0    ; to [185] if true
129F  1A400180           [184] jmp        6            ; to [191]
12A3  24444904           [185] self       16  8   293  ; -479391803
12A7  9D840900           [186] getglobal  18  38       ; Lotus_Game
12AB  8E444A09           [187] gettable   18  18  297  ; "Eyes"
12AF  22848001           [188] call       16  3   2  
12B3  D2030008           [189] move       15  16     
12B7  1A000180           [190] jmp        5            ; to [196]
12BB  24444904           [191] self       16  8   293  ; -479391803
12BF  9D840900           [192] getglobal  18  38       ; Lotus_Game
12C3  8E844A09           [193] gettable   18  18  298  ; "PrimaryColors"
12C7  22848001           [194] call       16  3   2  
12CB  D2030008           [195] move       15  16     
12CF  24C4C807           [196] self       16  15  291  ; 979293742
12D3  9D840900           [197] getglobal  18  38       ; Lotus_Game
12D7  8EC44A09           [198] gettable   18  18  299  ; "EnergyColor"
12DB  22848001           [199] call       16  3   2  
12DF  18040000           [200] test       16      0    ; to [202] if true
12E3  1AC00080           [201] jmp        4            ; to [206]
12E7  1D040B00           [202] getglobal  16  44       ; -1247440829
12EB  4E44CB07           [203] gettable   17  15  301  ; "mEnergyColor"
12EF  22840001           [204] call       16  2   2  
12F3  92030008           [205] move       14  16     
12F7  9E030001           [206] return     14  2      
12FB  1E008000           [207] return     0   1      
                         * constants:
12FF  2E                 sizek (46)
1300  04                 const type 4
1301  0C                 string size (12)
1302  6973486974456666+  "isHitEff"
130A  65637400           "ect\0"
                         const [0]: "isHitEffect"
130E  04                 const type 4
130F  12                 string size (18)
1310  70726F6A65637469+  "projecti"
1318  6C65506172656E74+  "leParent"
1320  7300               "s\0"
                         const [1]: "projectileParents"
1322  03                 const type 3
1323  00000000           const [2]: (0)
1327  01                 const type 3
1328  12F0FAD5           const [3]: (-704974830)
132C  03                 const type 3
132D  0000803F           const [4]: (0)
1331  01                 const type 3
1332  3B467C90           const [5]: (-1870903749)
1336  01                 const type 3
1337  EA911120           const [6]: (538022378)
133B  01                 const type 3
133C  65770E40           const [7]: (1074689893)
1340  04                 const type 4
1341  13                 string size (19)
1342  6973417474616368+  "isAttach"
134A  6564546F57656170+  "edToWeap"
1352  6F6E00             "on\0"
                         const [8]: "isAttachedToWeapon"
1355  01                 const type 3
1356  D48E598B           const [9]: (-1957065004)
135A  04                 const type 4
135B  11                 string size (17)
135C  6754656E6E6F4176+  "gTennoAv"
1364  6174617254797065+  "atarType"
136C  00                 "\0"
                         const [10]: "gTennoAvatarType"
136D  04                 const type 4
136E  17                 string size (23)
136F  674C6F7475734D69+  "gLotusMi"
1377  72726F7241766174+  "rrorAvat"
137F  61725479706500     "arType\0"
                         const [11]: "gLotusMirrorAvatarType"
1386  04                 const type 4
1387  0E                 string size (14)
1388  69734D656C656557+  "isMeleeW"
1390  6561706F6E00       "eapon\0"
                         const [12]: "isMeleeWeapon"
1396  01                 const type 3
1397  1FD0B58D           const [13]: (-1917464545)
139B  01                 const type 3
139C  FF7E6270           const [14]: (1885503231)
13A0  04                 const type 4
13A1  12                 string size (18)
13A2  69735365636F6E64+  "isSecond"
13AA  617279576561706F+  "aryWeapo"
13B2  6E00               "n\0"
                         const [15]: "isSecondaryWeapon"
13B4  01                 const type 3
13B5  303CD663           const [16]: (1674984496)
13B9  04                 const type 4
13BA  07                 string size (7)
13BB  456E67696E6500     "Engine\0"
                         const [17]: "Engine"
13C2  04                 const type 4
13C3  07                 string size (7)
13C4  534C4F545F3100     "SLOT_1\0"
                         const [18]: "SLOT_1"
13CB  01                 const type 3
13CC  8F92A06E           const [19]: (1856017039)
13D0  04                 const type 4
13D1  0A                 string size (10)
13D2  4D41494E5F48414E+  "MAIN_HAN"
13DA  4400               "D\0"
                         const [20]: "MAIN_HAND"
13DC  01                 const type 3
13DD  7FB7BA07           const [21]: (129677183)
13E1  04                 const type 4
13E2  10                 string size (16)
13E3  6750726F6A656374+  "gProject"
13EB  696C655479706500   "ileType\0"
                         const [22]: "gProjectileType"
13F3  01                 const type 3
13F4  127A0F4A           const [23]: (1242528274)
13F8  04                 const type 4
13F9  11                 string size (17)
13FA  674C6F7475735765+  "gLotusWe"
1402  61706F6E54797065+  "aponType"
140A  00                 "\0"
                         const [24]: "gLotusWeaponType"
140B  04                 const type 4
140C  11                 string size (17)
140D  697353656E74696E+  "isSentin"
1415  656C576561706F6E+  "elWeapon"
141D  00                 "\0"
                         const [25]: "isSentinelWeapon"
141E  01                 const type 3
141F  539249A4           const [26]: (-1538682285)
1423  01                 const type 3
1424  59AC7869           const [27]: (1769516121)
1428  01                 const type 3
1429  2D7BA6AF           const [28]: (-1348043987)
142D  01                 const type 3
142E  5A898CB1           const [29]: (-1316189862)
1432  01                 const type 3
1433  F6CB3C93           const [30]: (-1824732170)
1437  04                 const type 4
1438  18                 string size (24)
1439  64657374726F7949+  "destroyI"
1441  66496C6C7573696F+  "fIllusio"
1449  6E41766174617200   "nAvatar\0"
                         const [31]: "destroyIfIllusionAvatar"
1451  03                 const type 3
1452  00000040           const [32]: (0)
1456  01                 const type 3
1457  3F74C2D4           const [33]: (-725453761)
145B  03                 const type 3
145C  00000041           const [34]: (0)
1460  01                 const type 3
1461  2ED65E3A           const [35]: (979293742)
1465  04                 const type 4
1466  12                 string size (18)
1467  757365416C74456E+  "useAltEn"
146F  65726779436F6C6F+  "ergyColo"
1477  7200               "r\0"
                         const [36]: "useAltEnergyColor"
1479  01                 const type 3
147A  C50F6DE3           const [37]: (-479391803)
147E  04                 const type 4
147F  0B                 string size (11)
1480  4C6F7475735F4761+  "Lotus_Ga"
1488  6D6500             "me\0"
                         const [38]: "Lotus_Game"
148B  04                 const type 4
148C  0C                 string size (12)
148D  4174746163686D65+  "Attachme"
1495  6E747300           "nts\0"
                         const [39]: "Attachments"
1499  04                 const type 4
149A  10                 string size (16)
149B  7573654F70657261+  "useOpera"
14A3  746F724579657300   "torEyes\0"
                         const [40]: "useOperatorEyes"
14AB  04                 const type 4
14AC  05                 string size (5)
14AD  4579657300         "Eyes\0"
                         const [41]: "Eyes"
14B2  04                 const type 4
14B3  0E                 string size (14)
14B4  5072696D61727943+  "PrimaryC"
14BC  6F6C6F727300       "olors\0"
                         const [42]: "PrimaryColors"
14C2  04                 const type 4
14C3  0C                 string size (12)
14C4  456E65726779436F+  "EnergyCo"
14CC  6C6F7200           "lor\0"
                         const [43]: "EnergyColor"
14D0  01                 const type 3
14D1  4390A5B5           const [44]: (-1247440829)
14D5  04                 const type 4
14D6  0D                 string size (13)
14D7  6D456E6572677943+  "mEnergyC"
14DF  6F6C6F7200         "olor\0"
                         const [45]: "mEnergyColor"
                         * functions:
14E4  00                 sizep (0)
                         * lines:
14E6  01                 sizelineinfo (207)
                         [pc] (line)
14E7  9E                 [001] (-98)
14E8  00                 [002] (-97)
14E9  00                 [003] (-97)
14EA  00                 [004] (-97)
14EB  9F                 [005] (-96)
14EC  00                 [006] (-96)
14ED  00                 [007] (-94)
14EE  00                 [008] (-94)
14EF  9F                 [009] (-94)
14F0  00                 [010] (-93)
14F1  00                 [011] (-93)
14F2  00                 [012] (-93)
14F3  9F                 [013] (-93)
14F4  00                 [014] (-91)
14F5  00                 [015] (-91)
14F6  00                 [016] (-91)
14F7  A0                 [017] (-91)
14F8  00                 [018] (-90)
14F9  00                 [019] (-90)
14FA  00                 [020] (-90)
14FB  A0                 [021] (-89)
14FC  00                 [022] (-91)
14FD  00                 [023] (-84)
14FE  00                 [024] (-84)
14FF  A2                 [025] (-84)
1500  00                 [026] (-83)
1501  00                 [027] (-83)
1502  00                 [028] (-83)
1503  A2                 [029] (-83)
1504  00                 [030] (-83)
1505  00                 [031] (-82)
1506  00                 [032] (-80)
1507  A2                 [033] (-79)
1508  00                 [034] (-79)
1509  00                 [035] (-79)
150A  00                 [036] (-77)
150B  A3                 [037] (-77)
150C  00                 [038] (-77)
150D  00                 [039] (-77)
150E  00                 [040] (-77)
150F  A3                 [041] (-77)
1510  00                 [042] (-77)
1511  00                 [043] (-77)
1512  00                 [044] (-77)
1513  A3                 [045] (-77)
1514  00                 [046] (-76)
1515  00                 [047] (-76)
1516  00                 [048] (-74)
1517  A3                 [049] (-74)
1518  00                 [050] (-74)
1519  00                 [051] (-73)
151A  00                 [052] (-73)
151B  A5                 [053] (-73)
151C  00                 [054] (-73)
151D  00                 [055] (-73)
151E  00                 [056] (-73)
151F  A5                 [057] (-72)
1520  00                 [058] (-72)
1521  00                 [059] (-72)
1522  00                 [060] (-71)
1523  A5                 [061] (-71)
1524  00                 [062] (-71)
1525  00                 [063] (-71)
1526  00                 [064] (-71)
1527  A5                 [065] (-71)
1528  00                 [066] (-71)
1529  00                 [067] (-71)
152A  00                 [068] (-69)
152B  A6                 [069] (-69)
152C  00                 [070] (-69)
152D  00                 [071] (-69)
152E  00                 [072] (-69)
152F  A6                 [073] (-69)
1530  00                 [074] (-69)
1531  00                 [075] (-68)
1532  00                 [076] (-66)
1533  A6                 [077] (-66)
1534  00                 [078] (-66)
1535  00                 [079] (-65)
1536  00                 [080] (-65)
1537  A7                 [081] (-65)
1538  00                 [082] (-65)
1539  00                 [083] (-64)
153A  00                 [084] (-64)
153B  A5                 [085] (-64)
153C  00                 [086] (-64)
153D  00                 [087] (-64)
153E  00                 [088] (-63)
153F  AC                 [089] (-63)
1540  00                 [090] (-63)
1541  00                 [091] (-60)
1542  00                 [092] (-60)
1543  AC                 [093] (-60)
1544  00                 [094] (-60)
1545  00                 [095] (-60)
1546  00                 [096] (-60)
1547  AC                 [097] (-60)
1548  00                 [098] (-60)
1549  00                 [099] (-60)
154A  00                 [100] (-60)
154B  AD                 [101] (-59)
154C  00                 [102] (-59)
154D  00                 [103] (-57)
154E  00                 [104] (-57)
154F  AD                 [105] (-57)
1550  00                 [106] (-57)
1551  00                 [107] (-57)
1552  00                 [108] (-56)
1553  AD                 [109] (-55)
1554  00                 [110] (-55)
1555  00                 [111] (-55)
1556  00                 [112] (-54)
1557  AD                 [113] (-54)
1558  00                 [114] (-53)
1559  00                 [115] (-53)
155A  00                 [116] (-53)
155B  AD                 [117] (-53)
155C  00                 [118] (-52)
155D  00                 [119] (-52)
155E  00                 [120] (-52)
155F  AE                 [121] (-52)
1560  00                 [122] (-50)
1561  00                 [123] (-50)
1562  00                 [124] (-49)
1563  B0                 [125] (-49)
1564  00                 [126] (-49)
1565  00                 [127] (-49)
1566  00                 [128] (-49)
1567  B1                 [129] (-49)
1568  00                 [130] (-49)
1569  00                 [131] (-49)
156A  00                 [132] (-49)
156B  B1                 [133] (-49)
156C  00                 [134] (-48)
156D  00                 [135] (-48)
156E  00                 [136] (-48)
156F  B1                 [137] (-47)
1570  00                 [138] (-47)
1571  00                 [139] (-47)
1572  00                 [140] (-46)
1573  B3                 [141] (-46)
1574  00                 [142] (-45)
1575  00                 [143] (-45)
1576  00                 [144] (-43)
1577  B3                 [145] (-43)
1578  00                 [146] (-42)
1579  00                 [147] (-42)
157A  00                 [148] (-41)
157B  B3                 [149] (-38)
157C  00                 [150] (-38)
157D  00                 [151] (-38)
157E  00                 [152] (-36)
157F  B3                 [153] (-35)
1580  00                 [154] (-35)
1581  00                 [155] (-35)
1582  00                 [156] (-35)
1583  B3                 [157] (-35)
1584  00                 [158] (-35)
1585  00                 [159] (-35)
1586  00                 [160] (-35)
1587  B3                 [161] (-35)
1588  00                 [162] (-35)
1589  00                 [163] (-35)
158A  00                 [164] (-34)
158B  B3                 [165] (-34)
158C  00                 [166] (-34)
158D  00                 [167] (-33)
158E  00                 [168] (-32)
158F  B3                 [169] (-32)
1590  00                 [170] (-32)
1591  00                 [171] (-32)
1592  00                 [172] (-29)
1593  B3                 [173] (-27)
1594  00                 [174] (-27)
1595  00                 [175] (-27)
1596  00                 [176] (-26)
1597  B3                 [177] (-26)
1598  00                 [178] (-26)
1599  00                 [179] (-26)
159A  00                 [180] (-26)
159B  B4                 [181] (-26)
159C  00                 [182] (-25)
159D  00                 [183] (-25)
159E  00                 [184] (-25)
159F  B4                 [185] (-24)
15A0  00                 [186] (-24)
15A1  00                 [187] (-24)
15A2  00                 [188] (-24)
15A3  B6                 [189] (-24)
15A4  00                 [190] (-24)
15A5  00                 [191] (-22)
15A6  00                 [192] (-22)
15A7  B6                 [193] (-22)
15A8  00                 [194] (-22)
15A9  00                 [195] (-22)
15AA  00                 [196] (-20)
15AB  B6                 [197] (-20)
15AC  00                 [198] (-20)
15AD  00                 [199] (-20)
15AE  00                 [200] (-20)
15AF  B7                 [201] (-20)
15B0  00                 [202] (-19)
15B1  00                 [203] (-19)
15B2  00                 [204] (-19)
15B3  B7                 [205] (-19)
15B4  00                 [206] (-17)
15B5  00                 [207] (-15)
                         * locals:
1823  00                 sizelocvars (0)
                         * upvalues:
1824  00                 sizeupvalues (0)
                         ** end of function **

                         
1825                     ** function [2] definition (level 2)
                         ** start of function **
1825  00                 string size (0)
                         source name: (none)
1827  01                 line defined (243)
1828  97                 last line defined (279)
1829  02                 nups (3)
182A  03                 numparams (1)
182B  01                 is_vararg (0)
182C  00                 maxstacksize (12)
                         * code:
182E  65                 sizecode (101)
182F  5D000000           [001] getglobal  1   0        ; -1247440829
1833  62808000           [002] call       1   1   2  
1837  9D400000           [003] getglobal  2   1        ; sleepFirst
183B  98000000           [004] test       2       0    ; to [6] if true
183F  1A800080           [005] jmp        3            ; to [9]
1843  9D800000           [006] getglobal  2   2        ; 538022378
1847  D9C00000           [007] loadk      3   3        ; 0
184B  A2400001           [008] call       2   2   1  
184F  9D000100           [009] getglobal  2   4        ; isWeaponProjectile
1853  98000000           [010] test       2       0    ; to [12] if true
1857  1A000180           [011] jmp        5            ; to [17]
185B  93000000           [012] getupval   2   0      
185F  D2000000           [013] move       3   0      
1863  A2800001           [014] call       2   2   2  
1867  52000001           [015] move       1   2      
186B  1A000180           [016] jmp        5            ; to [22]
186F  93008000           [017] getupval   2   1      
1873  D2000000           [018] move       3   0      
1877  1D410100           [019] getglobal  4   5        ; getParentFirst
187B  A2808001           [020] call       2   3   2  
187F  52000001           [021] move       1   2      
1883  9D800100           [022] getglobal  2   6        ; 1074689893
1887  D2008000           [023] move       3   1      
188B  A2800001           [024] call       2   2   2  
188F  98400000           [025] test       2       1    ; to [27] if false
1893  1AC00B80           [026] jmp        48           ; to [75]
1897  9DC00100           [027] getglobal  2   7        ; applyToParentColor
189B  98000000           [028] test       2       0    ; to [30] if true
189F  1AC00180           [029] jmp        8            ; to [38]
18A3  A4004200           [030] self       2   0   264  ; -1870903749
18A7  A2800001           [031] call       2   2   2  
18AB  DD800100           [032] getglobal  3   6        ; 1074689893
18AF  12010001           [033] move       4   2      
18B3  E2800001           [034] call       3   2   2  
18B7  D8400000           [035] test       3       1    ; to [37] if false
18BB  1A000080           [036] jmp        1            ; to [38]
18BF  12000001           [037] move       0   2      
18C3  DD400200           [038] getglobal  3   9        ; invertColor
18C7  D8000000           [039] test       3       0    ; to [41] if true
18CB  1A000280           [040] jmp        9            ; to [50]
18CF  CE80C200           [041] gettable   3   1   266  ; "red"
18D3  CDC08085           [042] sub        3   267 3    ; 0
18D7  4CC00085           [043] settable   1   266 3    ; "red"
18DB  CE00C300           [044] gettable   3   1   268  ; "green"
18DF  CDC08085           [045] sub        3   267 3    ; 0
18E3  4CC00086           [046] settable   1   268 3    ; "green"
18E7  CE40C300           [047] gettable   3   1   269  ; "blue"
18EB  CDC08085           [048] sub        3   267 3    ; 0
18EF  4CC08086           [049] settable   1   269 3    ; "blue"
18F3  E4804300           [050] self       3   0   270  ; -786111647
18F7  5DC10300           [051] getglobal  5   15       ; Param
18FB  93010001           [052] getupval   6   2      
18FF  8E014403           [053] gettable   6   6   272  ; 1988048406
1903  CE81C200           [054] gettable   7   1   266  ; "red"
1907  A2810001           [055] call       6   2   2  
190B  D3010001           [056] getupval   7   2      
190F  CE01C403           [057] gettable   7   7   272  ; 1988048406
1913  0E02C300           [058] gettable   8   1   268  ; "green"
1917  E2810001           [059] call       7   2   2  
191B  13020001           [060] getupval   8   2      
191F  0E024404           [061] gettable   8   8   272  ; 1988048406
1923  4E42C300           [062] gettable   9   1   269  ; "blue"
1927  22820001           [063] call       8   2   2  
192B  59420400           [064] loadk      9   17       ; 0
192F  9D820400           [065] getglobal  10  18       ; applyToChildren
1933  E2400004           [066] call       3   8   1  
1937  DDC00400           [067] getglobal  3   19       ; applyLowHigh
193B  D8000000           [068] test       3       0    ; to [70] if true
193F  1A000180           [069] jmp        5            ; to [75]
1943  D3000001           [070] getupval   3   2      
1947  CE00C501           [071] gettable   3   3   276  ; -1130533444
194B  12010000           [072] move       4   0      
194F  52018000           [073] move       5   1      
1953  E2408001           [074] call       3   3   1  
1957  DD400500           [075] getglobal  3   21       ; isBaroDangle
195B  D8000000           [076] test       3       0    ; to [78] if true
195F  1A800580           [077] jmp        23           ; to [101]
1963  E4004200           [078] self       3   0   264  ; -1870903749
1967  E2800001           [079] call       3   2   2  
196B  1D810100           [080] getglobal  4   6        ; 1074689893
196F  52018001           [081] move       5   3      
1973  22810001           [082] call       4   2   2  
1977  18410000           [083] test       4       1    ; to [85] if false
197B  1AC00380           [084] jmp        16           ; to [101]
197F  2481C501           [085] self       4   3   278  ; -323635054
1983  22810001           [086] call       4   2   2  
1987  64C14500           [087] self       5   0   279  ; 917683095
198B  62810001           [088] call       5   2   2  
198F  A4014600           [089] self       6   0   280  ; -1484030041
1993  1D420600           [090] getglobal  8   25       ; 572299008
1997  4E82C602           [091] gettable   9   5   282  ; "x"
199B  4442C404           [092] mul        9   9   273  ; 0
199F  8EC2C602           [093] gettable   10  5   283  ; "y"
19A3  84020105           [094] mul        10  10  4  
19A7  CE02C702           [095] gettable   11  5   284  ; "z"
19AB  C442C405           [096] mul        11  11  273  ; 0
19AF  22820002           [097] call       8   4   2  
19B3  64424700           [098] self       9   0   285  ; 578679216
19B7  62020001           [099] call       9   2   0  
19BB  A2410000           [100] call       6   0   1  
19BF  1E008000           [101] return     0   1      
                         * constants:
19C3  1E                 sizek (30)
19C4  01                 const type 3
19C5  4390A5B5           const [0]: (-1247440829)
19C9  04                 const type 4
19CA  0B                 string size (11)
19CB  736C656570466972+  "sleepFir"
19D3  737400             "st\0"
                         const [1]: "sleepFirst"
19D6  01                 const type 3
19D7  EA911120           const [2]: (538022378)
19DB  03                 const type 3
19DC  00000000           const [3]: (0)
19E0  04                 const type 4
19E1  13                 string size (19)
19E2  6973576561706F6E+  "isWeapon"
19EA  50726F6A65637469+  "Projecti"
19F2  6C6500             "le\0"
                         const [4]: "isWeaponProjectile"
19F5  04                 const type 4
19F6  0F                 string size (15)
19F7  676574506172656E+  "getParen"
19FF  74466972737400     "tFirst\0"
                         const [5]: "getParentFirst"
1A06  01                 const type 3
1A07  65770E40           const [6]: (1074689893)
1A0B  04                 const type 4
1A0C  13                 string size (19)
1A0D  6170706C79546F50+  "applyToP"
1A15  6172656E74436F6C+  "arentCol"
1A1D  6F7200             "or\0"
                         const [7]: "applyToParentColor"
1A20  01                 const type 3
1A21  3B467C90           const [8]: (-1870903749)
1A25  04                 const type 4
1A26  0C                 string size (12)
1A27  696E76657274436F+  "invertCo"
1A2F  6C6F7200           "lor\0"
                         const [9]: "invertColor"
1A33  04                 const type 4
1A34  04                 string size (4)
1A35  72656400           "red\0"
                         const [10]: "red"
1A39  03                 const type 3
1A3A  00007F43           const [11]: (0)
1A3E  04                 const type 4
1A3F  06                 string size (6)
1A40  677265656E00       "green\0"
                         const [12]: "green"
1A46  04                 const type 4
1A47  05                 string size (5)
1A48  626C756500         "blue\0"
                         const [13]: "blue"
1A4D  01                 const type 3
1A4E  61E324D1           const [14]: (-786111647)
1A52  04                 const type 4
1A53  06                 string size (6)
1A54  506172616D00       "Param\0"
                         const [15]: "Param"
1A5A  01                 const type 3
1A5B  16367F76           const [16]: (1988048406)
1A5F  03                 const type 3
1A60  0000803F           const [17]: (0)
1A64  04                 const type 4
1A65  10                 string size (16)
1A66  6170706C79546F43+  "applyToC"
1A6E  68696C6472656E00   "hildren\0"
                         const [18]: "applyToChildren"
1A76  04                 const type 4
1A77  0D                 string size (13)
1A78  6170706C794C6F77+  "applyLow"
1A80  4869676800         "High\0"
                         const [19]: "applyLowHigh"
1A85  01                 const type 3
1A86  BC6D9DBC           const [20]: (-1130533444)
1A8A  04                 const type 4
1A8B  0D                 string size (13)
1A8C  69734261726F4461+  "isBaroDa"
1A94  6E676C6500         "ngle\0"
                         const [21]: "isBaroDangle"
1A99  01                 const type 3
1A9A  92B8B5EC           const [22]: (-323635054)
1A9E  01                 const type 3
1A9F  97BBB236           const [23]: (917683095)
1AA3  01                 const type 3
1AA4  A77F8BA7           const [24]: (-1484030041)
1AA8  01                 const type 3
1AA9  00971C22           const [25]: (572299008)
1AAD  04                 const type 4
1AAE  02                 string size (2)
1AAF  7800               "x\0"
                         const [26]: "x"
1AB1  04                 const type 4
1AB2  02                 string size (2)
1AB3  7900               "y\0"
                         const [27]: "y"
1AB5  04                 const type 4
1AB6  02                 string size (2)
1AB7  7A00               "z\0"
                         const [28]: "z"
1AB9  01                 const type 3
1ABA  B0F17D22           const [29]: (578679216)
                         * functions:
1ABE  00                 sizep (0)
                         * lines:
1ABF  65                 sizelineinfo (101)
                         [pc] (line)
1AC0  F4                 [001] (-12)
1AC1  00                 [002] (-12)
1AC2  00                 [003] (-11)
1AC3  00                 [004] (-11)
1AC4  F4                 [005] (-11)
1AC5  00                 [006] (-10)
1AC6  00                 [007] (-10)
1AC7  00                 [008] (-10)
1AC8  F5                 [009] (-8)
1AC9  00                 [010] (-8)
1ACA  00                 [011] (-8)
1ACB  00                 [012] (-7)
1ACC  F5                 [013] (-7)
1ACD  00                 [014] (-7)
1ACE  00                 [015] (-7)
1ACF  00                 [016] (-7)
1AD0  F5                 [017] (-5)
1AD1  00                 [018] (-5)
1AD2  00                 [019] (-5)
1AD3  00                 [020] (-5)
1AD4  F6                 [021] (-5)
1AD5  00                 [022] (-3)
1AD6  00                 [023] (-3)
1AD7  00                 [024] (-3)
1AD8  F6                 [025] (-3)
1AD9  00                 [026] (-3)
1ADA  00                 [027] (-2)
1ADB  00                 [028] (-2)
1ADC  F6                 [029] (-2)
1ADD  00                 [030] (-1)
1ADE  00                 [031] (-1)
1ADF  00                 [032] (0)
1AE0  F8                 [033] (0)
1AE1  00                 [034] (0)
1AE2  00                 [035] (0)
1AE3  00                 [036] (0)
1AE4  F8                 [037] (1)
1AE5  00                 [038] (4)
1AE6  00                 [039] (4)
1AE7  00                 [040] (4)
1AE8  F8                 [041] (5)
1AE9  00                 [042] (5)
1AEA  00                 [043] (5)
1AEB  00                 [044] (6)
1AEC  F9                 [045] (6)
1AED  00                 [046] (6)
1AEE  00                 [047] (7)
1AEF  00                 [048] (7)
1AF0  F9                 [049] (7)
1AF1  00                 [050] (9)
1AF2  00                 [051] (9)
1AF3  00                 [052] (9)
1AF4  F9                 [053] (9)
1AF5  00                 [054] (9)
1AF6  00                 [055] (9)
1AF7  00                 [056] (9)
1AF8  F9                 [057] (9)
1AF9  00                 [058] (9)
1AFA  00                 [059] (9)
1AFB  00                 [060] (9)
1AFC  F9                 [061] (9)
1AFD  00                 [062] (9)
1AFE  00                 [063] (9)
1AFF  00                 [064] (9)
1B00  FB                 [065] (9)
1B01  00                 [066] (9)
1B02  00                 [067] (10)
1B03  00                 [068] (10)
1B04  FB                 [069] (10)
1B05  00                 [070] (11)
1B06  00                 [071] (11)
1B07  00                 [072] (11)
1B08  FB                 [073] (11)
1B09  00                 [074] (11)
1B0A  00                 [075] (14)
1B0B  00                 [076] (14)
1B0C  FB                 [077] (14)
1B0D  00                 [078] (16)
1B0E  00                 [079] (16)
1B0F  00                 [080] (17)
1B10  FB                 [081] (17)
1B11  00                 [082] (17)
1B12  00                 [083] (17)
1B13  00                 [084] (17)
1B14  FD                 [085] (18)
1B15  00                 [086] (18)
1B16  00                 [087] (19)
1B17  00                 [088] (19)
1B18  FD                 [089] (20)
1B19  00                 [090] (20)
1B1A  00                 [091] (20)
1B1B  00                 [092] (20)
1B1C  FD                 [093] (20)
1B1D  00                 [094] (20)
1B1E  00                 [095] (20)
1B1F  00                 [096] (20)
1B20  FD                 [097] (20)
1B21  00                 [098] (20)
1B22  00                 [099] (20)
1B23  00                 [100] (20)
1B24  FD                 [101] (23)
                         * locals:
1C54  00                 sizelocvars (0)
                         * upvalues:
1C55  00                 sizeupvalues (0)
                         ** end of function **

                         
1C56                     ** function [3] definition (level 2)
                         ** start of function **
1C56  00                 string size (0)
                         source name: (none)
1C58  02                 line defined (281)
1C59  AA                 last line defined (298)
1C5A  02                 nups (1)
1C5B  01                 numparams (1)
1C5C  01                 is_vararg (0)
1C5D  00                 maxstacksize (14)
                         * code:
1C5F  43                 sizecode (67)
1C60  5D000000           [01] getglobal  1   0        ; 1074689893
1C64  92000000           [02] move       2   0      
1C68  62800001           [03] call       1   2   2  
1C6C  58400000           [04] test       1       1    ; to [6] if false
1C70  1A000F80           [05] jmp        61           ; to [67]
1C74  5D400000           [06] getglobal  1   1        ; sleepFirst
1C78  58000000           [07] test       1       0    ; to [9] if true
1C7C  1A800080           [08] jmp        3            ; to [12]
1C80  5D800000           [09] getglobal  1   2        ; 538022378
1C84  99C00000           [10] loadk      2   3        ; 0
1C88  62400001           [11] call       1   2   1  
1C8C  64004100           [12] self       1   0   260  ; -786111647
1C90  DD400100           [13] getglobal  3   5        ; Param
1C94  13010000           [14] getupval   4   0      
1C98  0E814102           [15] gettable   4   4   262  ; 1988048406
1C9C  5DC10100           [16] getglobal  5   7        ; newEnergyColor
1CA0  4E01C202           [17] gettable   5   5   264  ; "red"
1CA4  22810001           [18] call       4   2   2  
1CA8  53010000           [19] getupval   5   0      
1CAC  4E81C102           [20] gettable   5   5   262  ; 1988048406
1CB0  9DC10100           [21] getglobal  6   7        ; newEnergyColor
1CB4  8E414203           [22] gettable   6   6   265  ; "green"
1CB8  62810001           [23] call       5   2   2  
1CBC  93010000           [24] getupval   6   0      
1CC0  8E814103           [25] gettable   6   6   262  ; 1988048406
1CC4  DDC10100           [26] getglobal  7   7        ; newEnergyColor
1CC8  CE81C203           [27] gettable   7   7   266  ; "blue"
1CCC  A2810001           [28] call       6   2   2  
1CD0  D9C10200           [29] loadk      7   11       ; 0
1CD4  62408003           [30] call       1   7   1  
1CD8  5D000300           [31] getglobal  1   12       ; applyToChildren
1CDC  58000000           [32] test       1       0    ; to [34] if true
1CE0  1A000880           [33] jmp        33           ; to [67]
1CE4  64404300           [34] self       1   0   269  ; 366271214
1CE8  DD800300           [35] getglobal  3   14       ; gDecorationType
1CEC  62808001           [36] call       1   3   2  
1CF0  9D000000           [37] getglobal  2   0        ; 1074689893
1CF4  D2008000           [38] move       3   1      
1CF8  A2800001           [39] call       2   2   2  
1CFC  98400000           [40] test       2       1    ; to [42] if false
1D00  1A000680           [41] jmp        25           ; to [67]
1D04  99C00200           [42] loadk      2   11       ; 0
1D08  CA008000           [43] len        3   1      
1D0C  19C10200           [44] loadk      4   11       ; 0
1D10  90C00480           [45] forprep    2   20       ; to [66]
1D14  8E418100           [46] gettable   6   1   5  
1D18  E4014103           [47] self       7   6   260  ; -786111647
1D1C  5D420100           [48] getglobal  9   5        ; Param
1D20  93020000           [49] getupval   10  0      
1D24  8E824105           [50] gettable   10  10  262  ; 1988048406
1D28  DDC20100           [51] getglobal  11  7        ; newEnergyColor
1D2C  CE02C205           [52] gettable   11  11  264  ; "red"
1D30  A2820001           [53] call       10  2   2  
1D34  D3020000           [54] getupval   11  0      
1D38  CE82C105           [55] gettable   11  11  262  ; 1988048406
1D3C  1DC30100           [56] getglobal  12  7        ; newEnergyColor
1D40  0E434206           [57] gettable   12  12  265  ; "green"
1D44  E2820001           [58] call       11  2   2  
1D48  13030000           [59] getupval   12  0      
1D4C  0E834106           [60] gettable   12  12  262  ; 1988048406
1D50  5DC30100           [61] getglobal  13  7        ; newEnergyColor
1D54  4E83C206           [62] gettable   13  13  266  ; "blue"
1D58  22830001           [63] call       12  2   2  
1D5C  59C30200           [64] loadk      13  11       ; 0
1D60  E2418003           [65] call       7   7   1  
1D64  9480FA7F           [66] forloop    2   -21      ; to [46] if loop
1D68  1E008000           [67] return     0   1      
                         * constants:
1D6C  0F                 sizek (15)
1D6D  01                 const type 3
1D6E  65770E40           const [0]: (1074689893)
1D72  04                 const type 4
1D73  0B                 string size (11)
1D74  736C656570466972+  "sleepFir"
1D7C  737400             "st\0"
                         const [1]: "sleepFirst"
1D7F  01                 const type 3
1D80  EA911120           const [2]: (538022378)
1D84  03                 const type 3
1D85  00000000           const [3]: (0)
1D89  01                 const type 3
1D8A  61E324D1           const [4]: (-786111647)
1D8E  04                 const type 4
1D8F  06                 string size (6)
1D90  506172616D00       "Param\0"
                         const [5]: "Param"
1D96  01                 const type 3
1D97  16367F76           const [6]: (1988048406)
1D9B  04                 const type 4
1D9C  0F                 string size (15)
1D9D  6E6577456E657267+  "newEnerg"
1DA5  79436F6C6F7200     "yColor\0"
                         const [7]: "newEnergyColor"
1DAC  04                 const type 4
1DAD  04                 string size (4)
1DAE  72656400           "red\0"
                         const [8]: "red"
1DB2  04                 const type 4
1DB3  06                 string size (6)
1DB4  677265656E00       "green\0"
                         const [9]: "green"
1DBA  04                 const type 4
1DBB  05                 string size (5)
1DBC  626C756500         "blue\0"
                         const [10]: "blue"
1DC1  03                 const type 3
1DC2  0000803F           const [11]: (0)
1DC6  04                 const type 4
1DC7  10                 string size (16)
1DC8  6170706C79546F43+  "applyToC"
1DD0  68696C6472656E00   "hildren\0"
                         const [12]: "applyToChildren"
1DD8  01                 const type 3
1DD9  EEDAD415           const [13]: (366271214)
1DDD  04                 const type 4
1DDE  10                 string size (16)
1DDF  674465636F726174+  "gDecorat"
1DE7  696F6E5479706500   "ionType\0"
                         const [14]: "gDecorationType"
                         * functions:
1DEF  00                 sizep (0)
                         * lines:
1DF0  43                 sizelineinfo (67)
                         [pc] (line)
1DF1  1A                 [01] (26)
1DF2  01                 [02] (26)
1DF3  00                 [03] (26)
1DF4  00                 [04] (26)
1DF5  1A                 [05] (26)
1DF6  01                 [06] (27)
1DF7  00                 [07] (27)
1DF8  00                 [08] (27)
1DF9  1A                 [09] (28)
1DFA  01                 [10] (28)
1DFB  00                 [11] (28)
1DFC  00                 [12] (31)
1DFD  1A                 [13] (31)
1DFE  01                 [14] (31)
1DFF  00                 [15] (31)
1E00  00                 [16] (31)
1E01  1A                 [17] (31)
1E02  01                 [18] (31)
1E03  00                 [19] (31)
1E04  00                 [20] (31)
1E05  1B                 [21] (31)
1E06  01                 [22] (31)
1E07  00                 [23] (31)
1E08  00                 [24] (31)
1E09  1B                 [25] (31)
1E0A  01                 [26] (31)
1E0B  00                 [27] (31)
1E0C  00                 [28] (31)
1E0D  1B                 [29] (31)
1E0E  01                 [30] (31)
1E0F  00                 [31] (32)
1E10  00                 [32] (32)
1E11  1C                 [33] (32)
1E12  01                 [34] (33)
1E13  00                 [35] (33)
1E14  00                 [36] (33)
1E15  1C                 [37] (34)
1E16  01                 [38] (34)
1E17  00                 [39] (34)
1E18  00                 [40] (34)
1E19  1C                 [41] (34)
1E1A  01                 [42] (35)
1E1B  00                 [43] (35)
1E1C  00                 [44] (35)
1E1D  1F                 [45] (35)
1E1E  01                 [46] (36)
1E1F  00                 [47] (37)
1E20  00                 [48] (37)
1E21  1F                 [49] (37)
1E22  01                 [50] (37)
1E23  00                 [51] (37)
1E24  00                 [52] (37)
1E25  1F                 [53] (37)
1E26  01                 [54] (37)
1E27  00                 [55] (37)
1E28  00                 [56] (37)
1E29  1F                 [57] (37)
1E2A  01                 [58] (37)
1E2B  00                 [59] (37)
1E2C  00                 [60] (37)
1E2D  1F                 [61] (37)
1E2E  01                 [62] (37)
1E2F  00                 [63] (37)
1E30  00                 [64] (37)
1E31  1F                 [65] (37)
1E32  01                 [66] (35)
1E33  00                 [67] (42)
                         * locals:
1EFD  00                 sizelocvars (0)
                         * upvalues:
1EFE  00                 sizeupvalues (0)
                         ** end of function **

                         
1EFF                     ** function [4] definition (level 2)
                         ** start of function **
1EFF  00                 string size (0)
                         source name: (none)
1F01  02                 line defined (300)
1F02  F0                 last line defined (368)
1F03  02                 nups (1)
1F04  01                 numparams (1)
1F05  01                 is_vararg (0)
1F06  00                 maxstacksize (16)
                         * code:
1F09  01                 sizecode (168)
1F0A  12010000           [001] move       4   0      
1F0E  64014002           [002] self       5   4   256  ; -1870903749
1F12  62810001           [003] call       5   2   2  
1F16  92008002           [004] move       2   5      
1F1A  12010001           [005] move       4   2      
1F1E  5D410000           [006] getglobal  5   1        ; 1074689893
1F22  92010001           [007] move       6   2      
1F26  62810001           [008] call       5   2   2  
1F2A  58410000           [009] test       5       1    ; to [11] if false
1F2E  1A400280           [010] jmp        10           ; to [21]
1F32  64814001           [011] self       5   2   258  ; -1957065004
1F36  DDC10000           [012] getglobal  7   3        ; gBaseAvatarType
1F3A  62818001           [013] call       5   3   2  
1F3E  58410000           [014] test       5       1    ; to [16] if false
1F42  1A000180           [015] jmp        5            ; to [21]
1F46  64814001           [016] self       5   2   258  ; -1957065004
1F4A  DD010100           [017] getglobal  7   4        ; gProjectileType
1F4E  62818001           [018] call       5   3   2  
1F52  58010000           [019] test       5       0    ; to [21] if true
1F56  1A00FB7F           [020] jmp        -19          ; to [2]
1F5A  5D410000           [021] getglobal  5   1        ; 1074689893
1F5E  92010001           [022] move       6   2      
1F62  62810001           [023] call       5   2   2  
1F66  58410000           [024] test       5       1    ; to [26] if false
1F6A  1AC00B80           [025] jmp        48           ; to [74]
1F6E  64814001           [026] self       5   2   258  ; -1957065004
1F72  DDC10000           [027] getglobal  7   3        ; gBaseAvatarType
1F76  62818001           [028] call       5   3   2  
1F7A  58010000           [029] test       5       0    ; to [31] if true
1F7E  1A000780           [030] jmp        29           ; to [60]
1F82  52000001           [031] move       1   2      
1F86  5D410100           [032] getglobal  5   5        ; isMeleeWeapon
1F8A  58010000           [033] test       5       0    ; to [35] if true
1F8E  1A400180           [034] jmp        6            ; to [41]
1F92  6481C100           [035] self       5   1   262  ; -1917464545
1F96  62810001           [036] call       5   2   2  
1F9A  64C1C102           [037] self       5   5   263  ; 1885503231
1F9E  62810001           [038] call       5   2   2  
1FA2  D2008002           [039] move       3   5      
1FA6  1A000880           [040] jmp        33           ; to [74]
1FAA  5D010200           [041] getglobal  5   8        ; isSecondaryWeapon
1FAE  58010000           [042] test       5       0    ; to [44] if true
1FB2  1AC00180           [043] jmp        8            ; to [52]
1FB6  6481C100           [044] self       5   1   262  ; -1917464545
1FBA  62810001           [045] call       5   2   2  
1FBE  6441C202           [046] self       5   5   265  ; 1674984496
1FC2  DD810200           [047] getglobal  7   10       ; Engine
1FC6  CEC1C203           [048] gettable   7   7   267  ; "SLOT_1"
1FCA  62818001           [049] call       5   3   2  
1FCE  D2008002           [050] move       3   5      
1FD2  1A400580           [051] jmp        22           ; to [74]
1FD6  6481C100           [052] self       5   1   262  ; -1917464545
1FDA  62810001           [053] call       5   2   2  
1FDE  6441C202           [054] self       5   5   265  ; 1674984496
1FE2  DD810200           [055] getglobal  7   10       ; Engine
1FE6  CE01C303           [056] gettable   7   7   268  ; "SLOT_2"
1FEA  62818001           [057] call       5   3   2  
1FEE  D2008002           [058] move       3   5      
1FF2  1A400380           [059] jmp        14           ; to [74]
1FF6  64814001           [060] self       5   2   258  ; -1957065004
1FFA  DD010100           [061] getglobal  7   4        ; gProjectileType
1FFE  62818001           [062] call       5   3   2  
2002  58010000           [063] test       5       0    ; to [65] if true
2006  1A000280           [064] jmp        9            ; to [74]
200A  5D410300           [065] getglobal  5   13       ; 538022378
200E  99810300           [066] loadk      6   14       ; 0
2012  62410001           [067] call       5   2   1  
2016  64C14301           [068] self       5   2   271  ; 2082429591
201A  62810001           [069] call       5   2   2  
201E  52008002           [070] move       1   5      
2022  64014401           [071] self       5   2   272  ; 1242528274
2026  62810001           [072] call       5   2   2  
202A  D2008002           [073] move       3   5      
202E  5D410000           [074] getglobal  5   1        ; 1074689893
2032  92018001           [075] move       6   3      
2036  62810001           [076] call       5   2   2  
203A  58410000           [077] test       5       1    ; to [79] if false
203E  1A000180           [078] jmp        5            ; to [84]
2042  5D410000           [079] getglobal  5   1        ; 1074689893
2046  92018000           [080] move       6   1      
204A  62810001           [081] call       5   2   2  
204E  58010000           [082] test       5       0    ; to [84] if true
2052  1A400080           [083] jmp        2            ; to [86]
2056  46018002           [084] loadnil    5   5      
205A  5E010001           [085] return     5   2      
205E  46018002           [086] loadnil    5   5      
2062  9D410400           [087] getglobal  6   17       ; isSentinelWeapon
2066  98010000           [088] test       6       0    ; to [90] if true
206A  1A400280           [089] jmp        10           ; to [100]
206E  A481C401           [090] self       6   3   274  ; -1538682285
2072  A2810001           [091] call       6   2   2  
2076  E4814103           [092] self       7   6   262  ; -1917464545
207A  E2810001           [093] call       7   2   2  
207E  E4C1C403           [094] self       7   7   275  ; 1769516121
2082  E2810001           [095] call       7   2   2  
2086  2402C503           [096] self       8   7   276  ; -1348043987
208A  22820001           [097] call       8   2   2  
208E  52010004           [098] move       5   8      
2092  1A800580           [099] jmp        23           ; to [123]
2096  2482C000           [100] self       8   1   258  ; -1957065004
209A  9D420500           [101] getglobal  10  21       ; gLotusMirrorAvatarType
209E  22828001           [102] call       8   3   2  
20A2  18020000           [103] test       8       0    ; to [105] if true
20A6  1A800380           [104] jmp        15           ; to [120]
20AA  13020000           [105] getupval   8   0      
20AE  0E824504           [106] gettable   8   8   278  ; -1824732170
20B2  22828000           [107] call       8   1   2  
20B6  5DC20500           [108] getglobal  9   23       ; destroyIfIllusionAvatar
20BA  58020000           [109] test       9       0    ; to [111] if true
20BE  1A400180           [110] jmp        6            ; to [117]
fail op	35
20C2  63004604           [111] close      1  
20C6  1A400080           [112] jmp        2            ; to [115]
20CA  64424600           [113] self       9   0   281  ; -725453761
20CE  62420001           [114] call       9   2   1  
20D2  1E008000           [115] return     0   1      
20D6  1A800080           [116] jmp        3            ; to [120]
fail op	21
20DA  15804604           [117] concat     0   8   282
20DE  1A000080           [118] jmp        1            ; to [120]
20E2  1E008000           [119] return     0   1      
20E6  6402C501           [120] self       9   3   276  ; -1348043987
20EA  62820001           [121] call       9   2   2  
20EE  52018004           [122] move       5   9      
20F2  59C20600           [123] loadk      9   27       ; 0
fail op	21
20F6  15400287           [124] concat     0   270 9  
20FA  1A000480           [125] jmp        17           ; to [143]
20FE  A402C702           [126] self       10  5   284  ; 979293742
2102  A2820001           [127] call       10  2   2  
2106  98420000           [128] test       10      1    ; to [130] if false
210A  1A000380           [129] jmp        13           ; to [143]
210E  9D420000           [130] getglobal  10  1        ; 1074689893
2112  D2028001           [131] move       11  3      
2116  A2820001           [132] call       10  2   2  
211A  98420000           [133] test       10      1    ; to [135] if false
211E  1AC00180           [134] jmp        8            ; to [143]
2122  A402C501           [135] self       10  3   276  ; -1348043987
2126  A2820001           [136] call       10  2   2  
212A  52010005           [137] move       5   10     
212E  4D82C604           [138] sub        9   9   282  ; 0
2132  9D420300           [139] getglobal  10  13       ; 538022378
2136  D9820300           [140] loadk      11  14       ; 0
213A  A2420001           [141] call       10  2   1  
213E  1A00FB7F           [142] jmp        -19          ; to [124]
2142  86020005           [143] loadnil    10  10     
2146  DD420700           [144] getglobal  11  29       ; Lotus_Game
214A  CE82C705           [145] gettable   11  11  286  ; "PrimaryColors"
214E  24834000           [146] self       12  0   258  ; -1957065004
2152  9DC30700           [147] getglobal  14  31       ; gLotusWeaponDecorationType
2156  22838001           [148] call       12  3   2  
215A  18030000           [149] test       12      0    ; to [151] if true
215E  1A800080           [150] jmp        3            ; to [154]
2162  24034800           [151] self       12  0   288  ; -1517198270
2166  22830001           [152] call       12  2   2  
216A  D2020006           [153] move       11  12     
216E  2443C802           [154] self       12  5   289  ; -479391803
2172  92038005           [155] move       14  11     
2176  22838001           [156] call       12  3   2  
217A  64034706           [157] self       13  12  284  ; 979293742
217E  DD430700           [158] getglobal  15  29       ; Lotus_Game
2182  CE83C807           [159] gettable   15  15  290  ; "EnergyColor"
2186  62838001           [160] call       13  3   2  
218A  58030000           [161] test       13      0    ; to [163] if true
218E  1AC00080           [162] jmp        4            ; to [167]
2192  5DC30800           [163] getglobal  13  35       ; -1247440829
2196  8E034906           [164] gettable   14  12  292  ; "mEnergyColor"
219A  62830001           [165] call       13  2   2  
219E  92028006           [166] move       10  13     
21A2  9E020001           [167] return     10  2      
21A6  1E008000           [168] return     0   1      
                         * constants:
21AA  25                 sizek (37)
21AB  01                 const type 3
21AC  3B467C90           const [0]: (-1870903749)
21B0  01                 const type 3
21B1  65770E40           const [1]: (1074689893)
21B5  01                 const type 3
21B6  D48E598B           const [2]: (-1957065004)
21BA  04                 const type 4
21BB  10                 string size (16)
21BC  6742617365417661+  "gBaseAva"
21C4  7461725479706500   "tarType\0"
                         const [3]: "gBaseAvatarType"
21CC  04                 const type 4
21CD  10                 string size (16)
21CE  6750726F6A656374+  "gProject"
21D6  696C655479706500   "ileType\0"
                         const [4]: "gProjectileType"
21DE  04                 const type 4
21DF  0E                 string size (14)
21E0  69734D656C656557+  "isMeleeW"
21E8  6561706F6E00       "eapon\0"
                         const [5]: "isMeleeWeapon"
21EE  01                 const type 3
21EF  1FD0B58D           const [6]: (-1917464545)
21F3  01                 const type 3
21F4  FF7E6270           const [7]: (1885503231)
21F8  04                 const type 4
21F9  12                 string size (18)
21FA  69735365636F6E64+  "isSecond"
2202  617279576561706F+  "aryWeapo"
220A  6E00               "n\0"
                         const [8]: "isSecondaryWeapon"
220C  01                 const type 3
220D  303CD663           const [9]: (1674984496)
2211  04                 const type 4
2212  07                 string size (7)
2213  456E67696E6500     "Engine\0"
                         const [10]: "Engine"
221A  04                 const type 4
221B  07                 string size (7)
221C  534C4F545F3100     "SLOT_1\0"
                         const [11]: "SLOT_1"
2223  04                 const type 4
2224  07                 string size (7)
2225  534C4F545F3200     "SLOT_2\0"
                         const [12]: "SLOT_2"
222C  01                 const type 3
222D  EA911120           const [13]: (538022378)
2231  03                 const type 3
2232  00000000           const [14]: (0)
2236  01                 const type 3
2237  975A1F7C           const [15]: (2082429591)
223B  01                 const type 3
223C  127A0F4A           const [16]: (1242528274)
2240  04                 const type 4
2241  11                 string size (17)
2242  697353656E74696E+  "isSentin"
224A  656C576561706F6E+  "elWeapon"
2252  00                 "\0"
                         const [17]: "isSentinelWeapon"
2253  01                 const type 3
2254  539249A4           const [18]: (-1538682285)
2258  01                 const type 3
2259  59AC7869           const [19]: (1769516121)
225D  01                 const type 3
225E  2D7BA6AF           const [20]: (-1348043987)
2262  04                 const type 4
2263  17                 string size (23)
2264  674C6F7475734D69+  "gLotusMi"
226C  72726F7241766174+  "rrorAvat"
2274  61725479706500     "arType\0"
                         const [21]: "gLotusMirrorAvatarType"
227B  01                 const type 3
227C  F6CB3C93           const [22]: (-1824732170)
2280  04                 const type 4
2281  18                 string size (24)
2282  64657374726F7949+  "destroyI"
228A  66496C6C7573696F+  "fIllusio"
2292  6E41766174617200   "nAvatar\0"
                         const [23]: "destroyIfIllusionAvatar"
229A  03                 const type 3
229B  00000040           const [24]: (0)
229F  01                 const type 3
22A0  3F74C2D4           const [25]: (-725453761)
22A4  03                 const type 3
22A5  0000803F           const [26]: (0)
22A9  03                 const type 3
22AA  00000041           const [27]: (0)
22AE  01                 const type 3
22AF  2ED65E3A           const [28]: (979293742)
22B3  04                 const type 4
22B4  0B                 string size (11)
22B5  4C6F7475735F4761+  "Lotus_Ga"
22BD  6D6500             "me\0"
                         const [29]: "Lotus_Game"
22C0  04                 const type 4
22C1  0E                 string size (14)
22C2  5072696D61727943+  "PrimaryC"
22CA  6F6C6F727300       "olors\0"
                         const [30]: "PrimaryColors"
22D0  04                 const type 4
22D1  1B                 string size (27)
22D2  674C6F7475735765+  "gLotusWe"
22DA  61706F6E4465636F+  "aponDeco"
22E2  726174696F6E5479+  "rationTy"
22EA  706500             "pe\0"
                         const [31]: "gLotusWeaponDecorationType"
22ED  01                 const type 3
22EE  426491A5           const [32]: (-1517198270)
22F2  01                 const type 3
22F3  C50F6DE3           const [33]: (-479391803)
22F7  04                 const type 4
22F8  0C                 string size (12)
22F9  456E65726779436F+  "EnergyCo"
2301  6C6F7200           "lor\0"
                         const [34]: "EnergyColor"
2305  01                 const type 3
2306  4390A5B5           const [35]: (-1247440829)
230A  04                 const type 4
230B  0D                 string size (13)
230C  6D456E6572677943+  "mEnergyC"
2314  6F6C6F7200         "olor\0"
                         const [36]: "mEnergyColor"
                         * functions:
2319  00                 sizep (0)
                         * lines:
231B  01                 sizelineinfo (168)
                         [pc] (line)
231C  31                 [001] (49)
231D  01                 [002] (51)
231E  00                 [003] (51)
231F  00                 [004] (51)
2320  33                 [005] (52)
2321  01                 [006] (53)
2322  00                 [007] (53)
2323  00                 [008] (53)
2324  33                 [009] (53)
2325  01                 [010] (53)
2326  00                 [011] (53)
2327  00                 [012] (53)
2328  33                 [013] (53)
2329  01                 [014] (53)
232A  00                 [015] (53)
232B  00                 [016] (53)
232C  34                 [017] (53)
232D  01                 [018] (53)
232E  00                 [019] (53)
232F  00                 [020] (53)
2330  35                 [021] (54)
2331  01                 [022] (54)
2332  00                 [023] (54)
2333  00                 [024] (54)
2334  35                 [025] (54)
2335  01                 [026] (55)
2336  00                 [027] (55)
2337  00                 [028] (55)
2338  35                 [029] (55)
2339  01                 [030] (55)
233A  00                 [031] (56)
233B  00                 [032] (57)
233C  35                 [033] (57)
233D  01                 [034] (57)
233E  00                 [035] (58)
233F  00                 [036] (58)
2340  35                 [037] (58)
2341  01                 [038] (58)
2342  00                 [039] (58)
2343  00                 [040] (58)
2344  35                 [041] (59)
2345  01                 [042] (59)
2346  00                 [043] (59)
2347  00                 [044] (60)
2348  35                 [045] (60)
2349  01                 [046] (60)
234A  00                 [047] (60)
234B  00                 [048] (60)
234C  35                 [049] (60)
234D  01                 [050] (60)
234E  00                 [051] (60)
234F  00                 [052] (62)
2350  35                 [053] (62)
2351  01                 [054] (62)
2352  00                 [055] (62)
2353  00                 [056] (62)
2354  35                 [057] (62)
2355  01                 [058] (62)
2356  00                 [059] (63)
2357  00                 [060] (64)
2358  35                 [061] (64)
2359  01                 [062] (64)
235A  00                 [063] (64)
235B  00                 [064] (64)
235C  35                 [065] (65)
235D  01                 [066] (65)
235E  00                 [067] (65)
235F  00                 [068] (66)
2360  35                 [069] (66)
2361  01                 [070] (66)
2362  00                 [071] (67)
2363  00                 [072] (67)
2364  35                 [073] (67)
2365  01                 [074] (71)
2366  00                 [075] (71)
2367  00                 [076] (71)
2368  35                 [077] (71)
2369  01                 [078] (71)
236A  00                 [079] (71)
236B  00                 [080] (71)
236C  36                 [081] (71)
236D  01                 [082] (71)
236E  00                 [083] (71)
236F  00                 [084] (72)
2370  36                 [085] (72)
2371  01                 [086] (75)
2372  00                 [087] (76)
2373  00                 [088] (76)
2374  36                 [089] (76)
2375  01                 [090] (77)
2376  00                 [091] (77)
2377  00                 [092] (78)
2378  36                 [093] (78)
2379  01                 [094] (78)
237A  00                 [095] (78)
237B  00                 [096] (79)
237C  36                 [097] (79)
237D  01                 [098] (79)
237E  00                 [099] (79)
237F  00                 [100] (81)
2380  37                 [101] (81)
2381  01                 [102] (81)
2382  00                 [103] (81)
2383  00                 [104] (81)
2384  37                 [105] (82)
2385  01                 [106] (82)
2386  00                 [107] (82)
2387  00                 [108] (83)
2388  37                 [109] (83)
2389  01                 [110] (83)
238A  00                 [111] (84)
238B  00                 [112] (84)
238C  37                 [113] (85)
238D  01                 [114] (85)
238E  00                 [115] (87)
238F  00                 [116] (87)
2390  37                 [117] (88)
2391  01                 [118] (88)
2392  00                 [119] (89)
2393  00                 [120] (92)
2394  38                 [121] (92)
2395  01                 [122] (92)
2396  00                 [123] (94)
2397  00                 [124] (95)
2398  39                 [125] (95)
2399  01                 [126] (95)
239A  00                 [127] (95)
239B  00                 [128] (95)
239C  39                 [129] (95)
239D  01                 [130] (95)
239E  00                 [131] (95)
239F  00                 [132] (95)
23A0  39                 [133] (95)
23A1  01                 [134] (95)
23A2  00                 [135] (96)
23A3  00                 [136] (96)
23A4  3A                 [137] (96)
23A5  01                 [138] (97)
23A6  00                 [139] (98)
23A7  00                 [140] (98)
23A8  3A                 [141] (98)
23A9  01                 [142] (98)
23AA  00                 [143] (101)
23AB  00                 [144] (102)
23AC  3A                 [145] (102)
23AD  01                 [146] (104)
23AE  00                 [147] (104)
23AF  00                 [148] (104)
23B0  3A                 [149] (104)
23B1  01                 [150] (104)
23B2  00                 [151] (105)
23B3  00                 [152] (105)
23B4  3A                 [153] (105)
23B5  01                 [154] (107)
23B6  00                 [155] (107)
23B7  00                 [156] (107)
23B8  3A                 [157] (108)
23B9  01                 [158] (108)
23BA  00                 [159] (108)
23BB  00                 [160] (108)
23BC  3B                 [161] (108)
23BD  01                 [162] (108)
23BE  00                 [163] (109)
23BF  00                 [164] (109)
23C0  3B                 [165] (109)
23C1  01                 [166] (109)
23C2  00                 [167] (111)
23C3  00                 [168] (112)
                         * locals:
25BC  00                 sizelocvars (0)
                         * upvalues:
25BD  00                 sizeupvalues (0)
                         ** end of function **

                         
25BE                     ** function [5] definition (level 2)
                         ** start of function **
25BE  00                 string size (0)
                         source name: (none)
25C0  02                 line defined (370)
25C1  92                 last line defined (402)
25C2  03                 nups (2)
25C3  02                 numparams (1)
25C4  01                 is_vararg (0)
25C5  00                 maxstacksize (16)
                         * code:
25C7  62                 sizecode (98)
25C8  5D000000           [01] getglobal  1   0        ; 538022378
25CC  99400000           [02] loadk      2   1        ; 0
25D0  62400001           [03] call       1   2   1  
25D4  53000000           [04] getupval   1   0      
25D8  92000000           [05] move       2   0      
25DC  62800001           [06] call       1   2   2  
25E0  9D800000           [07] getglobal  2   2        ; 1074689893
25E4  D2008000           [08] move       3   1      
25E8  A2800001           [09] call       2   2   2  
25EC  98000000           [10] test       2       0    ; to [12] if true
25F0  1A000080           [11] jmp        1            ; to [13]
25F4  1E008000           [12] return     0   1      
25F8  9DC00000           [13] getglobal  2   3        ; applyToParentColor
25FC  98000000           [14] test       2       0    ; to [16] if true
2600  1AC00180           [15] jmp        8            ; to [24]
2604  A4004100           [16] self       2   0   260  ; -1870903749
2608  A2800001           [17] call       2   2   2  
260C  DD800000           [18] getglobal  3   2        ; 1074689893
2610  12010001           [19] move       4   2      
2614  E2800001           [20] call       3   2   2  
2618  D8400000           [21] test       3       1    ; to [23] if false
261C  1A000080           [22] jmp        1            ; to [24]
2620  12000001           [23] move       0   2      
2624  DD400100           [24] getglobal  3   5        ; invertColor
2628  D8000000           [25] test       3       0    ; to [27] if true
262C  1A000280           [26] jmp        9            ; to [36]
2630  CE80C100           [27] gettable   3   1   262  ; "red"
2634  CDC08083           [28] sub        3   263 3    ; 0
2638  4CC00083           [29] settable   1   262 3    ; "red"
263C  CE00C200           [30] gettable   3   1   264  ; "green"
2640  CDC08083           [31] sub        3   263 3    ; 0
2644  4CC00084           [32] settable   1   264 3    ; "green"
2648  CE40C200           [33] gettable   3   1   265  ; "blue"
264C  CDC08083           [34] sub        3   263 3    ; 0
2650  4CC08084           [35] settable   1   265 3    ; "blue"
2654  E4804200           [36] self       3   0   266  ; -786111647
2658  5DC10200           [37] getglobal  5   11       ; Param
265C  93018000           [38] getupval   6   1      
2660  8E014303           [39] gettable   6   6   268  ; 1988048406
2664  CE81C100           [40] gettable   7   1   262  ; "red"
2668  A2810001           [41] call       6   2   2  
266C  D3018000           [42] getupval   7   1      
2670  CE01C303           [43] gettable   7   7   268  ; 1988048406
2674  0E02C200           [44] gettable   8   1   264  ; "green"
2678  E2810001           [45] call       7   2   2  
267C  13028000           [46] getupval   8   1      
2680  0E024304           [47] gettable   8   8   268  ; 1988048406
2684  4E42C200           [48] gettable   9   1   265  ; "blue"
2688  22820001           [49] call       8   2   2  
268C  59420300           [50] loadk      9   13       ; 0
2690  E2408003           [51] call       3   7   1  
2694  DD800300           [52] getglobal  3   14       ; applyLowHigh
2698  D8000000           [53] test       3       0    ; to [55] if true
269C  1A000180           [54] jmp        5            ; to [60]
26A0  D3008000           [55] getupval   3   1      
26A4  CEC0C301           [56] gettable   3   3   271  ; -1130533444
26A8  12010000           [57] move       4   0      
26AC  52018000           [58] move       5   1      
26B0  E2408001           [59] call       3   3   1  
26B4  DD000400           [60] getglobal  3   16       ; applyToChildren
26B8  D8000000           [61] test       3       0    ; to [63] if true
26BC  1A800880           [62] jmp        35           ; to [98]
26C0  E4404400           [63] self       3   0   273  ; 366271214
26C4  5D810400           [64] getglobal  5   18       ; gDecorationType
26C8  E2808001           [65] call       3   3   2  
26CC  1D810000           [66] getglobal  4   2        ; 1074689893
26D0  52018001           [67] move       5   3      
26D4  22810001           [68] call       4   2   2  
26D8  18410000           [69] test       4       1    ; to [71] if false
26DC  1A800680           [70] jmp        27           ; to [98]
26E0  19410300           [71] loadk      4   13       ; 0
26E4  4A018001           [72] len        5   3      
26E8  99410300           [73] loadk      6   13       ; 0
26EC  10410580           [74] forprep    4   22       ; to [97]
26F0  0EC28101           [75] gettable   8   3   7  
26F4  64824204           [76] self       9   8   266  ; -786111647
26F8  DDC20200           [77] getglobal  11  11       ; Param
26FC  13038000           [78] getupval   12  1      
2700  0E034306           [79] gettable   12  12  268  ; 1988048406
2704  4E83C100           [80] gettable   13  1   262  ; "red"
2708  22830001           [81] call       12  2   2  
270C  53038000           [82] getupval   13  1      
2710  4E03C306           [83] gettable   13  13  268  ; 1988048406
2714  8E03C200           [84] gettable   14  1   264  ; "green"
2718  62830001           [85] call       13  2   2  
271C  93038000           [86] getupval   14  1      
2720  8E034307           [87] gettable   14  14  268  ; 1988048406
2724  CE43C200           [88] gettable   15  1   265  ; "blue"
2728  A2830001           [89] call       14  2   2  
272C  D9430300           [90] loadk      15  13       ; 0
2730  62428003           [91] call       9   7   1  
2734  53028000           [92] getupval   9   1      
2738  4EC2C304           [93] gettable   9   9   271  ; -1130533444
273C  92020004           [94] move       10  8      
2740  D2028000           [95] move       11  1      
2744  62428001           [96] call       9   3   1  
2748  1401FA7F           [97] forloop    4   -23      ; to [75] if loop
274C  1E008000           [98] return     0   1      
                         * constants:
2750  13                 sizek (19)
2751  01                 const type 3
2752  EA911120           const [0]: (538022378)
2756  03                 const type 3
2757  00000000           const [1]: (0)
275B  01                 const type 3
275C  65770E40           const [2]: (1074689893)
2760  04                 const type 4
2761  13                 string size (19)
2762  6170706C79546F50+  "applyToP"
276A  6172656E74436F6C+  "arentCol"
2772  6F7200             "or\0"
                         const [3]: "applyToParentColor"
2775  01                 const type 3
2776  3B467C90           const [4]: (-1870903749)
277A  04                 const type 4
277B  0C                 string size (12)
277C  696E76657274436F+  "invertCo"
2784  6C6F7200           "lor\0"
                         const [5]: "invertColor"
2788  04                 const type 4
2789  04                 string size (4)
278A  72656400           "red\0"
                         const [6]: "red"
278E  03                 const type 3
278F  00007F43           const [7]: (0)
2793  04                 const type 4
2794  06                 string size (6)
2795  677265656E00       "green\0"
                         const [8]: "green"
279B  04                 const type 4
279C  05                 string size (5)
279D  626C756500         "blue\0"
                         const [9]: "blue"
27A2  01                 const type 3
27A3  61E324D1           const [10]: (-786111647)
27A7  04                 const type 4
27A8  06                 string size (6)
27A9  506172616D00       "Param\0"
                         const [11]: "Param"
27AF  01                 const type 3
27B0  16367F76           const [12]: (1988048406)
27B4  03                 const type 3
27B5  0000803F           const [13]: (0)
27B9  04                 const type 4
27BA  0D                 string size (13)
27BB  6170706C794C6F77+  "applyLow"
27C3  4869676800         "High\0"
                         const [14]: "applyLowHigh"
27C8  01                 const type 3
27C9  BC6D9DBC           const [15]: (-1130533444)
27CD  04                 const type 4
27CE  10                 string size (16)
27CF  6170706C79546F43+  "applyToC"
27D7  68696C6472656E00   "hildren\0"
                         const [16]: "applyToChildren"
27DF  01                 const type 3
27E0  EEDAD415           const [17]: (366271214)
27E4  04                 const type 4
27E5  10                 string size (16)
27E6  674465636F726174+  "gDecorat"
27EE  696F6E5479706500   "ionType\0"
                         const [18]: "gDecorationType"
                         * functions:
27F6  00                 sizep (0)
                         * lines:
27F7  62                 sizelineinfo (98)
                         [pc] (line)
27F8  73                 [01] (115)
27F9  01                 [02] (115)
27FA  00                 [03] (115)
27FB  00                 [04] (116)
27FC  73                 [05] (116)
27FD  01                 [06] (116)
27FE  00                 [07] (117)
27FF  00                 [08] (117)
2800  73                 [09] (117)
2801  01                 [10] (117)
2802  00                 [11] (117)
2803  00                 [12] (118)
2804  74                 [13] (121)
2805  01                 [14] (121)
2806  00                 [15] (121)
2807  00                 [16] (122)
2808  74                 [17] (122)
2809  01                 [18] (123)
280A  00                 [19] (123)
280B  00                 [20] (123)
280C  74                 [21] (123)
280D  01                 [22] (123)
280E  00                 [23] (124)
280F  00                 [24] (127)
2810  75                 [25] (127)
2811  01                 [26] (127)
2812  00                 [27] (-128)
2813  00                 [28] (-128)
2814  75                 [29] (-128)
2815  01                 [30] (-127)
2816  00                 [31] (-127)
2817  00                 [32] (-127)
2818  75                 [33] (-126)
2819  01                 [34] (-126)
281A  00                 [35] (-126)
281B  00                 [36] (-124)
281C  75                 [37] (-124)
281D  01                 [38] (-124)
281E  00                 [39] (-124)
281F  00                 [40] (-124)
2820  75                 [41] (-124)
2821  01                 [42] (-124)
2822  00                 [43] (-124)
2823  00                 [44] (-124)
2824  76                 [45] (-124)
2825  01                 [46] (-124)
2826  00                 [47] (-124)
2827  00                 [48] (-124)
2828  79                 [49] (-124)
2829  01                 [50] (-124)
282A  00                 [51] (-124)
282B  00                 [52] (-123)
282C  79                 [53] (-123)
282D  01                 [54] (-123)
282E  00                 [55] (-122)
282F  00                 [56] (-122)
2830  79                 [57] (-122)
2831  01                 [58] (-122)
2832  00                 [59] (-122)
2833  00                 [60] (-120)
2834  7A                 [61] (-120)
2835  01                 [62] (-120)
2836  00                 [63] (-119)
2837  00                 [64] (-119)
2838  7A                 [65] (-119)
2839  01                 [66] (-118)
283A  00                 [67] (-118)
283B  00                 [68] (-118)
283C  7B                 [69] (-118)
283D  01                 [70] (-118)
283E  00                 [71] (-117)
283F  00                 [72] (-117)
2840  7B                 [73] (-117)
2841  01                 [74] (-117)
2842  00                 [75] (-116)
2843  00                 [76] (-115)
2844  7B                 [77] (-115)
2845  01                 [78] (-115)
2846  00                 [79] (-115)
2847  00                 [80] (-115)
2848  7B                 [81] (-115)
2849  01                 [82] (-115)
284A  00                 [83] (-115)
284B  00                 [84] (-115)
284C  7B                 [85] (-115)
284D  01                 [86] (-115)
284E  00                 [87] (-115)
284F  00                 [88] (-115)
2850  7C                 [89] (-115)
2851  01                 [90] (-115)
2852  00                 [91] (-115)
2853  00                 [92] (-114)
2854  7F                 [93] (-114)
2855  01                 [94] (-114)
2856  00                 [95] (-114)
2857  00                 [96] (-114)
2858  7F                 [97] (-117)
2859  01                 [98] (-110)
                         * locals:
2980  00                 sizelocvars (0)
                         * upvalues:
2981  00                 sizeupvalues (0)
                         ** end of function **

                         
2982                     ** function [6] definition (level 2)
                         ** start of function **
2982  00                 string size (0)
                         source name: (none)
2984  03                 line defined (404)
2985  C2                 last line defined (450)
2986  03                 nups (4)
2987  04                 numparams (2)
2988  02                 is_vararg (0)
2989  00                 maxstacksize (10)
                         * code:
298B  66                 sizecode (102)
298C  9D000000           [001] getglobal  2   0        ; sleepFirst
2990  98000000           [002] test       2       0    ; to [4] if true
2994  1A800080           [003] jmp        3            ; to [7]
2998  9D400000           [004] getglobal  2   1        ; 538022378
299C  D9800000           [005] loadk      3   2        ; 0
29A0  A2400001           [006] call       2   2   1  
29A4  9DC00000           [007] getglobal  2   3        ; -1247440829
29A8  A2808000           [008] call       2   1   2  
29AC  D2000000           [009] move       3   0      
29B0  1D010100           [010] getglobal  4   4        ; passCreatorThrough
29B4  18010000           [011] test       4       0    ; to [13] if true
29B8  1AC00180           [012] jmp        8            ; to [21]
29BC  24414100           [013] self       4   0   261  ; 129677183
29C0  22810001           [014] call       4   2   2  
29C4  5D810100           [015] getglobal  5   6        ; 1074689893
29C8  92010002           [016] move       6   4      
29CC  62810001           [017] call       5   2   2  
29D0  58410000           [018] test       5       1    ; to [20] if false
29D4  1A000080           [019] jmp        1            ; to [21]
29D8  D2000002           [020] move       3   4      
29DC  5DC10100           [021] getglobal  5   7        ; isWeaponProjectile
29E0  58010000           [022] test       5       0    ; to [24] if true
29E4  1A000180           [023] jmp        5            ; to [29]
29E8  53010000           [024] getupval   5   0      
29EC  92018001           [025] move       6   3      
29F0  62810001           [026] call       5   2   2  
29F4  92008002           [027] move       2   5      
29F8  1A000180           [028] jmp        5            ; to [34]
29FC  53018000           [029] getupval   5   1      
2A00  92018001           [030] move       6   3      
2A04  DD010200           [031] getglobal  7   8        ; getParentFirst
2A08  62818001           [032] call       5   3   2  
2A0C  92008002           [033] move       2   5      
2A10  5DC10000           [034] getglobal  5   3        ; -1247440829
2A14  62818000           [035] call       5   1   2  
2A18  9D810100           [036] getglobal  6   6        ; 1074689893
2A1C  D2010001           [037] move       7   2      
2A20  A2810001           [038] call       6   2   2  
2A24  98410000           [039] test       6       1    ; to [41] if false
2A28  1A000D80           [040] jmp        53           ; to [94]
2A2C  9D410200           [041] getglobal  6   9        ; invertColor
2A30  98010000           [042] test       6       0    ; to [44] if true
2A34  1A000280           [043] jmp        9            ; to [53]
2A38  8E814201           [044] gettable   6   2   266  ; "red"
2A3C  8D818185           [045] sub        6   267 6    ; 0
2A40  8C800185           [046] settable   2   266 6    ; "red"
2A44  8E014301           [047] gettable   6   2   268  ; "green"
2A48  8D818185           [048] sub        6   267 6    ; 0
2A4C  8C800186           [049] settable   2   268 6    ; "green"
2A50  8E414301           [050] gettable   6   2   269  ; "blue"
2A54  8D818185           [051] sub        6   267 6    ; 0
2A58  8C808186           [052] settable   2   269 6    ; "blue"
2A5C  93010001           [053] getupval   6   2      
2A60  84818185           [054] mul        6   267 6    ; 0
2A64  8C800187           [055] settable   2   270 6    ; "alpha"
2A68  9DC10300           [056] getglobal  6   15       ; applyLowHigh
2A6C  98010000           [057] test       6       0    ; to [59] if true
2A70  1A000180           [058] jmp        5            ; to [64]
2A74  93018001           [059] getupval   6   3      
2A78  8E014403           [060] gettable   6   6   272  ; -1130533444
2A7C  D2010000           [061] move       7   0      
2A80  12020001           [062] move       8   2      
2A84  A2418001           [063] call       6   3   1  
2A88  8E814201           [064] gettable   6   2   266  ; "red"
2A8C  4C810185           [065] settable   5   266 6    ; "red"
2A90  8E014301           [066] gettable   6   2   268  ; "green"
2A94  4C810186           [067] settable   5   268 6    ; "green"
2A98  8E414301           [068] gettable   6   2   269  ; "blue"
2A9C  4C818186           [069] settable   5   269 6    ; "blue"
2AA0  8E814301           [070] gettable   6   2   270  ; "alpha"
2AA4  DD410400           [071] getglobal  7   17       ; minScale
2AA8  84C10103           [072] mul        6   6   7  
2AAC  4C810187           [073] settable   5   270 6    ; "alpha"
2AB0  9D810400           [074] getglobal  6   18       ; isLightningParticle
2AB4  98010000           [075] test       6       0    ; to [77] if true
2AB8  1A000180           [076] jmp        5            ; to [82]
2ABC  4C814087           [077] settable   5   270 258  ; "alpha" 0
2AC0  8E814301           [078] gettable   6   2   270  ; "alpha"
2AC4  D3010001           [079] getupval   7   2      
2AC8  9CC10103           [080] div        6   6   7  
2ACC  8C800187           [081] settable   2   270 6    ; "alpha"
2AD0  9DC10400           [082] getglobal  6   19       ; swapMinMax
2AD4  98010000           [083] test       6       0    ; to [85] if true
2AD8  1A000180           [084] jmp        5            ; to [90]
2ADC  A4014500           [085] self       6   0   276  ; 1082791834
2AE0  12020001           [086] move       8   2      
2AE4  52028002           [087] move       9   5      
2AE8  A2410002           [088] call       6   4   1  
2AEC  1AC00080           [089] jmp        4            ; to [94]
2AF0  A4014500           [090] self       6   0   276  ; 1082791834
2AF4  12028002           [091] move       8   5      
2AF8  52020001           [092] move       9   2      
2AFC  A2410002           [093] call       6   4   1  
2B00  9D410500           [094] getglobal  6   21       ; disableParticles
2B04  98010000           [095] test       6       0    ; to [97] if true
2B08  1A000180           [096] jmp        5            ; to [102]
2B0C  9D410000           [097] getglobal  6   1        ; 538022378
2B10  D9810000           [098] loadk      7   2        ; 0
2B14  A2410001           [099] call       6   2   1  
2B18  A4814500           [100] self       6   0   278  ; 766584623
2B1C  A2410001           [101] call       6   2   1  
2B20  1E008000           [102] return     0   1      
                         * constants:
2B24  17                 sizek (23)
2B25  04                 const type 4
2B26  0B                 string size (11)
2B27  736C656570466972+  "sleepFir"
2B2F  737400             "st\0"
                         const [0]: "sleepFirst"
2B32  01                 const type 3
2B33  EA911120           const [1]: (538022378)
2B37  03                 const type 3
2B38  00000000           const [2]: (0)
2B3C  01                 const type 3
2B3D  4390A5B5           const [3]: (-1247440829)
2B41  04                 const type 4
2B42  13                 string size (19)
2B43  7061737343726561+  "passCrea"
2B4B  746F725468726F75+  "torThrou"
2B53  676800             "gh\0"
                         const [4]: "passCreatorThrough"
2B56  01                 const type 3
2B57  7FB7BA07           const [5]: (129677183)
2B5B  01                 const type 3
2B5C  65770E40           const [6]: (1074689893)
2B60  04                 const type 4
2B61  13                 string size (19)
2B62  6973576561706F6E+  "isWeapon"
2B6A  50726F6A65637469+  "Projecti"
2B72  6C6500             "le\0"
                         const [7]: "isWeaponProjectile"
2B75  04                 const type 4
2B76  0F                 string size (15)
2B77  676574506172656E+  "getParen"
2B7F  74466972737400     "tFirst\0"
                         const [8]: "getParentFirst"
2B86  04                 const type 4
2B87  0C                 string size (12)
2B88  696E76657274436F+  "invertCo"
2B90  6C6F7200           "lor\0"
                         const [9]: "invertColor"
2B94  04                 const type 4
2B95  04                 string size (4)
2B96  72656400           "red\0"
                         const [10]: "red"
2B9A  03                 const type 3
2B9B  00007F43           const [11]: (0)
2B9F  04                 const type 4
2BA0  06                 string size (6)
2BA1  677265656E00       "green\0"
                         const [12]: "green"
2BA7  04                 const type 4
2BA8  05                 string size (5)
2BA9  626C756500         "blue\0"
                         const [13]: "blue"
2BAE  04                 const type 4
2BAF  06                 string size (6)
2BB0  616C70686100       "alpha\0"
                         const [14]: "alpha"
2BB6  04                 const type 4
2BB7  0D                 string size (13)
2BB8  6170706C794C6F77+  "applyLow"
2BC0  4869676800         "High\0"
                         const [15]: "applyLowHigh"
2BC5  01                 const type 3
2BC6  BC6D9DBC           const [16]: (-1130533444)
2BCA  04                 const type 4
2BCB  09                 string size (9)
2BCC  6D696E5363616C65+  "minScale"
2BD4  00                 "\0"
                         const [17]: "minScale"
2BD5  04                 const type 4
2BD6  14                 string size (20)
2BD7  69734C696768746E+  "isLightn"
2BDF  696E675061727469+  "ingParti"
2BE7  636C6500           "cle\0"
                         const [18]: "isLightningParticle"
2BEB  04                 const type 4
2BEC  0B                 string size (11)
2BED  737761704D696E4D+  "swapMinM"
2BF5  617800             "ax\0"
                         const [19]: "swapMinMax"
2BF8  01                 const type 3
2BF9  9A178A40           const [20]: (1082791834)
2BFD  04                 const type 4
2BFE  11                 string size (17)
2BFF  64697361626C6550+  "disableP"
2C07  61727469636C6573+  "articles"
2C0F  00                 "\0"
                         const [21]: "disableParticles"
2C10  01                 const type 3
2C11  2F27B12D           const [22]: (766584623)
                         * functions:
2C15  00                 sizep (0)
                         * lines:
2C16  66                 sizelineinfo (102)
                         [pc] (line)
2C17  95                 [001] (-107)
2C18  01                 [002] (-107)
2C19  00                 [003] (-107)
2C1A  00                 [004] (-106)
2C1B  95                 [005] (-106)
2C1C  01                 [006] (-106)
2C1D  00                 [007] (-104)
2C1E  00                 [008] (-104)
2C1F  95                 [009] (-103)
2C20  01                 [010] (-102)
2C21  00                 [011] (-102)
2C22  00                 [012] (-102)
2C23  96                 [013] (-101)
2C24  01                 [014] (-101)
2C25  00                 [015] (-100)
2C26  00                 [016] (-100)
2C27  96                 [017] (-100)
2C28  01                 [018] (-100)
2C29  00                 [019] (-100)
2C2A  00                 [020] (-99)
2C2B  96                 [021] (-96)
2C2C  01                 [022] (-96)
2C2D  00                 [023] (-96)
2C2E  00                 [024] (-95)
2C2F  98                 [025] (-95)
2C30  01                 [026] (-95)
2C31  00                 [027] (-95)
2C32  00                 [028] (-95)
2C33  98                 [029] (-93)
2C34  01                 [030] (-93)
2C35  00                 [031] (-93)
2C36  00                 [032] (-93)
2C37  99                 [033] (-93)
2C38  01                 [034] (-91)
2C39  00                 [035] (-91)
2C3A  00                 [036] (-90)
2C3B  9A                 [037] (-90)
2C3C  01                 [038] (-90)
2C3D  00                 [039] (-90)
2C3E  00                 [040] (-90)
2C3F  9A                 [041] (-89)
2C40  01                 [042] (-89)
2C41  00                 [043] (-89)
2C42  00                 [044] (-88)
2C43  9A                 [045] (-88)
2C44  01                 [046] (-88)
2C45  00                 [047] (-87)
2C46  00                 [048] (-87)
2C47  9B                 [049] (-87)
2C48  01                 [050] (-86)
2C49  00                 [051] (-86)
2C4A  00                 [052] (-86)
2C4B  9B                 [053] (-84)
2C4C  01                 [054] (-84)
2C4D  00                 [055] (-84)
2C4E  00                 [056] (-83)
2C4F  9C                 [057] (-83)
2C50  01                 [058] (-83)
2C51  00                 [059] (-82)
2C52  00                 [060] (-82)
2C53  9C                 [061] (-82)
2C54  01                 [062] (-82)
2C55  00                 [063] (-82)
2C56  00                 [064] (-80)
2C57  9C                 [065] (-80)
2C58  01                 [066] (-79)
2C59  00                 [067] (-79)
2C5A  00                 [068] (-78)
2C5B  9C                 [069] (-78)
2C5C  01                 [070] (-77)
2C5D  00                 [071] (-77)
2C5E  00                 [072] (-77)
2C5F  9C                 [073] (-77)
2C60  01                 [074] (-76)
2C61  00                 [075] (-76)
2C62  00                 [076] (-76)
2C63  9D                 [077] (-75)
2C64  01                 [078] (-74)
2C65  00                 [079] (-74)
2C66  00                 [080] (-74)
2C67  A0                 [081] (-74)
2C68  01                 [082] (-72)
2C69  00                 [083] (-72)
2C6A  00                 [084] (-72)
2C6B  A0                 [085] (-71)
2C6C  01                 [086] (-71)
2C6D  00                 [087] (-71)
2C6E  00                 [088] (-71)
2C6F  A0                 [089] (-71)
2C70  01                 [090] (-69)
2C71  00                 [091] (-69)
2C72  00                 [092] (-69)
2C73  A1                 [093] (-69)
2C74  01                 [094] (-66)
2C75  00                 [095] (-66)
2C76  00                 [096] (-66)
2C77  A1                 [097] (-65)
2C78  01                 [098] (-65)
2C79  00                 [099] (-65)
2C7A  00                 [100] (-64)
2C7B  A1                 [101] (-64)
2C7C  01                 [102] (-62)
                         * locals:
2DAF  00                 sizelocvars (0)
                         * upvalues:
2DB0  00                 sizeupvalues (0)
                         ** end of function **

                         
2DB1                     ** function [7] definition (level 2)
                         ** start of function **
2DB1  00                 string size (0)
                         source name: (none)
2DB3  03                 line defined (452)
2DB4  E7                 last line defined (487)
2DB5  03                 nups (3)
2DB6  03                 numparams (1)
2DB7  01                 is_vararg (0)
2DB8  00                 maxstacksize (13)
                         * code:
2DBA  50                 sizecode (80)
2DBB  5D000000           [01] getglobal  1   0        ; 538022378
2DBF  99400000           [02] loadk      2   1        ; 0
2DC3  62400001           [03] call       1   2   1  
2DC7  5D800000           [04] getglobal  1   2        ; -1247440829
2DCB  62808000           [05] call       1   1   2  
2DCF  92000000           [06] move       2   0      
2DD3  DDC00000           [07] getglobal  3   3        ; passCreatorThrough
2DD7  D8000000           [08] test       3       0    ; to [10] if true
2DDB  1AC00180           [09] jmp        8            ; to [18]
2DDF  E4004100           [10] self       3   0   260  ; 129677183
2DE3  E2800001           [11] call       3   2   2  
2DE7  1D410100           [12] getglobal  4   5        ; 1074689893
2DEB  52018001           [13] move       5   3      
2DEF  22810001           [14] call       4   2   2  
2DF3  18410000           [15] test       4       1    ; to [17] if false
2DF7  1A000080           [16] jmp        1            ; to [18]
2DFB  92008001           [17] move       2   3      
2DFF  1D810100           [18] getglobal  4   6        ; getRootObjectColor
2E03  18010000           [19] test       4       0    ; to [21] if true
2E07  1AC00180           [20] jmp        8            ; to [29]
2E0B  24C14100           [21] self       4   0   263  ; -704974830
2E0F  22810001           [22] call       4   2   2  
2E13  5D410100           [23] getglobal  5   5        ; 1074689893
2E17  92010002           [24] move       6   4      
2E1B  62810001           [25] call       5   2   2  
2E1F  58410000           [26] test       5       1    ; to [28] if false
2E23  1A000080           [27] jmp        1            ; to [29]
2E27  92000002           [28] move       2   4      
2E2B  5D010200           [29] getglobal  5   8        ; isWeaponProjectile
2E2F  58010000           [30] test       5       0    ; to [32] if true
2E33  1A000180           [31] jmp        5            ; to [37]
2E37  53010000           [32] getupval   5   0      
2E3B  92010001           [33] move       6   2      
2E3F  62810001           [34] call       5   2   2  
2E43  52008002           [35] move       1   5      
2E47  1A000180           [36] jmp        5            ; to [42]
2E4B  53018000           [37] getupval   5   1      
2E4F  92010001           [38] move       6   2      
2E53  DD410200           [39] getglobal  7   9        ; getParentFirst
2E57  62818001           [40] call       5   3   2  
2E5B  52008002           [41] move       1   5      
2E5F  5D410100           [42] getglobal  5   5        ; 1074689893
2E63  92018000           [43] move       6   1      
2E67  62810001           [44] call       5   2   2  
2E6B  58410000           [45] test       5       1    ; to [47] if false
2E6F  1A000880           [46] jmp        33           ; to [80]
2E73  4E81C200           [47] gettable   5   1   266  ; "red"
2E77  9DC10200           [48] getglobal  6   11       ; lensFlareAtten
2E7B  44818102           [49] mul        5   5   6  
2E7F  4C400185           [50] settable   1   266 5    ; "red"
2E83  4E01C300           [51] gettable   5   1   268  ; "green"
2E87  9DC10200           [52] getglobal  6   11       ; lensFlareAtten
2E8B  44818102           [53] mul        5   5   6  
2E8F  4C400186           [54] settable   1   268 5    ; "green"
2E93  4E41C300           [55] gettable   5   1   269  ; "blue"
2E97  9DC10200           [56] getglobal  6   11       ; lensFlareAtten
2E9B  44818102           [57] mul        5   5   6  
2E9F  4C408186           [58] settable   1   269 5    ; "blue"
2EA3  5D810300           [59] getglobal  5   14       ; HueClamp
2EA7  58010000           [60] test       5       0    ; to [62] if true
2EAB  1A800380           [61] jmp        15           ; to [77]
2EAF  4EC1C300           [62] gettable   5   1   271  ; "alpha"
2EB3  93010001           [63] getupval   6   2      
2EB7  8E014403           [64] gettable   6   6   272  ; -1180186645
2EBB  D2018000           [65] move       7   1      
2EBF  A2010101           [66] call       6   2   4  
2EC3  DD410400           [67] getglobal  7   17       ; newSaturate
2EC7  1D820400           [68] getglobal  8   18       ; newBrightness
2ECB  53020001           [69] getupval   9   2      
2ECF  4EC2C404           [70] gettable   9   9   275  ; -432182491
2ED3  92020003           [71] move       10  6      
2ED7  D2028003           [72] move       11  7      
2EDB  12030004           [73] move       12  8      
2EDF  62820002           [74] call       9   4   2  
2EE3  52008004           [75] move       1   9      
2EE7  4C408187           [76] settable   1   271 5    ; "alpha"
2EEB  64024500           [77] self       9   0   276  ; -1576049472
2EEF  D2028000           [78] move       11  1      
2EF3  62428001           [79] call       9   3   1  
2EF7  1E008000           [80] return     0   1      
                         * constants:
2EFB  15                 sizek (21)
2EFC  01                 const type 3
2EFD  EA911120           const [0]: (538022378)
2F01  03                 const type 3
2F02  00000000           const [1]: (0)
2F06  01                 const type 3
2F07  4390A5B5           const [2]: (-1247440829)
2F0B  04                 const type 4
2F0C  13                 string size (19)
2F0D  7061737343726561+  "passCrea"
2F15  746F725468726F75+  "torThrou"
2F1D  676800             "gh\0"
                         const [3]: "passCreatorThrough"
2F20  01                 const type 3
2F21  7FB7BA07           const [4]: (129677183)
2F25  01                 const type 3
2F26  65770E40           const [5]: (1074689893)
2F2A  04                 const type 4
2F2B  13                 string size (19)
2F2C  676574526F6F744F+  "getRootO"
2F34  626A656374436F6C+  "bjectCol"
2F3C  6F7200             "or\0"
                         const [6]: "getRootObjectColor"
2F3F  01                 const type 3
2F40  12F0FAD5           const [7]: (-704974830)
2F44  04                 const type 4
2F45  13                 string size (19)
2F46  6973576561706F6E+  "isWeapon"
2F4E  50726F6A65637469+  "Projecti"
2F56  6C6500             "le\0"
                         const [8]: "isWeaponProjectile"
2F59  04                 const type 4
2F5A  0F                 string size (15)
2F5B  676574506172656E+  "getParen"
2F63  74466972737400     "tFirst\0"
                         const [9]: "getParentFirst"
2F6A  04                 const type 4
2F6B  04                 string size (4)
2F6C  72656400           "red\0"
                         const [10]: "red"
2F70  04                 const type 4
2F71  0F                 string size (15)
2F72  6C656E73466C6172+  "lensFlar"
2F7A  65417474656E00     "eAtten\0"
                         const [11]: "lensFlareAtten"
2F81  04                 const type 4
2F82  06                 string size (6)
2F83  677265656E00       "green\0"
                         const [12]: "green"
2F89  04                 const type 4
2F8A  05                 string size (5)
2F8B  626C756500         "blue\0"
                         const [13]: "blue"
2F90  04                 const type 4
2F91  09                 string size (9)
2F92  487565436C616D70+  "HueClamp"
2F9A  00                 "\0"
                         const [14]: "HueClamp"
2F9B  04                 const type 4
2F9C  06                 string size (6)
2F9D  616C70686100       "alpha\0"
                         const [15]: "alpha"
2FA3  01                 const type 3
2FA4  EBC7A7B9           const [16]: (-1180186645)
2FA8  04                 const type 4
2FA9  0C                 string size (12)
2FAA  6E65775361747572+  "newSatur"
2FB2  61746500           "ate\0"
                         const [17]: "newSaturate"
2FB6  04                 const type 4
2FB7  0E                 string size (14)
2FB8  6E65774272696768+  "newBrigh"
2FC0  746E65737300       "tness\0"
                         const [18]: "newBrightness"
2FC6  01                 const type 3
2FC7  256B3DE6           const [19]: (-432182491)
2FCB  01                 const type 3
2FCC  C0640FA2           const [20]: (-1576049472)
                         * functions:
2FD0  00                 sizep (0)
                         * lines:
2FD1  50                 sizelineinfo (80)
                         [pc] (line)
2FD2  C5                 [01] (-59)
2FD3  01                 [02] (-59)
2FD4  00                 [03] (-59)
2FD5  00                 [04] (-58)
2FD6  C5                 [05] (-58)
2FD7  01                 [06] (-57)
2FD8  00                 [07] (-56)
2FD9  00                 [08] (-56)
2FDA  C5                 [09] (-56)
2FDB  01                 [10] (-55)
2FDC  00                 [11] (-55)
2FDD  00                 [12] (-54)
2FDE  C6                 [13] (-54)
2FDF  01                 [14] (-54)
2FE0  00                 [15] (-54)
2FE1  00                 [16] (-54)
2FE2  C6                 [17] (-53)
2FE3  01                 [18] (-50)
2FE4  00                 [19] (-50)
2FE5  00                 [20] (-50)
2FE6  C7                 [21] (-49)
2FE7  01                 [22] (-49)
2FE8  00                 [23] (-48)
2FE9  00                 [24] (-48)
2FEA  C8                 [25] (-48)
2FEB  01                 [26] (-48)
2FEC  00                 [27] (-48)
2FED  00                 [28] (-47)
2FEE  C8                 [29] (-44)
2FEF  01                 [30] (-44)
2FF0  00                 [31] (-44)
2FF1  00                 [32] (-43)
2FF2  C8                 [33] (-43)
2FF3  01                 [34] (-43)
2FF4  00                 [35] (-43)
2FF5  00                 [36] (-43)
2FF6  C9                 [37] (-41)
2FF7  01                 [38] (-41)
2FF8  00                 [39] (-41)
2FF9  00                 [40] (-41)
2FFA  C9                 [41] (-41)
2FFB  01                 [42] (-39)
2FFC  00                 [43] (-39)
2FFD  00                 [44] (-39)
2FFE  CA                 [45] (-39)
2FFF  01                 [46] (-39)
3000  00                 [47] (-38)
3001  00                 [48] (-38)
3002  CA                 [49] (-38)
3003  01                 [50] (-38)
3004  00                 [51] (-37)
3005  00                 [52] (-37)
3006  CA                 [53] (-37)
3007  01                 [54] (-37)
3008  00                 [55] (-36)
3009  00                 [56] (-36)
300A  CA                 [57] (-36)
300B  01                 [58] (-36)
300C  00                 [59] (-35)
300D  00                 [60] (-35)
300E  CA                 [61] (-35)
300F  01                 [62] (-34)
3010  00                 [63] (-33)
3011  00                 [64] (-33)
3012  CB                 [65] (-33)
3013  01                 [66] (-33)
3014  00                 [67] (-32)
3015  00                 [68] (-31)
3016  CE                 [69] (-30)
3017  01                 [70] (-30)
3018  00                 [71] (-30)
3019  00                 [72] (-30)
301A  CE                 [73] (-30)
301B  01                 [74] (-30)
301C  00                 [75] (-30)
301D  00                 [76] (-29)
301E  CE                 [77] (-27)
301F  01                 [78] (-27)
3020  00                 [79] (-27)
3021  00                 [80] (-25)
                         * locals:
3112  00                 sizelocvars (0)
                         * upvalues:
3113  00                 sizeupvalues (0)
                         ** end of function **

                         
3114                     ** function [8] definition (level 2)
                         ** start of function **
3114  00                 string size (0)
                         source name: (none)
3116  03                 line defined (489)
3117  8B                 last line defined (523)
3118  04                 nups (3)
3119  03                 numparams (1)
311A  01                 is_vararg (0)
311B  00                 maxstacksize (13)
                         * code:
311D  4D                 sizecode (77)
311E  5D000000           [01] getglobal  1   0        ; 538022378
3122  99400000           [02] loadk      2   1        ; 0
3126  62400001           [03] call       1   2   1  
312A  5D800000           [04] getglobal  1   2        ; -1247440829
312E  62808000           [05] call       1   1   2  
3132  92000000           [06] move       2   0      
3136  DDC00000           [07] getglobal  3   3        ; passCreatorThrough
313A  D8000000           [08] test       3       0    ; to [10] if true
313E  1AC00180           [09] jmp        8            ; to [18]
3142  E4004100           [10] self       3   0   260  ; 129677183
3146  E2800001           [11] call       3   2   2  
314A  1D410100           [12] getglobal  4   5        ; 1074689893
314E  52018001           [13] move       5   3      
3152  22810001           [14] call       4   2   2  
3156  18410000           [15] test       4       1    ; to [17] if false
315A  1A000080           [16] jmp        1            ; to [18]
315E  92008001           [17] move       2   3      
3162  1D810100           [18] getglobal  4   6        ; destroyIfIllusionAvatar
3166  18010000           [19] test       4       0    ; to [21] if true
316A  1A000480           [20] jmp        17           ; to [38]
316E  1DC10100           [21] getglobal  4   7        ; isAttachedToWeapon
3172  18010000           [22] test       4       0    ; to [24] if true
3176  1A400380           [23] jmp        14           ; to [38]
317A  24014200           [24] self       4   0   264  ; -704974830
317E  22810001           [25] call       4   2   2  
3182  5D410100           [26] getglobal  5   5        ; 1074689893
3186  92010002           [27] move       6   4      
318A  62810001           [28] call       5   2   2  
318E  58410000           [29] test       5       1    ; to [31] if false
3192  1A800180           [30] jmp        7            ; to [38]
3196  64414202           [31] self       5   4   265  ; -1957065004
319A  DD810200           [32] getglobal  7   10       ; gLotusMirrorAvatarType
319E  62818001           [33] call       5   3   2  
31A2  58010000           [34] test       5       0    ; to [36] if true
31A6  1A400080           [35] jmp        2            ; to [38]
31AA  64C14200           [36] self       5   0   267  ; -725453761
31AE  62410001           [37] call       5   2   1  
31B2  5D010300           [38] getglobal  5   12       ; isWeaponProjectile
31B6  58010000           [39] test       5       0    ; to [41] if true
31BA  1A000180           [40] jmp        5            ; to [46]
31BE  53010000           [41] getupval   5   0      
31C2  92010001           [42] move       6   2      
31C6  62810001           [43] call       5   2   2  
31CA  52008002           [44] move       1   5      
31CE  1A000180           [45] jmp        5            ; to [51]
31D2  53018000           [46] getupval   5   1      
31D6  92010001           [47] move       6   2      
31DA  DD410300           [48] getglobal  7   13       ; getParentFirst
31DE  62818001           [49] call       5   3   2  
31E2  52008002           [50] move       1   5      
31E6  5D410100           [51] getglobal  5   5        ; 1074689893
31EA  92018000           [52] move       6   1      
31EE  62810001           [53] call       5   2   2  
31F2  58410000           [54] test       5       1    ; to [56] if false
31F6  1A000580           [55] jmp        21           ; to [77]
31FA  5D810300           [56] getglobal  5   14       ; HueClamp
31FE  58010000           [57] test       5       0    ; to [59] if true
3202  1A800380           [58] jmp        15           ; to [74]
3206  4EC1C300           [59] gettable   5   1   271  ; "alpha"
320A  93010001           [60] getupval   6   2      
320E  8E014403           [61] gettable   6   6   272  ; -1180186645
3212  D2018000           [62] move       7   1      
3216  A2010101           [63] call       6   2   4  
321A  DD410400           [64] getglobal  7   17       ; newSaturate
321E  1D820400           [65] getglobal  8   18       ; newBrightness
3222  53020001           [66] getupval   9   2      
3226  4EC2C404           [67] gettable   9   9   275  ; -432182491
322A  92020003           [68] move       10  6      
322E  D2028003           [69] move       11  7      
3232  12030004           [70] move       12  8      
3236  62820002           [71] call       9   4   2  
323A  52008004           [72] move       1   9      
323E  4C408187           [73] settable   1   271 5    ; "alpha"
3242  64024500           [74] self       9   0   276  ; -1881992366
3246  D2028000           [75] move       11  1      
324A  62428001           [76] call       9   3   1  
324E  1E008000           [77] return     0   1      
                         * constants:
3252  15                 sizek (21)
3253  01                 const type 3
3254  EA911120           const [0]: (538022378)
3258  03                 const type 3
3259  00000000           const [1]: (0)
325D  01                 const type 3
325E  4390A5B5           const [2]: (-1247440829)
3262  04                 const type 4
3263  13                 string size (19)
3264  7061737343726561+  "passCrea"
326C  746F725468726F75+  "torThrou"
3274  676800             "gh\0"
                         const [3]: "passCreatorThrough"
3277  01                 const type 3
3278  7FB7BA07           const [4]: (129677183)
327C  01                 const type 3
327D  65770E40           const [5]: (1074689893)
3281  04                 const type 4
3282  18                 string size (24)
3283  64657374726F7949+  "destroyI"
328B  66496C6C7573696F+  "fIllusio"
3293  6E41766174617200   "nAvatar\0"
                         const [6]: "destroyIfIllusionAvatar"
329B  04                 const type 4
329C  13                 string size (19)
329D  6973417474616368+  "isAttach"
32A5  6564546F57656170+  "edToWeap"
32AD  6F6E00             "on\0"
                         const [7]: "isAttachedToWeapon"
32B0  01                 const type 3
32B1  12F0FAD5           const [8]: (-704974830)
32B5  01                 const type 3
32B6  D48E598B           const [9]: (-1957065004)
32BA  04                 const type 4
32BB  17                 string size (23)
32BC  674C6F7475734D69+  "gLotusMi"
32C4  72726F7241766174+  "rrorAvat"
32CC  61725479706500     "arType\0"
                         const [10]: "gLotusMirrorAvatarType"
32D3  01                 const type 3
32D4  3F74C2D4           const [11]: (-725453761)
32D8  04                 const type 4
32D9  13                 string size (19)
32DA  6973576561706F6E+  "isWeapon"
32E2  50726F6A65637469+  "Projecti"
32EA  6C6500             "le\0"
                         const [12]: "isWeaponProjectile"
32ED  04                 const type 4
32EE  0F                 string size (15)
32EF  676574506172656E+  "getParen"
32F7  74466972737400     "tFirst\0"
                         const [13]: "getParentFirst"
32FE  04                 const type 4
32FF  09                 string size (9)
3300  487565436C616D70+  "HueClamp"
3308  00                 "\0"
                         const [14]: "HueClamp"
3309  04                 const type 4
330A  06                 string size (6)
330B  616C70686100       "alpha\0"
                         const [15]: "alpha"
3311  01                 const type 3
3312  EBC7A7B9           const [16]: (-1180186645)
3316  04                 const type 4
3317  0C                 string size (12)
3318  6E65775361747572+  "newSatur"
3320  61746500           "ate\0"
                         const [17]: "newSaturate"
3324  04                 const type 4
3325  0E                 string size (14)
3326  6E65774272696768+  "newBrigh"
332E  746E65737300       "tness\0"
                         const [18]: "newBrightness"
3334  01                 const type 3
3335  256B3DE6           const [19]: (-432182491)
3339  01                 const type 3
333A  5213D38F           const [20]: (-1881992366)
                         * functions:
333E  00                 sizep (0)
                         * lines:
333F  4D                 sizelineinfo (77)
                         [pc] (line)
3340  EA                 [01] (-22)
3341  01                 [02] (-22)
3342  00                 [03] (-22)
3343  00                 [04] (-21)
3344  EA                 [05] (-21)
3345  01                 [06] (-20)
3346  00                 [07] (-19)
3347  00                 [08] (-19)
3348  EA                 [09] (-19)
3349  01                 [10] (-18)
334A  00                 [11] (-18)
334B  00                 [12] (-17)
334C  EB                 [13] (-17)
334D  01                 [14] (-17)
334E  00                 [15] (-17)
334F  00                 [16] (-17)
3350  EB                 [17] (-16)
3351  01                 [18] (-13)
3352  00                 [19] (-13)
3353  00                 [20] (-13)
3354  EC                 [21] (-13)
3355  01                 [22] (-13)
3356  00                 [23] (-13)
3357  00                 [24] (-12)
3358  ED                 [25] (-12)
3359  01                 [26] (-11)
335A  00                 [27] (-11)
335B  00                 [28] (-11)
335C  ED                 [29] (-11)
335D  01                 [30] (-11)
335E  00                 [31] (-10)
335F  00                 [32] (-10)
3360  ED                 [33] (-10)
3361  01                 [34] (-10)
3362  00                 [35] (-10)
3363  00                 [36] (-9)
3364  EE                 [37] (-9)
3365  01                 [38] (-5)
3366  00                 [39] (-5)
3367  00                 [40] (-5)
3368  EE                 [41] (-4)
3369  01                 [42] (-4)
336A  00                 [43] (-4)
336B  00                 [44] (-4)
336C  EF                 [45] (-4)
336D  01                 [46] (-2)
336E  00                 [47] (-2)
336F  00                 [48] (-2)
3370  EF                 [49] (-2)
3371  01                 [50] (-2)
3372  00                 [51] (0)
3373  00                 [52] (0)
3374  EF                 [53] (0)
3375  01                 [54] (0)
3376  00                 [55] (0)
3377  00                 [56] (1)
3378  EF                 [57] (1)
3379  01                 [58] (1)
337A  00                 [59] (2)
337B  00                 [60] (3)
337C  EF                 [61] (3)
337D  01                 [62] (3)
337E  00                 [63] (3)
337F  00                 [64] (4)
3380  F0                 [65] (5)
3381  01                 [66] (6)
3382  00                 [67] (6)
3383  00                 [68] (6)
3384  F3                 [69] (6)
3385  01                 [70] (6)
3386  00                 [71] (6)
3387  00                 [72] (6)
3388  F3                 [73] (7)
3389  01                 [74] (9)
338A  00                 [75] (9)
338B  00                 [76] (9)
338C  F3                 [77] (11)
                         * locals:
3474  00                 sizelocvars (0)
                         * upvalues:
3475  00                 sizeupvalues (0)
                         ** end of function **

                         
3476                     ** function [9] definition (level 2)
                         ** start of function **
3476  00                 string size (0)
                         source name: (none)
3478  04                 line defined (525)
3479  A5                 last line defined (549)
347A  04                 nups (3)
347B  03                 numparams (1)
347C  01                 is_vararg (0)
347D  00                 maxstacksize (8)
                         * code:
347F  47                 sizecode (71)
3480  5D000000           [01] getglobal  1   0        ; 538022378
3484  99400000           [02] loadk      2   1        ; 0
3488  62400001           [03] call       1   2   1  
348C  5D800000           [04] getglobal  1   2        ; -1247440829
3490  62808000           [05] call       1   1   2  
3494  9DC00000           [06] getglobal  2   3        ; isWeaponProjectile
3498  98000000           [07] test       2       0    ; to [9] if true
349C  1A000180           [08] jmp        5            ; to [14]
34A0  93000000           [09] getupval   2   0      
34A4  D2000000           [10] move       3   0      
34A8  A2800001           [11] call       2   2   2  
34AC  52000001           [12] move       1   2      
34B0  1A000180           [13] jmp        5            ; to [19]
34B4  93008000           [14] getupval   2   1      
34B8  D2000000           [15] move       3   0      
34BC  1D010100           [16] getglobal  4   4        ; getParentFirst
34C0  A2808001           [17] call       2   3   2  
34C4  52000001           [18] move       1   2      
34C8  9D400100           [19] getglobal  2   5        ; 1074689893
34CC  D2008000           [20] move       3   1      
34D0  A2800001           [21] call       2   2   2  
34D4  98400000           [22] test       2       1    ; to [24] if false
34D8  1A800280           [23] jmp        11           ; to [35]
34DC  9D800100           [24] getglobal  2   6        ; applyLowHigh
34E0  98000000           [25] test       2       0    ; to [27] if true
34E4  1A000180           [26] jmp        5            ; to [32]
34E8  93000001           [27] getupval   2   2      
34EC  8EC04101           [28] gettable   2   2   263  ; -1130533444
34F0  D2000000           [29] move       3   0      
34F4  12018000           [30] move       4   1      
34F8  A2408001           [31] call       2   3   1  
34FC  A4004200           [32] self       2   0   264  ; -1576049472
3500  12018000           [33] move       4   1      
3504  A2408001           [34] call       2   3   1  
3508  9D400200           [35] getglobal  2   9        ; beamSetWave
350C  98000000           [36] test       2       0    ; to [38] if true
3510  1AC00480           [37] jmp        20           ; to [58]
3514  9D800200           [38] getglobal  2   10       ; 572299008
3518  DDC00200           [39] getglobal  3   11       ; -1941280958
351C  1D010300           [40] getglobal  4   12       ; beamWaveAmp
fail op	0
3520  00010002           [41] move       4   4      
3524  5D010300           [42] getglobal  5   12       ; beamWaveAmp
3528  E2808001           [43] call       3   3   2  
352C  1DC10200           [44] getglobal  4   11       ; -1941280958
3530  5D010300           [45] getglobal  5   12       ; beamWaveAmp
fail op	0
3534  40018002           [46] move       5   5      
3538  9D010300           [47] getglobal  6   12       ; beamWaveAmp
353C  22818001           [48] call       4   3   2  
3540  5DC10200           [49] getglobal  5   11       ; -1941280958
3544  9D010300           [50] getglobal  6   12       ; beamWaveAmp
fail op	0
3548  80010003           [51] move       6   6      
354C  DD010300           [52] getglobal  7   12       ; beamWaveAmp
3550  62018001           [53] call       5   3   0  
3554  A2800000           [54] call       2   0   2  
3558  E4404300           [55] self       3   0   269  ; 1476164854
355C  52010001           [56] move       5   2      
3560  E2408001           [57] call       3   3   1  
3564  DD800300           [58] getglobal  3   14       ; destroyBeam
3568  D8000000           [59] test       3       0    ; to [61] if true
356C  1A400280           [60] jmp        10           ; to [71]
3570  DD000000           [61] getglobal  3   0        ; 538022378
3574  1DC10300           [62] getglobal  4   15       ; beamDelay
3578  E2400001           [63] call       3   2   1  
357C  DD400100           [64] getglobal  3   5        ; 1074689893
3580  12010000           [65] move       4   0      
3584  E2800001           [66] call       3   2   2  
3588  D8400000           [67] test       3       1    ; to [69] if false
358C  1A400080           [68] jmp        2            ; to [71]
3590  E4004400           [69] self       3   0   272  ; -725453761
3594  E2400001           [70] call       3   2   1  
3598  1E008000           [71] return     0   1      
                         * constants:
359C  11                 sizek (17)
359D  01                 const type 3
359E  EA911120           const [0]: (538022378)
35A2  03                 const type 3
35A3  00000000           const [1]: (0)
35A7  01                 const type 3
35A8  4390A5B5           const [2]: (-1247440829)
35AC  04                 const type 4
35AD  13                 string size (19)
35AE  6973576561706F6E+  "isWeapon"
35B6  50726F6A65637469+  "Projecti"
35BE  6C6500             "le\0"
                         const [3]: "isWeaponProjectile"
35C1  04                 const type 4
35C2  0F                 string size (15)
35C3  676574506172656E+  "getParen"
35CB  74466972737400     "tFirst\0"
                         const [4]: "getParentFirst"
35D2  01                 const type 3
35D3  65770E40           const [5]: (1074689893)
35D7  04                 const type 4
35D8  0D                 string size (13)
35D9  6170706C794C6F77+  "applyLow"
35E1  4869676800         "High\0"
                         const [6]: "applyLowHigh"
35E6  01                 const type 3
35E7  BC6D9DBC           const [7]: (-1130533444)
35EB  01                 const type 3
35EC  C0640FA2           const [8]: (-1576049472)
35F0  04                 const type 4
35F1  0C                 string size (12)
35F2  6265616D53657457+  "beamSetW"
35FA  61766500           "ave\0"
                         const [9]: "beamSetWave"
35FE  01                 const type 3
35FF  00971C22           const [10]: (572299008)
3603  01                 const type 3
3604  42674A8C           const [11]: (-1941280958)
3608  04                 const type 4
3609  0C                 string size (12)
360A  6265616D57617665+  "beamWave"
3612  416D7000           "Amp\0"
                         const [12]: "beamWaveAmp"
3616  01                 const type 3
3617  F67CFC57           const [13]: (1476164854)
361B  04                 const type 4
361C  0C                 string size (12)
361D  64657374726F7942+  "destroyB"
3625  65616D00           "eam\0"
                         const [14]: "destroyBeam"
3629  04                 const type 4
362A  0A                 string size (10)
362B  6265616D44656C61+  "beamDela"
3633  7900               "y\0"
                         const [15]: "beamDelay"
3635  01                 const type 3
3636  3F74C2D4           const [16]: (-725453761)
                         * functions:
363A  00                 sizep (0)
                         * lines:
363B  47                 sizelineinfo (71)
                         [pc] (line)
363C  0E                 [01] (14)
363D  02                 [02] (14)
363E  00                 [03] (14)
363F  00                 [04] (15)
3640  0E                 [05] (15)
3641  02                 [06] (16)
3642  00                 [07] (16)
3643  00                 [08] (16)
3644  0E                 [09] (17)
3645  02                 [10] (17)
3646  00                 [11] (17)
3647  00                 [12] (17)
3648  0F                 [13] (17)
3649  02                 [14] (19)
364A  00                 [15] (19)
364B  00                 [16] (19)
364C  0F                 [17] (19)
364D  02                 [18] (19)
364E  00                 [19] (21)
364F  00                 [20] (21)
3650  10                 [21] (21)
3651  02                 [22] (21)
3652  00                 [23] (21)
3653  00                 [24] (22)
3654  10                 [25] (22)
3655  02                 [26] (22)
3656  00                 [27] (23)
3657  00                 [28] (23)
3658  10                 [29] (23)
3659  02                 [30] (23)
365A  00                 [31] (23)
365B  00                 [32] (25)
365C  11                 [33] (25)
365D  02                 [34] (25)
365E  00                 [35] (27)
365F  00                 [36] (27)
3660  11                 [37] (27)
3661  02                 [38] (28)
3662  00                 [39] (28)
3663  00                 [40] (28)
3664  11                 [41] (28)
3665  02                 [42] (28)
3666  00                 [43] (28)
3667  00                 [44] (28)
3668  11                 [45] (28)
3669  02                 [46] (28)
366A  00                 [47] (28)
366B  00                 [48] (28)
366C  11                 [49] (28)
366D  02                 [50] (28)
366E  00                 [51] (28)
366F  00                 [52] (28)
3670  13                 [53] (28)
3671  02                 [54] (28)
3672  00                 [55] (29)
3673  00                 [56] (29)
3674  13                 [57] (29)
3675  02                 [58] (31)
3676  00                 [59] (31)
3677  00                 [60] (31)
3678  13                 [61] (32)
3679  02                 [62] (32)
367A  00                 [63] (32)
367B  00                 [64] (33)
367C  13                 [65] (33)
367D  02                 [66] (33)
367E  00                 [67] (33)
367F  00                 [68] (33)
3680  13                 [69] (34)
3681  02                 [70] (34)
3682  00                 [71] (37)
                         * locals:
3758  00                 sizelocvars (0)
                         * upvalues:
3759  00                 sizeupvalues (0)
                         ** end of function **

                         
375A                     ** function [10] definition (level 2)
                         ** start of function **
375A  00                 string size (0)
                         source name: (none)
375C  04                 line defined (551)
375D  BB                 last line defined (571)
375E  04                 nups (1)
375F  01                 numparams (1)
3760  01                 is_vararg (0)
3761  00                 maxstacksize (8)
                         * code:
3763  30                 sizecode (48)
3764  5D000000           [01] getglobal  1   0        ; 538022378
3768  99400000           [02] loadk      2   1        ; 0
376C  62400001           [03] call       1   2   1  
3770  64804000           [04] self       1   0   258  ; -1957065004
3774  DDC00000           [05] getglobal  3   3        ; gPowerSuitType
3778  62808001           [06] call       1   3   2  
377C  58400000           [07] test       1       1    ; to [9] if false
3780  1A000080           [08] jmp        1            ; to [10]
3784  1E008000           [09] return     0   1      
3788  5D000100           [10] getglobal  1   4        ; -1247440829
378C  62808000           [11] call       1   1   2  
3790  A4404100           [12] self       2   0   261  ; -1348043987
3794  A2800001           [13] call       2   2   2  
3798  E4804101           [14] self       3   2   262  ; -479391803
379C  5DC10100           [15] getglobal  5   7        ; Lotus_Game
37A0  4E01C202           [16] gettable   5   5   264  ; "PrimaryColors"
37A4  E2808001           [17] call       3   3   2  
37A8  2441C201           [18] self       4   3   265  ; 979293742
37AC  9DC10100           [19] getglobal  6   7        ; Lotus_Game
37B0  8E814203           [20] gettable   6   6   266  ; "EnergyColor"
37B4  22818001           [21] call       4   3   2  
37B8  18010000           [22] test       4       0    ; to [24] if true
37BC  1AC00080           [23] jmp        4            ; to [28]
37C0  1D010100           [24] getglobal  4   4        ; -1247440829
37C4  4EC1C201           [25] gettable   5   3   267  ; "mEnergyColor"
37C8  22810001           [26] call       4   2   2  
37CC  52000002           [27] move       1   4      
37D0  1D010300           [28] getglobal  4   12       ; 1074689893
37D4  52018000           [29] move       5   1      
37D8  22810001           [30] call       4   2   2  
37DC  18410000           [31] test       4       1    ; to [33] if false
37E0  1A800380           [32] jmp        15           ; to [48]
37E4  1D410300           [33] getglobal  4   13       ; applyLowHigh
37E8  18010000           [34] test       4       0    ; to [36] if true
37EC  1AC00280           [35] jmp        12           ; to [48]
37F0  24814300           [36] self       4   0   270  ; -1538682285
37F4  22810001           [37] call       4   2   2  
37F8  5D010300           [38] getglobal  5   12       ; 1074689893
37FC  92010002           [39] move       6   4      
3800  62810001           [40] call       5   2   2  
3804  58410000           [41] test       5       1    ; to [43] if false
3808  1A000180           [42] jmp        5            ; to [48]
380C  53010000           [43] getupval   5   0      
3810  4EC1C302           [44] gettable   5   5   271  ; -1130533444
3814  92010002           [45] move       6   4      
3818  D2018000           [46] move       7   1      
381C  62418001           [47] call       5   3   1  
3820  1E008000           [48] return     0   1      
                         * constants:
3824  10                 sizek (16)
3825  01                 const type 3
3826  EA911120           const [0]: (538022378)
382A  03                 const type 3
382B  00000000           const [1]: (0)
382F  01                 const type 3
3830  D48E598B           const [2]: (-1957065004)
3834  04                 const type 4
3835  0F                 string size (15)
3836  67506F7765725375+  "gPowerSu"
383E  69745479706500     "itType\0"
                         const [3]: "gPowerSuitType"
3845  01                 const type 3
3846  4390A5B5           const [4]: (-1247440829)
384A  01                 const type 3
384B  2D7BA6AF           const [5]: (-1348043987)
384F  01                 const type 3
3850  C50F6DE3           const [6]: (-479391803)
3854  04                 const type 4
3855  0B                 string size (11)
3856  4C6F7475735F4761+  "Lotus_Ga"
385E  6D6500             "me\0"
                         const [7]: "Lotus_Game"
3861  04                 const type 4
3862  0E                 string size (14)
3863  5072696D61727943+  "PrimaryC"
386B  6F6C6F727300       "olors\0"
                         const [8]: "PrimaryColors"
3871  01                 const type 3
3872  2ED65E3A           const [9]: (979293742)
3876  04                 const type 4
3877  0C                 string size (12)
3878  456E65726779436F+  "EnergyCo"
3880  6C6F7200           "lor\0"
                         const [10]: "EnergyColor"
3884  04                 const type 4
3885  0D                 string size (13)
3886  6D456E6572677943+  "mEnergyC"
388E  6F6C6F7200         "olor\0"
                         const [11]: "mEnergyColor"
3893  01                 const type 3
3894  65770E40           const [12]: (1074689893)
3898  04                 const type 4
3899  0D                 string size (13)
389A  6170706C794C6F77+  "applyLow"
38A2  4869676800         "High\0"
                         const [13]: "applyLowHigh"
38A7  01                 const type 3
38A8  539249A4           const [14]: (-1538682285)
38AC  01                 const type 3
38AD  BC6D9DBC           const [15]: (-1130533444)
                         * functions:
38B1  00                 sizep (0)
                         * lines:
38B2  30                 sizelineinfo (48)
                         [pc] (line)
38B3  28                 [01] (40)
38B4  02                 [02] (40)
38B5  00                 [03] (40)
38B6  00                 [04] (41)
38B7  28                 [05] (41)
38B8  02                 [06] (41)
38B9  00                 [07] (41)
38BA  00                 [08] (41)
38BB  28                 [09] (42)
38BC  02                 [10] (44)
38BD  00                 [11] (44)
38BE  00                 [12] (45)
38BF  29                 [13] (45)
38C0  02                 [14] (46)
38C1  00                 [15] (46)
38C2  00                 [16] (46)
38C3  29                 [17] (46)
38C4  02                 [18] (47)
38C5  00                 [19] (47)
38C6  00                 [20] (47)
38C7  29                 [21] (47)
38C8  02                 [22] (47)
38C9  00                 [23] (47)
38CA  00                 [24] (48)
38CB  29                 [25] (48)
38CC  02                 [26] (48)
38CD  00                 [27] (48)
38CE  00                 [28] (50)
38CF  29                 [29] (50)
38D0  02                 [30] (50)
38D1  00                 [31] (50)
38D2  00                 [32] (50)
38D3  2A                 [33] (52)
38D4  02                 [34] (52)
38D5  00                 [35] (52)
38D6  00                 [36] (53)
38D7  2C                 [37] (53)
38D8  02                 [38] (54)
38D9  00                 [39] (54)
38DA  00                 [40] (54)
38DB  2C                 [41] (54)
38DC  02                 [42] (54)
38DD  00                 [43] (55)
38DE  00                 [44] (55)
38DF  2D                 [45] (55)
38E0  02                 [46] (55)
38E1  00                 [47] (55)
38E2  00                 [48] (59)
                         * locals:
3973  00                 sizelocvars (0)
                         * upvalues:
3974  00                 sizeupvalues (0)
                         ** end of function **

                         
3975                     ** function [11] definition (level 2)
                         ** start of function **
3975  00                 string size (0)
                         source name: (none)
3977  04                 line defined (573)
3978  E0                 last line defined (608)
3979  04                 nups (3)
397A  03                 numparams (1)
397B  01                 is_vararg (0)
397C  00                 maxstacksize (8)
                         * code:
397E  56                 sizecode (86)
397F  5D000000           [01] getglobal  1   0        ; 538022378
3983  99400000           [02] loadk      2   1        ; 0
3987  62400001           [03] call       1   2   1  
398B  5D800000           [04] getglobal  1   2        ; 1074689893
398F  9DC00000           [05] getglobal  2   3        ; gRegion
3993  A4004101           [06] self       2   2   260  ; 2066713391
3997  A2000001           [07] call       2   2   0  
399B  62800000           [08] call       1   0   2  
399F  58400000           [09] test       1       1    ; to [11] if false
39A3  1AC00080           [10] jmp        4            ; to [15]
39A7  5D000000           [11] getglobal  1   0        ; 538022378
39AB  99400000           [12] loadk      2   1        ; 0
39AF  62400001           [13] call       1   2   1  
39B3  1A00FD7F           [14] jmp        -11          ; to [4]
39B7  59400100           [15] loadk      1   5        ; 0
39BB  A4804100           [16] self       2   0   262  ; -704974830
39BF  A2800001           [17] call       2   2   2  
39C3  A4C04101           [18] self       2   2   263  ; -1957065004
39C7  1D010200           [19] getglobal  4   8        ; gBaseAvatarType
39CB  A2808001           [20] call       2   3   2  
39CF  98400000           [21] test       2       1    ; to [23] if false
39D3  1A800180           [22] jmp        7            ; to [30]
fail op	21
39D7  15408080           [23] concat     0   257 1  
39DB  1A000180           [24] jmp        5            ; to [30]
39DF  4D40C200           [25] sub        1   1   265  ; 0
39E3  9D000000           [26] getglobal  2   0        ; 538022378
39E7  D9400000           [27] loadk      3   1        ; 0
39EB  A2400001           [28] call       2   2   1  
39EF  1A40FC7F           [29] jmp        -14          ; to [16]
39F3  9D800200           [30] getglobal  2   10       ; -1247440829
39F7  A2808000           [31] call       2   1   2  
39FB  D2000000           [32] move       3   0      
39FF  1DC10200           [33] getglobal  4   11       ; passCreatorThrough
3A03  18010000           [34] test       4       0    ; to [36] if true
3A07  1AC00180           [35] jmp        8            ; to [44]
3A0B  24014300           [36] self       4   0   268  ; 129677183
3A0F  22810001           [37] call       4   2   2  
3A13  5D810000           [38] getglobal  5   2        ; 1074689893
3A17  92010002           [39] move       6   4      
3A1B  62810001           [40] call       5   2   2  
3A1F  58410000           [41] test       5       1    ; to [43] if false
3A23  1A000080           [42] jmp        1            ; to [44]
3A27  D2000002           [43] move       3   4      
3A2B  5D410300           [44] getglobal  5   13       ; isWeaponProjectile
3A2F  58010000           [45] test       5       0    ; to [47] if true
3A33  1A000180           [46] jmp        5            ; to [52]
3A37  53010000           [47] getupval   5   0      
3A3B  92018001           [48] move       6   3      
3A3F  62810001           [49] call       5   2   2  
3A43  92008002           [50] move       2   5      
3A47  1A000180           [51] jmp        5            ; to [57]
3A4B  53018000           [52] getupval   5   1      
3A4F  92018001           [53] move       6   3      
3A53  DD810300           [54] getglobal  7   14       ; getParentFirst
3A57  62818001           [55] call       5   3   2  
3A5B  92008002           [56] move       2   5      
3A5F  5D810000           [57] getglobal  5   2        ; 1074689893
3A63  92010001           [58] move       6   2      
3A67  62810001           [59] call       5   2   2  
3A6B  58410000           [60] test       5       1    ; to [62] if false
3A6F  1A800280           [61] jmp        11           ; to [73]
3A73  64C14300           [62] self       5   0   271  ; -1576049472
3A77  D2010001           [63] move       7   2      
3A7B  62418001           [64] call       5   3   1  
3A7F  5D010400           [65] getglobal  5   16       ; applyLowHigh
3A83  58010000           [66] test       5       0    ; to [68] if true
3A87  1A000180           [67] jmp        5            ; to [73]
3A8B  53010001           [68] getupval   5   2      
3A8F  4E41C402           [69] gettable   5   5   273  ; -1130533444
3A93  92010000           [70] move       6   0      
3A97  D2010001           [71] move       7   2      
3A9B  62418001           [72] call       5   3   1  
3A9F  5D810000           [73] getglobal  5   2        ; 1074689893
3AA3  9D810400           [74] getglobal  6   18       ; gGameRules
3AA7  62810001           [75] call       5   2   2  
3AAB  58410000           [76] test       5       1    ; to [78] if false
3AAF  1AC00180           [77] jmp        8            ; to [86]
3AB3  5D810400           [78] getglobal  5   18       ; gGameRules
3AB7  64C1C102           [79] self       5   5   263  ; -1957065004
3ABB  DDC10400           [80] getglobal  7   19       ; gLotusHubGameRulesType
3ABF  62818001           [81] call       5   3   2  
3AC3  58010000           [82] test       5       0    ; to [84] if true
3AC7  1A400080           [83] jmp        2            ; to [86]
3ACB  64014500           [84] self       5   0   276  ; -725453761
3ACF  62410001           [85] call       5   2   1  
3AD3  1E008000           [86] return     0   1      
                         * constants:
3AD7  15                 sizek (21)
3AD8  01                 const type 3
3AD9  EA911120           const [0]: (538022378)
3ADD  03                 const type 3
3ADE  00000000           const [1]: (0)
3AE2  01                 const type 3
3AE3  65770E40           const [2]: (1074689893)
3AE7  04                 const type 4
3AE8  08                 string size (8)
3AE9  67526567696F6E00   "gRegion\0"
                         const [3]: "gRegion"
3AF1  01                 const type 3
3AF2  2F8B2F7B           const [4]: (2066713391)
3AF6  03                 const type 3
3AF7  0000A041           const [5]: (0)
3AFB  01                 const type 3
3AFC  12F0FAD5           const [6]: (-704974830)
3B00  01                 const type 3
3B01  D48E598B           const [7]: (-1957065004)
3B05  04                 const type 4
3B06  10                 string size (16)
3B07  6742617365417661+  "gBaseAva"
3B0F  7461725479706500   "tarType\0"
                         const [8]: "gBaseAvatarType"
3B17  03                 const type 3
3B18  0000803F           const [9]: (0)
3B1C  01                 const type 3
3B1D  4390A5B5           const [10]: (-1247440829)
3B21  04                 const type 4
3B22  13                 string size (19)
3B23  7061737343726561+  "passCrea"
3B2B  746F725468726F75+  "torThrou"
3B33  676800             "gh\0"
                         const [11]: "passCreatorThrough"
3B36  01                 const type 3
3B37  7FB7BA07           const [12]: (129677183)
3B3B  04                 const type 4
3B3C  13                 string size (19)
3B3D  6973576561706F6E+  "isWeapon"
3B45  50726F6A65637469+  "Projecti"
3B4D  6C6500             "le\0"
                         const [13]: "isWeaponProjectile"
3B50  04                 const type 4
3B51  0F                 string size (15)
3B52  676574506172656E+  "getParen"
3B5A  74466972737400     "tFirst\0"
                         const [14]: "getParentFirst"
3B61  01                 const type 3
3B62  C0640FA2           const [15]: (-1576049472)
3B66  04                 const type 4
3B67  0D                 string size (13)
3B68  6170706C794C6F77+  "applyLow"
3B70  4869676800         "High\0"
                         const [16]: "applyLowHigh"
3B75  01                 const type 3
3B76  BC6D9DBC           const [17]: (-1130533444)
3B7A  04                 const type 4
3B7B  0B                 string size (11)
3B7C  6747616D6552756C+  "gGameRul"
3B84  657300             "es\0"
                         const [18]: "gGameRules"
3B87  04                 const type 4
3B88  17                 string size (23)
3B89  674C6F7475734875+  "gLotusHu"
3B91  6247616D6552756C+  "bGameRul"
3B99  65735479706500     "esType\0"
                         const [19]: "gLotusHubGameRulesType"
3BA0  01                 const type 3
3BA1  3F74C2D4           const [20]: (-725453761)
                         * functions:
3BA5  00                 sizep (0)
                         * lines:
3BA6  56                 sizelineinfo (86)
                         [pc] (line)
3BA7  3E                 [01] (62)
3BA8  02                 [02] (62)
3BA9  00                 [03] (62)
3BAA  00                 [04] (63)
3BAB  3E                 [05] (63)
3BAC  02                 [06] (63)
3BAD  00                 [07] (63)
3BAE  00                 [08] (63)
3BAF  3E                 [09] (63)
3BB0  02                 [10] (63)
3BB1  00                 [11] (64)
3BB2  00                 [12] (64)
3BB3  3F                 [13] (64)
3BB4  02                 [14] (64)
3BB5  00                 [15] (66)
3BB6  00                 [16] (67)
3BB7  3F                 [17] (67)
3BB8  02                 [18] (67)
3BB9  00                 [19] (67)
3BBA  00                 [20] (67)
3BBB  3F                 [21] (67)
3BBC  02                 [22] (67)
3BBD  00                 [23] (67)
3BBE  00                 [24] (67)
3BBF  3F                 [25] (68)
3BC0  02                 [26] (69)
3BC1  00                 [27] (69)
3BC2  00                 [28] (69)
3BC3  3F                 [29] (69)
3BC4  02                 [30] (71)
3BC5  00                 [31] (71)
3BC6  00                 [32] (72)
3BC7  3F                 [33] (73)
3BC8  02                 [34] (73)
3BC9  00                 [35] (73)
3BCA  00                 [36] (74)
3BCB  3F                 [37] (74)
3BCC  02                 [38] (75)
3BCD  00                 [39] (75)
3BCE  00                 [40] (75)
3BCF  40                 [41] (75)
3BD0  02                 [42] (75)
3BD1  00                 [43] (76)
3BD2  00                 [44] (79)
3BD3  40                 [45] (79)
3BD4  02                 [46] (79)
3BD5  00                 [47] (80)
3BD6  00                 [48] (80)
3BD7  40                 [49] (80)
3BD8  02                 [50] (80)
3BD9  00                 [51] (80)
3BDA  00                 [52] (82)
3BDB  40                 [53] (82)
3BDC  02                 [54] (82)
3BDD  00                 [55] (82)
3BDE  00                 [56] (82)
3BDF  42                 [57] (84)
3BE0  02                 [58] (84)
3BE1  00                 [59] (84)
3BE2  00                 [60] (84)
3BE3  43                 [61] (84)
3BE4  02                 [62] (85)
3BE5  00                 [63] (85)
3BE6  00                 [64] (85)
3BE7  43                 [65] (86)
3BE8  02                 [66] (86)
3BE9  00                 [67] (86)
3BEA  00                 [68] (87)
3BEB  43                 [69] (87)
3BEC  02                 [70] (87)
3BED  00                 [71] (87)
3BEE  00                 [72] (87)
3BEF  43                 [73] (91)
3BF0  02                 [74] (91)
3BF1  00                 [75] (91)
3BF2  00                 [76] (91)
3BF3  43                 [77] (91)
3BF4  02                 [78] (92)
3BF5  00                 [79] (92)
3BF6  00                 [80] (92)
3BF7  43                 [81] (92)
3BF8  02                 [82] (92)
3BF9  00                 [83] (92)
3BFA  00                 [84] (93)
3BFB  43                 [85] (93)
3BFC  02                 [86] (96)
                         * locals:
3CFF  00                 sizelocvars (0)
                         * upvalues:
3D00  00                 sizeupvalues (0)
                         ** end of function **

                         
3D01                     ** function [12] definition (level 2)
                         ** start of function **
3D01  00                 string size (0)
                         source name: (none)
3D03  04                 line defined (610)
3D04  F1                 last line defined (625)
3D05  04                 nups (0)
3D06  00                 numparams (1)
3D07  01                 is_vararg (0)
3D08  00                 maxstacksize (5)
                         * code:
3D0A  1A                 sizecode (26)
3D0B  64004000           [01] self       1   0   256  ; 1352138124
3D0F  DD400000           [02] getglobal  3   1        ; 508519041
3D13  E2008000           [03] call       3   1   0  
3D17  62400000           [04] call       1   0   1  
3D1B  64804000           [05] self       1   0   258  ; -231049143
3D1F  62800001           [06] call       1   2   2  
3D23  8EC0C000           [07] gettable   2   1   259  ; "pitch"
3D27  DD000100           [08] getglobal  3   4        ; 1289681407
3D2B  E2808000           [09] call       3   1   2  
3D2F  C440C101           [10] mul        3   3   261  ; 0
3D33  83C00001           [11] add        2   2   3  
3D37  4C808081           [12] settable   1   259 2    ; "pitch"
3D3B  8EC0C000           [13] gettable   2   1   259  ; "pitch"
fail op	21
3D3F  15800083           [14] concat     0   262 2  
3D43  1A800080           [15] jmp        3            ; to [19]
3D47  8EC0C000           [16] gettable   2   1   259  ; "pitch"
3D4B  8D804101           [17] sub        2   2   262  ; 0
3D4F  4C808081           [18] settable   1   259 2    ; "pitch"
3D53  A4004000           [19] self       2   0   256  ; 1352138124
3D57  12018000           [20] move       4   1      
3D5B  A2408001           [21] call       2   3   1  
3D5F  9DC00100           [22] getglobal  2   7        ; 538022378
3D63  D9000200           [23] loadk      3   8        ; 0
3D67  A2400001           [24] call       2   2   1  
3D6B  1A80FA7F           [25] jmp        -21          ; to [5]
3D6F  1E008000           [26] return     0   1      
                         * constants:
3D73  09                 sizek (9)
3D74  01                 const type 3
3D75  8CFD9750           const [0]: (1352138124)
3D79  01                 const type 3
3D7A  81624F1E           const [1]: (508519041)
3D7E  01                 const type 3
3D7F  49783AF2           const [2]: (-231049143)
3D83  04                 const type 4
3D84  06                 string size (6)
3D85  706974636800       "pitch\0"
                         const [3]: "pitch"
3D8B  01                 const type 3
3D8C  FFF9DE4C           const [4]: (1289681407)
3D90  03                 const type 3
3D91  00004842           const [5]: (0)
3D95  03                 const type 3
3D96  00003443           const [6]: (0)
3D9A  01                 const type 3
3D9B  EA911120           const [7]: (538022378)
3D9F  03                 const type 3
3DA0  00000000           const [8]: (0)
                         * functions:
3DA4  00                 sizep (0)
                         * lines:
3DA5  1A                 sizelineinfo (26)
                         [pc] (line)
3DA6  64                 [01] (100)
3DA7  02                 [02] (100)
3DA8  00                 [03] (100)
3DA9  00                 [04] (100)
3DAA  64                 [05] (103)
3DAB  02                 [06] (103)
3DAC  00                 [07] (104)
3DAD  00                 [08] (104)
3DAE  64                 [09] (104)
3DAF  02                 [10] (104)
3DB0  00                 [11] (104)
3DB1  00                 [12] (104)
3DB2  64                 [13] (105)
3DB3  02                 [14] (105)
3DB4  00                 [15] (105)
3DB5  00                 [16] (106)
3DB6  67                 [17] (106)
3DB7  02                 [18] (106)
3DB8  00                 [19] (108)
3DB9  00                 [20] (108)
3DBA  67                 [21] (108)
3DBB  02                 [22] (110)
3DBC  00                 [23] (110)
3DBD  00                 [24] (110)
3DBE  68                 [25] (110)
3DBF  02                 [26] (113)
                         * locals:
3E0E  00                 sizelocvars (0)
                         * upvalues:
3E0F  00                 sizeupvalues (0)
                         ** end of function **

                         
3E10                     ** function [13] definition (level 2)
                         ** start of function **
3E10  00                 string size (0)
                         source name: (none)
3E12  04                 line defined (627)
3E13  A6                 last line defined (678)
3E14  05                 nups (1)
3E15  01                 numparams (1)
3E16  01                 is_vararg (0)
3E17  00                 maxstacksize (18)
                         * code:
3E19  7E                 sizecode (126)
3E1A  E4004000           [001] self       3   0   256  ; -1957065004
3E1E  5D410000           [002] getglobal  5   1        ; gPowerSuitType
3E22  E2808001           [003] call       3   3   2  
3E26  D8000000           [004] test       3       0    ; to [6] if true
3E2A  1A400280           [005] jmp        10           ; to [16]
3E2E  52000000           [006] move       1   0      
3E32  DD800000           [007] getglobal  3   2        ; 1074689893
3E36  12018000           [008] move       4   1      
3E3A  E2800001           [009] call       3   2   2  
3E3E  D8400000           [010] test       3       1    ; to [12] if false
3E42  1AC00980           [011] jmp        40           ; to [52]
3E46  E4C0C000           [012] self       3   1   259  ; -1538682285
3E4A  E2800001           [013] call       3   2   2  
3E4E  92008001           [014] move       2   3      
3E52  1AC00880           [015] jmp        36           ; to [52]
3E56  92000000           [016] move       2   0      
3E5A  DD000100           [017] getglobal  3   4        ; getParentFirst
3E5E  D8000000           [018] test       3       0    ; to [20] if true
3E62  1A800080           [019] jmp        3            ; to [23]
3E66  E4404100           [020] self       3   0   261  ; -1870903749
3E6A  E2800001           [021] call       3   2   2  
3E6E  92008001           [022] move       2   3      
3E72  DD800000           [023] getglobal  3   2        ; 1074689893
3E76  12010001           [024] move       4   2      
3E7A  E2800001           [025] call       3   2   2  
3E7E  D8400000           [026] test       3       1    ; to [28] if false
3E82  1A000180           [027] jmp        5            ; to [33]
3E86  E4004001           [028] self       3   2   256  ; -1957065004
3E8A  5D810100           [029] getglobal  5   6        ; gBaseAvatarType
3E8E  E2808001           [030] call       3   3   2  
3E92  D8400000           [031] test       3       1    ; to [33] if false
3E96  1A000080           [032] jmp        1            ; to [34]
3E9A  1E008000           [033] return     0   1      
3E9E  D9C00100           [034] loadk      3   7        ; 0
3EA2  1D810000           [035] getglobal  4   2        ; 1074689893
3EA6  52018000           [036] move       5   1      
3EAA  22810001           [037] call       4   2   2  
3EAE  18010000           [038] test       4       0    ; to [40] if true
3EB2  1AC00280           [039] jmp        12           ; to [52]
fail op	21
3EB6  15C00084           [040] concat     0   264 3  
3EBA  1A400280           [041] jmp        10           ; to [52]
3EBE  24414201           [042] self       4   2   265  ; -1917464545
3EC2  22810001           [043] call       4   2   2  
3EC6  24814202           [044] self       4   4   266  ; 1769516121
3ECA  22810001           [045] call       4   2   2  
3ECE  52000002           [046] move       1   4      
3ED2  CDC0C201           [047] sub        3   3   267  ; 0
3ED6  1D010300           [048] getglobal  4   12       ; 538022378
3EDA  59010200           [049] loadk      5   8        ; 0
3EDE  22410001           [050] call       4   2   1  
3EE2  1A80FB7F           [051] jmp        -17          ; to [35]
3EE6  1D410300           [052] getglobal  4   13       ; applyToWeaponsToo
3EEA  18010000           [053] test       4       0    ; to [55] if true
3EEE  1A000A80           [054] jmp        41           ; to [96]
3EF2  24414201           [055] self       4   2   265  ; -1917464545
3EF6  22810001           [056] call       4   2   2  
3EFA  59C10200           [057] loadk      5   11       ; 0
3EFE  93010000           [058] getupval   6   0      
3F02  8A010003           [059] len        6   6      
3F06  D9C10200           [060] loadk      7   11       ; 0
3F0A  50010880           [061] forprep    5   33       ; to [95]
3F0E  64824302           [062] self       9   4   270  ; 1674984496
3F12  D3020000           [063] getupval   11  0      
3F16  CE028205           [064] gettable   11  11  8  
3F1A  62828001           [065] call       9   3   2  
3F1E  9D820000           [066] getglobal  10  2        ; 1074689893
3F22  D2028004           [067] move       11  9      
3F26  A2820001           [068] call       10  2   2  
3F2A  98420000           [069] test       10      1    ; to [71] if false
3F2E  1AC00580           [070] jmp        24           ; to [95]
3F32  A4C2C304           [071] self       10  9   271  ; -1348043987
3F36  A2820001           [072] call       10  2   2  
3F3A  E4024405           [073] self       11  10  272  ; -479391803
3F3E  5D430400           [074] getglobal  13  17       ; Lotus_Game
3F42  4E83C406           [075] gettable   13  13  274  ; "PrimaryColors"
3F46  E2828001           [076] call       11  3   2  
3F4A  24C3C405           [077] self       12  11  275  ; -1881992366
3F4E  9D430400           [078] getglobal  14  17       ; Lotus_Game
3F52  8E034507           [079] gettable   14  14  276  ; "EnergyColor"
3F56  DD430500           [080] getglobal  15  21       ; newEnergyColor
3F5A  22430002           [081] call       12  4   1  
3F5E  2483C505           [082] self       12  11  278  ; -1037856321
3F62  9D430400           [083] getglobal  14  17       ; Lotus_Game
3F66  8E034507           [084] gettable   14  14  276  ; "EnergyColor"
3F6A  D7038000           [085] loadbool   15  1   0    ; true
3F6E  22430002           [086] call       12  4   1  
3F72  24C34505           [087] self       12  10  279  ; -1708889336
3F76  9D430400           [088] getglobal  14  17       ; Lotus_Game
3F7A  8E834407           [089] gettable   14  14  274  ; "PrimaryColors"
3F7E  D2038005           [090] move       15  11     
3F82  22430002           [091] call       12  4   1  
3F86  2403C604           [092] self       12  9   280  ; -1038992139
3F8A  92030005           [093] move       14  10     
3F8E  22438001           [094] call       12  3   1  
3F92  5441F77F           [095] forloop    5   -34      ; to [62] if loop
3F96  1D830000           [096] getglobal  12  2        ; 1074689893
3F9A  52038000           [097] move       13  1      
3F9E  22830001           [098] call       12  2   2  
3FA2  18030000           [099] test       12      0    ; to [101] if true
3FA6  1A000080           [100] jmp        1            ; to [102]
3FAA  1E008000           [101] return     0   1      
3FAE  24C3C300           [102] self       12  1   271  ; -1348043987
3FB2  22830001           [103] call       12  2   2  
3FB6  64034406           [104] self       13  12  272  ; -479391803
3FBA  DD430400           [105] getglobal  15  17       ; Lotus_Game
3FBE  CE83C407           [106] gettable   15  15  274  ; "PrimaryColors"
3FC2  62838001           [107] call       13  3   2  
3FC6  A4C3C406           [108] self       14  13  275  ; -1881992366
3FCA  1D440400           [109] getglobal  16  17       ; Lotus_Game
3FCE  0E044508           [110] gettable   16  16  276  ; "EnergyColor"
3FD2  5D440500           [111] getglobal  17  21       ; newEnergyColor
3FD6  A2430002           [112] call       14  4   1  
3FDA  A483C506           [113] self       14  13  278  ; -1037856321
3FDE  1D440400           [114] getglobal  16  17       ; Lotus_Game
3FE2  0E044508           [115] gettable   16  16  276  ; "EnergyColor"
3FE6  57048000           [116] loadbool   17  1   0    ; true
3FEA  A2430002           [117] call       14  4   1  
3FEE  A4C34506           [118] self       14  12  279  ; -1708889336
3FF2  1D440400           [119] getglobal  16  17       ; Lotus_Game
3FF6  0E844408           [120] gettable   16  16  274  ; "PrimaryColors"
3FFA  52048006           [121] move       17  13     
3FFE  A2430002           [122] call       14  4   1  
4002  A403C600           [123] self       14  1   280  ; -1038992139
4006  12040006           [124] move       16  12     
400A  A2438001           [125] call       14  3   1  
400E  1E008000           [126] return     0   1      
                         * constants:
4012  19                 sizek (25)
4013  01                 const type 3
4014  D48E598B           const [0]: (-1957065004)
4018  04                 const type 4
4019  0F                 string size (15)
401A  67506F7765725375+  "gPowerSu"
4022  69745479706500     "itType\0"
                         const [1]: "gPowerSuitType"
4029  01                 const type 3
402A  65770E40           const [2]: (1074689893)
402E  01                 const type 3
402F  539249A4           const [3]: (-1538682285)
4033  04                 const type 4
4034  0F                 string size (15)
4035  676574506172656E+  "getParen"
403D  74466972737400     "tFirst\0"
                         const [4]: "getParentFirst"
4044  01                 const type 3
4045  3B467C90           const [5]: (-1870903749)
4049  04                 const type 4
404A  10                 string size (16)
404B  6742617365417661+  "gBaseAva"
4053  7461725479706500   "tarType\0"
                         const [6]: "gBaseAvatarType"
405B  03                 const type 3
405C  00007041           const [7]: (0)
4060  03                 const type 3
4061  00000000           const [8]: (0)
4065  01                 const type 3
4066  1FD0B58D           const [9]: (-1917464545)
406A  01                 const type 3
406B  59AC7869           const [10]: (1769516121)
406F  03                 const type 3
4070  0000803F           const [11]: (0)
4074  01                 const type 3
4075  EA911120           const [12]: (538022378)
4079  04                 const type 4
407A  12                 string size (18)
407B  6170706C79546F57+  "applyToW"
4083  6561706F6E73546F+  "eaponsTo"
408B  6F00               "o\0"
                         const [13]: "applyToWeaponsToo"
408D  01                 const type 3
408E  303CD663           const [14]: (1674984496)
4092  01                 const type 3
4093  2D7BA6AF           const [15]: (-1348043987)
4097  01                 const type 3
4098  C50F6DE3           const [16]: (-479391803)
409C  04                 const type 4
409D  0B                 string size (11)
409E  4C6F7475735F4761+  "Lotus_Ga"
40A6  6D6500             "me\0"
                         const [17]: "Lotus_Game"
40A9  04                 const type 4
40AA  0E                 string size (14)
40AB  5072696D61727943+  "PrimaryC"
40B3  6F6C6F727300       "olors\0"
                         const [18]: "PrimaryColors"
40B9  01                 const type 3
40BA  5213D38F           const [19]: (-1881992366)
40BE  04                 const type 4
40BF  0C                 string size (12)
40C0  456E65726779436F+  "EnergyCo"
40C8  6C6F7200           "lor\0"
                         const [20]: "EnergyColor"
40CC  04                 const type 4
40CD  0F                 string size (15)
40CE  6E6577456E657267+  "newEnerg"
40D6  79436F6C6F7200     "yColor\0"
                         const [21]: "newEnergyColor"
40DD  01                 const type 3
40DE  BF9123C2           const [22]: (-1037856321)
40E2  01                 const type 3
40E3  086B249A           const [23]: (-1708889336)
40E7  01                 const type 3
40E8  F53C12C2           const [24]: (-1038992139)
                         * functions:
40EC  00                 sizep (0)
                         * lines:
40ED  7E                 sizelineinfo (126)
                         [pc] (line)
40EE  76                 [001] (118)
40EF  02                 [002] (118)
40F0  00                 [003] (118)
40F1  00                 [004] (118)
40F2  76                 [005] (118)
40F3  02                 [006] (120)
40F4  00                 [007] (121)
40F5  00                 [008] (121)
40F6  76                 [009] (121)
40F7  02                 [010] (121)
40F8  00                 [011] (121)
40F9  00                 [012] (122)
40FA  76                 [013] (122)
40FB  02                 [014] (122)
40FC  00                 [015] (123)
40FD  00                 [016] (125)
40FE  76                 [017] (126)
40FF  02                 [018] (126)
4100  00                 [019] (126)
4101  00                 [020] (127)
4102  78                 [021] (127)
4103  02                 [022] (127)
4104  00                 [023] (-127)
4105  00                 [024] (-127)
4106  79                 [025] (-127)
4107  02                 [026] (-127)
4108  00                 [027] (-127)
4109  00                 [028] (-127)
410A  79                 [029] (-127)
410B  02                 [030] (-127)
410C  00                 [031] (-127)
410D  00                 [032] (-127)
410E  79                 [033] (-126)
410F  02                 [034] (-124)
4110  00                 [035] (-123)
4111  00                 [036] (-123)
4112  79                 [037] (-123)
4113  02                 [038] (-123)
4114  00                 [039] (-123)
4115  00                 [040] (-123)
4116  79                 [041] (-123)
4117  02                 [042] (-122)
4118  00                 [043] (-122)
4119  00                 [044] (-122)
411A  7A                 [045] (-122)
411B  02                 [046] (-122)
411C  00                 [047] (-121)
411D  00                 [048] (-120)
411E  7A                 [049] (-120)
411F  02                 [050] (-120)
4120  00                 [051] (-120)
4121  00                 [052] (-115)
4122  7A                 [053] (-115)
4123  02                 [054] (-115)
4124  00                 [055] (-114)
4125  00                 [056] (-114)
4126  7B                 [057] (-113)
4127  02                 [058] (-113)
4128  00                 [059] (-113)
4129  00                 [060] (-113)
412A  7D                 [061] (-113)
412B  02                 [062] (-112)
412C  00                 [063] (-112)
412D  00                 [064] (-112)
412E  7E                 [065] (-112)
412F  02                 [066] (-111)
4130  00                 [067] (-111)
4131  00                 [068] (-111)
4132  7E                 [069] (-111)
4133  02                 [070] (-111)
4134  00                 [071] (-110)
4135  00                 [072] (-110)
4136  7E                 [073] (-109)
4137  02                 [074] (-109)
4138  00                 [075] (-109)
4139  00                 [076] (-109)
413A  7F                 [077] (-108)
413B  02                 [078] (-108)
413C  00                 [079] (-108)
413D  00                 [080] (-108)
413E  7F                 [081] (-108)
413F  02                 [082] (-107)
4140  00                 [083] (-107)
4141  00                 [084] (-107)
4142  7F                 [085] (-107)
4143  02                 [086] (-107)
4144  00                 [087] (-106)
4145  00                 [088] (-106)
4146  81                 [089] (-106)
4147  02                 [090] (-106)
4148  00                 [091] (-106)
4149  00                 [092] (-105)
414A  81                 [093] (-105)
414B  02                 [094] (-105)
414C  00                 [095] (-113)
414D  00                 [096] (-99)
414E  81                 [097] (-99)
414F  02                 [098] (-99)
4150  00                 [099] (-99)
4151  00                 [100] (-99)
4152  81                 [101] (-98)
4153  02                 [102] (-96)
4154  00                 [103] (-96)
4155  00                 [104] (-95)
4156  81                 [105] (-95)
4157  02                 [106] (-95)
4158  00                 [107] (-95)
4159  00                 [108] (-94)
415A  81                 [109] (-94)
415B  02                 [110] (-94)
415C  00                 [111] (-94)
415D  00                 [112] (-94)
415E  81                 [113] (-93)
415F  02                 [114] (-93)
4160  00                 [115] (-93)
4161  00                 [116] (-93)
4162  81                 [117] (-93)
4163  02                 [118] (-92)
4164  00                 [119] (-92)
4165  00                 [120] (-92)
4166  81                 [121] (-92)
4167  02                 [122] (-92)
4168  00                 [123] (-91)
4169  00                 [124] (-91)
416A  81                 [125] (-91)
416B  02                 [126] (-90)
                         * locals:
42E6  00                 sizelocvars (0)
                         * upvalues:
42E7  00                 sizeupvalues (0)
                         ** end of function **

                         * lines:
42E8  5F                 sizelineinfo (95)
                         [pc] (line)
42E9  26                 [01] (38)
42EA  00                 [02] (39)
42EB  00                 [03] (39)
42EC  00                 [04] (39)
42ED  27                 [05] (40)
42EE  00                 [06] (40)
42EF  00                 [07] (40)
42F0  00                 [08] (41)
42F1  27                 [09] (41)
42F2  00                 [10] (41)
42F3  00                 [11] (42)
42F4  00                 [12] (42)
42F5  27                 [13] (42)
42F6  00                 [14] (43)
42F7  00                 [15] (43)
42F8  00                 [16] (43)
42F9  28                 [17] (45)
42FA  00                 [18] (45)
42FB  00                 [19] (45)
42FC  00                 [20] (46)
42FD  28                 [21] (46)
42FE  00                 [22] (46)
42FF  00                 [23] (46)
4300  00                 [24] (46)
4301  28                 [25] (46)
4302  00                 [26] (46)
4303  00                 [27] (46)
4304  00                 [28] (-102)
4305  29                 [29] (-102)
4306  00                 [30] (-102)
4307  00                 [31] (-102)
4308  00                 [32] (-102)
4309  29                 [33] (-102)
430A  00                 [34] (-15)
430B  00                 [35] (-15)
430C  00                 [36] (23)
430D  29                 [37] (23)
430E  00                 [38] (23)
430F  00                 [39] (23)
4310  00                 [40] (23)
4311  2A                 [41] (-13)
4312  00                 [42] (42)
4313  00                 [43] (42)
4314  00                 [44] (42)
4315  2A                 [45] (25)
4316  00                 [46] (112)
4317  00                 [47] (112)
4318  00                 [48] (-110)
4319  2A                 [49] (-110)
431A  00                 [50] (-110)
431B  00                 [51] (-110)
431C  00                 [52] (114)
431D  2B                 [53] (-62)
431E  00                 [54] (-62)
431F  00                 [55] (-62)
4320  00                 [56] (-62)
4321  2B                 [57] (-62)
4322  00                 [58] (-62)
4323  00                 [59] (-108)
4324  00                 [60] (-25)
4325  2B                 [61] (-25)
4326  00                 [62] (-25)
4327  00                 [63] (-25)
4328  00                 [64] (-25)
4329  2D                 [65] (-60)
432A  00                 [66] (11)
432B  00                 [67] (11)
432C  00                 [68] (11)
432D  2D                 [69] (11)
432E  00                 [70] (11)
432F  00                 [71] (-23)
4330  00                 [72] (37)
4331  2D                 [73] (37)
4332  00                 [74] (37)
4333  00                 [75] (37)
4334  00                 [76] (37)
4335  2E                 [77] (13)
4336  00                 [78] (59)
4337  00                 [79] (59)
4338  00                 [80] (59)
4339  2E                 [81] (39)
433A  00                 [82] (96)
433B  00                 [83] (96)
433C  00                 [84] (96)
433D  2E                 [85] (96)
433E  00                 [86] (96)
433F  00                 [87] (61)
4340  00                 [88] (113)
4341  2E                 [89] (113)
4342  00                 [90] (98)
4343  00                 [91] (-90)
4344  00                 [92] (-90)
4345  2E                 [93] (-90)
4346  00                 [94] (115)
4347  00                 [95] (-90)
                         * locals:
4465  00                 sizelocvars (0)
                         * upvalues:
4466  00                 sizeupvalues (0)
                         ** end of function **

4467                     ** end of chunk **
