1	C:\wlua_dump\path\Lotus\Scripts\EffectsWarWithinEffects.lua
Pos   Hex Data           Description or Code
------------------------------------------------------------------------
0000                     ** source chunk: C:\wlua_dump\path\Lotus\Scripts\EffectsWarWithinEffects.lua
                         ** global header start **
0000  7F                 header signature: ""
0001  00                 version (major:minor hex digits)
0002  00                 format (0=official)
0003  00                 endianness (1=little endian)
0004  00                 size of int (bytes)
0005  00                 size of size_t (bytes)
0006  02                 size of Instruction (bytes)
0007  0F                 size of number (bytes)
0008  78                 integral (1=integral)
4120
                         * number type: single
                         * x86 standard (32-bit, little endian, doubles)
                         ** global header end **
GAME_C1_HEAD1
uvOffsets
GAME_C1_BRAID0
GAME_R1_WEAPON1
FadeParams
FadeVector
FadeVectorAmount
GAME_C1_SPINE2
GAME_L1_LEG1
GAME_C1_HIP1
GAME_C1_SPINE1
GAME_R1_ARM2
GAME_L1_ARM2
/Lotus/Types/Enemies/Grineer/Vip/Teshin/TeshinDiscDeco
ScreenUpdate
BurrowedDecoEffect
DestroyBraid
CinematicBeamFallOffCliff
CinematicBeamCastMirrorEnd
CinematicBeamCastChoiceB
TransferThroughQueen
CinematicBeamQueen
QueenDeformer
BeamDisabledCast
TransferenceFromTenno
WeatherWind
TennoHitByGlaive
GlaiveProjEffects
AttachProjToGlaive
WeatherFadeVector
MountainCinematicSnow
SnowVisibilityHack
x
scale
y
yBase
gRegion
lagDeco
throneDeco
gSkeletalClothExType
braidBone
destroyEffects
gLotusAvatarType
beamType
gRegion
lightType
ZERO_ROTATION
flareType
particleType
decoType
gLotusAvatarType
beamType
gRegion
lightType
ZERO_ROTATION
endPointType
beamType
gRegion
IntroQueen
beamTypeB
ZERO_ROTATION
GAME_L1_CLAV1
/Lotus/Characters/Grineer/GrineerTwinQueens/Cloth/DarkQueenHeaddressCloth
beamType
gRegion
FakeTeshin
GAME_C1_SPINE2
beamTypeB
gAvatarType
gRegion
blur
bloom
radialBlurStrength
fade
saturation
postFxSpeed
CloakVector
CloakHDR
heading
math
pitch
gRegion
particleType
EMPTY_SYMBOL
beamType
GAME_R1_ARM1
ZERO_VECTOR
ZERO_ROTATION
GAME_L1_ARM1
projStartFadeX
projEndFadeX
projStartFadeY
projEndFadeY
gRegion
particleType
EMPTY_SYMBOL
gRegion
CameraWeatherDeco
x
y
z
materialRes
MultiplyColor
materialVal
_T
weatherVolCount
visible
gRegion
CameraWeatherDeco
                         
0001                     ** function [0] definition (level 1)
                         ** start of function **
0001  00                 string size (0)
                         source name: (none)
0002  00                 line defined (0)
0003  00                 last line defined (0)
0004  00                 nups (0)
0005  00                 numparams (0)
0006  02                 is_vararg (2)
0007  0F                 maxstacksize (15)
                         * code:
0008  78                 sizecode (120)
0009  1D000000           [001] getglobal  0   0        ; -332969190
000D  59400000           [002] loadk      1   1        ; "GAME_C1_HEAD1"
0011  22800001           [003] call       0   2   2  
0015  5D000000           [004] getglobal  1   0        ; -332969190
0019  99800000           [005] loadk      2   2        ; "uvOffsets"
001D  62800001           [006] call       1   2   2  
0021  9D000000           [007] getglobal  2   0        ; -332969190
0025  D9C00000           [008] loadk      3   3        ; "GAME_C1_BRAID0"
0029  A2800001           [009] call       2   2   2  
002D  DD000000           [010] getglobal  3   0        ; -332969190
0031  19010100           [011] loadk      4   4        ; "GAME_R1_WEAPON1"
0035  E2800001           [012] call       3   2   2  
0039  1D010000           [013] getglobal  4   0        ; -332969190
003D  59410100           [014] loadk      5   5        ; "FadeParams"
0041  22810001           [015] call       4   2   2  
0045  5D010000           [016] getglobal  5   0        ; -332969190
0049  99810100           [017] loadk      6   6        ; "FadeVector"
004D  62810001           [018] call       5   2   2  
0051  9D010000           [019] getglobal  6   0        ; -332969190
0055  D9C10100           [020] loadk      7   7        ; "FadeVectorAmount"
0059  A2810001           [021] call       6   2   2  
005D  CB018002           [022] newtable   7   5   0    ; array=5, hash=0
0061  1D020000           [023] getglobal  8   0        ; -332969190
0065  59020200           [024] loadk      9   8        ; "GAME_C1_SPINE2"
0069  22820001           [025] call       8   2   2  
006D  5D020000           [026] getglobal  9   0        ; -332969190
0071  99420200           [027] loadk      10  9        ; "GAME_L1_LEG1"
0075  62820001           [028] call       9   2   2  
0079  9D020000           [029] getglobal  10  0        ; -332969190
007D  D9820200           [030] loadk      11  10       ; "GAME_C1_HIP1"
0081  A2820001           [031] call       10  2   2  
0085  DD020000           [032] getglobal  11  0        ; -332969190
0089  19C30200           [033] loadk      12  11       ; "GAME_C1_SPINE1"
008D  E2820001           [034] call       11  2   2  
0091  1D030000           [035] getglobal  12  0        ; -332969190
0095  59030300           [036] loadk      13  12       ; "GAME_R1_ARM2"
0099  22830001           [037] call       12  2   2  
009D  5D030000           [038] getglobal  13  0        ; -332969190
00A1  99430300           [039] loadk      14  13       ; "GAME_L1_ARM2"
00A5  62030001           [040] call       13  2   0  
00A9  DB410000           [041] setlist    7   0   1    ; index 1 to top
00AD  1D820300           [042] getglobal  8   14       ; 738251817
00B1  59C20300           [043] loadk      9   15       ; "/Lotus/Types/Enemies/Grineer/Vip/Teshin/TeshinDiscDeco"
00B5  22820001           [044] call       8   2   2  
00B9  5D020400           [045] getglobal  9   16       ; 572299008
00BD  99420400           [046] loadk      10  17       ; 0
00C1  D9820400           [047] loadk      11  18       ; -51
00C5  19430400           [048] loadk      12  17       ; 0
00C9  62820002           [049] call       9   4   2  
00CD  A5020000           [050] closure    10  0      
00D1  12000000           [051] move       0   0      
00D5  12008000           [052] move       0   1      
00D9  A0C20400           [053] setglobal  10  19       ; ScreenUpdate
00DD  A0020500           [054] setglobal  10  20       ; 571527497
00E1  A5420000           [055] closure    10  1      
00E5  A0420500           [056] setglobal  10  21       ; BurrowedDecoEffect
00E9  A0820500           [057] setglobal  10  22       ; 324973388
00ED  A5820000           [058] closure    10  2      
00F1  12000001           [059] move       0   2      
00F5  A0C20500           [060] setglobal  10  23       ; DestroyBraid
00F9  A0020600           [061] setglobal  10  24       ; -1579313116
00FD  A5C20000           [062] closure    10  3      
0101  12008001           [063] move       0   3      
0105  12008004           [064] move       0   9      
0109  A0420600           [065] setglobal  10  25       ; CinematicBeamFallOffCliff
010D  A0820600           [066] setglobal  10  26       ; -1919316761
0111  A5020100           [067] closure    10  4      
0115  12008001           [068] move       0   3      
0119  12008004           [069] move       0   9      
011D  A0C20600           [070] setglobal  10  27       ; CinematicBeamCastMirrorEnd
0121  A0020700           [071] setglobal  10  28       ; -831177822
0125  A5420100           [072] closure    10  5      
0129  12008001           [073] move       0   3      
012D  12008004           [074] move       0   9      
0131  A0420700           [075] setglobal  10  29       ; CinematicBeamCastChoiceB
0135  A0820700           [076] setglobal  10  30       ; -1595509342
0139  A5820100           [077] closure    10  6      
013D  A0C20700           [078] setglobal  10  31       ; TransferThroughQueen
0141  A0020800           [079] setglobal  10  32       ; -1668016520
0145  A5C20100           [080] closure    10  7      
0149  12008001           [081] move       0   3      
014D  12008003           [082] move       0   7      
0151  A0420800           [083] setglobal  10  33       ; CinematicBeamQueen
0155  A0820800           [084] setglobal  10  34       ; 999885282
0159  A5020200           [085] closure    10  8      
015D  A0C20800           [086] setglobal  10  35       ; QueenDeformer
0161  A0020900           [087] setglobal  10  36       ; 441827349
0165  A5420200           [088] closure    10  9      
0169  A0420900           [089] setglobal  10  37       ; BeamDisabledCast
016D  A0820900           [090] setglobal  10  38       ; 499749895
0171  A5820200           [091] closure    10  10     
0175  A0C20900           [092] setglobal  10  39       ; TransferenceFromTenno
0179  A0020A00           [093] setglobal  10  40       ; 690789209
017D  A5C20200           [094] closure    10  11     
0181  A0420A00           [095] setglobal  10  41       ; WeatherWind
0185  A0820A00           [096] setglobal  10  42       ; -360935436
0189  A5020300           [097] closure    10  12     
018D  12000004           [098] move       0   8      
0191  A0C20A00           [099] setglobal  10  43       ; TennoHitByGlaive
0195  A0020B00           [100] setglobal  10  44       ; -1460512521
0199  A5420300           [101] closure    10  13     
019D  12000002           [102] move       0   4      
01A1  A0420B00           [103] setglobal  10  45       ; GlaiveProjEffects
01A5  A0820B00           [104] setglobal  10  46       ; 266991884
01A9  A5820300           [105] closure    10  14     
01AD  12000004           [106] move       0   8      
01B1  A0C20B00           [107] setglobal  10  47       ; AttachProjToGlaive
01B5  A0020C00           [108] setglobal  10  48       ; -703028026
01B9  A5C20300           [109] closure    10  15     
01BD  12008002           [110] move       0   5      
01C1  12000003           [111] move       0   6      
01C5  A0420C00           [112] setglobal  10  49       ; WeatherFadeVector
01C9  A0820C00           [113] setglobal  10  50       ; 941743525
01CD  A5020400           [114] closure    10  16     
01D1  A0C20C00           [115] setglobal  10  51       ; MountainCinematicSnow
01D5  A0020D00           [116] setglobal  10  52       ; -781866260
01D9  A5420400           [117] closure    10  17     
01DD  A0420D00           [118] setglobal  10  53       ; SnowVisibilityHack
01E1  A0820D00           [119] setglobal  10  54       ; -1079921894
01E5  1E008000           [120] return     0   1      
                         * constants:
01E9  37                 sizek (55)
01EA  01                 const type 3
01EB  1A4B27EC           const [0]: (-332969190)
01EF  04                 const type 4
01F0  0E                 string size (14)
01F1  47414D455F43315F+  "GAME_C1_"
01F9  484541443100       "HEAD1\0"
                         const [1]: "GAME_C1_HEAD1"
01FF  04                 const type 4
0200  0A                 string size (10)
0201  75764F6666736574+  "uvOffset"
0209  7300               "s\0"
                         const [2]: "uvOffsets"
020B  04                 const type 4
020C  0F                 string size (15)
020D  47414D455F43315F+  "GAME_C1_"
0215  42524149443000     "BRAID0\0"
                         const [3]: "GAME_C1_BRAID0"
021C  04                 const type 4
021D  10                 string size (16)
021E  47414D455F52315F+  "GAME_R1_"
0226  574541504F4E3100   "WEAPON1\0"
                         const [4]: "GAME_R1_WEAPON1"
022E  04                 const type 4
022F  0B                 string size (11)
0230  4661646550617261+  "FadePara"
0238  6D7300             "ms\0"
                         const [5]: "FadeParams"
023B  04                 const type 4
023C  0B                 string size (11)
023D  4661646556656374+  "FadeVect"
0245  6F7200             "or\0"
                         const [6]: "FadeVector"
0248  04                 const type 4
0249  11                 string size (17)
024A  4661646556656374+  "FadeVect"
0252  6F72416D6F756E74+  "orAmount"
025A  00                 "\0"
                         const [7]: "FadeVectorAmount"
025B  04                 const type 4
025C  0F                 string size (15)
025D  47414D455F43315F+  "GAME_C1_"
0265  5350494E453200     "SPINE2\0"
                         const [8]: "GAME_C1_SPINE2"
026C  04                 const type 4
026D  0D                 string size (13)
026E  47414D455F4C315F+  "GAME_L1_"
0276  4C45473100         "LEG1\0"
                         const [9]: "GAME_L1_LEG1"
027B  04                 const type 4
027C  0D                 string size (13)
027D  47414D455F43315F+  "GAME_C1_"
0285  4849503100         "HIP1\0"
                         const [10]: "GAME_C1_HIP1"
028A  04                 const type 4
028B  0F                 string size (15)
028C  47414D455F43315F+  "GAME_C1_"
0294  5350494E453100     "SPINE1\0"
                         const [11]: "GAME_C1_SPINE1"
029B  04                 const type 4
029C  0D                 string size (13)
029D  47414D455F52315F+  "GAME_R1_"
02A5  41524D3200         "ARM2\0"
                         const [12]: "GAME_R1_ARM2"
02AA  04                 const type 4
02AB  0D                 string size (13)
02AC  47414D455F4C315F+  "GAME_L1_"
02B4  41524D3200         "ARM2\0"
                         const [13]: "GAME_L1_ARM2"
02B9  01                 const type 3
02BA  29D4002C           const [14]: (738251817)
02BE  04                 const type 4
02BF  37                 string size (55)
02C0  2F4C6F7475732F54+  "/Lotus/T"
02C8  797065732F456E65+  "ypes/Ene"
02D0  6D6965732F477269+  "mies/Gri"
02D8  6E6565722F566970+  "neer/Vip"
02E0  2F54657368696E2F+  "/Teshin/"
02E8  54657368696E4469+  "TeshinDi"
02F0  73634465636F00     "scDeco\0"
                         const [15]: "/Lotus/Types/Enemies/Grineer/Vip/Teshin/TeshinDiscDeco"
02F7  01                 const type 3
02F8  00971C22           const [16]: (572299008)
02FC  03                 const type 3
02FD  00000000           const [17]: (0)
0301  03                 const type 3
0302  CDCC4CBD           const [18]: (-51)
0306  04                 const type 4
0307  0D                 string size (13)
0308  53637265656E5570+  "ScreenUp"
0310  6461746500         "date\0"
                         const [19]: "ScreenUpdate"
0315  01                 const type 3
0316  49D11022           const [20]: (571527497)
031A  04                 const type 4
031B  13                 string size (19)
031C  427572726F776564+  "Burrowed"
0324  4465636F45666665+  "DecoEffe"
032C  637400             "ct\0"
                         const [21]: "BurrowedDecoEffect"
032F  01                 const type 3
0330  4CB35E13           const [22]: (324973388)
0334  04                 const type 4
0335  0D                 string size (13)
0336  44657374726F7942+  "DestroyB"
033E  7261696400         "raid\0"
                         const [23]: "DestroyBraid"
0343  01                 const type 3
0344  2498DDA1           const [24]: (-1579313116)
0348  04                 const type 4
0349  1A                 string size (26)
034A  43696E656D617469+  "Cinemati"
0352  634265616D46616C+  "cBeamFal"
035A  6C4F6666436C6966+  "lOffClif"
0362  6600               "f\0"
                         const [25]: "CinematicBeamFallOffCliff"
0364  01                 const type 3
0365  E78C998D           const [26]: (-1919316761)
0369  04                 const type 4
036A  1B                 string size (27)
036B  43696E656D617469+  "Cinemati"
0373  634265616D436173+  "cBeamCas"
037B  744D6972726F7245+  "tMirrorE"
0383  6E6400             "nd\0"
                         const [27]: "CinematicBeamCastMirrorEnd"
0386  01                 const type 3
0387  A23B75CE           const [28]: (-831177822)
038B  04                 const type 4
038C  19                 string size (25)
038D  43696E656D617469+  "Cinemati"
0395  634265616D436173+  "cBeamCas"
039D  7443686F69636542+  "tChoiceB"
03A5  00                 "\0"
                         const [29]: "CinematicBeamCastChoiceB"
03A6  01                 const type 3
03A7  A275E6A0           const [30]: (-1595509342)
03AB  04                 const type 4
03AC  15                 string size (21)
03AD  5472616E73666572+  "Transfer"
03B5  5468726F75676851+  "ThroughQ"
03BD  7565656E00         "ueen\0"
                         const [31]: "TransferThroughQueen"
03C2  01                 const type 3
03C3  7816949C           const [32]: (-1668016520)
03C7  04                 const type 4
03C8  13                 string size (19)
03C9  43696E656D617469+  "Cinemati"
03D1  634265616D517565+  "cBeamQue"
03D9  656E00             "en\0"
                         const [33]: "CinematicBeamQueen"
03DC  01                 const type 3
03DD  E209993B           const [34]: (999885282)
03E1  04                 const type 4
03E2  0E                 string size (14)
03E3  517565656E446566+  "QueenDef"
03EB  6F726D657200       "ormer\0"
                         const [35]: "QueenDeformer"
03F1  01                 const type 3
03F2  15C0551A           const [36]: (441827349)
03F6  04                 const type 4
03F7  11                 string size (17)
03F8  4265616D44697361+  "BeamDisa"
0400  626C656443617374+  "bledCast"
0408  00                 "\0"
                         const [37]: "BeamDisabledCast"
0409  01                 const type 3
040A  0794C91D           const [38]: (499749895)
040E  04                 const type 4
040F  16                 string size (22)
0410  5472616E73666572+  "Transfer"
0418  656E636546726F6D+  "enceFrom"
0420  54656E6E6F00       "Tenno\0"
                         const [39]: "TransferenceFromTenno"
0426  01                 const type 3
0427  599B2C29           const [40]: (690789209)
042B  04                 const type 4
042C  0C                 string size (12)
042D  5765617468657257+  "WeatherW"
0435  696E6400           "ind\0"
                         const [41]: "WeatherWind"
0439  01                 const type 3
043A  F48F7CEA           const [42]: (-360935436)
043E  04                 const type 4
043F  11                 string size (17)
0440  54656E6E6F486974+  "TennoHit"
0448  4279476C61697665+  "ByGlaive"
0450  00                 "\0"
                         const [43]: "TennoHitByGlaive"
0451  01                 const type 3
0452  F758F2A8           const [44]: (-1460512521)
0456  04                 const type 4
0457  12                 string size (18)
0458  476C616976655072+  "GlaivePr"
0460  6F6A456666656374+  "ojEffect"
0468  7300               "s\0"
                         const [45]: "GlaiveProjEffects"
046A  01                 const type 3
046B  0CF9E90F           const [46]: (266991884)
046F  04                 const type 4
0470  13                 string size (19)
0471  4174746163685072+  "AttachPr"
0479  6F6A546F476C6169+  "ojToGlai"
0481  766500             "ve\0"
                         const [47]: "AttachProjToGlaive"
0484  01                 const type 3
0485  C6A418D6           const [48]: (-703028026)
0489  04                 const type 4
048A  12                 string size (18)
048B  5765617468657246+  "WeatherF"
0493  616465566563746F+  "adeVecto"
049B  7200               "r\0"
                         const [49]: "WeatherFadeVector"
049D  01                 const type 3
049E  A5DD2138           const [50]: (941743525)
04A2  04                 const type 4
04A3  16                 string size (22)
04A4  4D6F756E7461696E+  "Mountain"
04AC  43696E656D617469+  "Cinemati"
04B4  63536E6F7700       "cSnow\0"
                         const [51]: "MountainCinematicSnow"
04BA  01                 const type 3
04BB  ECAA65D1           const [52]: (-781866260)
04BF  04                 const type 4
04C0  13                 string size (19)
04C1  536E6F7756697369+  "SnowVisi"
04C9  62696C6974794861+  "bilityHa"
04D1  636B00             "ck\0"
                         const [53]: "SnowVisibilityHack"
04D4  01                 const type 3
04D5  1AB3A1BF           const [54]: (-1079921894)
                         * functions:
04D9  12                 sizep (18)
                         
04DA                     ** function [0] definition (level 2)
                         ** start of function **
04DA  00                 string size (0)
                         source name: (none)
04DB  29                 line defined (41)
04DC  41                 last line defined (65)
04DD  02                 nups (2)
04DE  01                 numparams (1)
04DF  00                 is_vararg (0)
04E0  0F                 maxstacksize (15)
                         * code:
04E1  61                 sizecode (97)
04E2  5D000000           [01] getglobal  1   0        ; 538022378
04E6  99400000           [02] loadk      2   1        ; 0
04EA  62400001           [03] call       1   2   1  
04EE  64804000           [04] self       1   0   258  ; -1870903749
04F2  62800001           [05] call       1   2   2  
04F6  9DC00000           [06] getglobal  2   3        ; 572299008
04FA  A2808000           [07] call       2   1   2  
04FE  DDC00000           [08] getglobal  3   3        ; 572299008
0502  E2808000           [09] call       3   1   2  
0506  1DC10000           [10] getglobal  4   3        ; 572299008
050A  22818000           [11] call       4   1   2  
050E  59010100           [12] loadk      5   4        ; 0
0512  9D410100           [13] getglobal  6   5        ; 1074689893
0516  D2010000           [14] move       7   0      
051A  A2810001           [15] call       6   2   2  
051E  98410000           [16] test       6       1    ; to [18] if false
0522  1A801380           [17] jmp        79           ; to [97]
0526  9D410100           [18] getglobal  6   5        ; 1074689893
052A  D2018000           [19] move       7   1      
052E  A2810001           [20] call       6   2   2  
0532  98410000           [21] test       6       1    ; to [23] if false
0536  1A401280           [22] jmp        74           ; to [97]
053A  A481C100           [23] self       6   1   262  ; -1565518332
053E  13020000           [24] getupval   8   0      
0542  57020000           [25] loadbool   9   0   0    ; false
0546  A2810002           [26] call       6   4   2  
054A  92000003           [27] move       2   6      
054E  A4C14100           [28] self       6   0   263  ; 1839670529
0552  A2810001           [29] call       6   2   2  
0556  D2000003           [30] move       3   6      
055A  0D818001           [31] sub        4   3   2  
055E  9D010200           [32] getglobal  6   8        ; 1166235580
0562  D2010002           [33] move       7   4      
0566  A2410001           [34] call       6   2   1  
056A  A4414200           [35] self       6   0   265  ; -786111647
056E  13028000           [36] getupval   8   1      
0572  4E824202           [37] gettable   9   4   266  ; "x"
0576  9DC20200           [38] getglobal  10  11       ; scale
057A  44828204           [39] mul        9   9   10 
057E  8E024302           [40] gettable   10  4   268  ; "y"
fail op	0
0582  80020005           [41] move       10  10     
0586  DDC20200           [42] getglobal  11  11       ; scale
058A  84C20205           [43] mul        10  10  11 
058E  DD420300           [44] getglobal  11  13       ; yBase
0592  83C20205           [45] add        10  10  11 
0596  CE824202           [46] gettable   11  4   266  ; "x"
059A  1DC30200           [47] getglobal  12  11       ; scale
059E  C4028305           [48] mul        11  11  12 
05A2  0E034302           [49] gettable   12  4   268  ; "y"
fail op	0
05A6  00030006           [50] move       12  12     
05AA  5DC30200           [51] getglobal  13  11       ; scale
05AE  04430306           [52] mul        12  12  13 
05B2  5D430300           [53] getglobal  13  13       ; yBase
05B6  03430306           [54] add        12  12  13 
05BA  A2418003           [55] call       6   7   1  
fail op	21
05BE  1540C002           [56] concat     0   5   257
05C2  1A400880           [57] jmp        34           ; to [92]
05C6  9D810300           [58] getglobal  6   14       ; gRegion
05CA  A4C14303           [59] self       6   6   271  ; -1110225722
05CE  1D020400           [60] getglobal  8   16       ; lagDeco
05D2  52028001           [61] move       9   3      
05D6  A4424400           [62] self       10  0   273  ; 54877834
05DA  A2020001           [63] call       10  2   0  
05DE  A2810000           [64] call       6   0   2  
05E2  DD410100           [65] getglobal  7   5        ; 1074689893
05E6  12020003           [66] move       8   6      
05EA  E2810001           [67] call       7   2   2  
05EE  D8410000           [68] test       7       1    ; to [70] if false
05F2  1A000580           [69] jmp        21           ; to [91]
05F6  E4414203           [70] self       7   6   265  ; -786111647
05FA  53028000           [71] getupval   9   1      
05FE  8E824202           [72] gettable   10  4   266  ; "x"
0602  DDC20200           [73] getglobal  11  11       ; scale
0606  84C20205           [74] mul        10  10  11 
060A  CE024302           [75] gettable   11  4   268  ; "y"
fail op	0
060E  C0028005           [76] move       11  11     
0612  1DC30200           [77] getglobal  12  11       ; scale
0616  C4028305           [78] mul        11  11  12 
061A  1D430300           [79] getglobal  12  13       ; yBase
061E  C3028305           [80] add        11  11  12 
0622  0E834202           [81] gettable   12  4   266  ; "x"
0626  5DC30200           [82] getglobal  13  11       ; scale
062A  04430306           [83] mul        12  12  13 
062E  4E034302           [84] gettable   13  4   268  ; "y"
fail op	0
0632  40038006           [85] move       13  13     
0636  9DC30200           [86] getglobal  14  11       ; scale
063A  44838306           [87] mul        13  13  14 
063E  9D430300           [88] getglobal  14  13       ; yBase
0642  43838306           [89] add        13  13  14 
0646  E2418003           [90] call       7   7   1  
064A  59810400           [91] loadk      5   18       ; 0
064E  4DC1C402           [92] sub        5   5   275  ; 0
0652  DD010000           [93] getglobal  7   0        ; 538022378
0656  19420000           [94] loadk      8   1        ; 0
065A  E2410001           [95] call       7   2   1  
065E  1AC0EA7F           [96] jmp        -84          ; to [13]
0662  1E008000           [97] return     0   1      
                         * constants:
0666  14                 sizek (20)
0667  01                 const type 3
0668  EA911120           const [0]: (538022378)
066C  03                 const type 3
066D  00000000           const [1]: (0)
0671  01                 const type 3
0672  3B467C90           const [2]: (-1870903749)
0676  01                 const type 3
0677  00971C22           const [3]: (572299008)
067B  03                 const type 3
067C  000080BF           const [4]: (0)
0680  01                 const type 3
0681  65770E40           const [5]: (1074689893)
0685  01                 const type 3
0686  0416B0A2           const [6]: (-1565518332)
068A  01                 const type 3
068B  0125A76D           const [7]: (1839670529)
068F  01                 const type 3
0690  BC578345           const [8]: (1166235580)
0694  01                 const type 3
0695  61E324D1           const [9]: (-786111647)
0699  04                 const type 4
069A  02                 string size (2)
069B  7800               "x\0"
                         const [10]: "x"
069D  04                 const type 4
069E  06                 string size (6)
069F  7363616C6500       "scale\0"
                         const [11]: "scale"
06A5  04                 const type 4
06A6  02                 string size (2)
06A7  7900               "y\0"
                         const [12]: "y"
06A9  04                 const type 4
06AA  06                 string size (6)
06AB  794261736500       "yBase\0"
                         const [13]: "yBase"
06B1  04                 const type 4
06B2  08                 string size (8)
06B3  67526567696F6E00   "gRegion\0"
                         const [14]: "gRegion"
06BB  01                 const type 3
06BC  C64CD3BD           const [15]: (-1110225722)
06C0  04                 const type 4
06C1  08                 string size (8)
06C2  6C61674465636F00   "lagDeco\0"
                         const [16]: "lagDeco"
06CA  01                 const type 3
06CB  8A5E4503           const [17]: (54877834)
06CF  03                 const type 3
06D0  0000A040           const [18]: (0)
06D4  03                 const type 3
06D5  0000803F           const [19]: (0)
                         * functions:
06D9  00                 sizep (0)
                         * lines:
06DA  61                 sizelineinfo (97)
                         [pc] (line)
06DB  2A                 [01] (42)
06DC  00                 [02] (42)
06DD  00                 [03] (42)
06DE  00                 [04] (43)
06DF  2A                 [05] (43)
06E0  00                 [06] (45)
06E1  00                 [07] (45)
06E2  00                 [08] (46)
06E3  2A                 [09] (46)
06E4  00                 [10] (47)
06E5  00                 [11] (47)
06E6  00                 [12] (48)
06E7  2B                 [13] (49)
06E8  00                 [14] (49)
06E9  00                 [15] (49)
06EA  00                 [16] (49)
06EB  2B                 [17] (49)
06EC  00                 [18] (49)
06ED  00                 [19] (49)
06EE  00                 [20] (49)
06EF  2D                 [21] (49)
06F0  00                 [22] (49)
06F1  00                 [23] (50)
06F2  00                 [24] (50)
06F3  2D                 [25] (50)
06F4  00                 [26] (50)
06F5  00                 [27] (50)
06F6  00                 [28] (51)
06F7  2E                 [29] (51)
06F8  00                 [30] (51)
06F9  00                 [31] (52)
06FA  00                 [32] (53)
06FB  2E                 [33] (53)
06FC  00                 [34] (53)
06FD  00                 [35] (54)
06FE  00                 [36] (54)
06FF  2F                 [37] (54)
0700  00                 [38] (54)
0701  00                 [39] (54)
0702  00                 [40] (54)
0703  2F                 [41] (54)
0704  00                 [42] (54)
0705  00                 [43] (54)
0706  00                 [44] (54)
0707  30                 [45] (54)
0708  00                 [46] (54)
0709  00                 [47] (54)
070A  00                 [48] (54)
070B  31                 [49] (54)
070C  00                 [50] (54)
070D  00                 [51] (54)
070E  00                 [52] (54)
070F  31                 [53] (54)
0710  00                 [54] (54)
0711  00                 [55] (54)
0712  00                 [56] (55)
0713  31                 [57] (55)
0714  00                 [58] (56)
0715  00                 [59] (56)
0716  00                 [60] (56)
0717  31                 [61] (56)
0718  00                 [62] (56)
0719  00                 [63] (56)
071A  00                 [64] (56)
071B  31                 [65] (57)
071C  00                 [66] (57)
071D  00                 [67] (57)
071E  00                 [68] (57)
071F  31                 [69] (57)
0720  00                 [70] (58)
0721  00                 [71] (58)
0722  00                 [72] (58)
0723  31                 [73] (58)
0724  00                 [74] (58)
0725  00                 [75] (58)
0726  00                 [76] (58)
0727  31                 [77] (58)
0728  00                 [78] (58)
0729  00                 [79] (58)
072A  00                 [80] (58)
072B  31                 [81] (58)
072C  00                 [82] (58)
072D  00                 [83] (58)
072E  00                 [84] (58)
072F  31                 [85] (58)
0730  00                 [86] (58)
0731  00                 [87] (58)
0732  00                 [88] (58)
0733  32                 [89] (58)
0734  00                 [90] (58)
0735  00                 [91] (60)
0736  00                 [92] (62)
0737  32                 [93] (63)
0738  00                 [94] (63)
0739  00                 [95] (63)
073A  00                 [96] (63)
073B  32                 [97] (65)
                         * locals:
085F  00                 sizelocvars (0)
                         * upvalues:
0860  00                 sizeupvalues (0)
                         ** end of function **

                         
0861                     ** function [1] definition (level 2)
                         ** start of function **
0861  00                 string size (0)
                         source name: (none)
0862  43                 line defined (67)
0863  5A                 last line defined (90)
0864  00                 nups (0)
0865  01                 numparams (1)
0866  00                 is_vararg (0)
0867  0B                 maxstacksize (11)
                         * code:
0868  53                 sizecode (83)
0869  64004000           [01] self       1   0   256  ; 196800914
086D  62800001           [02] call       1   2   2  
0871  A4404000           [03] self       2   0   257  ; 1352138124
0875  1D810000           [04] getglobal  4   2        ; 508519041
0879  5DC10000           [05] getglobal  5   3        ; -1941280958
087D  99010100           [06] loadk      6   4        ; 0
0881  D9410100           [07] loadk      7   5        ; 0
0885  62818001           [08] call       5   3   2  
0889  99810100           [09] loadk      6   6        ; 0
088D  D9810100           [10] loadk      7   6        ; 0
0891  22010002           [11] call       4   4   0  
0895  A2400000           [12] call       2   0   1  
0899  99800100           [13] loadk      2   6        ; 0
089D  DDC00000           [14] getglobal  3   3        ; -1941280958
08A1  19C10100           [15] loadk      4   7        ; -102
08A5  59010200           [16] loadk      5   8        ; 0
08A9  E2808001           [17] call       3   3   2  
08AD  1DC10000           [18] getglobal  4   3        ; -1941280958
08B1  59410200           [19] loadk      5   9        ; 0
08B5  99810200           [20] loadk      6   10       ; 0
08B9  22818001           [21] call       4   3   2  
fail op	21
08BD  15404201           [22] concat     0   2   265
08C1  1A800480           [23] jmp        19           ; to [43]
08C5  64C14200           [24] self       5   0   267  ; -333955620
08C9  DD010300           [25] getglobal  7   12       ; 572299008
08CD  19820100           [26] loadk      8   6        ; 0
08D1  5D420300           [27] getglobal  9   13       ; -1642362560
08D5  92020001           [28] move       10  2      
08D9  62820001           [29] call       9   2   2  
08DD  44C28004           [30] mul        9   9   3  
08E1  99820100           [31] loadk      10  6        ; 0
08E5  E2810002           [32] call       7   4   2  
08E9  C3C18100           [33] add        7   1   7  
08ED  62418001           [34] call       5   3   1  
08F1  5D810300           [35] getglobal  5   14       ; 538022378
08F5  99810100           [36] loadk      6   6        ; 0
08F9  62410001           [37] call       5   2   1  
08FD  5DC10300           [38] getglobal  5   15       ; 1289681407
0901  62818000           [39] call       5   1   2  
0905  44018102           [40] mul        5   5   4  
0909  83400101           [41] add        2   2   5  
090D  1A80FA7F           [42] jmp        -21          ; to [22]
0911  5D810300           [43] getglobal  5   14       ; 538022378
0915  99410200           [44] loadk      6   9        ; 0
0919  62410001           [45] call       5   2   1  
091D  5D010400           [46] getglobal  5   16       ; 1074689893
0921  92010000           [47] move       6   0      
0925  62810001           [48] call       5   2   2  
0929  58410000           [49] test       5       1    ; to [51] if false
092D  1A400080           [50] jmp        2            ; to [53]
0931  64414400           [51] self       5   0   273  ; 1521658607
0935  62410001           [52] call       5   2   1  
0939  99800100           [53] loadk      2   6        ; 0
093D  64014000           [54] self       5   0   256  ; 196800914
0941  62810001           [55] call       5   2   2  
0945  52008002           [56] move       1   5      
fail op	21
0949  15404201           [57] concat     0   2   265
094D  1AC00580           [58] jmp        24           ; to [83]
0951  5D010400           [59] getglobal  5   16       ; 1074689893
0955  92010000           [60] move       6   0      
0959  62810001           [61] call       5   2   2  
095D  58410000           [62] test       5       1    ; to [64] if false
0961  1A800480           [63] jmp        19           ; to [83]
0965  64C14200           [64] self       5   0   267  ; -333955620
0969  DD010300           [65] getglobal  7   12       ; 572299008
096D  19820100           [66] loadk      8   6        ; 0
0971  5D420300           [67] getglobal  9   13       ; -1642362560
0975  92020001           [68] move       10  2      
0979  62820001           [69] call       9   2   2  
097D  44C28004           [70] mul        9   9   3  
0981  99820100           [71] loadk      10  6        ; 0
0985  E2810002           [72] call       7   4   2  
0989  CDC18100           [73] sub        7   1   7  
098D  62418001           [74] call       5   3   1  
0991  5D810300           [75] getglobal  5   14       ; 538022378
0995  99810100           [76] loadk      6   6        ; 0
0999  62410001           [77] call       5   2   1  
099D  5DC10300           [78] getglobal  5   15       ; 1289681407
09A1  62818000           [79] call       5   1   2  
09A5  4401C202           [80] mul        5   5   264  ; 0
09A9  83400101           [81] add        2   2   5  
09AD  1A40F97F           [82] jmp        -26          ; to [57]
09B1  1E008000           [83] return     0   1      
                         * constants:
09B5  12                 sizek (18)
09B6  01                 const type 3
09B7  92F1BA0B           const [0]: (196800914)
09BB  01                 const type 3
09BC  8CFD9750           const [1]: (1352138124)
09C0  01                 const type 3
09C1  81624F1E           const [2]: (508519041)
09C5  01                 const type 3
09C6  42674A8C           const [3]: (-1941280958)
09CA  03                 const type 3
09CB  000034C3           const [4]: (0)
09CF  03                 const type 3
09D0  00003443           const [5]: (0)
09D4  03                 const type 3
09D5  00000000           const [6]: (0)
09D9  03                 const type 3
09DA  9A99193E           const [7]: (-102)
09DE  03                 const type 3
09DF  0000803E           const [8]: (0)
09E3  03                 const type 3
09E4  0000803F           const [9]: (0)
09E8  03                 const type 3
09E9  00000040           const [10]: (0)
09ED  01                 const type 3
09EE  DC3D18EC           const [11]: (-333955620)
09F2  01                 const type 3
09F3  00971C22           const [12]: (572299008)
09F7  01                 const type 3
09F8  40891B9E           const [13]: (-1642362560)
09FC  01                 const type 3
09FD  EA911120           const [14]: (538022378)
0A01  01                 const type 3
0A02  FFF9DE4C           const [15]: (1289681407)
0A06  01                 const type 3
0A07  65770E40           const [16]: (1074689893)
0A0B  01                 const type 3
0A0C  EFAAB25A           const [17]: (1521658607)
                         * functions:
0A10  00                 sizep (0)
                         * lines:
0A11  53                 sizelineinfo (83)
                         [pc] (line)
0A12  44                 [01] (68)
0A13  00                 [02] (68)
0A14  00                 [03] (69)
0A15  00                 [04] (69)
0A16  44                 [05] (69)
0A17  00                 [06] (69)
0A18  00                 [07] (69)
0A19  00                 [08] (69)
0A1A  45                 [09] (69)
0A1B  00                 [10] (69)
0A1C  00                 [11] (69)
0A1D  00                 [12] (69)
0A1E  45                 [13] (71)
0A1F  00                 [14] (72)
0A20  00                 [15] (72)
0A21  00                 [16] (72)
0A22  45                 [17] (72)
0A23  00                 [18] (73)
0A24  00                 [19] (73)
0A25  00                 [20] (73)
0A26  45                 [21] (73)
0A27  00                 [22] (74)
0A28  00                 [23] (74)
0A29  00                 [24] (75)
0A2A  45                 [25] (75)
0A2B  00                 [26] (75)
0A2C  00                 [27] (75)
0A2D  00                 [28] (75)
0A2E  45                 [29] (75)
0A2F  00                 [30] (75)
0A30  00                 [31] (75)
0A31  00                 [32] (75)
0A32  45                 [33] (75)
0A33  00                 [34] (75)
0A34  00                 [35] (76)
0A35  00                 [36] (76)
0A36  45                 [37] (76)
0A37  00                 [38] (77)
0A38  00                 [39] (77)
0A39  00                 [40] (77)
0A3A  45                 [41] (77)
0A3B  00                 [42] (77)
0A3C  00                 [43] (79)
0A3D  00                 [44] (79)
0A3E  45                 [45] (79)
0A3F  00                 [46] (80)
0A40  00                 [47] (80)
0A41  00                 [48] (80)
0A42  47                 [49] (80)
0A43  00                 [50] (80)
0A44  00                 [51] (81)
0A45  00                 [52] (81)
0A46  48                 [53] (83)
0A47  00                 [54] (84)
0A48  00                 [55] (84)
0A49  00                 [56] (84)
0A4A  48                 [57] (85)
0A4B  00                 [58] (85)
0A4C  00                 [59] (85)
0A4D  00                 [60] (85)
0A4E  48                 [61] (85)
0A4F  00                 [62] (85)
0A50  00                 [63] (85)
0A51  00                 [64] (86)
0A52  48                 [65] (86)
0A53  00                 [66] (86)
0A54  00                 [67] (86)
0A55  00                 [68] (86)
0A56  49                 [69] (86)
0A57  00                 [70] (86)
0A58  00                 [71] (86)
0A59  00                 [72] (86)
0A5A  49                 [73] (86)
0A5B  00                 [74] (86)
0A5C  00                 [75] (87)
0A5D  00                 [76] (87)
0A5E  49                 [77] (87)
0A5F  00                 [78] (88)
0A60  00                 [79] (88)
0A61  00                 [80] (88)
0A62  49                 [81] (88)
0A63  00                 [82] (88)
0A64  00                 [83] (90)
                         * locals:
0B5E  00                 sizelocvars (0)
                         * upvalues:
0B5F  00                 sizeupvalues (0)
                         ** end of function **

                         
0B60                     ** function [2] definition (level 2)
                         ** start of function **
0B60  00                 string size (0)
                         source name: (none)
0B61  5C                 line defined (92)
0B62  78                 last line defined (120)
0B63  01                 nups (1)
0B64  00                 numparams (0)
0B65  00                 is_vararg (0)
0B66  0C                 maxstacksize (12)
                         * code:
0B67  47                 sizecode (71)
0B68  1D000000           [01] getglobal  0   0        ; 1074689893
0B6C  5D400000           [02] getglobal  1   1        ; throneDeco
0B70  22800001           [03] call       0   2   2  
0B74  18000000           [04] test       0       0    ; to [6] if true
0B78  1A000080           [05] jmp        1            ; to [7]
0B7C  1E008000           [06] return     0   1      
0B80  1D400000           [07] getglobal  0   1        ; throneDeco
0B84  24804000           [08] self       0   0   258  ; 366271214
0B88  9DC00000           [09] getglobal  2   3        ; gSkeletalClothExType
0B8C  22808001           [10] call       0   3   2  
0B90  46008000           [11] loadnil    1   1      
0B94  99000100           [12] loadk      2   4        ; 0
0B98  CA000000           [13] len        3   0      
0B9C  19010100           [14] loadk      4   4        ; 0
0BA0  90C00180           [15] forprep    2   8        ; to [24]
0BA4  8E410100           [16] gettable   6   0   5  
0BA8  A4414103           [17] self       6   6   261  ; -631671221
0BAC  A2810001           [18] call       6   2   2  
0BB0  DD810100           [19] getglobal  7   6        ; braidBone
fail op	35
0BB4  23C00103           [20] close      0  
0BB8  1A400080           [21] jmp        2            ; to [24]
0BBC  4E400100           [22] gettable   1   0   5  
0BC0  1A000080           [23] jmp        1            ; to [25]
0BC4  9480FD7F           [24] forloop    2   -9       ; to [16] if loop
0BC8  DD010000           [25] getglobal  7   0        ; 1074689893
0BCC  12028000           [26] move       8   1      
0BD0  E2810001           [27] call       7   2   2  
0BD4  D8410000           [28] test       7       1    ; to [30] if false
0BD8  1AC00280           [29] jmp        12           ; to [42]
0BDC  E4C1C100           [30] self       7   1   263  ; 283054083
0BE0  E2410001           [31] call       7   2   1  
0BE4  E401C200           [32] self       7   1   264  ; -1421644046
0BE8  5D420200           [33] getglobal  9   9        ; destroyEffects
0BEC  93020000           [34] getupval   10  0      
0BF0  E2410002           [35] call       7   4   1  
0BF4  E481C200           [36] self       7   1   266  ; -775150098
0BF8  5DC20200           [37] getglobal  9   11       ; 160735655
0BFC  99020300           [38] loadk      10  12       ; -51
0C00  D9420300           [39] loadk      11  13       ; 0
0C04  62028001           [40] call       9   3   0  
0C08  E2410000           [41] call       7   0   1  
0C0C  DD810300           [42] getglobal  7   14       ; 538022378
0C10  19420300           [43] loadk      8   13       ; 0
0C14  E2410001           [44] call       7   2   1  
0C18  D9C10300           [45] loadk      7   15       ; 0
fail op	21
0C1C  1500C103           [46] concat     0   7   260
0C20  1AC00380           [47] jmp        16           ; to [64]
0C24  1D020000           [48] getglobal  8   0        ; 1074689893
0C28  52028000           [49] move       9   1      
0C2C  22820001           [50] call       8   2   2  
0C30  18420000           [51] test       8       1    ; to [53] if false
0C34  1A800280           [52] jmp        11           ; to [64]
0C38  2402C400           [53] self       8   1   272  ; -703571861
0C3C  92028003           [54] move       10  7      
0C40  22428001           [55] call       8   3   1  
0C44  1D820300           [56] getglobal  8   14       ; 538022378
0C48  59C20300           [57] loadk      9   15       ; 0
0C4C  22420001           [58] call       8   2   1  
0C50  1D420400           [59] getglobal  8   17       ; 1289681407
0C54  22828000           [60] call       8   1   2  
0C58  04824404           [61] mul        8   8   274  ; -51
0C5C  C3018203           [62] add        7   7   8  
0C60  1A40FB7F           [63] jmp        -18          ; to [46]
0C64  1D020000           [64] getglobal  8   0        ; 1074689893
0C68  52028000           [65] move       9   1      
0C6C  22820001           [66] call       8   2   2  
0C70  18420000           [67] test       8       1    ; to [69] if false
0C74  1A400080           [68] jmp        2            ; to [71]
0C78  24C2C400           [69] self       8   1   275  ; -725453761
0C7C  22420001           [70] call       8   2   1  
0C80  1E008000           [71] return     0   1      
                         * constants:
0C84  14                 sizek (20)
0C85  01                 const type 3
0C86  65770E40           const [0]: (1074689893)
0C8A  04                 const type 4
0C8B  0B                 string size (11)
0C8C  7468726F6E654465+  "throneDe"
0C94  636F00             "co\0"
                         const [1]: "throneDeco"
0C97  01                 const type 3
0C98  EEDAD415           const [2]: (366271214)
0C9C  04                 const type 4
0C9D  15                 string size (21)
0C9E  67536B656C657461+  "gSkeleta"
0CA6  6C436C6F74684578+  "lClothEx"
0CAE  5479706500         "Type\0"
                         const [3]: "gSkeletalClothExType"
0CB3  03                 const type 3
0CB4  0000803F           const [4]: (0)
0CB8  01                 const type 3
0CB9  4B7659DA           const [5]: (-631671221)
0CBD  04                 const type 4
0CBE  0A                 string size (10)
0CBF  6272616964426F6E+  "braidBon"
0CC7  6500               "e\0"
                         const [6]: "braidBone"
0CC9  01                 const type 3
0CCA  0310DF10           const [7]: (283054083)
0CCE  01                 const type 3
0CCF  F26E43AB           const [8]: (-1421644046)
0CD3  04                 const type 4
0CD4  0F                 string size (15)
0CD5  64657374726F7945+  "destroyE"
0CDD  66666563747300     "ffects\0"
                         const [9]: "destroyEffects"
0CE4  01                 const type 3
0CE5  EE25CCD1           const [10]: (-775150098)
0CE9  01                 const type 3
0CEA  A7A19409           const [11]: (160735655)
0CEE  03                 const type 3
0CEF  CDCCCC3D           const [12]: (-51)
0CF3  03                 const type 3
0CF4  00008040           const [13]: (0)
0CF8  01                 const type 3
0CF9  EA911120           const [14]: (538022378)
0CFD  03                 const type 3
0CFE  00000000           const [15]: (0)
0D02  01                 const type 3
0D03  6B5810D6           const [16]: (-703571861)
0D07  01                 const type 3
0D08  FFF9DE4C           const [17]: (1289681407)
0D0C  03                 const type 3
0D0D  CDCCCC3E           const [18]: (-51)
0D11  01                 const type 3
0D12  3F74C2D4           const [19]: (-725453761)
                         * functions:
0D16  00                 sizep (0)
                         * lines:
0D17  47                 sizelineinfo (71)
                         [pc] (line)
0D18  5D                 [01] (93)
0D19  00                 [02] (93)
0D1A  00                 [03] (93)
0D1B  00                 [04] (93)
0D1C  5D                 [05] (93)
0D1D  00                 [06] (94)
0D1E  00                 [07] (96)
0D1F  00                 [08] (96)
0D20  5D                 [09] (96)
0D21  00                 [10] (96)
0D22  00                 [11] (97)
0D23  00                 [12] (98)
0D24  5D                 [13] (98)
0D25  00                 [14] (98)
0D26  00                 [15] (98)
0D27  00                 [16] (99)
0D28  5D                 [17] (99)
0D29  00                 [18] (99)
0D2A  00                 [19] (100)
0D2B  00                 [20] (100)
0D2C  5E                 [21] (100)
0D2D  00                 [22] (101)
0D2E  00                 [23] (102)
0D2F  00                 [24] (98)
0D30  60                 [25] (105)
0D31  00                 [26] (105)
0D32  00                 [27] (105)
0D33  00                 [28] (105)
0D34  60                 [29] (105)
0D35  00                 [30] (106)
0D36  00                 [31] (106)
0D37  00                 [32] (107)
0D38  60                 [33] (107)
0D39  00                 [34] (107)
0D3A  00                 [35] (107)
0D3B  00                 [36] (108)
0D3C  60                 [37] (108)
0D3D  00                 [38] (108)
0D3E  00                 [39] (108)
0D3F  00                 [40] (108)
0D40  61                 [41] (108)
0D41  00                 [42] (110)
0D42  00                 [43] (110)
0D43  00                 [44] (110)
0D44  62                 [45] (111)
0D45  00                 [46] (112)
0D46  00                 [47] (112)
0D47  00                 [48] (112)
0D48  62                 [49] (112)
0D49  00                 [50] (112)
0D4A  00                 [51] (112)
0D4B  00                 [52] (112)
0D4C  62                 [53] (113)
0D4D  00                 [54] (113)
0D4E  00                 [55] (113)
0D4F  00                 [56] (114)
0D50  62                 [57] (114)
0D51  00                 [58] (114)
0D52  00                 [59] (115)
0D53  00                 [60] (115)
0D54  63                 [61] (115)
0D55  00                 [62] (115)
0D56  00                 [63] (115)
0D57  00                 [64] (117)
0D58  63                 [65] (117)
0D59  00                 [66] (117)
0D5A  00                 [67] (117)
0D5B  00                 [68] (117)
0D5C  63                 [69] (118)
0D5D  00                 [70] (118)
0D5E  00                 [71] (120)
                         * locals:
0E34  00                 sizelocvars (0)
                         * upvalues:
0E35  00                 sizeupvalues (0)
                         ** end of function **

                         
0E36                     ** function [3] definition (level 2)
                         ** start of function **
0E36  00                 string size (0)
                         source name: (none)
0E37  7A                 line defined (122)
0E38  AB                 last line defined (171)
0E39  01                 nups (2)
0E3A  02                 numparams (1)
0E3B  01                 is_vararg (0)
0E3C  00                 maxstacksize (16)
                         * code:
0E3F  01                 sizecode (161)
0E40  5D000000           [001] getglobal  1   0        ; 538022378
0E44  99400000           [002] loadk      2   1        ; 0
0E48  62400001           [003] call       1   2   1  
0E4C  64804000           [004] self       1   0   258  ; -704974830
0E50  62800001           [005] call       1   2   2  
0E54  9DC00000           [006] getglobal  2   3        ; 1074689893
0E58  D2008000           [007] move       3   1      
0E5C  A2800001           [008] call       2   2   2  
0E60  98400000           [009] test       2       1    ; to [11] if false
0E64  1A000180           [010] jmp        5            ; to [16]
0E68  A400C100           [011] self       2   1   260  ; -1957065004
0E6C  1D410100           [012] getglobal  4   5        ; gLotusAvatarType
0E70  A2808001           [013] call       2   3   2  
0E74  98400000           [014] test       2       1    ; to [16] if false
0E78  1A000080           [015] jmp        1            ; to [17]
0E7C  1E008000           [016] return     0   1      
0E80  A480C100           [017] self       2   1   262  ; -1917464545
0E84  A2800001           [018] call       2   2   2  
0E88  A4C04101           [019] self       2   2   263  ; 1769516121
0E8C  A2800001           [020] call       2   2   2  
0E90  E400C200           [021] self       3   1   264  ; -1421644046
0E94  5D410200           [022] getglobal  5   9        ; beamType
0E98  93010000           [023] getupval   6   0      
0E9C  D3018000           [024] getupval   7   1      
0EA0  E2808002           [025] call       3   5   2  
0EA4  1D810200           [026] getglobal  4   10       ; 572299008
0EA8  59C10200           [027] loadk      5   11       ; 0
0EAC  99010300           [028] loadk      6   12       ; 51
0EB0  D9410300           [029] loadk      7   13       ; 0
0EB4  22810002           [030] call       4   4   2  
0EB8  5D810300           [031] getglobal  5   14       ; gRegion
0EBC  64C1C302           [032] self       5   5   271  ; -1110225722
0EC0  DD010400           [033] getglobal  7   16       ; lightType
0EC4  12020002           [034] move       8   4      
0EC8  5D420400           [035] getglobal  9   17       ; ZERO_ROTATION
0ECC  62818002           [036] call       5   5   2  
0ED0  9DC10000           [037] getglobal  6   3        ; 1074689893
0ED4  D2018002           [038] move       7   5      
0ED8  A2810001           [039] call       6   2   2  
0EDC  98410000           [040] test       6       1    ; to [42] if false
0EE0  1AC00180           [041] jmp        8            ; to [50]
0EE4  9DC10000           [042] getglobal  6   3        ; 1074689893
0EE8  D2010001           [043] move       7   2      
0EEC  A2810001           [044] call       6   2   2  
0EF0  98410000           [045] test       6       1    ; to [47] if false
0EF4  1A800080           [046] jmp        3            ; to [50]
0EF8  A4814401           [047] self       6   2   274  ; -2035091121
0EFC  12028002           [048] move       8   5      
0F00  A2418001           [049] call       6   3   1  
0F04  99410000           [050] loadk      6   1        ; 0
0F08  E401C200           [051] self       7   1   264  ; -1421644046
0F0C  5DC20400           [052] getglobal  9   19       ; flareType
0F10  93020000           [053] getupval   10  0      
0F14  D3028000           [054] getupval   11  1      
0F18  E2818002           [055] call       7   5   2  
0F1C  1DC20000           [056] getglobal  8   3        ; 1074689893
0F20  52028003           [057] move       9   7      
0F24  22820001           [058] call       8   2   2  
0F28  18420000           [059] test       8       1    ; to [61] if false
0F2C  1AC00180           [060] jmp        8            ; to [69]
0F30  1DC20000           [061] getglobal  8   3        ; 1074689893
0F34  52020001           [062] move       9   2      
0F38  22820001           [063] call       8   2   2  
0F3C  18420000           [064] test       8       1    ; to [66] if false
0F40  1A800080           [065] jmp        3            ; to [69]
0F44  24824401           [066] self       8   2   274  ; -2035091121
0F48  92028003           [067] move       10  7      
0F4C  22428001           [068] call       8   3   1  
0F50  2402C200           [069] self       8   1   264  ; -1421644046
0F54  9D020500           [070] getglobal  10  20       ; particleType
0F58  D3020000           [071] getupval   11  0      
0F5C  13038000           [072] getupval   12  1      
0F60  22828002           [073] call       8   5   2  
0F64  5DC20000           [074] getglobal  9   3        ; 1074689893
0F68  92020004           [075] move       10  8      
0F6C  62820001           [076] call       9   2   2  
0F70  58420000           [077] test       9       1    ; to [79] if false
0F74  1AC00180           [078] jmp        8            ; to [87]
0F78  5DC20000           [079] getglobal  9   3        ; 1074689893
0F7C  92020001           [080] move       10  2      
0F80  62820001           [081] call       9   2   2  
0F84  58420000           [082] test       9       1    ; to [84] if false
0F88  1A800080           [083] jmp        3            ; to [87]
0F8C  64824401           [084] self       9   2   274  ; -2035091121
0F90  D2020004           [085] move       11  8      
0F94  62428001           [086] call       9   3   1  
0F98  59420500           [087] loadk      9   21       ; -102
0F9C  9DC20000           [088] getglobal  10  3        ; 1074689893
0FA0  D2028001           [089] move       11  3      
0FA4  A2820001           [090] call       10  2   2  
0FA8  98420000           [091] test       10      1    ; to [93] if false
0FAC  1AC00980           [092] jmp        40           ; to [133]
fail op	21
0FB0  15804503           [093] concat     0   6   278
0FB4  1A400980           [094] jmp        38           ; to [133]
0FB8  A4C2C501           [095] self       10  3   279  ; 1311555023
0FBC  12030002           [096] move       12  4      
0FC0  A2428001           [097] call       10  3   1  
0FC4  9DC20000           [098] getglobal  10  3        ; 1074689893
0FC8  D2028002           [099] move       11  5      
0FCC  A2820001           [100] call       10  2   2  
0FD0  98420000           [101] test       10      1    ; to [103] if false
0FD4  1AC00180           [102] jmp        8            ; to [111]
0FD8  A402C602           [103] self       10  5   280  ; -333955620
0FDC  1D430600           [104] getglobal  12  25       ; -523730508
0FE0  6483C601           [105] self       13  3   282  ; 1839670529
0FE4  62830001           [106] call       13  2   2  
0FE8  92030002           [107] move       14  4      
0FEC  D9C30600           [108] loadk      15  27       ; -51
0FF0  22030002           [109] call       12  4   0  
0FF4  A2420000           [110] call       10  0   1  
fail op	33
0FF8  2140028E           [111] tforloop   0       9    ; to [113] if exit
0FFC  1A000280           [112] jmp        9            ; to [122]
1000  9D820300           [113] getglobal  10  14       ; gRegion
1004  A4C24305           [114] self       10  10  271  ; -1110225722
1008  1D430700           [115] getglobal  12  29       ; decoType
100C  6483C601           [116] self       13  3   282  ; 1839670529
1010  62830001           [117] call       13  2   2  
1014  9D430400           [118] getglobal  14  17       ; ZERO_ROTATION
1018  D2030001           [119] move       15  2      
101C  A2420003           [120] call       10  6   1  
1020  59420000           [121] loadk      9   1        ; 0
1024  9D820700           [122] getglobal  10  30       ; 1289681407
1028  A2828000           [123] call       10  1   2  
102C  84C24705           [124] mul        10  10  287  ; -51
1030  83810203           [125] add        6   6   10 
1034  9D820700           [126] getglobal  10  30       ; 1289681407
1038  A2828000           [127] call       10  1   2  
103C  43828204           [128] add        9   9   10 
1040  9D020000           [129] getglobal  10  0        ; 538022378
1044  D9420000           [130] loadk      11  1        ; 0
1048  A2420001           [131] call       10  2   1  
104C  1A80F47F           [132] jmp        -45          ; to [88]
1050  9DC20000           [133] getglobal  10  3        ; 1074689893
1054  D2028003           [134] move       11  7      
1058  A2820001           [135] call       10  2   2  
105C  98420000           [136] test       10      1    ; to [138] if false
1060  1A400080           [137] jmp        2            ; to [140]
1064  A402C803           [138] self       10  7   288  ; -725453761
1068  A2420001           [139] call       10  2   1  
106C  9DC20000           [140] getglobal  10  3        ; 1074689893
1070  D2028002           [141] move       11  5      
1074  A2820001           [142] call       10  2   2  
1078  98420000           [143] test       10      1    ; to [145] if false
107C  1A400080           [144] jmp        2            ; to [147]
1080  A402C802           [145] self       10  5   288  ; -725453761
1084  A2420001           [146] call       10  2   1  
1088  9DC20000           [147] getglobal  10  3        ; 1074689893
108C  D2020004           [148] move       11  8      
1090  A2820001           [149] call       10  2   2  
1094  98420000           [150] test       10      1    ; to [152] if false
1098  1A400080           [151] jmp        2            ; to [154]
109C  A4424804           [152] self       10  8   289  ; 766584623
10A0  A2420001           [153] call       10  2   1  
10A4  9DC20000           [154] getglobal  10  3        ; 1074689893
10A8  D2028001           [155] move       11  3      
10AC  A2820001           [156] call       10  2   2  
10B0  98420000           [157] test       10      1    ; to [159] if false
10B4  1A400080           [158] jmp        2            ; to [161]
10B8  A402C801           [159] self       10  3   288  ; -725453761
10BC  A2420001           [160] call       10  2   1  
10C0  1E008000           [161] return     0   1      
                         * constants:
10C4  22                 sizek (34)
10C5  01                 const type 3
10C6  EA911120           const [0]: (538022378)
10CA  03                 const type 3
10CB  00000000           const [1]: (0)
10CF  01                 const type 3
10D0  12F0FAD5           const [2]: (-704974830)
10D4  01                 const type 3
10D5  65770E40           const [3]: (1074689893)
10D9  01                 const type 3
10DA  D48E598B           const [4]: (-1957065004)
10DE  04                 const type 4
10DF  11                 string size (17)
10E0  674C6F7475734176+  "gLotusAv"
10E8  6174617254797065+  "atarType"
10F0  00                 "\0"
                         const [5]: "gLotusAvatarType"
10F1  01                 const type 3
10F2  1FD0B58D           const [6]: (-1917464545)
10F6  01                 const type 3
10F7  59AC7869           const [7]: (1769516121)
10FB  01                 const type 3
10FC  F26E43AB           const [8]: (-1421644046)
1100  04                 const type 4
1101  09                 string size (9)
1102  6265616D54797065+  "beamType"
110A  00                 "\0"
                         const [9]: "beamType"
110B  01                 const type 3
110C  00971C22           const [10]: (572299008)
1110  03                 const type 3
1111  00000842           const [11]: (0)
1115  03                 const type 3
1116  3333EF41           const [12]: (51)
111A  03                 const type 3
111B  0000F242           const [13]: (0)
111F  04                 const type 4
1120  08                 string size (8)
1121  67526567696F6E00   "gRegion\0"
                         const [14]: "gRegion"
1129  01                 const type 3
112A  C64CD3BD           const [15]: (-1110225722)
112E  04                 const type 4
112F  0A                 string size (10)
1130  6C69676874547970+  "lightTyp"
1138  6500               "e\0"
                         const [16]: "lightType"
113A  04                 const type 4
113B  0E                 string size (14)
113C  5A45524F5F524F54+  "ZERO_ROT"
1144  4154494F4E00       "ATION\0"
                         const [17]: "ZERO_ROTATION"
114A  01                 const type 3
114B  4FF9B286           const [18]: (-2035091121)
114F  04                 const type 4
1150  0A                 string size (10)
1151  666C617265547970+  "flareTyp"
1159  6500               "e\0"
                         const [19]: "flareType"
115B  04                 const type 4
115C  0D                 string size (13)
115D  7061727469636C65+  "particle"
1165  5479706500         "Type\0"
                         const [20]: "particleType"
116A  03                 const type 3
116B  9A99193F           const [21]: (-102)
116F  03                 const type 3
1170  0000803F           const [22]: (0)
1174  01                 const type 3
1175  CFBD2C4E           const [23]: (1311555023)
1179  01                 const type 3
117A  DC3D18EC           const [24]: (-333955620)
117E  01                 const type 3
117F  B481C8E0           const [25]: (-523730508)
1183  01                 const type 3
1184  0125A76D           const [26]: (1839670529)
1188  03                 const type 3
1189  CDCCCC3D           const [27]: (-51)
118D  03                 const type 3
118E  0000003F           const [28]: (0)
1192  04                 const type 4
1193  09                 string size (9)
1194  6465636F54797065+  "decoType"
119C  00                 "\0"
                         const [29]: "decoType"
119D  01                 const type 3
119E  FFF9DE4C           const [30]: (1289681407)
11A2  03                 const type 3
11A3  CDCC0C3F           const [31]: (-51)
11A7  01                 const type 3
11A8  3F74C2D4           const [32]: (-725453761)
11AC  01                 const type 3
11AD  2F27B12D           const [33]: (766584623)
                         * functions:
11B1  00                 sizep (0)
                         * lines:
11B3  01                 sizelineinfo (161)
                         [pc] (line)
11B4  7B                 [001] (123)
11B5  00                 [002] (123)
11B6  00                 [003] (123)
11B7  00                 [004] (124)
11B8  7B                 [005] (124)
11B9  00                 [006] (125)
11BA  00                 [007] (125)
11BB  00                 [008] (125)
11BC  7B                 [009] (125)
11BD  00                 [010] (125)
11BE  00                 [011] (125)
11BF  00                 [012] (125)
11C0  7C                 [013] (125)
11C1  00                 [014] (125)
11C2  00                 [015] (125)
11C3  00                 [016] (126)
11C4  7C                 [017] (-128)
11C5  00                 [018] (-128)
11C6  00                 [019] (-128)
11C7  00                 [020] (-128)
11C8  7D                 [021] (-127)
11C9  00                 [022] (-127)
11CA  00                 [023] (-127)
11CB  00                 [024] (-127)
11CC  7D                 [025] (-127)
11CD  00                 [026] (-126)
11CE  00                 [027] (-126)
11CF  00                 [028] (-126)
11D0  7D                 [029] (-126)
11D1  00                 [030] (-126)
11D2  00                 [031] (-125)
11D3  00                 [032] (-125)
11D4  7D                 [033] (-125)
11D5  00                 [034] (-125)
11D6  00                 [035] (-125)
11D7  00                 [036] (-125)
11D8  7D                 [037] (-124)
11D9  00                 [038] (-124)
11DA  00                 [039] (-124)
11DB  00                 [040] (-124)
11DC  7D                 [041] (-124)
11DD  00                 [042] (-124)
11DE  00                 [043] (-124)
11DF  00                 [044] (-124)
11E0  7D                 [045] (-124)
11E1  00                 [046] (-124)
11E2  00                 [047] (-123)
11E3  00                 [048] (-123)
11E4  7D                 [049] (-123)
11E5  00                 [050] (-120)
11E6  00                 [051] (-119)
11E7  00                 [052] (-119)
11E8  7D                 [053] (-119)
11E9  00                 [054] (-119)
11EA  00                 [055] (-119)
11EB  00                 [056] (-118)
11EC  7D                 [057] (-118)
11ED  00                 [058] (-118)
11EE  00                 [059] (-118)
11EF  00                 [060] (-118)
11F0  7E                 [061] (-118)
11F1  00                 [062] (-118)
11F2  00                 [063] (-118)
11F3  00                 [064] (-118)
11F4  80                 [065] (-118)
11F5  00                 [066] (-117)
11F6  00                 [067] (-117)
11F7  00                 [068] (-117)
11F8  80                 [069] (-115)
11F9  00                 [070] (-115)
11FA  00                 [071] (-115)
11FB  00                 [072] (-115)
11FC  80                 [073] (-115)
11FD  00                 [074] (-114)
11FE  00                 [075] (-114)
11FF  00                 [076] (-114)
1200  80                 [077] (-114)
1201  00                 [078] (-114)
1202  00                 [079] (-114)
1203  00                 [080] (-114)
1204  81                 [081] (-114)
1205  00                 [082] (-114)
1206  00                 [083] (-114)
1207  00                 [084] (-113)
1208  81                 [085] (-113)
1209  00                 [086] (-113)
120A  00                 [087] (-111)
120B  00                 [088] (-110)
120C  81                 [089] (-110)
120D  00                 [090] (-110)
120E  00                 [091] (-110)
120F  00                 [092] (-110)
1210  81                 [093] (-110)
1211  00                 [094] (-110)
1212  00                 [095] (-109)
1213  00                 [096] (-109)
1214  81                 [097] (-109)
1215  00                 [098] (-108)
1216  00                 [099] (-108)
1217  00                 [100] (-108)
1218  82                 [101] (-108)
1219  00                 [102] (-108)
121A  00                 [103] (-107)
121B  00                 [104] (-107)
121C  82                 [105] (-107)
121D  00                 [106] (-107)
121E  00                 [107] (-107)
121F  00                 [108] (-107)
1220  82                 [109] (-107)
1221  00                 [110] (-107)
1222  00                 [111] (-105)
1223  00                 [112] (-105)
1224  82                 [113] (-104)
1225  00                 [114] (-104)
1226  00                 [115] (-104)
1227  00                 [116] (-104)
1228  82                 [117] (-104)
1229  00                 [118] (-104)
122A  00                 [119] (-104)
122B  00                 [120] (-104)
122C  83                 [121] (-103)
122D  00                 [122] (-101)
122E  00                 [123] (-101)
122F  00                 [124] (-101)
1230  83                 [125] (-101)
1231  00                 [126] (-100)
1232  00                 [127] (-100)
1233  00                 [128] (-100)
1234  83                 [129] (-99)
1235  00                 [130] (-99)
1236  00                 [131] (-99)
1237  00                 [132] (-99)
1238  83                 [133] (-97)
1239  00                 [134] (-97)
123A  00                 [135] (-97)
123B  00                 [136] (-97)
123C  83                 [137] (-97)
123D  00                 [138] (-96)
123E  00                 [139] (-96)
123F  00                 [140] (-94)
1240  83                 [141] (-94)
1241  00                 [142] (-94)
1242  00                 [143] (-94)
1243  00                 [144] (-94)
1244  84                 [145] (-93)
1245  00                 [146] (-93)
1246  00                 [147] (-91)
1247  00                 [148] (-91)
1248  84                 [149] (-91)
1249  00                 [150] (-91)
124A  00                 [151] (-91)
124B  00                 [152] (-90)
124C  84                 [153] (-90)
124D  00                 [154] (-88)
124E  00                 [155] (-88)
124F  00                 [156] (-88)
1250  84                 [157] (-88)
1251  00                 [158] (-88)
1252  00                 [159] (-87)
1253  00                 [160] (-87)
1254  84                 [161] (-85)
                         * locals:
1438  00                 sizelocvars (0)
                         * upvalues:
1439  00                 sizeupvalues (0)
                         ** end of function **

                         
143A                     ** function [4] definition (level 2)
                         ** start of function **
143A  00                 string size (0)
                         source name: (none)
143C  01                 line defined (173)
143D  C4                 last line defined (196)
143E  01                 nups (2)
143F  02                 numparams (1)
1440  01                 is_vararg (0)
1441  00                 maxstacksize (13)
                         * code:
1443  62                 sizecode (98)
1444  64004000           [01] self       1   0   256  ; -704974830
1448  62800001           [02] call       1   2   2  
144C  9D400000           [03] getglobal  2   1        ; 1074689893
1450  D2008000           [04] move       3   1      
1454  A2800001           [05] call       2   2   2  
1458  98400000           [06] test       2       1    ; to [8] if false
145C  1A000180           [07] jmp        5            ; to [13]
1460  A480C000           [08] self       2   1   258  ; -1957065004
1464  1DC10000           [09] getglobal  4   3        ; gLotusAvatarType
1468  A2808001           [10] call       2   3   2  
146C  98400000           [11] test       2       1    ; to [13] if false
1470  1A000080           [12] jmp        1            ; to [14]
1474  1E008000           [13] return     0   1      
1478  A400C100           [14] self       2   1   260  ; -1917464545
147C  A2800001           [15] call       2   2   2  
1480  A4404101           [16] self       2   2   261  ; 1769516121
1484  A2800001           [17] call       2   2   2  
1488  E480C100           [18] self       3   1   262  ; -1421644046
148C  5DC10100           [19] getglobal  5   7        ; beamType
1490  93010000           [20] getupval   6   0      
1494  D3018000           [21] getupval   7   1      
1498  E2808002           [22] call       3   5   2  
149C  1D010200           [23] getglobal  4   8        ; 572299008
14A0  59410200           [24] loadk      5   9        ; 82
14A4  99810200           [25] loadk      6   10       ; -123
14A8  D9C10200           [26] loadk      7   11       ; -72
14AC  22810002           [27] call       4   4   2  
14B0  5D010300           [28] getglobal  5   12       ; gRegion
14B4  6441C302           [29] self       5   5   269  ; -1110225722
14B8  DD810300           [30] getglobal  7   14       ; lightType
14BC  12020002           [31] move       8   4      
14C0  5DC20300           [32] getglobal  9   15       ; ZERO_ROTATION
14C4  62818002           [33] call       5   5   2  
14C8  9D410000           [34] getglobal  6   1        ; 1074689893
14CC  D2018002           [35] move       7   5      
14D0  A2810001           [36] call       6   2   2  
14D4  98410000           [37] test       6       1    ; to [39] if false
14D8  1AC00180           [38] jmp        8            ; to [47]
14DC  9D410000           [39] getglobal  6   1        ; 1074689893
14E0  D2010001           [40] move       7   2      
14E4  A2810001           [41] call       6   2   2  
14E8  98410000           [42] test       6       1    ; to [44] if false
14EC  1A800080           [43] jmp        3            ; to [47]
14F0  A4014401           [44] self       6   2   272  ; -2035091121
14F4  12028002           [45] move       8   5      
14F8  A2418001           [46] call       6   3   1  
14FC  9D010300           [47] getglobal  6   12       ; gRegion
1500  A4414303           [48] self       6   6   269  ; -1110225722
1504  1D420400           [49] getglobal  8   17       ; endPointType
1508  5D020200           [50] getglobal  9   8        ; 572299008
150C  99820400           [51] loadk      10  18       ; 0
1510  D9820400           [52] loadk      11  18       ; 0
1514  19C30400           [53] loadk      12  19       ; 10
1518  62820002           [54] call       9   4   2  
151C  43420202           [55] add        9   4   9  
1520  9D020500           [56] getglobal  10  20       ; 508519041
1524  A2828000           [57] call       10  1   2  
1528  D2020001           [58] move       11  2      
152C  A2810003           [59] call       6   6   2  
1530  DD410000           [60] getglobal  7   1        ; 1074689893
1534  12028001           [61] move       8   3      
1538  E2810001           [62] call       7   2   2  
153C  D8410000           [63] test       7       1    ; to [65] if false
1540  1A000880           [64] jmp        33           ; to [98]
1544  E441C501           [65] self       7   3   277  ; 1311555023
1548  52020002           [66] move       9   4      
154C  E2418001           [67] call       7   3   1  
1550  DD410000           [68] getglobal  7   1        ; 1074689893
1554  12028002           [69] move       8   5      
1558  E2810001           [70] call       7   2   2  
155C  D8410000           [71] test       7       1    ; to [73] if false
1560  1AC00180           [72] jmp        8            ; to [81]
1564  E481C502           [73] self       7   5   278  ; -333955620
1568  5DC20500           [74] getglobal  9   23       ; -523730508
156C  A402C601           [75] self       10  3   280  ; 1839670529
1570  A2820001           [76] call       10  2   2  
1574  D2020002           [77] move       11  4      
1578  19430600           [78] loadk      12  25       ; 0
157C  62020002           [79] call       9   4   0  
1580  E2410000           [80] call       7   0   1  
1584  DD410000           [81] getglobal  7   1        ; 1074689893
1588  12020003           [82] move       8   6      
158C  E2810001           [83] call       7   2   2  
1590  D8410000           [84] test       7       1    ; to [86] if false
1594  1AC00180           [85] jmp        8            ; to [94]
1598  E4814503           [86] self       7   6   278  ; -333955620
159C  5DC20500           [87] getglobal  9   23       ; -523730508
15A0  A402C601           [88] self       10  3   280  ; 1839670529
15A4  A2820001           [89] call       10  2   2  
15A8  D2020002           [90] move       11  4      
15AC  19430600           [91] loadk      12  25       ; 0
15B0  62020002           [92] call       9   4   0  
15B4  E2410000           [93] call       7   0   1  
15B8  DD810600           [94] getglobal  7   26       ; 538022378
15BC  19820400           [95] loadk      8   18       ; 0
15C0  E2410001           [96] call       7   2   1  
15C4  1A40F67F           [97] jmp        -38          ; to [60]
15C8  1E008000           [98] return     0   1      
                         * constants:
15CC  1B                 sizek (27)
15CD  01                 const type 3
15CE  12F0FAD5           const [0]: (-704974830)
15D2  01                 const type 3
15D3  65770E40           const [1]: (1074689893)
15D7  01                 const type 3
15D8  D48E598B           const [2]: (-1957065004)
15DC  04                 const type 4
15DD  11                 string size (17)
15DE  674C6F7475734176+  "gLotusAv"
15E6  6174617254797065+  "atarType"
15EE  00                 "\0"
                         const [3]: "gLotusAvatarType"
15EF  01                 const type 3
15F0  1FD0B58D           const [4]: (-1917464545)
15F4  01                 const type 3
15F5  59AC7869           const [5]: (1769516121)
15F9  01                 const type 3
15FA  F26E43AB           const [6]: (-1421644046)
15FE  04                 const type 4
15FF  09                 string size (9)
1600  6265616D54797065+  "beamType"
1608  00                 "\0"
                         const [7]: "beamType"
1609  01                 const type 3
160A  00971C22           const [8]: (572299008)
160E  03                 const type 3
160F  52B8EC41           const [9]: (82)
1613  03                 const type 3
1614  85EBED41           const [10]: (-123)
1618  03                 const type 3
1619  B81E0543           const [11]: (-72)
161D  04                 const type 4
161E  08                 string size (8)
161F  67526567696F6E00   "gRegion\0"
                         const [12]: "gRegion"
1627  01                 const type 3
1628  C64CD3BD           const [13]: (-1110225722)
162C  04                 const type 4
162D  0A                 string size (10)
162E  6C69676874547970+  "lightTyp"
1636  6500               "e\0"
                         const [14]: "lightType"
1638  04                 const type 4
1639  0E                 string size (14)
163A  5A45524F5F524F54+  "ZERO_ROT"
1642  4154494F4E00       "ATION\0"
                         const [15]: "ZERO_ROTATION"
1648  01                 const type 3
1649  4FF9B286           const [16]: (-2035091121)
164D  04                 const type 4
164E  0D                 string size (13)
164F  656E64506F696E74+  "endPoint"
1657  5479706500         "Type\0"
                         const [17]: "endPointType"
165C  03                 const type 3
165D  00000000           const [18]: (0)
1661  03                 const type 3
1662  0AD7A33C           const [19]: (10)
1666  01                 const type 3
1667  81624F1E           const [20]: (508519041)
166B  01                 const type 3
166C  CFBD2C4E           const [21]: (1311555023)
1670  01                 const type 3
1671  DC3D18EC           const [22]: (-333955620)
1675  01                 const type 3
1676  B481C8E0           const [23]: (-523730508)
167A  01                 const type 3
167B  0125A76D           const [24]: (1839670529)
167F  03                 const type 3
1680  0000003F           const [25]: (0)
1684  01                 const type 3
1685  EA911120           const [26]: (538022378)
                         * functions:
1689  00                 sizep (0)
                         * lines:
168A  62                 sizelineinfo (98)
                         [pc] (line)
168B  AE                 [01] (-82)
168C  00                 [02] (-82)
168D  00                 [03] (-81)
168E  00                 [04] (-81)
168F  AE                 [05] (-81)
1690  00                 [06] (-81)
1691  00                 [07] (-81)
1692  00                 [08] (-81)
1693  AF                 [09] (-81)
1694  00                 [10] (-81)
1695  00                 [11] (-81)
1696  00                 [12] (-81)
1697  AF                 [13] (-80)
1698  00                 [14] (-78)
1699  00                 [15] (-78)
169A  00                 [16] (-78)
169B  AF                 [17] (-78)
169C  00                 [18] (-77)
169D  00                 [19] (-77)
169E  00                 [20] (-77)
169F  AF                 [21] (-77)
16A0  00                 [22] (-77)
16A1  00                 [23] (-76)
16A2  00                 [24] (-76)
16A3  AF                 [25] (-76)
16A4  00                 [26] (-76)
16A5  00                 [27] (-76)
16A6  00                 [28] (-75)
16A7  AF                 [29] (-75)
16A8  00                 [30] (-75)
16A9  00                 [31] (-75)
16AA  00                 [32] (-75)
16AB  AF                 [33] (-75)
16AC  00                 [34] (-74)
16AD  00                 [35] (-74)
16AE  00                 [36] (-74)
16AF  AF                 [37] (-74)
16B0  00                 [38] (-74)
16B1  00                 [39] (-74)
16B2  00                 [40] (-74)
16B3  AF                 [41] (-74)
16B4  00                 [42] (-74)
16B5  00                 [43] (-74)
16B6  00                 [44] (-73)
16B7  AF                 [45] (-73)
16B8  00                 [46] (-73)
16B9  00                 [47] (-71)
16BA  00                 [48] (-71)
16BB  B0                 [49] (-71)
16BC  00                 [50] (-71)
16BD  00                 [51] (-71)
16BE  00                 [52] (-71)
16BF  B2                 [53] (-71)
16C0  00                 [54] (-71)
16C1  00                 [55] (-71)
16C2  00                 [56] (-71)
16C3  B2                 [57] (-71)
16C4  00                 [58] (-71)
16C5  00                 [59] (-71)
16C6  00                 [60] (-70)
16C7  B2                 [61] (-70)
16C8  00                 [62] (-70)
16C9  00                 [63] (-70)
16CA  00                 [64] (-70)
16CB  B2                 [65] (-69)
16CC  00                 [66] (-69)
16CD  00                 [67] (-69)
16CE  00                 [68] (-68)
16CF  B3                 [69] (-68)
16D0  00                 [70] (-68)
16D1  00                 [71] (-68)
16D2  00                 [72] (-68)
16D3  B3                 [73] (-67)
16D4  00                 [74] (-67)
16D5  00                 [75] (-67)
16D6  00                 [76] (-67)
16D7  B3                 [77] (-67)
16D8  00                 [78] (-67)
16D9  00                 [79] (-67)
16DA  00                 [80] (-67)
16DB  B3                 [81] (-65)
16DC  00                 [82] (-65)
16DD  00                 [83] (-65)
16DE  00                 [84] (-65)
16DF  B3                 [85] (-65)
16E0  00                 [86] (-64)
16E1  00                 [87] (-64)
16E2  00                 [88] (-64)
16E3  B4                 [89] (-64)
16E4  00                 [90] (-64)
16E5  00                 [91] (-64)
16E6  00                 [92] (-64)
16E7  B4                 [93] (-64)
16E8  00                 [94] (-62)
16E9  00                 [95] (-62)
16EA  00                 [96] (-62)
16EB  B4                 [97] (-62)
16EC  00                 [98] (-60)
                         * locals:
1813  00                 sizelocvars (0)
                         * upvalues:
1814  00                 sizeupvalues (0)
                         ** end of function **

                         
1815                     ** function [5] definition (level 2)
                         ** start of function **
1815  00                 string size (0)
                         source name: (none)
1817  01                 line defined (198)
1818  DE                 last line defined (222)
1819  01                 nups (2)
181A  02                 numparams (1)
181B  01                 is_vararg (0)
181C  00                 maxstacksize (17)
                         * code:
181E  53                 sizecode (83)
181F  5D000000           [01] getglobal  1   0        ; 538022378
1823  99400000           [02] loadk      2   1        ; 0
1827  62400001           [03] call       1   2   1  
182B  64804000           [04] self       1   0   258  ; -704974830
182F  62800001           [05] call       1   2   2  
1833  9DC00000           [06] getglobal  2   3        ; 1074689893
1837  D2008000           [07] move       3   1      
183B  A2800001           [08] call       2   2   2  
183F  98000000           [09] test       2       0    ; to [11] if true
1843  1A000080           [10] jmp        1            ; to [12]
1847  1E008000           [11] return     0   1      
184B  A400C100           [12] self       2   1   260  ; -1421644046
184F  1D410100           [13] getglobal  4   5        ; beamType
1853  53010000           [14] getupval   5   0      
1857  93018000           [15] getupval   6   1      
185B  A2808002           [16] call       2   5   2  
185F  DD800100           [17] getglobal  3   6        ; gRegion
1863  E4C0C101           [18] self       3   3   263  ; -1875307917
1867  5D010200           [19] getglobal  5   8        ; -332969190
186B  99410200           [20] loadk      6   9        ; "IntroQueen"
186F  62010001           [21] call       5   2   0  
1873  E2800000           [22] call       3   0   2  
1877  1DC10000           [23] getglobal  4   3        ; 1074689893
187B  52010001           [24] move       5   2      
187F  22810001           [25] call       4   2   2  
1883  18410000           [26] test       4       1    ; to [28] if false
1887  1AC00680           [27] jmp        28           ; to [56]
188B  1DC10000           [28] getglobal  4   3        ; 1074689893
188F  52018001           [29] move       5   3      
1893  22810001           [30] call       4   2   2  
1897  18410000           [31] test       4       1    ; to [33] if false
189B  1A800580           [32] jmp        23           ; to [56]
189F  19810200           [33] loadk      4   10       ; 0
18A3  59C10200           [34] loadk      5   11       ; 0
18A7  99810200           [35] loadk      6   10       ; 0
18AB  10410480           [36] forprep    4   18       ; to [55]
18AF  2402C100           [37] self       8   1   260  ; -1421644046
18B3  9D020300           [38] getglobal  10  12       ; beamTypeB
18B7  D3020000           [39] getupval   11  0      
18BB  13038000           [40] getupval   12  1      
18BF  5D430300           [41] getglobal  13  13       ; ZERO_ROTATION
18C3  92038000           [42] move       14  1      
18C7  22828003           [43] call       8   7   2  
18CB  5DC20000           [44] getglobal  9   3        ; 1074689893
18CF  92020004           [45] move       10  8      
18D3  62820001           [46] call       9   2   2  
18D7  58420000           [47] test       9       1    ; to [49] if false
18DB  1A400180           [48] jmp        6            ; to [55]
18DF  64824304           [49] self       9   8   270  ; -408095485
18E3  D2028001           [50] move       11  3      
18E7  1D030200           [51] getglobal  12  8        ; -332969190
18EB  59C30300           [52] loadk      13  15       ; "GAME_L1_CLAV1"
18EF  22030001           [53] call       12  2   0  
18F3  62420000           [54] call       9   0   1  
18F7  1401FB7F           [55] forloop    4   -19      ; to [37] if loop
18FB  5D020400           [56] getglobal  9   16       ; 572299008
18FF  99420400           [57] loadk      10  17       ; 0
1903  D9820400           [58] loadk      11  18       ; 0
1907  19C30400           [59] loadk      12  19       ; 0
190B  62820002           [60] call       9   4   2  
190F  99420000           [61] loadk      10  1        ; 0
1913  DDC20000           [62] getglobal  11  3        ; 1074689893
1917  12030001           [63] move       12  2      
191B  E2820001           [64] call       11  2   2  
191F  D8420000           [65] test       11      1    ; to [67] if false
1923  1AC00380           [66] jmp        16           ; to [83]
1927  E4024501           [67] self       11  2   276  ; 1311555023
192B  5D030400           [68] getglobal  13  16       ; 572299008
fail op	0
192F  80030005           [69] move       14  10     
1933  84434507           [70] mul        14  14  277  ; -51
1937  C4834505           [71] mul        15  10  278  ; -51
193B  19440000           [72] loadk      16  1        ; 0
193F  62830002           [73] call       13  4   2  
1943  43438304           [74] add        13  9   13 
1947  E2428001           [75] call       11  3   1  
194B  DDC20500           [76] getglobal  11  23       ; 1289681407
194F  E2828000           [77] call       11  1   2  
1953  83C20205           [78] add        10  10  11 
1957  DD020000           [79] getglobal  11  0        ; 538022378
195B  19430000           [80] loadk      12  1        ; 0
195F  E2420001           [81] call       11  2   1  
1963  1A80FA7F           [82] jmp        -21          ; to [62]
1967  1E008000           [83] return     0   1      
                         * constants:
196B  18                 sizek (24)
196C  01                 const type 3
196D  EA911120           const [0]: (538022378)
1971  03                 const type 3
1972  00000000           const [1]: (0)
1976  01                 const type 3
1977  12F0FAD5           const [2]: (-704974830)
197B  01                 const type 3
197C  65770E40           const [3]: (1074689893)
1980  01                 const type 3
1981  F26E43AB           const [4]: (-1421644046)
1985  04                 const type 4
1986  09                 string size (9)
1987  6265616D54797065+  "beamType"
198F  00                 "\0"
                         const [5]: "beamType"
1990  04                 const type 4
1991  08                 string size (8)
1992  67526567696F6E00   "gRegion\0"
                         const [6]: "gRegion"
199A  01                 const type 3
199B  73123990           const [7]: (-1875307917)
199F  01                 const type 3
19A0  1A4B27EC           const [8]: (-332969190)
19A4  04                 const type 4
19A5  0B                 string size (11)
19A6  496E74726F517565+  "IntroQue"
19AE  656E00             "en\0"
                         const [9]: "IntroQueen"
19B1  03                 const type 3
19B2  0000803F           const [10]: (0)
19B6  03                 const type 3
19B7  0000A040           const [11]: (0)
19BB  04                 const type 4
19BC  0A                 string size (10)
19BD  6265616D54797065+  "beamType"
19C5  4200               "B\0"
                         const [12]: "beamTypeB"
19C7  04                 const type 4
19C8  0E                 string size (14)
19C9  5A45524F5F524F54+  "ZERO_ROT"
19D1  4154494F4E00       "ATION\0"
                         const [13]: "ZERO_ROTATION"
19D7  01                 const type 3
19D8  03F5ACE7           const [14]: (-408095485)
19DC  04                 const type 4
19DD  0E                 string size (14)
19DE  47414D455F4C315F+  "GAME_L1_"
19E6  434C41563100       "CLAV1\0"
                         const [15]: "GAME_L1_CLAV1"
19EC  01                 const type 3
19ED  00971C22           const [16]: (572299008)
19F1  03                 const type 3
19F2  000000BF           const [17]: (0)
19F6  03                 const type 3
19F7  0000F040           const [18]: (0)
19FB  03                 const type 3
19FC  000020C1           const [19]: (0)
1A00  01                 const type 3
1A01  CFBD2C4E           const [20]: (1311555023)
1A05  03                 const type 3
1A06  CDCCCC3D           const [21]: (-51)
1A0A  03                 const type 3
1A0B  CDCC4C3D           const [22]: (-51)
1A0F  01                 const type 3
1A10  FFF9DE4C           const [23]: (1289681407)
                         * functions:
1A14  00                 sizep (0)
                         * lines:
1A15  53                 sizelineinfo (83)
                         [pc] (line)
1A16  C7                 [01] (-57)
1A17  00                 [02] (-57)
1A18  00                 [03] (-57)
1A19  00                 [04] (-56)
1A1A  C7                 [05] (-56)
1A1B  00                 [06] (-55)
1A1C  00                 [07] (-55)
1A1D  00                 [08] (-55)
1A1E  C7                 [09] (-55)
1A1F  00                 [10] (-55)
1A20  00                 [11] (-54)
1A21  00                 [12] (-52)
1A22  C8                 [13] (-52)
1A23  00                 [14] (-52)
1A24  00                 [15] (-52)
1A25  00                 [16] (-52)
1A26  C8                 [17] (-51)
1A27  00                 [18] (-51)
1A28  00                 [19] (-51)
1A29  00                 [20] (-51)
1A2A  C9                 [21] (-51)
1A2B  00                 [22] (-51)
1A2C  00                 [23] (-50)
1A2D  00                 [24] (-50)
1A2E  C9                 [25] (-50)
1A2F  00                 [26] (-50)
1A30  00                 [27] (-50)
1A31  00                 [28] (-50)
1A32  C9                 [29] (-50)
1A33  00                 [30] (-50)
1A34  00                 [31] (-50)
1A35  00                 [32] (-50)
1A36  C9                 [33] (-48)
1A37  00                 [34] (-48)
1A38  00                 [35] (-48)
1A39  00                 [36] (-48)
1A3A  C9                 [37] (-47)
1A3B  00                 [38] (-47)
1A3C  00                 [39] (-47)
1A3D  00                 [40] (-47)
1A3E  CA                 [41] (-47)
1A3F  00                 [42] (-47)
1A40  00                 [43] (-47)
1A41  00                 [44] (-46)
1A42  CC                 [45] (-46)
1A43  00                 [46] (-46)
1A44  00                 [47] (-46)
1A45  00                 [48] (-46)
1A46  CC                 [49] (-45)
1A47  00                 [50] (-45)
1A48  00                 [51] (-45)
1A49  00                 [52] (-45)
1A4A  CC                 [53] (-45)
1A4B  00                 [54] (-45)
1A4C  00                 [55] (-48)
1A4D  00                 [56] (-41)
1A4E  CC                 [57] (-41)
1A4F  00                 [58] (-41)
1A50  00                 [59] (-41)
1A51  00                 [60] (-41)
1A52  CC                 [61] (-40)
1A53  00                 [62] (-39)
1A54  00                 [63] (-39)
1A55  00                 [64] (-39)
1A56  CD                 [65] (-39)
1A57  00                 [66] (-39)
1A58  00                 [67] (-38)
1A59  00                 [68] (-38)
1A5A  CD                 [69] (-38)
1A5B  00                 [70] (-38)
1A5C  00                 [71] (-38)
1A5D  00                 [72] (-38)
1A5E  CD                 [73] (-38)
1A5F  00                 [74] (-38)
1A60  00                 [75] (-38)
1A61  00                 [76] (-37)
1A62  CD                 [77] (-37)
1A63  00                 [78] (-37)
1A64  00                 [79] (-36)
1A65  00                 [80] (-36)
1A66  CD                 [81] (-36)
1A67  00                 [82] (-36)
1A68  00                 [83] (-34)
                         * locals:
1B62  00                 sizelocvars (0)
                         * upvalues:
1B63  00                 sizeupvalues (0)
                         ** end of function **

                         
1B64                     ** function [6] definition (level 2)
                         ** start of function **
1B64  00                 string size (0)
                         source name: (none)
1B66  01                 line defined (224)
1B67  EA                 last line defined (234)
1B68  01                 nups (0)
1B69  00                 numparams (1)
1B6A  01                 is_vararg (0)
1B6B  00                 maxstacksize (6)
                         * code:
1B6D  18                 sizecode (24)
1B6E  5D000000           [01] getglobal  1   0        ; 538022378
1B72  99400000           [02] loadk      2   1        ; 0
1B76  62400001           [03] call       1   2   1  
1B7A  64804000           [04] self       1   0   258  ; -704974830
1B7E  62800001           [05] call       1   2   2  
1B82  9DC00000           [06] getglobal  2   3        ; 1074689893
1B86  D2008000           [07] move       3   1      
1B8A  A2800001           [08] call       2   2   2  
1B8E  98000000           [09] test       2       0    ; to [11] if true
1B92  1A000080           [10] jmp        1            ; to [12]
1B96  1E008000           [11] return     0   1      
1B9A  A400C100           [12] self       2   1   260  ; -1625438872
1B9E  1D410100           [13] getglobal  4   5        ; 738251817
1BA2  59810100           [14] loadk      5   6        ; "/Lotus/Characters/Grineer/GrineerTwinQueens/Cloth/DarkQueenHeaddressCloth"
1BA6  22010001           [15] call       4   2   0  
1BAA  A2800000           [16] call       2   0   2  
1BAE  DDC00000           [17] getglobal  3   3        ; 1074689893
1BB2  12010001           [18] move       4   2      
1BB6  E2800001           [19] call       3   2   2  
1BBA  D8400000           [20] test       3       1    ; to [22] if false
1BBE  1A400080           [21] jmp        2            ; to [24]
1BC2  E4C04101           [22] self       3   2   263  ; -725453761
1BC6  E2400001           [23] call       3   2   1  
1BCA  1E008000           [24] return     0   1      
                         * constants:
1BCE  08                 sizek (8)
1BCF  01                 const type 3
1BD0  EA911120           const [0]: (538022378)
1BD4  03                 const type 3
1BD5  0000A040           const [1]: (0)
1BD9  01                 const type 3
1BDA  12F0FAD5           const [2]: (-704974830)
1BDE  01                 const type 3
1BDF  65770E40           const [3]: (1074689893)
1BE3  01                 const type 3
1BE4  68C51D9F           const [4]: (-1625438872)
1BE8  01                 const type 3
1BE9  29D4002C           const [5]: (738251817)
1BED  04                 const type 4
1BEE  4A                 string size (74)
1BEF  2F4C6F7475732F43+  "/Lotus/C"
1BF7  6861726163746572+  "haracter"
1BFF  732F4772696E6565+  "s/Grinee"
1C07  722F4772696E6565+  "r/Grinee"
1C0F  725477696E517565+  "rTwinQue"
1C17  656E732F436C6F74+  "ens/Clot"
1C1F  682F4461726B5175+  "h/DarkQu"
1C27  65656E4865616464+  "eenHeadd"
1C2F  72657373436C6F74+  "ressClot"
1C37  6800               "h\0"
                         const [6]: "/Lotus/Characters/Grineer/GrineerTwinQueens/Cloth/DarkQueenHeaddressCloth"
1C39  01                 const type 3
1C3A  3F74C2D4           const [7]: (-725453761)
                         * functions:
1C3E  00                 sizep (0)
                         * lines:
1C3F  18                 sizelineinfo (24)
                         [pc] (line)
1C40  E1                 [01] (-31)
1C41  00                 [02] (-31)
1C42  00                 [03] (-31)
1C43  00                 [04] (-30)
1C44  E1                 [05] (-30)
1C45  00                 [06] (-29)
1C46  00                 [07] (-29)
1C47  00                 [08] (-29)
1C48  E1                 [09] (-29)
1C49  00                 [10] (-29)
1C4A  00                 [11] (-28)
1C4B  00                 [12] (-26)
1C4C  E2                 [13] (-26)
1C4D  00                 [14] (-26)
1C4E  00                 [15] (-26)
1C4F  00                 [16] (-26)
1C50  E2                 [17] (-25)
1C51  00                 [18] (-25)
1C52  00                 [19] (-25)
1C53  00                 [20] (-25)
1C54  E3                 [21] (-25)
1C55  00                 [22] (-24)
1C56  00                 [23] (-24)
1C57  00                 [24] (-22)
                         * locals:
1CA0  00                 sizelocvars (0)
                         * upvalues:
1CA1  00                 sizeupvalues (0)
                         ** end of function **

                         
1CA2                     ** function [7] definition (level 2)
                         ** start of function **
1CA2  00                 string size (0)
                         source name: (none)
1CA4  01                 line defined (236)
1CA5  83                 last line defined (259)
1CA6  02                 nups (2)
1CA7  02                 numparams (1)
1CA8  01                 is_vararg (0)
1CA9  00                 maxstacksize (16)
                         * code:
1CAB  59                 sizecode (89)
1CAC  64004000           [01] self       1   0   256  ; -1870903749
1CB0  62800001           [02] call       1   2   2  
1CB4  9D400000           [03] getglobal  2   1        ; 1074689893
1CB8  D2008000           [04] move       3   1      
1CBC  A2800001           [05] call       2   2   2  
1CC0  98000000           [06] test       2       0    ; to [8] if true
1CC4  1A000080           [07] jmp        1            ; to [9]
1CC8  1E008000           [08] return     0   1      
1CCC  A480C000           [09] self       2   1   258  ; -1421644046
1CD0  1DC10000           [10] getglobal  4   3        ; beamType
1CD4  53010000           [11] getupval   5   0      
1CD8  9D010100           [12] getglobal  6   4        ; 572299008
1CDC  D9410100           [13] loadk      7   5        ; 0
1CE0  19820100           [14] loadk      8   6        ; -51
1CE4  59420100           [15] loadk      9   5        ; 0
1CE8  A2010002           [16] call       6   4   0  
1CEC  A2800000           [17] call       2   0   2  
1CF0  DDC00100           [18] getglobal  3   7        ; gRegion
1CF4  E400C201           [19] self       3   3   264  ; -1875307917
1CF8  5D410200           [20] getglobal  5   9        ; -332969190
1CFC  99810200           [21] loadk      6   10       ; "FakeTeshin"
1D00  62010001           [22] call       5   2   0  
1D04  E2800000           [23] call       3   0   2  
1D08  1D410000           [24] getglobal  4   1        ; 1074689893
1D0C  52010001           [25] move       5   2      
1D10  22810001           [26] call       4   2   2  
1D14  18410000           [27] test       4       1    ; to [29] if false
1D18  1A000A80           [28] jmp        41           ; to [70]
1D1C  1D410000           [29] getglobal  4   1        ; 1074689893
1D20  52018001           [30] move       5   3      
1D24  22810001           [31] call       4   2   2  
1D28  18410000           [32] test       4       1    ; to [34] if false
1D2C  1AC00880           [33] jmp        36           ; to [70]
1D30  24C14201           [34] self       4   2   267  ; -408095485
1D34  92018001           [35] move       6   3      
1D38  DD410200           [36] getglobal  7   9        ; -332969190
1D3C  19020300           [37] loadk      8   12       ; "GAME_C1_SPINE2"
1D40  E2010001           [38] call       7   2   0  
1D44  22410000           [39] call       4   0   1  
1D48  19410300           [40] loadk      4   13       ; 0
1D4C  53018000           [41] getupval   5   1      
1D50  4A018002           [42] len        5   5      
1D54  99410300           [43] loadk      6   13       ; 0
1D58  10C10580           [44] forprep    4   24       ; to [69]
1D5C  2482C000           [45] self       8   1   258  ; -1421644046
1D60  9D820300           [46] getglobal  10  14       ; beamTypeB
1D64  D3020000           [47] getupval   11  0      
1D68  1D030100           [48] getglobal  12  4        ; 572299008
1D6C  59430100           [49] loadk      13  5        ; 0
1D70  99830100           [50] loadk      14  6        ; -51
1D74  D9430100           [51] loadk      15  5        ; 0
1D78  22030002           [52] call       12  4   0  
1D7C  22820000           [53] call       8   0   2  
1D80  5D420000           [54] getglobal  9   1        ; 1074689893
1D84  92020004           [55] move       10  8      
1D88  62820001           [56] call       9   2   2  
1D8C  58420000           [57] test       9       1    ; to [59] if false
1D90  1A400280           [58] jmp        10           ; to [69]
1D94  53028000           [59] getupval   9   1      
1D98  93028000           [60] getupval   10  1      
1D9C  8A020005           [61] len        10  10     
1DA0  9F828203           [62] mod        10  7   10 
1DA4  83828286           [63] add        10  269 10   ; 0
1DA8  4E828204           [64] gettable   9   9   10 
1DAC  A4C24204           [65] self       10  8   267  ; -408095485
1DB0  12038001           [66] move       12  3      
1DB4  52038004           [67] move       13  9      
1DB8  A2420002           [68] call       10  4   1  
1DBC  1481F97F           [69] forloop    4   -25      ; to [45] if loop
1DC0  99420100           [70] loadk      10  5        ; 0
1DC4  DD420000           [71] getglobal  11  1        ; 1074689893
1DC8  12030001           [72] move       12  2      
1DCC  E2820001           [73] call       11  2   2  
1DD0  D8420000           [74] test       11      1    ; to [76] if false
1DD4  1A000380           [75] jmp        13           ; to [89]
fail op	21
1DD8  15404305           [76] concat     0   10  269
1DDC  1A800280           [77] jmp        11           ; to [89]
1DE0  E4C24301           [78] self       11  2   271  ; -412619612
1DE4  44034405           [79] mul        13  10  272  ; -102
1DE8  43438388           [80] add        13  273 13   ; -51
1DEC  E2428001           [81] call       11  3   1  
1DF0  DD820400           [82] getglobal  11  18       ; 1289681407
1DF4  E2828000           [83] call       11  1   2  
1DF8  83C20205           [84] add        10  10  11 
1DFC  DDC20400           [85] getglobal  11  19       ; 538022378
1E00  19430100           [86] loadk      12  5        ; 0
1E04  E2420001           [87] call       11  2   1  
1E08  1A40FB7F           [88] jmp        -18          ; to [71]
1E0C  1E008000           [89] return     0   1      
                         * constants:
1E10  14                 sizek (20)
1E11  01                 const type 3
1E12  3B467C90           const [0]: (-1870903749)
1E16  01                 const type 3
1E17  65770E40           const [1]: (1074689893)
1E1B  01                 const type 3
1E1C  F26E43AB           const [2]: (-1421644046)
1E20  04                 const type 4
1E21  09                 string size (9)
1E22  6265616D54797065+  "beamType"
1E2A  00                 "\0"
                         const [3]: "beamType"
1E2B  01                 const type 3
1E2C  00971C22           const [4]: (572299008)
1E30  03                 const type 3
1E31  00000000           const [5]: (0)
1E35  03                 const type 3
1E36  CDCC4C3F           const [6]: (-51)
1E3A  04                 const type 4
1E3B  08                 string size (8)
1E3C  67526567696F6E00   "gRegion\0"
                         const [7]: "gRegion"
1E44  01                 const type 3
1E45  73123990           const [8]: (-1875307917)
1E49  01                 const type 3
1E4A  1A4B27EC           const [9]: (-332969190)
1E4E  04                 const type 4
1E4F  0B                 string size (11)
1E50  46616B6554657368+  "FakeTesh"
1E58  696E00             "in\0"
                         const [10]: "FakeTeshin"
1E5B  01                 const type 3
1E5C  03F5ACE7           const [11]: (-408095485)
1E60  04                 const type 4
1E61  0F                 string size (15)
1E62  47414D455F43315F+  "GAME_C1_"
1E6A  5350494E453200     "SPINE2\0"
                         const [12]: "GAME_C1_SPINE2"
1E71  03                 const type 3
1E72  0000803F           const [13]: (0)
1E76  04                 const type 4
1E77  0A                 string size (10)
1E78  6265616D54797065+  "beamType"
1E80  4200               "B\0"
                         const [14]: "beamTypeB"
1E82  01                 const type 3
1E83  A4EC67E7           const [15]: (-412619612)
1E87  03                 const type 3
1E88  9A99193E           const [16]: (-102)
1E8C  03                 const type 3
1E8D  CDCC4C3D           const [17]: (-51)
1E91  01                 const type 3
1E92  FFF9DE4C           const [18]: (1289681407)
1E96  01                 const type 3
1E97  EA911120           const [19]: (538022378)
                         * functions:
1E9B  00                 sizep (0)
                         * lines:
1E9C  59                 sizelineinfo (89)
                         [pc] (line)
1E9D  ED                 [01] (-19)
1E9E  00                 [02] (-19)
1E9F  00                 [03] (-18)
1EA0  00                 [04] (-18)
1EA1  ED                 [05] (-18)
1EA2  00                 [06] (-18)
1EA3  00                 [07] (-18)
1EA4  00                 [08] (-17)
1EA5  EE                 [09] (-15)
1EA6  00                 [10] (-15)
1EA7  00                 [11] (-15)
1EA8  00                 [12] (-15)
1EA9  EE                 [13] (-15)
1EAA  00                 [14] (-15)
1EAB  00                 [15] (-15)
1EAC  00                 [16] (-15)
1EAD  EE                 [17] (-15)
1EAE  00                 [18] (-14)
1EAF  00                 [19] (-14)
1EB0  00                 [20] (-14)
1EB1  EE                 [21] (-14)
1EB2  00                 [22] (-14)
1EB3  00                 [23] (-14)
1EB4  00                 [24] (-13)
1EB5  EE                 [25] (-13)
1EB6  00                 [26] (-13)
1EB7  00                 [27] (-13)
1EB8  00                 [28] (-13)
1EB9  EF                 [29] (-13)
1EBA  00                 [30] (-13)
1EBB  00                 [31] (-13)
1EBC  00                 [32] (-13)
1EBD  F1                 [33] (-13)
1EBE  00                 [34] (-12)
1EBF  00                 [35] (-12)
1EC0  00                 [36] (-12)
1EC1  F1                 [37] (-12)
1EC2  00                 [38] (-12)
1EC3  00                 [39] (-12)
1EC4  00                 [40] (-11)
1EC5  F1                 [41] (-11)
1EC6  00                 [42] (-11)
1EC7  00                 [43] (-11)
1EC8  00                 [44] (-11)
1EC9  F1                 [45] (-10)
1ECA  00                 [46] (-10)
1ECB  00                 [47] (-10)
1ECC  00                 [48] (-10)
1ECD  F1                 [49] (-10)
1ECE  00                 [50] (-10)
1ECF  00                 [51] (-10)
1ED0  00                 [52] (-10)
1ED1  F1                 [53] (-10)
1ED2  00                 [54] (-9)
1ED3  00                 [55] (-9)
1ED4  00                 [56] (-9)
1ED5  F1                 [57] (-9)
1ED6  00                 [58] (-9)
1ED7  00                 [59] (-8)
1ED8  00                 [60] (-8)
1ED9  F1                 [61] (-8)
1EDA  00                 [62] (-8)
1EDB  00                 [63] (-8)
1EDC  00                 [64] (-8)
1EDD  F1                 [65] (-7)
1EDE  00                 [66] (-7)
1EDF  00                 [67] (-7)
1EE0  00                 [68] (-7)
1EE1  F2                 [69] (-11)
1EE2  00                 [70] (-3)
1EE3  00                 [71] (-2)
1EE4  00                 [72] (-2)
1EE5  F2                 [73] (-2)
1EE6  00                 [74] (-2)
1EE7  00                 [75] (-2)
1EE8  00                 [76] (-2)
1EE9  F2                 [77] (-2)
1EEA  00                 [78] (-1)
1EEB  00                 [79] (-1)
1EEC  00                 [80] (-1)
1EED  F2                 [81] (-1)
1EEE  00                 [82] (0)
1EEF  00                 [83] (0)
1EF0  00                 [84] (0)
1EF1  F2                 [85] (1)
1EF2  00                 [86] (1)
1EF3  00                 [87] (1)
1EF4  00                 [88] (1)
1EF5  F2                 [89] (3)
                         * locals:
2001  00                 sizelocvars (0)
                         * upvalues:
2002  00                 sizeupvalues (0)
                         ** end of function **

                         
2003                     ** function [8] definition (level 2)
                         ** start of function **
2003  00                 string size (0)
                         source name: (none)
2005  02                 line defined (261)
2006  8C                 last line defined (268)
2007  02                 nups (0)
2008  00                 numparams (1)
2009  01                 is_vararg (0)
200A  00                 maxstacksize (11)
                         * code:
200C  18                 sizecode (24)
200D  64004000           [01] self       1   0   256  ; -1870903749
2011  62800001           [02] call       1   2   2  
2015  9D400000           [03] getglobal  2   1        ; 1074689893
2019  D2008000           [04] move       3   1      
201D  A2800001           [05] call       2   2   2  
2021  98000000           [06] test       2       0    ; to [8] if true
2025  1A000080           [07] jmp        1            ; to [9]
2029  1E008000           [08] return     0   1      
202D  A480C000           [09] self       2   1   258  ; -1028217578
2031  19C10000           [10] loadk      4   3        ; 0
2035  5D010100           [11] getglobal  5   4        ; 572299008
2039  99410100           [12] loadk      6   5        ; -113
203D  D9810100           [13] loadk      7   6        ; -92
2041  19C20000           [14] loadk      8   3        ; 0
2045  62810002           [15] call       5   4   2  
2049  9DC10100           [16] getglobal  6   7        ; 508519041
204D  A2818000           [17] call       6   1   2  
2051  DD010100           [18] getglobal  7   4        ; 572299008
2055  19020200           [19] loadk      8   8        ; 10
2059  59020200           [20] loadk      9   8        ; 10
205D  99420200           [21] loadk      10  9        ; -102
2061  E2010002           [22] call       7   4   0  
2065  A2400000           [23] call       2   0   1  
2069  1E008000           [24] return     0   1      
                         * constants:
206D  0A                 sizek (10)
206E  01                 const type 3
206F  3B467C90           const [0]: (-1870903749)
2073  01                 const type 3
2074  65770E40           const [1]: (1074689893)
2078  01                 const type 3
2079  16A5B6C2           const [2]: (-1028217578)
207D  03                 const type 3
207E  00000000           const [3]: (0)
2082  01                 const type 3
2083  00971C22           const [4]: (572299008)
2087  03                 const type 3
2088  8FC2F5BC           const [5]: (-113)
208C  03                 const type 3
208D  A470BD3F           const [6]: (-92)
2091  01                 const type 3
2092  81624F1E           const [7]: (508519041)
2096  03                 const type 3
2097  0AD7A33D           const [8]: (10)
209B  03                 const type 3
209C  9A99993F           const [9]: (-102)
                         * functions:
20A0  00                 sizep (0)
                         * lines:
20A1  18                 sizelineinfo (24)
                         [pc] (line)
20A2  07                 [01] (7)
20A3  01                 [02] (7)
20A4  00                 [03] (8)
20A5  00                 [04] (8)
20A6  07                 [05] (8)
20A7  01                 [06] (8)
20A8  00                 [07] (8)
20A9  00                 [08] (9)
20AA  08                 [09] (11)
20AB  01                 [10] (11)
20AC  00                 [11] (11)
20AD  00                 [12] (11)
20AE  08                 [13] (11)
20AF  01                 [14] (11)
20B0  00                 [15] (11)
20B1  00                 [16] (11)
20B2  08                 [17] (11)
20B3  01                 [18] (11)
20B4  00                 [19] (11)
20B5  00                 [20] (11)
20B6  08                 [21] (11)
20B7  01                 [22] (11)
20B8  00                 [23] (11)
20B9  00                 [24] (12)
                         * locals:
2102  00                 sizelocvars (0)
                         * upvalues:
2103  00                 sizeupvalues (0)
                         ** end of function **

                         
2104                     ** function [9] definition (level 2)
                         ** start of function **
2104  00                 string size (0)
                         source name: (none)
2106  02                 line defined (270)
2107  A8                 last line defined (296)
2108  02                 nups (0)
2109  00                 numparams (1)
210A  01                 is_vararg (0)
210B  00                 maxstacksize (8)
                         * code:
210D  49                 sizecode (73)
210E  64004000           [01] self       1   0   256  ; -704974830
2112  62800001           [02] call       1   2   2  
2116  9D400000           [03] getglobal  2   1        ; 1074689893
211A  D2008000           [04] move       3   1      
211E  A2800001           [05] call       2   2   2  
2122  98400000           [06] test       2       1    ; to [8] if false
2126  1A000280           [07] jmp        9            ; to [17]
212A  A480C000           [08] self       2   1   258  ; -1957065004
212E  1DC10000           [09] getglobal  4   3        ; gAvatarType
2132  A2808001           [10] call       2   3   2  
2136  98000000           [11] test       2       0    ; to [13] if true
213A  1AC00080           [12] jmp        4            ; to [17]
213E  A400C100           [13] self       2   1   260  ; -1201586349
2142  A2800001           [14] call       2   2   2  
2146  98400000           [15] test       2       1    ; to [17] if false
214A  1A000080           [16] jmp        1            ; to [18]
214E  1E008000           [17] return     0   1      
2152  9D400100           [18] getglobal  2   5        ; gRegion
2156  A4804101           [19] self       2   2   262  ; -1456226250
215A  A2800001           [20] call       2   2   2  
215E  A4C04101           [21] self       2   2   263  ; 1127159716
2162  A2800001           [22] call       2   2   2  
2166  8C404284           [23] settable   2   264 265  ; "blur" 0
216A  8C404285           [24] settable   2   266 265  ; "bloom" 0
216E  8C00C385           [25] settable   2   267 268  ; "radialBlurStrength" 102
2172  8C80C386           [26] settable   2   269 270  ; "fade" -20
2176  8C00C487           [27] settable   2   271 272  ; "saturation" 0
217A  DD400400           [28] getglobal  3   17       ; 538022378
217E  19810400           [29] loadk      4   18       ; 0
2182  E2400001           [30] call       3   2   1  
2186  D9800400           [31] loadk      3   18       ; 0
fail op	21
218A  15C0C401           [32] concat     0   3   275
218E  1A800980           [33] jmp        39           ; to [73]
2192  1D010500           [34] getglobal  4   20       ; 1289681407
2196  22818000           [35] call       4   1   2  
219A  5D410500           [36] getglobal  5   21       ; postFxSpeed
219E  04410102           [37] mul        4   4   5  
21A2  C3008101           [38] add        3   3   4  
21A6  1D810500           [39] getglobal  4   22       ; -1828500651
21AA  4E014201           [40] gettable   5   2   264  ; "blur"
21AE  99810400           [41] loadk      6   18       ; 0
21B2  D2018001           [42] move       7   3      
21B6  22810002           [43] call       4   4   2  
21BA  8C000184           [44] settable   2   264 4    ; "blur"
21BE  1D810500           [45] getglobal  4   22       ; -1828500651
21C2  4E814201           [46] gettable   5   2   266  ; "bloom"
21C6  99810400           [47] loadk      6   18       ; 0
21CA  D2018001           [48] move       7   3      
21CE  22810002           [49] call       4   4   2  
21D2  8C000185           [50] settable   2   266 4    ; "bloom"
21D6  1D810500           [51] getglobal  4   22       ; -1828500651
21DA  4E414301           [52] gettable   5   2   269  ; "fade"
21DE  99810400           [53] loadk      6   18       ; 0
21E2  D2018001           [54] move       7   3      
21E6  22810002           [55] call       4   4   2  
21EA  8C008186           [56] settable   2   269 4    ; "fade"
21EE  1D810500           [57] getglobal  4   22       ; -1828500651
21F2  4EC14201           [58] gettable   5   2   267  ; "radialBlurStrength"
21F6  99810400           [59] loadk      6   18       ; 0
21FA  D2018001           [60] move       7   3      
21FE  22810002           [61] call       4   4   2  
2202  8C008185           [62] settable   2   267 4    ; "radialBlurStrength"
2206  1D810500           [63] getglobal  4   22       ; -1828500651
220A  4EC14301           [64] gettable   5   2   271  ; "saturation"
220E  99810400           [65] loadk      6   18       ; 0
2212  D2018001           [66] move       7   3      
2216  22810002           [67] call       4   4   2  
221A  8C008187           [68] settable   2   271 4    ; "saturation"
221E  1D410400           [69] getglobal  4   17       ; 538022378
2222  59810400           [70] loadk      5   18       ; 0
2226  22410001           [71] call       4   2   1  
222A  1A80F57F           [72] jmp        -41          ; to [32]
222E  1E008000           [73] return     0   1      
                         * constants:
2232  17                 sizek (23)
2233  01                 const type 3
2234  12F0FAD5           const [0]: (-704974830)
2238  01                 const type 3
2239  65770E40           const [1]: (1074689893)
223D  01                 const type 3
223E  D48E598B           const [2]: (-1957065004)
2242  04                 const type 4
2243  0C                 string size (12)
2244  6741766174617254+  "gAvatarT"
224C  79706500           "ype\0"
                         const [3]: "gAvatarType"
2250  01                 const type 3
2251  533F61B8           const [4]: (-1201586349)
2255  04                 const type 4
2256  08                 string size (8)
2257  67526567696F6E00   "gRegion\0"
                         const [5]: "gRegion"
225F  01                 const type 3
2260  36C033A9           const [6]: (-1456226250)
2264  01                 const type 3
2265  A4172F43           const [7]: (1127159716)
2269  04                 const type 4
226A  05                 string size (5)
226B  626C757200         "blur\0"
                         const [8]: "blur"
2270  03                 const type 3
2271  00004040           const [9]: (0)
2275  04                 const type 4
2276  06                 string size (6)
2277  626C6F6F6D00       "bloom\0"
                         const [10]: "bloom"
227D  04                 const type 4
227E  13                 string size (19)
227F  72616469616C426C+  "radialBl"
2287  7572537472656E67+  "urStreng"
228F  746800             "th\0"
                         const [11]: "radialBlurStrength"
2292  03                 const type 3
2293  6666A63F           const [12]: (102)
2297  04                 const type 4
2298  05                 string size (5)
2299  6661646500         "fade\0"
                         const [13]: "fade"
229E  03                 const type 3
229F  EC51B8BE           const [14]: (-20)
22A3  04                 const type 4
22A4  0B                 string size (11)
22A5  7361747572617469+  "saturati"
22AD  6F6E00             "on\0"
                         const [15]: "saturation"
22B0  03                 const type 3
22B1  000080BE           const [16]: (0)
22B5  01                 const type 3
22B6  EA911120           const [17]: (538022378)
22BA  03                 const type 3
22BB  00000000           const [18]: (0)
22BF  03                 const type 3
22C0  0000803F           const [19]: (0)
22C4  01                 const type 3
22C5  FFF9DE4C           const [20]: (1289681407)
22C9  04                 const type 4
22CA  0C                 string size (12)
22CB  706F737446785370+  "postFxSp"
22D3  65656400           "eed\0"
                         const [21]: "postFxSpeed"
22D7  01                 const type 3
22D8  554B0393           const [22]: (-1828500651)
                         * functions:
22DC  00                 sizep (0)
                         * lines:
22DD  49                 sizelineinfo (73)
                         [pc] (line)
22DE  0F                 [01] (15)
22DF  01                 [02] (15)
22E0  00                 [03] (16)
22E1  00                 [04] (16)
22E2  0F                 [05] (16)
22E3  01                 [06] (16)
22E4  00                 [07] (16)
22E5  00                 [08] (16)
22E6  10                 [09] (16)
22E7  01                 [10] (16)
22E8  00                 [11] (16)
22E9  00                 [12] (16)
22EA  10                 [13] (16)
22EB  01                 [14] (16)
22EC  00                 [15] (16)
22ED  00                 [16] (16)
22EE  10                 [17] (17)
22EF  01                 [18] (20)
22F0  00                 [19] (20)
22F1  00                 [20] (20)
22F2  10                 [21] (20)
22F3  01                 [22] (20)
22F4  00                 [23] (22)
22F5  00                 [24] (23)
22F6  10                 [25] (24)
22F7  01                 [26] (25)
22F8  00                 [27] (26)
22F9  00                 [28] (28)
22FA  10                 [29] (28)
22FB  01                 [30] (28)
22FC  00                 [31] (30)
22FD  00                 [32] (31)
22FE  10                 [33] (31)
22FF  01                 [34] (32)
2300  00                 [35] (32)
2301  00                 [36] (32)
2302  10                 [37] (32)
2303  01                 [38] (32)
2304  00                 [39] (33)
2305  00                 [40] (33)
2306  10                 [41] (33)
2307  01                 [42] (33)
2308  00                 [43] (33)
2309  00                 [44] (33)
230A  10                 [45] (34)
230B  01                 [46] (34)
230C  00                 [47] (34)
230D  00                 [48] (34)
230E  10                 [49] (34)
230F  01                 [50] (34)
2310  00                 [51] (35)
2311  00                 [52] (35)
2312  10                 [53] (35)
2313  01                 [54] (35)
2314  00                 [55] (35)
2315  00                 [56] (35)
2316  10                 [57] (36)
2317  01                 [58] (36)
2318  00                 [59] (36)
2319  00                 [60] (36)
231A  10                 [61] (36)
231B  01                 [62] (36)
231C  00                 [63] (37)
231D  00                 [64] (37)
231E  11                 [65] (37)
231F  01                 [66] (37)
2320  00                 [67] (37)
2321  00                 [68] (37)
2322  14                 [69] (38)
2323  01                 [70] (38)
2324  00                 [71] (38)
2325  00                 [72] (38)
2326  14                 [73] (40)
                         * locals:
2402  00                 sizelocvars (0)
                         * upvalues:
2403  00                 sizeupvalues (0)
                         ** end of function **

                         
2404                     ** function [10] definition (level 2)
                         ** start of function **
2404  00                 string size (0)
                         source name: (none)
2406  02                 line defined (298)
2407  C1                 last line defined (321)
2408  02                 nups (0)
2409  00                 numparams (1)
240A  01                 is_vararg (0)
240B  00                 maxstacksize (10)
                         * code:
240D  45                 sizecode (69)
240E  64004000           [01] self       1   0   256  ; -704974830
2412  62800001           [02] call       1   2   2  
2416  9D400000           [03] getglobal  2   1        ; 1074689893
241A  D2008000           [04] move       3   1      
241E  A2800001           [05] call       2   2   2  
2422  98000000           [06] test       2       0    ; to [8] if true
2426  1A000080           [07] jmp        1            ; to [9]
242A  1E008000           [08] return     0   1      
242E  A480C000           [09] self       2   1   258  ; -786111647
2432  1DC10000           [10] getglobal  4   3        ; -332969190
2436  59010100           [11] loadk      5   4        ; "CloakVector"
243A  22810001           [12] call       4   2   2  
243E  59410100           [13] loadk      5   5        ; -102
2442  99810100           [14] loadk      6   6        ; -51
2446  D9C10100           [15] loadk      7   7        ; 0
244A  19020200           [16] loadk      8   8        ; -102
244E  A2408003           [17] call       2   7   1  
2452  A480C000           [18] self       2   1   258  ; -786111647
2456  1DC10000           [19] getglobal  4   3        ; -332969190
245A  59410200           [20] loadk      5   9        ; "CloakHDR"
245E  22810001           [21] call       4   2   2  
2462  59810200           [22] loadk      5   10       ; 0
2466  99C10200           [23] loadk      6   11       ; -51
246A  D9010300           [24] loadk      7   12       ; -102
246E  19820200           [25] loadk      8   10       ; 0
2472  A2408003           [26] call       2   7   1  
2476  99400300           [27] loadk      2   13       ; 0
fail op	21
247A  15804201           [28] concat     0   2   266
247E  1A000580           [29] jmp        21           ; to [51]
2482  E480C300           [30] self       3   1   270  ; -703571861
2486  44814101           [31] mul        5   2   262  ; -51
248A  E2408001           [32] call       3   3   1  
248E  E480C000           [33] self       3   1   258  ; -786111647
2492  5DC10000           [34] getglobal  5   3        ; -332969190
2496  99010100           [35] loadk      6   4        ; "CloakVector"
249A  62810001           [36] call       5   2   2  
249E  99410100           [37] loadk      6   5        ; -102
24A2  D9C10300           [38] loadk      7   15       ; -51
24A6  0D820085           [39] sub        8   266 2    ; 0
24AA  03C24104           [40] add        8   8   263  ; 0
24AE  59020200           [41] loadk      9   8        ; -102
24B2  E2408003           [42] call       3   7   1  
24B6  DD000400           [43] getglobal  3   16       ; 1289681407
24BA  E2808000           [44] call       3   1   2  
24BE  C480C101           [45] mul        3   3   262  ; -51
24C2  83C00001           [46] add        2   2   3  
24C6  DD400400           [47] getglobal  3   17       ; 538022378
24CA  19410300           [48] loadk      4   13       ; 0
24CE  E2400001           [49] call       3   2   1  
24D2  1A00FA7F           [50] jmp        -23          ; to [28]
24D6  DD400400           [51] getglobal  3   17       ; 538022378
24DA  19810200           [52] loadk      4   10       ; 0
24DE  E2400001           [53] call       3   2   1  
fail op	21
24E2  15808086           [54] concat     0   269 2  
24E6  1A400280           [55] jmp        10           ; to [66]
24EA  E480C300           [56] self       3   1   270  ; -703571861
24EE  44814101           [57] mul        5   2   262  ; -51
24F2  E2408001           [58] call       3   3   1  
24F6  DD000400           [59] getglobal  3   16       ; 1289681407
24FA  E2808000           [60] call       3   1   2  
24FE  8DC00001           [61] sub        2   2   3  
2502  DD400400           [62] getglobal  3   17       ; 538022378
2506  19410300           [63] loadk      4   13       ; 0
250A  E2400001           [64] call       3   2   1  
250E  1AC0FC7F           [65] jmp        -12          ; to [54]
2512  E480C300           [66] self       3   1   270  ; -703571861
2516  59410300           [67] loadk      5   13       ; 0
251A  E2408001           [68] call       3   3   1  
251E  1E008000           [69] return     0   1      
                         * constants:
2522  12                 sizek (18)
2523  01                 const type 3
2524  12F0FAD5           const [0]: (-704974830)
2528  01                 const type 3
2529  65770E40           const [1]: (1074689893)
252D  01                 const type 3
252E  61E324D1           const [2]: (-786111647)
2532  01                 const type 3
2533  1A4B27EC           const [3]: (-332969190)
2537  04                 const type 4
2538  0C                 string size (12)
2539  436C6F616B566563+  "CloakVec"
2541  746F7200           "tor\0"
                         const [4]: "CloakVector"
2545  03                 const type 3
2546  9A9999BE           const [5]: (-102)
254A  03                 const type 3
254B  CDCC4C3F           const [6]: (-51)
254F  03                 const type 3
2550  00002041           const [7]: (0)
2554  03                 const type 3
2555  9A99993F           const [8]: (-102)
2559  04                 const type 4
255A  09                 string size (9)
255B  436C6F616B484452+  "CloakHDR"
2563  00                 "\0"
                         const [9]: "CloakHDR"
2564  03                 const type 3
2565  0000803F           const [10]: (0)
2569  03                 const type 3
256A  CDCC4C3E           const [11]: (-51)
256E  03                 const type 3
256F  9A99193F           const [12]: (-102)
2573  03                 const type 3
2574  00000000           const [13]: (0)
2578  01                 const type 3
2579  6B5810D6           const [14]: (-703571861)
257D  03                 const type 3
257E  CDCC8C3F           const [15]: (-51)
2582  01                 const type 3
2583  FFF9DE4C           const [16]: (1289681407)
2587  01                 const type 3
2588  EA911120           const [17]: (538022378)
                         * functions:
258C  00                 sizep (0)
                         * lines:
258D  45                 sizelineinfo (69)
                         [pc] (line)
258E  2B                 [01] (43)
258F  01                 [02] (43)
2590  00                 [03] (44)
2591  00                 [04] (44)
2592  2B                 [05] (44)
2593  01                 [06] (44)
2594  00                 [07] (44)
2595  00                 [08] (45)
2596  2C                 [09] (48)
2597  01                 [10] (48)
2598  00                 [11] (48)
2599  00                 [12] (48)
259A  2C                 [13] (48)
259B  01                 [14] (48)
259C  00                 [15] (48)
259D  00                 [16] (48)
259E  2C                 [17] (48)
259F  01                 [18] (49)
25A0  00                 [19] (49)
25A1  00                 [20] (49)
25A2  2C                 [21] (49)
25A3  01                 [22] (49)
25A4  00                 [23] (49)
25A5  00                 [24] (49)
25A6  2C                 [25] (49)
25A7  01                 [26] (49)
25A8  00                 [27] (51)
25A9  00                 [28] (52)
25AA  2D                 [29] (52)
25AB  01                 [30] (53)
25AC  00                 [31] (53)
25AD  00                 [32] (53)
25AE  30                 [33] (54)
25AF  01                 [34] (54)
25B0  00                 [35] (54)
25B1  00                 [36] (54)
25B2  30                 [37] (54)
25B3  01                 [38] (54)
25B4  00                 [39] (54)
25B5  00                 [40] (54)
25B6  30                 [41] (54)
25B7  01                 [42] (54)
25B8  00                 [43] (55)
25B9  00                 [44] (55)
25BA  30                 [45] (55)
25BB  01                 [46] (55)
25BC  00                 [47] (56)
25BD  00                 [48] (56)
25BE  30                 [49] (56)
25BF  01                 [50] (56)
25C0  00                 [51] (58)
25C1  00                 [52] (58)
25C2  30                 [53] (58)
25C3  01                 [54] (59)
25C4  00                 [55] (59)
25C5  00                 [56] (60)
25C6  30                 [57] (60)
25C7  01                 [58] (60)
25C8  00                 [59] (61)
25C9  00                 [60] (61)
25CA  30                 [61] (61)
25CB  01                 [62] (62)
25CC  00                 [63] (62)
25CD  00                 [64] (62)
25CE  30                 [65] (62)
25CF  01                 [66] (64)
25D0  00                 [67] (64)
25D1  00                 [68] (64)
25D2  31                 [69] (65)
                         * locals:
26A2  00                 sizelocvars (0)
                         * upvalues:
26A3  00                 sizeupvalues (0)
                         ** end of function **

                         
26A4                     ** function [11] definition (level 2)
                         ** start of function **
26A4  00                 string size (0)
                         source name: (none)
26A6  02                 line defined (323)
26A7  CD                 last line defined (333)
26A8  02                 nups (0)
26A9  00                 numparams (1)
26AA  01                 is_vararg (0)
26AB  00                 maxstacksize (7)
                         * code:
26AD  29                 sizecode (41)
26AE  5D000000           [01] getglobal  1   0        ; 538022378
26B2  99400000           [02] loadk      2   1        ; 0
26B6  62400001           [03] call       1   2   1  
26BA  64804000           [04] self       1   0   258  ; -231049143
26BE  62800001           [05] call       1   2   2  
26C2  92008000           [06] move       2   1      
26C6  DDC00000           [07] getglobal  3   3        ; 1074689893
26CA  12010000           [08] move       4   0      
26CE  E2800001           [09] call       3   2   2  
26D2  D8400000           [10] test       3       1    ; to [12] if false
26D6  1A000780           [11] jmp        29           ; to [41]
26DA  CE00C100           [12] gettable   3   1   260  ; "heading"
26DE  1D410100           [13] getglobal  4   5        ; math
26E2  0E814102           [14] gettable   4   4   262  ; -2040962569
26E6  59C10100           [15] loadk      5   7        ; 0
26EA  99010200           [16] loadk      6   8        ; 0
26EE  22818001           [17] call       4   3   2  
26F2  04414202           [18] mul        4   4   265  ; 0
26F6  C3008101           [19] add        3   3   4  
26FA  8CC00082           [20] settable   2   260 3    ; "heading"
26FE  CE80C200           [21] gettable   3   1   266  ; "pitch"
2702  1D410100           [22] getglobal  4   5        ; math
2706  0E814102           [23] gettable   4   4   262  ; -2040962569
270A  59C10100           [24] loadk      5   7        ; 0
270E  99010200           [25] loadk      6   8        ; 0
2712  22818001           [26] call       4   3   2  
2716  04414202           [27] mul        4   4   265  ; 0
271A  C3008101           [28] add        3   3   4  
271E  8CC00085           [29] settable   2   266 3    ; "pitch"
2722  E4C04200           [30] self       3   0   267  ; 1352138124
2726  52010001           [31] move       5   2      
272A  E2408001           [32] call       3   3   1  
272E  DD000000           [33] getglobal  3   0        ; 538022378
2732  1D410100           [34] getglobal  4   5        ; math
2736  0E814102           [35] gettable   4   4   262  ; -2040962569
273A  59010300           [36] loadk      5   12       ; 0
273E  99410300           [37] loadk      6   13       ; 0
2742  22018001           [38] call       4   3   0  
2746  E2400000           [39] call       3   0   1  
274A  1A40F77F           [40] jmp        -34          ; to [7]
274E  1E008000           [41] return     0   1      
                         * constants:
2752  0E                 sizek (14)
2753  01                 const type 3
2754  EA911120           const [0]: (538022378)
2758  03                 const type 3
2759  00000000           const [1]: (0)
275D  01                 const type 3
275E  49783AF2           const [2]: (-231049143)
2762  01                 const type 3
2763  65770E40           const [3]: (1074689893)
2767  04                 const type 4
2768  08                 string size (8)
2769  68656164696E6700   "heading\0"
                         const [4]: "heading"
2771  04                 const type 4
2772  05                 string size (5)
2773  6D61746800         "math\0"
                         const [5]: "math"
2778  01                 const type 3
2779  F7615986           const [6]: (-2040962569)
277D  03                 const type 3
277E  000080BF           const [7]: (0)
2782  03                 const type 3
2783  0000803F           const [8]: (0)
2787  03                 const type 3
2788  00003442           const [9]: (0)
278C  04                 const type 4
278D  06                 string size (6)
278E  706974636800       "pitch\0"
                         const [10]: "pitch"
2794  01                 const type 3
2795  8CFD9750           const [11]: (1352138124)
2799  03                 const type 3
279A  0000803E           const [12]: (0)
279E  03                 const type 3
279F  0000C03F           const [13]: (0)
                         * functions:
27A3  00                 sizep (0)
                         * lines:
27A4  29                 sizelineinfo (41)
                         [pc] (line)
27A5  44                 [01] (68)
27A6  01                 [02] (68)
27A7  00                 [03] (68)
27A8  00                 [04] (69)
27A9  44                 [05] (69)
27AA  01                 [06] (70)
27AB  00                 [07] (71)
27AC  00                 [08] (71)
27AD  44                 [09] (71)
27AE  01                 [10] (71)
27AF  00                 [11] (71)
27B0  00                 [12] (72)
27B1  45                 [13] (72)
27B2  01                 [14] (72)
27B3  00                 [15] (72)
27B4  00                 [16] (72)
27B5  45                 [17] (72)
27B6  01                 [18] (72)
27B7  00                 [19] (72)
27B8  00                 [20] (72)
27B9  46                 [21] (73)
27BA  01                 [22] (73)
27BB  00                 [23] (73)
27BC  00                 [24] (73)
27BD  47                 [25] (73)
27BE  01                 [26] (73)
27BF  00                 [27] (73)
27C0  00                 [28] (73)
27C1  47                 [29] (73)
27C2  01                 [30] (74)
27C3  00                 [31] (74)
27C4  00                 [32] (74)
27C5  47                 [33] (75)
27C6  01                 [34] (75)
27C7  00                 [35] (75)
27C8  00                 [36] (75)
27C9  47                 [37] (75)
27CA  01                 [38] (75)
27CB  00                 [39] (75)
27CC  00                 [40] (75)
27CD  47                 [41] (77)
                         * locals:
2849  00                 sizelocvars (0)
                         * upvalues:
284A  00                 sizeupvalues (0)
                         ** end of function **

                         
284B                     ** function [12] definition (level 2)
                         ** start of function **
284B  00                 string size (0)
                         source name: (none)
284D  02                 line defined (335)
284E  DE                 last line defined (350)
284F  02                 nups (1)
2850  01                 numparams (1)
2851  01                 is_vararg (0)
2852  00                 maxstacksize (11)
                         * code:
2854  3F                 sizecode (63)
2855  5D000000           [01] getglobal  1   0        ; 538022378
2859  99400000           [02] loadk      2   1        ; 0
285D  62400001           [03] call       1   2   1  
2861  64804000           [04] self       1   0   258  ; -1870903749
2865  62800001           [05] call       1   2   2  
2869  9DC00000           [06] getglobal  2   3        ; gRegion
286D  A4004101           [07] self       2   2   260  ; -1084394954
2871  13010000           [08] getupval   4   0      
2875  64414100           [09] self       5   0   261  ; 196800914
2879  62810001           [10] call       5   2   2  
287D  99810100           [11] loadk      6   6        ; 0
2881  A2808002           [12] call       2   5   2  
2885  DDC00100           [13] getglobal  3   7        ; 1074689893
2889  12018000           [14] move       4   1      
288D  E2800001           [15] call       3   2   2  
2891  D8400000           [16] test       3       1    ; to [18] if false
2895  1A000B80           [17] jmp        45           ; to [63]
2899  DDC00100           [18] getglobal  3   7        ; 1074689893
289D  12010001           [19] move       4   2      
28A1  E2800001           [20] call       3   2   2  
28A5  D8400000           [21] test       3       1    ; to [23] if false
28A9  1AC00980           [22] jmp        40           ; to [63]
28AD  E4004201           [23] self       3   2   264  ; -1421644046
28B1  5D410200           [24] getglobal  5   9        ; particleType
28B5  9D810200           [25] getglobal  6   10       ; EMPTY_SYMBOL
28B9  E2400002           [26] call       3   4   1  
28BD  E400C200           [27] self       3   1   264  ; -1421644046
28C1  5DC10200           [28] getglobal  5   11       ; beamType
28C5  9D010300           [29] getglobal  6   12       ; -332969190
28C9  D9410300           [30] loadk      7   13       ; "GAME_R1_ARM1"
28CD  A2810001           [31] call       6   2   2  
28D1  DD810300           [32] getglobal  7   14       ; ZERO_VECTOR
28D5  1DC20300           [33] getglobal  8   15       ; ZERO_ROTATION
28D9  52020000           [34] move       9   0      
28DD  E2808003           [35] call       3   7   2  
28E1  1DC10100           [36] getglobal  4   7        ; 1074689893
28E5  52018001           [37] move       5   3      
28E9  22810001           [38] call       4   2   2  
28ED  18410000           [39] test       4       1    ; to [41] if false
28F1  1AC00080           [40] jmp        4            ; to [45]
28F5  2401C401           [41] self       4   3   272  ; -408095485
28F9  92010001           [42] move       6   2      
28FD  DD810200           [43] getglobal  7   10       ; EMPTY_SYMBOL
2901  22410002           [44] call       4   4   1  
2905  2401C200           [45] self       4   1   264  ; -1421644046
2909  9DC10200           [46] getglobal  6   11       ; beamType
290D  DD010300           [47] getglobal  7   12       ; -332969190
2911  19420400           [48] loadk      8   17       ; "GAME_L1_ARM1"
2915  E2810001           [49] call       7   2   2  
2919  1D820300           [50] getglobal  8   14       ; ZERO_VECTOR
291D  5DC20300           [51] getglobal  9   15       ; ZERO_ROTATION
2921  92020000           [52] move       10  0      
2925  22818003           [53] call       4   7   2  
2929  5DC10100           [54] getglobal  5   7        ; 1074689893
292D  92010002           [55] move       6   4      
2931  62810001           [56] call       5   2   2  
2935  58410000           [57] test       5       1    ; to [59] if false
2939  1AC00080           [58] jmp        4            ; to [63]
293D  64014402           [59] self       5   4   272  ; -408095485
2941  D2010001           [60] move       7   2      
2945  1D820200           [61] getglobal  8   10       ; EMPTY_SYMBOL
2949  62410002           [62] call       5   4   1  
294D  1E008000           [63] return     0   1      
                         * constants:
2951  12                 sizek (18)
2952  01                 const type 3
2953  EA911120           const [0]: (538022378)
2957  03                 const type 3
2958  00000000           const [1]: (0)
295C  01                 const type 3
295D  3B467C90           const [2]: (-1870903749)
2961  04                 const type 4
2962  08                 string size (8)
2963  67526567696F6E00   "gRegion\0"
                         const [3]: "gRegion"
296B  01                 const type 3
296C  36725DBF           const [4]: (-1084394954)
2970  01                 const type 3
2971  92F1BA0B           const [5]: (196800914)
2975  03                 const type 3
2976  00002041           const [6]: (0)
297A  01                 const type 3
297B  65770E40           const [7]: (1074689893)
297F  01                 const type 3
2980  F26E43AB           const [8]: (-1421644046)
2984  04                 const type 4
2985  0D                 string size (13)
2986  7061727469636C65+  "particle"
298E  5479706500         "Type\0"
                         const [9]: "particleType"
2993  04                 const type 4
2994  0D                 string size (13)
2995  454D5054595F5359+  "EMPTY_SY"
299D  4D424F4C00         "MBOL\0"
                         const [10]: "EMPTY_SYMBOL"
29A2  04                 const type 4
29A3  09                 string size (9)
29A4  6265616D54797065+  "beamType"
29AC  00                 "\0"
                         const [11]: "beamType"
29AD  01                 const type 3
29AE  1A4B27EC           const [12]: (-332969190)
29B2  04                 const type 4
29B3  0D                 string size (13)
29B4  47414D455F52315F+  "GAME_R1_"
29BC  41524D3100         "ARM1\0"
                         const [13]: "GAME_R1_ARM1"
29C1  04                 const type 4
29C2  0C                 string size (12)
29C3  5A45524F5F564543+  "ZERO_VEC"
29CB  544F5200           "TOR\0"
                         const [14]: "ZERO_VECTOR"
29CF  04                 const type 4
29D0  0E                 string size (14)
29D1  5A45524F5F524F54+  "ZERO_ROT"
29D9  4154494F4E00       "ATION\0"
                         const [15]: "ZERO_ROTATION"
29DF  01                 const type 3
29E0  03F5ACE7           const [16]: (-408095485)
29E4  04                 const type 4
29E5  0D                 string size (13)
29E6  47414D455F4C315F+  "GAME_L1_"
29EE  41524D3100         "ARM1\0"
                         const [17]: "GAME_L1_ARM1"
                         * functions:
29F3  00                 sizep (0)
                         * lines:
29F4  3F                 sizelineinfo (63)
                         [pc] (line)
29F5  50                 [01] (80)
29F6  01                 [02] (80)
29F7  00                 [03] (80)
29F8  00                 [04] (81)
29F9  50                 [05] (81)
29FA  01                 [06] (82)
29FB  00                 [07] (82)
29FC  00                 [08] (82)
29FD  50                 [09] (82)
29FE  01                 [10] (82)
29FF  00                 [11] (82)
2A00  00                 [12] (82)
2A01  51                 [13] (83)
2A02  01                 [14] (83)
2A03  00                 [15] (83)
2A04  00                 [16] (83)
2A05  51                 [17] (83)
2A06  01                 [18] (83)
2A07  00                 [19] (83)
2A08  00                 [20] (83)
2A09  52                 [21] (83)
2A0A  01                 [22] (83)
2A0B  00                 [23] (84)
2A0C  00                 [24] (84)
2A0D  52                 [25] (84)
2A0E  01                 [26] (84)
2A0F  00                 [27] (85)
2A10  00                 [28] (85)
2A11  52                 [29] (85)
2A12  01                 [30] (85)
2A13  00                 [31] (85)
2A14  00                 [32] (85)
2A15  52                 [33] (85)
2A16  01                 [34] (85)
2A17  00                 [35] (85)
2A18  00                 [36] (86)
2A19  52                 [37] (86)
2A1A  01                 [38] (86)
2A1B  00                 [39] (86)
2A1C  00                 [40] (86)
2A1D  52                 [41] (87)
2A1E  01                 [42] (87)
2A1F  00                 [43] (87)
2A20  00                 [44] (87)
2A21  52                 [45] (89)
2A22  01                 [46] (89)
2A23  00                 [47] (89)
2A24  00                 [48] (89)
2A25  53                 [49] (89)
2A26  01                 [50] (89)
2A27  00                 [51] (89)
2A28  00                 [52] (89)
2A29  53                 [53] (89)
2A2A  01                 [54] (90)
2A2B  00                 [55] (90)
2A2C  00                 [56] (90)
2A2D  53                 [57] (90)
2A2E  01                 [58] (90)
2A2F  00                 [59] (91)
2A30  00                 [60] (91)
2A31  53                 [61] (91)
2A32  01                 [62] (91)
2A33  00                 [63] (94)
                         * locals:
2AF1  00                 sizelocvars (0)
                         * upvalues:
2AF2  00                 sizeupvalues (0)
                         ** end of function **

                         
2AF3                     ** function [13] definition (level 2)
                         ** start of function **
2AF3  00                 string size (0)
                         source name: (none)
2AF5  02                 line defined (352)
2AF6  E8                 last line defined (360)
2AF7  02                 nups (1)
2AF8  01                 numparams (1)
2AF9  01                 is_vararg (0)
2AFA  00                 maxstacksize (11)
                         * code:
2AFC  22                 sizecode (34)
2AFD  59000000           [01] loadk      1   0        ; 0
2B01  9D400000           [02] getglobal  2   1        ; -1941280958
2B05  D9800000           [03] loadk      3   2        ; -102
2B09  19C10000           [04] loadk      4   3        ; -113
2B0D  A2808001           [05] call       2   3   2  
fail op	21
2B11  1500C100           [06] concat     0   1   260
2B15  1A400680           [07] jmp        26           ; to [34]
2B19  DD400100           [08] getglobal  3   5        ; 1074689893
2B1D  12010000           [09] move       4   0      
2B21  E2800001           [10] call       3   2   2  
2B25  D8400000           [11] test       3       1    ; to [13] if false
2B29  1A000580           [12] jmp        21           ; to [34]
2B2D  E4804100           [13] self       3   0   262  ; -786111647
2B31  53010000           [14] getupval   5   0      
2B35  9DC10100           [15] getglobal  6   7        ; -1828500651
2B39  DD010200           [16] getglobal  7   8        ; projStartFadeX
2B3D  1D420200           [17] getglobal  8   9        ; projEndFadeX
2B41  52028000           [18] move       9   1      
2B45  A2810002           [19] call       6   4   2  
2B49  DDC10100           [20] getglobal  7   7        ; -1828500651
2B4D  1D820200           [21] getglobal  8   10       ; projStartFadeY
2B51  5DC20200           [22] getglobal  9   11       ; projEndFadeY
2B55  92028000           [23] move       10  1      
2B59  E2010002           [24] call       7   4   0  
2B5D  E2400000           [25] call       3   0   1  
2B61  DD000300           [26] getglobal  3   12       ; 1289681407
2B65  E2808000           [27] call       3   1   2  
2B69  C4808001           [28] mul        3   3   2  
2B6D  43C08000           [29] add        1   1   3  
2B71  DD400300           [30] getglobal  3   13       ; 538022378
2B75  19010000           [31] loadk      4   0        ; 0
2B79  E2400001           [32] call       3   2   1  
2B7D  1AC0F87F           [33] jmp        -28          ; to [6]
2B81  1E008000           [34] return     0   1      
                         * constants:
2B85  0E                 sizek (14)
2B86  03                 const type 3
2B87  00000000           const [0]: (0)
2B8B  01                 const type 3
2B8C  42674A8C           const [1]: (-1941280958)
2B90  03                 const type 3
2B91  9A99193E           const [2]: (-102)
2B95  03                 const type 3
2B96  8FC2753E           const [3]: (-113)
2B9A  03                 const type 3
2B9B  0000803F           const [4]: (0)
2B9F  01                 const type 3
2BA0  65770E40           const [5]: (1074689893)
2BA4  01                 const type 3
2BA5  61E324D1           const [6]: (-786111647)
2BA9  01                 const type 3
2BAA  554B0393           const [7]: (-1828500651)
2BAE  04                 const type 4
2BAF  0F                 string size (15)
2BB0  70726F6A53746172+  "projStar"
2BB8  74466164655800     "tFadeX\0"
                         const [8]: "projStartFadeX"
2BBF  04                 const type 4
2BC0  0D                 string size (13)
2BC1  70726F6A456E6446+  "projEndF"
2BC9  6164655800         "adeX\0"
                         const [9]: "projEndFadeX"
2BCE  04                 const type 4
2BCF  0F                 string size (15)
2BD0  70726F6A53746172+  "projStar"
2BD8  74466164655900     "tFadeY\0"
                         const [10]: "projStartFadeY"
2BDF  04                 const type 4
2BE0  0D                 string size (13)
2BE1  70726F6A456E6446+  "projEndF"
2BE9  6164655900         "adeY\0"
                         const [11]: "projEndFadeY"
2BEE  01                 const type 3
2BEF  FFF9DE4C           const [12]: (1289681407)
2BF3  01                 const type 3
2BF4  EA911120           const [13]: (538022378)
                         * functions:
2BF8  00                 sizep (0)
                         * lines:
2BF9  22                 sizelineinfo (34)
                         [pc] (line)
2BFA  61                 [01] (97)
2BFB  01                 [02] (98)
2BFC  00                 [03] (98)
2BFD  00                 [04] (98)
2BFE  62                 [05] (98)
2BFF  01                 [06] (99)
2C00  00                 [07] (99)
2C01  00                 [08] (99)
2C02  62                 [09] (99)
2C03  01                 [10] (99)
2C04  00                 [11] (99)
2C05  00                 [12] (99)
2C06  62                 [13] (100)
2C07  01                 [14] (100)
2C08  00                 [15] (100)
2C09  00                 [16] (100)
2C0A  62                 [17] (100)
2C0B  01                 [18] (100)
2C0C  00                 [19] (100)
2C0D  00                 [20] (100)
2C0E  63                 [21] (100)
2C0F  01                 [22] (100)
2C10  00                 [23] (100)
2C11  00                 [24] (100)
2C12  63                 [25] (100)
2C13  01                 [26] (101)
2C14  00                 [27] (101)
2C15  00                 [28] (101)
2C16  63                 [29] (101)
2C17  01                 [30] (102)
2C18  00                 [31] (102)
2C19  00                 [32] (102)
2C1A  63                 [33] (102)
2C1B  01                 [34] (104)
                         * locals:
2C82  00                 sizelocvars (0)
                         * upvalues:
2C83  00                 sizeupvalues (0)
                         ** end of function **

                         
2C84                     ** function [14] definition (level 2)
                         ** start of function **
2C84  00                 string size (0)
                         source name: (none)
2C86  02                 line defined (362)
2C87  F4                 last line defined (372)
2C88  02                 nups (1)
2C89  01                 numparams (1)
2C8A  01                 is_vararg (0)
2C8B  00                 maxstacksize (11)
                         * code:
2C8D  27                 sizecode (39)
2C8E  64004000           [01] self       1   0   256  ; -704974830
2C92  62800001           [02] call       1   2   2  
2C96  9D400000           [03] getglobal  2   1        ; 1074689893
2C9A  D2008000           [04] move       3   1      
2C9E  A2800001           [05] call       2   2   2  
2CA2  98000000           [06] test       2       0    ; to [8] if true
2CA6  1A000080           [07] jmp        1            ; to [9]
2CAA  1E008000           [08] return     0   1      
2CAE  9D800000           [09] getglobal  2   2        ; gRegion
2CB2  A4C04001           [10] self       2   2   259  ; -1084394954
2CB6  13010000           [11] getupval   4   0      
2CBA  64014100           [12] self       5   0   260  ; 196800914
2CBE  62810001           [13] call       5   2   2  
2CC2  99410100           [14] loadk      6   5        ; 0
2CC6  A2808002           [15] call       2   5   2  
2CCA  DD400000           [16] getglobal  3   1        ; 1074689893
2CCE  12010001           [17] move       4   2      
2CD2  E2800001           [18] call       3   2   2  
2CD6  D8400000           [19] test       3       1    ; to [21] if false
2CDA  1A400480           [20] jmp        18           ; to [39]
2CDE  E4804101           [21] self       3   2   262  ; -1421644046
2CE2  5DC10100           [22] getglobal  5   7        ; particleType
2CE6  9D010200           [23] getglobal  6   8        ; EMPTY_SYMBOL
2CEA  DD410200           [24] getglobal  7   9        ; 572299008
2CEE  19820200           [25] loadk      8   10       ; 0
2CF2  59C20200           [26] loadk      9   11       ; -51
2CF6  99820200           [27] loadk      10  10       ; 0
2CFA  E2010002           [28] call       7   4   0  
2CFE  E2400000           [29] call       3   0   1  
2D02  E4804101           [30] self       3   2   262  ; -1421644046
2D06  5DC10100           [31] getglobal  5   7        ; particleType
2D0A  9D010200           [32] getglobal  6   8        ; EMPTY_SYMBOL
2D0E  DD410200           [33] getglobal  7   9        ; 572299008
2D12  19020300           [34] loadk      8   12       ; -113
2D16  59420300           [35] loadk      9   13       ; 10
2D1A  99820200           [36] loadk      10  10       ; 0
2D1E  E2010002           [37] call       7   4   0  
2D22  E2400000           [38] call       3   0   1  
2D26  1E008000           [39] return     0   1      
                         * constants:
2D2A  0E                 sizek (14)
2D2B  01                 const type 3
2D2C  12F0FAD5           const [0]: (-704974830)
2D30  01                 const type 3
2D31  65770E40           const [1]: (1074689893)
2D35  04                 const type 4
2D36  08                 string size (8)
2D37  67526567696F6E00   "gRegion\0"
                         const [2]: "gRegion"
2D3F  01                 const type 3
2D40  36725DBF           const [3]: (-1084394954)
2D44  01                 const type 3
2D45  92F1BA0B           const [4]: (196800914)
2D49  03                 const type 3
2D4A  00002041           const [5]: (0)
2D4E  01                 const type 3
2D4F  F26E43AB           const [6]: (-1421644046)
2D53  04                 const type 4
2D54  0D                 string size (13)
2D55  7061727469636C65+  "particle"
2D5D  5479706500         "Type\0"
                         const [7]: "particleType"
2D62  04                 const type 4
2D63  0D                 string size (13)
2D64  454D5054595F5359+  "EMPTY_SY"
2D6C  4D424F4C00         "MBOL\0"
                         const [8]: "EMPTY_SYMBOL"
2D71  01                 const type 3
2D72  00971C22           const [9]: (572299008)
2D76  03                 const type 3
2D77  00000000           const [10]: (0)
2D7B  03                 const type 3
2D7C  CDCC4C3E           const [11]: (-51)
2D80  03                 const type 3
2D81  8FC2F53D           const [12]: (-113)
2D85  03                 const type 3
2D86  0AD723BE           const [13]: (10)
                         * functions:
2D8A  00                 sizep (0)
                         * lines:
2D8B  27                 sizelineinfo (39)
                         [pc] (line)
2D8C  6B                 [01] (107)
2D8D  01                 [02] (107)
2D8E  00                 [03] (108)
2D8F  00                 [04] (108)
2D90  6B                 [05] (108)
2D91  01                 [06] (108)
2D92  00                 [07] (108)
2D93  00                 [08] (109)
2D94  6C                 [09] (111)
2D95  01                 [10] (111)
2D96  00                 [11] (111)
2D97  00                 [12] (111)
2D98  6C                 [13] (111)
2D99  01                 [14] (111)
2D9A  00                 [15] (111)
2D9B  00                 [16] (112)
2D9C  6C                 [17] (112)
2D9D  01                 [18] (112)
2D9E  00                 [19] (112)
2D9F  00                 [20] (112)
2DA0  6C                 [21] (113)
2DA1  01                 [22] (113)
2DA2  00                 [23] (113)
2DA3  00                 [24] (113)
2DA4  6C                 [25] (113)
2DA5  01                 [26] (113)
2DA6  00                 [27] (113)
2DA7  00                 [28] (113)
2DA8  6D                 [29] (113)
2DA9  01                 [30] (114)
2DAA  00                 [31] (114)
2DAB  00                 [32] (114)
2DAC  6F                 [33] (114)
2DAD  01                 [34] (114)
2DAE  00                 [35] (114)
2DAF  00                 [36] (114)
2DB0  6F                 [37] (114)
2DB1  01                 [38] (114)
2DB2  00                 [39] (116)
                         * locals:
2E28  00                 sizelocvars (0)
                         * upvalues:
2E29  00                 sizeupvalues (0)
                         ** end of function **

                         
2E2A                     ** function [15] definition (level 2)
                         ** start of function **
2E2A  00                 string size (0)
                         source name: (none)
2E2C  02                 line defined (374)
2E2D  8F                 last line defined (399)
2E2E  03                 nups (2)
2E2F  02                 numparams (2)
2E30  02                 is_vararg (0)
2E31  00                 maxstacksize (10)
                         * code:
2E33  43                 sizecode (67)
2E34  9D000000           [01] getglobal  2   0        ; gRegion
2E38  A4404001           [02] self       2   2   257  ; -1875307917
2E3C  1D810000           [03] getglobal  4   2        ; -332969190
2E40  59C10000           [04] loadk      5   3        ; "CameraWeatherDeco"
2E44  22010001           [05] call       4   2   0  
2E48  A2800000           [06] call       2   0   2  
2E4C  DD000100           [07] getglobal  3   4        ; 1074689893
2E50  12010001           [08] move       4   2      
2E54  E2800001           [09] call       3   2   2  
2E58  D8400000           [10] test       3       1    ; to [12] if false
2E5C  1A800280           [11] jmp        11           ; to [23]
2E60  DD400100           [12] getglobal  3   5        ; -1596245111
2E64  24814100           [13] self       4   0   262  ; -231049143
2E68  22010001           [14] call       4   2   0  
2E6C  E2800000           [15] call       3   0   2  
2E70  24C14101           [16] self       4   2   263  ; -786111647
2E74  93010000           [17] getupval   6   0      
2E78  CE01C201           [18] gettable   7   3   264  ; "x"
2E7C  0E42C201           [19] gettable   8   3   265  ; "y"
2E80  4E82C201           [20] gettable   9   3   266  ; "z"
2E84  22410003           [21] call       4   6   1  
2E88  1A000080           [22] jmp        1            ; to [24]
2E8C  1E008000           [23] return     0   1      
2E90  24C14201           [24] self       4   2   267  ; -1411936111
2E94  93018000           [25] getupval   6   1      
2E98  D9010300           [26] loadk      7   12       ; 0
2E9C  22810002           [27] call       4   4   2  
2EA0  57018000           [28] loadbool   5   1   0    ; true
2EA4  9D010100           [29] getglobal  6   4        ; 1074689893
2EA8  D2010001           [30] move       7   2      
2EAC  A2810001           [31] call       6   2   2  
2EB0  98410000           [32] test       6       1    ; to [34] if false
2EB4  1A000880           [33] jmp        33           ; to [67]
2EB8  9D010100           [34] getglobal  6   4        ; 1074689893
2EBC  D2018000           [35] move       7   1      
2EC0  A2810001           [36] call       6   2   2  
2EC4  98410000           [37] test       6       1    ; to [39] if false
2EC8  1AC00680           [38] jmp        28           ; to [67]
2ECC  A4414300           [39] self       6   0   269  ; 238527435
2ED0  12028000           [40] move       8   1      
2ED4  A2818001           [41] call       6   3   2  
2ED8  52010003           [42] move       5   6      
2EDC  58010000           [43] test       5       0    ; to [45] if true
2EE0  1A400080           [44] jmp        2            ; to [47]
2EE4  03814302           [45] add        4   4   270  ; 10
2EE8  1A000080           [46] jmp        1            ; to [48]
2EEC  0D814302           [47] sub        4   4   270  ; 10
2EF0  9DC10300           [48] getglobal  6   15       ; 1668611480
2EF4  D2010002           [49] move       7   4      
2EF8  19020400           [50] loadk      8   16       ; 0
2EFC  59020300           [51] loadk      9   12       ; 0
2F00  A2810002           [52] call       6   4   2  
2F04  12010003           [53] move       4   6      
2F08  A4C14101           [54] self       6   2   263  ; -786111647
2F0C  13028000           [55] getupval   8   1      
2F10  52020002           [56] move       9   4      
2F14  A2410002           [57] call       6   4   1  
2F18  58410000           [58] test       5       1    ; to [60] if false
2F1C  1A800080           [59] jmp        3            ; to [63]
fail op	33
2F20  21004402           [60] tforloop   0       272  ; to [62] if exit
2F24  1A000080           [61] jmp        1            ; to [63]
2F28  1E008000           [62] return     0   1      
2F2C  9D410400           [63] getglobal  6   17       ; 538022378
2F30  D9010400           [64] loadk      7   16       ; 0
2F34  A2410001           [65] call       6   2   1  
2F38  1A40F67F           [66] jmp        -38          ; to [29]
2F3C  1E008000           [67] return     0   1      
                         * constants:
2F40  12                 sizek (18)
2F41  04                 const type 4
2F42  08                 string size (8)
2F43  67526567696F6E00   "gRegion\0"
                         const [0]: "gRegion"
2F4B  01                 const type 3
2F4C  73123990           const [1]: (-1875307917)
2F50  01                 const type 3
2F51  1A4B27EC           const [2]: (-332969190)
2F55  04                 const type 4
2F56  12                 string size (18)
2F57  43616D6572615765+  "CameraWe"
2F5F  6174686572446563+  "atherDec"
2F67  6F00               "o\0"
                         const [3]: "CameraWeatherDeco"
2F69  01                 const type 3
2F6A  65770E40           const [4]: (1074689893)
2F6E  01                 const type 3
2F6F  893BDBA0           const [5]: (-1596245111)
2F73  01                 const type 3
2F74  49783AF2           const [6]: (-231049143)
2F78  01                 const type 3
2F79  61E324D1           const [7]: (-786111647)
2F7D  04                 const type 4
2F7E  02                 string size (2)
2F7F  7800               "x\0"
                         const [8]: "x"
2F81  04                 const type 4
2F82  02                 string size (2)
2F83  7900               "y\0"
                         const [9]: "y"
2F85  04                 const type 4
2F86  02                 string size (2)
2F87  7A00               "z\0"
                         const [10]: "z"
2F89  01                 const type 3
2F8A  9190D7AB           const [11]: (-1411936111)
2F8E  03                 const type 3
2F8F  0000803F           const [12]: (0)
2F93  01                 const type 3
2F94  CBA3370E           const [13]: (238527435)
2F98  03                 const type 3
2F99  0AD7A33D           const [14]: (10)
2F9D  01                 const type 3
2F9E  98FD7463           const [15]: (1668611480)
2FA2  03                 const type 3
2FA3  00000000           const [16]: (0)
2FA7  01                 const type 3
2FA8  EA911120           const [17]: (538022378)
                         * functions:
2FAC  00                 sizep (0)
                         * lines:
2FAD  43                 sizelineinfo (67)
                         [pc] (line)
2FAE  78                 [01] (120)
2FAF  01                 [02] (120)
2FB0  00                 [03] (120)
2FB1  00                 [04] (120)
2FB2  78                 [05] (120)
2FB3  01                 [06] (120)
2FB4  00                 [07] (121)
2FB5  00                 [08] (121)
2FB6  78                 [09] (121)
2FB7  01                 [10] (121)
2FB8  00                 [11] (121)
2FB9  00                 [12] (122)
2FBA  78                 [13] (122)
2FBB  01                 [14] (122)
2FBC  00                 [15] (122)
2FBD  00                 [16] (123)
2FBE  78                 [17] (123)
2FBF  01                 [18] (123)
2FC0  00                 [19] (123)
2FC1  00                 [20] (123)
2FC2  78                 [21] (123)
2FC3  01                 [22] (123)
2FC4  00                 [23] (125)
2FC5  00                 [24] (127)
2FC6  79                 [25] (127)
2FC7  01                 [26] (127)
2FC8  00                 [27] (127)
2FC9  00                 [28] (-128)
2FCA  79                 [29] (-127)
2FCB  01                 [30] (-127)
2FCC  00                 [31] (-127)
2FCD  00                 [32] (-127)
2FCE  79                 [33] (-127)
2FCF  01                 [34] (-127)
2FD0  00                 [35] (-127)
2FD1  00                 [36] (-127)
2FD2  79                 [37] (-127)
2FD3  01                 [38] (-127)
2FD4  00                 [39] (-126)
2FD5  00                 [40] (-126)
2FD6  79                 [41] (-126)
2FD7  01                 [42] (-126)
2FD8  00                 [43] (-125)
2FD9  00                 [44] (-125)
2FDA  7A                 [45] (-124)
2FDB  01                 [46] (-124)
2FDC  00                 [47] (-122)
2FDD  00                 [48] (-120)
2FDE  7A                 [49] (-120)
2FDF  01                 [50] (-120)
2FE0  00                 [51] (-120)
2FE1  00                 [52] (-120)
2FE2  7A                 [53] (-120)
2FE3  01                 [54] (-119)
2FE4  00                 [55] (-119)
2FE5  00                 [56] (-119)
2FE6  7A                 [57] (-119)
2FE7  01                 [58] (-118)
2FE8  00                 [59] (-118)
2FE9  00                 [60] (-118)
2FEA  7B                 [61] (-118)
2FEB  01                 [62] (-117)
2FEC  00                 [63] (-115)
2FED  00                 [64] (-115)
2FEE  7B                 [65] (-115)
2FEF  01                 [66] (-115)
2FF0  00                 [67] (-113)
                         * locals:
30BA  00                 sizelocvars (0)
                         * upvalues:
30BB  00                 sizeupvalues (0)
                         ** end of function **

                         
30BC                     ** function [16] definition (level 2)
                         ** start of function **
30BC  00                 string size (0)
                         source name: (none)
30BE  03                 line defined (401)
30BF  95                 last line defined (405)
30C0  03                 nups (0)
30C1  00                 numparams (1)
30C2  01                 is_vararg (0)
30C3  00                 maxstacksize (8)
                         * code:
30C5  10                 sizecode (16)
30C6  5D000000           [01] getglobal  1   0        ; 1074689893
30CA  9D400000           [02] getglobal  2   1        ; materialRes
30CE  62800001           [03] call       1   2   2  
30D2  58400000           [04] test       1       1    ; to [6] if false
30D6  1A400280           [05] jmp        10           ; to [16]
30DA  5D400000           [06] getglobal  1   1        ; materialRes
30DE  6480C000           [07] self       1   1   258  ; -1795477990
30E2  DDC00000           [08] getglobal  3   3        ; -332969190
30E6  19010100           [09] loadk      4   4        ; "MultiplyColor"
30EA  E2800001           [10] call       3   2   2  
30EE  1D410100           [11] getglobal  4   5        ; materialVal
30F2  59810100           [12] loadk      5   6        ; 0
30F6  99810100           [13] loadk      6   6        ; 0
30FA  D9810100           [14] loadk      7   6        ; 0
30FE  62408003           [15] call       1   7   1  
3102  1E008000           [16] return     0   1      
                         * constants:
3106  07                 sizek (7)
3107  01                 const type 3
3108  65770E40           const [0]: (1074689893)
310C  04                 const type 4
310D  0C                 string size (12)
310E  6D6174657269616C+  "material"
3116  52657300           "Res\0"
                         const [1]: "materialRes"
311A  01                 const type 3
311B  1A2EFB94           const [2]: (-1795477990)
311F  01                 const type 3
3120  1A4B27EC           const [3]: (-332969190)
3124  04                 const type 4
3125  0E                 string size (14)
3126  4D756C7469706C79+  "Multiply"
312E  436F6C6F7200       "Color\0"
                         const [4]: "MultiplyColor"
3134  04                 const type 4
3135  0C                 string size (12)
3136  6D6174657269616C+  "material"
313E  56616C00           "Val\0"
                         const [5]: "materialVal"
3142  03                 const type 3
3143  0000803F           const [6]: (0)
                         * functions:
3147  00                 sizep (0)
                         * lines:
3148  10                 sizelineinfo (16)
                         [pc] (line)
3149  92                 [01] (-110)
314A  01                 [02] (-110)
314B  00                 [03] (-110)
314C  00                 [04] (-110)
314D  92                 [05] (-110)
314E  01                 [06] (-109)
314F  00                 [07] (-109)
3150  00                 [08] (-109)
3151  92                 [09] (-109)
3152  01                 [10] (-109)
3153  00                 [11] (-109)
3154  00                 [12] (-109)
3155  92                 [13] (-109)
3156  01                 [14] (-109)
3157  00                 [15] (-109)
3158  00                 [16] (-107)
                         * locals:
3189  00                 sizelocvars (0)
                         * upvalues:
318A  00                 sizeupvalues (0)
                         ** end of function **

                         
318B                     ** function [17] definition (level 2)
                         ** start of function **
318B  00                 string size (0)
                         source name: (none)
318D  03                 line defined (407)
318E  A4                 last line defined (420)
318F  03                 nups (0)
3190  00                 numparams (0)
3191  00                 is_vararg (0)
3192  00                 maxstacksize (5)
                         * code:
3194  29                 sizecode (41)
3195  1D000000           [01] getglobal  0   0        ; _T
3199  0E404000           [02] gettable   0   0   257  ; "weatherVolCount"
fail op	35
319D  23804000           [03] close      0  
31A1  1A400080           [04] jmp        2            ; to [7]
31A5  1D000000           [05] getglobal  0   0        ; _T
31A9  0CC0C080           [06] settable   0   257 259  ; "weatherVolCount" 0
31AD  1D000100           [07] getglobal  0   4        ; visible
31B1  18000000           [08] test       0       0    ; to [10] if true
31B5  1A400180           [09] jmp        6            ; to [16]
31B9  1D000000           [10] getglobal  0   0        ; _T
31BD  5D000000           [11] getglobal  1   0        ; _T
31C1  4E40C000           [12] gettable   1   1   257  ; "weatherVolCount"
31C5  4D40C100           [13] sub        1   1   261  ; 0
31C9  0C408080           [14] settable   0   257 1    ; "weatherVolCount"
31CD  1A000180           [15] jmp        5            ; to [21]
31D1  1D000000           [16] getglobal  0   0        ; _T
31D5  5D000000           [17] getglobal  1   0        ; _T
31D9  4E40C000           [18] gettable   1   1   257  ; "weatherVolCount"
31DD  4340C100           [19] add        1   1   261  ; 0
31E1  0C408080           [20] settable   0   257 1    ; "weatherVolCount"
31E5  1D800100           [21] getglobal  0   6        ; gRegion
31E9  24C04100           [22] self       0   0   263  ; -1875307917
31ED  9D000200           [23] getglobal  2   8        ; -332969190
31F1  D9400200           [24] loadk      3   9        ; "CameraWeatherDeco"
31F5  A2000001           [25] call       2   2   0  
31F9  22800000           [26] call       0   0   2  
31FD  5D800200           [27] getglobal  1   10       ; 1074689893
3201  92000000           [28] move       2   0      
3205  62800001           [29] call       1   2   2  
3209  58400000           [30] test       1       1    ; to [32] if false
320D  1A000280           [31] jmp        9            ; to [41]
3211  64C04200           [32] self       1   0   267  ; 2109594123
3215  DD000000           [33] getglobal  3   0        ; _T
3219  CE40C001           [34] gettable   3   3   257  ; "weatherVolCount"
fail op	21
321D  5540C101           [35] concat     1   3   261
3221  1A000080           [36] jmp        1            ; to [38]
3225  D7400000           [37] loadbool   3   0   1    ; false, to [39]
3229  D7008000           [38] loadbool   3   1   0    ; true
322D  17010000           [39] loadbool   4   0   0    ; false
3231  62400002           [40] call       1   4   1  
3235  1E008000           [41] return     0   1      
                         * constants:
3239  0C                 sizek (12)
323A  04                 const type 4
323B  03                 string size (3)
323C  5F5400             "_T\0"
                         const [0]: "_T"
323F  04                 const type 4
3240  10                 string size (16)
3241  7765617468657256+  "weatherV"
3249  6F6C436F756E7400   "olCount\0"
                         const [1]: "weatherVolCount"
3251  00                 const type 0
                         const [2]: nil
3252  03                 const type 3
3253  00000000           const [3]: (0)
3257  04                 const type 4
3258  08                 string size (8)
3259  76697369626C6500   "visible\0"
                         const [4]: "visible"
3261  03                 const type 3
3262  0000803F           const [5]: (0)
3266  04                 const type 4
3267  08                 string size (8)
3268  67526567696F6E00   "gRegion\0"
                         const [6]: "gRegion"
3270  01                 const type 3
3271  73123990           const [7]: (-1875307917)
3275  01                 const type 3
3276  1A4B27EC           const [8]: (-332969190)
327A  04                 const type 4
327B  12                 string size (18)
327C  43616D6572615765+  "CameraWe"
3284  6174686572446563+  "atherDec"
328C  6F00               "o\0"
                         const [9]: "CameraWeatherDeco"
328E  01                 const type 3
328F  65770E40           const [10]: (1074689893)
3293  01                 const type 3
3294  0BDABD7D           const [11]: (2109594123)
                         * functions:
3298  00                 sizep (0)
                         * lines:
3299  29                 sizelineinfo (41)
                         [pc] (line)
329A  98                 [01] (-104)
329B  01                 [02] (-104)
329C  00                 [03] (-104)
329D  00                 [04] (-104)
329E  98                 [05] (-103)
329F  01                 [06] (-103)
32A0  00                 [07] (-101)
32A1  00                 [08] (-101)
32A2  98                 [09] (-101)
32A3  01                 [10] (-100)
32A4  00                 [11] (-100)
32A5  00                 [12] (-100)
32A6  98                 [13] (-100)
32A7  01                 [14] (-100)
32A8  00                 [15] (-100)
32A9  00                 [16] (-98)
32AA  99                 [17] (-98)
32AB  01                 [18] (-98)
32AC  00                 [19] (-98)
32AD  00                 [20] (-98)
32AE  99                 [21] (-96)
32AF  01                 [22] (-96)
32B0  00                 [23] (-96)
32B1  00                 [24] (-96)
32B2  9B                 [25] (-96)
32B3  01                 [26] (-96)
32B4  00                 [27] (-95)
32B5  00                 [28] (-95)
32B6  9B                 [29] (-95)
32B7  01                 [30] (-95)
32B8  00                 [31] (-95)
32B9  00                 [32] (-94)
32BA  9B                 [33] (-94)
32BB  01                 [34] (-94)
32BC  00                 [35] (-94)
32BD  00                 [36] (-94)
32BE  9C                 [37] (-94)
32BF  01                 [38] (-94)
32C0  00                 [39] (-94)
32C1  00                 [40] (-94)
32C2  9C                 [41] (-92)
                         * locals:
333E  00                 sizelocvars (0)
                         * upvalues:
333F  00                 sizeupvalues (0)
                         ** end of function **

                         * lines:
3340  78                 sizelineinfo (120)
                         [pc] (line)
3341  1D                 [001] (29)
3342  00                 [002] (29)
3343  00                 [003] (29)
3344  00                 [004] (30)
3345  1D                 [005] (30)
3346  00                 [006] (30)
3347  00                 [007] (31)
3348  00                 [008] (31)
3349  1D                 [009] (31)
334A  00                 [010] (32)
334B  00                 [011] (32)
334C  00                 [012] (32)
334D  1E                 [013] (33)
334E  00                 [014] (33)
334F  00                 [015] (33)
3350  00                 [016] (34)
3351  1E                 [017] (34)
3352  00                 [018] (34)
3353  00                 [019] (35)
3354  00                 [020] (35)
3355  1E                 [021] (35)
3356  00                 [022] (36)
3357  00                 [023] (36)
3358  00                 [024] (36)
3359  1F                 [025] (36)
335A  00                 [026] (36)
335B  00                 [027] (36)
335C  00                 [028] (36)
335D  1F                 [029] (36)
335E  00                 [030] (36)
335F  00                 [031] (36)
3360  00                 [032] (36)
3361  1F                 [033] (36)
3362  00                 [034] (36)
3363  00                 [035] (36)
3364  00                 [036] (36)
3365  20                 [037] (36)
3366  00                 [038] (36)
3367  00                 [039] (36)
3368  00                 [040] (36)
3369  20                 [041] (36)
336A  00                 [042] (38)
336B  00                 [043] (38)
336C  00                 [044] (38)
336D  20                 [045] (39)
336E  00                 [046] (39)
336F  00                 [047] (39)
3370  00                 [048] (39)
3371  21                 [049] (39)
3372  00                 [050] (65)
3373  00                 [051] (65)
3374  00                 [052] (65)
3375  21                 [053] (65)
3376  00                 [054] (41)
3377  00                 [055] (90)
3378  00                 [056] (90)
3379  21                 [057] (67)
337A  00                 [058] (120)
337B  00                 [059] (120)
337C  00                 [060] (120)
337D  22                 [061] (92)
337E  00                 [062] (-85)
337F  00                 [063] (-85)
3380  00                 [064] (-85)
3381  22                 [065] (-85)
3382  00                 [066] (122)
3383  00                 [067] (-60)
3384  00                 [068] (-60)
3385  22                 [069] (-60)
3386  00                 [070] (-60)
3387  00                 [071] (-83)
3388  00                 [072] (-34)
3389  23                 [073] (-34)
338A  00                 [074] (-34)
338B  00                 [075] (-34)
338C  00                 [076] (-58)
338D  23                 [077] (-22)
338E  00                 [078] (-22)
338F  00                 [079] (-32)
3390  00                 [080] (3)
3391  23                 [081] (3)
3392  00                 [082] (3)
3393  00                 [083] (3)
3394  00                 [084] (-20)
3395  24                 [085] (12)
3396  00                 [086] (12)
3397  00                 [087] (5)
3398  00                 [088] (40)
3399  24                 [089] (40)
339A  00                 [090] (14)
339B  00                 [091] (65)
339C  00                 [092] (65)
339D  24                 [093] (42)
339E  00                 [094] (77)
339F  00                 [095] (77)
33A0  00                 [096] (67)
33A1  24                 [097] (94)
33A2  00                 [098] (94)
33A3  00                 [099] (94)
33A4  00                 [100] (79)
33A5  24                 [101] (104)
33A6  00                 [102] (104)
33A7  00                 [103] (104)
33A8  00                 [104] (96)
33A9  24                 [105] (116)
33AA  00                 [106] (116)
33AB  00                 [107] (116)
33AC  00                 [108] (106)
33AD  24                 [109] (-113)
33AE  00                 [110] (-113)
33AF  00                 [111] (-113)
33B0  00                 [112] (-113)
33B1  24                 [113] (118)
33B2  00                 [114] (-107)
33B3  00                 [115] (-107)
33B4  00                 [116] (-111)
33B5  24                 [117] (-92)
33B6  00                 [118] (-92)
33B7  00                 [119] (-105)
33B8  00                 [120] (-92)
                         * locals:
3521  00                 sizelocvars (0)
                         * upvalues:
3522  00                 sizeupvalues (0)
                         ** end of function **

3523                     ** end of chunk **
