1	C:\wlua_dump\path\Lotus\Scripts\EffectsPolarity.lua
Pos   Hex Data           Description or Code
------------------------------------------------------------------------
0000                     ** source chunk: C:\wlua_dump\path\Lotus\Scripts\EffectsPolarity.lua
                         ** global header start **
0000  7F                 header signature: ""
0001  00                 version (major:minor hex digits)
0002  00                 format (0=official)
0003  00                 endianness (1=little endian)
0004  00                 size of int (bytes)
0005  00                 size of size_t (bytes)
0006  02                 size of Instruction (bytes)
0007  14                 size of number (bytes)
0008  98                 integral (1=integral)
4152
                         * number type: single
                         * x86 standard (32-bit, little endian, doubles)
                         ** global header end **
package
seeall
/Lotus/Characters/Tenno/Anima/AnimaHelmetDeco
/Lotus/Characters/Tenno/Anima/AnimaAltHelmetDeco
/Lotus/Characters/Tenno/Anima/AnimaAltHelmet2Deco
/Lotus/Characters/Tenno/Anima/SWInsomnia/SWInsomniaCombinedHelmetDeco
/Lotus/Characters/Tenno/Anima/SWDivisa/SWDivisaCombinedHelmetADeco
/Lotus/Characters/Tenno/Anima/SWMegaera/SWMegaeraCombinedHelmetDeco
/Lotus/Characters/Tenno/Anima/EquinoxPrimeCombinedHelmetDeco
/Lotus/Characters/Tenno/Anima/SWDivisa/Cloth/SWDivisaNightHelmetPonyTailASkeletalCloth
/Lotus/Characters/Tenno/Anima/SWDivisa/Cloth/SWDivisaDayHelmetPonyTailASkeletalCloth
/Lotus/Upgrades/Skins/YinYang/YinYangSkin
/Lotus/Upgrades/Skins/Anima/SWInsomniaSkin
/Lotus/Upgrades/Skins/Anima/SWDivisaSkin
/Lotus/Upgrades/Skins/Anima/SWMegaeraSkin
/Lotus/Upgrades/Skins/YinYang/EquinoxPrimeSkin
/Lotus/Characters/Tenno/Anima/AnimaDressDeco
/Lotus/Characters/Tenno/Anima/AnimaSleeveClothLDeco
/Lotus/Characters/Tenno/Anima/AnimaSleeveClothRDeco
/Lotus/Characters/Tenno/Anima/AnimusLegRingsDeco
/Lotus/Characters/Tenno/Anima/AnimaAnimusHalfDressDeco
/Lotus/Characters/Tenno/Anima/AnimaAnimusSleeveClothRDeco
/Lotus/Characters/Tenno/Anima/Cloth/EquinoxPrimeNightDressDeco
/Lotus/Characters/Tenno/Anima/Cloth/EquinoxPrimeNightSleeveClothLDeco
/Lotus/Characters/Tenno/Anima/Cloth/EquinoxPrimeNightSleeveClothRDeco
/Lotus/Characters/Tenno/Anima/Cloth/EquinoxPrimeCombinedDressDeco
/Lotus/Characters/Tenno/EmptyUsePrimaryTint
EmptyUsePrimaryTint
helmMeshes
/Lotus/Characters/Tenno/Anima/AnimaHelmet_skel.fbx
/Lotus/Characters/Tenno/Anima/AnimaHelmetAlt_skel.fbx
/Lotus/Characters/Tenno/Anima/AnimaAnimusAltHelmet2Dark_skel.fbx
/Lotus/Characters/Tenno/Anima/SWInsomnia/SWInsomniaNightHelmet_skel.fbx
/Lotus/Characters/Tenno/Anima/SWDivisa/SWDivisaNightHelmet_skel.fbx
/Lotus/Characters/Tenno/Anima/SWMegaera/SWMegaeraNightHelmet_skel.fbx
/Lotus/Characters/Tenno/Anima/EquinoxPrimeNightHelmet_skel.fbx
helmAttachments
mesh
/Lotus/Characters/Tenno/Anima/Anima_skel.fbx
/Lotus/Characters/Tenno/Anima/EquinoxPrimeNightBody_skel.fbx
meshUgly
materialOverrides
/Lotus/Characters/Tenno/Anima/SWInsomnia/SWInsomniaNightBody
/Lotus/Characters/Tenno/Anima/SWDivisa/SWDivisaNightBodyMat
/Lotus/Characters/Tenno/Anima/SWMegaera/SWMegaeraNightBodyMat
materialOverridesUgly
attachments
attachmentsUgly
attachmentMaterialOverrides
/Lotus/Characters/Tenno/Anima/SWInsomnia/SWInsomniaNightCloth
/Lotus/Characters/Tenno/Anima/SWDivisa/SWDivisaNightClothMat
/Lotus/Characters/Tenno/Anima/SWMegaera/SWMegaeraNightColthMat
attachmentMaterialOverridesUgly
customizationInfo
/Lotus/Powersuits/YinYang/YinCustomizationInfo
/Lotus/Powersuits/YinYang/EquinoxPrimeNightCustomizationInfo
customizationInfoUgly
simCollisionOverride
abilityIcons
/Lotus/Interface/Icons/Abilities/YinYangSwitch.png
/Lotus/Interface/Icons/Abilities/YinYangTargetCalm.png
/Lotus/Interface/Icons/Abilities/YinYangAuraEnemyDamage.png
/Lotus/Interface/Icons/Abilities/YinYangBlastHeal.png
/Lotus/Characters/Tenno/Anima/AnimusHelmet_skel.fbx
/Lotus/Characters/Tenno/Anima/AnimusHelmetAlt_skel.fbx
/Lotus/Characters/Tenno/Anima/AnimaAnimusAltHelmet2Light_skel.fbx
/Lotus/Characters/Tenno/Anima/SWInsomnia/SWInsomniaDayHelmet_skel.fbx
/Lotus/Characters/Tenno/Anima/SWDivisa/SWDivisaDayHelmet_skel.fbx
/Lotus/Characters/Tenno/Anima/SWMegaera/SWMegaeraDayHelmet_skel.fbx
/Lotus/Characters/Tenno/Anima/EquinoxPrimeDayHelmet_skel.fbx
/Lotus/Characters/Tenno/Anima/Animus_skel.fbx
/Lotus/Characters/Tenno/Anima/EquinoxPrimeDayBody_skel.fbx
/Lotus/Characters/Tenno/Anima/SWInsomnia/SWInsomniaDayBody
/Lotus/Characters/Tenno/Anima/SWDivisa/SWDivisaDayBodyMat
/Lotus/Characters/Tenno/Anima/SWMegaera/SWMegaeraDayBodyMat
/Lotus/Powersuits/YinYang/YangCustomizationInfo
/Lotus/Powersuits/YinYang/EquinoxPrimeDayCustomizationInfo
/Lotus/Powersuits/YinYang/EquinoxPrimeDaySimCollision
simCollisionOverrideUgly
/Lotus/Interface/Icons/Abilities/YinYangTargetFury.png
/Lotus/Interface/Icons/Abilities/YinYangAuraPowerStrength.png
/Lotus/Interface/Icons/Abilities/YinYangBlastHarm.png
/Lotus/Characters/Tenno/Anima/AnimaAnimusHelmet_skel.fbx
/Lotus/Characters/Tenno/Anima/AnimaAnimusHelmetAlt_skel.fbx
/Lotus/Characters/Tenno/Anima/AnimaAnimusAltHelmet2Combined_skel.fbx
/Lotus/Characters/Tenno/Anima/SWInsomnia/SWInsomniaCombinedHelmet_skel.fbx
/Lotus/Characters/Tenno/Anima/SWDivisa/SWDivisaCombinedHelmet_skel.fbx
/Lotus/Characters/Tenno/Anima/SWMegaera/SWMegaeraCombinedHelmet_skel.fbx
/Lotus/Characters/Tenno/Anima/EquinoxPrimeCombinedHelmet_skel.fbx
/Lotus/Characters/Tenno/Anima/AnimaAnimus_skel.fbx
/Lotus/Characters/Tenno/Anima/EquinoxPrimeCombinedBody_skel.fbx
/Lotus/Characters/Tenno/Anima/SWInsomnia/SWInsomniaCombinedTorso
/Lotus/Characters/Tenno/Anima/SWInsomnia/SWInsomniaCombinedLegs
/Lotus/Characters/Tenno/Anima/SWDivisa/SWDivisaNightDayBodyMat
/Lotus/Characters/Tenno/Anima/SWDivisa/SWDivisaDayNightBodyMat
/Lotus/Characters/Tenno/Anima/SWMegaera/SWMegaeraNightDayBodyMat
/Lotus/Characters/Tenno/Anima/SWMegaera/SWMegaeraDayNightBodyMat
/Lotus/Characters/Tenno/Anima/SWInsomnia/SWInsomniaCombinedCloth
/Lotus/Characters/Tenno/Anima/SWDivisa/SWDivisaCombinedClothMat
/Lotus/Characters/Tenno/Anima/SWMegaera/SWMegaeraCombinedClothMat
SwitchPolarity
PartialSwitchPolarity
UndoPartialSwitch
ForceYin
ForceYang
RedoPolarity
IsYin
IsYang
YinColorPolarity
Initialize
CleanUp
SetupHelmet
SetupDecoOpposite
DioramaView
gSkeletalClothExType
Lotus_Game
Lotus_Game
BodySkin
mAllowUglyMode
meshUgly
customizationInfoUgly
materialOverridesUgly
mesh
customizationInfo
materialOverrides
PrimaryColors
MAX_CustomizationColor
EMPTY_SYMBOL
helmMeshes
helmAttachments
GAME_C1_HEAD1
attachmentsUgly
attachmentMaterialOverridesUgly
simCollisionOverrideUgly
attachments
attachmentMaterialOverrides
simCollisionOverride
abilityIcons
gFlightJetPackItemType
gRegion
Lotus_Game
PrimaryColors
EmissiveColor0
gGameRules
gLotusAttractModeGameRulesType
gLotusHubGameRulesType
gBaseAvatarType
helmMeshes
mesh
materialOverrides
customizationInfo
helmMeshes
attachments
helmAttachments
attachmentMaterialOverrides
Player
/Lotus/Characters/Tenno/Anima/EquinoxPrimeDay
/Lotus/Characters/Tenno/Anima/EquinoxPrimeNight
materialOverrides
EMPTY_SYMBOL
GAME_C1_HEAD1
                         
0001                     ** function [0] definition (level 1)
                         ** start of function **
0001  00                 string size (0)
                         source name: (none)
0002  00                 line defined (0)
0003  00                 last line defined (0)
0004  00                 nups (0)
0005  00                 numparams (0)
0006  02                 is_vararg (2)
0007  14                 maxstacksize (20)
                         * code:
0009  07                 sizecode (920)
000A  1D000000           [001] getglobal  0   0        ; 954442511
000E  41000001           [002] vararg     1   2      
0012  9D400000           [003] getglobal  2   1        ; package
0016  8E804001           [004] gettable   2   2   258  ; "seeall"
001A  22408001           [005] call       0   3   1  
001E  0B000003           [006] newtable   0   6   0    ; array=6, hash=0
0022  5DC00000           [007] getglobal  1   3        ; 738251817
0026  99000100           [008] loadk      2   4        ; "/Lotus/Characters/Tenno/Anima/AnimaHelmetDeco"
002A  62800001           [009] call       1   2   2  
002E  9DC00000           [010] getglobal  2   3        ; 738251817
0032  D9400100           [011] loadk      3   5        ; "/Lotus/Characters/Tenno/Anima/AnimaAltHelmetDeco"
0036  A2800001           [012] call       2   2   2  
003A  DDC00000           [013] getglobal  3   3        ; 738251817
003E  19810100           [014] loadk      4   6        ; "/Lotus/Characters/Tenno/Anima/AnimaAltHelmet2Deco"
0042  E2800001           [015] call       3   2   2  
0046  1DC10000           [016] getglobal  4   3        ; 738251817
004A  59C10100           [017] loadk      5   7        ; "/Lotus/Characters/Tenno/Anima/SWInsomnia/SWInsomniaCombinedHelmetDeco"
004E  22810001           [018] call       4   2   2  
0052  5DC10000           [019] getglobal  5   3        ; 738251817
0056  99010200           [020] loadk      6   8        ; "/Lotus/Characters/Tenno/Anima/SWDivisa/SWDivisaCombinedHelmetADeco"
005A  62810001           [021] call       5   2   2  
005E  9DC10000           [022] getglobal  6   3        ; 738251817
0062  D9410200           [023] loadk      7   9        ; "/Lotus/Characters/Tenno/Anima/SWMegaera/SWMegaeraCombinedHelmetDeco"
0066  A2810001           [024] call       6   2   2  
006A  DDC10000           [025] getglobal  7   3        ; 738251817
006E  19820200           [026] loadk      8   10       ; "/Lotus/Characters/Tenno/Anima/EquinoxPrimeCombinedHelmetDeco"
0072  E2010001           [027] call       7   2   0  
0076  1B400000           [028] setlist    0   0   1    ; index 1 to top
007A  4B008003           [029] newtable   1   7   0    ; array=7, hash=0
007E  8B000000           [030] newtable   2   0   0    ; array=0, hash=0
0082  CB000000           [031] newtable   3   0   0    ; array=0, hash=0
0086  0B010000           [032] newtable   4   0   0    ; array=0, hash=0
008A  4B010000           [033] newtable   5   0   0    ; array=0, hash=0
008E  8B018000           [034] newtable   6   1   0    ; array=1, hash=0
0092  DDC10000           [035] getglobal  7   3        ; 738251817
0096  19C20200           [036] loadk      8   11       ; "/Lotus/Characters/Tenno/Anima/SWDivisa/Cloth/SWDivisaNightHelmetPonyTailASkeletalCloth"
009A  E2810001           [037] call       7   2   2  
009E  1DC20000           [038] getglobal  8   3        ; 738251817
00A2  59020300           [039] loadk      9   12       ; "/Lotus/Characters/Tenno/Anima/SWDivisa/Cloth/SWDivisaDayHelmetPonyTailASkeletalCloth"
00A6  22020001           [040] call       8   2   0  
00AA  9B410000           [041] setlist    6   0   1    ; index 1 to top
00AE  CB010000           [042] newtable   7   0   0    ; array=0, hash=0
00B2  0B020000           [043] newtable   8   0   0    ; array=0, hash=0
00B6  5B408003           [044] setlist    1   7   1    ; index 1 to 7
00BA  8B000002           [045] newtable   2   4   0    ; array=4, hash=0
00BE  DDC00000           [046] getglobal  3   3        ; 738251817
00C2  19410300           [047] loadk      4   13       ; "/Lotus/Upgrades/Skins/YinYang/YinYangSkin"
00C6  E2800001           [048] call       3   2   2  
00CA  1DC10000           [049] getglobal  4   3        ; 738251817
00CE  59810300           [050] loadk      5   14       ; "/Lotus/Upgrades/Skins/Anima/SWInsomniaSkin"
00D2  22810001           [051] call       4   2   2  
00D6  5DC10000           [052] getglobal  5   3        ; 738251817
00DA  99C10300           [053] loadk      6   15       ; "/Lotus/Upgrades/Skins/Anima/SWDivisaSkin"
00DE  62810001           [054] call       5   2   2  
00E2  9DC10000           [055] getglobal  6   3        ; 738251817
00E6  D9010400           [056] loadk      7   16       ; "/Lotus/Upgrades/Skins/Anima/SWMegaeraSkin"
00EA  A2810001           [057] call       6   2   2  
00EE  DDC10000           [058] getglobal  7   3        ; 738251817
00F2  19420400           [059] loadk      8   17       ; "/Lotus/Upgrades/Skins/YinYang/EquinoxPrimeSkin"
00F6  E2010001           [060] call       7   2   0  
00FA  9B400000           [061] setlist    2   0   1    ; index 1 to top
00FE  CB008004           [062] newtable   3   9   0    ; array=9, hash=0
0102  1DC10000           [063] getglobal  4   3        ; 738251817
0106  59810400           [064] loadk      5   18       ; "/Lotus/Characters/Tenno/Anima/AnimaDressDeco"
010A  22810001           [065] call       4   2   2  
010E  5DC10000           [066] getglobal  5   3        ; 738251817
0112  99C10400           [067] loadk      6   19       ; "/Lotus/Characters/Tenno/Anima/AnimaSleeveClothLDeco"
0116  62810001           [068] call       5   2   2  
011A  9DC10000           [069] getglobal  6   3        ; 738251817
011E  D9010500           [070] loadk      7   20       ; "/Lotus/Characters/Tenno/Anima/AnimaSleeveClothRDeco"
0122  A2810001           [071] call       6   2   2  
0126  DDC10000           [072] getglobal  7   3        ; 738251817
012A  19420500           [073] loadk      8   21       ; "/Lotus/Characters/Tenno/Anima/AnimusLegRingsDeco"
012E  E2810001           [074] call       7   2   2  
0132  1DC20000           [075] getglobal  8   3        ; 738251817
0136  59820500           [076] loadk      9   22       ; "/Lotus/Characters/Tenno/Anima/AnimaAnimusHalfDressDeco"
013A  22820001           [077] call       8   2   2  
013E  5DC20000           [078] getglobal  9   3        ; 738251817
0142  99C20500           [079] loadk      10  23       ; "/Lotus/Characters/Tenno/Anima/AnimaAnimusSleeveClothRDeco"
0146  62820001           [080] call       9   2   2  
014A  9DC20000           [081] getglobal  10  3        ; 738251817
014E  D9020600           [082] loadk      11  24       ; "/Lotus/Characters/Tenno/Anima/Cloth/EquinoxPrimeNightDressDeco"
0152  A2820001           [083] call       10  2   2  
0156  DDC20000           [084] getglobal  11  3        ; 738251817
015A  19430600           [085] loadk      12  25       ; "/Lotus/Characters/Tenno/Anima/Cloth/EquinoxPrimeNightSleeveClothLDeco"
015E  E2820001           [086] call       11  2   2  
0162  1DC30000           [087] getglobal  12  3        ; 738251817
0166  59830600           [088] loadk      13  26       ; "/Lotus/Characters/Tenno/Anima/Cloth/EquinoxPrimeNightSleeveClothRDeco"
016A  22830001           [089] call       12  2   2  
016E  5DC30000           [090] getglobal  13  3        ; 738251817
0172  99C30600           [091] loadk      14  27       ; "/Lotus/Characters/Tenno/Anima/Cloth/EquinoxPrimeCombinedDressDeco"
0176  62030001           [092] call       13  2   0  
017A  DB400000           [093] setlist    3   0   1    ; index 1 to top
017E  1DC10000           [094] getglobal  4   3        ; 738251817
0182  59010700           [095] loadk      5   28       ; "/Lotus/Characters/Tenno/EmptyUsePrimaryTint"
0186  22810001           [096] call       4   2   2  
018A  5D410700           [097] getglobal  5   29       ; -332969190
018E  99810700           [098] loadk      6   30       ; "EmptyUsePrimaryTint"
0192  62810001           [099] call       5   2   2  
0196  8B810300           [100] newtable   6   0   14   ; array=0, hash=14
019A  CB010003           [101] newtable   7   6   0    ; array=6, hash=0
019E  1DC20000           [102] getglobal  8   3        ; 738251817
01A2  59020800           [103] loadk      9   32       ; "/Lotus/Characters/Tenno/Anima/AnimaHelmet_skel.fbx"
01A6  22820001           [104] call       8   2   2  
01AA  5DC20000           [105] getglobal  9   3        ; 738251817
01AE  99420800           [106] loadk      10  33       ; "/Lotus/Characters/Tenno/Anima/AnimaHelmetAlt_skel.fbx"
01B2  62820001           [107] call       9   2   2  
01B6  9DC20000           [108] getglobal  10  3        ; 738251817
01BA  D9820800           [109] loadk      11  34       ; "/Lotus/Characters/Tenno/Anima/AnimaAnimusAltHelmet2Dark_skel.fbx"
01BE  A2820001           [110] call       10  2   2  
01C2  DDC20000           [111] getglobal  11  3        ; 738251817
01C6  19C30800           [112] loadk      12  35       ; "/Lotus/Characters/Tenno/Anima/SWInsomnia/SWInsomniaNightHelmet_skel.fbx"
01CA  E2820001           [113] call       11  2   2  
01CE  1DC30000           [114] getglobal  12  3        ; 738251817
01D2  59030900           [115] loadk      13  36       ; "/Lotus/Characters/Tenno/Anima/SWDivisa/SWDivisaNightHelmet_skel.fbx"
01D6  22830001           [116] call       12  2   2  
01DA  5DC30000           [117] getglobal  13  3        ; 738251817
01DE  99430900           [118] loadk      14  37       ; "/Lotus/Characters/Tenno/Anima/SWMegaera/SWMegaeraNightHelmet_skel.fbx"
01E2  62830001           [119] call       13  2   2  
01E6  9DC30000           [120] getglobal  14  3        ; 738251817
01EA  D9830900           [121] loadk      15  38       ; "/Lotus/Characters/Tenno/Anima/EquinoxPrimeNightHelmet_skel.fbx"
01EE  A2030001           [122] call       14  2   0  
01F2  DB410000           [123] setlist    7   0   1    ; index 1 to top
01F6  8CC1818F           [124] settable   6   287 7    ; "helmMeshes"
01FA  CB018003           [125] newtable   7   7   0    ; array=7, hash=0
01FE  0B020000           [126] newtable   8   0   0    ; array=0, hash=0
0202  4B020000           [127] newtable   9   0   0    ; array=0, hash=0
0206  8B020000           [128] newtable   10  0   0    ; array=0, hash=0
020A  CB020000           [129] newtable   11  0   0    ; array=0, hash=0
020E  0B030000           [130] newtable   12  0   0    ; array=0, hash=0
0212  5DC30000           [131] getglobal  13  3        ; 738251817
0216  99C30200           [132] loadk      14  11       ; "/Lotus/Characters/Tenno/Anima/SWDivisa/Cloth/SWDivisaNightHelmetPonyTailASkeletalCloth"
021A  62030001           [133] call       13  2   0  
021E  1B430000           [134] setlist    12  0   1    ; index 1 to top
0222  4B030000           [135] newtable   13  0   0    ; array=0, hash=0
0226  8B030000           [136] newtable   14  0   0    ; array=0, hash=0
022A  DB418003           [137] setlist    7   7   1    ; index 1 to 7
022E  8CC18193           [138] settable   6   295 7    ; "helmAttachments"
0232  CB010002           [139] newtable   7   4   0    ; array=4, hash=0
0236  1DC20000           [140] getglobal  8   3        ; 738251817
023A  59420A00           [141] loadk      9   41       ; "/Lotus/Characters/Tenno/Anima/Anima_skel.fbx"
023E  22820001           [142] call       8   2   2  
0242  5DC20000           [143] getglobal  9   3        ; 738251817
0246  99420A00           [144] loadk      10  41       ; "/Lotus/Characters/Tenno/Anima/Anima_skel.fbx"
024A  62820001           [145] call       9   2   2  
024E  9DC20000           [146] getglobal  10  3        ; 738251817
0252  D9420A00           [147] loadk      11  41       ; "/Lotus/Characters/Tenno/Anima/Anima_skel.fbx"
0256  A2820001           [148] call       10  2   2  
025A  DDC20000           [149] getglobal  11  3        ; 738251817
025E  19430A00           [150] loadk      12  41       ; "/Lotus/Characters/Tenno/Anima/Anima_skel.fbx"
0262  E2820001           [151] call       11  2   2  
0266  1DC30000           [152] getglobal  12  3        ; 738251817
026A  59830A00           [153] loadk      13  42       ; "/Lotus/Characters/Tenno/Anima/EquinoxPrimeNightBody_skel.fbx"
026E  22030001           [154] call       12  2   0  
0272  DB410000           [155] setlist    7   0   1    ; index 1 to top
0276  8CC10194           [156] settable   6   296 7    ; "mesh"
027A  DDC10000           [157] getglobal  7   3        ; 738251817
027E  19820A00           [158] loadk      8   42       ; "/Lotus/Characters/Tenno/Anima/EquinoxPrimeNightBody_skel.fbx"
0282  E2810001           [159] call       7   2   2  
0286  8CC18195           [160] settable   6   299 7    ; "meshUgly"
028A  CB018002           [161] newtable   7   5   0    ; array=5, hash=0
028E  0B020000           [162] newtable   8   0   0    ; array=0, hash=0
0292  4B020000           [163] newtable   9   0   0    ; array=0, hash=0
0296  9DC20000           [164] getglobal  10  3        ; 738251817
029A  D9420B00           [165] loadk      11  45       ; "/Lotus/Characters/Tenno/Anima/SWInsomnia/SWInsomniaNightBody"
029E  A2020001           [166] call       10  2   0  
02A2  5B420000           [167] setlist    9   0   1    ; index 1 to top
02A6  8B020000           [168] newtable   10  0   0    ; array=0, hash=0
02AA  DDC20000           [169] getglobal  11  3        ; 738251817
02AE  19830B00           [170] loadk      12  46       ; "/Lotus/Characters/Tenno/Anima/SWDivisa/SWDivisaNightBodyMat"
02B2  E2020001           [171] call       11  2   0  
02B6  9B420000           [172] setlist    10  0   1    ; index 1 to top
02BA  CB020000           [173] newtable   11  0   0    ; array=0, hash=0
02BE  1DC30000           [174] getglobal  12  3        ; 738251817
02C2  59C30B00           [175] loadk      13  47       ; "/Lotus/Characters/Tenno/Anima/SWMegaera/SWMegaeraNightBodyMat"
02C6  22030001           [176] call       12  2   0  
02CA  DB420000           [177] setlist    11  0   1    ; index 1 to top
02CE  0B030000           [178] newtable   12  0   0    ; array=0, hash=0
02D2  DB418002           [179] setlist    7   5   1    ; index 1 to 5
02D6  8CC10196           [180] settable   6   300 7    ; "materialOverrides"
02DA  CB018002           [181] newtable   7   5   0    ; array=5, hash=0
02DE  0B020000           [182] newtable   8   0   0    ; array=0, hash=0
02E2  4B020001           [183] newtable   9   2   0    ; array=2, hash=0
02E6  9DC20000           [184] getglobal  10  3        ; 738251817
02EA  D9420B00           [185] loadk      11  45       ; "/Lotus/Characters/Tenno/Anima/SWInsomnia/SWInsomniaNightBody"
02EE  A2820001           [186] call       10  2   2  
02F2  D2020002           [187] move       11  4      
02F6  5B420001           [188] setlist    9   2   1    ; index 1 to 2
02FA  8B020001           [189] newtable   10  2   0    ; array=2, hash=0
02FE  DDC20000           [190] getglobal  11  3        ; 738251817
0302  19830B00           [191] loadk      12  46       ; "/Lotus/Characters/Tenno/Anima/SWDivisa/SWDivisaNightBodyMat"
0306  E2820001           [192] call       11  2   2  
030A  12030002           [193] move       12  4      
030E  9B420001           [194] setlist    10  2   1    ; index 1 to 2
0312  CB020001           [195] newtable   11  2   0    ; array=2, hash=0
0316  1DC30000           [196] getglobal  12  3        ; 738251817
031A  59C30B00           [197] loadk      13  47       ; "/Lotus/Characters/Tenno/Anima/SWMegaera/SWMegaeraNightBodyMat"
031E  22830001           [198] call       12  2   2  
0322  52030002           [199] move       13  4      
0326  DB420001           [200] setlist    11  2   1    ; index 1 to 2
032A  0B030000           [201] newtable   12  0   0    ; array=0, hash=0
032E  DB418002           [202] setlist    7   5   1    ; index 1 to 5
0332  8CC10198           [203] settable   6   304 7    ; "materialOverridesUgly"
0336  CB018002           [204] newtable   7   5   0    ; array=5, hash=0
033A  0B020001           [205] newtable   8   2   0    ; array=2, hash=0
033E  5DC20000           [206] getglobal  9   3        ; 738251817
0342  99820400           [207] loadk      10  18       ; "/Lotus/Characters/Tenno/Anima/AnimaDressDeco"
0346  62820001           [208] call       9   2   2  
034A  9DC20000           [209] getglobal  10  3        ; 738251817
034E  D9C20400           [210] loadk      11  19       ; "/Lotus/Characters/Tenno/Anima/AnimaSleeveClothLDeco"
0352  A2820001           [211] call       10  2   2  
0356  DDC20000           [212] getglobal  11  3        ; 738251817
035A  19030500           [213] loadk      12  20       ; "/Lotus/Characters/Tenno/Anima/AnimaSleeveClothRDeco"
035E  E2020001           [214] call       11  2   0  
0362  1B420000           [215] setlist    8   0   1    ; index 1 to top
0366  4B020001           [216] newtable   9   2   0    ; array=2, hash=0
036A  9DC20000           [217] getglobal  10  3        ; 738251817
036E  D9820400           [218] loadk      11  18       ; "/Lotus/Characters/Tenno/Anima/AnimaDressDeco"
0372  A2820001           [219] call       10  2   2  
0376  DDC20000           [220] getglobal  11  3        ; 738251817
037A  19C30400           [221] loadk      12  19       ; "/Lotus/Characters/Tenno/Anima/AnimaSleeveClothLDeco"
037E  E2820001           [222] call       11  2   2  
0382  1DC30000           [223] getglobal  12  3        ; 738251817
0386  59030500           [224] loadk      13  20       ; "/Lotus/Characters/Tenno/Anima/AnimaSleeveClothRDeco"
038A  22030001           [225] call       12  2   0  
038E  5B420000           [226] setlist    9   0   1    ; index 1 to top
0392  8B020001           [227] newtable   10  2   0    ; array=2, hash=0
0396  DDC20000           [228] getglobal  11  3        ; 738251817
039A  19830400           [229] loadk      12  18       ; "/Lotus/Characters/Tenno/Anima/AnimaDressDeco"
039E  E2820001           [230] call       11  2   2  
03A2  1DC30000           [231] getglobal  12  3        ; 738251817
03A6  59C30400           [232] loadk      13  19       ; "/Lotus/Characters/Tenno/Anima/AnimaSleeveClothLDeco"
03AA  22830001           [233] call       12  2   2  
03AE  5DC30000           [234] getglobal  13  3        ; 738251817
03B2  99030500           [235] loadk      14  20       ; "/Lotus/Characters/Tenno/Anima/AnimaSleeveClothRDeco"
03B6  62030001           [236] call       13  2   0  
03BA  9B420000           [237] setlist    10  0   1    ; index 1 to top
03BE  CB020001           [238] newtable   11  2   0    ; array=2, hash=0
03C2  1DC30000           [239] getglobal  12  3        ; 738251817
03C6  59830400           [240] loadk      13  18       ; "/Lotus/Characters/Tenno/Anima/AnimaDressDeco"
03CA  22830001           [241] call       12  2   2  
03CE  5DC30000           [242] getglobal  13  3        ; 738251817
03D2  99C30400           [243] loadk      14  19       ; "/Lotus/Characters/Tenno/Anima/AnimaSleeveClothLDeco"
03D6  62830001           [244] call       13  2   2  
03DA  9DC30000           [245] getglobal  14  3        ; 738251817
03DE  D9030500           [246] loadk      15  20       ; "/Lotus/Characters/Tenno/Anima/AnimaSleeveClothRDeco"
03E2  A2030001           [247] call       14  2   0  
03E6  DB420000           [248] setlist    11  0   1    ; index 1 to top
03EA  0B038001           [249] newtable   12  3   0    ; array=3, hash=0
03EE  5DC30000           [250] getglobal  13  3        ; 738251817
03F2  99030600           [251] loadk      14  24       ; "/Lotus/Characters/Tenno/Anima/Cloth/EquinoxPrimeNightDressDeco"
03F6  62830001           [252] call       13  2   2  
03FA  9DC30000           [253] getglobal  14  3        ; 738251817
03FE  D9C30600           [254] loadk      15  27       ; "/Lotus/Characters/Tenno/Anima/Cloth/EquinoxPrimeCombinedDressDeco"
0402  A2830001           [255] call       14  2   2  
0406  DDC30000           [256] getglobal  15  3        ; 738251817
040A  19440600           [257] loadk      16  25       ; "/Lotus/Characters/Tenno/Anima/Cloth/EquinoxPrimeNightSleeveClothLDeco"
040E  E2830001           [258] call       15  2   2  
0412  1DC40000           [259] getglobal  16  3        ; 738251817
0416  59840600           [260] loadk      17  26       ; "/Lotus/Characters/Tenno/Anima/Cloth/EquinoxPrimeNightSleeveClothRDeco"
041A  22040001           [261] call       16  2   0  
041E  1B430000           [262] setlist    12  0   1    ; index 1 to top
0422  DB418002           [263] setlist    7   5   1    ; index 1 to 5
0426  8CC18198           [264] settable   6   305 7    ; "attachments"
042A  CB018001           [265] newtable   7   3   0    ; array=3, hash=0
042E  1DC20000           [266] getglobal  8   3        ; 738251817
0432  59020600           [267] loadk      9   24       ; "/Lotus/Characters/Tenno/Anima/Cloth/EquinoxPrimeNightDressDeco"
0436  22820001           [268] call       8   2   2  
043A  5DC20000           [269] getglobal  9   3        ; 738251817
043E  99C20600           [270] loadk      10  27       ; "/Lotus/Characters/Tenno/Anima/Cloth/EquinoxPrimeCombinedDressDeco"
0442  62820001           [271] call       9   2   2  
0446  9DC20000           [272] getglobal  10  3        ; 738251817
044A  D9420600           [273] loadk      11  25       ; "/Lotus/Characters/Tenno/Anima/Cloth/EquinoxPrimeNightSleeveClothLDeco"
044E  A2820001           [274] call       10  2   2  
0452  DDC20000           [275] getglobal  11  3        ; 738251817
0456  19830600           [276] loadk      12  26       ; "/Lotus/Characters/Tenno/Anima/Cloth/EquinoxPrimeNightSleeveClothRDeco"
045A  E2020001           [277] call       11  2   0  
045E  DB410000           [278] setlist    7   0   1    ; index 1 to top
0462  8CC10199           [279] settable   6   306 7    ; "attachmentsUgly"
0466  CB018002           [280] newtable   7   5   0    ; array=5, hash=0
046A  0B020000           [281] newtable   8   0   0    ; array=0, hash=0
046E  4B020002           [282] newtable   9   4   0    ; array=4, hash=0
0472  9DC20000           [283] getglobal  10  3        ; 738251817
0476  D9020D00           [284] loadk      11  52       ; "/Lotus/Characters/Tenno/Anima/SWInsomnia/SWInsomniaNightCloth"
047A  A2820001           [285] call       10  2   2  
047E  DDC20000           [286] getglobal  11  3        ; 738251817
0482  19030D00           [287] loadk      12  52       ; "/Lotus/Characters/Tenno/Anima/SWInsomnia/SWInsomniaNightCloth"
0486  E2820001           [288] call       11  2   2  
048A  1DC30000           [289] getglobal  12  3        ; 738251817
048E  59030D00           [290] loadk      13  52       ; "/Lotus/Characters/Tenno/Anima/SWInsomnia/SWInsomniaNightCloth"
0492  22830001           [291] call       12  2   2  
0496  5DC30000           [292] getglobal  13  3        ; 738251817
049A  99030D00           [293] loadk      14  52       ; "/Lotus/Characters/Tenno/Anima/SWInsomnia/SWInsomniaNightCloth"
049E  62830001           [294] call       13  2   2  
04A2  9DC30000           [295] getglobal  14  3        ; 738251817
04A6  D9030D00           [296] loadk      15  52       ; "/Lotus/Characters/Tenno/Anima/SWInsomnia/SWInsomniaNightCloth"
04AA  A2030001           [297] call       14  2   0  
04AE  5B420000           [298] setlist    9   0   1    ; index 1 to top
04B2  8B020002           [299] newtable   10  4   0    ; array=4, hash=0
04B6  DDC20000           [300] getglobal  11  3        ; 738251817
04BA  19430D00           [301] loadk      12  53       ; "/Lotus/Characters/Tenno/Anima/SWDivisa/SWDivisaNightClothMat"
04BE  E2820001           [302] call       11  2   2  
04C2  1DC30000           [303] getglobal  12  3        ; 738251817
04C6  59430D00           [304] loadk      13  53       ; "/Lotus/Characters/Tenno/Anima/SWDivisa/SWDivisaNightClothMat"
04CA  22830001           [305] call       12  2   2  
04CE  5DC30000           [306] getglobal  13  3        ; 738251817
04D2  99430D00           [307] loadk      14  53       ; "/Lotus/Characters/Tenno/Anima/SWDivisa/SWDivisaNightClothMat"
04D6  62830001           [308] call       13  2   2  
04DA  9DC30000           [309] getglobal  14  3        ; 738251817
04DE  D9430D00           [310] loadk      15  53       ; "/Lotus/Characters/Tenno/Anima/SWDivisa/SWDivisaNightClothMat"
04E2  A2830001           [311] call       14  2   2  
04E6  DDC30000           [312] getglobal  15  3        ; 738251817
04EA  19440D00           [313] loadk      16  53       ; "/Lotus/Characters/Tenno/Anima/SWDivisa/SWDivisaNightClothMat"
04EE  E2030001           [314] call       15  2   0  
04F2  9B420000           [315] setlist    10  0   1    ; index 1 to top
04F6  CB020002           [316] newtable   11  4   0    ; array=4, hash=0
04FA  1DC30000           [317] getglobal  12  3        ; 738251817
04FE  59830D00           [318] loadk      13  54       ; "/Lotus/Characters/Tenno/Anima/SWMegaera/SWMegaeraNightColthMat"
0502  22830001           [319] call       12  2   2  
0506  5DC30000           [320] getglobal  13  3        ; 738251817
050A  99830D00           [321] loadk      14  54       ; "/Lotus/Characters/Tenno/Anima/SWMegaera/SWMegaeraNightColthMat"
050E  62830001           [322] call       13  2   2  
0512  9DC30000           [323] getglobal  14  3        ; 738251817
0516  D9830D00           [324] loadk      15  54       ; "/Lotus/Characters/Tenno/Anima/SWMegaera/SWMegaeraNightColthMat"
051A  A2830001           [325] call       14  2   2  
051E  DDC30000           [326] getglobal  15  3        ; 738251817
0522  19840D00           [327] loadk      16  54       ; "/Lotus/Characters/Tenno/Anima/SWMegaera/SWMegaeraNightColthMat"
0526  E2830001           [328] call       15  2   2  
052A  1DC40000           [329] getglobal  16  3        ; 738251817
052E  59840D00           [330] loadk      17  54       ; "/Lotus/Characters/Tenno/Anima/SWMegaera/SWMegaeraNightColthMat"
0532  22040001           [331] call       16  2   0  
0536  DB420000           [332] setlist    11  0   1    ; index 1 to top
053A  0B030000           [333] newtable   12  0   0    ; array=0, hash=0
053E  DB418002           [334] setlist    7   5   1    ; index 1 to 5
0542  8CC18199           [335] settable   6   307 7    ; "attachmentMaterialOverrides"
0546  CB010000           [336] newtable   7   0   0    ; array=0, hash=0
054A  8CC1819B           [337] settable   6   311 7    ; "attachmentMaterialOverridesUgly"
054E  CB010002           [338] newtable   7   4   0    ; array=4, hash=0
0552  1DC20000           [339] getglobal  8   3        ; 738251817
0556  59420E00           [340] loadk      9   57       ; "/Lotus/Powersuits/YinYang/YinCustomizationInfo"
055A  22820001           [341] call       8   2   2  
055E  5DC20000           [342] getglobal  9   3        ; 738251817
0562  99420E00           [343] loadk      10  57       ; "/Lotus/Powersuits/YinYang/YinCustomizationInfo"
0566  62820001           [344] call       9   2   2  
056A  9DC20000           [345] getglobal  10  3        ; 738251817
056E  D9420E00           [346] loadk      11  57       ; "/Lotus/Powersuits/YinYang/YinCustomizationInfo"
0572  A2820001           [347] call       10  2   2  
0576  DDC20000           [348] getglobal  11  3        ; 738251817
057A  19430E00           [349] loadk      12  57       ; "/Lotus/Powersuits/YinYang/YinCustomizationInfo"
057E  E2820001           [350] call       11  2   2  
0582  1DC30000           [351] getglobal  12  3        ; 738251817
0586  59830E00           [352] loadk      13  58       ; "/Lotus/Powersuits/YinYang/EquinoxPrimeNightCustomizationInfo"
058A  22030001           [353] call       12  2   0  
058E  DB410000           [354] setlist    7   0   1    ; index 1 to top
0592  8CC1019C           [355] settable   6   312 7    ; "customizationInfo"
0596  DDC10000           [356] getglobal  7   3        ; 738251817
059A  19820E00           [357] loadk      8   58       ; "/Lotus/Powersuits/YinYang/EquinoxPrimeNightCustomizationInfo"
059E  E2810001           [358] call       7   2   2  
05A2  8CC1819D           [359] settable   6   315 7    ; "customizationInfoUgly"
05A6  CB018002           [360] newtable   7   5   0    ; array=5, hash=0
05AA  06020006           [361] loadnil    8   12     
05AE  DB418002           [362] setlist    7   5   1    ; index 1 to 5
05B2  8CC1019E           [363] settable   6   316 7    ; "simCollisionOverride"
05B6  CB018001           [364] newtable   7   3   0    ; array=3, hash=0
05BA  1DC20000           [365] getglobal  8   3        ; 738251817
05BE  59820F00           [366] loadk      9   62       ; "/Lotus/Interface/Icons/Abilities/YinYangSwitch.png"
05C2  22820001           [367] call       8   2   2  
05C6  5DC20000           [368] getglobal  9   3        ; 738251817
05CA  99C20F00           [369] loadk      10  63       ; "/Lotus/Interface/Icons/Abilities/YinYangTargetCalm.png"
05CE  62820001           [370] call       9   2   2  
05D2  9DC20000           [371] getglobal  10  3        ; 738251817
05D6  D9021000           [372] loadk      11  64       ; "/Lotus/Interface/Icons/Abilities/YinYangAuraEnemyDamage.png"
05DA  A2820001           [373] call       10  2   2  
05DE  DDC20000           [374] getglobal  11  3        ; 738251817
05E2  19431000           [375] loadk      12  65       ; "/Lotus/Interface/Icons/Abilities/YinYangBlastHeal.png"
05E6  E2020001           [376] call       11  2   0  
05EA  DB410000           [377] setlist    7   0   1    ; index 1 to top
05EE  8CC1819E           [378] settable   6   317 7    ; "abilityIcons"
05F2  CBC10300           [379] newtable   7   0   15   ; array=0, hash=15
05F6  0B020003           [380] newtable   8   6   0    ; array=6, hash=0
05FA  5DC20000           [381] getglobal  9   3        ; 738251817
05FE  99821000           [382] loadk      10  66       ; "/Lotus/Characters/Tenno/Anima/AnimusHelmet_skel.fbx"
0602  62820001           [383] call       9   2   2  
0606  9DC20000           [384] getglobal  10  3        ; 738251817
060A  D9C21000           [385] loadk      11  67       ; "/Lotus/Characters/Tenno/Anima/AnimusHelmetAlt_skel.fbx"
060E  A2820001           [386] call       10  2   2  
0612  DDC20000           [387] getglobal  11  3        ; 738251817
0616  19031100           [388] loadk      12  68       ; "/Lotus/Characters/Tenno/Anima/AnimaAnimusAltHelmet2Light_skel.fbx"
061A  E2820001           [389] call       11  2   2  
061E  1DC30000           [390] getglobal  12  3        ; 738251817
0622  59431100           [391] loadk      13  69       ; "/Lotus/Characters/Tenno/Anima/SWInsomnia/SWInsomniaDayHelmet_skel.fbx"
0626  22830001           [392] call       12  2   2  
062A  5DC30000           [393] getglobal  13  3        ; 738251817
062E  99831100           [394] loadk      14  70       ; "/Lotus/Characters/Tenno/Anima/SWDivisa/SWDivisaDayHelmet_skel.fbx"
0632  62830001           [395] call       13  2   2  
0636  9DC30000           [396] getglobal  14  3        ; 738251817
063A  D9C31100           [397] loadk      15  71       ; "/Lotus/Characters/Tenno/Anima/SWMegaera/SWMegaeraDayHelmet_skel.fbx"
063E  A2830001           [398] call       14  2   2  
0642  DDC30000           [399] getglobal  15  3        ; 738251817
0646  19041200           [400] loadk      16  72       ; "/Lotus/Characters/Tenno/Anima/EquinoxPrimeDayHelmet_skel.fbx"
064A  E2030001           [401] call       15  2   0  
064E  1B420000           [402] setlist    8   0   1    ; index 1 to top
0652  CC01828F           [403] settable   7   287 8    ; "helmMeshes"
0656  0B028003           [404] newtable   8   7   0    ; array=7, hash=0
065A  4B020000           [405] newtable   9   0   0    ; array=0, hash=0
065E  8B020000           [406] newtable   10  0   0    ; array=0, hash=0
0662  CB020000           [407] newtable   11  0   0    ; array=0, hash=0
0666  0B030000           [408] newtable   12  0   0    ; array=0, hash=0
066A  4B030000           [409] newtable   13  0   0    ; array=0, hash=0
066E  9DC30000           [410] getglobal  14  3        ; 738251817
0672  D9030300           [411] loadk      15  12       ; "/Lotus/Characters/Tenno/Anima/SWDivisa/Cloth/SWDivisaDayHelmetPonyTailASkeletalCloth"
0676  A2030001           [412] call       14  2   0  
067A  5B430000           [413] setlist    13  0   1    ; index 1 to top
067E  8B030000           [414] newtable   14  0   0    ; array=0, hash=0
0682  CB030000           [415] newtable   15  0   0    ; array=0, hash=0
0686  1B428003           [416] setlist    8   7   1    ; index 1 to 7
068A  CC018293           [417] settable   7   295 8    ; "helmAttachments"
068E  0B020002           [418] newtable   8   4   0    ; array=4, hash=0
0692  5DC20000           [419] getglobal  9   3        ; 738251817
0696  99421200           [420] loadk      10  73       ; "/Lotus/Characters/Tenno/Anima/Animus_skel.fbx"
069A  62820001           [421] call       9   2   2  
069E  9DC20000           [422] getglobal  10  3        ; 738251817
06A2  D9421200           [423] loadk      11  73       ; "/Lotus/Characters/Tenno/Anima/Animus_skel.fbx"
06A6  A2820001           [424] call       10  2   2  
06AA  DDC20000           [425] getglobal  11  3        ; 738251817
06AE  19431200           [426] loadk      12  73       ; "/Lotus/Characters/Tenno/Anima/Animus_skel.fbx"
06B2  E2820001           [427] call       11  2   2  
06B6  1DC30000           [428] getglobal  12  3        ; 738251817
06BA  59431200           [429] loadk      13  73       ; "/Lotus/Characters/Tenno/Anima/Animus_skel.fbx"
06BE  22830001           [430] call       12  2   2  
06C2  5DC30000           [431] getglobal  13  3        ; 738251817
06C6  99831200           [432] loadk      14  74       ; "/Lotus/Characters/Tenno/Anima/EquinoxPrimeDayBody_skel.fbx"
06CA  62030001           [433] call       13  2   0  
06CE  1B420000           [434] setlist    8   0   1    ; index 1 to top
06D2  CC010294           [435] settable   7   296 8    ; "mesh"
06D6  1DC20000           [436] getglobal  8   3        ; 738251817
06DA  59821200           [437] loadk      9   74       ; "/Lotus/Characters/Tenno/Anima/EquinoxPrimeDayBody_skel.fbx"
06DE  22820001           [438] call       8   2   2  
06E2  CC018295           [439] settable   7   299 8    ; "meshUgly"
06E6  0B028002           [440] newtable   8   5   0    ; array=5, hash=0
06EA  4B020000           [441] newtable   9   0   0    ; array=0, hash=0
06EE  8B020000           [442] newtable   10  0   0    ; array=0, hash=0
06F2  DDC20000           [443] getglobal  11  3        ; 738251817
06F6  19C31200           [444] loadk      12  75       ; "/Lotus/Characters/Tenno/Anima/SWInsomnia/SWInsomniaDayBody"
06FA  E2020001           [445] call       11  2   0  
06FE  9B420000           [446] setlist    10  0   1    ; index 1 to top
0702  CB020000           [447] newtable   11  0   0    ; array=0, hash=0
0706  1DC30000           [448] getglobal  12  3        ; 738251817
070A  59031300           [449] loadk      13  76       ; "/Lotus/Characters/Tenno/Anima/SWDivisa/SWDivisaDayBodyMat"
070E  22030001           [450] call       12  2   0  
0712  DB420000           [451] setlist    11  0   1    ; index 1 to top
0716  0B030000           [452] newtable   12  0   0    ; array=0, hash=0
071A  5DC30000           [453] getglobal  13  3        ; 738251817
071E  99431300           [454] loadk      14  77       ; "/Lotus/Characters/Tenno/Anima/SWMegaera/SWMegaeraDayBodyMat"
0722  62030001           [455] call       13  2   0  
0726  1B430000           [456] setlist    12  0   1    ; index 1 to top
072A  4B030000           [457] newtable   13  0   0    ; array=0, hash=0
072E  1B428002           [458] setlist    8   5   1    ; index 1 to 5
0732  CC010296           [459] settable   7   300 8    ; "materialOverrides"
0736  0B028002           [460] newtable   8   5   0    ; array=5, hash=0
073A  4B020000           [461] newtable   9   0   0    ; array=0, hash=0
073E  8B020001           [462] newtable   10  2   0    ; array=2, hash=0
0742  DDC20000           [463] getglobal  11  3        ; 738251817
0746  19C31200           [464] loadk      12  75       ; "/Lotus/Characters/Tenno/Anima/SWInsomnia/SWInsomniaDayBody"
074A  E2820001           [465] call       11  2   2  
074E  12030002           [466] move       12  4      
0752  9B420001           [467] setlist    10  2   1    ; index 1 to 2
0756  CB020001           [468] newtable   11  2   0    ; array=2, hash=0
075A  1DC30000           [469] getglobal  12  3        ; 738251817
075E  59031300           [470] loadk      13  76       ; "/Lotus/Characters/Tenno/Anima/SWDivisa/SWDivisaDayBodyMat"
0762  22830001           [471] call       12  2   2  
0766  52030002           [472] move       13  4      
076A  DB420001           [473] setlist    11  2   1    ; index 1 to 2
076E  0B030001           [474] newtable   12  2   0    ; array=2, hash=0
0772  5DC30000           [475] getglobal  13  3        ; 738251817
0776  99431300           [476] loadk      14  77       ; "/Lotus/Characters/Tenno/Anima/SWMegaera/SWMegaeraDayBodyMat"
077A  62830001           [477] call       13  2   2  
077E  92030002           [478] move       14  4      
0782  1B430001           [479] setlist    12  2   1    ; index 1 to 2
0786  4B030000           [480] newtable   13  0   0    ; array=0, hash=0
078A  1B428002           [481] setlist    8   5   1    ; index 1 to 5
078E  CC010298           [482] settable   7   304 8    ; "materialOverridesUgly"
0792  0B028002           [483] newtable   8   5   0    ; array=5, hash=0
0796  4B020000           [484] newtable   9   0   0    ; array=0, hash=0
079A  9DC20000           [485] getglobal  10  3        ; 738251817
079E  D9420500           [486] loadk      11  21       ; "/Lotus/Characters/Tenno/Anima/AnimusLegRingsDeco"
07A2  A2020001           [487] call       10  2   0  
07A6  5B420000           [488] setlist    9   0   1    ; index 1 to top
07AA  8B020000           [489] newtable   10  0   0    ; array=0, hash=0
07AE  DDC20000           [490] getglobal  11  3        ; 738251817
07B2  19430500           [491] loadk      12  21       ; "/Lotus/Characters/Tenno/Anima/AnimusLegRingsDeco"
07B6  E2020001           [492] call       11  2   0  
07BA  9B420000           [493] setlist    10  0   1    ; index 1 to top
07BE  CB020000           [494] newtable   11  0   0    ; array=0, hash=0
07C2  1DC30000           [495] getglobal  12  3        ; 738251817
07C6  59430500           [496] loadk      13  21       ; "/Lotus/Characters/Tenno/Anima/AnimusLegRingsDeco"
07CA  22030001           [497] call       12  2   0  
07CE  DB420000           [498] setlist    11  0   1    ; index 1 to top
07D2  0B030000           [499] newtable   12  0   0    ; array=0, hash=0
07D6  5DC30000           [500] getglobal  13  3        ; 738251817
07DA  99430500           [501] loadk      14  21       ; "/Lotus/Characters/Tenno/Anima/AnimusLegRingsDeco"
07DE  62030001           [502] call       13  2   0  
07E2  1B430000           [503] setlist    12  0   1    ; index 1 to top
07E6  4B030000           [504] newtable   13  0   0    ; array=0, hash=0
07EA  1B428002           [505] setlist    8   5   1    ; index 1 to 5
07EE  CC018298           [506] settable   7   305 8    ; "attachments"
07F2  0B020000           [507] newtable   8   0   0    ; array=0, hash=0
07F6  CC010299           [508] settable   7   306 8    ; "attachmentsUgly"
07FA  0B028002           [509] newtable   8   5   0    ; array=5, hash=0
07FE  4B020000           [510] newtable   9   0   0    ; array=0, hash=0
0802  8B020000           [511] newtable   10  0   0    ; array=0, hash=0
0806  DDC20000           [512] getglobal  11  3        ; 738251817
080A  19C31200           [513] loadk      12  75       ; "/Lotus/Characters/Tenno/Anima/SWInsomnia/SWInsomniaDayBody"
080E  E2020001           [514] call       11  2   0  
0812  9B420000           [515] setlist    10  0   1    ; index 1 to top
0816  CB020000           [516] newtable   11  0   0    ; array=0, hash=0
081A  1DC30000           [517] getglobal  12  3        ; 738251817
081E  59031300           [518] loadk      13  76       ; "/Lotus/Characters/Tenno/Anima/SWDivisa/SWDivisaDayBodyMat"
0822  22030001           [519] call       12  2   0  
0826  DB420000           [520] setlist    11  0   1    ; index 1 to top
082A  0B030000           [521] newtable   12  0   0    ; array=0, hash=0
082E  5DC30000           [522] getglobal  13  3        ; 738251817
0832  99431300           [523] loadk      14  77       ; "/Lotus/Characters/Tenno/Anima/SWMegaera/SWMegaeraDayBodyMat"
0836  62030001           [524] call       13  2   0  
083A  1B430000           [525] setlist    12  0   1    ; index 1 to top
083E  4B030000           [526] newtable   13  0   0    ; array=0, hash=0
0842  1B428002           [527] setlist    8   5   1    ; index 1 to 5
0846  CC018299           [528] settable   7   307 8    ; "attachmentMaterialOverrides"
084A  0B020000           [529] newtable   8   0   0    ; array=0, hash=0
084E  CC01829B           [530] settable   7   311 8    ; "attachmentMaterialOverridesUgly"
0852  0B020002           [531] newtable   8   4   0    ; array=4, hash=0
0856  5DC20000           [532] getglobal  9   3        ; 738251817
085A  99821300           [533] loadk      10  78       ; "/Lotus/Powersuits/YinYang/YangCustomizationInfo"
085E  62820001           [534] call       9   2   2  
0862  9DC20000           [535] getglobal  10  3        ; 738251817
0866  D9821300           [536] loadk      11  78       ; "/Lotus/Powersuits/YinYang/YangCustomizationInfo"
086A  A2820001           [537] call       10  2   2  
086E  DDC20000           [538] getglobal  11  3        ; 738251817
0872  19831300           [539] loadk      12  78       ; "/Lotus/Powersuits/YinYang/YangCustomizationInfo"
0876  E2820001           [540] call       11  2   2  
087A  1DC30000           [541] getglobal  12  3        ; 738251817
087E  59831300           [542] loadk      13  78       ; "/Lotus/Powersuits/YinYang/YangCustomizationInfo"
0882  22830001           [543] call       12  2   2  
0886  5DC30000           [544] getglobal  13  3        ; 738251817
088A  99C31300           [545] loadk      14  79       ; "/Lotus/Powersuits/YinYang/EquinoxPrimeDayCustomizationInfo"
088E  62030001           [546] call       13  2   0  
0892  1B420000           [547] setlist    8   0   1    ; index 1 to top
0896  CC01029C           [548] settable   7   312 8    ; "customizationInfo"
089A  1DC20000           [549] getglobal  8   3        ; 738251817
089E  59C21300           [550] loadk      9   79       ; "/Lotus/Powersuits/YinYang/EquinoxPrimeDayCustomizationInfo"
08A2  22820001           [551] call       8   2   2  
08A6  CC01829D           [552] settable   7   315 8    ; "customizationInfoUgly"
08AA  0B020002           [553] newtable   8   4   0    ; array=4, hash=0
08AE  46020006           [554] loadnil    9   12     
08B2  5DC30000           [555] getglobal  13  3        ; 738251817
08B6  99031400           [556] loadk      14  80       ; "/Lotus/Powersuits/YinYang/EquinoxPrimeDaySimCollision"
08BA  62030001           [557] call       13  2   0  
08BE  1B420000           [558] setlist    8   0   1    ; index 1 to top
08C2  CC01029E           [559] settable   7   316 8    ; "simCollisionOverride"
08C6  1DC20000           [560] getglobal  8   3        ; 738251817
08CA  59021400           [561] loadk      9   80       ; "/Lotus/Powersuits/YinYang/EquinoxPrimeDaySimCollision"
08CE  22820001           [562] call       8   2   2  
08D2  CC0182A8           [563] settable   7   337 8    ; "simCollisionOverrideUgly"
08D6  0B028001           [564] newtable   8   3   0    ; array=3, hash=0
08DA  5DC20000           [565] getglobal  9   3        ; 738251817
08DE  99820F00           [566] loadk      10  62       ; "/Lotus/Interface/Icons/Abilities/YinYangSwitch.png"
08E2  62820001           [567] call       9   2   2  
08E6  9DC20000           [568] getglobal  10  3        ; 738251817
08EA  D9821400           [569] loadk      11  82       ; "/Lotus/Interface/Icons/Abilities/YinYangTargetFury.png"
08EE  A2820001           [570] call       10  2   2  
08F2  DDC20000           [571] getglobal  11  3        ; 738251817
08F6  19C31400           [572] loadk      12  83       ; "/Lotus/Interface/Icons/Abilities/YinYangAuraPowerStrength.png"
08FA  E2820001           [573] call       11  2   2  
08FE  1DC30000           [574] getglobal  12  3        ; 738251817
0902  59031500           [575] loadk      13  84       ; "/Lotus/Interface/Icons/Abilities/YinYangBlastHarm.png"
0906  22030001           [576] call       12  2   0  
090A  1B420000           [577] setlist    8   0   1    ; index 1 to top
090E  CC01829E           [578] settable   7   317 8    ; "abilityIcons"
0912  0B420300           [579] newtable   8   0   13   ; array=0, hash=13
0916  4B020003           [580] newtable   9   6   0    ; array=6, hash=0
091A  9DC20000           [581] getglobal  10  3        ; 738251817
091E  D9421500           [582] loadk      11  85       ; "/Lotus/Characters/Tenno/Anima/AnimaAnimusHelmet_skel.fbx"
0922  A2820001           [583] call       10  2   2  
0926  DDC20000           [584] getglobal  11  3        ; 738251817
092A  19831500           [585] loadk      12  86       ; "/Lotus/Characters/Tenno/Anima/AnimaAnimusHelmetAlt_skel.fbx"
092E  E2820001           [586] call       11  2   2  
0932  1DC30000           [587] getglobal  12  3        ; 738251817
0936  59C31500           [588] loadk      13  87       ; "/Lotus/Characters/Tenno/Anima/AnimaAnimusAltHelmet2Combined_skel.fbx"
093A  22830001           [589] call       12  2   2  
093E  5DC30000           [590] getglobal  13  3        ; 738251817
0942  99031600           [591] loadk      14  88       ; "/Lotus/Characters/Tenno/Anima/SWInsomnia/SWInsomniaCombinedHelmet_skel.fbx"
0946  62830001           [592] call       13  2   2  
094A  9DC30000           [593] getglobal  14  3        ; 738251817
094E  D9431600           [594] loadk      15  89       ; "/Lotus/Characters/Tenno/Anima/SWDivisa/SWDivisaCombinedHelmet_skel.fbx"
0952  A2830001           [595] call       14  2   2  
0956  DDC30000           [596] getglobal  15  3        ; 738251817
095A  19841600           [597] loadk      16  90       ; "/Lotus/Characters/Tenno/Anima/SWMegaera/SWMegaeraCombinedHelmet_skel.fbx"
095E  E2830001           [598] call       15  2   2  
0962  1DC40000           [599] getglobal  16  3        ; 738251817
0966  59C41600           [600] loadk      17  91       ; "/Lotus/Characters/Tenno/Anima/EquinoxPrimeCombinedHelmet_skel.fbx"
096A  22040001           [601] call       16  2   0  
096E  5B420000           [602] setlist    9   0   1    ; index 1 to top
0972  0C42828F           [603] settable   8   287 9    ; "helmMeshes"
0976  4B028003           [604] newtable   9   7   0    ; array=7, hash=0
097A  8B020000           [605] newtable   10  0   0    ; array=0, hash=0
097E  CB020000           [606] newtable   11  0   0    ; array=0, hash=0
0982  0B030000           [607] newtable   12  0   0    ; array=0, hash=0
0986  4B030000           [608] newtable   13  0   0    ; array=0, hash=0
098A  8B038000           [609] newtable   14  1   0    ; array=1, hash=0
098E  DDC30000           [610] getglobal  15  3        ; 738251817
0992  19C40200           [611] loadk      16  11       ; "/Lotus/Characters/Tenno/Anima/SWDivisa/Cloth/SWDivisaNightHelmetPonyTailASkeletalCloth"
0996  E2830001           [612] call       15  2   2  
099A  1DC40000           [613] getglobal  16  3        ; 738251817
099E  59040300           [614] loadk      17  12       ; "/Lotus/Characters/Tenno/Anima/SWDivisa/Cloth/SWDivisaDayHelmetPonyTailASkeletalCloth"
09A2  22040001           [615] call       16  2   0  
09A6  9B430000           [616] setlist    14  0   1    ; index 1 to top
09AA  CB030000           [617] newtable   15  0   0    ; array=0, hash=0
09AE  0B040000           [618] newtable   16  0   0    ; array=0, hash=0
09B2  5B428003           [619] setlist    9   7   1    ; index 1 to 7
09B6  0C428293           [620] settable   8   295 9    ; "helmAttachments"
09BA  4B020002           [621] newtable   9   4   0    ; array=4, hash=0
09BE  9DC20000           [622] getglobal  10  3        ; 738251817
09C2  D9021700           [623] loadk      11  92       ; "/Lotus/Characters/Tenno/Anima/AnimaAnimus_skel.fbx"
09C6  A2820001           [624] call       10  2   2  
09CA  DDC20000           [625] getglobal  11  3        ; 738251817
09CE  19031700           [626] loadk      12  92       ; "/Lotus/Characters/Tenno/Anima/AnimaAnimus_skel.fbx"
09D2  E2820001           [627] call       11  2   2  
09D6  1DC30000           [628] getglobal  12  3        ; 738251817
09DA  59031700           [629] loadk      13  92       ; "/Lotus/Characters/Tenno/Anima/AnimaAnimus_skel.fbx"
09DE  22830001           [630] call       12  2   2  
09E2  5DC30000           [631] getglobal  13  3        ; 738251817
09E6  99031700           [632] loadk      14  92       ; "/Lotus/Characters/Tenno/Anima/AnimaAnimus_skel.fbx"
09EA  62830001           [633] call       13  2   2  
09EE  9DC30000           [634] getglobal  14  3        ; 738251817
09F2  D9431700           [635] loadk      15  93       ; "/Lotus/Characters/Tenno/Anima/EquinoxPrimeCombinedBody_skel.fbx"
09F6  A2030001           [636] call       14  2   0  
09FA  5B420000           [637] setlist    9   0   1    ; index 1 to top
09FE  0C420294           [638] settable   8   296 9    ; "mesh"
0A02  5DC20000           [639] getglobal  9   3        ; 738251817
0A06  99421700           [640] loadk      10  93       ; "/Lotus/Characters/Tenno/Anima/EquinoxPrimeCombinedBody_skel.fbx"
0A0A  62820001           [641] call       9   2   2  
0A0E  0C428295           [642] settable   8   299 9    ; "meshUgly"
0A12  4B028002           [643] newtable   9   5   0    ; array=5, hash=0
0A16  8B020000           [644] newtable   10  0   0    ; array=0, hash=0
0A1A  CB028000           [645] newtable   11  1   0    ; array=1, hash=0
0A1E  1DC30000           [646] getglobal  12  3        ; 738251817
0A22  59831700           [647] loadk      13  94       ; "/Lotus/Characters/Tenno/Anima/SWInsomnia/SWInsomniaCombinedTorso"
0A26  22830001           [648] call       12  2   2  
0A2A  5DC30000           [649] getglobal  13  3        ; 738251817
0A2E  99C31700           [650] loadk      14  95       ; "/Lotus/Characters/Tenno/Anima/SWInsomnia/SWInsomniaCombinedLegs"
0A32  62030001           [651] call       13  2   0  
0A36  DB420000           [652] setlist    11  0   1    ; index 1 to top
0A3A  0B038000           [653] newtable   12  1   0    ; array=1, hash=0
0A3E  5DC30000           [654] getglobal  13  3        ; 738251817
0A42  99031800           [655] loadk      14  96       ; "/Lotus/Characters/Tenno/Anima/SWDivisa/SWDivisaNightDayBodyMat"
0A46  62830001           [656] call       13  2   2  
0A4A  9DC30000           [657] getglobal  14  3        ; 738251817
0A4E  D9431800           [658] loadk      15  97       ; "/Lotus/Characters/Tenno/Anima/SWDivisa/SWDivisaDayNightBodyMat"
0A52  A2030001           [659] call       14  2   0  
0A56  1B430000           [660] setlist    12  0   1    ; index 1 to top
0A5A  4B038000           [661] newtable   13  1   0    ; array=1, hash=0
0A5E  9DC30000           [662] getglobal  14  3        ; 738251817
0A62  D9831800           [663] loadk      15  98       ; "/Lotus/Characters/Tenno/Anima/SWMegaera/SWMegaeraNightDayBodyMat"
0A66  A2830001           [664] call       14  2   2  
0A6A  DDC30000           [665] getglobal  15  3        ; 738251817
0A6E  19C41800           [666] loadk      16  99       ; "/Lotus/Characters/Tenno/Anima/SWMegaera/SWMegaeraDayNightBodyMat"
0A72  E2030001           [667] call       15  2   0  
0A76  5B430000           [668] setlist    13  0   1    ; index 1 to top
0A7A  8B030000           [669] newtable   14  0   0    ; array=0, hash=0
0A7E  5B428002           [670] setlist    9   5   1    ; index 1 to 5
0A82  0C420296           [671] settable   8   300 9    ; "materialOverrides"
0A86  4B028002           [672] newtable   9   5   0    ; array=5, hash=0
0A8A  8B020000           [673] newtable   10  0   0    ; array=0, hash=0
0A8E  CB020002           [674] newtable   11  4   0    ; array=4, hash=0
0A92  1DC30000           [675] getglobal  12  3        ; 738251817
0A96  59C31700           [676] loadk      13  95       ; "/Lotus/Characters/Tenno/Anima/SWInsomnia/SWInsomniaCombinedLegs"
0A9A  22830001           [677] call       12  2   2  
0A9E  52030002           [678] move       13  4      
0AA2  9DC30000           [679] getglobal  14  3        ; 738251817
0AA6  D9831700           [680] loadk      15  94       ; "/Lotus/Characters/Tenno/Anima/SWInsomnia/SWInsomniaCombinedTorso"
0AAA  A2830001           [681] call       14  2   2  
0AAE  D2030002           [682] move       15  4      
0AB2  DB420002           [683] setlist    11  4   1    ; index 1 to 4
0AB6  0B030002           [684] newtable   12  4   0    ; array=4, hash=0
0ABA  5DC30000           [685] getglobal  13  3        ; 738251817
0ABE  99431800           [686] loadk      14  97       ; "/Lotus/Characters/Tenno/Anima/SWDivisa/SWDivisaDayNightBodyMat"
0AC2  62830001           [687] call       13  2   2  
0AC6  92030002           [688] move       14  4      
0ACA  DDC30000           [689] getglobal  15  3        ; 738251817
0ACE  19041800           [690] loadk      16  96       ; "/Lotus/Characters/Tenno/Anima/SWDivisa/SWDivisaNightDayBodyMat"
0AD2  E2830001           [691] call       15  2   2  
0AD6  12040002           [692] move       16  4      
0ADA  1B430002           [693] setlist    12  4   1    ; index 1 to 4
0ADE  4B030002           [694] newtable   13  4   0    ; array=4, hash=0
0AE2  9DC30000           [695] getglobal  14  3        ; 738251817
0AE6  D9C31800           [696] loadk      15  99       ; "/Lotus/Characters/Tenno/Anima/SWMegaera/SWMegaeraDayNightBodyMat"
0AEA  A2830001           [697] call       14  2   2  
0AEE  D2030002           [698] move       15  4      
0AF2  1DC40000           [699] getglobal  16  3        ; 738251817
0AF6  59841800           [700] loadk      17  98       ; "/Lotus/Characters/Tenno/Anima/SWMegaera/SWMegaeraNightDayBodyMat"
0AFA  22840001           [701] call       16  2   2  
0AFE  52040002           [702] move       17  4      
0B02  5B430002           [703] setlist    13  4   1    ; index 1 to 4
0B06  8B030000           [704] newtable   14  0   0    ; array=0, hash=0
0B0A  5B428002           [705] setlist    9   5   1    ; index 1 to 5
0B0E  0C420298           [706] settable   8   304 9    ; "materialOverridesUgly"
0B12  4B028002           [707] newtable   9   5   0    ; array=5, hash=0
0B16  8B020001           [708] newtable   10  2   0    ; array=2, hash=0
0B1A  DDC20000           [709] getglobal  11  3        ; 738251817
0B1E  19C30400           [710] loadk      12  19       ; "/Lotus/Characters/Tenno/Anima/AnimaSleeveClothLDeco"
0B22  E2820001           [711] call       11  2   2  
0B26  1DC30000           [712] getglobal  12  3        ; 738251817
0B2A  59830500           [713] loadk      13  22       ; "/Lotus/Characters/Tenno/Anima/AnimaAnimusHalfDressDeco"
0B2E  22830001           [714] call       12  2   2  
0B32  5DC30000           [715] getglobal  13  3        ; 738251817
0B36  99C30500           [716] loadk      14  23       ; "/Lotus/Characters/Tenno/Anima/AnimaAnimusSleeveClothRDeco"
0B3A  62030001           [717] call       13  2   0  
0B3E  9B420000           [718] setlist    10  0   1    ; index 1 to top
0B42  CB020001           [719] newtable   11  2   0    ; array=2, hash=0
0B46  1DC30000           [720] getglobal  12  3        ; 738251817
0B4A  59C30400           [721] loadk      13  19       ; "/Lotus/Characters/Tenno/Anima/AnimaSleeveClothLDeco"
0B4E  22830001           [722] call       12  2   2  
0B52  5DC30000           [723] getglobal  13  3        ; 738251817
0B56  99830500           [724] loadk      14  22       ; "/Lotus/Characters/Tenno/Anima/AnimaAnimusHalfDressDeco"
0B5A  62830001           [725] call       13  2   2  
0B5E  9DC30000           [726] getglobal  14  3        ; 738251817
0B62  D9C30500           [727] loadk      15  23       ; "/Lotus/Characters/Tenno/Anima/AnimaAnimusSleeveClothRDeco"
0B66  A2030001           [728] call       14  2   0  
0B6A  DB420000           [729] setlist    11  0   1    ; index 1 to top
0B6E  0B030001           [730] newtable   12  2   0    ; array=2, hash=0
0B72  5DC30000           [731] getglobal  13  3        ; 738251817
0B76  99C30400           [732] loadk      14  19       ; "/Lotus/Characters/Tenno/Anima/AnimaSleeveClothLDeco"
0B7A  62830001           [733] call       13  2   2  
0B7E  9DC30000           [734] getglobal  14  3        ; 738251817
0B82  D9830500           [735] loadk      15  22       ; "/Lotus/Characters/Tenno/Anima/AnimaAnimusHalfDressDeco"
0B86  A2830001           [736] call       14  2   2  
0B8A  DDC30000           [737] getglobal  15  3        ; 738251817
0B8E  19C40500           [738] loadk      16  23       ; "/Lotus/Characters/Tenno/Anima/AnimaAnimusSleeveClothRDeco"
0B92  E2030001           [739] call       15  2   0  
0B96  1B430000           [740] setlist    12  0   1    ; index 1 to top
0B9A  4B030001           [741] newtable   13  2   0    ; array=2, hash=0
0B9E  9DC30000           [742] getglobal  14  3        ; 738251817
0BA2  D9C30400           [743] loadk      15  19       ; "/Lotus/Characters/Tenno/Anima/AnimaSleeveClothLDeco"
0BA6  A2830001           [744] call       14  2   2  
0BAA  DDC30000           [745] getglobal  15  3        ; 738251817
0BAE  19840500           [746] loadk      16  22       ; "/Lotus/Characters/Tenno/Anima/AnimaAnimusHalfDressDeco"
0BB2  E2830001           [747] call       15  2   2  
0BB6  1DC40000           [748] getglobal  16  3        ; 738251817
0BBA  59C40500           [749] loadk      17  23       ; "/Lotus/Characters/Tenno/Anima/AnimaAnimusSleeveClothRDeco"
0BBE  22040001           [750] call       16  2   0  
0BC2  5B430000           [751] setlist    13  0   1    ; index 1 to top
0BC6  8B030000           [752] newtable   14  0   0    ; array=0, hash=0
0BCA  DDC30000           [753] getglobal  15  3        ; 738251817
0BCE  19C40600           [754] loadk      16  27       ; "/Lotus/Characters/Tenno/Anima/Cloth/EquinoxPrimeCombinedDressDeco"
0BD2  E2030001           [755] call       15  2   0  
0BD6  9B430000           [756] setlist    14  0   1    ; index 1 to top
0BDA  5B428002           [757] setlist    9   5   1    ; index 1 to 5
0BDE  0C428298           [758] settable   8   305 9    ; "attachments"
0BE2  4B020000           [759] newtable   9   0   0    ; array=0, hash=0
0BE6  9DC20000           [760] getglobal  10  3        ; 738251817
0BEA  D9C20600           [761] loadk      11  27       ; "/Lotus/Characters/Tenno/Anima/Cloth/EquinoxPrimeCombinedDressDeco"
0BEE  A2020001           [762] call       10  2   0  
0BF2  5B420000           [763] setlist    9   0   1    ; index 1 to top
0BF6  0C420299           [764] settable   8   306 9    ; "attachmentsUgly"
0BFA  4B028002           [765] newtable   9   5   0    ; array=5, hash=0
0BFE  8B020000           [766] newtable   10  0   0    ; array=0, hash=0
0C02  CB020000           [767] newtable   11  0   0    ; array=0, hash=0
0C06  1DC30000           [768] getglobal  12  3        ; 738251817
0C0A  59031900           [769] loadk      13  100      ; "/Lotus/Characters/Tenno/Anima/SWInsomnia/SWInsomniaCombinedCloth"
0C0E  22030001           [770] call       12  2   0  
0C12  DB420000           [771] setlist    11  0   1    ; index 1 to top
0C16  0B030000           [772] newtable   12  0   0    ; array=0, hash=0
0C1A  5DC30000           [773] getglobal  13  3        ; 738251817
0C1E  99431900           [774] loadk      14  101      ; "/Lotus/Characters/Tenno/Anima/SWDivisa/SWDivisaCombinedClothMat"
0C22  62030001           [775] call       13  2   0  
0C26  1B430000           [776] setlist    12  0   1    ; index 1 to top
0C2A  4B030000           [777] newtable   13  0   0    ; array=0, hash=0
0C2E  9DC30000           [778] getglobal  14  3        ; 738251817
0C32  D9831900           [779] loadk      15  102      ; "/Lotus/Characters/Tenno/Anima/SWMegaera/SWMegaeraCombinedClothMat"
0C36  A2030001           [780] call       14  2   0  
0C3A  5B430000           [781] setlist    13  0   1    ; index 1 to top
0C3E  8B030000           [782] newtable   14  0   0    ; array=0, hash=0
0C42  5B428002           [783] setlist    9   5   1    ; index 1 to 5
0C46  0C428299           [784] settable   8   307 9    ; "attachmentMaterialOverrides"
0C4A  4B020000           [785] newtable   9   0   0    ; array=0, hash=0
0C4E  0C42829B           [786] settable   8   311 9    ; "attachmentMaterialOverridesUgly"
0C52  4B020000           [787] newtable   9   0   0    ; array=0, hash=0
0C56  0C42029C           [788] settable   8   312 9    ; "customizationInfo"
0C5A  4B020002           [789] newtable   9   4   0    ; array=4, hash=0
0C5E  86028006           [790] loadnil    10  13     
0C62  9DC30000           [791] getglobal  14  3        ; 738251817
0C66  D9031400           [792] loadk      15  80       ; "/Lotus/Powersuits/YinYang/EquinoxPrimeDaySimCollision"
0C6A  A2030001           [793] call       14  2   0  
0C6E  5B420000           [794] setlist    9   0   1    ; index 1 to top
0C72  0C42029E           [795] settable   8   316 9    ; "simCollisionOverride"
0C76  5DC20000           [796] getglobal  9   3        ; 738251817
0C7A  99021400           [797] loadk      10  80       ; "/Lotus/Powersuits/YinYang/EquinoxPrimeDaySimCollision"
0C7E  62820001           [798] call       9   2   2  
0C82  0C4282A8           [799] settable   8   337 9    ; "simCollisionOverrideUgly"
0C86  59C21900           [800] loadk      9   103      ; 0
0C8A  99021A00           [801] loadk      10  104      ; 0
0C8E  D9421A00           [802] loadk      11  105      ; 0
0C92  19831A00           [803] loadk      12  106      ; 0
0C96  65030000           [804] closure    13  0      
0C9A  A5430000           [805] closure    14  1      
0C9E  12008006           [806] move       0   13     
0CA2  E5830000           [807] closure    15  2      
0CA6  12000001           [808] move       0   2      
0CAA  12000002           [809] move       0   4      
0CAE  12008002           [810] move       0   5      
0CB2  12000000           [811] move       0   0      
0CB6  12000007           [812] move       0   14     
0CBA  12008000           [813] move       0   1      
0CBE  12008001           [814] move       0   3      
0CC2  25C40000           [815] closure    16  3      
0CC6  12008004           [816] move       0   9      
0CCA  12008007           [817] move       0   15     
0CCE  12000003           [818] move       0   6      
0CD2  12000005           [819] move       0   10     
0CD6  12008003           [820] move       0   7      
0CDA  12000004           [821] move       0   8      
0CDE  65040100           [822] closure    17  4      
0CE2  12000008           [823] move       0   16     
0CE6  A5440100           [824] closure    18  5      
0CEA  12008004           [825] move       0   9      
0CEE  12008005           [826] move       0   11     
0CF2  12008008           [827] move       0   17     
0CF6  12000005           [828] move       0   10     
0CFA  A0C41A00           [829] setglobal  18  107      ; SwitchPolarity
0CFE  A0041B00           [830] setglobal  18  108      ; -1439273015
0D02  A5840100           [831] closure    18  6      
0D06  12008004           [832] move       0   9      
0D0A  12008008           [833] move       0   17     
0D0E  12008005           [834] move       0   11     
0D12  12000005           [835] move       0   10     
0D16  12000006           [836] move       0   12     
0D1A  A0441B00           [837] setglobal  18  109      ; PartialSwitchPolarity
0D1E  A0841B00           [838] setglobal  18  110      ; 793395752
0D22  A5C40100           [839] closure    18  7      
0D26  12008005           [840] move       0   11     
0D2A  12008008           [841] move       0   17     
0D2E  12008004           [842] move       0   9      
0D32  12000006           [843] move       0   12     
0D36  12000005           [844] move       0   10     
0D3A  A0C41B00           [845] setglobal  18  111      ; UndoPartialSwitch
0D3E  A0041C00           [846] setglobal  18  112      ; -167935793
0D42  A5040200           [847] closure    18  8      
0D46  12008004           [848] move       0   9      
0D4A  12008008           [849] move       0   17     
0D4E  A0441C00           [850] setglobal  18  113      ; ForceYin
0D52  A0841C00           [851] setglobal  18  114      ; 315832179
0D56  A5440200           [852] closure    18  9      
0D5A  12000005           [853] move       0   10     
0D5E  12008008           [854] move       0   17     
0D62  A0C41C00           [855] setglobal  18  115      ; ForceYang
0D66  A0041D00           [856] setglobal  18  116      ; 1919368430
0D6A  A5840200           [857] closure    18  10     
0D6E  12000008           [858] move       0   16     
0D72  A0441D00           [859] setglobal  18  117      ; RedoPolarity
0D76  A0841D00           [860] setglobal  18  118      ; -158635682
0D7A  A5C40200           [861] closure    18  11     
0D7E  12008004           [862] move       0   9      
0D82  A0C41D00           [863] setglobal  18  119      ; IsYin
0D86  A0041E00           [864] setglobal  18  120      ; -2035834394
0D8A  A5040300           [865] closure    18  12     
0D8E  12000005           [866] move       0   10     
0D92  A0441E00           [867] setglobal  18  121      ; IsYang
0D96  A0841E00           [868] setglobal  18  122      ; -146357477
0D9A  A5440300           [869] closure    18  13     
0D9E  12000005           [870] move       0   10     
0DA2  12008004           [871] move       0   9      
0DA6  E5840300           [872] closure    19  14     
0DAA  12000009           [873] move       0   18     
0DAE  12008004           [874] move       0   9      
0DB2  E0C41E00           [875] setglobal  19  123      ; YinColorPolarity
0DB6  E0041F00           [876] setglobal  19  124      ; 985288355
0DBA  E5C40300           [877] closure    19  15     
0DBE  12008004           [878] move       0   9      
0DC2  12000009           [879] move       0   18     
0DC6  12000006           [880] move       0   12     
0DCA  12008008           [881] move       0   17     
0DCE  12008005           [882] move       0   11     
0DD2  12000008           [883] move       0   16     
0DD6  E0441F00           [884] setglobal  19  125      ; Initialize
0DDA  E0841F00           [885] setglobal  19  126      ; 1650753590
0DDE  E5040400           [886] closure    19  16     
0DE2  12008001           [887] move       0   3      
0DE6  E0C41F00           [888] setglobal  19  127      ; CleanUp
0DEA  E0042000           [889] setglobal  19  128      ; 169014136
0DEE  E5440400           [890] closure    19  17     
0DF2  12000000           [891] move       0   0      
0DF6  12008004           [892] move       0   9      
0DFA  12000003           [893] move       0   6      
0DFE  12000005           [894] move       0   10     
0E02  12008003           [895] move       0   7      
0E06  12000004           [896] move       0   8      
0E0A  E0442000           [897] setglobal  19  129      ; SetupHelmet
0E0E  E0842000           [898] setglobal  19  130      ; 808813063
0E12  E5840400           [899] closure    19  18     
0E16  12008004           [900] move       0   9      
0E1A  12008007           [901] move       0   15     
0E1E  12008003           [902] move       0   7      
0E22  12000005           [903] move       0   10     
0E26  12000003           [904] move       0   6      
0E2A  12000004           [905] move       0   8      
0E2E  E0C42000           [906] setglobal  19  131      ; SetupDecoOpposite
0E32  E0042100           [907] setglobal  19  132      ; 934743152
0E36  E5C40400           [908] closure    19  19     
0E3A  12000004           [909] move       0   8      
0E3E  12000000           [910] move       0   0      
0E42  12000007           [911] move       0   14     
0E46  12008000           [912] move       0   1      
0E4A  12008001           [913] move       0   3      
0E4E  12008004           [914] move       0   9      
0E52  12000003           [915] move       0   6      
0E56  12000005           [916] move       0   10     
0E5A  12008003           [917] move       0   7      
0E5E  E0442100           [918] setglobal  19  133      ; DioramaView
0E62  E0842100           [919] setglobal  19  134      ; 817059416
0E66  1E008000           [920] return     0   1      
                         * constants:
0E6B  01                 sizek (135)
0E6C  01                 const type 3
0E6D  0FA3E338           const [0]: (954442511)
0E71  04                 const type 4
0E72  08                 string size (8)
0E73  7061636B61676500   "package\0"
                         const [1]: "package"
0E7B  04                 const type 4
0E7C  07                 string size (7)
0E7D  736565616C6C00     "seeall\0"
                         const [2]: "seeall"
0E84  01                 const type 3
0E85  29D4002C           const [3]: (738251817)
0E89  04                 const type 4
0E8A  2E                 string size (46)
0E8B  2F4C6F7475732F43+  "/Lotus/C"
0E93  6861726163746572+  "haracter"
0E9B  732F54656E6E6F2F+  "s/Tenno/"
0EA3  416E696D612F416E+  "Anima/An"
0EAB  696D6148656C6D65+  "imaHelme"
0EB3  744465636F00       "tDeco\0"
                         const [4]: "/Lotus/Characters/Tenno/Anima/AnimaHelmetDeco"
0EB9  04                 const type 4
0EBA  31                 string size (49)
0EBB  2F4C6F7475732F43+  "/Lotus/C"
0EC3  6861726163746572+  "haracter"
0ECB  732F54656E6E6F2F+  "s/Tenno/"
0ED3  416E696D612F416E+  "Anima/An"
0EDB  696D61416C744865+  "imaAltHe"
0EE3  6C6D65744465636F+  "lmetDeco"
0EEB  00                 "\0"
                         const [5]: "/Lotus/Characters/Tenno/Anima/AnimaAltHelmetDeco"
0EEC  04                 const type 4
0EED  32                 string size (50)
0EEE  2F4C6F7475732F43+  "/Lotus/C"
0EF6  6861726163746572+  "haracter"
0EFE  732F54656E6E6F2F+  "s/Tenno/"
0F06  416E696D612F416E+  "Anima/An"
0F0E  696D61416C744865+  "imaAltHe"
0F16  6C6D657432446563+  "lmet2Dec"
0F1E  6F00               "o\0"
                         const [6]: "/Lotus/Characters/Tenno/Anima/AnimaAltHelmet2Deco"
0F20  04                 const type 4
0F21  46                 string size (70)
0F22  2F4C6F7475732F43+  "/Lotus/C"
0F2A  6861726163746572+  "haracter"
0F32  732F54656E6E6F2F+  "s/Tenno/"
0F3A  416E696D612F5357+  "Anima/SW"
0F42  496E736F6D6E6961+  "Insomnia"
0F4A  2F5357496E736F6D+  "/SWInsom"
0F52  6E6961436F6D6269+  "niaCombi"
0F5A  6E656448656C6D65+  "nedHelme"
0F62  744465636F00       "tDeco\0"
                         const [7]: "/Lotus/Characters/Tenno/Anima/SWInsomnia/SWInsomniaCombinedHelmetDeco"
0F68  04                 const type 4
0F69  43                 string size (67)
0F6A  2F4C6F7475732F43+  "/Lotus/C"
0F72  6861726163746572+  "haracter"
0F7A  732F54656E6E6F2F+  "s/Tenno/"
0F82  416E696D612F5357+  "Anima/SW"
0F8A  4469766973612F53+  "Divisa/S"
0F92  5744697669736143+  "WDivisaC"
0F9A  6F6D62696E656448+  "ombinedH"
0FA2  656C6D6574414465+  "elmetADe"
0FAA  636F00             "co\0"
                         const [8]: "/Lotus/Characters/Tenno/Anima/SWDivisa/SWDivisaCombinedHelmetADeco"
0FAD  04                 const type 4
0FAE  44                 string size (68)
0FAF  2F4C6F7475732F43+  "/Lotus/C"
0FB7  6861726163746572+  "haracter"
0FBF  732F54656E6E6F2F+  "s/Tenno/"
0FC7  416E696D612F5357+  "Anima/SW"
0FCF  4D6567616572612F+  "Megaera/"
0FD7  53574D6567616572+  "SWMegaer"
0FDF  61436F6D62696E65+  "aCombine"
0FE7  6448656C6D657444+  "dHelmetD"
0FEF  65636F00           "eco\0"
                         const [9]: "/Lotus/Characters/Tenno/Anima/SWMegaera/SWMegaeraCombinedHelmetDeco"
0FF3  04                 const type 4
0FF4  3D                 string size (61)
0FF5  2F4C6F7475732F43+  "/Lotus/C"
0FFD  6861726163746572+  "haracter"
1005  732F54656E6E6F2F+  "s/Tenno/"
100D  416E696D612F4571+  "Anima/Eq"
1015  75696E6F78507269+  "uinoxPri"
101D  6D65436F6D62696E+  "meCombin"
1025  656448656C6D6574+  "edHelmet"
102D  4465636F00         "Deco\0"
                         const [10]: "/Lotus/Characters/Tenno/Anima/EquinoxPrimeCombinedHelmetDeco"
1032  04                 const type 4
1033  57                 string size (87)
1034  2F4C6F7475732F43+  "/Lotus/C"
103C  6861726163746572+  "haracter"
1044  732F54656E6E6F2F+  "s/Tenno/"
104C  416E696D612F5357+  "Anima/SW"
1054  4469766973612F43+  "Divisa/C"
105C  6C6F74682F535744+  "loth/SWD"
1064  69766973614E6967+  "ivisaNig"
106C  687448656C6D6574+  "htHelmet"
1074  506F6E795461696C+  "PonyTail"
107C  41536B656C657461+  "ASkeleta"
1084  6C436C6F746800     "lCloth\0"
                         const [11]: "/Lotus/Characters/Tenno/Anima/SWDivisa/Cloth/SWDivisaNightHelmetPonyTailASkeletalCloth"
108B  04                 const type 4
108C  55                 string size (85)
108D  2F4C6F7475732F43+  "/Lotus/C"
1095  6861726163746572+  "haracter"
109D  732F54656E6E6F2F+  "s/Tenno/"
10A5  416E696D612F5357+  "Anima/SW"
10AD  4469766973612F43+  "Divisa/C"
10B5  6C6F74682F535744+  "loth/SWD"
10BD  6976697361446179+  "ivisaDay"
10C5  48656C6D6574506F+  "HelmetPo"
10CD  6E795461696C4153+  "nyTailAS"
10D5  6B656C6574616C43+  "keletalC"
10DD  6C6F746800         "loth\0"
                         const [12]: "/Lotus/Characters/Tenno/Anima/SWDivisa/Cloth/SWDivisaDayHelmetPonyTailASkeletalCloth"
10E2  04                 const type 4
10E3  2A                 string size (42)
10E4  2F4C6F7475732F55+  "/Lotus/U"
10EC  706772616465732F+  "pgrades/"
10F4  536B696E732F5969+  "Skins/Yi"
10FC  6E59616E672F5969+  "nYang/Yi"
1104  6E59616E67536B69+  "nYangSki"
110C  6E00               "n\0"
                         const [13]: "/Lotus/Upgrades/Skins/YinYang/YinYangSkin"
110E  04                 const type 4
110F  2B                 string size (43)
1110  2F4C6F7475732F55+  "/Lotus/U"
1118  706772616465732F+  "pgrades/"
1120  536B696E732F416E+  "Skins/An"
1128  696D612F5357496E+  "ima/SWIn"
1130  736F6D6E6961536B+  "somniaSk"
1138  696E00             "in\0"
                         const [14]: "/Lotus/Upgrades/Skins/Anima/SWInsomniaSkin"
113B  04                 const type 4
113C  29                 string size (41)
113D  2F4C6F7475732F55+  "/Lotus/U"
1145  706772616465732F+  "pgrades/"
114D  536B696E732F416E+  "Skins/An"
1155  696D612F53574469+  "ima/SWDi"
115D  76697361536B696E+  "visaSkin"
1165  00                 "\0"
                         const [15]: "/Lotus/Upgrades/Skins/Anima/SWDivisaSkin"
1166  04                 const type 4
1167  2A                 string size (42)
1168  2F4C6F7475732F55+  "/Lotus/U"
1170  706772616465732F+  "pgrades/"
1178  536B696E732F416E+  "Skins/An"
1180  696D612F53574D65+  "ima/SWMe"
1188  6761657261536B69+  "gaeraSki"
1190  6E00               "n\0"
                         const [16]: "/Lotus/Upgrades/Skins/Anima/SWMegaeraSkin"
1192  04                 const type 4
1193  2F                 string size (47)
1194  2F4C6F7475732F55+  "/Lotus/U"
119C  706772616465732F+  "pgrades/"
11A4  536B696E732F5969+  "Skins/Yi"
11AC  6E59616E672F4571+  "nYang/Eq"
11B4  75696E6F78507269+  "uinoxPri"
11BC  6D65536B696E00     "meSkin\0"
                         const [17]: "/Lotus/Upgrades/Skins/YinYang/EquinoxPrimeSkin"
11C3  04                 const type 4
11C4  2D                 string size (45)
11C5  2F4C6F7475732F43+  "/Lotus/C"
11CD  6861726163746572+  "haracter"
11D5  732F54656E6E6F2F+  "s/Tenno/"
11DD  416E696D612F416E+  "Anima/An"
11E5  696D614472657373+  "imaDress"
11ED  4465636F00         "Deco\0"
                         const [18]: "/Lotus/Characters/Tenno/Anima/AnimaDressDeco"
11F2  04                 const type 4
11F3  34                 string size (52)
11F4  2F4C6F7475732F43+  "/Lotus/C"
11FC  6861726163746572+  "haracter"
1204  732F54656E6E6F2F+  "s/Tenno/"
120C  416E696D612F416E+  "Anima/An"
1214  696D61536C656576+  "imaSleev"
121C  65436C6F74684C44+  "eClothLD"
1224  65636F00           "eco\0"
                         const [19]: "/Lotus/Characters/Tenno/Anima/AnimaSleeveClothLDeco"
1228  04                 const type 4
1229  34                 string size (52)
122A  2F4C6F7475732F43+  "/Lotus/C"
1232  6861726163746572+  "haracter"
123A  732F54656E6E6F2F+  "s/Tenno/"
1242  416E696D612F416E+  "Anima/An"
124A  696D61536C656576+  "imaSleev"
1252  65436C6F74685244+  "eClothRD"
125A  65636F00           "eco\0"
                         const [20]: "/Lotus/Characters/Tenno/Anima/AnimaSleeveClothRDeco"
125E  04                 const type 4
125F  31                 string size (49)
1260  2F4C6F7475732F43+  "/Lotus/C"
1268  6861726163746572+  "haracter"
1270  732F54656E6E6F2F+  "s/Tenno/"
1278  416E696D612F416E+  "Anima/An"
1280  696D75734C656752+  "imusLegR"
1288  696E67734465636F+  "ingsDeco"
1290  00                 "\0"
                         const [21]: "/Lotus/Characters/Tenno/Anima/AnimusLegRingsDeco"
1291  04                 const type 4
1292  37                 string size (55)
1293  2F4C6F7475732F43+  "/Lotus/C"
129B  6861726163746572+  "haracter"
12A3  732F54656E6E6F2F+  "s/Tenno/"
12AB  416E696D612F416E+  "Anima/An"
12B3  696D61416E696D75+  "imaAnimu"
12BB  7348616C66447265+  "sHalfDre"
12C3  73734465636F00     "ssDeco\0"
                         const [22]: "/Lotus/Characters/Tenno/Anima/AnimaAnimusHalfDressDeco"
12CA  04                 const type 4
12CB  3A                 string size (58)
12CC  2F4C6F7475732F43+  "/Lotus/C"
12D4  6861726163746572+  "haracter"
12DC  732F54656E6E6F2F+  "s/Tenno/"
12E4  416E696D612F416E+  "Anima/An"
12EC  696D61416E696D75+  "imaAnimu"
12F4  73536C6565766543+  "sSleeveC"
12FC  6C6F746852446563+  "lothRDec"
1304  6F00               "o\0"
                         const [23]: "/Lotus/Characters/Tenno/Anima/AnimaAnimusSleeveClothRDeco"
1306  04                 const type 4
1307  3F                 string size (63)
1308  2F4C6F7475732F43+  "/Lotus/C"
1310  6861726163746572+  "haracter"
1318  732F54656E6E6F2F+  "s/Tenno/"
1320  416E696D612F436C+  "Anima/Cl"
1328  6F74682F45717569+  "oth/Equi"
1330  6E6F785072696D65+  "noxPrime"
1338  4E69676874447265+  "NightDre"
1340  73734465636F00     "ssDeco\0"
                         const [24]: "/Lotus/Characters/Tenno/Anima/Cloth/EquinoxPrimeNightDressDeco"
1347  04                 const type 4
1348  46                 string size (70)
1349  2F4C6F7475732F43+  "/Lotus/C"
1351  6861726163746572+  "haracter"
1359  732F54656E6E6F2F+  "s/Tenno/"
1361  416E696D612F436C+  "Anima/Cl"
1369  6F74682F45717569+  "oth/Equi"
1371  6E6F785072696D65+  "noxPrime"
1379  4E69676874536C65+  "NightSle"
1381  657665436C6F7468+  "eveCloth"
1389  4C4465636F00       "LDeco\0"
                         const [25]: "/Lotus/Characters/Tenno/Anima/Cloth/EquinoxPrimeNightSleeveClothLDeco"
138F  04                 const type 4
1390  46                 string size (70)
1391  2F4C6F7475732F43+  "/Lotus/C"
1399  6861726163746572+  "haracter"
13A1  732F54656E6E6F2F+  "s/Tenno/"
13A9  416E696D612F436C+  "Anima/Cl"
13B1  6F74682F45717569+  "oth/Equi"
13B9  6E6F785072696D65+  "noxPrime"
13C1  4E69676874536C65+  "NightSle"
13C9  657665436C6F7468+  "eveCloth"
13D1  524465636F00       "RDeco\0"
                         const [26]: "/Lotus/Characters/Tenno/Anima/Cloth/EquinoxPrimeNightSleeveClothRDeco"
13D7  04                 const type 4
13D8  42                 string size (66)
13D9  2F4C6F7475732F43+  "/Lotus/C"
13E1  6861726163746572+  "haracter"
13E9  732F54656E6E6F2F+  "s/Tenno/"
13F1  416E696D612F436C+  "Anima/Cl"
13F9  6F74682F45717569+  "oth/Equi"
1401  6E6F785072696D65+  "noxPrime"
1409  436F6D62696E6564+  "Combined"
1411  4472657373446563+  "DressDec"
1419  6F00               "o\0"
                         const [27]: "/Lotus/Characters/Tenno/Anima/Cloth/EquinoxPrimeCombinedDressDeco"
141B  04                 const type 4
141C  2C                 string size (44)
141D  2F4C6F7475732F43+  "/Lotus/C"
1425  6861726163746572+  "haracter"
142D  732F54656E6E6F2F+  "s/Tenno/"
1435  456D707479557365+  "EmptyUse"
143D  5072696D61727954+  "PrimaryT"
1445  696E7400           "int\0"
                         const [28]: "/Lotus/Characters/Tenno/EmptyUsePrimaryTint"
1449  01                 const type 3
144A  1A4B27EC           const [29]: (-332969190)
144E  04                 const type 4
144F  14                 string size (20)
1450  456D707479557365+  "EmptyUse"
1458  5072696D61727954+  "PrimaryT"
1460  696E7400           "int\0"
                         const [30]: "EmptyUsePrimaryTint"
1464  04                 const type 4
1465  0B                 string size (11)
1466  68656C6D4D657368+  "helmMesh"
146E  657300             "es\0"
                         const [31]: "helmMeshes"
1471  04                 const type 4
1472  33                 string size (51)
1473  2F4C6F7475732F43+  "/Lotus/C"
147B  6861726163746572+  "haracter"
1483  732F54656E6E6F2F+  "s/Tenno/"
148B  416E696D612F416E+  "Anima/An"
1493  696D6148656C6D65+  "imaHelme"
149B  745F736B656C2E66+  "t_skel.f"
14A3  627800             "bx\0"
                         const [32]: "/Lotus/Characters/Tenno/Anima/AnimaHelmet_skel.fbx"
14A6  04                 const type 4
14A7  36                 string size (54)
14A8  2F4C6F7475732F43+  "/Lotus/C"
14B0  6861726163746572+  "haracter"
14B8  732F54656E6E6F2F+  "s/Tenno/"
14C0  416E696D612F416E+  "Anima/An"
14C8  696D6148656C6D65+  "imaHelme"
14D0  74416C745F736B65+  "tAlt_ske"
14D8  6C2E66627800       "l.fbx\0"
                         const [33]: "/Lotus/Characters/Tenno/Anima/AnimaHelmetAlt_skel.fbx"
14DE  04                 const type 4
14DF  41                 string size (65)
14E0  2F4C6F7475732F43+  "/Lotus/C"
14E8  6861726163746572+  "haracter"
14F0  732F54656E6E6F2F+  "s/Tenno/"
14F8  416E696D612F416E+  "Anima/An"
1500  696D61416E696D75+  "imaAnimu"
1508  73416C7448656C6D+  "sAltHelm"
1510  6574324461726B5F+  "et2Dark_"
1518  736B656C2E666278+  "skel.fbx"
1520  00                 "\0"
                         const [34]: "/Lotus/Characters/Tenno/Anima/AnimaAnimusAltHelmet2Dark_skel.fbx"
1521  04                 const type 4
1522  48                 string size (72)
1523  2F4C6F7475732F43+  "/Lotus/C"
152B  6861726163746572+  "haracter"
1533  732F54656E6E6F2F+  "s/Tenno/"
153B  416E696D612F5357+  "Anima/SW"
1543  496E736F6D6E6961+  "Insomnia"
154B  2F5357496E736F6D+  "/SWInsom"
1553  6E69614E69676874+  "niaNight"
155B  48656C6D65745F73+  "Helmet_s"
1563  6B656C2E66627800   "kel.fbx\0"
                         const [35]: "/Lotus/Characters/Tenno/Anima/SWInsomnia/SWInsomniaNightHelmet_skel.fbx"
156B  04                 const type 4
156C  44                 string size (68)
156D  2F4C6F7475732F43+  "/Lotus/C"
1575  6861726163746572+  "haracter"
157D  732F54656E6E6F2F+  "s/Tenno/"
1585  416E696D612F5357+  "Anima/SW"
158D  4469766973612F53+  "Divisa/S"
1595  574469766973614E+  "WDivisaN"
159D  6967687448656C6D+  "ightHelm"
15A5  65745F736B656C2E+  "et_skel."
15AD  66627800           "fbx\0"
                         const [36]: "/Lotus/Characters/Tenno/Anima/SWDivisa/SWDivisaNightHelmet_skel.fbx"
15B1  04                 const type 4
15B2  46                 string size (70)
15B3  2F4C6F7475732F43+  "/Lotus/C"
15BB  6861726163746572+  "haracter"
15C3  732F54656E6E6F2F+  "s/Tenno/"
15CB  416E696D612F5357+  "Anima/SW"
15D3  4D6567616572612F+  "Megaera/"
15DB  53574D6567616572+  "SWMegaer"
15E3  614E696768744865+  "aNightHe"
15EB  6C6D65745F736B65+  "lmet_ske"
15F3  6C2E66627800       "l.fbx\0"
                         const [37]: "/Lotus/Characters/Tenno/Anima/SWMegaera/SWMegaeraNightHelmet_skel.fbx"
15F9  04                 const type 4
15FA  3F                 string size (63)
15FB  2F4C6F7475732F43+  "/Lotus/C"
1603  6861726163746572+  "haracter"
160B  732F54656E6E6F2F+  "s/Tenno/"
1613  416E696D612F4571+  "Anima/Eq"
161B  75696E6F78507269+  "uinoxPri"
1623  6D654E6967687448+  "meNightH"
162B  656C6D65745F736B+  "elmet_sk"
1633  656C2E66627800     "el.fbx\0"
                         const [38]: "/Lotus/Characters/Tenno/Anima/EquinoxPrimeNightHelmet_skel.fbx"
163A  04                 const type 4
163B  10                 string size (16)
163C  68656C6D41747461+  "helmAtta"
1644  63686D656E747300   "chments\0"
                         const [39]: "helmAttachments"
164C  04                 const type 4
164D  05                 string size (5)
164E  6D65736800         "mesh\0"
                         const [40]: "mesh"
1653  04                 const type 4
1654  2D                 string size (45)
1655  2F4C6F7475732F43+  "/Lotus/C"
165D  6861726163746572+  "haracter"
1665  732F54656E6E6F2F+  "s/Tenno/"
166D  416E696D612F416E+  "Anima/An"
1675  696D615F736B656C+  "ima_skel"
167D  2E66627800         ".fbx\0"
                         const [41]: "/Lotus/Characters/Tenno/Anima/Anima_skel.fbx"
1682  04                 const type 4
1683  3D                 string size (61)
1684  2F4C6F7475732F43+  "/Lotus/C"
168C  6861726163746572+  "haracter"
1694  732F54656E6E6F2F+  "s/Tenno/"
169C  416E696D612F4571+  "Anima/Eq"
16A4  75696E6F78507269+  "uinoxPri"
16AC  6D654E6967687442+  "meNightB"
16B4  6F64795F736B656C+  "ody_skel"
16BC  2E66627800         ".fbx\0"
                         const [42]: "/Lotus/Characters/Tenno/Anima/EquinoxPrimeNightBody_skel.fbx"
16C1  04                 const type 4
16C2  09                 string size (9)
16C3  6D65736855676C79+  "meshUgly"
16CB  00                 "\0"
                         const [43]: "meshUgly"
16CC  04                 const type 4
16CD  12                 string size (18)
16CE  6D6174657269616C+  "material"
16D6  4F76657272696465+  "Override"
16DE  7300               "s\0"
                         const [44]: "materialOverrides"
16E0  04                 const type 4
16E1  3D                 string size (61)
16E2  2F4C6F7475732F43+  "/Lotus/C"
16EA  6861726163746572+  "haracter"
16F2  732F54656E6E6F2F+  "s/Tenno/"
16FA  416E696D612F5357+  "Anima/SW"
1702  496E736F6D6E6961+  "Insomnia"
170A  2F5357496E736F6D+  "/SWInsom"
1712  6E69614E69676874+  "niaNight"
171A  426F647900         "Body\0"
                         const [45]: "/Lotus/Characters/Tenno/Anima/SWInsomnia/SWInsomniaNightBody"
171F  04                 const type 4
1720  3C                 string size (60)
1721  2F4C6F7475732F43+  "/Lotus/C"
1729  6861726163746572+  "haracter"
1731  732F54656E6E6F2F+  "s/Tenno/"
1739  416E696D612F5357+  "Anima/SW"
1741  4469766973612F53+  "Divisa/S"
1749  574469766973614E+  "WDivisaN"
1751  69676874426F6479+  "ightBody"
1759  4D617400           "Mat\0"
                         const [46]: "/Lotus/Characters/Tenno/Anima/SWDivisa/SWDivisaNightBodyMat"
175D  04                 const type 4
175E  3E                 string size (62)
175F  2F4C6F7475732F43+  "/Lotus/C"
1767  6861726163746572+  "haracter"
176F  732F54656E6E6F2F+  "s/Tenno/"
1777  416E696D612F5357+  "Anima/SW"
177F  4D6567616572612F+  "Megaera/"
1787  53574D6567616572+  "SWMegaer"
178F  614E69676874426F+  "aNightBo"
1797  64794D617400       "dyMat\0"
                         const [47]: "/Lotus/Characters/Tenno/Anima/SWMegaera/SWMegaeraNightBodyMat"
179D  04                 const type 4
179E  16                 string size (22)
179F  6D6174657269616C+  "material"
17A7  4F76657272696465+  "Override"
17AF  7355676C7900       "sUgly\0"
                         const [48]: "materialOverridesUgly"
17B5  04                 const type 4
17B6  0C                 string size (12)
17B7  6174746163686D65+  "attachme"
17BF  6E747300           "nts\0"
                         const [49]: "attachments"
17C3  04                 const type 4
17C4  10                 string size (16)
17C5  6174746163686D65+  "attachme"
17CD  6E747355676C7900   "ntsUgly\0"
                         const [50]: "attachmentsUgly"
17D5  04                 const type 4
17D6  1C                 string size (28)
17D7  6174746163686D65+  "attachme"
17DF  6E744D6174657269+  "ntMateri"
17E7  616C4F7665727269+  "alOverri"
17EF  64657300           "des\0"
                         const [51]: "attachmentMaterialOverrides"
17F3  04                 const type 4
17F4  3E                 string size (62)
17F5  2F4C6F7475732F43+  "/Lotus/C"
17FD  6861726163746572+  "haracter"
1805  732F54656E6E6F2F+  "s/Tenno/"
180D  416E696D612F5357+  "Anima/SW"
1815  496E736F6D6E6961+  "Insomnia"
181D  2F5357496E736F6D+  "/SWInsom"
1825  6E69614E69676874+  "niaNight"
182D  436C6F746800       "Cloth\0"
                         const [52]: "/Lotus/Characters/Tenno/Anima/SWInsomnia/SWInsomniaNightCloth"
1833  04                 const type 4
1834  3D                 string size (61)
1835  2F4C6F7475732F43+  "/Lotus/C"
183D  6861726163746572+  "haracter"
1845  732F54656E6E6F2F+  "s/Tenno/"
184D  416E696D612F5357+  "Anima/SW"
1855  4469766973612F53+  "Divisa/S"
185D  574469766973614E+  "WDivisaN"
1865  69676874436C6F74+  "ightClot"
186D  684D617400         "hMat\0"
                         const [53]: "/Lotus/Characters/Tenno/Anima/SWDivisa/SWDivisaNightClothMat"
1872  04                 const type 4
1873  3F                 string size (63)
1874  2F4C6F7475732F43+  "/Lotus/C"
187C  6861726163746572+  "haracter"
1884  732F54656E6E6F2F+  "s/Tenno/"
188C  416E696D612F5357+  "Anima/SW"
1894  4D6567616572612F+  "Megaera/"
189C  53574D6567616572+  "SWMegaer"
18A4  614E69676874436F+  "aNightCo"
18AC  6C74684D617400     "lthMat\0"
                         const [54]: "/Lotus/Characters/Tenno/Anima/SWMegaera/SWMegaeraNightColthMat"
18B3  04                 const type 4
18B4  20                 string size (32)
18B5  6174746163686D65+  "attachme"
18BD  6E744D6174657269+  "ntMateri"
18C5  616C4F7665727269+  "alOverri"
18CD  64657355676C7900   "desUgly\0"
                         const [55]: "attachmentMaterialOverridesUgly"
18D5  04                 const type 4
18D6  12                 string size (18)
18D7  637573746F6D697A+  "customiz"
18DF  6174696F6E496E66+  "ationInf"
18E7  6F00               "o\0"
                         const [56]: "customizationInfo"
18E9  04                 const type 4
18EA  2F                 string size (47)
18EB  2F4C6F7475732F50+  "/Lotus/P"
18F3  6F77657273756974+  "owersuit"
18FB  732F59696E59616E+  "s/YinYan"
1903  672F59696E437573+  "g/YinCus"
190B  746F6D697A617469+  "tomizati"
1913  6F6E496E666F00     "onInfo\0"
                         const [57]: "/Lotus/Powersuits/YinYang/YinCustomizationInfo"
191A  04                 const type 4
191B  3D                 string size (61)
191C  2F4C6F7475732F50+  "/Lotus/P"
1924  6F77657273756974+  "owersuit"
192C  732F59696E59616E+  "s/YinYan"
1934  672F457175696E6F+  "g/Equino"
193C  785072696D654E69+  "xPrimeNi"
1944  676874437573746F+  "ghtCusto"
194C  6D697A6174696F6E+  "mization"
1954  496E666F00         "Info\0"
                         const [58]: "/Lotus/Powersuits/YinYang/EquinoxPrimeNightCustomizationInfo"
1959  04                 const type 4
195A  16                 string size (22)
195B  637573746F6D697A+  "customiz"
1963  6174696F6E496E66+  "ationInf"
196B  6F55676C7900       "oUgly\0"
                         const [59]: "customizationInfoUgly"
1971  04                 const type 4
1972  15                 string size (21)
1973  73696D436F6C6C69+  "simColli"
197B  73696F6E4F766572+  "sionOver"
1983  7269646500         "ride\0"
                         const [60]: "simCollisionOverride"
1988  04                 const type 4
1989  0D                 string size (13)
198A  6162696C69747949+  "abilityI"
1992  636F6E7300         "cons\0"
                         const [61]: "abilityIcons"
1997  04                 const type 4
1998  33                 string size (51)
1999  2F4C6F7475732F49+  "/Lotus/I"
19A1  6E74657266616365+  "nterface"
19A9  2F49636F6E732F41+  "/Icons/A"
19B1  62696C6974696573+  "bilities"
19B9  2F59696E59616E67+  "/YinYang"
19C1  5377697463682E70+  "Switch.p"
19C9  6E6700             "ng\0"
                         const [62]: "/Lotus/Interface/Icons/Abilities/YinYangSwitch.png"
19CC  04                 const type 4
19CD  37                 string size (55)
19CE  2F4C6F7475732F49+  "/Lotus/I"
19D6  6E74657266616365+  "nterface"
19DE  2F49636F6E732F41+  "/Icons/A"
19E6  62696C6974696573+  "bilities"
19EE  2F59696E59616E67+  "/YinYang"
19F6  5461726765744361+  "TargetCa"
19FE  6C6D2E706E6700     "lm.png\0"
                         const [63]: "/Lotus/Interface/Icons/Abilities/YinYangTargetCalm.png"
1A05  04                 const type 4
1A06  3C                 string size (60)
1A07  2F4C6F7475732F49+  "/Lotus/I"
1A0F  6E74657266616365+  "nterface"
1A17  2F49636F6E732F41+  "/Icons/A"
1A1F  62696C6974696573+  "bilities"
1A27  2F59696E59616E67+  "/YinYang"
1A2F  41757261456E656D+  "AuraEnem"
1A37  7944616D6167652E+  "yDamage."
1A3F  706E6700           "png\0"
                         const [64]: "/Lotus/Interface/Icons/Abilities/YinYangAuraEnemyDamage.png"
1A43  04                 const type 4
1A44  36                 string size (54)
1A45  2F4C6F7475732F49+  "/Lotus/I"
1A4D  6E74657266616365+  "nterface"
1A55  2F49636F6E732F41+  "/Icons/A"
1A5D  62696C6974696573+  "bilities"
1A65  2F59696E59616E67+  "/YinYang"
1A6D  426C617374486561+  "BlastHea"
1A75  6C2E706E6700       "l.png\0"
                         const [65]: "/Lotus/Interface/Icons/Abilities/YinYangBlastHeal.png"
1A7B  04                 const type 4
1A7C  34                 string size (52)
1A7D  2F4C6F7475732F43+  "/Lotus/C"
1A85  6861726163746572+  "haracter"
1A8D  732F54656E6E6F2F+  "s/Tenno/"
1A95  416E696D612F416E+  "Anima/An"
1A9D  696D757348656C6D+  "imusHelm"
1AA5  65745F736B656C2E+  "et_skel."
1AAD  66627800           "fbx\0"
                         const [66]: "/Lotus/Characters/Tenno/Anima/AnimusHelmet_skel.fbx"
1AB1  04                 const type 4
1AB2  37                 string size (55)
1AB3  2F4C6F7475732F43+  "/Lotus/C"
1ABB  6861726163746572+  "haracter"
1AC3  732F54656E6E6F2F+  "s/Tenno/"
1ACB  416E696D612F416E+  "Anima/An"
1AD3  696D757348656C6D+  "imusHelm"
1ADB  6574416C745F736B+  "etAlt_sk"
1AE3  656C2E66627800     "el.fbx\0"
                         const [67]: "/Lotus/Characters/Tenno/Anima/AnimusHelmetAlt_skel.fbx"
1AEA  04                 const type 4
1AEB  42                 string size (66)
1AEC  2F4C6F7475732F43+  "/Lotus/C"
1AF4  6861726163746572+  "haracter"
1AFC  732F54656E6E6F2F+  "s/Tenno/"
1B04  416E696D612F416E+  "Anima/An"
1B0C  696D61416E696D75+  "imaAnimu"
1B14  73416C7448656C6D+  "sAltHelm"
1B1C  6574324C69676874+  "et2Light"
1B24  5F736B656C2E6662+  "_skel.fb"
1B2C  7800               "x\0"
                         const [68]: "/Lotus/Characters/Tenno/Anima/AnimaAnimusAltHelmet2Light_skel.fbx"
1B2E  04                 const type 4
1B2F  46                 string size (70)
1B30  2F4C6F7475732F43+  "/Lotus/C"
1B38  6861726163746572+  "haracter"
1B40  732F54656E6E6F2F+  "s/Tenno/"
1B48  416E696D612F5357+  "Anima/SW"
1B50  496E736F6D6E6961+  "Insomnia"
1B58  2F5357496E736F6D+  "/SWInsom"
1B60  6E69614461794865+  "niaDayHe"
1B68  6C6D65745F736B65+  "lmet_ske"
1B70  6C2E66627800       "l.fbx\0"
                         const [69]: "/Lotus/Characters/Tenno/Anima/SWInsomnia/SWInsomniaDayHelmet_skel.fbx"
1B76  04                 const type 4
1B77  42                 string size (66)
1B78  2F4C6F7475732F43+  "/Lotus/C"
1B80  6861726163746572+  "haracter"
1B88  732F54656E6E6F2F+  "s/Tenno/"
1B90  416E696D612F5357+  "Anima/SW"
1B98  4469766973612F53+  "Divisa/S"
1BA0  5744697669736144+  "WDivisaD"
1BA8  617948656C6D6574+  "ayHelmet"
1BB0  5F736B656C2E6662+  "_skel.fb"
1BB8  7800               "x\0"
                         const [70]: "/Lotus/Characters/Tenno/Anima/SWDivisa/SWDivisaDayHelmet_skel.fbx"
1BBA  04                 const type 4
1BBB  44                 string size (68)
1BBC  2F4C6F7475732F43+  "/Lotus/C"
1BC4  6861726163746572+  "haracter"
1BCC  732F54656E6E6F2F+  "s/Tenno/"
1BD4  416E696D612F5357+  "Anima/SW"
1BDC  4D6567616572612F+  "Megaera/"
1BE4  53574D6567616572+  "SWMegaer"
1BEC  6144617948656C6D+  "aDayHelm"
1BF4  65745F736B656C2E+  "et_skel."
1BFC  66627800           "fbx\0"
                         const [71]: "/Lotus/Characters/Tenno/Anima/SWMegaera/SWMegaeraDayHelmet_skel.fbx"
1C00  04                 const type 4
1C01  3D                 string size (61)
1C02  2F4C6F7475732F43+  "/Lotus/C"
1C0A  6861726163746572+  "haracter"
1C12  732F54656E6E6F2F+  "s/Tenno/"
1C1A  416E696D612F4571+  "Anima/Eq"
1C22  75696E6F78507269+  "uinoxPri"
1C2A  6D6544617948656C+  "meDayHel"
1C32  6D65745F736B656C+  "met_skel"
1C3A  2E66627800         ".fbx\0"
                         const [72]: "/Lotus/Characters/Tenno/Anima/EquinoxPrimeDayHelmet_skel.fbx"
1C3F  04                 const type 4
1C40  2E                 string size (46)
1C41  2F4C6F7475732F43+  "/Lotus/C"
1C49  6861726163746572+  "haracter"
1C51  732F54656E6E6F2F+  "s/Tenno/"
1C59  416E696D612F416E+  "Anima/An"
1C61  696D75735F736B65+  "imus_ske"
1C69  6C2E66627800       "l.fbx\0"
                         const [73]: "/Lotus/Characters/Tenno/Anima/Animus_skel.fbx"
1C6F  04                 const type 4
1C70  3B                 string size (59)
1C71  2F4C6F7475732F43+  "/Lotus/C"
1C79  6861726163746572+  "haracter"
1C81  732F54656E6E6F2F+  "s/Tenno/"
1C89  416E696D612F4571+  "Anima/Eq"
1C91  75696E6F78507269+  "uinoxPri"
1C99  6D65446179426F64+  "meDayBod"
1CA1  795F736B656C2E66+  "y_skel.f"
1CA9  627800             "bx\0"
                         const [74]: "/Lotus/Characters/Tenno/Anima/EquinoxPrimeDayBody_skel.fbx"
1CAC  04                 const type 4
1CAD  3B                 string size (59)
1CAE  2F4C6F7475732F43+  "/Lotus/C"
1CB6  6861726163746572+  "haracter"
1CBE  732F54656E6E6F2F+  "s/Tenno/"
1CC6  416E696D612F5357+  "Anima/SW"
1CCE  496E736F6D6E6961+  "Insomnia"
1CD6  2F5357496E736F6D+  "/SWInsom"
1CDE  6E6961446179426F+  "niaDayBo"
1CE6  647900             "dy\0"
                         const [75]: "/Lotus/Characters/Tenno/Anima/SWInsomnia/SWInsomniaDayBody"
1CE9  04                 const type 4
1CEA  3A                 string size (58)
1CEB  2F4C6F7475732F43+  "/Lotus/C"
1CF3  6861726163746572+  "haracter"
1CFB  732F54656E6E6F2F+  "s/Tenno/"
1D03  416E696D612F5357+  "Anima/SW"
1D0B  4469766973612F53+  "Divisa/S"
1D13  5744697669736144+  "WDivisaD"
1D1B  6179426F64794D61+  "ayBodyMa"
1D23  7400               "t\0"
                         const [76]: "/Lotus/Characters/Tenno/Anima/SWDivisa/SWDivisaDayBodyMat"
1D25  04                 const type 4
1D26  3C                 string size (60)
1D27  2F4C6F7475732F43+  "/Lotus/C"
1D2F  6861726163746572+  "haracter"
1D37  732F54656E6E6F2F+  "s/Tenno/"
1D3F  416E696D612F5357+  "Anima/SW"
1D47  4D6567616572612F+  "Megaera/"
1D4F  53574D6567616572+  "SWMegaer"
1D57  61446179426F6479+  "aDayBody"
1D5F  4D617400           "Mat\0"
                         const [77]: "/Lotus/Characters/Tenno/Anima/SWMegaera/SWMegaeraDayBodyMat"
1D63  04                 const type 4
1D64  30                 string size (48)
1D65  2F4C6F7475732F50+  "/Lotus/P"
1D6D  6F77657273756974+  "owersuit"
1D75  732F59696E59616E+  "s/YinYan"
1D7D  672F59616E674375+  "g/YangCu"
1D85  73746F6D697A6174+  "stomizat"
1D8D  696F6E496E666F00   "ionInfo\0"
                         const [78]: "/Lotus/Powersuits/YinYang/YangCustomizationInfo"
1D95  04                 const type 4
1D96  3B                 string size (59)
1D97  2F4C6F7475732F50+  "/Lotus/P"
1D9F  6F77657273756974+  "owersuit"
1DA7  732F59696E59616E+  "s/YinYan"
1DAF  672F457175696E6F+  "g/Equino"
1DB7  785072696D654461+  "xPrimeDa"
1DBF  79437573746F6D69+  "yCustomi"
1DC7  7A6174696F6E496E+  "zationIn"
1DCF  666F00             "fo\0"
                         const [79]: "/Lotus/Powersuits/YinYang/EquinoxPrimeDayCustomizationInfo"
1DD2  04                 const type 4
1DD3  36                 string size (54)
1DD4  2F4C6F7475732F50+  "/Lotus/P"
1DDC  6F77657273756974+  "owersuit"
1DE4  732F59696E59616E+  "s/YinYan"
1DEC  672F457175696E6F+  "g/Equino"
1DF4  785072696D654461+  "xPrimeDa"
1DFC  7953696D436F6C6C+  "ySimColl"
1E04  6973696F6E00       "ision\0"
                         const [80]: "/Lotus/Powersuits/YinYang/EquinoxPrimeDaySimCollision"
1E0A  04                 const type 4
1E0B  19                 string size (25)
1E0C  73696D436F6C6C69+  "simColli"
1E14  73696F6E4F766572+  "sionOver"
1E1C  7269646555676C79+  "rideUgly"
1E24  00                 "\0"
                         const [81]: "simCollisionOverrideUgly"
1E25  04                 const type 4
1E26  37                 string size (55)
1E27  2F4C6F7475732F49+  "/Lotus/I"
1E2F  6E74657266616365+  "nterface"
1E37  2F49636F6E732F41+  "/Icons/A"
1E3F  62696C6974696573+  "bilities"
1E47  2F59696E59616E67+  "/YinYang"
1E4F  5461726765744675+  "TargetFu"
1E57  72792E706E6700     "ry.png\0"
                         const [82]: "/Lotus/Interface/Icons/Abilities/YinYangTargetFury.png"
1E5E  04                 const type 4
1E5F  3E                 string size (62)
1E60  2F4C6F7475732F49+  "/Lotus/I"
1E68  6E74657266616365+  "nterface"
1E70  2F49636F6E732F41+  "/Icons/A"
1E78  62696C6974696573+  "bilities"
1E80  2F59696E59616E67+  "/YinYang"
1E88  41757261506F7765+  "AuraPowe"
1E90  72537472656E6774+  "rStrengt"
1E98  682E706E6700       "h.png\0"
                         const [83]: "/Lotus/Interface/Icons/Abilities/YinYangAuraPowerStrength.png"
1E9E  04                 const type 4
1E9F  36                 string size (54)
1EA0  2F4C6F7475732F49+  "/Lotus/I"
1EA8  6E74657266616365+  "nterface"
1EB0  2F49636F6E732F41+  "/Icons/A"
1EB8  62696C6974696573+  "bilities"
1EC0  2F59696E59616E67+  "/YinYang"
1EC8  426C617374486172+  "BlastHar"
1ED0  6D2E706E6700       "m.png\0"
                         const [84]: "/Lotus/Interface/Icons/Abilities/YinYangBlastHarm.png"
1ED6  04                 const type 4
1ED7  39                 string size (57)
1ED8  2F4C6F7475732F43+  "/Lotus/C"
1EE0  6861726163746572+  "haracter"
1EE8  732F54656E6E6F2F+  "s/Tenno/"
1EF0  416E696D612F416E+  "Anima/An"
1EF8  696D61416E696D75+  "imaAnimu"
1F00  7348656C6D65745F+  "sHelmet_"
1F08  736B656C2E666278+  "skel.fbx"
1F10  00                 "\0"
                         const [85]: "/Lotus/Characters/Tenno/Anima/AnimaAnimusHelmet_skel.fbx"
1F11  04                 const type 4
1F12  3C                 string size (60)
1F13  2F4C6F7475732F43+  "/Lotus/C"
1F1B  6861726163746572+  "haracter"
1F23  732F54656E6E6F2F+  "s/Tenno/"
1F2B  416E696D612F416E+  "Anima/An"
1F33  696D61416E696D75+  "imaAnimu"
1F3B  7348656C6D657441+  "sHelmetA"
1F43  6C745F736B656C2E+  "lt_skel."
1F4B  66627800           "fbx\0"
                         const [86]: "/Lotus/Characters/Tenno/Anima/AnimaAnimusHelmetAlt_skel.fbx"
1F4F  04                 const type 4
1F50  45                 string size (69)
1F51  2F4C6F7475732F43+  "/Lotus/C"
1F59  6861726163746572+  "haracter"
1F61  732F54656E6E6F2F+  "s/Tenno/"
1F69  416E696D612F416E+  "Anima/An"
1F71  696D61416E696D75+  "imaAnimu"
1F79  73416C7448656C6D+  "sAltHelm"
1F81  657432436F6D6269+  "et2Combi"
1F89  6E65645F736B656C+  "ned_skel"
1F91  2E66627800         ".fbx\0"
                         const [87]: "/Lotus/Characters/Tenno/Anima/AnimaAnimusAltHelmet2Combined_skel.fbx"
1F96  04                 const type 4
1F97  4B                 string size (75)
1F98  2F4C6F7475732F43+  "/Lotus/C"
1FA0  6861726163746572+  "haracter"
1FA8  732F54656E6E6F2F+  "s/Tenno/"
1FB0  416E696D612F5357+  "Anima/SW"
1FB8  496E736F6D6E6961+  "Insomnia"
1FC0  2F5357496E736F6D+  "/SWInsom"
1FC8  6E6961436F6D6269+  "niaCombi"
1FD0  6E656448656C6D65+  "nedHelme"
1FD8  745F736B656C2E66+  "t_skel.f"
1FE0  627800             "bx\0"
                         const [88]: "/Lotus/Characters/Tenno/Anima/SWInsomnia/SWInsomniaCombinedHelmet_skel.fbx"
1FE3  04                 const type 4
1FE4  47                 string size (71)
1FE5  2F4C6F7475732F43+  "/Lotus/C"
1FED  6861726163746572+  "haracter"
1FF5  732F54656E6E6F2F+  "s/Tenno/"
1FFD  416E696D612F5357+  "Anima/SW"
2005  4469766973612F53+  "Divisa/S"
200D  5744697669736143+  "WDivisaC"
2015  6F6D62696E656448+  "ombinedH"
201D  656C6D65745F736B+  "elmet_sk"
2025  656C2E66627800     "el.fbx\0"
                         const [89]: "/Lotus/Characters/Tenno/Anima/SWDivisa/SWDivisaCombinedHelmet_skel.fbx"
202C  04                 const type 4
202D  49                 string size (73)
202E  2F4C6F7475732F43+  "/Lotus/C"
2036  6861726163746572+  "haracter"
203E  732F54656E6E6F2F+  "s/Tenno/"
2046  416E696D612F5357+  "Anima/SW"
204E  4D6567616572612F+  "Megaera/"
2056  53574D6567616572+  "SWMegaer"
205E  61436F6D62696E65+  "aCombine"
2066  6448656C6D65745F+  "dHelmet_"
206E  736B656C2E666278+  "skel.fbx"
2076  00                 "\0"
                         const [90]: "/Lotus/Characters/Tenno/Anima/SWMegaera/SWMegaeraCombinedHelmet_skel.fbx"
2077  04                 const type 4
2078  42                 string size (66)
2079  2F4C6F7475732F43+  "/Lotus/C"
2081  6861726163746572+  "haracter"
2089  732F54656E6E6F2F+  "s/Tenno/"
2091  416E696D612F4571+  "Anima/Eq"
2099  75696E6F78507269+  "uinoxPri"
20A1  6D65436F6D62696E+  "meCombin"
20A9  656448656C6D6574+  "edHelmet"
20B1  5F736B656C2E6662+  "_skel.fb"
20B9  7800               "x\0"
                         const [91]: "/Lotus/Characters/Tenno/Anima/EquinoxPrimeCombinedHelmet_skel.fbx"
20BB  04                 const type 4
20BC  33                 string size (51)
20BD  2F4C6F7475732F43+  "/Lotus/C"
20C5  6861726163746572+  "haracter"
20CD  732F54656E6E6F2F+  "s/Tenno/"
20D5  416E696D612F416E+  "Anima/An"
20DD  696D61416E696D75+  "imaAnimu"
20E5  735F736B656C2E66+  "s_skel.f"
20ED  627800             "bx\0"
                         const [92]: "/Lotus/Characters/Tenno/Anima/AnimaAnimus_skel.fbx"
20F0  04                 const type 4
20F1  40                 string size (64)
20F2  2F4C6F7475732F43+  "/Lotus/C"
20FA  6861726163746572+  "haracter"
2102  732F54656E6E6F2F+  "s/Tenno/"
210A  416E696D612F4571+  "Anima/Eq"
2112  75696E6F78507269+  "uinoxPri"
211A  6D65436F6D62696E+  "meCombin"
2122  6564426F64795F73+  "edBody_s"
212A  6B656C2E66627800   "kel.fbx\0"
                         const [93]: "/Lotus/Characters/Tenno/Anima/EquinoxPrimeCombinedBody_skel.fbx"
2132  04                 const type 4
2133  41                 string size (65)
2134  2F4C6F7475732F43+  "/Lotus/C"
213C  6861726163746572+  "haracter"
2144  732F54656E6E6F2F+  "s/Tenno/"
214C  416E696D612F5357+  "Anima/SW"
2154  496E736F6D6E6961+  "Insomnia"
215C  2F5357496E736F6D+  "/SWInsom"
2164  6E6961436F6D6269+  "niaCombi"
216C  6E6564546F72736F+  "nedTorso"
2174  00                 "\0"
                         const [94]: "/Lotus/Characters/Tenno/Anima/SWInsomnia/SWInsomniaCombinedTorso"
2175  04                 const type 4
2176  40                 string size (64)
2177  2F4C6F7475732F43+  "/Lotus/C"
217F  6861726163746572+  "haracter"
2187  732F54656E6E6F2F+  "s/Tenno/"
218F  416E696D612F5357+  "Anima/SW"
2197  496E736F6D6E6961+  "Insomnia"
219F  2F5357496E736F6D+  "/SWInsom"
21A7  6E6961436F6D6269+  "niaCombi"
21AF  6E65644C65677300   "nedLegs\0"
                         const [95]: "/Lotus/Characters/Tenno/Anima/SWInsomnia/SWInsomniaCombinedLegs"
21B7  04                 const type 4
21B8  3F                 string size (63)
21B9  2F4C6F7475732F43+  "/Lotus/C"
21C1  6861726163746572+  "haracter"
21C9  732F54656E6E6F2F+  "s/Tenno/"
21D1  416E696D612F5357+  "Anima/SW"
21D9  4469766973612F53+  "Divisa/S"
21E1  574469766973614E+  "WDivisaN"
21E9  6967687444617942+  "ightDayB"
21F1  6F64794D617400     "odyMat\0"
                         const [96]: "/Lotus/Characters/Tenno/Anima/SWDivisa/SWDivisaNightDayBodyMat"
21F8  04                 const type 4
21F9  3F                 string size (63)
21FA  2F4C6F7475732F43+  "/Lotus/C"
2202  6861726163746572+  "haracter"
220A  732F54656E6E6F2F+  "s/Tenno/"
2212  416E696D612F5357+  "Anima/SW"
221A  4469766973612F53+  "Divisa/S"
2222  5744697669736144+  "WDivisaD"
222A  61794E6967687442+  "ayNightB"
2232  6F64794D617400     "odyMat\0"
                         const [97]: "/Lotus/Characters/Tenno/Anima/SWDivisa/SWDivisaDayNightBodyMat"
2239  04                 const type 4
223A  41                 string size (65)
223B  2F4C6F7475732F43+  "/Lotus/C"
2243  6861726163746572+  "haracter"
224B  732F54656E6E6F2F+  "s/Tenno/"
2253  416E696D612F5357+  "Anima/SW"
225B  4D6567616572612F+  "Megaera/"
2263  53574D6567616572+  "SWMegaer"
226B  614E696768744461+  "aNightDa"
2273  79426F64794D6174+  "yBodyMat"
227B  00                 "\0"
                         const [98]: "/Lotus/Characters/Tenno/Anima/SWMegaera/SWMegaeraNightDayBodyMat"
227C  04                 const type 4
227D  41                 string size (65)
227E  2F4C6F7475732F43+  "/Lotus/C"
2286  6861726163746572+  "haracter"
228E  732F54656E6E6F2F+  "s/Tenno/"
2296  416E696D612F5357+  "Anima/SW"
229E  4D6567616572612F+  "Megaera/"
22A6  53574D6567616572+  "SWMegaer"
22AE  614461794E696768+  "aDayNigh"
22B6  74426F64794D6174+  "tBodyMat"
22BE  00                 "\0"
                         const [99]: "/Lotus/Characters/Tenno/Anima/SWMegaera/SWMegaeraDayNightBodyMat"
22BF  04                 const type 4
22C0  41                 string size (65)
22C1  2F4C6F7475732F43+  "/Lotus/C"
22C9  6861726163746572+  "haracter"
22D1  732F54656E6E6F2F+  "s/Tenno/"
22D9  416E696D612F5357+  "Anima/SW"
22E1  496E736F6D6E6961+  "Insomnia"
22E9  2F5357496E736F6D+  "/SWInsom"
22F1  6E6961436F6D6269+  "niaCombi"
22F9  6E6564436C6F7468+  "nedCloth"
2301  00                 "\0"
                         const [100]: "/Lotus/Characters/Tenno/Anima/SWInsomnia/SWInsomniaCombinedCloth"
2302  04                 const type 4
2303  40                 string size (64)
2304  2F4C6F7475732F43+  "/Lotus/C"
230C  6861726163746572+  "haracter"
2314  732F54656E6E6F2F+  "s/Tenno/"
231C  416E696D612F5357+  "Anima/SW"
2324  4469766973612F53+  "Divisa/S"
232C  5744697669736143+  "WDivisaC"
2334  6F6D62696E656443+  "ombinedC"
233C  6C6F74684D617400   "lothMat\0"
                         const [101]: "/Lotus/Characters/Tenno/Anima/SWDivisa/SWDivisaCombinedClothMat"
2344  04                 const type 4
2345  42                 string size (66)
2346  2F4C6F7475732F43+  "/Lotus/C"
234E  6861726163746572+  "haracter"
2356  732F54656E6E6F2F+  "s/Tenno/"
235E  416E696D612F5357+  "Anima/SW"
2366  4D6567616572612F+  "Megaera/"
236E  53574D6567616572+  "SWMegaer"
2376  61436F6D62696E65+  "aCombine"
237E  64436C6F74684D61+  "dClothMa"
2386  7400               "t\0"
                         const [102]: "/Lotus/Characters/Tenno/Anima/SWMegaera/SWMegaeraCombinedClothMat"
2388  03                 const type 3
2389  00000000           const [103]: (0)
238D  03                 const type 3
238E  0000803F           const [104]: (0)
2392  03                 const type 3
2393  00000040           const [105]: (0)
2397  03                 const type 3
2398  00004040           const [106]: (0)
239C  04                 const type 4
239D  0F                 string size (15)
239E  537769746368506F+  "SwitchPo"
23A6  6C617269747900     "larity\0"
                         const [107]: "SwitchPolarity"
23AD  01                 const type 3
23AE  C96F36AA           const [108]: (-1439273015)
23B2  04                 const type 4
23B3  16                 string size (22)
23B4  5061727469616C53+  "PartialS"
23BC  7769746368506F6C+  "witchPol"
23C4  617269747900       "arity\0"
                         const [109]: "PartialSwitchPolarity"
23CA  01                 const type 3
23CB  28424A2F           const [110]: (793395752)
23CF  04                 const type 4
23D0  12                 string size (18)
23D1  556E646F50617274+  "UndoPart"
23D9  69616C5377697463+  "ialSwitc"
23E1  6800               "h\0"
                         const [111]: "UndoPartialSwitch"
23E3  01                 const type 3
23E4  CF80FDF5           const [112]: (-167935793)
23E8  04                 const type 4
23E9  09                 string size (9)
23EA  466F72636559696E+  "ForceYin"
23F2  00                 "\0"
                         const [113]: "ForceYin"
23F3  01                 const type 3
23F4  7337D312           const [114]: (315832179)
23F8  04                 const type 4
23F9  0A                 string size (10)
23FA  466F72636559616E+  "ForceYan"
2402  6700               "g\0"
                         const [115]: "ForceYang"
2404  01                 const type 3
2405  EE3C6772           const [116]: (1919368430)
2409  04                 const type 4
240A  0D                 string size (13)
240B  5265646F506F6C61+  "RedoPola"
2413  7269747900         "rity\0"
                         const [117]: "RedoPolarity"
2418  01                 const type 3
2419  5E698BF6           const [118]: (-158635682)
241D  04                 const type 4
241E  06                 string size (6)
241F  497359696E00       "IsYin\0"
                         const [119]: "IsYin"
2425  01                 const type 3
2426  E6A1A786           const [120]: (-2035834394)
242A  04                 const type 4
242B  07                 string size (7)
242C  497359616E6700     "IsYang\0"
                         const [121]: "IsYang"
2433  01                 const type 3
2434  1BC346F7           const [122]: (-146357477)
2438  04                 const type 4
2439  11                 string size (17)
243A  59696E436F6C6F72+  "YinColor"
2442  506F6C6172697479+  "Polarity"
244A  00                 "\0"
                         const [123]: "YinColorPolarity"
244B  01                 const type 3
244C  A34EBA3A           const [124]: (985288355)
2450  04                 const type 4
2451  0B                 string size (11)
2452  496E697469616C69+  "Initiali"
245A  7A6500             "ze\0"
                         const [125]: "Initialize"
245D  01                 const type 3
245E  36806462           const [126]: (1650753590)
2462  04                 const type 4
2463  08                 string size (8)
2464  436C65616E557000   "CleanUp\0"
                         const [127]: "CleanUp"
246C  01                 const type 3
246D  78F3120A           const [128]: (169014136)
2471  04                 const type 4
2472  0C                 string size (12)
2473  536574757048656C+  "SetupHel"
247B  6D657400           "met\0"
                         const [129]: "SetupHelmet"
247F  01                 const type 3
2480  07823530           const [130]: (808813063)
2484  04                 const type 4
2485  12                 string size (18)
2486  5365747570446563+  "SetupDec"
248E  6F4F70706F736974+  "oOpposit"
2496  6500               "e\0"
                         const [131]: "SetupDecoOpposite"
2498  01                 const type 3
2499  700CB737           const [132]: (934743152)
249D  04                 const type 4
249E  0C                 string size (12)
249F  44696F72616D6156+  "DioramaV"
24A7  69657700           "iew\0"
                         const [133]: "DioramaView"
24AB  01                 const type 3
24AC  5856B330           const [134]: (817059416)
                         * functions:
24B0  14                 sizep (20)
                         
24B1                     ** function [0] definition (level 2)
                         ** start of function **
24B1  00                 string size (0)
                         source name: (none)
24B3  03                 line defined (486)
24B4  ED                 last line defined (493)
24B5  03                 nups (0)
24B6  00                 numparams (2)
24B7  02                 is_vararg (0)
24B8  00                 maxstacksize (8)
                         * code:
24BA  0D                 sizecode (13)
24BB  9D000000           [01] getglobal  2   0        ; 1672515847
24BF  D2008000           [02] move       3   1      
24C3  A2000101           [03] call       2   2   4  
24C7  1AC00080           [04] jmp        4            ; to [9]
fail op	35
24CB  23800100           [05] close      0  
24CF  1A400080           [06] jmp        2            ; to [9]
24D3  D7018000           [07] loadbool   7   1   0    ; true
24D7  DE010001           [08] return     7   2      
24DB  96800000           [09] tforloop   2       2    ; to [11] if exit
24DF  1A40FE7F           [10] jmp        -6           ; to [5]
24E3  D7010000           [11] loadbool   7   0   0    ; false
24E7  DE010001           [12] return     7   2      
24EB  1E008000           [13] return     0   1      
                         * constants:
24EF  01                 sizek (1)
24F0  01                 const type 3
24F1  0791B063           const [0]: (1672515847)
                         * functions:
24F5  00                 sizep (0)
                         * lines:
24F6  0D                 sizelineinfo (13)
                         [pc] (line)
24F7  E7                 [01] (-25)
24F8  01                 [02] (-25)
24F9  00                 [03] (-25)
24FA  00                 [04] (-25)
24FB  E7                 [05] (-24)
24FC  01                 [06] (-24)
24FD  00                 [07] (-23)
24FE  00                 [08] (-23)
24FF  E7                 [09] (-25)
2500  01                 [10] (-22)
2501  00                 [11] (-20)
2502  00                 [12] (-20)
2503  E7                 [13] (-19)
                         * locals:
252B  00                 sizelocvars (0)
                         * upvalues:
252C  00                 sizeupvalues (0)
                         ** end of function **

                         
252D                     ** function [1] definition (level 2)
                         ** start of function **
252D  00                 string size (0)
                         source name: (none)
252F  03                 line defined (495)
2530  9B                 last line defined (539)
2531  04                 nups (1)
2532  01                 numparams (7)
2533  07                 is_vararg (0)
2534  00                 maxstacksize (40)
                         * code:
2536  70                 sizecode (112)
2537  DD010000           [001] getglobal  7   0        ; 1672515847
253B  12028000           [002] move       8   1      
253F  E2010101           [003] call       7   2   4  
2543  1A001A80           [004] jmp        105          ; to [110]
2547  24434000           [005] self       12  0   257  ; -1625438872
254B  92038005           [006] move       14  11     
254F  22838001           [007] call       12  3   2  
2553  53030000           [008] getupval   13  0      
2557  92038005           [009] move       14  11     
255B  D2030001           [010] move       15  2      
255F  62838001           [011] call       13  3   2  
2563  58030000           [012] test       13      0    ; to [14] if true
2567  1A401580           [013] jmp        86           ; to [100]
256B  9D830000           [014] getglobal  14  2        ; 1074689893
256F  D2030006           [015] move       15  12     
2573  A2830001           [016] call       14  2   2  
2577  98030000           [017] test       14      0    ; to [19] if true
257B  1A800180           [018] jmp        7            ; to [26]
257F  A4C34000           [019] self       14  0   259  ; -1421644046
2583  1D040100           [020] getglobal  16  4        ; -895206725
2587  52048005           [021] move       17  11     
258B  22840001           [022] call       16  2   2  
258F  52048001           [023] move       17  3      
2593  A2830002           [024] call       14  4   2  
2597  12030007           [025] move       12  14     
259B  9D830000           [026] getglobal  14  2        ; 1074689893
259F  D2030006           [027] move       15  12     
25A3  A2830001           [028] call       14  2   2  
25A7  98430000           [029] test       14      1    ; to [31] if false
25AB  1A801380           [030] jmp        79           ; to [110]
25AF  A4434106           [031] self       14  12  261  ; 366271214
25B3  1D840100           [032] getglobal  16  6        ; gSkeletalClothExType
25B7  A2838001           [033] call       14  3   2  
25BB  CA030002           [034] len        15  4      
fail op	35
25BF  23C0C107           [035] close      0  
25C3  1A000380           [036] jmp        13           ; to [50]
25C7  E4034206           [037] self       15  12  264  ; 1756888998
25CB  57040000           [038] loadbool   17  0   0    ; false
25CF  E2438001           [039] call       15  3   1  
25D3  DD030000           [040] getglobal  15  0        ; 1672515847
25D7  12040007           [041] move       16  14     
25DB  E2030101           [042] call       15  2   4  
25DF  1A800080           [043] jmp        3            ; to [47]
25E3  2405C209           [044] self       20  19  264  ; 1756888998
25E7  97050000           [045] loadbool   22  0   0    ; false
25EB  22458001           [046] call       20  3   1  
25EF  D6830000           [047] tforloop   15      2    ; to [49] if exit
25F3  1A80FE7F           [048] jmp        -5           ; to [44]
25F7  1A000680           [049] jmp        25           ; to [75]
25FB  1D050000           [050] getglobal  20  0        ; 1672515847
25FF  52050002           [051] move       21  4      
2603  22050101           [052] call       20  2   4  
2607  1A800480           [053] jmp        19           ; to [73]
260B  5D460200           [054] getglobal  25  9        ; 2083004503
260F  9206000C           [055] move       26  24     
2613  62860001           [056] call       25  2   2  
2617  A4864206           [057] self       26  12  266  ; 1728877662
261B  0DC7C20B           [058] sub        28  23  267  ; 0
261F  5207800C           [059] move       29  25     
2623  97070000           [060] loadbool   30  0   0    ; false
2627  A2468002           [061] call       26  5   1  
262B  9D060000           [062] getglobal  26  0        ; 1672515847
262F  D2060007           [063] move       27  14     
2633  A2060101           [064] call       26  2   4  
2637  1A000180           [065] jmp        5            ; to [71]
263B  E487420F           [066] self       31  30  266  ; 1728877662
263F  4DC8C20B           [067] sub        33  23  267  ; 0
2643  9208800C           [068] move       34  25     
2647  D7080000           [069] loadbool   35  0   0    ; false
264B  E2478002           [070] call       31  5   1  
264F  96860000           [071] tforloop   26      2    ; to [73] if exit
2653  1A00FE7F           [072] jmp        -7           ; to [66]
2657  16850000           [073] tforloop   20      2    ; to [75] if exit
265B  1A80FA7F           [074] jmp        -21          ; to [54]
265F  DD870000           [075] getglobal  31  2        ; 1074689893
2663  12080003           [076] move       32  6      
2667  E2870001           [077] call       31  2   2  
266B  D8470000           [078] test       31      1    ; to [80] if false
266F  1A000380           [079] jmp        13           ; to [93]
2673  E4074306           [080] self       31  12  268  ; 848075659
2677  52080003           [081] move       33  6      
267B  E2478001           [082] call       31  3   1  
267F  DD070000           [083] getglobal  31  0        ; 1672515847
2683  12080007           [084] move       32  14     
2687  E2070101           [085] call       31  2   4  
268B  1A800080           [086] jmp        3            ; to [90]
268F  2409C311           [087] self       36  35  268  ; 848075659
2693  92090003           [088] move       38  6      
2697  22498001           [089] call       36  3   1  
269B  D6870000           [090] tforloop   31      2    ; to [92] if exit
269F  1A80FE7F           [091] jmp        -5           ; to [87]
26A3  1A000480           [092] jmp        17           ; to [110]
26A7  1D490300           [093] getglobal  36  13       ; Lotus_Game
26AB  0E894312           [094] gettable   36  36  270  ; 724717559
26AF  52090006           [095] move       37  12     
26B3  92098002           [096] move       38  5      
26B7  D7098000           [097] loadbool   39  1   0    ; true
26BB  22490002           [098] call       36  4   1  
26BF  1A400280           [099] jmp        10           ; to [110]
26C3  1D890000           [100] getglobal  36  2        ; 1074689893
26C7  52090006           [101] move       37  12     
26CB  22890001           [102] call       36  2   2  
26CF  18490000           [103] test       36      1    ; to [105] if false
26D3  1A000180           [104] jmp        5            ; to [110]
26D7  24C94306           [105] self       36  12  271  ; -578871469
26DB  22890001           [106] call       36  2   2  
26DF  64094412           [107] self       37  36  272  ; -1693828985
26E3  D2090006           [108] move       39  12     
26E7  62498001           [109] call       37  3   1  
26EB  D6810000           [110] tforloop   7       2    ; to [112] if exit
26EF  1A00E57F           [111] jmp        -107         ; to [5]
26F3  1E008000           [112] return     0   1      
                         * constants:
26F7  11                 sizek (17)
26F8  01                 const type 3
26F9  0791B063           const [0]: (1672515847)
26FD  01                 const type 3
26FE  68C51D9F           const [1]: (-1625438872)
2702  01                 const type 3
2703  65770E40           const [2]: (1074689893)
2707  01                 const type 3
2708  F26E43AB           const [3]: (-1421644046)
270C  01                 const type 3
270D  BB3AA4CA           const [4]: (-895206725)
2711  01                 const type 3
2712  EEDAD415           const [5]: (366271214)
2716  04                 const type 4
2717  15                 string size (21)
2718  67536B656C657461+  "gSkeleta"
2720  6C436C6F74684578+  "lClothEx"
2728  5479706500         "Type\0"
                         const [6]: "gSkeletalClothExType"
272D  03                 const type 3
272E  00000000           const [7]: (0)
2732  01                 const type 3
2733  A6FFB768           const [8]: (1756888998)
2737  01                 const type 3
2738  5720287C           const [9]: (2083004503)
273C  01                 const type 3
273D  5E940C67           const [10]: (1728877662)
2741  03                 const type 3
2742  0000803F           const [11]: (0)
2746  01                 const type 3
2747  8B9B8C32           const [12]: (848075659)
274B  04                 const type 4
274C  0B                 string size (11)
274D  4C6F7475735F4761+  "Lotus_Ga"
2755  6D6500             "me\0"
                         const [13]: "Lotus_Game"
2758  01                 const type 3
2759  F74F322B           const [14]: (724717559)
275D  01                 const type 3
275E  531F7FDD           const [15]: (-578871469)
2762  01                 const type 3
2763  87380A9B           const [16]: (-1693828985)
                         * functions:
2767  00                 sizep (0)
                         * lines:
2768  70                 sizelineinfo (112)
                         [pc] (line)
2769  F0                 [001] (-16)
276A  01                 [002] (-16)
276B  00                 [003] (-16)
276C  00                 [004] (-16)
276D  F0                 [005] (-15)
276E  01                 [006] (-15)
276F  00                 [007] (-15)
2770  00                 [008] (-14)
2771  F0                 [009] (-14)
2772  01                 [010] (-14)
2773  00                 [011] (-14)
2774  00                 [012] (-13)
2775  F0                 [013] (-13)
2776  01                 [014] (-12)
2777  00                 [015] (-12)
2778  00                 [016] (-12)
2779  F1                 [017] (-12)
277A  01                 [018] (-12)
277B  00                 [019] (-11)
277C  00                 [020] (-11)
277D  F1                 [021] (-11)
277E  01                 [022] (-11)
277F  00                 [023] (-11)
2780  00                 [024] (-11)
2781  F1                 [025] (-11)
2782  01                 [026] (-8)
2783  00                 [027] (-8)
2784  00                 [028] (-8)
2785  F2                 [029] (-8)
2786  01                 [030] (-8)
2787  00                 [031] (-7)
2788  00                 [032] (-7)
2789  F2                 [033] (-7)
278A  01                 [034] (-6)
278B  00                 [035] (-6)
278C  00                 [036] (-6)
278D  F2                 [037] (-5)
278E  01                 [038] (-5)
278F  00                 [039] (-5)
2790  00                 [040] (-3)
2791  F2                 [041] (-3)
2792  01                 [042] (-3)
2793  00                 [043] (-3)
2794  00                 [044] (-2)
2795  F3                 [045] (-2)
2796  01                 [046] (-2)
2797  00                 [047] (-3)
2798  00                 [048] (-2)
2799  F3                 [049] (-1)
279A  01                 [050] (1)
279B  00                 [051] (1)
279C  00                 [052] (1)
279D  F4                 [053] (1)
279E  01                 [054] (2)
279F  00                 [055] (2)
27A0  00                 [056] (2)
27A1  F4                 [057] (3)
27A2  01                 [058] (3)
27A3  00                 [059] (3)
27A4  00                 [060] (3)
27A5  F4                 [061] (3)
27A6  01                 [062] (5)
27A7  00                 [063] (5)
27A8  00                 [064] (5)
27A9  F4                 [065] (5)
27AA  01                 [066] (6)
27AB  00                 [067] (6)
27AC  00                 [068] (6)
27AD  F4                 [069] (6)
27AE  01                 [070] (6)
27AF  00                 [071] (5)
27B0  00                 [072] (6)
27B1  F5                 [073] (1)
27B2  01                 [074] (7)
27B3  00                 [075] (11)
27B4  00                 [076] (11)
27B5  F5                 [077] (11)
27B6  01                 [078] (11)
27B7  00                 [079] (11)
27B8  00                 [080] (12)
27B9  F5                 [081] (12)
27BA  01                 [082] (12)
27BB  00                 [083] (13)
27BC  00                 [084] (13)
27BD  F5                 [085] (13)
27BE  01                 [086] (13)
27BF  00                 [087] (14)
27C0  00                 [088] (14)
27C1  F5                 [089] (14)
27C2  01                 [090] (13)
27C3  00                 [091] (14)
27C4  00                 [092] (15)
27C5  F5                 [093] (17)
27C6  01                 [094] (17)
27C7  00                 [095] (17)
27C8  00                 [096] (17)
27C9  F5                 [097] (17)
27CA  01                 [098] (17)
27CB  00                 [099] (19)
27CC  00                 [100] (21)
27CD  F8                 [101] (21)
27CE  01                 [102] (21)
27CF  00                 [103] (21)
27D0  00                 [104] (21)
27D1  F8                 [105] (22)
27D2  01                 [106] (22)
27D3  00                 [107] (23)
27D4  00                 [108] (23)
27D5  F8                 [109] (23)
27D6  01                 [110] (-16)
27D7  00                 [111] (25)
27D8  00                 [112] (27)
                         * locals:
2929  00                 sizelocvars (0)
                         * upvalues:
292A  00                 sizeupvalues (0)
                         ** end of function **

                         
292B                     ** function [2] definition (level 2)
                         ** start of function **
292B  00                 string size (0)
                         source name: (none)
292D  04                 line defined (542)
292E  AA                 last line defined (682)
292F  05                 nups (7)
2930  07                 numparams (3)
2931  03                 is_vararg (0)
2932  00                 maxstacksize (45)
                         * code:
2935  02                 sizecode (365)
2936  E4004000           [001] self       3   0   256  ; -1538682285
293A  E2800001           [002] call       3   2   2  
293E  1D410000           [003] getglobal  4   1        ; 1074689893
2942  52018001           [004] move       5   3      
2946  22810001           [005] call       4   2   2  
294A  18010000           [006] test       4       0    ; to [8] if true
294E  1A000080           [007] jmp        1            ; to [9]
2952  1E008000           [008] return     0   1      
2956  24814000           [009] self       4   0   258  ; -1348043987
295A  22810001           [010] call       4   2   2  
295E  46010003           [011] loadnil    5   6      
2962  E4C14002           [012] self       7   4   259  ; -1592023674
2966  5D020100           [013] getglobal  9   4        ; Lotus_Game
296A  4E42C104           [014] gettable   9   9   261  ; "BodySkin"
296E  E2818001           [015] call       7   3   2  
2972  1D820100           [016] getglobal  8   6        ; 1672515847
2976  53020000           [017] getupval   9   0      
297A  22020101           [018] call       8   2   4  
297E  1A400280           [019] jmp        10           ; to [30]
2982  64C34100           [020] self       13  0   263  ; -1192496364
2986  D2030006           [021] move       15  12     
298A  62838001           [022] call       13  3   2  
298E  58030000           [023] test       13      0    ; to [25] if true
2992  1A400080           [024] jmp        2            ; to [27]
2996  52018005           [025] move       5   11     
299A  1A000180           [026] jmp        5            ; to [32]
fail op	35
299E  23C00106           [027] close      0  
29A2  1A000080           [028] jmp        1            ; to [30]
29A6  92018005           [029] move       6   11     
29AA  16820000           [030] tforloop   8       2    ; to [32] if exit
29AE  1AC0FC7F           [031] jmp        -12          ; to [20]
fail op	35
29B2  2300C202           [032] close      0  
29B6  1AC00080           [033] jmp        4            ; to [38]
fail op	35
29BA  23004203           [034] close      0  
29BE  1A000080           [035] jmp        1            ; to [37]
29C2  1E008000           [036] return     0   1      
29C6  52010003           [037] move       5   6      
29CA  4E434202           [038] gettable   13  4   265  ; "mAllowUglyMode"
29CE  58030000           [039] test       13      0    ; to [41] if true
29D2  1A400180           [040] jmp        6            ; to [47]
29D6  5D830200           [041] getglobal  13  10       ; 2083004503
29DA  93030000           [042] getupval   14  0      
29DE  8E430107           [043] gettable   14  14  5  
29E2  62830001           [044] call       13  2   2  
29E6  64C3C206           [045] self       13  13  267  ; -904493997
29EA  62830001           [046] call       13  2   2  
29EE  86030007           [047] loadnil    14  14     
29F2  58030000           [048] test       13      0    ; to [50] if true
29F6  1A400680           [049] jmp        26           ; to [76]
29FA  DD430000           [050] getglobal  15  1        ; 1074689893
29FE  12040001           [051] move       16  2      
2A02  E2830001           [052] call       15  2   2  
2A06  D8030000           [053] test       15      0    ; to [55] if true
2A0A  1A800280           [054] jmp        11           ; to [66]
2A0E  E4034300           [055] self       15  0   268  ; -1046857611
2A12  5D840200           [056] getglobal  17  10       ; 2083004503
2A16  8E44C300           [057] gettable   18  1   269  ; "meshUgly"
2A1A  62040001           [058] call       17  2   0  
2A1E  E2430000           [059] call       15  0   1  
2A22  E4834300           [060] self       15  0   270  ; -1539638019
2A26  5DC40300           [061] getglobal  17  15       ; -895206725
2A2A  8E04C400           [062] gettable   18  1   272  ; "customizationInfoUgly"
2A2E  62040001           [063] call       17  2   0  
2A32  E2430000           [064] call       15  0   1  
2A36  1A800180           [065] jmp        7            ; to [73]
2A3A  E4434401           [066] self       15  2   273  ; 919598577
2A3E  5D840200           [067] getglobal  17  10       ; 2083004503
2A42  8E44C300           [068] gettable   18  1   269  ; "meshUgly"
2A46  62840001           [069] call       17  2   2  
2A4A  97048000           [070] loadbool   18  1   0    ; true
2A4E  D7040000           [071] loadbool   19  0   0    ; false
2A52  E2438002           [072] call       15  5   1  
2A56  CE83C400           [073] gettable   15  1   274  ; "materialOverridesUgly"
2A5A  8E438107           [074] gettable   14  15  5  
2A5E  1AC00680           [075] jmp        28           ; to [104]
2A62  DD430000           [076] getglobal  15  1        ; 1074689893
2A66  12040001           [077] move       16  2      
2A6A  E2830001           [078] call       15  2   2  
2A6E  D8030000           [079] test       15      0    ; to [81] if true
2A72  1A000380           [080] jmp        13           ; to [94]
2A76  E4034300           [081] self       15  0   268  ; -1046857611
2A7A  5D840200           [082] getglobal  17  10       ; 2083004503
2A7E  8EC4C400           [083] gettable   18  1   275  ; "mesh"
2A82  8E440109           [084] gettable   18  18  5  
2A86  62040001           [085] call       17  2   0  
2A8A  E2430000           [086] call       15  0   1  
2A8E  E4834300           [087] self       15  0   270  ; -1539638019
2A92  5DC40300           [088] getglobal  17  15       ; -895206725
2A96  8E04C500           [089] gettable   18  1   276  ; "customizationInfo"
2A9A  8E440109           [090] gettable   18  18  5  
2A9E  62040001           [091] call       17  2   0  
2AA2  E2430000           [092] call       15  0   1  
2AA6  1AC00180           [093] jmp        8            ; to [102]
2AAA  E4434401           [094] self       15  2   273  ; 919598577
2AAE  5D840200           [095] getglobal  17  10       ; 2083004503
2AB2  8EC4C400           [096] gettable   18  1   275  ; "mesh"
2AB6  8E440109           [097] gettable   18  18  5  
2ABA  62840001           [098] call       17  2   2  
2ABE  97048000           [099] loadbool   18  1   0    ; true
2AC2  D7040000           [100] loadbool   19  0   0    ; false
2AC6  E2438002           [101] call       15  5   1  
2ACA  CE43C500           [102] gettable   15  1   277  ; "materialOverrides"
2ACE  8E438107           [103] gettable   14  15  5  
2AD2  D2030001           [104] move       15  2      
2AD6  1D440000           [105] getglobal  16  1        ; 1074689893
2ADA  52048007           [106] move       17  15     
2ADE  22840001           [107] call       16  2   2  
2AE2  18040000           [108] test       16      0    ; to [110] if true
2AE6  1A800080           [109] jmp        3            ; to [113]
2AEA  24844500           [110] self       16  0   278  ; -1592288893
2AEE  22840001           [111] call       16  2   2  
2AF2  D2030008           [112] move       15  16     
2AF6  24C4C507           [113] self       16  15  279  ; -1205424221
2AFA  86040009           [114] loadnil    18  18     
2AFE  D7040000           [115] loadbool   19  0   0    ; false
2B02  22440002           [116] call       16  4   1  
2B06  2404C607           [117] self       16  15  280  ; 440132294
2B0A  22440001           [118] call       16  2   1  
2B0E  1D840100           [119] getglobal  16  6        ; 1672515847
2B12  52040007           [120] move       17  14     
2B16  22040101           [121] call       16  2   4  
2B1A  1A000680           [122] jmp        25           ; to [148]
2B1E  53058000           [123] getupval   21  1      
fail op	35
2B22  2340050A           [124] close      0  
2B26  1A800380           [125] jmp        15           ; to [141]
2B2A  6445C607           [126] self       21  15  281  ; 795319150
2B2E  D3050001           [127] getupval   23  2      
2B32  0D86C609           [128] sub        24  19  282  ; 0
2B36  59C60600           [129] loadk      25  27       ; 0
2B3A  99C60600           [130] loadk      26  27       ; 0
2B3E  D9C60600           [131] loadk      27  27       ; 0
2B42  19C70600           [132] loadk      28  27       ; 0
2B46  57070000           [133] loadbool   29  0   0    ; false
2B4A  62458004           [134] call       21  9   1  
2B4E  6405C707           [135] self       21  15  284  ; 1728877662
2B52  CD85C609           [136] sub        23  19  282  ; 0
2B56  0606000C           [137] loadnil    24  24     
2B5A  57060000           [138] loadbool   25  0   0    ; false
2B5E  62458002           [139] call       21  5   1  
2B62  1A800180           [140] jmp        7            ; to [148]
2B66  6405C707           [141] self       21  15  284  ; 1728877662
2B6A  CD85C609           [142] sub        23  19  282  ; 0
2B6E  1D860200           [143] getglobal  24  10       ; 2083004503
2B72  5206000A           [144] move       25  20     
2B76  22860001           [145] call       24  2   2  
2B7A  57060000           [146] loadbool   25  0   0    ; false
2B7E  62458002           [147] call       21  5   1  
2B82  16840000           [148] tforloop   16      2    ; to [150] if exit
2B86  1A00F97F           [149] jmp        -27          ; to [123]
2B8A  64454702           [150] self       21  4   285  ; -479391803
2B8E  DD050100           [151] getglobal  23  4        ; Lotus_Game
2B92  CE85C70B           [152] gettable   23  23  286  ; "PrimaryColors"
2B96  62858001           [153] call       21  3   2  
2B9A  99C50600           [154] loadk      22  27       ; 0
2B9E  DD050100           [155] getglobal  23  4        ; Lotus_Game
2BA2  CEC5C70B           [156] gettable   23  23  287  ; "MAX_CustomizationColor"
2BA6  CD85C60B           [157] sub        23  23  282  ; 0
2BAA  19860600           [158] loadk      24  26       ; 0
2BAE  90C50380           [159] forprep    22  16       ; to [176]
2BB2  A406C80A           [160] self       26  21  288  ; 979293742
2BB6  1207800C           [161] move       28  25     
2BBA  A2868001           [162] call       26  3   2  
2BBE  98460000           [163] test       26      1    ; to [165] if false
2BC2  1A800280           [164] jmp        11           ; to [176]
2BC6  A446C80A           [165] self       26  21  289  ; -1881992366
2BCA  1207800C           [166] move       28  25     
2BCE  64874802           [167] self       29  4   290  ; -1752789129
2BD2  D207800C           [168] move       31  25     
2BD6  12088007           [169] move       32  15     
2BDA  62070002           [170] call       29  4   0  
2BDE  A2460000           [171] call       26  0   1  
2BE2  A4C6C80A           [172] self       26  21  291  ; -1037856321
2BE6  1207800C           [173] move       28  25     
2BEA  57078000           [174] loadbool   29  1   0    ; true
2BEE  A2460002           [175] call       26  4   1  
2BF2  9485FB7F           [176] forloop    22  -17      ; to [160] if loop
2BF6  9D060100           [177] getglobal  26  4        ; Lotus_Game
2BFA  8E06490D           [178] gettable   26  26  292  ; 724717559
2BFE  D2068007           [179] move       27  15     
2C02  1207800A           [180] move       28  21     
2C06  57070000           [181] loadbool   29  0   0    ; false
2C0A  97070000           [182] loadbool   30  0   0    ; false
2C0E  A2468002           [183] call       26  5   1  
2C12  9D860100           [184] getglobal  26  6        ; 1672515847
2C16  D3068001           [185] getupval   27  3      
2C1A  A2060101           [186] call       26  2   4  
2C1E  1AC00B80           [187] jmp        48           ; to [236]
2C22  E447C901           [188] self       31  3   293  ; -1625438872
2C26  5208000F           [189] move       33  30     
2C2A  E2878001           [190] call       31  3   2  
2C2E  1D480000           [191] getglobal  32  1        ; 1074689893
2C32  5208800F           [192] move       33  31     
2C36  22880001           [193] call       32  2   2  
2C3A  18480000           [194] test       32      1    ; to [196] if false
2C3E  1AC00980           [195] jmp        40           ; to [236]
2C42  1D480000           [196] getglobal  32  1        ; 1074689893
2C46  52080001           [197] move       33  2      
2C4A  22880001           [198] call       32  2   2  
2C4E  18480000           [199] test       32      1    ; to [201] if false
2C52  1A800180           [200] jmp        7            ; to [208]
2C56  24884901           [201] self       32  2   294  ; -1421644046
2C5A  9DC80300           [202] getglobal  34  15       ; -895206725
2C5E  D208000F           [203] move       35  30     
2C62  A2880001           [204] call       34  2   2  
2C66  DDC80900           [205] getglobal  35  39       ; EMPTY_SYMBOL
2C6A  22880002           [206] call       32  4   2  
2C6E  D2070010           [207] move       31  32     
2C72  2448C40F           [208] self       32  31  273  ; 919598577
2C76  9D880200           [209] getglobal  34  10       ; 2083004503
2C7A  CE08CA00           [210] gettable   35  1   296  ; "helmMeshes"
2C7E  CE488711           [211] gettable   35  35  29 
2C82  A2880001           [212] call       34  2   2  
2C86  D7080000           [213] loadbool   35  0   0    ; false
2C8A  17090000           [214] loadbool   36  0   0    ; false
2C8E  22488002           [215] call       32  5   1  
2C92  1D080100           [216] getglobal  32  4        ; Lotus_Game
2C96  0E084910           [217] gettable   32  32  292  ; 724717559
2C9A  5208800F           [218] move       33  31     
2C9E  9208800A           [219] move       34  21     
2CA2  D7088000           [220] loadbool   35  1   0    ; true
2CA6  22480002           [221] call       32  4   1  
2CAA  13080002           [222] getupval   32  4      
2CAE  5208800F           [223] move       33  31     
2CB2  93088002           [224] getupval   34  5      
2CB6  8E480711           [225] gettable   34  34  29 
2CBA  CE48CA00           [226] gettable   35  1   297  ; "helmAttachments"
2CBE  CE488711           [227] gettable   35  35  29 
2CC2  1D890A00           [228] getglobal  36  42       ; -332969190
2CC6  59C90A00           [229] loadk      37  43       ; "GAME_C1_HEAD1"
2CCA  22890001           [230] call       36  2   2  
2CCE  46098012           [231] loadnil    37  37     
2CD2  9209800A           [232] move       38  21     
2CD6  C6098013           [233] loadnil    39  39     
2CDA  22480004           [234] call       32  8   1  
2CDE  1A400080           [235] jmp        2            ; to [238]
2CE2  96860000           [236] tforloop   26      2    ; to [238] if exit
2CE6  1A40F37F           [237] jmp        -50          ; to [188]
2CEA  12088007           [238] move       32  15     
2CEE  5D480000           [239] getglobal  33  1        ; 1074689893
2CF2  92080001           [240] move       34  2      
2CF6  62880001           [241] call       33  2   2  
2CFA  58080000           [242] test       33      0    ; to [244] if true
2CFE  1AC00380           [243] jmp        16           ; to [260]
2D02  64084B00           [244] self       33  0   300  ; -575854842
2D06  62880001           [245] call       33  2   2  
2D0A  58080000           [246] test       33      0    ; to [248] if true
2D0E  1AC00280           [247] jmp        12           ; to [260]
2D12  6448CB01           [248] self       33  3   301  ; -1917464545
2D16  62880001           [249] call       33  2   2  
2D1A  6488CB10           [250] self       33  33  302  ; -400899663
2D1E  62880001           [251] call       33  2   2  
2D22  9D480000           [252] getglobal  34  1        ; 1074689893
2D26  D2088010           [253] move       35  33     
2D2A  A2880001           [254] call       34  2   2  
2D2E  98480000           [255] test       34      1    ; to [257] if false
2D32  1A800080           [256] jmp        3            ; to [260]
2D36  A488C510           [257] self       34  33  278  ; -1592288893
2D3A  A2880001           [258] call       34  2   2  
2D3E  12080011           [259] move       32  34     
2D42  58030000           [260] test       13      0    ; to [262] if true
2D46  1AC00680           [261] jmp        28           ; to [290]
2D4A  93080002           [262] getupval   34  4      
2D4E  D2080010           [263] move       35  32     
2D52  13090003           [264] getupval   36  6      
2D56  4EC9CB00           [265] gettable   37  1   303  ; "attachmentsUgly"
2D5A  9DC90900           [266] getglobal  38  39       ; EMPTY_SYMBOL
2D5E  CE09CC00           [267] gettable   39  1   304  ; "attachmentMaterialOverridesUgly"
2D62  120A800A           [268] move       40  21     
2D66  460A8014           [269] loadnil    41  41     
2D6A  A2480004           [270] call       34  8   1  
2D6E  9D480000           [271] getglobal  34  1        ; 1074689893
2D72  D2080001           [272] move       35  2      
2D76  A2880001           [273] call       34  2   2  
2D7A  98080000           [274] test       34      0    ; to [276] if true
2D7E  1A000B80           [275] jmp        45           ; to [321]
2D82  8E48CC00           [276] gettable   34  1   305  ; "simCollisionOverrideUgly"
fail op	35
2D86  23004211           [277] close      0  
2D8A  1A000180           [278] jmp        5            ; to [284]
2D8E  A488CC01           [279] self       34  3   306  ; 1597432514
2D92  24C94C00           [280] self       36  0   307  ; -1301101939
2D96  22090001           [281] call       36  2   0  
2D9A  A2480000           [282] call       34  0   1  
2D9E  1A000980           [283] jmp        37           ; to [321]
2DA2  A488CC01           [284] self       34  3   306  ; 1597432514
2DA6  1D890200           [285] getglobal  36  10       ; 2083004503
2DAA  4E49CC00           [286] gettable   37  1   305  ; "simCollisionOverrideUgly"
2DAE  22090001           [287] call       36  2   0  
2DB2  A2480000           [288] call       34  0   1  
2DB6  1A800780           [289] jmp        31           ; to [321]
2DBA  93080002           [290] getupval   34  4      
2DBE  D2080010           [291] move       35  32     
2DC2  13090003           [292] getupval   36  6      
2DC6  4E09CD00           [293] gettable   37  1   308  ; "attachments"
2DCA  4E498112           [294] gettable   37  37  5  
2DCE  9DC90900           [295] getglobal  38  39       ; EMPTY_SYMBOL
2DD2  CE49CD00           [296] gettable   39  1   309  ; "attachmentMaterialOverrides"
2DD6  CE498113           [297] gettable   39  39  5  
2DDA  120A800A           [298] move       40  21     
2DDE  460A8014           [299] loadnil    41  41     
2DE2  A2480004           [300] call       34  8   1  
2DE6  9D480000           [301] getglobal  34  1        ; 1074689893
2DEA  D2080001           [302] move       35  2      
2DEE  A2880001           [303] call       34  2   2  
2DF2  98080000           [304] test       34      0    ; to [306] if true
2DF6  1A800380           [305] jmp        15           ; to [321]
2DFA  8E88CD00           [306] gettable   34  1   310  ; "simCollisionOverride"
2DFE  8E480111           [307] gettable   34  34  5  
fail op	35
2E02  23004211           [308] close      0  
2E06  1A000180           [309] jmp        5            ; to [315]
2E0A  A488CC01           [310] self       34  3   306  ; 1597432514
2E0E  24C94C00           [311] self       36  0   307  ; -1301101939
2E12  22090001           [312] call       36  2   0  
2E16  A2480000           [313] call       34  0   1  
2E1A  1A400180           [314] jmp        6            ; to [321]
2E1E  A488CC01           [315] self       34  3   306  ; 1597432514
2E22  1D890200           [316] getglobal  36  10       ; 2083004503
2E26  4E89CD00           [317] gettable   37  1   310  ; "simCollisionOverride"
2E2A  4E498112           [318] gettable   37  37  5  
2E2E  22090001           [319] call       36  2   0  
2E32  A2480000           [320] call       34  0   1  
2E36  9D480000           [321] getglobal  34  1        ; 1074689893
2E3A  D2080001           [322] move       35  2      
2E3E  A2880001           [323] call       34  2   2  
2E42  98080000           [324] test       34      0    ; to [326] if true
2E46  1A800980           [325] jmp        39           ; to [365]
2E4A  A4C8CD01           [326] self       34  3   311  ; -1201586349
2E4E  A2880001           [327] call       34  2   2  
2E52  98080000           [328] test       34      0    ; to [330] if true
2E56  1A800880           [329] jmp        35           ; to [365]
2E5A  8E08CE00           [330] gettable   34  1   312  ; "abilityIcons"
fail op	35
2E5E  63004211           [331] close      1  
2E62  1AC00780           [332] jmp        32           ; to [365]
2E66  97080000           [333] loadbool   34  0   0    ; false
2E6A  E4084B00           [334] self       35  0   300  ; -575854842
2E6E  E2880001           [335] call       35  2   2  
2E72  D8080000           [336] test       35      0    ; to [338] if true
2E76  1A000380           [337] jmp        13           ; to [351]
2E7A  E448CB01           [338] self       35  3   301  ; -1917464545
2E7E  E2880001           [339] call       35  2   2  
2E82  E488CB11           [340] self       35  35  302  ; -400899663
2E86  E2880001           [341] call       35  2   2  
2E8A  1D490000           [342] getglobal  36  1        ; 1074689893
2E8E  52098011           [343] move       37  35     
2E92  22890001           [344] call       36  2   2  
2E96  18490000           [345] test       36      1    ; to [347] if false
2E9A  1AC00080           [346] jmp        4            ; to [351]
2E9E  2449CE11           [347] self       36  35  313  ; -1957065004
2EA2  9D890E00           [348] getglobal  38  58       ; gFlightJetPackItemType
2EA6  22898001           [349] call       36  3   2  
2EAA  92080012           [350] move       34  36     
2EAE  98480000           [351] test       34      1    ; to [353] if false
2EB2  1AC00280           [352] jmp        12           ; to [365]
2EB6  24C94E00           [353] self       36  0   315  ; -1928567582
2EBA  22890001           [354] call       36  2   2  
2EBE  5D890100           [355] getglobal  37  6        ; 1672515847
2EC2  92090012           [356] move       38  36     
2EC6  62090101           [357] call       37  2   4  
2ECA  1AC00080           [358] jmp        4            ; to [363]
2ECE  A40ACF14           [359] self       42  41  316  ; -718482478
2ED2  0E0BCE00           [360] gettable   44  1   312  ; "abilityIcons"
2ED6  0E0B0A16           [361] gettable   44  44  40 
2EDA  A24A8001           [362] call       42  3   1  
2EDE  56890000           [363] tforloop   37      2    ; to [365] if exit
2EE2  1A40FE7F           [364] jmp        -6           ; to [359]
2EE6  1E008000           [365] return     0   1      
                         * constants:
2EEA  3D                 sizek (61)
2EEB  01                 const type 3
2EEC  539249A4           const [0]: (-1538682285)
2EF0  01                 const type 3
2EF1  65770E40           const [1]: (1074689893)
2EF5  01                 const type 3
2EF6  2D7BA6AF           const [2]: (-1348043987)
2EFA  01                 const type 3
2EFB  86A51BA1           const [3]: (-1592023674)
2EFF  04                 const type 4
2F00  0B                 string size (11)
2F01  4C6F7475735F4761+  "Lotus_Ga"
2F09  6D6500             "me\0"
                         const [4]: "Lotus_Game"
2F0C  04                 const type 4
2F0D  09                 string size (9)
2F0E  426F6479536B696E+  "BodySkin"
2F16  00                 "\0"
                         const [5]: "BodySkin"
2F17  01                 const type 3
2F18  0791B063           const [6]: (1672515847)
2F1C  01                 const type 3
2F1D  14F3EBB8           const [7]: (-1192496364)
2F21  00                 const type 0
                         const [8]: nil
2F22  04                 const type 4
2F23  0F                 string size (15)
2F24  6D416C6C6F775567+  "mAllowUg"
2F2C  6C794D6F646500     "lyMode\0"
                         const [9]: "mAllowUglyMode"
2F33  01                 const type 3
2F34  5720287C           const [10]: (2083004503)
2F38  01                 const type 3
2F39  538416CA           const [11]: (-904493997)
2F3D  01                 const type 3
2F3E  75389AC1           const [12]: (-1046857611)
2F42  04                 const type 4
2F43  09                 string size (9)
2F44  6D65736855676C79+  "meshUgly"
2F4C  00                 "\0"
                         const [13]: "meshUgly"
2F4D  01                 const type 3
2F4E  FDFC3AA4           const [14]: (-1539638019)
2F52  01                 const type 3
2F53  BB3AA4CA           const [15]: (-895206725)
2F57  04                 const type 4
2F58  16                 string size (22)
2F59  637573746F6D697A+  "customiz"
2F61  6174696F6E496E66+  "ationInf"
2F69  6F55676C7900       "oUgly\0"
                         const [16]: "customizationInfoUgly"
2F6F  01                 const type 3
2F70  F1F5CF36           const [17]: (919598577)
2F74  04                 const type 4
2F75  16                 string size (22)
2F76  6D6174657269616C+  "material"
2F7E  4F76657272696465+  "Override"
2F86  7355676C7900       "sUgly\0"
                         const [18]: "materialOverridesUgly"
2F8C  04                 const type 4
2F8D  05                 string size (5)
2F8E  6D65736800         "mesh\0"
                         const [19]: "mesh"
2F93  04                 const type 4
2F94  12                 string size (18)
2F95  637573746F6D697A+  "customiz"
2F9D  6174696F6E496E66+  "ationInf"
2FA5  6F00               "o\0"
                         const [20]: "customizationInfo"
2FA7  04                 const type 4
2FA8  12                 string size (18)
2FA9  6D6174657269616C+  "material"
2FB1  4F76657272696465+  "Override"
2FB9  7300               "s\0"
                         const [21]: "materialOverrides"
2FBB  01                 const type 3
2FBC  839917A1           const [22]: (-1592288893)
2FC0  01                 const type 3
2FC1  A3AF26B8           const [23]: (-1205424221)
2FC5  01                 const type 3
2FC6  C6E23B1A           const [24]: (440132294)
2FCA  01                 const type 3
2FCB  6E9B672F           const [25]: (795319150)
2FCF  03                 const type 3
2FD0  0000803F           const [26]: (0)
2FD4  03                 const type 3
2FD5  00000000           const [27]: (0)
2FD9  01                 const type 3
2FDA  5E940C67           const [28]: (1728877662)
2FDE  01                 const type 3
2FDF  C50F6DE3           const [29]: (-479391803)
2FE3  04                 const type 4
2FE4  0E                 string size (14)
2FE5  5072696D61727943+  "PrimaryC"
2FED  6F6C6F727300       "olors\0"
                         const [30]: "PrimaryColors"
2FF3  04                 const type 4
2FF4  17                 string size (23)
2FF5  4D41585F43757374+  "MAX_Cust"
2FFD  6F6D697A6174696F+  "omizatio"
3005  6E436F6C6F7200     "nColor\0"
                         const [31]: "MAX_CustomizationColor"
300C  01                 const type 3
300D  2ED65E3A           const [32]: (979293742)
3011  01                 const type 3
3012  5213D38F           const [33]: (-1881992366)
3016  01                 const type 3
3017  778F8697           const [34]: (-1752789129)
301B  01                 const type 3
301C  BF9123C2           const [35]: (-1037856321)
3020  01                 const type 3
3021  F74F322B           const [36]: (724717559)
3025  01                 const type 3
3026  68C51D9F           const [37]: (-1625438872)
302A  01                 const type 3
302B  F26E43AB           const [38]: (-1421644046)
302F  04                 const type 4
3030  0D                 string size (13)
3031  454D5054595F5359+  "EMPTY_SY"
3039  4D424F4C00         "MBOL\0"
                         const [39]: "EMPTY_SYMBOL"
303E  04                 const type 4
303F  0B                 string size (11)
3040  68656C6D4D657368+  "helmMesh"
3048  657300             "es\0"
                         const [40]: "helmMeshes"
304B  04                 const type 4
304C  10                 string size (16)
304D  68656C6D41747461+  "helmAtta"
3055  63686D656E747300   "chments\0"
                         const [41]: "helmAttachments"
305D  01                 const type 3
305E  1A4B27EC           const [42]: (-332969190)
3062  04                 const type 4
3063  0E                 string size (14)
3064  47414D455F43315F+  "GAME_C1_"
306C  484541443100       "HEAD1\0"
                         const [43]: "GAME_C1_HEAD1"
3072  01                 const type 3
3073  0627ADDD           const [44]: (-575854842)
3077  01                 const type 3
3078  1FD0B58D           const [45]: (-1917464545)
307C  01                 const type 3
307D  B1C11AE8           const [46]: (-400899663)
3081  04                 const type 4
3082  10                 string size (16)
3083  6174746163686D65+  "attachme"
308B  6E747355676C7900   "ntsUgly\0"
                         const [47]: "attachmentsUgly"
3093  04                 const type 4
3094  20                 string size (32)
3095  6174746163686D65+  "attachme"
309D  6E744D6174657269+  "ntMateri"
30A5  616C4F7665727269+  "alOverri"
30AD  64657355676C7900   "desUgly\0"
                         const [48]: "attachmentMaterialOverridesUgly"
30B5  04                 const type 4
30B6  19                 string size (25)
30B7  73696D436F6C6C69+  "simColli"
30BF  73696F6E4F766572+  "sionOver"
30C7  7269646555676C79+  "rideUgly"
30CF  00                 "\0"
                         const [49]: "simCollisionOverrideUgly"
30D0  01                 const type 3
30D1  C2E2365F           const [50]: (1597432514)
30D5  01                 const type 3
30D6  8DC272B2           const [51]: (-1301101939)
30DA  04                 const type 4
30DB  0C                 string size (12)
30DC  6174746163686D65+  "attachme"
30E4  6E747300           "nts\0"
                         const [52]: "attachments"
30E8  04                 const type 4
30E9  1C                 string size (28)
30EA  6174746163686D65+  "attachme"
30F2  6E744D6174657269+  "ntMateri"
30FA  616C4F7665727269+  "alOverri"
3102  64657300           "des\0"
                         const [53]: "attachmentMaterialOverrides"
3106  04                 const type 4
3107  15                 string size (21)
3108  73696D436F6C6C69+  "simColli"
3110  73696F6E4F766572+  "sionOver"
3118  7269646500         "ride\0"
                         const [54]: "simCollisionOverride"
311D  01                 const type 3
311E  533F61B8           const [55]: (-1201586349)
3122  04                 const type 4
3123  0D                 string size (13)
3124  6162696C69747949+  "abilityI"
312C  636F6E7300         "cons\0"
                         const [56]: "abilityIcons"
3131  01                 const type 3
3132  D48E598B           const [57]: (-1957065004)
3136  04                 const type 4
3137  17                 string size (23)
3138  67466C696768744A+  "gFlightJ"
3140  65745061636B4974+  "etPackIt"
3148  656D5479706500     "emType\0"
                         const [58]: "gFlightJetPackItemType"
314F  01                 const type 3
3150  E2640C8D           const [59]: (-1928567582)
3154  01                 const type 3
3155  D2D32CD5           const [60]: (-718482478)
                         * functions:
3159  00                 sizep (0)
                         * lines:
315B  02                 sizelineinfo (365)
                         [pc] (line)
315C  1F                 [001] (31)
315D  02                 [002] (31)
315E  00                 [003] (32)
315F  00                 [004] (32)
3160  1F                 [005] (32)
3161  02                 [006] (32)
3162  00                 [007] (32)
3163  00                 [008] (33)
3164  20                 [009] (36)
3165  02                 [010] (36)
3166  00                 [011] (38)
3167  00                 [012] (40)
3168  20                 [013] (40)
3169  02                 [014] (40)
316A  00                 [015] (40)
316B  00                 [016] (42)
316C  20                 [017] (42)
316D  02                 [018] (42)
316E  00                 [019] (42)
316F  00                 [020] (44)
3170  20                 [021] (44)
3171  02                 [022] (44)
3172  00                 [023] (44)
3173  00                 [024] (44)
3174  20                 [025] (45)
3175  02                 [026] (46)
3176  00                 [027] (49)
3177  00                 [028] (49)
3178  21                 [029] (50)
3179  02                 [030] (42)
317A  00                 [031] (51)
317B  00                 [032] (54)
317C  24                 [033] (54)
317D  02                 [034] (55)
317E  00                 [035] (55)
317F  00                 [036] (56)
3180  24                 [037] (59)
3181  02                 [038] (62)
3182  00                 [039] (62)
3183  00                 [040] (62)
3184  26                 [041] (62)
3185  02                 [042] (62)
3186  00                 [043] (62)
3187  00                 [044] (62)
3188  28                 [045] (62)
3189  02                 [046] (62)
318A  00                 [047] (63)
318B  00                 [048] (64)
318C  28                 [049] (64)
318D  02                 [050] (65)
318E  00                 [051] (65)
318F  00                 [052] (65)
3190  28                 [053] (65)
3191  02                 [054] (65)
3192  00                 [055] (66)
3193  00                 [056] (66)
3194  28                 [057] (66)
3195  02                 [058] (66)
3196  00                 [059] (66)
3197  00                 [060] (67)
3198  2A                 [061] (67)
3199  02                 [062] (67)
319A  00                 [063] (67)
319B  00                 [064] (67)
319C  2A                 [065] (67)
319D  02                 [066] (69)
319E  00                 [067] (69)
319F  00                 [068] (69)
31A0  2A                 [069] (69)
31A1  02                 [070] (69)
31A2  00                 [071] (69)
31A3  00                 [072] (69)
31A4  2A                 [073] (71)
31A5  02                 [074] (71)
31A6  00                 [075] (71)
31A7  00                 [076] (73)
31A8  2C                 [077] (73)
31A9  02                 [078] (73)
31AA  00                 [079] (73)
31AB  00                 [080] (73)
31AC  2C                 [081] (74)
31AD  02                 [082] (74)
31AE  00                 [083] (74)
31AF  00                 [084] (74)
31B0  2C                 [085] (74)
31B1  02                 [086] (74)
31B2  00                 [087] (75)
31B3  00                 [088] (75)
31B4  2C                 [089] (75)
31B5  02                 [090] (75)
31B6  00                 [091] (75)
31B7  00                 [092] (75)
31B8  2C                 [093] (75)
31B9  02                 [094] (77)
31BA  00                 [095] (77)
31BB  00                 [096] (77)
31BC  2D                 [097] (77)
31BD  02                 [098] (77)
31BE  00                 [099] (77)
31BF  00                 [100] (77)
31C0  2E                 [101] (77)
31C1  02                 [102] (79)
31C2  00                 [103] (79)
31C3  00                 [104] (82)
31C4  31                 [105] (83)
31C5  02                 [106] (83)
31C6  00                 [107] (83)
31C7  00                 [108] (83)
31C8  31                 [109] (83)
31C9  02                 [110] (84)
31CA  00                 [111] (84)
31CB  00                 [112] (84)
31CC  32                 [113] (87)
31CD  02                 [114] (87)
31CE  00                 [115] (87)
31CF  00                 [116] (87)
31D0  2A                 [117] (88)
31D1  02                 [118] (88)
31D2  00                 [119] (90)
31D3  00                 [120] (90)
31D4  33                 [121] (90)
31D5  02                 [122] (90)
31D6  00                 [123] (91)
31D7  00                 [124] (91)
31D8  36                 [125] (91)
31D9  02                 [126] (92)
31DA  00                 [127] (92)
31DB  00                 [128] (92)
31DC  36                 [129] (92)
31DD  02                 [130] (92)
31DE  00                 [131] (92)
31DF  00                 [132] (92)
31E0  37                 [133] (92)
31E1  02                 [134] (92)
31E2  00                 [135] (93)
31E3  00                 [136] (93)
31E4  37                 [137] (93)
31E5  02                 [138] (93)
31E6  00                 [139] (93)
31E7  00                 [140] (93)
31E8  38                 [141] (95)
31E9  02                 [142] (95)
31EA  00                 [143] (95)
31EB  00                 [144] (95)
31EC  3B                 [145] (95)
31ED  02                 [146] (95)
31EE  00                 [147] (95)
31EF  00                 [148] (90)
31F0  3E                 [149] (96)
31F1  02                 [150] (99)
31F2  00                 [151] (99)
31F3  00                 [152] (99)
31F4  3E                 [153] (99)
31F5  02                 [154] (100)
31F6  00                 [155] (100)
31F7  00                 [156] (100)
31F8  3E                 [157] (100)
31F9  02                 [158] (100)
31FA  00                 [159] (100)
31FB  00                 [160] (101)
31FC  3E                 [161] (101)
31FD  02                 [162] (101)
31FE  00                 [163] (101)
31FF  00                 [164] (101)
3200  3E                 [165] (102)
3201  02                 [166] (102)
3202  00                 [167] (102)
3203  00                 [168] (102)
3204  3E                 [169] (102)
3205  02                 [170] (102)
3206  00                 [171] (102)
3207  00                 [172] (103)
3208  3E                 [173] (103)
3209  02                 [174] (103)
320A  00                 [175] (103)
320B  00                 [176] (100)
320C  3E                 [177] (107)
320D  02                 [178] (107)
320E  00                 [179] (107)
320F  00                 [180] (107)
3210  3E                 [181] (107)
3211  02                 [182] (107)
3212  00                 [183] (107)
3213  00                 [184] (109)
3214  3F                 [185] (109)
3215  02                 [186] (109)
3216  00                 [187] (109)
3217  00                 [188] (110)
3218  40                 [189] (110)
3219  02                 [190] (110)
321A  00                 [191] (111)
321B  00                 [192] (111)
321C  40                 [193] (111)
321D  02                 [194] (111)
321E  00                 [195] (111)
321F  00                 [196] (112)
3220  41                 [197] (112)
3221  02                 [198] (112)
3222  00                 [199] (112)
3223  00                 [200] (112)
3224  41                 [201] (113)
3225  02                 [202] (113)
3226  00                 [203] (113)
3227  00                 [204] (113)
3228  41                 [205] (113)
3229  02                 [206] (113)
322A  00                 [207] (113)
322B  00                 [208] (116)
322C  41                 [209] (116)
322D  02                 [210] (116)
322E  00                 [211] (116)
322F  00                 [212] (116)
3230  41                 [213] (116)
3231  02                 [214] (116)
3232  00                 [215] (116)
3233  00                 [216] (117)
3234  42                 [217] (117)
3235  02                 [218] (117)
3236  00                 [219] (117)
3237  00                 [220] (117)
3238  42                 [221] (117)
3239  02                 [222] (118)
323A  00                 [223] (118)
323B  00                 [224] (118)
323C  42                 [225] (118)
323D  02                 [226] (118)
323E  00                 [227] (118)
323F  00                 [228] (118)
3240  42                 [229] (118)
3241  02                 [230] (118)
3242  00                 [231] (118)
3243  00                 [232] (118)
3244  42                 [233] (118)
3245  02                 [234] (118)
3246  00                 [235] (120)
3247  00                 [236] (109)
3248  43                 [237] (121)
3249  02                 [238] (124)
324A  00                 [239] (125)
324B  00                 [240] (125)
324C  43                 [241] (125)
324D  02                 [242] (125)
324E  00                 [243] (125)
324F  00                 [244] (125)
3250  43                 [245] (125)
3251  02                 [246] (125)
3252  00                 [247] (125)
3253  00                 [248] (126)
3254  43                 [249] (126)
3255  02                 [250] (126)
3256  00                 [251] (126)
3257  00                 [252] (127)
3258  43                 [253] (127)
3259  02                 [254] (127)
325A  00                 [255] (127)
325B  00                 [256] (127)
325C  43                 [257] (-128)
325D  02                 [258] (-128)
325E  00                 [259] (-128)
325F  00                 [260] (-124)
3260  45                 [261] (-124)
3261  02                 [262] (-123)
3262  00                 [263] (-123)
3263  00                 [264] (-123)
3264  45                 [265] (-123)
3265  02                 [266] (-123)
3266  00                 [267] (-123)
3267  00                 [268] (-123)
3268  45                 [269] (-123)
3269  02                 [270] (-123)
326A  00                 [271] (-121)
326B  00                 [272] (-121)
326C  45                 [273] (-121)
326D  02                 [274] (-121)
326E  00                 [275] (-121)
326F  00                 [276] (-120)
3270  45                 [277] (-120)
3271  02                 [278] (-120)
3272  00                 [279] (-119)
3273  00                 [280] (-119)
3274  45                 [281] (-119)
3275  02                 [282] (-119)
3276  00                 [283] (-119)
3277  00                 [284] (-117)
3278  45                 [285] (-117)
3279  02                 [286] (-117)
327A  00                 [287] (-117)
327B  00                 [288] (-117)
327C  47                 [289] (-115)
327D  02                 [290] (-113)
327E  00                 [291] (-113)
327F  00                 [292] (-113)
3280  47                 [293] (-113)
3281  02                 [294] (-113)
3282  00                 [295] (-113)
3283  00                 [296] (-113)
3284  47                 [297] (-113)
3285  02                 [298] (-113)
3286  00                 [299] (-113)
3287  00                 [300] (-113)
3288  49                 [301] (-111)
3289  02                 [302] (-111)
328A  00                 [303] (-111)
328B  00                 [304] (-111)
328C  49                 [305] (-111)
328D  02                 [306] (-110)
328E  00                 [307] (-110)
328F  00                 [308] (-110)
3290  49                 [309] (-110)
3291  02                 [310] (-109)
3292  00                 [311] (-109)
3293  00                 [312] (-109)
3294  49                 [313] (-109)
3295  02                 [314] (-109)
3296  00                 [315] (-107)
3297  00                 [316] (-107)
3298  49                 [317] (-107)
3299  02                 [318] (-107)
329A  00                 [319] (-107)
329B  00                 [320] (-107)
329C  4A                 [321] (-102)
329D  02                 [322] (-102)
329E  00                 [323] (-102)
329F  00                 [324] (-102)
32A0  4A                 [325] (-102)
32A1  02                 [326] (-102)
32A2  00                 [327] (-102)
32A3  00                 [328] (-102)
32A4  4A                 [329] (-102)
32A5  02                 [330] (-102)
32A6  00                 [331] (-102)
32A7  00                 [332] (-102)
32A8  4A                 [333] (-101)
32A9  02                 [334] (-99)
32AA  00                 [335] (-99)
32AB  00                 [336] (-99)
32AC  4A                 [337] (-99)
32AD  02                 [338] (-98)
32AE  00                 [339] (-98)
32AF  00                 [340] (-98)
32B0  4A                 [341] (-98)
32B1  02                 [342] (-97)
32B2  00                 [343] (-97)
32B3  00                 [344] (-97)
32B4  4B                 [345] (-97)
32B5  02                 [346] (-97)
32B6  00                 [347] (-96)
32B7  00                 [348] (-96)
32B8  4B                 [349] (-96)
32B9  02                 [350] (-96)
32BA  00                 [351] (-93)
32BB  00                 [352] (-93)
32BC  4B                 [353] (-92)
32BD  02                 [354] (-92)
32BE  00                 [355] (-91)
32BF  00                 [356] (-91)
32C0  4B                 [357] (-91)
32C1  02                 [358] (-91)
32C2  00                 [359] (-90)
32C3  00                 [360] (-90)
32C4  4B                 [361] (-90)
32C5  02                 [362] (-90)
32C6  00                 [363] (-91)
32C7  00                 [364] (-90)
32C8  4B                 [365] (-86)
                         * locals:
3710  00                 sizelocvars (0)
                         * upvalues:
3711  00                 sizeupvalues (0)
                         ** end of function **

                         
3712                     ** function [3] definition (level 2)
                         ** start of function **
3712  00                 string size (0)
                         source name: (none)
3714  05                 line defined (684)
3715  B5                 last line defined (693)
3716  05                 nups (6)
3717  06                 numparams (1)
3718  01                 is_vararg (0)
3719  00                 maxstacksize (5)
                         * code:
371B  17                 sizecode (23)
371C  64004000           [01] self       1   0   256  ; -1941805690
3720  62800001           [02] call       1   2   2  
3724  93000000           [03] getupval   2   0      
fail op	35
3728  23808000           [04] close      0  
372C  1A000180           [05] jmp        5            ; to [11]
3730  93008000           [06] getupval   2   1      
3734  D2000000           [07] move       3   0      
3738  13010001           [08] getupval   4   2      
373C  A2408001           [09] call       2   3   1  
3740  1AC00280           [10] jmp        12           ; to [23]
3744  93008001           [11] getupval   2   3      
fail op	35
3748  23808000           [12] close      0  
374C  1A000180           [13] jmp        5            ; to [19]
3750  93008000           [14] getupval   2   1      
3754  D2000000           [15] move       3   0      
3758  13010002           [16] getupval   4   4      
375C  A2408001           [17] call       2   3   1  
3760  1AC00080           [18] jmp        4            ; to [23]
3764  93008000           [19] getupval   2   1      
3768  D2000000           [20] move       3   0      
376C  13018002           [21] getupval   4   5      
3770  A2408001           [22] call       2   3   1  
3774  1E008000           [23] return     0   1      
                         * constants:
3778  01                 sizek (1)
3779  01                 const type 3
377A  8665428C           const [0]: (-1941805690)
                         * functions:
377E  00                 sizep (0)
                         * lines:
377F  17                 sizelineinfo (23)
                         [pc] (line)
3780  AD                 [01] (-83)
3781  02                 [02] (-83)
3782  00                 [03] (-82)
3783  00                 [04] (-82)
3784  AD                 [05] (-82)
3785  02                 [06] (-81)
3786  00                 [07] (-81)
3787  00                 [08] (-81)
3788  AE                 [09] (-81)
3789  02                 [10] (-81)
378A  00                 [11] (-80)
378B  00                 [12] (-80)
378C  AE                 [13] (-80)
378D  02                 [14] (-79)
378E  00                 [15] (-79)
378F  00                 [16] (-79)
3790  AE                 [17] (-79)
3791  02                 [18] (-79)
3792  00                 [19] (-77)
3793  00                 [20] (-77)
3794  AF                 [21] (-77)
3795  02                 [22] (-77)
3796  00                 [23] (-75)
                         * locals:
37DC  00                 sizelocvars (0)
                         * upvalues:
37DD  00                 sizeupvalues (0)
                         ** end of function **

                         
37DE                     ** function [4] definition (level 2)
                         ** start of function **
37DE  00                 string size (0)
                         source name: (none)
37E0  05                 line defined (695)
37E1  BE                 last line defined (702)
37E2  05                 nups (1)
37E3  01                 numparams (2)
37E4  02                 is_vararg (0)
37E5  00                 maxstacksize (5)
                         * code:
37E7  0C                 sizecode (12)
37E8  A4004000           [01] self       2   0   256  ; -1941805690
37EC  A2800001           [02] call       2   2   2  
fail op	35
37F0  23808000           [03] close      0  
37F4  1A000080           [04] jmp        1            ; to [6]
37F8  1E008000           [05] return     0   1      
37FC  A4404000           [06] self       2   0   257  ; -733873290
3800  12018000           [07] move       4   1      
3804  A2408001           [08] call       2   3   1  
3808  93000000           [09] getupval   2   0      
380C  D2000000           [10] move       3   0      
3810  A2400001           [11] call       2   2   1  
3814  1E008000           [12] return     0   1      
                         * constants:
3818  02                 sizek (2)
3819  01                 const type 3
381A  8665428C           const [0]: (-1941805690)
381E  01                 const type 3
381F  76FB41D4           const [1]: (-733873290)
                         * functions:
3823  00                 sizep (0)
                         * lines:
3824  0C                 sizelineinfo (12)
                         [pc] (line)
3825  B8                 [01] (-72)
3826  02                 [02] (-72)
3827  00                 [03] (-72)
3828  00                 [04] (-72)
3829  B8                 [05] (-71)
382A  02                 [06] (-68)
382B  00                 [07] (-68)
382C  00                 [08] (-68)
382D  B8                 [09] (-67)
382E  02                 [10] (-67)
382F  00                 [11] (-67)
3830  00                 [12] (-66)
                         * locals:
3855  00                 sizelocvars (0)
                         * upvalues:
3856  00                 sizeupvalues (0)
                         ** end of function **

                         
3857                     ** function [5] definition (level 2)
                         ** start of function **
3857  00                 string size (0)
                         source name: (none)
3859  05                 line defined (704)
385A  C8                 last line defined (712)
385B  05                 nups (4)
385C  04                 numparams (1)
385D  01                 is_vararg (0)
385E  00                 maxstacksize (5)
                         * code:
3860  12                 sizecode (18)
3861  64004000           [01] self       1   0   256  ; -1941805690
3865  62800001           [02] call       1   2   2  
3869  93000000           [03] getupval   2   0      
fail op	35
386D  63808000           [04] close      1  
3871  1A800080           [05] jmp        3            ; to [9]
3875  93008000           [06] getupval   2   1      
fail op	35
3879  23808000           [07] close      0  
387D  1A000180           [08] jmp        5            ; to [14]
3881  93000001           [09] getupval   2   2      
3885  D2000000           [10] move       3   0      
3889  13018001           [11] getupval   4   3      
388D  A2408001           [12] call       2   3   1  
3891  1AC00080           [13] jmp        4            ; to [18]
3895  93000001           [14] getupval   2   2      
3899  D2000000           [15] move       3   0      
389D  13010000           [16] getupval   4   0      
38A1  A2408001           [17] call       2   3   1  
38A5  1E008000           [18] return     0   1      
                         * constants:
38A9  01                 sizek (1)
38AA  01                 const type 3
38AB  8665428C           const [0]: (-1941805690)
                         * functions:
38AF  00                 sizep (0)
                         * lines:
38B0  12                 sizelineinfo (18)
                         [pc] (line)
38B1  C2                 [01] (-62)
38B2  02                 [02] (-62)
38B3  00                 [03] (-61)
38B4  00                 [04] (-61)
38B5  C2                 [05] (-61)
38B6  02                 [06] (-61)
38B7  00                 [07] (-61)
38B8  00                 [08] (-61)
38B9  C3                 [09] (-60)
38BA  02                 [10] (-60)
38BB  00                 [11] (-60)
38BC  00                 [12] (-60)
38BD  C3                 [13] (-60)
38BE  02                 [14] (-58)
38BF  00                 [15] (-58)
38C0  00                 [16] (-58)
38C1  C3                 [17] (-58)
38C2  02                 [18] (-56)
                         * locals:
38F9  00                 sizelocvars (0)
                         * upvalues:
38FA  00                 sizeupvalues (0)
                         ** end of function **

                         
38FB                     ** function [6] definition (level 2)
                         ** start of function **
38FB  00                 string size (0)
                         source name: (none)
38FD  05                 line defined (714)
38FE  D6                 last line defined (726)
38FF  05                 nups (5)
3900  05                 numparams (1)
3901  01                 is_vararg (0)
3902  00                 maxstacksize (5)
                         * code:
3904  1F                 sizecode (31)
3905  64004000           [01] self       1   0   256  ; -1941805690
3909  62800001           [02] call       1   2   2  
390D  93000000           [03] getupval   2   0      
fail op	35
3911  23808000           [04] close      0  
3915  1A000180           [05] jmp        5            ; to [11]
3919  93008000           [06] getupval   2   1      
391D  D2000000           [07] move       3   0      
3921  13010001           [08] getupval   4   2      
3925  A2408001           [09] call       2   3   1  
3929  1AC00480           [10] jmp        20           ; to [31]
392D  93000001           [11] getupval   2   2      
fail op	35
3931  23808000           [12] close      0  
3935  1A000180           [13] jmp        5            ; to [19]
3939  93008000           [14] getupval   2   1      
393D  D2000000           [15] move       3   0      
3941  13018001           [16] getupval   4   3      
3945  A2408001           [17] call       2   3   1  
3949  1AC00280           [18] jmp        12           ; to [31]
394D  93008001           [19] getupval   2   3      
fail op	35
3951  23808000           [20] close      0  
3955  1A000180           [21] jmp        5            ; to [27]
3959  93008000           [22] getupval   2   1      
395D  D2000000           [23] move       3   0      
3961  13010002           [24] getupval   4   4      
3965  A2408001           [25] call       2   3   1  
3969  1AC00080           [26] jmp        4            ; to [31]
396D  93008000           [27] getupval   2   1      
3971  D2000000           [28] move       3   0      
3975  13010000           [29] getupval   4   0      
3979  A2408001           [30] call       2   3   1  
397D  1E008000           [31] return     0   1      
                         * constants:
3981  01                 sizek (1)
3982  01                 const type 3
3983  8665428C           const [0]: (-1941805690)
                         * functions:
3987  00                 sizep (0)
                         * lines:
3988  1F                 sizelineinfo (31)
                         [pc] (line)
3989  CC                 [01] (-52)
398A  02                 [02] (-52)
398B  00                 [03] (-51)
398C  00                 [04] (-51)
398D  CC                 [05] (-51)
398E  02                 [06] (-50)
398F  00                 [07] (-50)
3990  00                 [08] (-50)
3991  CD                 [09] (-50)
3992  02                 [10] (-50)
3993  00                 [11] (-49)
3994  00                 [12] (-49)
3995  CD                 [13] (-49)
3996  02                 [14] (-48)
3997  00                 [15] (-48)
3998  00                 [16] (-48)
3999  CD                 [17] (-48)
399A  02                 [18] (-48)
399B  00                 [19] (-47)
399C  00                 [20] (-47)
399D  CE                 [21] (-47)
399E  02                 [22] (-46)
399F  00                 [23] (-46)
39A0  00                 [24] (-46)
39A1  CE                 [25] (-46)
39A2  02                 [26] (-46)
39A3  00                 [27] (-44)
39A4  00                 [28] (-44)
39A5  CE                 [29] (-44)
39A6  02                 [30] (-44)
39A7  00                 [31] (-42)
                         * locals:
3A05  00                 sizelocvars (0)
                         * upvalues:
3A06  00                 sizeupvalues (0)
                         ** end of function **

                         
3A07                     ** function [7] definition (level 2)
                         ** start of function **
3A07  00                 string size (0)
                         source name: (none)
3A09  05                 line defined (728)
3A0A  E0                 last line defined (736)
3A0B  05                 nups (5)
3A0C  05                 numparams (1)
3A0D  01                 is_vararg (0)
3A0E  00                 maxstacksize (5)
                         * code:
3A10  12                 sizecode (18)
3A11  64004000           [01] self       1   0   256  ; -1941805690
3A15  62800001           [02] call       1   2   2  
3A19  93000000           [03] getupval   2   0      
fail op	35
3A1D  23808000           [04] close      0  
3A21  1A000180           [05] jmp        5            ; to [11]
3A25  93008000           [06] getupval   2   1      
3A29  D2000000           [07] move       3   0      
3A2D  13010001           [08] getupval   4   2      
3A31  A2408001           [09] call       2   3   1  
3A35  1A800180           [10] jmp        7            ; to [18]
3A39  93008001           [11] getupval   2   3      
fail op	35
3A3D  23808000           [12] close      0  
3A41  1AC00080           [13] jmp        4            ; to [18]
3A45  93008000           [14] getupval   2   1      
3A49  D2000000           [15] move       3   0      
3A4D  13010002           [16] getupval   4   4      
3A51  A2408001           [17] call       2   3   1  
3A55  1E008000           [18] return     0   1      
                         * constants:
3A59  01                 sizek (1)
3A5A  01                 const type 3
3A5B  8665428C           const [0]: (-1941805690)
                         * functions:
3A5F  00                 sizep (0)
                         * lines:
3A60  12                 sizelineinfo (18)
                         [pc] (line)
3A61  DA                 [01] (-38)
3A62  02                 [02] (-38)
3A63  00                 [03] (-37)
3A64  00                 [04] (-37)
3A65  DA                 [05] (-37)
3A66  02                 [06] (-36)
3A67  00                 [07] (-36)
3A68  00                 [08] (-36)
3A69  DB                 [09] (-36)
3A6A  02                 [10] (-36)
3A6B  00                 [11] (-35)
3A6C  00                 [12] (-35)
3A6D  DB                 [13] (-35)
3A6E  02                 [14] (-34)
3A6F  00                 [15] (-34)
3A70  00                 [16] (-34)
3A71  DB                 [17] (-34)
3A72  02                 [18] (-32)
                         * locals:
3AA9  00                 sizelocvars (0)
                         * upvalues:
3AAA  00                 sizeupvalues (0)
                         ** end of function **

                         
3AAB                     ** function [8] definition (level 2)
                         ** start of function **
3AAB  00                 string size (0)
                         source name: (none)
3AAD  05                 line defined (738)
3AAE  E6                 last line defined (742)
3AAF  05                 nups (2)
3AB0  02                 numparams (1)
3AB1  01                 is_vararg (0)
3AB2  00                 maxstacksize (4)
                         * code:
3AB4  0A                 sizecode (10)
3AB5  64004000           [01] self       1   0   256  ; -1941805690
3AB9  62800001           [02] call       1   2   2  
3ABD  93000000           [03] getupval   2   0      
fail op	35
3AC1  63808000           [04] close      1  
3AC5  1AC00080           [05] jmp        4            ; to [10]
3AC9  53008000           [06] getupval   1   1      
3ACD  92000000           [07] move       2   0      
3AD1  D3000000           [08] getupval   3   0      
3AD5  62408001           [09] call       1   3   1  
3AD9  1E008000           [10] return     0   1      
                         * constants:
3ADD  01                 sizek (1)
3ADE  01                 const type 3
3ADF  8665428C           const [0]: (-1941805690)
                         * functions:
3AE3  00                 sizep (0)
                         * lines:
3AE4  0A                 sizelineinfo (10)
                         [pc] (line)
3AE5  E3                 [01] (-29)
3AE6  02                 [02] (-29)
3AE7  00                 [03] (-29)
3AE8  00                 [04] (-29)
3AE9  E3                 [05] (-29)
3AEA  02                 [06] (-28)
3AEB  00                 [07] (-28)
3AEC  00                 [08] (-28)
3AED  E3                 [09] (-28)
3AEE  02                 [10] (-26)
                         * locals:
3B0D  00                 sizelocvars (0)
                         * upvalues:
3B0E  00                 sizeupvalues (0)
                         ** end of function **

                         
3B0F                     ** function [9] definition (level 2)
                         ** start of function **
3B0F  00                 string size (0)
                         source name: (none)
3B11  05                 line defined (744)
3B12  EC                 last line defined (748)
3B13  05                 nups (2)
3B14  02                 numparams (1)
3B15  01                 is_vararg (0)
3B16  00                 maxstacksize (4)
                         * code:
3B18  0A                 sizecode (10)
3B19  64004000           [01] self       1   0   256  ; -1941805690
3B1D  62800001           [02] call       1   2   2  
3B21  93000000           [03] getupval   2   0      
fail op	35
3B25  63808000           [04] close      1  
3B29  1AC00080           [05] jmp        4            ; to [10]
3B2D  53008000           [06] getupval   1   1      
3B31  92000000           [07] move       2   0      
3B35  D3000000           [08] getupval   3   0      
3B39  62408001           [09] call       1   3   1  
3B3D  1E008000           [10] return     0   1      
                         * constants:
3B41  01                 sizek (1)
3B42  01                 const type 3
3B43  8665428C           const [0]: (-1941805690)
                         * functions:
3B47  00                 sizep (0)
                         * lines:
3B48  0A                 sizelineinfo (10)
                         [pc] (line)
3B49  E9                 [01] (-23)
3B4A  02                 [02] (-23)
3B4B  00                 [03] (-23)
3B4C  00                 [04] (-23)
3B4D  E9                 [05] (-23)
3B4E  02                 [06] (-22)
3B4F  00                 [07] (-22)
3B50  00                 [08] (-22)
3B51  E9                 [09] (-22)
3B52  02                 [10] (-20)
                         * locals:
3B71  00                 sizelocvars (0)
                         * upvalues:
3B72  00                 sizeupvalues (0)
                         ** end of function **

                         
3B73                     ** function [10] definition (level 2)
                         ** start of function **
3B73  00                 string size (0)
                         source name: (none)
3B75  05                 line defined (750)
3B76  F0                 last line defined (752)
3B77  05                 nups (1)
3B78  01                 numparams (1)
3B79  01                 is_vararg (0)
3B7A  00                 maxstacksize (3)
                         * code:
3B7C  04                 sizecode (4)
3B7D  53000000           [1] getupval   1   0      
3B81  92000000           [2] move       2   0      
3B85  62400001           [3] call       1   2   1  
3B89  1E008000           [4] return     0   1      
                         * constants:
3B8D  00                 sizek (0)
                         * functions:
3B8E  00                 sizep (0)
                         * lines:
3B8F  04                 sizelineinfo (4)
                         [pc] (line)
3B90  EF                 [1] (-17)
3B91  02                 [2] (-17)
3B92  00                 [3] (-17)
3B93  00                 [4] (-16)
                         * locals:
3BA0  00                 sizelocvars (0)
                         * upvalues:
3BA1  00                 sizeupvalues (0)
                         ** end of function **

                         
3BA2                     ** function [11] definition (level 2)
                         ** start of function **
3BA2  00                 string size (0)
                         source name: (none)
3BA4  05                 line defined (754)
3BA5  F4                 last line defined (756)
3BA6  05                 nups (1)
3BA7  01                 numparams (1)
3BA8  01                 is_vararg (0)
3BA9  00                 maxstacksize (3)
                         * code:
3BAB  09                 sizecode (9)
3BAC  64004000           [1] self       1   0   256  ; -1941805690
3BB0  62800001           [2] call       1   2   2  
3BB4  93000000           [3] getupval   2   0      
fail op	35
3BB8  63808000           [4] close      1  
3BBC  1A000080           [5] jmp        1            ; to [7]
3BC0  57400000           [6] loadbool   1   0   1    ; false, to [8]
3BC4  57008000           [7] loadbool   1   1   0    ; true
3BC8  5E000001           [8] return     1   2      
3BCC  1E008000           [9] return     0   1      
                         * constants:
3BD0  01                 sizek (1)
3BD1  01                 const type 3
3BD2  8665428C           const [0]: (-1941805690)
                         * functions:
3BD6  00                 sizep (0)
                         * lines:
3BD7  09                 sizelineinfo (9)
                         [pc] (line)
3BD8  F3                 [1] (-13)
3BD9  02                 [2] (-13)
3BDA  00                 [3] (-13)
3BDB  00                 [4] (-13)
3BDC  F3                 [5] (-13)
3BDD  02                 [6] (-13)
3BDE  00                 [7] (-13)
3BDF  00                 [8] (-13)
3BE0  F3                 [9] (-12)
                         * locals:
3BFC  00                 sizelocvars (0)
                         * upvalues:
3BFD  00                 sizeupvalues (0)
                         ** end of function **

                         
3BFE                     ** function [12] definition (level 2)
                         ** start of function **
3BFE  00                 string size (0)
                         source name: (none)
3C00  05                 line defined (758)
3C01  F8                 last line defined (760)
3C02  05                 nups (1)
3C03  01                 numparams (1)
3C04  01                 is_vararg (0)
3C05  00                 maxstacksize (3)
                         * code:
3C07  09                 sizecode (9)
3C08  64004000           [1] self       1   0   256  ; -1941805690
3C0C  62800001           [2] call       1   2   2  
3C10  93000000           [3] getupval   2   0      
fail op	35
3C14  63808000           [4] close      1  
3C18  1A000080           [5] jmp        1            ; to [7]
3C1C  57400000           [6] loadbool   1   0   1    ; false, to [8]
3C20  57008000           [7] loadbool   1   1   0    ; true
3C24  5E000001           [8] return     1   2      
3C28  1E008000           [9] return     0   1      
                         * constants:
3C2C  01                 sizek (1)
3C2D  01                 const type 3
3C2E  8665428C           const [0]: (-1941805690)
                         * functions:
3C32  00                 sizep (0)
                         * lines:
3C33  09                 sizelineinfo (9)
                         [pc] (line)
3C34  F7                 [1] (-9)
3C35  02                 [2] (-9)
3C36  00                 [3] (-9)
3C37  00                 [4] (-9)
3C38  F7                 [5] (-9)
3C39  02                 [6] (-9)
3C3A  00                 [7] (-9)
3C3B  00                 [8] (-9)
3C3C  F7                 [9] (-8)
                         * locals:
3C58  00                 sizelocvars (0)
                         * upvalues:
3C59  00                 sizeupvalues (0)
                         ** end of function **

                         
3C5A                     ** function [13] definition (level 2)
                         ** start of function **
3C5A  00                 string size (0)
                         source name: (none)
3C5C  05                 line defined (762)
3C5D  FF                 last line defined (767)
3C5E  05                 nups (2)
3C5F  02                 numparams (1)
3C60  01                 is_vararg (0)
3C61  00                 maxstacksize (3)
                         * code:
3C63  09                 sizecode (9)
3C64  64004000           [1] self       1   0   256  ; 1324991002
3C68  62800001           [2] call       1   2   2  
fail op	21
3C6C  15408080           [3] concat     0   257 1  
3C70  1A400080           [4] jmp        2            ; to [7]
3C74  53000000           [5] getupval   1   0      
3C78  5E000001           [6] return     1   2      
3C7C  53008000           [7] getupval   1   1      
3C80  5E000001           [8] return     1   2      
3C84  1E008000           [9] return     0   1      
                         * constants:
3C88  02                 sizek (2)
3C89  01                 const type 3
3C8A  1AC2F94E           const [0]: (1324991002)
3C8E  03                 const type 3
3C8F  0000003F           const [1]: (0)
                         * functions:
3C93  00                 sizep (0)
                         * lines:
3C94  09                 sizelineinfo (9)
                         [pc] (line)
3C95  FB                 [1] (-5)
3C96  02                 [2] (-5)
3C97  00                 [3] (-5)
3C98  00                 [4] (-5)
3C99  FB                 [5] (-4)
3C9A  02                 [6] (-4)
3C9B  00                 [7] (-2)
3C9C  00                 [8] (-2)
3C9D  FB                 [9] (-1)
                         * locals:
3CB9  00                 sizelocvars (0)
                         * upvalues:
3CBA  00                 sizeupvalues (0)
                         ** end of function **

                         
3CBB                     ** function [14] definition (level 2)
                         ** start of function **
3CBB  00                 string size (0)
                         source name: (none)
3CBD  06                 line defined (769)
3CBE  83                 last line defined (771)
3CBF  06                 nups (2)
3CC0  02                 numparams (1)
3CC1  01                 is_vararg (0)
3CC2  00                 maxstacksize (3)
                         * code:
3CC4  0A                 sizecode (10)
3CC5  53000000           [01] getupval   1   0      
3CC9  92000000           [02] move       2   0      
3CCD  62800001           [03] call       1   2   2  
3CD1  93008000           [04] getupval   2   1      
fail op	35
3CD5  63808000           [05] close      1  
3CD9  1A000080           [06] jmp        1            ; to [8]
3CDD  57400000           [07] loadbool   1   0   1    ; false, to [9]
3CE1  57008000           [08] loadbool   1   1   0    ; true
3CE5  5E000001           [09] return     1   2      
3CE9  1E008000           [10] return     0   1      
                         * constants:
3CED  00                 sizek (0)
                         * functions:
3CEE  00                 sizep (0)
                         * lines:
3CEF  0A                 sizelineinfo (10)
                         [pc] (line)
3CF0  02                 [01] (2)
3CF1  03                 [02] (2)
3CF2  00                 [03] (2)
3CF3  00                 [04] (2)
3CF4  02                 [05] (2)
3CF5  03                 [06] (2)
3CF6  00                 [07] (2)
3CF7  00                 [08] (2)
3CF8  02                 [09] (2)
3CF9  03                 [10] (3)
                         * locals:
3D18  00                 sizelocvars (0)
                         * upvalues:
3D19  00                 sizeupvalues (0)
                         ** end of function **

                         
3D1A                     ** function [15] definition (level 2)
                         ** start of function **
3D1A  00                 string size (0)
                         source name: (none)
3D1C  06                 line defined (773)
3D1D  AF                 last line defined (815)
3D1E  06                 nups (6)
3D1F  06                 numparams (1)
3D20  01                 is_vararg (0)
3D21  00                 maxstacksize (7)
                         * code:
3D23  5D                 sizecode (93)
3D24  5D000000           [01] getglobal  1   0        ; 1074689893
3D28  A4404000           [02] self       2   0   257  ; -1538682285
3D2C  A2000001           [03] call       2   2   0  
3D30  62800000           [04] call       1   0   2  
3D34  58000000           [05] test       1       0    ; to [7] if true
3D38  1AC00080           [06] jmp        4            ; to [11]
3D3C  5D800000           [07] getglobal  1   2        ; 538022378
3D40  99C00000           [08] loadk      2   3        ; 0
3D44  62400001           [09] call       1   2   1  
3D48  1A40FD7F           [10] jmp        -10          ; to [1]
3D4C  5D000000           [11] getglobal  1   0        ; 1074689893
3D50  A4404000           [12] self       2   0   257  ; -1538682285
3D54  A2000001           [13] call       2   2   0  
3D58  62800000           [14] call       1   0   2  
3D5C  58400000           [15] test       1       1    ; to [17] if false
3D60  1A000280           [16] jmp        9            ; to [26]
3D64  64404000           [17] self       1   0   257  ; -1538682285
3D68  62800001           [18] call       1   2   2  
3D6C  6400C100           [19] self       1   1   260  ; -1201586349
3D70  62800001           [20] call       1   2   2  
3D74  58000000           [21] test       1       0    ; to [23] if true
3D78  1A800080           [22] jmp        3            ; to [26]
3D7C  5D800000           [23] getglobal  1   2        ; 538022378
3D80  99C00000           [24] loadk      2   3        ; 0
3D84  62400001           [25] call       1   2   1  
3D88  5D400100           [26] getglobal  1   5        ; gRegion
3D8C  6480C100           [27] self       1   1   262  ; -1520831144
3D90  62800001           [28] call       1   2   2  
3D94  58000000           [29] test       1       0    ; to [31] if true
3D98  1A800E80           [30] jmp        59           ; to [90]
3D9C  53000000           [31] getupval   1   0      
3DA0  A4C04100           [32] self       2   0   263  ; -1348043987
3DA4  A2800001           [33] call       2   2   2  
3DA8  E4004201           [34] self       3   2   264  ; -479391803
3DAC  5D410200           [35] getglobal  5   9        ; Lotus_Game
3DB0  4E81C202           [36] gettable   5   5   266  ; "PrimaryColors"
3DB4  E2808001           [37] call       3   3   2  
3DB8  24C1C201           [38] self       4   3   267  ; 979293742
3DBC  9D410200           [39] getglobal  6   9        ; Lotus_Game
3DC0  8E014303           [40] gettable   6   6   268  ; "EmissiveColor0"
3DC4  22818001           [41] call       4   3   2  
3DC8  18010000           [42] test       4       0    ; to [44] if true
3DCC  1A000180           [43] jmp        5            ; to [49]
3DD0  13018000           [44] getupval   4   1      
3DD4  64414300           [45] self       5   0   269  ; -1801414227
3DD8  62010001           [46] call       5   2   0  
3DDC  22810000           [47] call       4   0   2  
3DE0  52000002           [48] move       1   4      
3DE4  1D810300           [49] getglobal  4   14       ; gGameRules
3DE8  24C14302           [50] self       4   4   271  ; 2081656303
3DEC  22810001           [51] call       4   2   2  
3DF0  18410000           [52] test       4       1    ; to [54] if false
3DF4  1AC00280           [53] jmp        12           ; to [66]
3DF8  1D810300           [54] getglobal  4   14       ; gGameRules
3DFC  24014402           [55] self       4   4   272  ; -1957065004
3E00  9D410400           [56] getglobal  6   17       ; gLotusAttractModeGameRulesType
3E04  22818001           [57] call       4   3   2  
3E08  18410000           [58] test       4       1    ; to [60] if false
3E0C  1A400180           [59] jmp        6            ; to [66]
3E10  1D810300           [60] getglobal  4   14       ; gGameRules
3E14  24014402           [61] self       4   4   272  ; -1957065004
3E18  9D810400           [62] getglobal  6   18       ; gLotusHubGameRulesType
3E1C  22818001           [63] call       4   3   2  
3E20  18010000           [64] test       4       0    ; to [66] if true
3E24  1A800480           [65] jmp        19           ; to [85]
3E28  24C14400           [66] self       4   0   275  ; -1941805690
3E2C  22810001           [67] call       4   2   2  
3E30  53010001           [68] getupval   5   2      
fail op	33
3E34  21400102           [69] tforloop   0       5    ; to [71] if exit
3E38  1A000080           [70] jmp        1            ; to [72]
3E3C  1E008000           [71] return     0   1      
3E40  13010000           [72] getupval   4   0      
fail op	35
3E44  23008100           [73] close      0  
3E48  1A000180           [74] jmp        5            ; to [80]
3E4C  13018001           [75] getupval   4   3      
3E50  52010000           [76] move       5   0      
3E54  93010002           [77] getupval   6   4      
3E58  22418001           [78] call       4   3   1  
3E5C  1AC00080           [79] jmp        4            ; to [84]
3E60  13018001           [80] getupval   4   3      
3E64  52010000           [81] move       5   0      
3E68  93010001           [82] getupval   6   2      
3E6C  22418001           [83] call       4   3   1  
3E70  1E008000           [84] return     0   1      
3E74  13018001           [85] getupval   4   3      
3E78  52010000           [86] move       5   0      
3E7C  92018000           [87] move       6   1      
3E80  22418001           [88] call       4   3   1  
3E84  1E008000           [89] return     0   1      
3E88  13018002           [90] getupval   4   5      
3E8C  52010000           [91] move       5   0      
3E90  22410001           [92] call       4   2   1  
3E94  1E008000           [93] return     0   1      
                         * constants:
3E98  14                 sizek (20)
3E99  01                 const type 3
3E9A  65770E40           const [0]: (1074689893)
3E9E  01                 const type 3
3E9F  539249A4           const [1]: (-1538682285)
3EA3  01                 const type 3
3EA4  EA911120           const [2]: (538022378)
3EA8  03                 const type 3
3EA9  00000000           const [3]: (0)
3EAD  01                 const type 3
3EAE  533F61B8           const [4]: (-1201586349)
3EB2  04                 const type 4
3EB3  08                 string size (8)
3EB4  67526567696F6E00   "gRegion\0"
                         const [5]: "gRegion"
3EBC  01                 const type 3
3EBD  58F559A5           const [6]: (-1520831144)
3EC1  01                 const type 3
3EC2  2D7BA6AF           const [7]: (-1348043987)
3EC6  01                 const type 3
3EC7  C50F6DE3           const [8]: (-479391803)
3ECB  04                 const type 4
3ECC  0B                 string size (11)
3ECD  4C6F7475735F4761+  "Lotus_Ga"
3ED5  6D6500             "me\0"
                         const [9]: "Lotus_Game"
3ED8  04                 const type 4
3ED9  0E                 string size (14)
3EDA  5072696D61727943+  "PrimaryC"
3EE2  6F6C6F727300       "olors\0"
                         const [10]: "PrimaryColors"
3EE8  01                 const type 3
3EE9  2ED65E3A           const [11]: (979293742)
3EED  04                 const type 4
3EEE  0F                 string size (15)
3EEF  456D697373697665+  "Emissive"
3EF7  436F6C6F723000     "Color0\0"
                         const [12]: "EmissiveColor0"
3EFE  01                 const type 3
3EFF  AD99A094           const [13]: (-1801414227)
3F03  04                 const type 4
3F04  0B                 string size (11)
3F05  6747616D6552756C+  "gGameRul"
3F0D  657300             "es\0"
                         const [14]: "gGameRules"
3F10  01                 const type 3
3F11  EF8D137C           const [15]: (2081656303)
3F15  01                 const type 3
3F16  D48E598B           const [16]: (-1957065004)
3F1A  04                 const type 4
3F1B  1F                 string size (31)
3F1C  674C6F7475734174+  "gLotusAt"
3F24  74726163744D6F64+  "tractMod"
3F2C  6547616D6552756C+  "eGameRul"
3F34  65735479706500     "esType\0"
                         const [17]: "gLotusAttractModeGameRulesType"
3F3B  04                 const type 4
3F3C  17                 string size (23)
3F3D  674C6F7475734875+  "gLotusHu"
3F45  6247616D6552756C+  "bGameRul"
3F4D  65735479706500     "esType\0"
                         const [18]: "gLotusHubGameRulesType"
3F54  01                 const type 3
3F55  8665428C           const [19]: (-1941805690)
                         * functions:
3F59  00                 sizep (0)
                         * lines:
3F5A  5D                 sizelineinfo (93)
                         [pc] (line)
3F5B  08                 [01] (8)
3F5C  03                 [02] (8)
3F5D  00                 [03] (8)
3F5E  00                 [04] (8)
3F5F  08                 [05] (8)
3F60  03                 [06] (8)
3F61  00                 [07] (9)
3F62  00                 [08] (9)
3F63  08                 [09] (9)
3F64  03                 [10] (9)
3F65  00                 [11] (12)
3F66  00                 [12] (12)
3F67  08                 [13] (12)
3F68  03                 [14] (12)
3F69  00                 [15] (12)
3F6A  00                 [16] (12)
3F6B  08                 [17] (12)
3F6C  03                 [18] (12)
3F6D  00                 [19] (12)
3F6E  00                 [20] (12)
3F6F  08                 [21] (12)
3F70  03                 [22] (12)
3F71  00                 [23] (14)
3F72  00                 [24] (14)
3F73  09                 [25] (14)
3F74  03                 [26] (17)
3F75  00                 [27] (17)
3F76  00                 [28] (17)
3F77  09                 [29] (17)
3F78  03                 [30] (17)
3F79  00                 [31] (18)
3F7A  00                 [32] (19)
3F7B  09                 [33] (19)
3F7C  03                 [34] (20)
3F7D  00                 [35] (20)
3F7E  00                 [36] (20)
3F7F  09                 [37] (20)
3F80  03                 [38] (21)
3F81  00                 [39] (21)
3F82  00                 [40] (21)
3F83  0C                 [41] (21)
3F84  03                 [42] (21)
3F85  00                 [43] (21)
3F86  00                 [44] (22)
3F87  0C                 [45] (22)
3F88  03                 [46] (22)
3F89  00                 [47] (22)
3F8A  00                 [48] (22)
3F8B  0C                 [49] (25)
3F8C  03                 [50] (25)
3F8D  00                 [51] (25)
3F8E  00                 [52] (25)
3F8F  0C                 [53] (25)
3F90  03                 [54] (25)
3F91  00                 [55] (25)
3F92  00                 [56] (25)
3F93  0C                 [57] (25)
3F94  03                 [58] (25)
3F95  00                 [59] (25)
3F96  00                 [60] (25)
3F97  0C                 [61] (25)
3F98  03                 [62] (25)
3F99  00                 [63] (25)
3F9A  00                 [64] (25)
3F9B  0C                 [65] (25)
3F9C  03                 [66] (28)
3F9D  00                 [67] (28)
3F9E  00                 [68] (28)
3F9F  0C                 [69] (28)
3FA0  03                 [70] (28)
3FA1  00                 [71] (30)
3FA2  00                 [72] (33)
3FA3  0C                 [73] (33)
3FA4  03                 [74] (33)
3FA5  00                 [75] (34)
3FA6  00                 [76] (34)
3FA7  0C                 [77] (34)
3FA8  03                 [78] (34)
3FA9  00                 [79] (34)
3FAA  00                 [80] (36)
3FAB  0C                 [81] (36)
3FAC  03                 [82] (36)
3FAD  00                 [83] (36)
3FAE  00                 [84] (39)
3FAF  0C                 [85] (42)
3FB0  03                 [86] (42)
3FB1  00                 [87] (42)
3FB2  00                 [88] (42)
3FB3  0E                 [89] (43)
3FB4  03                 [90] (46)
3FB5  00                 [91] (46)
3FB6  00                 [92] (46)
3FB7  0E                 [93] (47)
                         * locals:
40CF  00                 sizelocvars (0)
                         * upvalues:
40D0  00                 sizeupvalues (0)
                         ** end of function **

                         
40D1                     ** function [16] definition (level 2)
                         ** start of function **
40D1  00                 string size (0)
                         source name: (none)
40D3  06                 line defined (817)
40D4  BE                 last line defined (830)
40D5  06                 nups (1)
40D6  01                 numparams (1)
40D7  01                 is_vararg (0)
40D8  00                 maxstacksize (12)
                         * code:
40DA  1D                 sizecode (29)
40DB  64004000           [01] self       1   0   256  ; -1538682285
40DF  62800001           [02] call       1   2   2  
40E3  9D400000           [03] getglobal  2   1        ; 1074689893
40E7  D2008000           [04] move       3   1      
40EB  A2800001           [05] call       2   2   2  
40EF  98400000           [06] test       2       1    ; to [8] if false
40F3  1A000580           [07] jmp        21           ; to [29]
40F7  9D800000           [08] getglobal  2   2        ; 1672515847
40FB  D3000000           [09] getupval   3   0      
40FF  A2000101           [10] call       2   2   4  
4103  1A000380           [11] jmp        13           ; to [25]
4107  E4C1C000           [12] self       7   1   259  ; -1625438872
410B  52020003           [13] move       9   6      
410F  E2818001           [14] call       7   3   2  
4113  1D420000           [15] getglobal  8   1        ; 1074689893
4117  52028003           [16] move       9   7      
411B  22820001           [17] call       8   2   2  
411F  18420000           [18] test       8       1    ; to [20] if false
4123  1A000180           [19] jmp        5            ; to [25]
4127  2402C103           [20] self       8   7   260  ; -578871469
412B  22820001           [21] call       8   2   2  
412F  64424104           [22] self       9   8   261  ; -1693828985
4133  D2028003           [23] move       11  7      
4137  62428001           [24] call       9   3   1  
413B  96800000           [25] tforloop   2       2    ; to [27] if exit
413F  1A00FC7F           [26] jmp        -15          ; to [12]
4143  6482C100           [27] self       9   1   262  ; 1756888998
4147  62420001           [28] call       9   2   1  
414B  1E008000           [29] return     0   1      
                         * constants:
414F  07                 sizek (7)
4150  01                 const type 3
4151  539249A4           const [0]: (-1538682285)
4155  01                 const type 3
4156  65770E40           const [1]: (1074689893)
415A  01                 const type 3
415B  0791B063           const [2]: (1672515847)
415F  01                 const type 3
4160  68C51D9F           const [3]: (-1625438872)
4164  01                 const type 3
4165  531F7FDD           const [4]: (-578871469)
4169  01                 const type 3
416A  87380A9B           const [5]: (-1693828985)
416E  01                 const type 3
416F  A6FFB768           const [6]: (1756888998)
                         * functions:
4173  00                 sizep (0)
                         * lines:
4174  1D                 sizelineinfo (29)
                         [pc] (line)
4175  32                 [01] (50)
4176  03                 [02] (50)
4177  00                 [03] (51)
4178  00                 [04] (51)
4179  32                 [05] (51)
417A  03                 [06] (51)
417B  00                 [07] (51)
417C  00                 [08] (52)
417D  33                 [09] (52)
417E  03                 [10] (52)
417F  00                 [11] (52)
4180  00                 [12] (53)
4181  33                 [13] (53)
4182  03                 [14] (53)
4183  00                 [15] (54)
4184  00                 [16] (54)
4185  33                 [17] (54)
4186  03                 [18] (54)
4187  00                 [19] (54)
4188  00                 [20] (55)
4189  33                 [21] (55)
418A  03                 [22] (56)
418B  00                 [23] (56)
418C  00                 [24] (56)
418D  33                 [25] (52)
418E  03                 [26] (57)
418F  00                 [27] (60)
4190  00                 [28] (60)
4191  34                 [29] (62)
                         * locals:
41E9  00                 sizelocvars (0)
                         * upvalues:
41EA  00                 sizeupvalues (0)
                         ** end of function **

                         
41EB                     ** function [17] definition (level 2)
                         ** start of function **
41EB  00                 string size (0)
                         source name: (none)
41ED  06                 line defined (832)
41EE  DA                 last line defined (858)
41EF  06                 nups (6)
41F0  06                 numparams (1)
41F1  01                 is_vararg (0)
41F2  00                 maxstacksize (14)
                         * code:
41F4  4D                 sizecode (77)
41F5  64004000           [01] self       1   0   256  ; -704974830
41F9  62800001           [02] call       1   2   2  
41FD  9D400000           [03] getglobal  2   1        ; 1074689893
4201  D2008000           [04] move       3   1      
4205  A2800001           [05] call       2   2   2  
4209  98400000           [06] test       2       1    ; to [8] if false
420D  1A001180           [07] jmp        69           ; to [77]
4211  A480C000           [08] self       2   1   258  ; -1957065004
4215  1DC10000           [09] getglobal  4   3        ; gBaseAvatarType
4219  A2808001           [10] call       2   3   2  
421D  98000000           [11] test       2       0    ; to [13] if true
4221  1AC00F80           [12] jmp        64           ; to [77]
4225  A400C100           [13] self       2   1   260  ; -1201586349
4229  A2800001           [14] call       2   2   2  
422D  98000000           [15] test       2       0    ; to [17] if true
4231  1A800080           [16] jmp        3            ; to [20]
4235  9D400100           [17] getglobal  2   5        ; 538022378
4239  D9800100           [18] loadk      3   6        ; 0
423D  A2400001           [19] call       2   2   1  
4241  A4C0C100           [20] self       2   1   263  ; -1917464545
4245  A2800001           [21] call       2   2   2  
4249  A4004201           [22] self       2   2   264  ; 1769516121
424D  A2800001           [23] call       2   2   2  
4251  DD400000           [24] getglobal  3   1        ; 1074689893
4255  12010001           [25] move       4   2      
4259  E2800001           [26] call       3   2   2  
425D  D8400000           [27] test       3       1    ; to [29] if false
4261  1AC00B80           [28] jmp        48           ; to [77]
4265  E4404201           [29] self       3   2   265  ; -1941805690
4269  E2800001           [30] call       3   2   2  
426D  1D810200           [31] getglobal  4   10       ; 1672515847
4271  53010000           [32] getupval   5   0      
4275  22010101           [33] call       4   2   4  
4279  1AC00980           [34] jmp        40           ; to [75]
427D  64C24200           [35] self       9   0   267  ; -491574171
4281  62820001           [36] call       9   2   2  
fail op	35
4285  23008204           [37] close      0  
4289  1AC00880           [38] jmp        36           ; to [75]
428D  53028000           [39] getupval   9   1      
fail op	35
4291  23408201           [40] close      0  
4295  1A400280           [41] jmp        10           ; to [52]
4299  64024300           [42] self       9   0   268  ; 919598577
429D  DD420300           [43] getglobal  11  13       ; 2083004503
42A1  13030001           [44] getupval   12  2      
42A5  0E834306           [45] gettable   12  12  270  ; "helmMeshes"
42A9  0EC30106           [46] gettable   12  12  7  
42AD  E2820001           [47] call       11  2   2  
42B1  17030000           [48] loadbool   12  0   0    ; false
42B5  57030000           [49] loadbool   13  0   0    ; false
42B9  62428002           [50] call       9   5   1  
42BD  1A000680           [51] jmp        25           ; to [77]
42C1  53028001           [52] getupval   9   3      
fail op	35
42C5  23408201           [53] close      0  
42C9  1A400280           [54] jmp        10           ; to [65]
42CD  64024300           [55] self       9   0   268  ; 919598577
42D1  DD420300           [56] getglobal  11  13       ; 2083004503
42D5  13030002           [57] getupval   12  4      
42D9  0E834306           [58] gettable   12  12  270  ; "helmMeshes"
42DD  0EC30106           [59] gettable   12  12  7  
42E1  E2820001           [60] call       11  2   2  
42E5  17030000           [61] loadbool   12  0   0    ; false
42E9  57030000           [62] loadbool   13  0   0    ; false
42ED  62428002           [63] call       9   5   1  
42F1  1AC00280           [64] jmp        12           ; to [77]
42F5  64024300           [65] self       9   0   268  ; 919598577
42F9  DD420300           [66] getglobal  11  13       ; 2083004503
42FD  13038002           [67] getupval   12  5      
4301  0E834306           [68] gettable   12  12  270  ; "helmMeshes"
4305  0EC30106           [69] gettable   12  12  7  
4309  E2820001           [70] call       11  2   2  
430D  17030000           [71] loadbool   12  0   0    ; false
4311  57030000           [72] loadbool   13  0   0    ; false
4315  62428002           [73] call       9   5   1  
4319  1A400080           [74] jmp        2            ; to [77]
431D  16810000           [75] tforloop   4       2    ; to [77] if exit
4321  1A40F57F           [76] jmp        -42          ; to [35]
4325  1E008000           [77] return     0   1      
                         * constants:
4329  0F                 sizek (15)
432A  01                 const type 3
432B  12F0FAD5           const [0]: (-704974830)
432F  01                 const type 3
4330  65770E40           const [1]: (1074689893)
4334  01                 const type 3
4335  D48E598B           const [2]: (-1957065004)
4339  04                 const type 4
433A  10                 string size (16)
433B  6742617365417661+  "gBaseAva"
4343  7461725479706500   "tarType\0"
                         const [3]: "gBaseAvatarType"
434B  01                 const type 3
434C  533F61B8           const [4]: (-1201586349)
4350  01                 const type 3
4351  EA911120           const [5]: (538022378)
4355  03                 const type 3
4356  00000000           const [6]: (0)
435A  01                 const type 3
435B  1FD0B58D           const [7]: (-1917464545)
435F  01                 const type 3
4360  59AC7869           const [8]: (1769516121)
4364  01                 const type 3
4365  8665428C           const [9]: (-1941805690)
4369  01                 const type 3
436A  0791B063           const [10]: (1672515847)
436E  01                 const type 3
436F  652CB3E2           const [11]: (-491574171)
4373  01                 const type 3
4374  F1F5CF36           const [12]: (919598577)
4378  01                 const type 3
4379  5720287C           const [13]: (2083004503)
437D  04                 const type 4
437E  0B                 string size (11)
437F  68656C6D4D657368+  "helmMesh"
4387  657300             "es\0"
                         const [14]: "helmMeshes"
                         * functions:
438A  00                 sizep (0)
                         * lines:
438B  4D                 sizelineinfo (77)
                         [pc] (line)
438C  41                 [01] (65)
438D  03                 [02] (65)
438E  00                 [03] (66)
438F  00                 [04] (66)
4390  41                 [05] (66)
4391  03                 [06] (66)
4392  00                 [07] (66)
4393  00                 [08] (66)
4394  42                 [09] (66)
4395  03                 [10] (66)
4396  00                 [11] (66)
4397  00                 [12] (66)
4398  42                 [13] (67)
4399  03                 [14] (67)
439A  00                 [15] (67)
439B  00                 [16] (67)
439C  42                 [17] (69)
439D  03                 [18] (69)
439E  00                 [19] (69)
439F  00                 [20] (72)
43A0  42                 [21] (72)
43A1  03                 [22] (72)
43A2  00                 [23] (72)
43A3  00                 [24] (73)
43A4  42                 [25] (73)
43A5  03                 [26] (73)
43A6  00                 [27] (73)
43A7  00                 [28] (73)
43A8  42                 [29] (74)
43A9  03                 [30] (74)
43AA  00                 [31] (75)
43AB  00                 [32] (75)
43AC  42                 [33] (75)
43AD  03                 [34] (75)
43AE  00                 [35] (76)
43AF  00                 [36] (76)
43B0  42                 [37] (76)
43B1  03                 [38] (76)
43B2  00                 [39] (77)
43B3  00                 [40] (77)
43B4  42                 [41] (77)
43B5  03                 [42] (78)
43B6  00                 [43] (78)
43B7  00                 [44] (78)
43B8  42                 [45] (78)
43B9  03                 [46] (78)
43BA  00                 [47] (78)
43BB  00                 [48] (78)
43BC  43                 [49] (78)
43BD  03                 [50] (78)
43BE  00                 [51] (78)
43BF  00                 [52] (79)
43C0  43                 [53] (79)
43C1  03                 [54] (79)
43C2  00                 [55] (80)
43C3  00                 [56] (80)
43C4  43                 [57] (80)
43C5  03                 [58] (80)
43C6  00                 [59] (80)
43C7  00                 [60] (80)
43C8  43                 [61] (80)
43C9  03                 [62] (80)
43CA  00                 [63] (80)
43CB  00                 [64] (80)
43CC  45                 [65] (82)
43CD  03                 [66] (82)
43CE  00                 [67] (82)
43CF  00                 [68] (82)
43D0  45                 [69] (82)
43D1  03                 [70] (82)
43D2  00                 [71] (82)
43D3  00                 [72] (82)
43D4  45                 [73] (82)
43D5  03                 [74] (85)
43D6  00                 [75] (75)
43D7  00                 [76] (86)
43D8  48                 [77] (90)
                         * locals:
44C0  00                 sizelocvars (0)
                         * upvalues:
44C1  00                 sizeupvalues (0)
                         ** end of function **

                         
44C2                     ** function [18] definition (level 2)
                         ** start of function **
44C2  00                 string size (0)
                         source name: (none)
44C4  06                 line defined (860)
44C5  E5                 last line defined (869)
44C6  06                 nups (6)
44C7  06                 numparams (2)
44C8  02                 is_vararg (0)
44C9  00                 maxstacksize (7)
                         * code:
44CB  1A                 sizecode (26)
44CC  A4004000           [01] self       2   0   256  ; -1941805690
44D0  A2800001           [02] call       2   2   2  
44D4  D3000000           [03] getupval   3   0      
fail op	35
44D8  23C00001           [04] close      0  
44DC  1A400180           [05] jmp        6            ; to [12]
44E0  D3008000           [06] getupval   3   1      
44E4  12010000           [07] move       4   0      
44E8  53010001           [08] getupval   5   2      
44EC  92018000           [09] move       6   1      
44F0  E2400002           [10] call       3   4   1  
44F4  1A400380           [11] jmp        14           ; to [26]
44F8  D3008001           [12] getupval   3   3      
fail op	35
44FC  23C00001           [13] close      0  
4500  1A400180           [14] jmp        6            ; to [21]
4504  D3008000           [15] getupval   3   1      
4508  12010000           [16] move       4   0      
450C  53010002           [17] getupval   5   4      
4510  92018000           [18] move       6   1      
4514  E2400002           [19] call       3   4   1  
4518  1A000180           [20] jmp        5            ; to [26]
451C  D3008000           [21] getupval   3   1      
4520  12010000           [22] move       4   0      
4524  53018002           [23] getupval   5   5      
4528  92018000           [24] move       6   1      
452C  E2400002           [25] call       3   4   1  
4530  1E008000           [26] return     0   1      
                         * constants:
4534  01                 sizek (1)
4535  01                 const type 3
4536  8665428C           const [0]: (-1941805690)
                         * functions:
453A  00                 sizep (0)
                         * lines:
453B  1A                 sizelineinfo (26)
                         [pc] (line)
453C  5D                 [01] (93)
453D  03                 [02] (93)
453E  00                 [03] (94)
453F  00                 [04] (94)
4540  5D                 [05] (94)
4541  03                 [06] (95)
4542  00                 [07] (95)
4543  00                 [08] (95)
4544  5E                 [09] (95)
4545  03                 [10] (95)
4546  00                 [11] (95)
4547  00                 [12] (96)
4548  5E                 [13] (96)
4549  03                 [14] (96)
454A  00                 [15] (97)
454B  00                 [16] (97)
454C  5E                 [17] (97)
454D  03                 [18] (97)
454E  00                 [19] (97)
454F  00                 [20] (97)
4550  5F                 [21] (99)
4551  03                 [22] (99)
4552  00                 [23] (99)
4553  00                 [24] (99)
4554  5F                 [25] (99)
4555  03                 [26] (101)
                         * locals:
45A4  00                 sizelocvars (0)
                         * upvalues:
45A5  00                 sizeupvalues (0)
                         ** end of function **

                         
45A6                     ** function [19] definition (level 2)
                         ** start of function **
45A6  00                 string size (0)
                         source name: (none)
45A8  06                 line defined (871)
45A9  A8                 last line defined (936)
45AA  07                 nups (9)
45AB  09                 numparams (2)
45AC  02                 is_vararg (0)
45AD  00                 maxstacksize (12)
                         * code:
45AF  41                 sizecode (65)
45B0  A5000000           [01] closure    2   0      
45B4  13000000           [02] getupval   0   0      
45B8  13008000           [03] getupval   0   1      
45BC  13000001           [04] getupval   0   2      
45C0  13008001           [05] getupval   0   3      
45C4  13000002           [06] getupval   0   4      
45C8  D3008002           [07] getupval   3   5      
fail op	35
45CC  23C08000           [08] close      0  
45D0  1A400480           [09] jmp        18           ; to [28]
45D4  D2000001           [10] move       3   2      
45D8  12010000           [11] move       4   0      
45DC  53010003           [12] getupval   5   6      
45E0  4E01C002           [13] gettable   5   5   256  ; "mesh"
45E4  93010003           [14] getupval   6   6      
45E8  8E414003           [15] gettable   6   6   257  ; "materialOverrides"
45EC  D3010003           [16] getupval   7   6      
45F0  CE81C003           [17] gettable   7   7   258  ; "customizationInfo"
45F4  13020003           [18] getupval   8   6      
45F8  0EC24004           [19] gettable   8   8   259  ; "helmMeshes"
45FC  53020003           [20] getupval   9   6      
4600  4E02C104           [21] gettable   9   9   260  ; "attachments"
4604  93020003           [22] getupval   10  6      
4608  8E424105           [23] gettable   10  10  261  ; "helmAttachments"
460C  D3020003           [24] getupval   11  6      
4610  CE82C105           [25] gettable   11  11  262  ; "attachmentMaterialOverrides"
4614  E2408004           [26] call       3   9   1  
4618  1A000980           [27] jmp        37           ; to [65]
461C  D3008003           [28] getupval   3   7      
fail op	35
4620  23C08000           [29] close      0  
4624  1A400480           [30] jmp        18           ; to [49]
4628  D2000001           [31] move       3   2      
462C  12010000           [32] move       4   0      
4630  53010004           [33] getupval   5   8      
4634  4E01C002           [34] gettable   5   5   256  ; "mesh"
4638  93010004           [35] getupval   6   8      
463C  8E414003           [36] gettable   6   6   257  ; "materialOverrides"
4640  D3010004           [37] getupval   7   8      
4644  CE81C003           [38] gettable   7   7   258  ; "customizationInfo"
4648  13020004           [39] getupval   8   8      
464C  0EC24004           [40] gettable   8   8   259  ; "helmMeshes"
4650  53020004           [41] getupval   9   8      
4654  4E02C104           [42] gettable   9   9   260  ; "attachments"
4658  93020004           [43] getupval   10  8      
465C  8E424105           [44] gettable   10  10  261  ; "helmAttachments"
4660  D3020004           [45] getupval   11  8      
4664  CE82C105           [46] gettable   11  11  262  ; "attachmentMaterialOverrides"
4668  E2408004           [47] call       3   9   1  
466C  1AC00380           [48] jmp        16           ; to [65]
4670  D2000001           [49] move       3   2      
4674  12010000           [50] move       4   0      
4678  53010000           [51] getupval   5   0      
467C  4E01C002           [52] gettable   5   5   256  ; "mesh"
4680  93010000           [53] getupval   6   0      
4684  8E414003           [54] gettable   6   6   257  ; "materialOverrides"
4688  C6018003           [55] loadnil    7   7      
468C  13020000           [56] getupval   8   0      
4690  0EC24004           [57] gettable   8   8   259  ; "helmMeshes"
4694  53020000           [58] getupval   9   0      
4698  4E02C104           [59] gettable   9   9   260  ; "attachments"
469C  93020000           [60] getupval   10  0      
46A0  8E424105           [61] gettable   10  10  261  ; "helmAttachments"
46A4  D3020000           [62] getupval   11  0      
46A8  CE82C105           [63] gettable   11  11  262  ; "attachmentMaterialOverrides"
46AC  E2408004           [64] call       3   9   1  
46B0  1E008000           [65] return     0   1      
                         * constants:
46B4  07                 sizek (7)
46B5  04                 const type 4
46B6  05                 string size (5)
46B7  6D65736800         "mesh\0"
                         const [0]: "mesh"
46BC  04                 const type 4
46BD  12                 string size (18)
46BE  6D6174657269616C+  "material"
46C6  4F76657272696465+  "Override"
46CE  7300               "s\0"
                         const [1]: "materialOverrides"
46D0  04                 const type 4
46D1  12                 string size (18)
46D2  637573746F6D697A+  "customiz"
46DA  6174696F6E496E66+  "ationInf"
46E2  6F00               "o\0"
                         const [2]: "customizationInfo"
46E4  04                 const type 4
46E5  0B                 string size (11)
46E6  68656C6D4D657368+  "helmMesh"
46EE  657300             "es\0"
                         const [3]: "helmMeshes"
46F1  04                 const type 4
46F2  0C                 string size (12)
46F3  6174746163686D65+  "attachme"
46FB  6E747300           "nts\0"
                         const [4]: "attachments"
46FF  04                 const type 4
4700  10                 string size (16)
4701  68656C6D41747461+  "helmAtta"
4709  63686D656E747300   "chments\0"
                         const [5]: "helmAttachments"
4711  04                 const type 4
4712  1C                 string size (28)
4713  6174746163686D65+  "attachme"
471B  6E744D6174657269+  "ntMateri"
4723  616C4F7665727269+  "alOverri"
472B  64657300           "des\0"
                         const [6]: "attachmentMaterialOverrides"
                         * functions:
472F  01                 sizep (1)
                         
4730                     ** function [0] definition (level 3)
                         ** start of function **
4730  00                 string size (0)
                         source name: (none)
4732  06                 line defined (874)
4733  9F                 last line defined (927)
4734  07                 nups (5)
4735  05                 numparams (8)
4736  08                 is_vararg (0)
4737  00                 maxstacksize (38)
                         * code:
473A  01                 sizecode (160)
473B  24024000           [001] self       8   0   256  ; -578871469
473F  22820001           [002] call       8   2   2  
4743  24424004           [003] self       8   8   257  ; -1875307917
4747  9D820000           [004] getglobal  10  2        ; -332969190
474B  D9C20000           [005] loadk      11  3        ; "Player"
474F  A2020001           [006] call       10  2   0  
4753  22820000           [007] call       8   0   2  
4757  5D020100           [008] getglobal  9   4        ; 1074689893
475B  92020004           [009] move       10  8      
475F  62820001           [010] call       9   2   2  
4763  58020000           [011] test       9       0    ; to [13] if true
4767  1A000080           [012] jmp        1            ; to [14]
476B  1E008000           [013] return     0   1      
476F  59420100           [014] loadk      9   5        ; 0
4773  99420100           [015] loadk      10  5        ; 0
4777  E4824104           [016] self       11  8   262  ; 1781416269
477B  59C30100           [017] loadk      13  7        ; 0
477F  E2828001           [018] call       11  3   2  
4783  1D030100           [019] getglobal  12  4        ; 1074689893
4787  52038005           [020] move       13  11     
478B  22830001           [021] call       12  2   2  
478F  18430000           [022] test       12      1    ; to [24] if false
4793  1A800980           [023] jmp        39           ; to [63]
4797  2403C205           [024] self       12  11  264  ; -1957065004
479B  9D430200           [025] getglobal  14  9        ; 738251817
479F  D9830200           [026] loadk      15  10       ; "/Lotus/Characters/Tenno/Anima/EquinoxPrimeDay"
47A3  A2030001           [027] call       14  2   0  
47A7  22830000           [028] call       12  0   2  
47AB  18430000           [029] test       12      1    ; to [31] if false
47AF  1A800180           [030] jmp        7            ; to [38]
47B3  2403C205           [031] self       12  11  264  ; -1957065004
47B7  9D430200           [032] getglobal  14  9        ; 738251817
47BB  D9C30200           [033] loadk      15  11       ; "/Lotus/Characters/Tenno/Anima/EquinoxPrimeNight"
47BF  A2030001           [034] call       14  2   0  
47C3  22830000           [035] call       12  0   2  
47C7  18030000           [036] test       12      0    ; to [38] if true
47CB  1A800080           [037] jmp        3            ; to [41]
47CF  59020300           [038] loadk      9   12       ; 0
47D3  99420300           [039] loadk      10  13       ; 0
47D7  1A400580           [040] jmp        22           ; to [63]
47DB  19430100           [041] loadk      12  5        ; 0
47DF  53030000           [042] getupval   13  0      
47E3  4E83C306           [043] gettable   13  13  270  ; "materialOverrides"
47E7  4A038006           [044] len        13  13     
47EB  99430100           [045] loadk      14  5        ; 0
47EF  10830380           [046] forprep    12  15       ; to [62]
47F3  1D040100           [047] getglobal  16  4        ; 1074689893
47F7  53040000           [048] getupval   17  0      
47FB  4E84C308           [049] gettable   17  17  270  ; "materialOverrides"
47FF  4EC48308           [050] gettable   17  17  15 
4803  4E44C108           [051] gettable   17  17  261  ; 0
4807  22840001           [052] call       16  2   2  
480B  18440000           [053] test       16      1    ; to [55] if false
480F  1A800180           [054] jmp        7            ; to [62]
4813  13040000           [055] getupval   16  0      
4817  0E844308           [056] gettable   16  16  270  ; "materialOverrides"
481B  0EC40308           [057] gettable   16  16  15 
481F  0E444108           [058] gettable   16  16  261  ; 0
fail op	35
4823  23008405           [059] close      0  
4827  1A000080           [060] jmp        1            ; to [62]
482B  52028007           [061] move       9   15     
482F  14C3FB7F           [062] forloop    12  -16      ; to [47] if loop
4833  1DC40300           [063] getglobal  16  15       ; 2083004503
4837  4E448200           [064] gettable   17  1   9  
483B  22840001           [065] call       16  2   2  
483F  5D040100           [066] getglobal  17  4        ; 1074689893
4843  92040008           [067] move       18  16     
4847  62840001           [068] call       17  2   2  
484B  58440000           [069] test       17      1    ; to [71] if false
484F  1A000180           [070] jmp        5            ; to [76]
4853  64044400           [071] self       17  0   272  ; 919598577
4857  D2040008           [072] move       19  16     
485B  17050000           [073] loadbool   20  0   0    ; false
485F  57050000           [074] loadbool   21  0   0    ; false
4863  62448002           [075] call       17  5   1  
4867  64444400           [076] self       17  0   273  ; 848075659
486B  D2040004           [077] move       19  8      
486F  62448001           [078] call       17  3   1  
4873  4E440201           [079] gettable   17  2   9  
4877  9D840400           [080] getglobal  18  18       ; 1672515847
487B  D2048008           [081] move       19  17     
487F  A2040101           [082] call       18  2   4  
4883  1A800180           [083] jmp        7            ; to [91]
4887  E4C54400           [084] self       23  0   275  ; 1728877662
488B  4D46C10A           [085] sub        25  21  261  ; 0
488F  9DC60300           [086] getglobal  26  15       ; 2083004503
4893  D206000B           [087] move       27  22     
4897  A2860001           [088] call       26  2   2  
489B  D7060000           [089] loadbool   27  0   0    ; false
489F  E2458002           [090] call       23  5   1  
48A3  96840000           [091] tforloop   18      2    ; to [93] if exit
48A7  1A80FD7F           [092] jmp        -9           ; to [84]
48AB  C605800B           [093] loadnil    23  23     
48AF  1D860400           [094] getglobal  24  18       ; 1672515847
48B3  53068000           [095] getupval   25  1      
48B7  22060101           [096] call       24  2   4  
48BB  1A800280           [097] jmp        11           ; to [109]
48BF  64074500           [098] self       29  0   276  ; -1625438872
48C3  D207000E           [099] move       31  28     
48C7  62878001           [100] call       29  3   2  
48CB  D205800E           [101] move       23  29     
48CF  5D070100           [102] getglobal  29  4        ; 1074689893
48D3  9207800B           [103] move       30  23     
48D7  62870001           [104] call       29  2   2  
48DB  58470000           [105] test       29      1    ; to [107] if false
48DF  1A400080           [106] jmp        2            ; to [109]
48E3  9202800D           [107] move       10  27     
48E7  1A400080           [108] jmp        2            ; to [111]
48EB  16860000           [109] tforloop   24      2    ; to [111] if exit
48EF  1A80FC7F           [110] jmp        -13          ; to [98]
48F3  5D070100           [111] getglobal  29  4        ; 1074689893
48F7  9207800B           [112] move       30  23     
48FB  62870001           [113] call       29  2   2  
48FF  58070000           [114] test       29      0    ; to [116] if true
4903  1A000280           [115] jmp        9            ; to [125]
4907  5DC70300           [116] getglobal  29  15       ; 2083004503
490B  93078000           [117] getupval   30  1      
490F  8E47410F           [118] gettable   30  30  261  ; 0
4913  62870001           [119] call       29  2   2  
4917  A4474500           [120] self       30  0   277  ; -1421644046
491B  1208800E           [121] move       32  29     
491F  5D880500           [122] getglobal  33  22       ; EMPTY_SYMBOL
4923  A2870002           [123] call       30  4   2  
4927  D205000F           [124] move       23  30     
492B  9D070100           [125] getglobal  30  4        ; 1074689893
492F  D207800B           [126] move       31  23     
4933  A2870001           [127] call       30  2   2  
4937  98470000           [128] test       30      1    ; to [130] if false
493B  1A000580           [129] jmp        21           ; to [151]
493F  A407C40B           [130] self       30  23  272  ; 919598577
4943  1DC80300           [131] getglobal  32  15       ; 2083004503
4947  4E880202           [132] gettable   33  4   10 
494B  22880001           [133] call       32  2   2  
494F  57080000           [134] loadbool   33  0   0    ; false
4953  97080000           [135] loadbool   34  0   0    ; false
4957  A2478002           [136] call       30  5   1  
495B  A447C40B           [137] self       30  23  273  ; 848075659
495F  12080004           [138] move       32  8      
4963  A2478001           [139] call       30  3   1  
4967  93070001           [140] getupval   30  2      
496B  D207800B           [141] move       31  23     
496F  13088001           [142] getupval   32  3      
4973  0E880210           [143] gettable   32  32  10 
4977  4E880203           [144] gettable   33  6   10 
497B  9D880000           [145] getglobal  34  2        ; -332969190
497F  D9C80500           [146] loadk      35  23       ; "GAME_C1_HEAD1"
4983  A2880001           [147] call       34  2   2  
4987  C6080012           [148] loadnil    35  36     
498B  52090004           [149] move       37  8      
498F  A2470004           [150] call       30  8   1  
4993  93070001           [151] getupval   30  2      
4997  D2070000           [152] move       31  0      
499B  13080002           [153] getupval   32  4      
499F  4E488202           [154] gettable   33  5   9  
49A3  9D880500           [155] getglobal  34  22       ; EMPTY_SYMBOL
49A7  CE488203           [156] gettable   35  7   9  
49AB  06090012           [157] loadnil    36  36     
49AF  52090004           [158] move       37  8      
49B3  A2470004           [159] call       30  8   1  
49B7  1E008000           [160] return     0   1      
                         * constants:
49BB  18                 sizek (24)
49BC  01                 const type 3
49BD  531F7FDD           const [0]: (-578871469)
49C1  01                 const type 3
49C2  73123990           const [1]: (-1875307917)
49C6  01                 const type 3
49C7  1A4B27EC           const [2]: (-332969190)
49CB  04                 const type 4
49CC  07                 string size (7)
49CD  506C6179657200     "Player\0"
                         const [3]: "Player"
49D4  01                 const type 3
49D5  65770E40           const [4]: (1074689893)
49D9  03                 const type 3
49DA  0000803F           const [5]: (0)
49DE  01                 const type 3
49DF  4D412E6A           const [6]: (1781416269)
49E3  03                 const type 3
49E4  00000000           const [7]: (0)
49E8  01                 const type 3
49E9  D48E598B           const [8]: (-1957065004)
49ED  01                 const type 3
49EE  29D4002C           const [9]: (738251817)
49F2  04                 const type 4
49F3  2E                 string size (46)
49F4  2F4C6F7475732F43+  "/Lotus/C"
49FC  6861726163746572+  "haracter"
4A04  732F54656E6E6F2F+  "s/Tenno/"
4A0C  416E696D612F4571+  "Anima/Eq"
4A14  75696E6F78507269+  "uinoxPri"
4A1C  6D6544617900       "meDay\0"
                         const [10]: "/Lotus/Characters/Tenno/Anima/EquinoxPrimeDay"
4A22  04                 const type 4
4A23  30                 string size (48)
4A24  2F4C6F7475732F43+  "/Lotus/C"
4A2C  6861726163746572+  "haracter"
4A34  732F54656E6E6F2F+  "s/Tenno/"
4A3C  416E696D612F4571+  "Anima/Eq"
4A44  75696E6F78507269+  "uinoxPri"
4A4C  6D654E6967687400   "meNight\0"
                         const [11]: "/Lotus/Characters/Tenno/Anima/EquinoxPrimeNight"
4A54  03                 const type 3
4A55  0000A040           const [12]: (0)
4A59  03                 const type 3
4A5A  0000E040           const [13]: (0)
4A5E  04                 const type 4
4A5F  12                 string size (18)
4A60  6D6174657269616C+  "material"
4A68  4F76657272696465+  "Override"
4A70  7300               "s\0"
                         const [14]: "materialOverrides"
4A72  01                 const type 3
4A73  5720287C           const [15]: (2083004503)
4A77  01                 const type 3
4A78  F1F5CF36           const [16]: (919598577)
4A7C  01                 const type 3
4A7D  8B9B8C32           const [17]: (848075659)
4A81  01                 const type 3
4A82  0791B063           const [18]: (1672515847)
4A86  01                 const type 3
4A87  5E940C67           const [19]: (1728877662)
4A8B  01                 const type 3
4A8C  68C51D9F           const [20]: (-1625438872)
4A90  01                 const type 3
4A91  F26E43AB           const [21]: (-1421644046)
4A95  04                 const type 4
4A96  0D                 string size (13)
4A97  454D5054595F5359+  "EMPTY_SY"
4A9F  4D424F4C00         "MBOL\0"
                         const [22]: "EMPTY_SYMBOL"
4AA4  04                 const type 4
4AA5  0E                 string size (14)
4AA6  47414D455F43315F+  "GAME_C1_"
4AAE  484541443100       "HEAD1\0"
                         const [23]: "GAME_C1_HEAD1"
                         * functions:
4AB4  00                 sizep (0)
                         * lines:
4AB6  01                 sizelineinfo (160)
                         [pc] (line)
4AB7  6B                 [001] (107)
4AB8  03                 [002] (107)
4AB9  00                 [003] (107)
4ABA  00                 [004] (107)
4ABB  6B                 [005] (107)
4ABC  03                 [006] (107)
4ABD  00                 [007] (107)
4ABE  00                 [008] (108)
4ABF  6B                 [009] (108)
4AC0  03                 [010] (108)
4AC1  00                 [011] (108)
4AC2  00                 [012] (108)
4AC3  6B                 [013] (109)
4AC4  03                 [014] (111)
4AC5  00                 [015] (112)
4AC6  00                 [016] (113)
4AC7  6B                 [017] (113)
4AC8  03                 [018] (113)
4AC9  00                 [019] (114)
4ACA  00                 [020] (114)
4ACB  6B                 [021] (114)
4ACC  03                 [022] (114)
4ACD  00                 [023] (114)
4ACE  00                 [024] (115)
4ACF  6B                 [025] (115)
4AD0  03                 [026] (115)
4AD1  00                 [027] (115)
4AD2  00                 [028] (115)
4AD3  6C                 [029] (115)
4AD4  03                 [030] (115)
4AD5  00                 [031] (115)
4AD6  00                 [032] (115)
4AD7  6C                 [033] (115)
4AD8  03                 [034] (115)
4AD9  00                 [035] (115)
4ADA  00                 [036] (115)
4ADB  6C                 [037] (115)
4ADC  03                 [038] (116)
4ADD  00                 [039] (117)
4ADE  00                 [040] (117)
4ADF  6C                 [041] (119)
4AE0  03                 [042] (119)
4AE1  00                 [043] (119)
4AE2  00                 [044] (119)
4AE3  6C                 [045] (119)
4AE4  03                 [046] (119)
4AE5  00                 [047] (120)
4AE6  00                 [048] (120)
4AE7  6D                 [049] (120)
4AE8  03                 [050] (120)
4AE9  00                 [051] (120)
4AEA  00                 [052] (120)
4AEB  6F                 [053] (120)
4AEC  03                 [054] (120)
4AED  00                 [055] (121)
4AEE  00                 [056] (121)
4AEF  70                 [057] (121)
4AF0  03                 [058] (121)
4AF1  00                 [059] (121)
4AF2  00                 [060] (121)
4AF3  71                 [061] (122)
4AF4  03                 [062] (119)
4AF5  00                 [063] (-127)
4AF6  00                 [064] (-127)
4AF7  71                 [065] (-127)
4AF8  03                 [066] (-126)
4AF9  00                 [067] (-126)
4AFA  00                 [068] (-126)
4AFB  71                 [069] (-126)
4AFC  03                 [070] (-126)
4AFD  00                 [071] (-125)
4AFE  00                 [072] (-125)
4AFF  72                 [073] (-125)
4B00  03                 [074] (-125)
4B01  00                 [075] (-125)
4B02  00                 [076] (-123)
4B03  72                 [077] (-123)
4B04  03                 [078] (-123)
4B05  00                 [079] (-121)
4B06  00                 [080] (-120)
4B07  72                 [081] (-120)
4B08  03                 [082] (-120)
4B09  00                 [083] (-120)
4B0A  00                 [084] (-119)
4B0B  72                 [085] (-119)
4B0C  03                 [086] (-119)
4B0D  00                 [087] (-119)
4B0E  00                 [088] (-119)
4B0F  72                 [089] (-119)
4B10  03                 [090] (-119)
4B11  00                 [091] (-120)
4B12  00                 [092] (-119)
4B13  73                 [093] (-116)
4B14  03                 [094] (-115)
4B15  00                 [095] (-115)
4B16  00                 [096] (-115)
4B17  73                 [097] (-115)
4B18  03                 [098] (-114)
4B19  00                 [099] (-114)
4B1A  00                 [100] (-114)
4B1B  73                 [101] (-114)
4B1C  03                 [102] (-113)
4B1D  00                 [103] (-113)
4B1E  00                 [104] (-113)
4B1F  73                 [105] (-113)
4B20  03                 [106] (-113)
4B21  00                 [107] (-112)
4B22  00                 [108] (-111)
4B23  73                 [109] (-115)
4B24  03                 [110] (-110)
4B25  00                 [111] (-108)
4B26  00                 [112] (-108)
4B27  73                 [113] (-108)
4B28  03                 [114] (-108)
4B29  00                 [115] (-108)
4B2A  00                 [116] (-107)
4B2B  73                 [117] (-107)
4B2C  03                 [118] (-107)
4B2D  00                 [119] (-107)
4B2E  00                 [120] (-106)
4B2F  73                 [121] (-106)
4B30  03                 [122] (-106)
4B31  00                 [123] (-106)
4B32  00                 [124] (-106)
4B33  73                 [125] (-104)
4B34  03                 [126] (-104)
4B35  00                 [127] (-104)
4B36  00                 [128] (-104)
4B37  73                 [129] (-104)
4B38  03                 [130] (-103)
4B39  00                 [131] (-103)
4B3A  00                 [132] (-103)
4B3B  73                 [133] (-103)
4B3C  03                 [134] (-103)
4B3D  00                 [135] (-103)
4B3E  00                 [136] (-103)
4B3F  73                 [137] (-102)
4B40  03                 [138] (-102)
4B41  00                 [139] (-102)
4B42  00                 [140] (-101)
4B43  73                 [141] (-101)
4B44  03                 [142] (-101)
4B45  00                 [143] (-101)
4B46  00                 [144] (-101)
4B47  73                 [145] (-101)
4B48  03                 [146] (-101)
4B49  00                 [147] (-101)
4B4A  00                 [148] (-101)
4B4B  74                 [149] (-101)
4B4C  03                 [150] (-101)
4B4D  00                 [151] (-98)
4B4E  00                 [152] (-98)
4B4F  75                 [153] (-98)
4B50  03                 [154] (-98)
4B51  00                 [155] (-98)
4B52  00                 [156] (-98)
4B53  75                 [157] (-98)
4B54  03                 [158] (-98)
4B55  00                 [159] (-98)
4B56  00                 [160] (-97)
                         * locals:
4D37  00                 sizelocvars (0)
                         * upvalues:
4D38  00                 sizeupvalues (0)
                         ** end of function **

                         * lines:
4D39  41                 sizelineinfo (65)
                         [pc] (line)
4D3A  9F                 [01] (-97)
4D3B  03                 [02] (-97)
4D3C  00                 [03] (-97)
4D3D  00                 [04] (-97)
4D3E  9F                 [05] (-97)
4D3F  03                 [06] (-97)
4D40  00                 [07] (-95)
4D41  00                 [08] (-95)
4D42  9F                 [09] (-95)
4D43  03                 [10] (-94)
4D44  00                 [11] (-94)
4D45  00                 [12] (-94)
4D46  9F                 [13] (-94)
4D47  03                 [14] (-94)
4D48  00                 [15] (-94)
4D49  00                 [16] (-94)
4D4A  9F                 [17] (-94)
4D4B  03                 [18] (-94)
4D4C  00                 [19] (-94)
4D4D  00                 [20] (-94)
4D4E  9F                 [21] (-94)
4D4F  03                 [22] (-94)
4D50  00                 [23] (-94)
4D51  00                 [24] (-94)
4D52  A1                 [25] (-94)
4D53  03                 [26] (-94)
4D54  00                 [27] (-94)
4D55  00                 [28] (-93)
4D56  A1                 [29] (-93)
4D57  03                 [30] (-93)
4D58  00                 [31] (-92)
4D59  00                 [32] (-92)
4D5A  A1                 [33] (-92)
4D5B  03                 [34] (-92)
4D5C  00                 [35] (-92)
4D5D  00                 [36] (-92)
4D5E  A2                 [37] (-92)
4D5F  03                 [38] (-92)
4D60  00                 [39] (-92)
4D61  00                 [40] (-92)
4D62  A2                 [41] (-92)
4D63  03                 [42] (-92)
4D64  00                 [43] (-92)
4D65  00                 [44] (-92)
4D66  A2                 [45] (-92)
4D67  03                 [46] (-92)
4D68  00                 [47] (-92)
4D69  00                 [48] (-92)
4D6A  A2                 [49] (-90)
4D6B  03                 [50] (-90)
4D6C  00                 [51] (-90)
4D6D  00                 [52] (-90)
4D6E  A2                 [53] (-90)
4D6F  03                 [54] (-90)
4D70  00                 [55] (-90)
4D71  00                 [56] (-90)
4D72  A2                 [57] (-90)
4D73  03                 [58] (-90)
4D74  00                 [59] (-90)
4D75  00                 [60] (-90)
4D76  A2                 [61] (-90)
4D77  03                 [62] (-90)
4D78  00                 [63] (-90)
4D79  00                 [64] (-90)
4D7A  A2                 [65] (-88)
                         * locals:
4E3E  00                 sizelocvars (0)
                         * upvalues:
4E3F  00                 sizeupvalues (0)
                         ** end of function **

                         * lines:
4E41  07                 sizelineinfo (920)
                         [pc] (line)
4E42  01                 [001] (1)
4E43  00                 [002] (1)
4E44  00                 [003] (1)
4E45  00                 [004] (1)
4E46  01                 [005] (1)
4E47  00                 [006] (6)
4E48  00                 [007] (7)
4E49  00                 [008] (7)
4E4A  01                 [009] (7)
4E4B  00                 [010] (8)
4E4C  00                 [011] (8)
4E4D  00                 [012] (8)
4E4E  01                 [013] (9)
4E4F  00                 [014] (9)
4E50  00                 [015] (9)
4E51  00                 [016] (10)
4E52  01                 [017] (10)
4E53  00                 [018] (10)
4E54  00                 [019] (11)
4E55  00                 [020] (11)
4E56  06                 [021] (11)
4E57  00                 [022] (12)
4E58  00                 [023] (12)
4E59  00                 [024] (12)
4E5A  07                 [025] (13)
4E5B  00                 [026] (13)
4E5C  00                 [027] (13)
4E5D  00                 [028] (14)
4E5E  07                 [029] (16)
4E5F  00                 [030] (16)
4E60  00                 [031] (17)
4E61  00                 [032] (18)
4E62  07                 [033] (19)
4E63  00                 [034] (20)
4E64  00                 [035] (22)
4E65  00                 [036] (22)
4E66  08                 [037] (22)
4E67  00                 [038] (23)
4E68  00                 [039] (23)
4E69  00                 [040] (23)
4E6A  08                 [041] (24)
4E6B  00                 [042] (24)
4E6C  00                 [043] (25)
4E6D  00                 [044] (27)
4E6E  08                 [045] (29)
4E6F  00                 [046] (30)
4E70  00                 [047] (30)
4E71  00                 [048] (30)
4E72  09                 [049] (31)
4E73  00                 [050] (31)
4E74  00                 [051] (31)
4E75  00                 [052] (32)
4E76  09                 [053] (32)
4E77  00                 [054] (32)
4E78  00                 [055] (33)
4E79  00                 [056] (33)
4E7A  09                 [057] (33)
4E7B  00                 [058] (34)
4E7C  00                 [059] (34)
4E7D  00                 [060] (34)
4E7E  0A                 [061] (35)
4E7F  00                 [062] (37)
4E80  00                 [063] (39)
4E81  00                 [064] (39)
4E82  0A                 [065] (39)
4E83  00                 [066] (40)
4E84  00                 [067] (40)
4E85  00                 [068] (40)
4E86  0A                 [069] (41)
4E87  00                 [070] (41)
4E88  00                 [071] (41)
4E89  00                 [072] (43)
4E8A  0B                 [073] (43)
4E8B  00                 [074] (43)
4E8C  00                 [075] (45)
4E8D  00                 [076] (45)
4E8E  0B                 [077] (45)
4E8F  00                 [078] (46)
4E90  00                 [079] (46)
4E91  00                 [080] (46)
4E92  0B                 [081] (49)
4E93  00                 [082] (49)
4E94  00                 [083] (49)
4E95  00                 [084] (50)
4E96  0C                 [085] (50)
4E97  00                 [086] (50)
4E98  00                 [087] (51)
4E99  00                 [088] (51)
4E9A  0C                 [089] (51)
4E9B  00                 [090] (53)
4E9C  00                 [091] (53)
4E9D  00                 [092] (53)
4E9E  0C                 [093] (54)
4E9F  00                 [094] (56)
4EA0  00                 [095] (56)
4EA1  00                 [096] (56)
4EA2  0D                 [097] (57)
4EA3  00                 [098] (57)
4EA4  00                 [099] (57)
4EA5  00                 [100] (61)
4EA6  0D                 [101] (62)
4EA7  00                 [102] (63)
4EA8  00                 [103] (63)
4EA9  00                 [104] (63)
4EAA  0D                 [105] (64)
4EAB  00                 [106] (64)
4EAC  00                 [107] (64)
4EAD  00                 [108] (65)
4EAE  0E                 [109] (65)
4EAF  00                 [110] (65)
4EB0  00                 [111] (66)
4EB1  00                 [112] (66)
4EB2  10                 [113] (66)
4EB3  00                 [114] (67)
4EB4  00                 [115] (67)
4EB5  00                 [116] (67)
4EB6  10                 [117] (68)
4EB7  00                 [118] (68)
4EB8  00                 [119] (68)
4EB9  00                 [120] (69)
4EBA  11                 [121] (69)
4EBB  00                 [122] (69)
4EBC  00                 [123] (70)
4EBD  00                 [124] (70)
4EBE  12                 [125] (72)
4EBF  00                 [126] (72)
4EC0  00                 [127] (73)
4EC1  00                 [128] (74)
4EC2  13                 [129] (75)
4EC3  00                 [130] (76)
4EC4  00                 [131] (78)
4EC5  00                 [132] (78)
4EC6  14                 [133] (78)
4EC7  00                 [134] (79)
4EC8  00                 [135] (79)
4EC9  00                 [136] (80)
4ECA  16                 [137] (82)
4ECB  00                 [138] (82)
4ECC  00                 [139] (84)
4ECD  00                 [140] (85)
4ECE  16                 [141] (85)
4ECF  00                 [142] (85)
4ED0  00                 [143] (86)
4ED1  00                 [144] (86)
4ED2  16                 [145] (86)
4ED3  00                 [146] (87)
4ED4  00                 [147] (87)
4ED5  00                 [148] (87)
4ED6  17                 [149] (88)
4ED7  00                 [150] (88)
4ED8  00                 [151] (88)
4ED9  00                 [152] (89)
4EDA  17                 [153] (89)
4EDB  00                 [154] (89)
4EDC  00                 [155] (90)
4EDD  00                 [156] (90)
4EDE  17                 [157] (92)
4EDF  00                 [158] (92)
4EE0  00                 [159] (92)
4EE1  00                 [160] (92)
4EE2  18                 [161] (94)
4EE3  00                 [162] (94)
4EE4  00                 [163] (95)
4EE5  00                 [164] (97)
4EE6  18                 [165] (97)
4EE7  00                 [166] (97)
4EE8  00                 [167] (98)
4EE9  00                 [168] (98)
4EEA  19                 [169] (100)
4EEB  00                 [170] (100)
4EEC  00                 [171] (100)
4EED  00                 [172] (101)
4EEE  1B                 [173] (101)
4EEF  00                 [174] (103)
4EF0  00                 [175] (103)
4EF1  00                 [176] (103)
4EF2  1D                 [177] (104)
4EF3  00                 [178] (104)
4EF4  00                 [179] (106)
4EF5  00                 [180] (106)
4EF6  1E                 [181] (108)
4EF7  00                 [182] (108)
4EF8  00                 [183] (109)
4EF9  00                 [184] (111)
4EFA  1E                 [185] (111)
4EFB  00                 [186] (111)
4EFC  00                 [187] (113)
4EFD  00                 [188] (113)
4EFE  1E                 [189] (113)
4EFF  00                 [190] (115)
4F00  00                 [191] (115)
4F01  00                 [192] (115)
4F02  1F                 [193] (117)
4F03  00                 [194] (117)
4F04  00                 [195] (117)
4F05  00                 [196] (119)
4F06  1F                 [197] (119)
4F07  00                 [198] (119)
4F08  00                 [199] (121)
4F09  00                 [200] (121)
4F0A  1F                 [201] (121)
4F0B  00                 [202] (123)
4F0C  00                 [203] (123)
4F0D  00                 [204] (125)
4F0E  20                 [205] (125)
4F0F  00                 [206] (127)
4F10  00                 [207] (127)
4F11  00                 [208] (127)
4F12  20                 [209] (-128)
4F13  00                 [210] (-128)
4F14  00                 [211] (-128)
4F15  00                 [212] (-127)
4F16  20                 [213] (-127)
4F17  00                 [214] (-127)
4F18  00                 [215] (-126)
4F19  00                 [216] (-126)
4F1A  21                 [217] (-124)
4F1B  00                 [218] (-124)
4F1C  00                 [219] (-124)
4F1D  00                 [220] (-123)
4F1E  21                 [221] (-123)
4F1F  00                 [222] (-123)
4F20  00                 [223] (-122)
4F21  00                 [224] (-122)
4F22  21                 [225] (-122)
4F23  00                 [226] (-121)
4F24  00                 [227] (-121)
4F25  00                 [228] (-119)
4F26  22                 [229] (-119)
4F27  00                 [230] (-119)
4F28  00                 [231] (-118)
4F29  00                 [232] (-118)
4F2A  22                 [233] (-118)
4F2B  00                 [234] (-117)
4F2C  00                 [235] (-117)
4F2D  00                 [236] (-117)
4F2E  22                 [237] (-116)
4F2F  00                 [238] (-116)
4F30  00                 [239] (-114)
4F31  00                 [240] (-114)
4F32  23                 [241] (-114)
4F33  00                 [242] (-113)
4F34  00                 [243] (-113)
4F35  00                 [244] (-113)
4F36  25                 [245] (-112)
4F37  00                 [246] (-112)
4F38  00                 [247] (-112)
4F39  00                 [248] (-111)
4F3A  27                 [249] (-111)
4F3B  00                 [250] (-109)
4F3C  00                 [251] (-109)
4F3D  00                 [252] (-109)
4F3E  27                 [253] (-108)
4F3F  00                 [254] (-108)
4F40  00                 [255] (-108)
4F41  00                 [256] (-107)
4F42  27                 [257] (-107)
4F43  00                 [258] (-107)
4F44  00                 [259] (-106)
4F45  00                 [260] (-106)
4F46  28                 [261] (-106)
4F47  00                 [262] (-105)
4F48  00                 [263] (-104)
4F49  00                 [264] (-104)
4F4A  28                 [265] (-102)
4F4B  00                 [266] (-101)
4F4C  00                 [267] (-101)
4F4D  00                 [268] (-101)
4F4E  28                 [269] (-100)
4F4F  00                 [270] (-100)
4F50  00                 [271] (-100)
4F51  00                 [272] (-99)
4F52  29                 [273] (-99)
4F53  00                 [274] (-99)
4F54  00                 [275] (-98)
4F55  00                 [276] (-98)
4F56  29                 [277] (-98)
4F57  00                 [278] (-97)
4F58  00                 [279] (-97)
4F59  00                 [280] (-95)
4F5A  29                 [281] (-95)
4F5B  00                 [282] (-94)
4F5C  00                 [283] (-92)
4F5D  00                 [284] (-92)
4F5E  2B                 [285] (-92)
4F5F  00                 [286] (-91)
4F60  00                 [287] (-91)
4F61  00                 [288] (-91)
4F62  2B                 [289] (-90)
4F63  00                 [290] (-90)
4F64  00                 [291] (-90)
4F65  00                 [292] (-89)
4F66  2B                 [293] (-89)
4F67  00                 [294] (-89)
4F68  00                 [295] (-88)
4F69  00                 [296] (-88)
4F6A  2D                 [297] (-88)
4F6B  00                 [298] (-87)
4F6C  00                 [299] (-87)
4F6D  00                 [300] (-85)
4F6E  2D                 [301] (-85)
4F6F  00                 [302] (-85)
4F70  00                 [303] (-84)
4F71  00                 [304] (-84)
4F72  2D                 [305] (-84)
4F73  00                 [306] (-83)
4F74  00                 [307] (-83)
4F75  00                 [308] (-83)
4F76  2E                 [309] (-82)
4F77  00                 [310] (-82)
4F78  00                 [311] (-82)
4F79  00                 [312] (-81)
4F7A  2E                 [313] (-81)
4F7B  00                 [314] (-81)
4F7C  00                 [315] (-80)
4F7D  00                 [316] (-80)
4F7E  2E                 [317] (-78)
4F7F  00                 [318] (-78)
4F80  00                 [319] (-78)
4F81  00                 [320] (-77)
4F82  31                 [321] (-77)
4F83  00                 [322] (-77)
4F84  00                 [323] (-76)
4F85  00                 [324] (-76)
4F86  31                 [325] (-76)
4F87  00                 [326] (-75)
4F88  00                 [327] (-75)
4F89  00                 [328] (-75)
4F8A  31                 [329] (-74)
4F8B  00                 [330] (-74)
4F8C  00                 [331] (-74)
4F8D  00                 [332] (-73)
4F8E  32                 [333] (-73)
4F8F  00                 [334] (-71)
4F90  00                 [335] (-71)
4F91  00                 [336] (-69)
4F92  32                 [337] (-69)
4F93  00                 [338] (-67)
4F94  00                 [339] (-66)
4F95  00                 [340] (-66)
4F96  32                 [341] (-66)
4F97  00                 [342] (-65)
4F98  00                 [343] (-65)
4F99  00                 [344] (-65)
4F9A  33                 [345] (-64)
4F9B  00                 [346] (-64)
4F9C  00                 [347] (-64)
4F9D  00                 [348] (-63)
4F9E  33                 [349] (-63)
4F9F  00                 [350] (-63)
4FA0  00                 [351] (-62)
4FA1  00                 [352] (-62)
4FA2  33                 [353] (-62)
4FA3  00                 [354] (-61)
4FA4  00                 [355] (-61)
4FA5  00                 [356] (-59)
4FA6  35                 [357] (-59)
4FA7  00                 [358] (-59)
4FA8  00                 [359] (-59)
4FA9  00                 [360] (-57)
4FAA  35                 [361] (-56)
4FAB  00                 [362] (-51)
4FAC  00                 [363] (-51)
4FAD  00                 [364] (-49)
4FAE  35                 [365] (-48)
4FAF  00                 [366] (-48)
4FB0  00                 [367] (-48)
4FB1  00                 [368] (-47)
4FB2  36                 [369] (-47)
4FB3  00                 [370] (-47)
4FB4  00                 [371] (-46)
4FB5  00                 [372] (-46)
4FB6  38                 [373] (-46)
4FB7  00                 [374] (-45)
4FB8  00                 [375] (-45)
4FB9  00                 [376] (-45)
4FBA  38                 [377] (-44)
4FBB  00                 [378] (-44)
4FBC  00                 [379] (-39)
4FBD  00                 [380] (-38)
4FBE  38                 [381] (-37)
4FBF  00                 [382] (-37)
4FC0  00                 [383] (-37)
4FC1  00                 [384] (-36)
4FC2  39                 [385] (-36)
4FC3  00                 [386] (-36)
4FC4  00                 [387] (-35)
4FC5  00                 [388] (-35)
4FC6  39                 [389] (-35)
4FC7  00                 [390] (-34)
4FC8  00                 [391] (-34)
4FC9  00                 [392] (-34)
4FCA  39                 [393] (-33)
4FCB  00                 [394] (-33)
4FCC  00                 [395] (-33)
4FCD  00                 [396] (-32)
4FCE  3D                 [397] (-32)
4FCF  00                 [398] (-32)
4FD0  00                 [399] (-31)
4FD1  00                 [400] (-31)
4FD2  3E                 [401] (-31)
4FD3  00                 [402] (-30)
4FD4  00                 [403] (-30)
4FD5  00                 [404] (-28)
4FD6  3F                 [405] (-28)
4FD7  00                 [406] (-27)
4FD8  00                 [407] (-26)
4FD9  00                 [408] (-25)
4FDA  3F                 [409] (-24)
4FDB  00                 [410] (-22)
4FDC  00                 [411] (-22)
4FDD  00                 [412] (-22)
4FDE  3F                 [413] (-21)
4FDF  00                 [414] (-21)
4FE0  00                 [415] (-20)
4FE1  00                 [416] (-18)
4FE2  40                 [417] (-18)
4FE3  00                 [418] (-16)
4FE4  00                 [419] (-15)
4FE5  00                 [420] (-15)
4FE6  40                 [421] (-15)
4FE7  00                 [422] (-14)
4FE8  00                 [423] (-14)
4FE9  00                 [424] (-14)
4FEA  40                 [425] (-13)
4FEB  00                 [426] (-13)
4FEC  00                 [427] (-13)
4FED  00                 [428] (-12)
4FEE  41                 [429] (-12)
4FEF  00                 [430] (-12)
4FF0  00                 [431] (-11)
4FF1  00                 [432] (-11)
4FF2  41                 [433] (-11)
4FF3  00                 [434] (-10)
4FF4  00                 [435] (-10)
4FF5  00                 [436] (-8)
4FF6  41                 [437] (-8)
4FF7  00                 [438] (-8)
4FF8  00                 [439] (-8)
4FF9  00                 [440] (-6)
4FFA  42                 [441] (-6)
4FFB  00                 [442] (-5)
4FFC  00                 [443] (-3)
4FFD  00                 [444] (-3)
4FFE  42                 [445] (-3)
4FFF  00                 [446] (-2)
5000  00                 [447] (-2)
5001  00                 [448] (0)
5002  42                 [449] (0)
5003  00                 [450] (0)
5004  00                 [451] (1)
5005  00                 [452] (1)
5006  43                 [453] (3)
5007  00                 [454] (3)
5008  00                 [455] (3)
5009  00                 [456] (4)
500A  43                 [457] (4)
500B  00                 [458] (6)
500C  00                 [459] (6)
500D  00                 [460] (8)
500E  43                 [461] (8)
500F  00                 [462] (9)
5010  00                 [463] (11)
5011  00                 [464] (11)
5012  44                 [465] (11)
5013  00                 [466] (13)
5014  00                 [467] (13)
5015  00                 [468] (13)
5016  44                 [469] (15)
5017  00                 [470] (15)
5018  00                 [471] (15)
5019  00                 [472] (17)
501A  44                 [473] (17)
501B  00                 [474] (17)
501C  00                 [475] (19)
501D  00                 [476] (19)
501E  45                 [477] (19)
501F  00                 [478] (21)
5020  00                 [479] (21)
5021  00                 [480] (21)
5022  45                 [481] (23)
5023  00                 [482] (23)
5024  00                 [483] (25)
5025  00                 [484] (25)
5026  45                 [485] (27)
5027  00                 [486] (27)
5028  00                 [487] (27)
5029  00                 [488] (28)
502A  46                 [489] (28)
502B  00                 [490] (30)
502C  00                 [491] (30)
502D  00                 [492] (30)
502E  46                 [493] (31)
502F  00                 [494] (31)
5030  00                 [495] (33)
5031  00                 [496] (33)
5032  48                 [497] (33)
5033  00                 [498] (34)
5034  00                 [499] (34)
5035  00                 [500] (36)
5036  48                 [501] (36)
5037  00                 [502] (36)
5038  00                 [503] (37)
5039  00                 [504] (37)
503A  49                 [505] (39)
503B  00                 [506] (39)
503C  00                 [507] (41)
503D  00                 [508] (41)
503E  4A                 [509] (43)
503F  00                 [510] (43)
5040  00                 [511] (44)
5041  00                 [512] (46)
5042  4B                 [513] (46)
5043  00                 [514] (46)
5044  00                 [515] (47)
5045  00                 [516] (47)
5046  4C                 [517] (49)
5047  00                 [518] (49)
5048  00                 [519] (49)
5049  00                 [520] (50)
504A  4E                 [521] (50)
504B  00                 [522] (52)
504C  00                 [523] (52)
504D  00                 [524] (52)
504E  4E                 [525] (53)
504F  00                 [526] (53)
5050  00                 [527] (55)
5051  00                 [528] (55)
5052  4E                 [529] (57)
5053  00                 [530] (57)
5054  00                 [531] (59)
5055  00                 [532] (60)
5056  4F                 [533] (60)
5057  00                 [534] (60)
5058  00                 [535] (61)
5059  00                 [536] (61)
505A  4F                 [537] (61)
505B  00                 [538] (62)
505C  00                 [539] (62)
505D  00                 [540] (62)
505E  50                 [541] (63)
505F  00                 [542] (63)
5060  00                 [543] (63)
5061  00                 [544] (64)
5062  52                 [545] (64)
5063  00                 [546] (64)
5064  00                 [547] (65)
5065  00                 [548] (65)
5066  52                 [549] (67)
5067  00                 [550] (67)
5068  00                 [551] (67)
5069  00                 [552] (67)
506A  54                 [553] (69)
506B  00                 [554] (70)
506C  00                 [555] (74)
506D  00                 [556] (74)
506E  55                 [557] (74)
506F  00                 [558] (75)
5070  00                 [559] (75)
5071  00                 [560] (77)
5072  55                 [561] (77)
5073  00                 [562] (77)
5074  00                 [563] (77)
5075  00                 [564] (79)
5076  55                 [565] (80)
5077  00                 [566] (80)
5078  00                 [567] (80)
5079  00                 [568] (81)
507A  56                 [569] (81)
507B  00                 [570] (81)
507C  00                 [571] (82)
507D  00                 [572] (82)
507E  56                 [573] (82)
507F  00                 [574] (83)
5080  00                 [575] (83)
5081  00                 [576] (83)
5082  56                 [577] (84)
5083  00                 [578] (84)
5084  00                 [579] (89)
5085  00                 [580] (90)
5086  57                 [581] (91)
5087  00                 [582] (91)
5088  00                 [583] (91)
5089  00                 [584] (92)
508A  57                 [585] (92)
508B  00                 [586] (92)
508C  00                 [587] (93)
508D  00                 [588] (93)
508E  57                 [589] (93)
508F  00                 [590] (94)
5090  00                 [591] (94)
5091  00                 [592] (94)
5092  58                 [593] (95)
5093  00                 [594] (95)
5094  00                 [595] (95)
5095  00                 [596] (96)
5096  58                 [597] (96)
5097  00                 [598] (96)
5098  00                 [599] (97)
5099  00                 [600] (97)
509A  58                 [601] (97)
509B  00                 [602] (98)
509C  00                 [603] (98)
509D  00                 [604] (100)
509E  59                 [605] (100)
509F  00                 [606] (101)
50A0  00                 [607] (102)
50A1  00                 [608] (103)
50A2  59                 [609] (104)
50A3  00                 [610] (106)
50A4  00                 [611] (106)
50A5  00                 [612] (106)
50A6  59                 [613] (107)
50A7  00                 [614] (107)
50A8  00                 [615] (107)
50A9  00                 [616] (108)
50AA  5A                 [617] (108)
50AB  00                 [618] (109)
50AC  00                 [619] (111)
50AD  00                 [620] (111)
50AE  5A                 [621] (113)
50AF  00                 [622] (114)
50B0  00                 [623] (114)
50B1  00                 [624] (114)
50B2  5C                 [625] (115)
50B3  00                 [626] (115)
50B4  00                 [627] (115)
50B5  00                 [628] (116)
50B6  5C                 [629] (116)
50B7  00                 [630] (116)
50B8  00                 [631] (117)
50B9  00                 [632] (117)
50BA  5C                 [633] (117)
50BB  00                 [634] (118)
50BC  00                 [635] (118)
50BD  00                 [636] (118)
50BE  5C                 [637] (119)
50BF  00                 [638] (119)
50C0  00                 [639] (121)
50C1  00                 [640] (121)
50C2  5E                 [641] (121)
50C3  00                 [642] (121)
50C4  00                 [643] (123)
50C5  00                 [644] (123)
50C6  5E                 [645] (124)
50C7  00                 [646] (126)
50C8  00                 [647] (126)
50C9  00                 [648] (126)
50CA  5F                 [649] (127)
50CB  00                 [650] (127)
50CC  00                 [651] (127)
50CD  00                 [652] (-128)
50CE  61                 [653] (-128)
50CF  00                 [654] (-126)
50D0  00                 [655] (-126)
50D1  00                 [656] (-126)
50D2  61                 [657] (-125)
50D3  00                 [658] (-125)
50D4  00                 [659] (-125)
50D5  00                 [660] (-124)
50D6  61                 [661] (-124)
50D7  00                 [662] (-122)
50D8  00                 [663] (-122)
50D9  00                 [664] (-122)
50DA  62                 [665] (-121)
50DB  00                 [666] (-121)
50DC  00                 [667] (-121)
50DD  00                 [668] (-120)
50DE  62                 [669] (-120)
50DF  00                 [670] (-118)
50E0  00                 [671] (-118)
50E1  00                 [672] (-116)
50E2  64                 [673] (-116)
50E3  00                 [674] (-115)
50E4  00                 [675] (-113)
50E5  00                 [676] (-113)
50E6  64                 [677] (-113)
50E7  00                 [678] (-112)
50E8  00                 [679] (-111)
50E9  00                 [680] (-111)
50EA  64                 [681] (-111)
50EB  00                 [682] (-109)
50EC  00                 [683] (-109)
50ED  00                 [684] (-109)
50EE  65                 [685] (-107)
50EF  00                 [686] (-107)
50F0  00                 [687] (-107)
50F1  00                 [688] (-106)
50F2  65                 [689] (-105)
50F3  00                 [690] (-105)
50F4  00                 [691] (-105)
50F5  00                 [692] (-103)
50F6  67                 [693] (-103)
50F7  00                 [694] (-103)
50F8  00                 [695] (-101)
50F9  00                 [696] (-101)
50FA  67                 [697] (-101)
50FB  00                 [698] (-100)
50FC  00                 [699] (-99)
50FD  00                 [700] (-99)
50FE  67                 [701] (-99)
50FF  00                 [702] (-97)
5100  00                 [703] (-97)
5101  00                 [704] (-97)
5102  68                 [705] (-95)
5103  00                 [706] (-95)
5104  00                 [707] (-93)
5105  00                 [708] (-93)
5106  68                 [709] (-91)
5107  00                 [710] (-91)
5108  00                 [711] (-91)
5109  00                 [712] (-90)
510A  6A                 [713] (-90)
510B  00                 [714] (-90)
510C  00                 [715] (-89)
510D  00                 [716] (-89)
510E  6A                 [717] (-89)
510F  00                 [718] (-88)
5110  00                 [719] (-88)
5111  00                 [720] (-86)
5112  6C                 [721] (-86)
5113  00                 [722] (-86)
5114  00                 [723] (-85)
5115  00                 [724] (-85)
5116  6C                 [725] (-85)
5117  00                 [726] (-84)
5118  00                 [727] (-84)
5119  00                 [728] (-84)
511A  6D                 [729] (-83)
511B  00                 [730] (-83)
511C  00                 [731] (-81)
511D  00                 [732] (-81)
511E  6F                 [733] (-81)
511F  00                 [734] (-80)
5120  00                 [735] (-80)
5121  00                 [736] (-80)
5122  6F                 [737] (-79)
5123  00                 [738] (-79)
5124  00                 [739] (-79)
5125  00                 [740] (-78)
5126  6F                 [741] (-78)
5127  00                 [742] (-76)
5128  00                 [743] (-76)
5129  00                 [744] (-76)
512A  71                 [745] (-75)
512B  00                 [746] (-75)
512C  00                 [747] (-75)
512D  00                 [748] (-74)
512E  71                 [749] (-74)
512F  00                 [750] (-74)
5130  00                 [751] (-73)
5131  00                 [752] (-73)
5132  71                 [753] (-71)
5133  00                 [754] (-71)
5134  00                 [755] (-71)
5135  00                 [756] (-70)
5136  73                 [757] (-69)
5137  00                 [758] (-69)
5138  00                 [759] (-67)
5139  00                 [760] (-66)
513A  73                 [761] (-66)
513B  00                 [762] (-66)
513C  00                 [763] (-65)
513D  00                 [764] (-65)
513E  73                 [765] (-63)
513F  00                 [766] (-63)
5140  00                 [767] (-62)
5141  00                 [768] (-60)
5142  75                 [769] (-60)
5143  00                 [770] (-60)
5144  00                 [771] (-59)
5145  00                 [772] (-59)
5146  75                 [773] (-57)
5147  00                 [774] (-57)
5148  00                 [775] (-57)
5149  00                 [776] (-56)
514A  75                 [777] (-56)
514B  00                 [778] (-54)
514C  00                 [779] (-54)
514D  00                 [780] (-54)
514E  77                 [781] (-53)
514F  00                 [782] (-53)
5150  00                 [783] (-51)
5151  00                 [784] (-51)
5152  77                 [785] (-49)
5153  00                 [786] (-49)
5154  00                 [787] (-47)
5155  00                 [788] (-47)
5156  77                 [789] (-45)
5157  00                 [790] (-44)
5158  00                 [791] (-40)
5159  00                 [792] (-40)
515A  79                 [793] (-40)
515B  00                 [794] (-39)
515C  00                 [795] (-39)
515D  00                 [796] (-37)
515E  79                 [797] (-37)
515F  00                 [798] (-37)
5160  00                 [799] (-37)
5161  00                 [800] (-31)
5162  79                 [801] (-30)
5163  00                 [802] (-29)
5164  00                 [803] (-28)
5165  00                 [804] (-19)
5166  7B                 [805] (27)
5167  00                 [806] (27)
5168  00                 [807] (-86)
5169  00                 [808] (-86)
516A  7B                 [809] (-86)
516B  00                 [810] (-86)
516C  00                 [811] (-86)
516D  00                 [812] (-86)
516E  7D                 [813] (-86)
516F  00                 [814] (-86)
5170  00                 [815] (-75)
5171  00                 [816] (-75)
5172  7D                 [817] (-75)
5173  00                 [818] (-75)
5174  00                 [819] (-75)
5175  00                 [820] (-75)
5176  7F                 [821] (-75)
5177  00                 [822] (-66)
5178  00                 [823] (-66)
5179  00                 [824] (-56)
517A  7F                 [825] (-56)
517B  00                 [826] (-56)
517C  00                 [827] (-56)
517D  00                 [828] (-56)
517E  7F                 [829] (-56)
517F  00                 [830] (-64)
5180  00                 [831] (-42)
5181  00                 [832] (-42)
5182  80                 [833] (-42)
5183  00                 [834] (-42)
5184  00                 [835] (-42)
5185  00                 [836] (-42)
5186  80                 [837] (-42)
5187  00                 [838] (-54)
5188  00                 [839] (-32)
5189  00                 [840] (-32)
518A  80                 [841] (-32)
518B  00                 [842] (-32)
518C  00                 [843] (-32)
518D  00                 [844] (-32)
518E  81                 [845] (-32)
518F  00                 [846] (-40)
5190  00                 [847] (-26)
5191  00                 [848] (-26)
5192  81                 [849] (-26)
5193  00                 [850] (-26)
5194  00                 [851] (-30)
5195  00                 [852] (-20)
5196  81                 [853] (-20)
5197  00                 [854] (-20)
5198  00                 [855] (-20)
5199  00                 [856] (-24)
519A  82                 [857] (-16)
519B  00                 [858] (-16)
519C  00                 [859] (-16)
519D  00                 [860] (-18)
519E  82                 [861] (-12)
519F  00                 [862] (-12)
51A0  00                 [863] (-12)
51A1  00                 [864] (-14)
51A2  84                 [865] (-8)
51A3  00                 [866] (-8)
51A4  00                 [867] (-8)
51A5  00                 [868] (-10)
51A6  84                 [869] (-1)
51A7  00                 [870] (-1)
51A8  00                 [871] (-1)
51A9  00                 [872] (3)
51AA  84                 [873] (3)
51AB  00                 [874] (3)
51AC  00                 [875] (3)
51AD  00                 [876] (1)
51AE  85                 [877] (47)
51AF  00                 [878] (47)
51B0  00                 [879] (47)
51B1  00                 [880] (47)
51B2  85                 [881] (47)
51B3  00                 [882] (47)
51B4  00                 [883] (47)
51B5  00                 [884] (47)
51B6  85                 [885] (5)
51B7  00                 [886] (62)
51B8  00                 [887] (62)
51B9  00                 [888] (62)
51BA  86                 [889] (49)
51BB  00                 [890] (90)
51BC  00                 [891] (90)
51BD  00                 [892] (90)
51BE  86                 [893] (90)
51BF  00                 [894] (90)
51C0  00                 [895] (90)
51C1  00                 [896] (90)
51C2  86                 [897] (90)
51C3  00                 [898] (64)
51C4  00                 [899] (101)
51C5  00                 [900] (101)
51C6  87                 [901] (101)
51C7  00                 [902] (101)
51C8  00                 [903] (101)
51C9  00                 [904] (101)
51CA  87                 [905] (101)
51CB  00                 [906] (101)
51CC  00                 [907] (92)
51CD  00                 [908] (-88)
51CE  89                 [909] (-88)
51CF  00                 [910] (-88)
51D0  00                 [911] (-88)
51D1  00                 [912] (-88)
51D2  89                 [913] (-88)
51D3  00                 [914] (-88)
51D4  00                 [915] (-88)
51D5  00                 [916] (-88)
51D6  89                 [917] (-88)
51D7  00                 [918] (-88)
51D8  00                 [919] (103)
51D9  00                 [920] (-88)
                         * locals:
5CA2  00                 sizelocvars (0)
                         * upvalues:
5CA3  00                 sizeupvalues (0)
                         ** end of function **

5CA4                     ** end of chunk **
