1	C:\wlua_dump\path\Lotus\Scripts\EffectsOperatorEffects.lua
Pos   Hex Data           Description or Code
------------------------------------------------------------------------
0000                     ** source chunk: C:\wlua_dump\path\Lotus\Scripts\EffectsOperatorEffects.lua
                         ** global header start **
0000  7F                 header signature: ""
0001  00                 version (major:minor hex digits)
0002  00                 format (0=official)
0003  00                 endianness (1=little endian)
0004  00                 size of int (bytes)
0005  00                 size of size_t (bytes)
0006  02                 size of Instruction (bytes)
0007  0E                 size of number (bytes)
0008  64                 integral (1=integral)
4100
                         * number type: single
                         * x86 standard (32-bit, little endian, doubles)
                         ** global header end **
GAME_R1_WEAPON1
GAME_L1_WEAPON1
PinchAtten
UnlitAtten
AxisVector
PinchLength
PinchOverridePoint
GAME_C1_HIP1
OperatorAnimations
TennoAnimations
DissolveIn
OperatorCustomization
TennoDecoCustomization
TennoCustomization
OperatorSpawnEffect
OperatorCinematicSpawnIn
Scene12OperatorCinematicSpawnIn
OperatorCinematicSpawnOut
OperatorDeathSpawnOut
MaskHair
animToPlay
loopAnimToPlay
tennoAnimToPlay
Engine
ATMM_PHYSICS_DRIVEN
PRT_FREEZE
tennoLoopAnimToPlay
PRT_LOOP
Engine
SLOT_10
OperatorDeco
animToPlay
gDecorationType
projectorType
EMPTY_SYMBOL
ZERO_VECTOR
ZERO_ROTATION
scarfType
hairType
_T
focusKneelingAvatar
tennoAnimToPlay
gRegion
postProcess
viewShake
mShakeSpeed
mShakeAmbient
colorCorrection
x
z
despawnEffect
GAME_C1_SPINE5
gMoverType
y
math
OperatorAnimations
Engine
SLOT_10
_T
focusKneelingAvatar
gRegion
tennoAvatarType
EMPTY_SYMBOL
TennoAnimations
postProcess
viewShake
mShakeSpeed
mShakeAmbient
colorCorrection
gDecorationType
projectorType
ZERO_VECTOR
ZERO_ROTATION
math
endingLocalOffset
speed
Game
AVATAR_AURA_STRENGTH
SET
/Lotus/Powersuits/YinYang/YinYang
Lotus.Scripts.Effects.Polarity
Engine
SLOT_10
beamType
ZERO_ROTATION
GAME_L1_ARM3
spawnDecoTypes
gRegion
table
gDecorationType
gSkeletalClothExType
gLotusWeaponAttachmentType
table
projectorType
EMPTY_SYMBOL
cinematicUseOverrideBone
cinematicBoneOverride
Effects
gParticleSysType
projectorType
pinchLengthAtten
math
isCinematic
axis
x
y
z
speed
gRegion
IntroQueen
GAME_C1_SPINE5
gDecorationType
gSkeletalClothExType
axis
x
y
z
projectorType
EMPTY_SYMBOL
math
speed
projectorType
axis
x
y
z
_T
transferenceInterrupted
speed
Effects
gParticleSysType
projectorType
x
y
z
math
speed
hairType
DoNotMirror
gDecorationType
table
gSkeletalClothExType
hairMask
SphericalMap
hairObjectsToHide
hairObjectsToSwitch
hairObjectsNewMesh
                         
0001                     ** function [0] definition (level 1)
                         ** start of function **
0001  00                 string size (0)
                         source name: (none)
0002  00                 line defined (0)
0003  00                 last line defined (0)
0004  00                 nups (0)
0005  00                 numparams (0)
0006  02                 is_vararg (2)
0007  0E                 maxstacksize (14)
                         * code:
0008  64                 sizecode (100)
0009  1D000000           [001] getglobal  0   0        ; -332969190
000D  59400000           [002] loadk      1   1        ; "GAME_R1_WEAPON1"
0011  22800001           [003] call       0   2   2  
0015  5D000000           [004] getglobal  1   0        ; -332969190
0019  99800000           [005] loadk      2   2        ; "GAME_L1_WEAPON1"
001D  62800001           [006] call       1   2   2  
0021  99C00000           [007] loadk      2   3        ; 0
0025  D9000100           [008] loadk      3   4        ; 0
0029  1D010000           [009] getglobal  4   0        ; -332969190
002D  59410100           [010] loadk      5   5        ; "PinchAtten"
0031  22810001           [011] call       4   2   2  
0035  5D010000           [012] getglobal  5   0        ; -332969190
0039  99810100           [013] loadk      6   6        ; "UnlitAtten"
003D  62810001           [014] call       5   2   2  
0041  9D010000           [015] getglobal  6   0        ; -332969190
0045  D9C10100           [016] loadk      7   7        ; "AxisVector"
0049  A2810001           [017] call       6   2   2  
004D  DD010000           [018] getglobal  7   0        ; -332969190
0051  19020200           [019] loadk      8   8        ; "PinchLength"
0055  E2810001           [020] call       7   2   2  
0059  1D020000           [021] getglobal  8   0        ; -332969190
005D  59420200           [022] loadk      9   9        ; "PinchOverridePoint"
0061  22820001           [023] call       8   2   2  
0065  5D020000           [024] getglobal  9   0        ; -332969190
0069  99820200           [025] loadk      10  10       ; "GAME_C1_HIP1"
006D  62820001           [026] call       9   2   2  
0071  9DC20200           [027] getglobal  10  11       ; 572299008
0075  D9020300           [028] loadk      11  12       ; 0
0079  19430300           [029] loadk      12  13       ; 0
007D  59830300           [030] loadk      13  14       ; 0
0081  A2820002           [031] call       10  4   2  
0085  E5020000           [032] closure    11  0      
0089  E0C20300           [033] setglobal  11  15       ; OperatorAnimations
008D  E0020400           [034] setglobal  11  16       ; 1749274002
0091  E5420000           [035] closure    11  1      
0095  E0420400           [036] setglobal  11  17       ; TennoAnimations
0099  E0820400           [037] setglobal  11  18       ; 1387063993
009D  E5820000           [038] closure    11  2      
00A1  12000002           [039] move       0   4      
00A5  12008002           [040] move       0   5      
00A9  E0C20400           [041] setglobal  11  19       ; DissolveIn
00AD  E0020500           [042] setglobal  11  20       ; -548163315
00B1  E5C20000           [043] closure    11  3      
00B5  12008001           [044] move       0   3      
00B9  12000001           [045] move       0   2      
00BD  12000004           [046] move       0   8      
00C1  12000005           [047] move       0   10     
00C5  12000002           [048] move       0   4      
00C9  E0420500           [049] setglobal  11  21       ; OperatorCustomization
00CD  E0820500           [050] setglobal  11  22       ; -1606311252
00D1  E5020100           [051] closure    11  4      
00D5  E0C20500           [052] setglobal  11  23       ; TennoDecoCustomization
00D9  E0020600           [053] setglobal  11  24       ; -255861912
00DD  E5420100           [054] closure    11  5      
00E1  E0420600           [055] setglobal  11  25       ; TennoCustomization
00E5  E0820600           [056] setglobal  11  26       ; -809355530
00E9  E5820100           [057] closure    11  6      
00ED  12000000           [058] move       0   0      
00F1  12008000           [059] move       0   1      
00F5  E0C20600           [060] setglobal  11  27       ; OperatorSpawnEffect
00F9  E0020700           [061] setglobal  11  28       ; 1410017597
00FD  E5C20100           [062] closure    11  7      
0101  25030200           [063] closure    12  8      
0105  12008004           [064] move       0   9      
0109  12008005           [065] move       0   11     
010D  12008003           [066] move       0   7      
0111  12000002           [067] move       0   4      
0115  12000004           [068] move       0   8      
0119  12000003           [069] move       0   6      
011D  20430700           [070] setglobal  12  29       ; OperatorCinematicSpawnIn
0121  20830700           [071] setglobal  12  30       ; 1781184073
0125  25430200           [072] closure    12  9      
0129  12000003           [073] move       0   6      
012D  12008003           [074] move       0   7      
0131  12000004           [075] move       0   8      
0135  12000002           [076] move       0   4      
0139  20C30700           [077] setglobal  12  31       ; Scene12OperatorCinematicSpawnIn
013D  20030800           [078] setglobal  12  32       ; 1845739863
0141  25830200           [079] closure    12  10     
0145  12008004           [080] move       0   9      
0149  12008005           [081] move       0   11     
014D  12000003           [082] move       0   6      
0151  12008003           [083] move       0   7      
0155  12000002           [084] move       0   4      
0159  12000004           [085] move       0   8      
015D  20430800           [086] setglobal  12  33       ; OperatorCinematicSpawnOut
0161  20830800           [087] setglobal  12  34       ; 827349649
0165  25C30200           [088] closure    12  11     
0169  12008004           [089] move       0   9      
016D  12008005           [090] move       0   11     
0171  12000003           [091] move       0   6      
0175  12008003           [092] move       0   7      
0179  12000004           [093] move       0   8      
017D  12000002           [094] move       0   4      
0181  20C30800           [095] setglobal  12  35       ; OperatorDeathSpawnOut
0185  20030900           [096] setglobal  12  36       ; 563102019
0189  25030300           [097] closure    12  12     
018D  20430900           [098] setglobal  12  37       ; MaskHair
0191  20830900           [099] setglobal  12  38       ; 565608280
0195  1E008000           [100] return     0   1      
                         * constants:
0199  27                 sizek (39)
019A  01                 const type 3
019B  1A4B27EC           const [0]: (-332969190)
019F  04                 const type 4
01A0  10                 string size (16)
01A1  47414D455F52315F+  "GAME_R1_"
01A9  574541504F4E3100   "WEAPON1\0"
                         const [1]: "GAME_R1_WEAPON1"
01B1  04                 const type 4
01B2  10                 string size (16)
01B3  47414D455F4C315F+  "GAME_L1_"
01BB  574541504F4E3100   "WEAPON1\0"
                         const [2]: "GAME_L1_WEAPON1"
01C3  03                 const type 3
01C4  00008040           const [3]: (0)
01C8  03                 const type 3
01C9  00000040           const [4]: (0)
01CD  04                 const type 4
01CE  0B                 string size (11)
01CF  50696E6368417474+  "PinchAtt"
01D7  656E00             "en\0"
                         const [5]: "PinchAtten"
01DA  04                 const type 4
01DB  0B                 string size (11)
01DC  556E6C6974417474+  "UnlitAtt"
01E4  656E00             "en\0"
                         const [6]: "UnlitAtten"
01E7  04                 const type 4
01E8  0B                 string size (11)
01E9  4178697356656374+  "AxisVect"
01F1  6F7200             "or\0"
                         const [7]: "AxisVector"
01F4  04                 const type 4
01F5  0C                 string size (12)
01F6  50696E63684C656E+  "PinchLen"
01FE  67746800           "gth\0"
                         const [8]: "PinchLength"
0202  04                 const type 4
0203  13                 string size (19)
0204  50696E63684F7665+  "PinchOve"
020C  7272696465506F69+  "rridePoi"
0214  6E7400             "nt\0"
                         const [9]: "PinchOverridePoint"
0217  04                 const type 4
0218  0D                 string size (13)
0219  47414D455F43315F+  "GAME_C1_"
0221  4849503100         "HIP1\0"
                         const [10]: "GAME_C1_HIP1"
0226  01                 const type 3
0227  00971C22           const [11]: (572299008)
022B  03                 const type 3
022C  000000BF           const [12]: (0)
0230  03                 const type 3
0231  00000000           const [13]: (0)
0235  03                 const type 3
0236  000040C0           const [14]: (0)
023A  04                 const type 4
023B  13                 string size (19)
023C  4F70657261746F72+  "Operator"
0244  416E696D6174696F+  "Animatio"
024C  6E7300             "ns\0"
                         const [15]: "OperatorAnimations"
024F  01                 const type 3
0250  92CD4368           const [16]: (1749274002)
0254  04                 const type 4
0255  10                 string size (16)
0256  54656E6E6F416E69+  "TennoAni"
025E  6D6174696F6E7300   "mations\0"
                         const [17]: "TennoAnimations"
0266  01                 const type 3
0267  B9EAAC52           const [18]: (1387063993)
026B  04                 const type 4
026C  0B                 string size (11)
026D  446973736F6C7665+  "Dissolve"
0275  496E00             "In\0"
                         const [19]: "DissolveIn"
0278  01                 const type 3
0279  0DB153DF           const [20]: (-548163315)
027D  04                 const type 4
027E  16                 string size (22)
027F  4F70657261746F72+  "Operator"
0287  437573746F6D697A+  "Customiz"
028F  6174696F6E00       "ation\0"
                         const [21]: "OperatorCustomization"
0295  01                 const type 3
0296  ACA241A0           const [22]: (-1606311252)
029A  04                 const type 4
029B  17                 string size (23)
029C  54656E6E6F446563+  "TennoDec"
02A4  6F437573746F6D69+  "oCustomi"
02AC  7A6174696F6E00     "zation\0"
                         const [23]: "TennoDecoCustomization"
02B3  01                 const type 3
02B4  68DBBFF0           const [24]: (-255861912)
02B8  04                 const type 4
02B9  13                 string size (19)
02BA  54656E6E6F437573+  "TennoCus"
02C2  746F6D697A617469+  "tomizati"
02CA  6F6E00             "on\0"
                         const [25]: "TennoCustomization"
02CD  01                 const type 3
02CE  F636C2CF           const [26]: (-809355530)
02D2  04                 const type 4
02D3  14                 string size (20)
02D4  4F70657261746F72+  "Operator"
02DC  537061776E456666+  "SpawnEff"
02E4  65637400           "ect\0"
                         const [27]: "OperatorSpawnEffect"
02E8  01                 const type 3
02E9  3D290B54           const [28]: (1410017597)
02ED  04                 const type 4
02EE  19                 string size (25)
02EF  4F70657261746F72+  "Operator"
02F7  43696E656D617469+  "Cinemati"
02FF  63537061776E496E+  "cSpawnIn"
0307  00                 "\0"
                         const [29]: "OperatorCinematicSpawnIn"
0308  01                 const type 3
0309  49B62A6A           const [30]: (1781184073)
030D  04                 const type 4
030E  20                 string size (32)
030F  5363656E6531324F+  "Scene12O"
0317  70657261746F7243+  "peratorC"
031F  696E656D61746963+  "inematic"
0327  537061776E496E00   "SpawnIn\0"
                         const [31]: "Scene12OperatorCinematicSpawnIn"
032F  01                 const type 3
0330  57C1036E           const [32]: (1845739863)
0334  04                 const type 4
0335  1A                 string size (26)
0336  4F70657261746F72+  "Operator"
033E  43696E656D617469+  "Cinemati"
0346  63537061776E4F75+  "cSpawnOu"
034E  7400               "t\0"
                         const [33]: "OperatorCinematicSpawnOut"
0350  01                 const type 3
0351  915A5031           const [34]: (827349649)
0355  04                 const type 4
0356  16                 string size (22)
0357  4F70657261746F72+  "Operator"
035F  4465617468537061+  "DeathSpa"
0367  776E4F757400       "wnOut\0"
                         const [35]: "OperatorDeathSpawnOut"
036D  01                 const type 3
036E  43419021           const [36]: (563102019)
0372  04                 const type 4
0373  09                 string size (9)
0374  4D61736B48616972+  "MaskHair"
037C  00                 "\0"
                         const [37]: "MaskHair"
037D  01                 const type 3
037E  587FB621           const [38]: (565608280)
                         * functions:
0382  0D                 sizep (13)
                         
0383                     ** function [0] definition (level 2)
                         ** start of function **
0383  00                 string size (0)
                         source name: (none)
0384  27                 line defined (39)
0385  2E                 last line defined (46)
0386  00                 nups (0)
0387  01                 numparams (1)
0388  00                 is_vararg (0)
0389  06                 maxstacksize (6)
                         * code:
038A  15                 sizecode (21)
038B  5D000000           [01] getglobal  1   0        ; 1074689893
038F  92000000           [02] move       2   0      
0393  62800001           [03] call       1   2   2  
0397  58400000           [04] test       1       1    ; to [6] if false
039B  1A000180           [05] jmp        5            ; to [11]
039F  64404000           [06] self       1   0   257  ; 2056776437
03A3  DD800000           [07] getglobal  3   2        ; animToPlay
03A7  17018000           [08] loadbool   4   1   0    ; true
03AB  57010000           [09] loadbool   5   0   0    ; false
03AF  62408002           [10] call       1   5   1  
03B3  5D000000           [11] getglobal  1   0        ; 1074689893
03B7  92000000           [12] move       2   0      
03BB  62800001           [13] call       1   2   2  
03BF  58400000           [14] test       1       1    ; to [16] if false
03C3  1A000180           [15] jmp        5            ; to [21]
03C7  64404000           [16] self       1   0   257  ; 2056776437
03CB  DDC00000           [17] getglobal  3   3        ; loopAnimToPlay
03CF  17010000           [18] loadbool   4   0   0    ; false
03D3  57018000           [19] loadbool   5   1   0    ; true
03D7  62408002           [20] call       1   5   1  
03DB  1E008000           [21] return     0   1      
                         * constants:
03DF  04                 sizek (4)
03E0  01                 const type 3
03E1  65770E40           const [0]: (1074689893)
03E5  01                 const type 3
03E6  F5EA977A           const [1]: (2056776437)
03EA  04                 const type 4
03EB  0B                 string size (11)
03EC  616E696D546F506C+  "animToPl"
03F4  617900             "ay\0"
                         const [2]: "animToPlay"
03F7  04                 const type 4
03F8  0F                 string size (15)
03F9  6C6F6F70416E696D+  "loopAnim"
0401  546F506C617900     "ToPlay\0"
                         const [3]: "loopAnimToPlay"
                         * functions:
0408  00                 sizep (0)
                         * lines:
0409  15                 sizelineinfo (21)
                         [pc] (line)
040A  28                 [01] (40)
040B  00                 [02] (40)
040C  00                 [03] (40)
040D  00                 [04] (40)
040E  28                 [05] (40)
040F  00                 [06] (41)
0410  00                 [07] (41)
0411  00                 [08] (41)
0412  28                 [09] (41)
0413  00                 [10] (41)
0414  00                 [11] (43)
0415  00                 [12] (43)
0416  28                 [13] (43)
0417  00                 [14] (43)
0418  00                 [15] (43)
0419  00                 [16] (44)
041A  28                 [17] (44)
041B  00                 [18] (44)
041C  00                 [19] (44)
041D  00                 [20] (44)
041E  29                 [21] (46)
                         * locals:
045E  00                 sizelocvars (0)
                         * upvalues:
045F  00                 sizeupvalues (0)
                         ** end of function **

                         
0460                     ** function [1] definition (level 2)
                         ** start of function **
0460  00                 string size (0)
                         source name: (none)
0461  30                 line defined (48)
0462  35                 last line defined (53)
0463  00                 nups (0)
0464  01                 numparams (1)
0465  00                 is_vararg (0)
0466  08                 maxstacksize (8)
                         * code:
0467  18                 sizecode (24)
0468  5D000000           [01] getglobal  1   0        ; 1074689893
046C  92000000           [02] move       2   0      
0470  62800001           [03] call       1   2   2  
0474  58400000           [04] test       1       1    ; to [6] if false
0478  1A000280           [05] jmp        9            ; to [15]
047C  64404000           [06] self       1   0   257  ; 2056776437
0480  DD800000           [07] getglobal  3   2        ; tennoAnimToPlay
0484  17018000           [08] loadbool   4   1   0    ; true
0488  5DC10000           [09] getglobal  5   3        ; Engine
048C  4E01C102           [10] gettable   5   5   260  ; "ATMM_PHYSICS_DRIVEN"
0490  9DC10000           [11] getglobal  6   3        ; Engine
0494  8E414103           [12] gettable   6   6   261  ; "PRT_FREEZE"
0498  D7018000           [13] loadbool   7   1   0    ; true
049C  62408003           [14] call       1   7   1  
04A0  64404000           [15] self       1   0   257  ; 2056776437
04A4  DD800100           [16] getglobal  3   6        ; tennoLoopAnimToPlay
04A8  17018000           [17] loadbool   4   1   0    ; true
04AC  5DC10000           [18] getglobal  5   3        ; Engine
04B0  4E01C102           [19] gettable   5   5   260  ; "ATMM_PHYSICS_DRIVEN"
04B4  9DC10000           [20] getglobal  6   3        ; Engine
04B8  8EC14103           [21] gettable   6   6   263  ; "PRT_LOOP"
04BC  D7018000           [22] loadbool   7   1   0    ; true
04C0  62408003           [23] call       1   7   1  
04C4  1E008000           [24] return     0   1      
                         * constants:
04C8  08                 sizek (8)
04C9  01                 const type 3
04CA  65770E40           const [0]: (1074689893)
04CE  01                 const type 3
04CF  F5EA977A           const [1]: (2056776437)
04D3  04                 const type 4
04D4  10                 string size (16)
04D5  74656E6E6F416E69+  "tennoAni"
04DD  6D546F506C617900   "mToPlay\0"
                         const [2]: "tennoAnimToPlay"
04E5  04                 const type 4
04E6  07                 string size (7)
04E7  456E67696E6500     "Engine\0"
                         const [3]: "Engine"
04EE  04                 const type 4
04EF  14                 string size (20)
04F0  41544D4D5F504859+  "ATMM_PHY"
04F8  534943535F445249+  "SICS_DRI"
0500  56454E00           "VEN\0"
                         const [4]: "ATMM_PHYSICS_DRIVEN"
0504  04                 const type 4
0505  0B                 string size (11)
0506  5052545F46524545+  "PRT_FREE"
050E  5A4500             "ZE\0"
                         const [5]: "PRT_FREEZE"
0511  04                 const type 4
0512  14                 string size (20)
0513  74656E6E6F4C6F6F+  "tennoLoo"
051B  70416E696D546F50+  "pAnimToP"
0523  6C617900           "lay\0"
                         const [6]: "tennoLoopAnimToPlay"
0527  04                 const type 4
0528  09                 string size (9)
0529  5052545F4C4F4F50+  "PRT_LOOP"
0531  00                 "\0"
                         const [7]: "PRT_LOOP"
                         * functions:
0532  00                 sizep (0)
                         * lines:
0533  18                 sizelineinfo (24)
                         [pc] (line)
0534  31                 [01] (49)
0535  00                 [02] (49)
0536  00                 [03] (49)
0537  00                 [04] (49)
0538  31                 [05] (49)
0539  00                 [06] (50)
053A  00                 [07] (50)
053B  00                 [08] (50)
053C  31                 [09] (50)
053D  00                 [10] (50)
053E  00                 [11] (50)
053F  00                 [12] (50)
0540  31                 [13] (50)
0541  00                 [14] (50)
0542  00                 [15] (52)
0543  00                 [16] (52)
0544  31                 [17] (52)
0545  00                 [18] (52)
0546  00                 [19] (52)
0547  00                 [20] (52)
0548  32                 [21] (52)
0549  00                 [22] (52)
054A  00                 [23] (52)
054B  00                 [24] (53)
                         * locals:
0594  00                 sizelocvars (0)
                         * upvalues:
0595  00                 sizeupvalues (0)
                         ** end of function **

                         
0596                     ** function [2] definition (level 2)
                         ** start of function **
0596  00                 string size (0)
                         source name: (none)
0597  37                 line defined (55)
0598  A7                 last line defined (167)
0599  01                 nups (2)
059A  02                 numparams (1)
059B  01                 is_vararg (0)
059C  00                 maxstacksize (37)
                         * code:
059F  02                 sizecode (323)
05A0  64004000           [001] self       1   0   256  ; -1870903749
05A4  62800001           [002] call       1   2   2  
05A8  9D400000           [003] getglobal  2   1        ; 1074689893
05AC  D2008000           [004] move       3   1      
05B0  A2800001           [005] call       2   2   2  
05B4  98000000           [006] test       2       0    ; to [8] if true
05B8  1A000080           [007] jmp        1            ; to [9]
05BC  1E008000           [008] return     0   1      
05C0  A480C000           [009] self       2   1   258  ; -1917464545
05C4  A2800001           [010] call       2   2   2  
05C8  A4C04001           [011] self       2   2   259  ; 1769516121
05CC  A2800001           [012] call       2   2   2  
05D0  E480C000           [013] self       3   1   258  ; -1917464545
05D4  E2800001           [014] call       3   2   2  
05D8  E400C101           [015] self       3   3   260  ; 1674984496
05DC  5D410100           [016] getglobal  5   5        ; Engine
05E0  4E81C102           [017] gettable   5   5   262  ; "SLOT_10"
05E4  E2808001           [018] call       3   3   2  
05E8  1D410000           [019] getglobal  4   1        ; 1074689893
05EC  52010001           [020] move       5   2      
05F0  22810001           [021] call       4   2   2  
05F4  18410000           [022] test       4       1    ; to [24] if false
05F8  1A400780           [023] jmp        30           ; to [54]
05FC  24C14101           [024] self       4   2   263  ; -1248722759
0600  22810001           [025] call       4   2   2  
0604  18010000           [026] test       4       0    ; to [28] if true
0608  1AC00080           [027] jmp        4            ; to [32]
060C  6401C200           [028] self       5   1   264  ; -389013178
0610  D2010002           [029] move       7   4      
0614  62418001           [030] call       5   3   1  
0618  1A800080           [031] jmp        3            ; to [35]
061C  6401C200           [032] self       5   1   264  ; -389013178
0620  C6018003           [033] loadnil    7   7      
0624  62418001           [034] call       5   3   1  
0628  64414201           [035] self       5   2   265  ; -1301101939
062C  62810001           [036] call       5   2   2  
0630  9D410000           [037] getglobal  6   1        ; 1074689893
0634  D2018002           [038] move       7   5      
0638  A2810001           [039] call       6   2   2  
063C  98410000           [040] test       6       1    ; to [42] if false
0640  1A800080           [041] jmp        3            ; to [45]
0644  A481C200           [042] self       6   1   266  ; 1597432514
0648  12028002           [043] move       8   5      
064C  A2418001           [044] call       6   3   1  
0650  A4C14201           [045] self       6   2   267  ; 902235578
0654  06020004           [046] loadnil    8   8      
0658  A2418001           [047] call       6   3   1  
065C  A4014301           [048] self       6   2   268  ; 1043178418
0660  12028000           [049] move       8   1      
0664  A2418001           [050] call       6   3   1  
0668  9D410300           [051] getglobal  6   13       ; 538022378
066C  D9810300           [052] loadk      7   14       ; 0
0670  A2410001           [053] call       6   2   1  
0674  9DC10300           [054] getglobal  6   15       ; 572299008
0678  A2818000           [055] call       6   1   2  
067C  DDC10300           [056] getglobal  7   15       ; 572299008
0680  E2818000           [057] call       7   1   2  
0684  2402C400           [058] self       8   1   272  ; -1625438872
0688  9D420400           [059] getglobal  10  17       ; OperatorDeco
068C  22828001           [060] call       8   3   2  
0690  4B020000           [061] newtable   9   0   0    ; array=0, hash=0
0694  86020006           [062] loadnil    10  12     
0698  5D430000           [063] getglobal  13  1        ; 1074689893
069C  92030004           [064] move       14  8      
06A0  62830001           [065] call       13  2   2  
06A4  58430000           [066] test       13      1    ; to [68] if false
06A8  1AC00980           [067] jmp        40           ; to [108]
06AC  5D430000           [068] getglobal  13  1        ; 1074689893
06B0  92030004           [069] move       14  8      
06B4  62830001           [070] call       13  2   2  
06B8  58430000           [071] test       13      1    ; to [73] if false
06BC  1A400080           [072] jmp        2            ; to [75]
06C0  64834404           [073] self       13  8   274  ; -1990411311
06C4  62430001           [074] call       13  2   1  
06C8  64C34404           [075] self       13  8   275  ; 196800914
06CC  62830001           [076] call       13  2   2  
06D0  92018006           [077] move       6   13     
06D4  5D030500           [078] getglobal  13  20       ; -1596245111
06D8  A4434504           [079] self       14  8   277  ; -231049143
06DC  A2030001           [080] call       14  2   0  
06E0  62830000           [081] call       13  0   2  
06E4  D2018006           [082] move       7   13     
06E8  64834504           [083] self       13  8   278  ; 2056776437
06EC  DDC30500           [084] getglobal  15  23       ; animToPlay
06F0  17040000           [085] loadbool   16  0   0    ; false
06F4  57040000           [086] loadbool   17  0   0    ; false
06F8  62438002           [087] call       13  5   1  
06FC  64034604           [088] self       13  8   280  ; 366271214
0700  DD430600           [089] getglobal  15  25       ; gDecorationType
0704  62838001           [090] call       13  3   2  
0708  52028006           [091] move       9   13     
070C  64834604           [092] self       13  8   282  ; -1421644046
0710  DDC30600           [093] getglobal  15  27       ; projectorType
0714  1D040700           [094] getglobal  16  28       ; EMPTY_SYMBOL
0718  5D440700           [095] getglobal  17  29       ; ZERO_VECTOR
071C  9D840700           [096] getglobal  18  30       ; ZERO_ROTATION
0720  D2048001           [097] move       19  3      
0724  62838003           [098] call       13  7   2  
0728  92028006           [099] move       10  13     
072C  64034404           [100] self       13  8   272  ; -1625438872
0730  DDC30700           [101] getglobal  15  31       ; scarfType
0734  62838001           [102] call       13  3   2  
0738  D2028006           [103] move       11  13     
073C  64034404           [104] self       13  8   272  ; -1625438872
0740  DD030800           [105] getglobal  15  32       ; hairType
0744  62838001           [106] call       13  3   2  
0748  12038006           [107] move       12  13     
074C  6443C800           [108] self       13  1   289  ; -564624675
0750  62830001           [109] call       13  2   2  
0754  86030007           [110] loadnil    14  14     
0758  DD430000           [111] getglobal  15  1        ; 1074689893
075C  12048006           [112] move       16  13     
0760  E2830001           [113] call       15  2   2  
0764  D8430000           [114] test       15      1    ; to [116] if false
0768  1A000680           [115] jmp        25           ; to [141]
076C  E483C806           [116] self       15  13  290  ; 1808941484
0770  E2830001           [117] call       15  2   2  
0774  1D440000           [118] getglobal  16  1        ; 1074689893
0778  5DC40800           [119] getglobal  17  35       ; _T
077C  4E04C908           [120] gettable   17  17  292  ; "focusKneelingAvatar"
0780  22840001           [121] call       16  2   2  
0784  18440000           [122] test       16      1    ; to [124] if false
0788  1A000480           [123] jmp        17           ; to [141]
078C  1D440000           [124] getglobal  16  1        ; 1074689893
0790  5DC40800           [125] getglobal  17  35       ; _T
0794  4E04C908           [126] gettable   17  17  292  ; "focusKneelingAvatar"
0798  4EC48308           [127] gettable   17  17  15 
079C  22840001           [128] call       16  2   2  
07A0  18440000           [129] test       16      1    ; to [131] if false
07A4  1A400280           [130] jmp        10           ; to [141]
07A8  1DC40800           [131] getglobal  16  35       ; _T
07AC  0E044908           [132] gettable   16  16  292  ; "focusKneelingAvatar"
07B0  8EC30308           [133] gettable   14  16  15 
07B4  1DC40800           [134] getglobal  16  35       ; _T
07B8  0E044908           [135] gettable   16  16  292  ; "focusKneelingAvatar"
07BC  0C44C907           [136] settable   16  15  293  ; nil
07C0  24844507           [137] self       16  14  278  ; 2056776437
07C4  9D840900           [138] getglobal  18  38       ; tennoAnimToPlay
07C8  D7040000           [139] loadbool   19  0   0    ; false
07CC  22440002           [140] call       16  4   1  
07D0  24C4C900           [141] self       16  1   295  ; -1201586349
07D4  22840001           [142] call       16  2   2  
07D8  18040000           [143] test       16      0    ; to [145] if true
07DC  1AC00380           [144] jmp        16           ; to [161]
07E0  1D040A00           [145] getglobal  16  40       ; gRegion
07E4  24444A08           [146] self       16  16  297  ; -1456226250
07E8  22840001           [147] call       16  2   2  
07EC  0E844A08           [148] gettable   16  16  298  ; "postProcess"
07F0  4EC44A08           [149] gettable   17  16  299  ; "viewShake"
07F4  4C844396           [150] settable   17  300 270  ; "mShakeSpeed" 0
07F8  4EC44A08           [151] gettable   17  16  299  ; "viewShake"
07FC  4C84C396           [152] settable   17  301 270  ; "mShakeAmbient" 0
0800  6484CB00           [153] self       17  1   302  ; 1525877273
0804  62840001           [154] call       17  2   2  
0808  A4C4CB08           [155] self       18  17  303  ; 1612278193
080C  1D050C00           [156] getglobal  20  48       ; colorCorrection
0810  A2448001           [157] call       18  3   1  
0814  A444CC08           [158] self       18  17  305  ; -1888027794
0818  19850C00           [159] loadk      20  50       ; 0
081C  A2448001           [160] call       18  3   1  
0820  99840300           [161] loadk      18  14       ; 0
0824  D7040000           [162] loadbool   19  0   0    ; false
0828  1DC50300           [163] getglobal  20  15       ; 572299008
082C  4EC5CC03           [164] gettable   21  7   307  ; "x"
0830  44450599           [165] mul        21  306 21   ; 0
0834  99850300           [166] loadk      22  14       ; 0
0838  CE05CD03           [167] gettable   23  7   308  ; "z"
083C  C4C50599           [168] mul        23  306 23   ; 0
0840  22850002           [169] call       20  4   2  
0844  0D050503           [170] sub        20  6   20 
0848  4605800A           [171] loadnil    21  21     
fail op	21
084C  15804C09           [172] concat     0   18  306
0850  1A402380           [173] jmp        142          ; to [316]
0854  9D450000           [174] getglobal  22  1        ; 1074689893
0858  D2050004           [175] move       23  8      
085C  A2850001           [176] call       22  2   2  
0860  98450000           [177] test       22      1    ; to [179] if false
0864  1A002280           [178] jmp        137          ; to [316]
0868  9D450000           [179] getglobal  22  1        ; 1074689893
086C  D2058000           [180] move       23  1      
0870  A2850001           [181] call       22  2   2  
0874  98450000           [182] test       22      1    ; to [184] if false
0878  1AC02080           [183] jmp        132          ; to [316]
fail op	21
087C  1580849A           [184] concat     0   309 18 
0880  1A400D80           [185] jmp        54           ; to [240]
0884  D8440000           [186] test       19      1    ; to [188] if false
0888  1AC00C80           [187] jmp        52           ; to [240]
088C  A485CD00           [188] self       22  1   310  ; -832323870
0890  A2450001           [189] call       22  2   1  
0894  9D050A00           [190] getglobal  22  40       ; gRegion
0898  A4C54D0B           [191] self       22  22  311  ; -1110225722
089C  1D060E00           [192] getglobal  24  56       ; despawnEffect
08A0  64464E04           [193] self       25  8   313  ; -1565518332
08A4  DD860E00           [194] getglobal  27  58       ; -332969190
08A8  19C70E00           [195] loadk      28  59       ; "GAME_C1_SPINE5"
08AC  E2060001           [196] call       27  2   0  
08B0  62860000           [197] call       25  0   2  
08B4  9D860700           [198] getglobal  26  30       ; ZERO_ROTATION
08B8  D2068001           [199] move       27  3      
08BC  A2450003           [200] call       22  6   1  
08C0  9D450000           [201] getglobal  22  1        ; 1074689893
08C4  D2050007           [202] move       23  14     
08C8  A2850001           [203] call       22  2   2  
08CC  98450000           [204] test       22      1    ; to [206] if false
08D0  1A000880           [205] jmp        33           ; to [239]
08D4  A4C54407           [206] self       22  14  275  ; 196800914
08D8  A2850001           [207] call       22  2   2  
08DC  E4054007           [208] self       23  14  256  ; -1870903749
08E0  E2850001           [209] call       23  2   2  
08E4  1D460000           [210] getglobal  24  1        ; 1074689893
08E8  5206800B           [211] move       25  23     
08EC  22860001           [212] call       24  2   2  
08F0  18460000           [213] test       24      1    ; to [215] if false
08F4  1A000380           [214] jmp        13           ; to [228]
08F8  2406CF0B           [215] self       24  23  316  ; -1957065004
08FC  9D460F00           [216] getglobal  26  61       ; gMoverType
0900  22868001           [217] call       24  3   2  
0904  18060000           [218] test       24      0    ; to [220] if true
0908  1AC00180           [219] jmp        8            ; to [228]
090C  2486CF0B           [220] self       24  23  318  ; -1294286490
0910  22860001           [221] call       24  2   2  
0914  0EC64F0C           [222] gettable   24  24  319  ; "y"
fail op	21
0918  15000687           [223] concat     0   270 24 
091C  1A800080           [224] jmp        3            ; to [228]
0920  0EC64F0B           [225] gettable   24  22  319  ; "y"
0924  0306500C           [226] add        24  24  320  ; 0
0928  8C05869F           [227] settable   22  319 24   ; "y"
092C  2446D000           [228] self       24  1   321  ; 970454089
0930  9206000B           [229] move       26  22     
0934  E4865007           [230] self       27  14  322  ; 54877834
0938  E2060001           [231] call       27  2   0  
093C  22460000           [232] call       24  0   1  
0940  24C6D000           [233] self       24  1   323  ; -1423167726
0944  A4065107           [234] self       26  14  324  ; 814259937
0948  A2060001           [235] call       26  2   0  
094C  22460000           [236] call       24  0   1  
0950  24465107           [237] self       24  14  325  ; -725453761
0954  22460001           [238] call       24  2   1  
0958  D7048000           [239] loadbool   19  1   0    ; true
095C  048604A3           [240] mul        24  326 18   ; 0
0960  4D0506A3           [241] sub        21  326 24   ; 0
0964  24C65104           [242] self       24  8   327  ; -786111647
0968  93060000           [243] getupval   26  0      
096C  D206800A           [244] move       27  21     
0970  22460002           [245] call       24  4   1  
0974  1D061200           [246] getglobal  24  72       ; 1672515847
0978  52068004           [247] move       25  9      
097C  22060101           [248] call       24  2   4  
0980  1A000280           [249] jmp        9            ; to [259]
0984  5D470000           [250] getglobal  29  1        ; 1074689893
0988  9207000E           [251] move       30  28     
098C  62870001           [252] call       29  2   2  
0990  58470000           [253] test       29      1    ; to [255] if false
0994  1AC00080           [254] jmp        4            ; to [259]
0998  64C7510E           [255] self       29  28  327  ; -786111647
099C  D3070000           [256] getupval   31  0      
09A0  1208800A           [257] move       32  21     
09A4  62470002           [258] call       29  4   1  
09A8  16860000           [259] tforloop   24      2    ; to [261] if exit
09AC  1A00FD7F           [260] jmp        -11          ; to [250]
09B0  5D470000           [261] getglobal  29  1        ; 1074689893
09B4  92070005           [262] move       30  10     
09B8  62870001           [263] call       29  2   2  
09BC  58470000           [264] test       29      1    ; to [266] if false
09C0  1AC00080           [265] jmp        4            ; to [270]
09C4  64C75105           [266] self       29  10  327  ; -786111647
09C8  D3070000           [267] getupval   31  0      
09CC  1208800A           [268] move       32  21     
09D0  62470002           [269] call       29  4   1  
09D4  5D470000           [270] getglobal  29  1        ; 1074689893
09D8  92078005           [271] move       30  11     
09DC  62870001           [272] call       29  2   2  
09E0  58470000           [273] test       29      1    ; to [275] if false
09E4  1A000280           [274] jmp        9            ; to [284]
09E8  64C7D105           [275] self       29  11  327  ; -786111647
09EC  D3078000           [276] getupval   31  1      
09F0  1D481200           [277] getglobal  32  73       ; math
09F4  0E885210           [278] gettable   32  32  330  ; -1962864584
09F8  59880300           [279] loadk      33  14       ; 0
09FC  84C85209           [280] mul        34  18  331  ; 0
0A00  8D8808A6           [281] sub        34  332 34   ; 0
0A04  22088001           [282] call       32  3   0  
0A08  62470000           [283] call       29  0   1  
0A0C  5D470000           [284] getglobal  29  1        ; 1074689893
0A10  92070006           [285] move       30  12     
0A14  62870001           [286] call       29  2   2  
0A18  58470000           [287] test       29      1    ; to [289] if false
0A1C  1A800180           [288] jmp        7            ; to [296]
0A20  64475306           [289] self       29  12  333  ; -703571861
0A24  DD471200           [290] getglobal  31  73       ; math
0A28  CE87D30F           [291] gettable   31  31  334  ; -688728047
0A2C  12080009           [292] move       32  18     
0A30  59C81200           [293] loadk      33  75       ; 0
0A34  E2078001           [294] call       31  3   0  
0A38  62470000           [295] call       29  0   1  
0A3C  64C75304           [296] self       29  8   335  ; -333955620
0A40  DD071400           [297] getglobal  31  80       ; -523730508
0A44  12080003           [298] move       32  6      
0A48  5208000A           [299] move       33  20     
0A4C  9D481200           [300] getglobal  34  73       ; math
0A50  8E885311           [301] gettable   34  34  334  ; -688728047
0A54  CD880499           [302] sub        35  306 18   ; 0
0A58  19091300           [303] loadk      36  76       ; 0
0A5C  A2888001           [304] call       34  3   2  
0A60  8D880899           [305] sub        34  306 34   ; 0
0A64  E2070002           [306] call       31  4   0  
0A68  62470000           [307] call       29  0   1  
0A6C  5D471400           [308] getglobal  29  81       ; 1289681407
0A70  62878000           [309] call       29  1   2  
0A74  4487CC0E           [310] mul        29  29  306  ; 0
0A78  83440709           [311] add        18  18  29 
0A7C  5D470300           [312] getglobal  29  13       ; 538022378
0A80  99870300           [313] loadk      30  14       ; 0
0A84  62470001           [314] call       29  2   1  
0A88  1AC0DB7F           [315] jmp        -144         ; to [172]
0A8C  5D470000           [316] getglobal  29  1        ; 1074689893
0A90  92070004           [317] move       30  8      
0A94  62870001           [318] call       29  2   2  
0A98  58470000           [319] test       29      1    ; to [321] if false
0A9C  1A400080           [320] jmp        2            ; to [323]
0AA0  64475104           [321] self       29  8   325  ; -725453761
0AA4  62470001           [322] call       29  2   1  
0AA8  1E008000           [323] return     0   1      
                         * constants:
0AAC  52                 sizek (82)
0AAD  01                 const type 3
0AAE  3B467C90           const [0]: (-1870903749)
0AB2  01                 const type 3
0AB3  65770E40           const [1]: (1074689893)
0AB7  01                 const type 3
0AB8  1FD0B58D           const [2]: (-1917464545)
0ABC  01                 const type 3
0ABD  59AC7869           const [3]: (1769516121)
0AC1  01                 const type 3
0AC2  303CD663           const [4]: (1674984496)
0AC6  04                 const type 4
0AC7  07                 string size (7)
0AC8  456E67696E6500     "Engine\0"
                         const [5]: "Engine"
0ACF  04                 const type 4
0AD0  08                 string size (8)
0AD1  534C4F545F313000   "SLOT_10\0"
                         const [6]: "SLOT_10"
0AD9  01                 const type 3
0ADA  B90092B5           const [7]: (-1248722759)
0ADE  01                 const type 3
0ADF  4621D0E8           const [8]: (-389013178)
0AE3  01                 const type 3
0AE4  8DC272B2           const [9]: (-1301101939)
0AE8  01                 const type 3
0AE9  C2E2365F           const [10]: (1597432514)
0AED  01                 const type 3
0AEE  BA05C735           const [11]: (902235578)
0AF2  01                 const type 3
0AF3  B2A32D3E           const [12]: (1043178418)
0AF7  01                 const type 3
0AF8  EA911120           const [13]: (538022378)
0AFC  03                 const type 3
0AFD  00000000           const [14]: (0)
0B01  01                 const type 3
0B02  00971C22           const [15]: (572299008)
0B06  01                 const type 3
0B07  68C51D9F           const [16]: (-1625438872)
0B0B  04                 const type 4
0B0C  0D                 string size (13)
0B0D  4F70657261746F72+  "Operator"
0B15  4465636F00         "Deco\0"
                         const [17]: "OperatorDeco"
0B1A  01                 const type 3
0B1B  D1BB5C89           const [18]: (-1990411311)
0B1F  01                 const type 3
0B20  92F1BA0B           const [19]: (196800914)
0B24  01                 const type 3
0B25  893BDBA0           const [20]: (-1596245111)
0B29  01                 const type 3
0B2A  49783AF2           const [21]: (-231049143)
0B2E  01                 const type 3
0B2F  F5EA977A           const [22]: (2056776437)
0B33  04                 const type 4
0B34  0B                 string size (11)
0B35  616E696D546F506C+  "animToPl"
0B3D  617900             "ay\0"
                         const [23]: "animToPlay"
0B40  01                 const type 3
0B41  EEDAD415           const [24]: (366271214)
0B45  04                 const type 4
0B46  10                 string size (16)
0B47  674465636F726174+  "gDecorat"
0B4F  696F6E5479706500   "ionType\0"
                         const [25]: "gDecorationType"
0B57  01                 const type 3
0B58  F26E43AB           const [26]: (-1421644046)
0B5C  04                 const type 4
0B5D  0E                 string size (14)
0B5E  70726F6A6563746F+  "projecto"
0B66  725479706500       "rType\0"
                         const [27]: "projectorType"
0B6C  04                 const type 4
0B6D  0D                 string size (13)
0B6E  454D5054595F5359+  "EMPTY_SY"
0B76  4D424F4C00         "MBOL\0"
                         const [28]: "EMPTY_SYMBOL"
0B7B  04                 const type 4
0B7C  0C                 string size (12)
0B7D  5A45524F5F564543+  "ZERO_VEC"
0B85  544F5200           "TOR\0"
                         const [29]: "ZERO_VECTOR"
0B89  04                 const type 4
0B8A  0E                 string size (14)
0B8B  5A45524F5F524F54+  "ZERO_ROT"
0B93  4154494F4E00       "ATION\0"
                         const [30]: "ZERO_ROTATION"
0B99  04                 const type 4
0B9A  0A                 string size (10)
0B9B  7363617266547970+  "scarfTyp"
0BA3  6500               "e\0"
                         const [31]: "scarfType"
0BA5  04                 const type 4
0BA6  09                 string size (9)
0BA7  6861697254797065+  "hairType"
0BAF  00                 "\0"
                         const [32]: "hairType"
0BB0  01                 const type 3
0BB1  DD8258DE           const [33]: (-564624675)
0BB5  01                 const type 3
0BB6  AC41D26B           const [34]: (1808941484)
0BBA  04                 const type 4
0BBB  03                 string size (3)
0BBC  5F5400             "_T\0"
                         const [35]: "_T"
0BBF  04                 const type 4
0BC0  14                 string size (20)
0BC1  666F6375734B6E65+  "focusKne"
0BC9  656C696E67417661+  "elingAva"
0BD1  74617200           "tar\0"
                         const [36]: "focusKneelingAvatar"
0BD5  00                 const type 0
                         const [37]: nil
0BD6  04                 const type 4
0BD7  10                 string size (16)
0BD8  74656E6E6F416E69+  "tennoAni"
0BE0  6D546F506C617900   "mToPlay\0"
                         const [38]: "tennoAnimToPlay"
0BE8  01                 const type 3
0BE9  533F61B8           const [39]: (-1201586349)
0BED  04                 const type 4
0BEE  08                 string size (8)
0BEF  67526567696F6E00   "gRegion\0"
                         const [40]: "gRegion"
0BF7  01                 const type 3
0BF8  36C033A9           const [41]: (-1456226250)
0BFC  04                 const type 4
0BFD  0C                 string size (12)
0BFE  706F737450726F63+  "postProc"
0C06  65737300           "ess\0"
                         const [42]: "postProcess"
0C0A  04                 const type 4
0C0B  0A                 string size (10)
0C0C  766965775368616B+  "viewShak"
0C14  6500               "e\0"
                         const [43]: "viewShake"
0C16  04                 const type 4
0C17  0C                 string size (12)
0C18  6D5368616B655370+  "mShakeSp"
0C20  65656400           "eed\0"
                         const [44]: "mShakeSpeed"
0C24  04                 const type 4
0C25  0E                 string size (14)
0C26  6D5368616B65416D+  "mShakeAm"
0C2E  6269656E7400       "bient\0"
                         const [45]: "mShakeAmbient"
0C34  01                 const type 3
0C35  190AF35A           const [46]: (1525877273)
0C39  01                 const type 3
0C3A  B1691960           const [47]: (1612278193)
0C3E  04                 const type 4
0C3F  10                 string size (16)
0C40  636F6C6F72436F72+  "colorCor"
0C48  72656374696F6E00   "rection\0"
                         const [48]: "colorCorrection"
0C50  01                 const type 3
0C51  6EFB768F           const [49]: (-1888027794)
0C55  03                 const type 3
0C56  0000803F           const [50]: (0)
0C5A  04                 const type 4
0C5B  02                 string size (2)
0C5C  7800               "x\0"
                         const [51]: "x"
0C5E  04                 const type 4
0C5F  02                 string size (2)
0C60  7A00               "z\0"
                         const [52]: "z"
0C62  03                 const type 3
0C63  3333333F           const [53]: (51)
0C67  01                 const type 3
0C68  E2BE63CE           const [54]: (-832323870)
0C6C  01                 const type 3
0C6D  C64CD3BD           const [55]: (-1110225722)
0C71  04                 const type 4
0C72  0E                 string size (14)
0C73  6465737061776E45+  "despawnE"
0C7B  666665637400       "ffect\0"
                         const [56]: "despawnEffect"
0C81  01                 const type 3
0C82  0416B0A2           const [57]: (-1565518332)
0C86  01                 const type 3
0C87  1A4B27EC           const [58]: (-332969190)
0C8B  04                 const type 4
0C8C  0F                 string size (15)
0C8D  47414D455F43315F+  "GAME_C1_"
0C95  5350494E453500     "SPINE5\0"
                         const [59]: "GAME_C1_SPINE5"
0C9C  01                 const type 3
0C9D  D48E598B           const [60]: (-1957065004)
0CA1  04                 const type 4
0CA2  0B                 string size (11)
0CA3  674D6F7665725479+  "gMoverTy"
0CAB  706500             "pe\0"
                         const [61]: "gMoverType"
0CAE  01                 const type 3
0CAF  66C1DAB2           const [62]: (-1294286490)
0CB3  04                 const type 4
0CB4  02                 string size (2)
0CB5  7900               "y\0"
                         const [63]: "y"
0CB7  03                 const type 3
0CB8  0000C03F           const [64]: (0)
0CBC  01                 const type 3
0CBD  49F4D739           const [65]: (970454089)
0CC1  01                 const type 3
0CC2  8A5E4503           const [66]: (54877834)
0CC6  01                 const type 3
0CC7  122F2CAB           const [67]: (-1423167726)
0CCB  01                 const type 3
0CCC  E19E8830           const [68]: (814259937)
0CD0  01                 const type 3
0CD1  3F74C2D4           const [69]: (-725453761)
0CD5  03                 const type 3
0CD6  0000003F           const [70]: (0)
0CDA  01                 const type 3
0CDB  61E324D1           const [71]: (-786111647)
0CDF  01                 const type 3
0CE0  0791B063           const [72]: (1672515847)
0CE4  04                 const type 4
0CE5  05                 string size (5)
0CE6  6D61746800         "math\0"
                         const [73]: "math"
0CEB  01                 const type 3
0CEC  3810018B           const [74]: (-1962864584)
0CF0  03                 const type 3
0CF1  00008040           const [75]: (0)
0CF5  03                 const type 3
0CF6  00000040           const [76]: (0)
0CFA  01                 const type 3
0CFB  6B5810D6           const [77]: (-703571861)
0CFF  01                 const type 3
0D00  11D8F2D6           const [78]: (-688728047)
0D04  01                 const type 3
0D05  DC3D18EC           const [79]: (-333955620)
0D09  01                 const type 3
0D0A  B481C8E0           const [80]: (-523730508)
0D0E  01                 const type 3
0D0F  FFF9DE4C           const [81]: (1289681407)
                         * functions:
0D13  00                 sizep (0)
                         * lines:
0D15  02                 sizelineinfo (323)
                         [pc] (line)
0D16  38                 [001] (56)
0D17  00                 [002] (56)
0D18  00                 [003] (57)
0D19  00                 [004] (57)
0D1A  38                 [005] (57)
0D1B  00                 [006] (57)
0D1C  00                 [007] (57)
0D1D  00                 [008] (58)
0D1E  39                 [009] (61)
0D1F  00                 [010] (61)
0D20  00                 [011] (61)
0D21  00                 [012] (61)
0D22  39                 [013] (62)
0D23  00                 [014] (62)
0D24  00                 [015] (62)
0D25  00                 [016] (62)
0D26  39                 [017] (62)
0D27  00                 [018] (62)
0D28  00                 [019] (64)
0D29  00                 [020] (64)
0D2A  39                 [021] (64)
0D2B  00                 [022] (64)
0D2C  00                 [023] (64)
0D2D  00                 [024] (66)
0D2E  39                 [025] (66)
0D2F  00                 [026] (67)
0D30  00                 [027] (67)
0D31  00                 [028] (68)
0D32  3A                 [029] (68)
0D33  00                 [030] (68)
0D34  00                 [031] (68)
0D35  00                 [032] (70)
0D36  3D                 [033] (70)
0D37  00                 [034] (70)
0D38  00                 [035] (73)
0D39  00                 [036] (73)
0D3A  3D                 [037] (74)
0D3B  00                 [038] (74)
0D3C  00                 [039] (74)
0D3D  00                 [040] (74)
0D3E  3D                 [041] (74)
0D3F  00                 [042] (75)
0D40  00                 [043] (75)
0D41  00                 [044] (75)
0D42  3D                 [045] (78)
0D43  00                 [046] (78)
0D44  00                 [047] (78)
0D45  00                 [048] (79)
0D46  3E                 [049] (79)
0D47  00                 [050] (79)
0D48  00                 [051] (80)
0D49  00                 [052] (80)
0D4A  3E                 [053] (80)
0D4B  00                 [054] (83)
0D4C  00                 [055] (83)
0D4D  00                 [056] (84)
0D4E  3E                 [057] (84)
0D4F  00                 [058] (85)
0D50  00                 [059] (85)
0D51  00                 [060] (85)
0D52  3E                 [061] (86)
0D53  00                 [062] (87)
0D54  00                 [063] (90)
0D55  00                 [064] (90)
0D56  3E                 [065] (90)
0D57  00                 [066] (90)
0D58  00                 [067] (90)
0D59  00                 [068] (91)
0D5A  3E                 [069] (91)
0D5B  00                 [070] (91)
0D5C  00                 [071] (91)
0D5D  00                 [072] (91)
0D5E  40                 [073] (92)
0D5F  00                 [074] (92)
0D60  00                 [075] (94)
0D61  00                 [076] (94)
0D62  40                 [077] (94)
0D63  00                 [078] (95)
0D64  00                 [079] (95)
0D65  00                 [080] (95)
0D66  40                 [081] (95)
0D67  00                 [082] (95)
0D68  00                 [083] (96)
0D69  00                 [084] (96)
0D6A  40                 [085] (96)
0D6B  00                 [086] (96)
0D6C  00                 [087] (96)
0D6D  00                 [088] (97)
0D6E  40                 [089] (97)
0D6F  00                 [090] (97)
0D70  00                 [091] (97)
0D71  00                 [092] (98)
0D72  42                 [093] (98)
0D73  00                 [094] (98)
0D74  00                 [095] (98)
0D75  00                 [096] (98)
0D76  42                 [097] (98)
0D77  00                 [098] (98)
0D78  00                 [099] (98)
0D79  00                 [100] (99)
0D7A  43                 [101] (99)
0D7B  00                 [102] (99)
0D7C  00                 [103] (99)
0D7D  00                 [104] (100)
0D7E  43                 [105] (100)
0D7F  00                 [106] (100)
0D80  00                 [107] (100)
0D81  00                 [108] (103)
0D82  44                 [109] (103)
0D83  00                 [110] (104)
0D84  00                 [111] (105)
0D85  00                 [112] (105)
0D86  44                 [113] (105)
0D87  00                 [114] (105)
0D88  00                 [115] (105)
0D89  00                 [116] (106)
0D8A  44                 [117] (106)
0D8B  00                 [118] (107)
0D8C  00                 [119] (107)
0D8D  00                 [120] (107)
0D8E  44                 [121] (107)
0D8F  00                 [122] (107)
0D90  00                 [123] (107)
0D91  00                 [124] (107)
0D92  46                 [125] (107)
0D93  00                 [126] (107)
0D94  00                 [127] (107)
0D95  00                 [128] (107)
0D96  46                 [129] (107)
0D97  00                 [130] (107)
0D98  00                 [131] (108)
0D99  00                 [132] (108)
0D9A  46                 [133] (108)
0D9B  00                 [134] (109)
0D9C  00                 [135] (109)
0D9D  00                 [136] (109)
0D9E  49                 [137] (110)
0D9F  00                 [138] (110)
0DA0  00                 [139] (110)
0DA1  00                 [140] (110)
0DA2  49                 [141] (114)
0DA3  00                 [142] (114)
0DA4  00                 [143] (114)
0DA5  00                 [144] (114)
0DA6  4A                 [145] (115)
0DA7  00                 [146] (115)
0DA8  00                 [147] (115)
0DA9  00                 [148] (115)
0DAA  4A                 [149] (116)
0DAB  00                 [150] (116)
0DAC  00                 [151] (117)
0DAD  00                 [152] (117)
0DAE  4A                 [153] (118)
0DAF  00                 [154] (118)
0DB0  00                 [155] (119)
0DB1  00                 [156] (119)
0DB2  4A                 [157] (119)
0DB3  00                 [158] (120)
0DB4  00                 [159] (120)
0DB5  00                 [160] (120)
0DB6  4A                 [161] (123)
0DB7  00                 [162] (124)
0DB8  00                 [163] (125)
0DB9  00                 [164] (125)
0DBA  4B                 [165] (125)
0DBB  00                 [166] (125)
0DBC  00                 [167] (125)
0DBD  00                 [168] (125)
0DBE  4B                 [169] (125)
0DBF  00                 [170] (125)
0DC0  00                 [171] (126)
0DC1  00                 [172] (127)
0DC2  4B                 [173] (127)
0DC3  00                 [174] (127)
0DC4  00                 [175] (127)
0DC5  00                 [176] (127)
0DC6  4E                 [177] (127)
0DC7  00                 [178] (127)
0DC8  00                 [179] (127)
0DC9  00                 [180] (127)
0DCA  4E                 [181] (127)
0DCB  00                 [182] (127)
0DCC  00                 [183] (127)
0DCD  00                 [184] (-128)
0DCE  4E                 [185] (-128)
0DCF  00                 [186] (-128)
0DD0  00                 [187] (-128)
0DD1  00                 [188] (-127)
0DD2  4F                 [189] (-127)
0DD3  00                 [190] (-126)
0DD4  00                 [191] (-126)
0DD5  00                 [192] (-126)
0DD6  4F                 [193] (-126)
0DD7  00                 [194] (-126)
0DD8  00                 [195] (-126)
0DD9  00                 [196] (-126)
0DDA  4F                 [197] (-126)
0DDB  00                 [198] (-126)
0DDC  00                 [199] (-126)
0DDD  00                 [200] (-126)
0DDE  50                 [201] (-125)
0DDF  00                 [202] (-125)
0DE0  00                 [203] (-125)
0DE1  00                 [204] (-125)
0DE2  50                 [205] (-125)
0DE3  00                 [206] (-124)
0DE4  00                 [207] (-124)
0DE5  00                 [208] (-123)
0DE6  50                 [209] (-123)
0DE7  00                 [210] (-122)
0DE8  00                 [211] (-122)
0DE9  00                 [212] (-122)
0DEA  53                 [213] (-122)
0DEB  00                 [214] (-122)
0DEC  00                 [215] (-122)
0DED  00                 [216] (-122)
0DEE  53                 [217] (-122)
0DEF  00                 [218] (-122)
0DF0  00                 [219] (-122)
0DF1  00                 [220] (-122)
0DF2  54                 [221] (-122)
0DF3  00                 [222] (-122)
0DF4  00                 [223] (-122)
0DF5  00                 [224] (-122)
0DF6  54                 [225] (-121)
0DF7  00                 [226] (-121)
0DF8  00                 [227] (-121)
0DF9  00                 [228] (-119)
0DFA  55                 [229] (-119)
0DFB  00                 [230] (-119)
0DFC  00                 [231] (-119)
0DFD  00                 [232] (-119)
0DFE  55                 [233] (-118)
0DFF  00                 [234] (-118)
0E00  00                 [235] (-118)
0E01  00                 [236] (-118)
0E02  55                 [237] (-117)
0E03  00                 [238] (-117)
0E04  00                 [239] (-115)
0E05  00                 [240] (-112)
0E06  56                 [241] (-112)
0E07  00                 [242] (-111)
0E08  00                 [243] (-111)
0E09  00                 [244] (-111)
0E0A  57                 [245] (-111)
0E0B  00                 [246] (-110)
0E0C  00                 [247] (-110)
0E0D  00                 [248] (-110)
0E0E  5A                 [249] (-110)
0E0F  00                 [250] (-109)
0E10  00                 [251] (-109)
0E11  00                 [252] (-109)
0E12  5A                 [253] (-109)
0E13  00                 [254] (-109)
0E14  00                 [255] (-108)
0E15  00                 [256] (-108)
0E16  5A                 [257] (-108)
0E17  00                 [258] (-108)
0E18  00                 [259] (-110)
0E19  00                 [260] (-107)
0E1A  5A                 [261] (-105)
0E1B  00                 [262] (-105)
0E1C  00                 [263] (-105)
0E1D  00                 [264] (-105)
0E1E  5A                 [265] (-105)
0E1F  00                 [266] (-104)
0E20  00                 [267] (-104)
0E21  00                 [268] (-104)
0E22  5B                 [269] (-104)
0E23  00                 [270] (-102)
0E24  00                 [271] (-102)
0E25  00                 [272] (-102)
0E26  5B                 [273] (-102)
0E27  00                 [274] (-102)
0E28  00                 [275] (-101)
0E29  00                 [276] (-101)
0E2A  5B                 [277] (-101)
0E2B  00                 [278] (-101)
0E2C  00                 [279] (-101)
0E2D  00                 [280] (-101)
0E2E  5B                 [281] (-101)
0E2F  00                 [282] (-101)
0E30  00                 [283] (-101)
0E31  00                 [284] (-99)
0E32  5B                 [285] (-99)
0E33  00                 [286] (-99)
0E34  00                 [287] (-99)
0E35  00                 [288] (-99)
0E36  5C                 [289] (-98)
0E37  00                 [290] (-98)
0E38  00                 [291] (-98)
0E39  00                 [292] (-98)
0E3A  5C                 [293] (-98)
0E3B  00                 [294] (-98)
0E3C  00                 [295] (-98)
0E3D  00                 [296] (-96)
0E3E  5E                 [297] (-96)
0E3F  00                 [298] (-96)
0E40  00                 [299] (-96)
0E41  00                 [300] (-96)
0E42  5E                 [301] (-96)
0E43  00                 [302] (-96)
0E44  00                 [303] (-96)
0E45  00                 [304] (-96)
0E46  5E                 [305] (-96)
0E47  00                 [306] (-96)
0E48  00                 [307] (-96)
0E49  00                 [308] (-95)
0E4A  5F                 [309] (-95)
0E4B  00                 [310] (-95)
0E4C  00                 [311] (-95)
0E4D  00                 [312] (-94)
0E4E  5F                 [313] (-94)
0E4F  00                 [314] (-94)
0E50  00                 [315] (-94)
0E51  00                 [316] (-92)
0E52  5F                 [317] (-92)
0E53  00                 [318] (-92)
0E54  00                 [319] (-92)
0E55  00                 [320] (-92)
0E56  5F                 [321] (-91)
0E57  00                 [322] (-91)
0E58  00                 [323] (-89)
                         * locals:
1222  00                 sizelocvars (0)
                         * upvalues:
1223  00                 sizeupvalues (0)
                         ** end of function **

                         
1224                     ** function [3] definition (level 2)
                         ** start of function **
1224  00                 string size (0)
                         source name: (none)
1226  01                 line defined (169)
1227  8F                 last line defined (271)
1228  02                 nups (5)
1229  05                 numparams (1)
122A  01                 is_vararg (0)
122B  00                 maxstacksize (35)
                         * code:
122E  02                 sizecode (299)
122F  64004000           [001] self       1   0   256  ; -1870903749
1233  62800001           [002] call       1   2   2  
1237  9D400000           [003] getglobal  2   1        ; 1074689893
123B  D2008000           [004] move       3   1      
123F  A2800001           [005] call       2   2   2  
1243  98000000           [006] test       2       0    ; to [8] if true
1247  1A000080           [007] jmp        1            ; to [9]
124B  1E008000           [008] return     0   1      
124F  A480C000           [009] self       2   1   258  ; -1917464545
1253  A2800001           [010] call       2   2   2  
1257  A4C04001           [011] self       2   2   259  ; 1769516121
125B  A2800001           [012] call       2   2   2  
125F  DD400000           [013] getglobal  3   1        ; 1074689893
1263  12010000           [014] move       4   0      
1267  E2800001           [015] call       3   2   2  
126B  D8400000           [016] test       3       1    ; to [18] if false
126F  1A400180           [017] jmp        6            ; to [24]
1273  E4004100           [018] self       3   0   260  ; -1302048094
1277  5D410100           [019] getglobal  5   5        ; -332969190
127B  99810100           [020] loadk      6   6        ; "OperatorAnimations"
127F  62810001           [021] call       5   2   2  
1283  97010000           [022] loadbool   6   0   0    ; false
1287  E2400002           [023] call       3   4   1  
128B  E480C000           [024] self       3   1   258  ; -1917464545
128F  E2800001           [025] call       3   2   2  
1293  E4C0C101           [026] self       3   3   263  ; 1674984496
1297  5D010200           [027] getglobal  5   8        ; Engine
129B  4E41C202           [028] gettable   5   5   265  ; "SLOT_10"
129F  E2808001           [029] call       3   3   2  
12A3  1D410000           [030] getglobal  4   1        ; 1074689893
12A7  52018001           [031] move       5   3      
12AB  22810001           [032] call       4   2   2  
12AF  18410000           [033] test       4       1    ; to [35] if false
12B3  1AC00380           [034] jmp        16           ; to [51]
12B7  2481C201           [035] self       4   3   266  ; -1301101939
12BB  22810001           [036] call       4   2   2  
12BF  5D410000           [037] getglobal  5   1        ; 1074689893
12C3  92010002           [038] move       6   4      
12C7  62810001           [039] call       5   2   2  
12CB  58410000           [040] test       5       1    ; to [42] if false
12CF  1A800080           [041] jmp        3            ; to [45]
12D3  64C1C200           [042] self       5   1   267  ; 1597432514
12D7  D2010002           [043] move       7   4      
12DB  62418001           [044] call       5   3   1  
12DF  6401C301           [045] self       5   3   268  ; 902235578
12E3  D2010000           [046] move       7   0      
12E7  62418001           [047] call       5   3   1  
12EB  6441C301           [048] self       5   3   269  ; 1043178418
12EF  D2018000           [049] move       7   1      
12F3  62418001           [050] call       5   3   1  
12F7  6481C300           [051] self       5   1   270  ; -1764426596
12FB  62810001           [052] call       5   2   2  
12FF  64C1C302           [053] self       5   5   271  ; 1808941484
1303  62810001           [054] call       5   2   2  
1307  9D410000           [055] getglobal  6   1        ; 1074689893
130B  DD010400           [056] getglobal  7   16       ; _T
130F  CE41C403           [057] gettable   7   7   273  ; "focusKneelingAvatar"
1313  A2810001           [058] call       6   2   2  
1317  98010000           [059] test       6       0    ; to [61] if true
131B  1A800080           [060] jmp        3            ; to [64]
131F  9D010400           [061] getglobal  6   16       ; _T
1323  CB010000           [062] newtable   7   0   0    ; array=0, hash=0
1327  8CC18188           [063] settable   6   273 7    ; "focusKneelingAvatar"
132B  9D810400           [064] getglobal  6   18       ; gRegion
132F  A4C14403           [065] self       6   6   275  ; -1110225722
1333  1D020500           [066] getglobal  8   20       ; tennoAvatarType
1337  6442C500           [067] self       9   1   277  ; 196800914
133B  62820001           [068] call       9   2   2  
133F  A482C500           [069] self       10  1   278  ; 54877834
1343  A2820001           [070] call       10  2   2  
1347  D2028000           [071] move       11  1      
134B  A2810003           [072] call       6   6   2  
134F  E4C1C500           [073] self       7   1   279  ; 1292478819
1353  E2810001           [074] call       7   2   2  
1357  E401C603           [075] self       7   7   280  ; 1768547998
135B  E2810001           [076] call       7   2   2  
135F  1D420000           [077] getglobal  8   1        ; 1074689893
1363  52028003           [078] move       9   7      
1367  22820001           [079] call       8   2   2  
136B  18420000           [080] test       8       1    ; to [82] if false
136F  1AC00080           [081] jmp        4            ; to [86]
1373  24424603           [082] self       8   6   281  ; -1005242665
1377  92028003           [083] move       10  7      
137B  DD820600           [084] getglobal  11  26       ; EMPTY_SYMBOL
137F  22420002           [085] call       8   4   1  
1383  24C24603           [086] self       8   6   283  ; -1183140784
1387  A402C700           [087] self       10  1   284  ; -564624675
138B  A2020001           [088] call       10  2   0  
138F  22420000           [089] call       8   0   1  
1393  1D420000           [090] getglobal  8   1        ; 1074689893
1397  52020003           [091] move       9   6      
139B  22820001           [092] call       8   2   2  
139F  18420000           [093] test       8       1    ; to [95] if false
13A3  1A000680           [094] jmp        25           ; to [120]
13A7  24424703           [095] self       8   6   285  ; -1423167726
13AB  A482C700           [096] self       10  1   286  ; 814259937
13AF  A2020001           [097] call       10  2   0  
13B3  22420000           [098] call       8   0   1  
13B7  24C24703           [099] self       8   6   287  ; -1338608417
13BB  A402C800           [100] self       10  1   288  ; -2031737093
13BF  A2020001           [101] call       10  2   0  
13C3  22420000           [102] call       8   0   1  
13C7  24424803           [103] self       8   6   289  ; 155743781
13CB  99820800           [104] loadk      10  34       ; 0
13CF  22428001           [105] call       8   3   1  
13D3  24C24803           [106] self       8   6   291  ; -1544157541
13D7  22820001           [107] call       8   2   2  
13DB  24024904           [108] self       8   8   292  ; -993749122
13DF  92020003           [109] move       10  6      
13E3  22428001           [110] call       8   3   1  
13E7  24024103           [111] self       8   6   260  ; -1302048094
13EB  9D420100           [112] getglobal  10  5        ; -332969190
13EF  D9420900           [113] loadk      11  37       ; "TennoAnimations"
13F3  A2820001           [114] call       10  2   2  
13F7  D7020000           [115] loadbool   11  0   0    ; false
13FB  22420002           [116] call       8   4   1  
13FF  1D020400           [117] getglobal  8   16       ; _T
1403  0E424404           [118] gettable   8   8   273  ; "focusKneelingAvatar"
1407  0C828102           [119] settable   8   5   6  
140B  2482C900           [120] self       8   1   294  ; 115701976
140F  22420001           [121] call       8   2   1  
1413  24C2C900           [122] self       8   1   295  ; -1201586349
1417  22820001           [123] call       8   2   2  
141B  18020000           [124] test       8       0    ; to [126] if true
141F  1A800680           [125] jmp        27           ; to [153]
1423  1D820400           [126] getglobal  8   18       ; gRegion
1427  24024A04           [127] self       8   8   296  ; -1456226250
142B  22820001           [128] call       8   2   2  
142F  0E424A04           [129] gettable   8   8   297  ; "postProcess"
1433  4E824A04           [130] gettable   9   8   298  ; "viewShake"
1437  93020000           [131] getupval   10  0      
143B  4C828295           [132] settable   9   299 10   ; "mShakeSpeed"
143F  4E824A04           [133] gettable   9   8   298  ; "viewShake"
1443  93028000           [134] getupval   10  1      
1447  4C820296           [135] settable   9   300 10   ; "mShakeAmbient"
144B  6442CB00           [136] self       9   1   301  ; 1525877273
144F  62820001           [137] call       9   2   2  
1453  A482CB04           [138] self       10  9   302  ; 167589562
1457  19C30B00           [139] loadk      12  47       ; 0
145B  59030C00           [140] loadk      13  48       ; 102
145F  99030C00           [141] loadk      14  48       ; 102
1463  D9430C00           [142] loadk      15  49       ; 0
1467  A2420003           [143] call       10  6   1  
146B  A482CC04           [144] self       10  9   306  ; -847416010
146F  1DC30C00           [145] getglobal  12  51       ; colorCorrection
1473  59030D00           [146] loadk      13  52       ; 0
1477  99830800           [147] loadk      14  34       ; 0
147B  D9030D00           [148] loadk      15  52       ; 0
147F  A2420003           [149] call       10  6   1  
1483  A442CD04           [150] self       10  9   309  ; -1888027794
1487  19830D00           [151] loadk      12  54       ; -51
148B  A2428001           [152] call       10  3   1  
148F  A4C24D00           [153] self       10  0   311  ; 366271214
1493  1D030E00           [154] getglobal  12  56       ; gDecorationType
1497  A2828001           [155] call       10  3   2  
149B  E4424E00           [156] self       11  0   313  ; -1421644046
149F  5D830E00           [157] getglobal  13  58       ; projectorType
14A3  9D830600           [158] getglobal  14  26       ; EMPTY_SYMBOL
14A7  DDC30E00           [159] getglobal  15  59       ; ZERO_VECTOR
14AB  1D040F00           [160] getglobal  16  60       ; ZERO_ROTATION
14AF  52048001           [161] move       17  3      
14B3  E2828003           [162] call       11  7   2  
14B7  06030006           [163] loadnil    12  12     
14BB  59430F00           [164] loadk      13  61       ; 0
14BF  A4834F00           [165] self       14  0   318  ; -786111647
14C3  13040001           [166] getupval   16  2      
14C7  59440F00           [167] loadk      17  61       ; 0
14CB  99440F00           [168] loadk      18  61       ; 0
14CF  D9440F00           [169] loadk      19  61       ; 0
14D3  19450F00           [170] loadk      20  61       ; 0
14D7  A2438003           [171] call       14  7   1  
14DB  9DC30F00           [172] getglobal  14  63       ; 1672515847
14DF  D2030005           [173] move       15  10     
14E3  A2030101           [174] call       14  2   4  
14E7  1AC00280           [175] jmp        12           ; to [188]
14EB  DD440000           [176] getglobal  19  1        ; 1074689893
14EF  12050009           [177] move       20  18     
14F3  E2840001           [178] call       19  2   2  
14F7  D8440000           [179] test       19      1    ; to [181] if false
14FB  1A800180           [180] jmp        7            ; to [188]
14FF  E4844F09           [181] self       19  18  318  ; -786111647
1503  53050001           [182] getupval   21  2      
1507  99450F00           [183] loadk      22  61       ; 0
150B  D9450F00           [184] loadk      23  61       ; 0
150F  19460F00           [185] loadk      24  61       ; 0
1513  59460F00           [186] loadk      25  61       ; 0
1517  E2448003           [187] call       19  7   1  
151B  96830000           [188] tforloop   14      2    ; to [190] if exit
151F  1A40FC7F           [189] jmp        -14          ; to [176]
fail op	21
1523  1500CD06           [190] concat     0   13  308
1527  1A001180           [191] jmp        69           ; to [261]
152B  DD440000           [192] getglobal  19  1        ; 1074689893
152F  12058000           [193] move       20  1      
1533  E2840001           [194] call       19  2   2  
1537  D8440000           [195] test       19      1    ; to [197] if false
153B  1AC00F80           [196] jmp        64           ; to [261]
153F  DD440000           [197] getglobal  19  1        ; 1074689893
1543  12050000           [198] move       20  0      
1547  E2840001           [199] call       19  2   2  
154B  D8440000           [200] test       19      1    ; to [202] if false
154F  1A400C80           [201] jmp        50           ; to [252]
1553  DD041000           [202] getglobal  19  64       ; math
1557  CE44D009           [203] gettable   19  19  321  ; -688728047
155B  0D45039A           [204] sub        20  308 13   ; 0
155F  59851000           [205] loadk      21  66       ; 0
1563  E2848001           [206] call       19  3   2  
1567  1DC51000           [207] getglobal  20  67       ; -523730508
156B  5D051100           [208] getglobal  21  68       ; endingLocalOffset
156F  93058001           [209] getupval   22  3      
1573  D2058009           [210] move       23  19     
1577  22850002           [211] call       20  4   2  
157B  64455100           [212] self       21  0   325  ; -1484030041
157F  D205000A           [213] move       23  20     
1583  1D060F00           [214] getglobal  24  60       ; ZERO_ROTATION
1587  62450002           [215] call       21  4   1  
158B  044303A3           [216] mul        12  326 13   ; 0
158F  64854F00           [217] self       21  0   318  ; -786111647
1593  D3050002           [218] getupval   23  4      
1597  12060006           [219] move       24  12     
159B  62450002           [220] call       21  4   1  
159F  4A050005           [221] len        21  10     
fail op	35
15A3  2300CD0A           [222] close      0  
15A7  1AC00080           [223] jmp        4            ; to [228]
15AB  64C54D00           [224] self       21  0   311  ; 366271214
15AF  DD050E00           [225] getglobal  23  56       ; gDecorationType
15B3  62858001           [226] call       21  3   2  
15B7  9202800A           [227] move       10  21     
15BB  5DC50F00           [228] getglobal  21  63       ; 1672515847
15BF  92050005           [229] move       22  10     
15C3  62050101           [230] call       21  2   4  
15C7  1A000280           [231] jmp        9            ; to [241]
15CB  9D460000           [232] getglobal  26  1        ; 1074689893
15CF  D206800C           [233] move       27  25     
15D3  A2860001           [234] call       26  2   2  
15D7  98460000           [235] test       26      1    ; to [237] if false
15DB  1AC00080           [236] jmp        4            ; to [241]
15DF  A486CF0C           [237] self       26  25  318  ; -786111647
15E3  13070002           [238] getupval   28  4      
15E7  52070006           [239] move       29  12     
15EB  A2460002           [240] call       26  4   1  
15EF  56850000           [241] tforloop   21      2    ; to [243] if exit
15F3  1A00FD7F           [242] jmp        -11          ; to [232]
15F7  9D460000           [243] getglobal  26  1        ; 1074689893
15FB  D2068005           [244] move       27  11     
15FF  A2860001           [245] call       26  2   2  
1603  98460000           [246] test       26      1    ; to [248] if false
1607  1AC00080           [247] jmp        4            ; to [252]
160B  A486CF05           [248] self       26  11  318  ; -786111647
160F  13070002           [249] getupval   28  4      
1613  52070006           [250] move       29  12     
1617  A2460002           [251] call       26  4   1  
161B  9DC61100           [252] getglobal  26  71       ; 1289681407
161F  A2868000           [253] call       26  1   2  
1623  DD061200           [254] getglobal  27  72       ; speed
1627  84C6060D           [255] mul        26  26  27 
162B  43838606           [256] add        13  13  26 
162F  9D461200           [257] getglobal  26  73       ; 538022378
1633  D9460F00           [258] loadk      27  61       ; 0
1637  A2460001           [259] call       26  2   1  
163B  1A00EE7F           [260] jmp        -71          ; to [190]
163F  9DC60F00           [261] getglobal  26  63       ; 1672515847
1643  D2060005           [262] move       27  10     
1647  A2060101           [263] call       26  2   4  
164B  1A000280           [264] jmp        9            ; to [274]
164F  DD470000           [265] getglobal  31  1        ; 1074689893
1653  1208000F           [266] move       32  30     
1657  E2870001           [267] call       31  2   2  
165B  D8470000           [268] test       31      1    ; to [270] if false
165F  1AC00080           [269] jmp        4            ; to [274]
1663  E4874F0F           [270] self       31  30  318  ; -786111647
1667  53080002           [271] getupval   33  4      
166B  99881100           [272] loadk      34  70       ; 0
166F  E2470002           [273] call       31  4   1  
1673  96860000           [274] tforloop   26      2    ; to [276] if exit
1677  1A00FD7F           [275] jmp        -11          ; to [265]
167B  DD471200           [276] getglobal  31  73       ; 538022378
167F  19480F00           [277] loadk      32  61       ; 0
1683  E2470001           [278] call       31  2   1  
1687  DD470000           [279] getglobal  31  1        ; 1074689893
168B  12088001           [280] move       32  3      
168F  E2870001           [281] call       31  2   2  
1693  D8470000           [282] test       31      1    ; to [284] if false
1697  1A800380           [283] jmp        15           ; to [299]
169B  DD470000           [284] getglobal  31  1        ; 1074689893
169F  12088000           [285] move       32  1      
16A3  E2870001           [286] call       31  2   2  
16A7  D8470000           [287] test       31      1    ; to [289] if false
16AB  1A400280           [288] jmp        10           ; to [299]
16AF  E487C201           [289] self       31  3   266  ; -1301101939
16B3  E2870001           [290] call       31  2   2  
16B7  1D480000           [291] getglobal  32  1        ; 1074689893
16BB  5208800F           [292] move       33  31     
16BF  22880001           [293] call       32  2   2  
16C3  18480000           [294] test       32      1    ; to [296] if false
16C7  1A800080           [295] jmp        3            ; to [299]
16CB  24C8C200           [296] self       32  1   267  ; 1597432514
16CF  9208800F           [297] move       34  31     
16D3  22488001           [298] call       32  3   1  
16D7  1E008000           [299] return     0   1      
                         * constants:
16DB  4A                 sizek (74)
16DC  01                 const type 3
16DD  3B467C90           const [0]: (-1870903749)
16E1  01                 const type 3
16E2  65770E40           const [1]: (1074689893)
16E6  01                 const type 3
16E7  1FD0B58D           const [2]: (-1917464545)
16EB  01                 const type 3
16EC  59AC7869           const [3]: (1769516121)
16F0  01                 const type 3
16F1  A25264B2           const [4]: (-1302048094)
16F5  01                 const type 3
16F6  1A4B27EC           const [5]: (-332969190)
16FA  04                 const type 4
16FB  13                 string size (19)
16FC  4F70657261746F72+  "Operator"
1704  416E696D6174696F+  "Animatio"
170C  6E7300             "ns\0"
                         const [6]: "OperatorAnimations"
170F  01                 const type 3
1710  303CD663           const [7]: (1674984496)
1714  04                 const type 4
1715  07                 string size (7)
1716  456E67696E6500     "Engine\0"
                         const [8]: "Engine"
171D  04                 const type 4
171E  08                 string size (8)
171F  534C4F545F313000   "SLOT_10\0"
                         const [9]: "SLOT_10"
1727  01                 const type 3
1728  8DC272B2           const [10]: (-1301101939)
172C  01                 const type 3
172D  C2E2365F           const [11]: (1597432514)
1731  01                 const type 3
1732  BA05C735           const [12]: (902235578)
1736  01                 const type 3
1737  B2A32D3E           const [13]: (1043178418)
173B  01                 const type 3
173C  9CFCD496           const [14]: (-1764426596)
1740  01                 const type 3
1741  AC41D26B           const [15]: (1808941484)
1745  04                 const type 4
1746  03                 string size (3)
1747  5F5400             "_T\0"
                         const [16]: "_T"
174A  04                 const type 4
174B  14                 string size (20)
174C  666F6375734B6E65+  "focusKne"
1754  656C696E67417661+  "elingAva"
175C  74617200           "tar\0"
                         const [17]: "focusKneelingAvatar"
1760  04                 const type 4
1761  08                 string size (8)
1762  67526567696F6E00   "gRegion\0"
                         const [18]: "gRegion"
176A  01                 const type 3
176B  C64CD3BD           const [19]: (-1110225722)
176F  04                 const type 4
1770  10                 string size (16)
1771  74656E6E6F417661+  "tennoAva"
1779  7461725479706500   "tarType\0"
                         const [20]: "tennoAvatarType"
1781  01                 const type 3
1782  92F1BA0B           const [21]: (196800914)
1786  01                 const type 3
1787  8A5E4503           const [22]: (54877834)
178B  01                 const type 3
178C  63A9094D           const [23]: (1292478819)
1790  01                 const type 3
1791  9EE66969           const [24]: (1768547998)
1795  01                 const type 3
1796  D73615C4           const [25]: (-1005242665)
179A  04                 const type 4
179B  0D                 string size (13)
179C  454D5054595F5359+  "EMPTY_SY"
17A4  4D424F4C00         "MBOL\0"
                         const [26]: "EMPTY_SYMBOL"
17A9  01                 const type 3
17AA  50B47AB9           const [27]: (-1183140784)
17AE  01                 const type 3
17AF  DD8258DE           const [28]: (-564624675)
17B3  01                 const type 3
17B4  122F2CAB           const [29]: (-1423167726)
17B8  01                 const type 3
17B9  E19E8830           const [30]: (814259937)
17BD  01                 const type 3
17BE  DF7436B0           const [31]: (-1338608417)
17C2  01                 const type 3
17C3  FB26E686           const [32]: (-2031737093)
17C7  01                 const type 3
17C8  25764809           const [33]: (155743781)
17CC  03                 const type 3
17CD  000080BF           const [34]: (0)
17D1  01                 const type 3
17D2  9B06F6A3           const [35]: (-1544157541)
17D6  01                 const type 3
17D7  7E97C4C4           const [36]: (-993749122)
17DB  04                 const type 4
17DC  10                 string size (16)
17DD  54656E6E6F416E69+  "TennoAni"
17E5  6D6174696F6E7300   "mations\0"
                         const [37]: "TennoAnimations"
17ED  01                 const type 3
17EE  D878E506           const [38]: (115701976)
17F2  01                 const type 3
17F3  533F61B8           const [39]: (-1201586349)
17F7  01                 const type 3
17F8  36C033A9           const [40]: (-1456226250)
17FC  04                 const type 4
17FD  0C                 string size (12)
17FE  706F737450726F63+  "postProc"
1806  65737300           "ess\0"
                         const [41]: "postProcess"
180A  04                 const type 4
180B  0A                 string size (10)
180C  766965775368616B+  "viewShak"
1814  6500               "e\0"
                         const [42]: "viewShake"
1816  04                 const type 4
1817  0C                 string size (12)
1818  6D5368616B655370+  "mShakeSp"
1820  65656400           "eed\0"
                         const [43]: "mShakeSpeed"
1824  04                 const type 4
1825  0E                 string size (14)
1826  6D5368616B65416D+  "mShakeAm"
182E  6269656E7400       "bient\0"
                         const [44]: "mShakeAmbient"
1834  01                 const type 3
1835  190AF35A           const [45]: (1525877273)
1839  01                 const type 3
183A  BA36FD09           const [46]: (167589562)
183E  03                 const type 3
183F  0000A03F           const [47]: (0)
1843  03                 const type 3
1844  6666863F           const [48]: (102)
1848  03                 const type 3
1849  00006040           const [49]: (0)
184D  01                 const type 3
184E  36757DCD           const [50]: (-847416010)
1852  04                 const type 4
1853  10                 string size (16)
1854  636F6C6F72436F72+  "colorCor"
185C  72656374696F6E00   "rection\0"
                         const [51]: "colorCorrection"
1864  03                 const type 3
1865  0000803F           const [52]: (0)
1869  01                 const type 3
186A  6EFB768F           const [53]: (-1888027794)
186E  03                 const type 3
186F  CDCC8C3F           const [54]: (-51)
1873  01                 const type 3
1874  EEDAD415           const [55]: (366271214)
1878  04                 const type 4
1879  10                 string size (16)
187A  674465636F726174+  "gDecorat"
1882  696F6E5479706500   "ionType\0"
                         const [56]: "gDecorationType"
188A  01                 const type 3
188B  F26E43AB           const [57]: (-1421644046)
188F  04                 const type 4
1890  0E                 string size (14)
1891  70726F6A6563746F+  "projecto"
1899  725479706500       "rType\0"
                         const [58]: "projectorType"
189F  04                 const type 4
18A0  0C                 string size (12)
18A1  5A45524F5F564543+  "ZERO_VEC"
18A9  544F5200           "TOR\0"
                         const [59]: "ZERO_VECTOR"
18AD  04                 const type 4
18AE  0E                 string size (14)
18AF  5A45524F5F524F54+  "ZERO_ROT"
18B7  4154494F4E00       "ATION\0"
                         const [60]: "ZERO_ROTATION"
18BD  03                 const type 3
18BE  00000000           const [61]: (0)
18C2  01                 const type 3
18C3  61E324D1           const [62]: (-786111647)
18C7  01                 const type 3
18C8  0791B063           const [63]: (1672515847)
18CC  04                 const type 4
18CD  05                 string size (5)
18CE  6D61746800         "math\0"
                         const [64]: "math"
18D3  01                 const type 3
18D4  11D8F2D6           const [65]: (-688728047)
18D8  03                 const type 3
18D9  00004040           const [66]: (0)
18DD  01                 const type 3
18DE  B481C8E0           const [67]: (-523730508)
18E2  04                 const type 4
18E3  12                 string size (18)
18E4  656E64696E674C6F+  "endingLo"
18EC  63616C4F66667365+  "calOffse"
18F4  7400               "t\0"
                         const [68]: "endingLocalOffset"
18F6  01                 const type 3
18F7  A77F8BA7           const [69]: (-1484030041)
18FB  03                 const type 3
18FC  0000003F           const [70]: (0)
1900  01                 const type 3
1901  FFF9DE4C           const [71]: (1289681407)
1905  04                 const type 4
1906  06                 string size (6)
1907  737065656400       "speed\0"
                         const [72]: "speed"
190D  01                 const type 3
190E  EA911120           const [73]: (538022378)
                         * functions:
1912  00                 sizep (0)
                         * lines:
1914  02                 sizelineinfo (299)
                         [pc] (line)
1915  AA                 [001] (-86)
1916  00                 [002] (-86)
1917  00                 [003] (-85)
1918  00                 [004] (-85)
1919  AA                 [005] (-85)
191A  00                 [006] (-85)
191B  00                 [007] (-85)
191C  00                 [008] (-84)
191D  AB                 [009] (-81)
191E  00                 [010] (-81)
191F  00                 [011] (-81)
1920  00                 [012] (-81)
1921  AB                 [013] (-80)
1922  00                 [014] (-80)
1923  00                 [015] (-80)
1924  00                 [016] (-80)
1925  AB                 [017] (-80)
1926  00                 [018] (-79)
1927  00                 [019] (-79)
1928  00                 [020] (-79)
1929  AB                 [021] (-79)
192A  00                 [022] (-79)
192B  00                 [023] (-79)
192C  00                 [024] (-76)
192D  AB                 [025] (-76)
192E  00                 [026] (-76)
192F  00                 [027] (-76)
1930  00                 [028] (-76)
1931  AC                 [029] (-76)
1932  00                 [030] (-75)
1933  00                 [031] (-75)
1934  00                 [032] (-75)
1935  AF                 [033] (-75)
1936  00                 [034] (-75)
1937  00                 [035] (-74)
1938  00                 [036] (-74)
1939  AF                 [037] (-73)
193A  00                 [038] (-73)
193B  00                 [039] (-73)
193C  00                 [040] (-73)
193D  AF                 [041] (-73)
193E  00                 [042] (-72)
193F  00                 [043] (-72)
1940  00                 [044] (-72)
1941  AF                 [045] (-70)
1942  00                 [046] (-70)
1943  00                 [047] (-70)
1944  00                 [048] (-69)
1945  B0                 [049] (-69)
1946  00                 [050] (-69)
1947  00                 [051] (-66)
1948  00                 [052] (-66)
1949  B0                 [053] (-66)
194A  00                 [054] (-66)
194B  00                 [055] (-65)
194C  00                 [056] (-65)
194D  B0                 [057] (-65)
194E  00                 [058] (-65)
194F  00                 [059] (-65)
1950  00                 [060] (-65)
1951  B0                 [061] (-64)
1952  00                 [062] (-64)
1953  00                 [063] (-64)
1954  00                 [064] (-60)
1955  B0                 [065] (-60)
1956  00                 [066] (-60)
1957  00                 [067] (-60)
1958  00                 [068] (-60)
1959  B1                 [069] (-60)
195A  00                 [070] (-60)
195B  00                 [071] (-60)
195C  00                 [072] (-60)
195D  B1                 [073] (-59)
195E  00                 [074] (-59)
195F  00                 [075] (-59)
1960  00                 [076] (-59)
1961  B1                 [077] (-58)
1962  00                 [078] (-58)
1963  00                 [079] (-58)
1964  00                 [080] (-58)
1965  B1                 [081] (-58)
1966  00                 [082] (-57)
1967  00                 [083] (-57)
1968  00                 [084] (-57)
1969  B1                 [085] (-57)
196A  00                 [086] (-55)
196B  00                 [087] (-55)
196C  00                 [088] (-55)
196D  B1                 [089] (-55)
196E  00                 [090] (-54)
196F  00                 [091] (-54)
1970  00                 [092] (-54)
1971  B4                 [093] (-54)
1972  00                 [094] (-54)
1973  00                 [095] (-53)
1974  00                 [096] (-53)
1975  B4                 [097] (-53)
1976  00                 [098] (-53)
1977  00                 [099] (-52)
1978  00                 [100] (-52)
1979  B4                 [101] (-52)
197A  00                 [102] (-52)
197B  00                 [103] (-51)
197C  00                 [104] (-51)
197D  B4                 [105] (-51)
197E  00                 [106] (-50)
197F  00                 [107] (-50)
1980  00                 [108] (-50)
1981  B4                 [109] (-50)
1982  00                 [110] (-50)
1983  00                 [111] (-48)
1984  00                 [112] (-48)
1985  B4                 [113] (-48)
1986  00                 [114] (-48)
1987  00                 [115] (-48)
1988  00                 [116] (-48)
1989  B5                 [117] (-47)
198A  00                 [118] (-47)
198B  00                 [119] (-47)
198C  00                 [120] (-44)
198D  B5                 [121] (-44)
198E  00                 [122] (-42)
198F  00                 [123] (-42)
1990  00                 [124] (-42)
1991  B5                 [125] (-42)
1992  00                 [126] (-41)
1993  00                 [127] (-41)
1994  00                 [128] (-41)
1995  B5                 [129] (-41)
1996  00                 [130] (-40)
1997  00                 [131] (-40)
1998  00                 [132] (-40)
1999  B5                 [133] (-39)
199A  00                 [134] (-39)
199B  00                 [135] (-39)
199C  00                 [136] (-37)
199D  B6                 [137] (-37)
199E  00                 [138] (-36)
199F  00                 [139] (-36)
19A0  00                 [140] (-36)
19A1  B6                 [141] (-36)
19A2  00                 [142] (-36)
19A3  00                 [143] (-36)
19A4  00                 [144] (-35)
19A5  B7                 [145] (-35)
19A6  00                 [146] (-35)
19A7  00                 [147] (-35)
19A8  00                 [148] (-35)
19A9  B7                 [149] (-35)
19AA  00                 [150] (-34)
19AB  00                 [151] (-34)
19AC  00                 [152] (-34)
19AD  B7                 [153] (-31)
19AE  00                 [154] (-31)
19AF  00                 [155] (-31)
19B0  00                 [156] (-30)
19B1  B7                 [157] (-30)
19B2  00                 [158] (-30)
19B3  00                 [159] (-30)
19B4  00                 [160] (-30)
19B5  B7                 [161] (-30)
19B6  00                 [162] (-30)
19B7  00                 [163] (-29)
19B8  00                 [164] (-28)
19B9  B8                 [165] (-27)
19BA  00                 [166] (-27)
19BB  00                 [167] (-27)
19BC  00                 [168] (-27)
19BD  B8                 [169] (-27)
19BE  00                 [170] (-27)
19BF  00                 [171] (-27)
19C0  00                 [172] (-26)
19C1  B8                 [173] (-26)
19C2  00                 [174] (-26)
19C3  00                 [175] (-26)
19C4  00                 [176] (-25)
19C5  BA                 [177] (-25)
19C6  00                 [178] (-25)
19C7  00                 [179] (-25)
19C8  00                 [180] (-25)
19C9  BA                 [181] (-24)
19CA  00                 [182] (-24)
19CB  00                 [183] (-24)
19CC  00                 [184] (-24)
19CD  BA                 [185] (-24)
19CE  00                 [186] (-24)
19CF  00                 [187] (-24)
19D0  00                 [188] (-26)
19D1  BB                 [189] (-23)
19D2  00                 [190] (-21)
19D3  00                 [191] (-21)
19D4  00                 [192] (-21)
19D5  BB                 [193] (-21)
19D6  00                 [194] (-21)
19D7  00                 [195] (-21)
19D8  00                 [196] (-21)
19D9  BB                 [197] (-20)
19DA  00                 [198] (-20)
19DB  00                 [199] (-20)
19DC  00                 [200] (-20)
19DD  BE                 [201] (-20)
19DE  00                 [202] (-19)
19DF  00                 [203] (-19)
19E0  00                 [204] (-19)
19E1  BE                 [205] (-19)
19E2  00                 [206] (-19)
19E3  00                 [207] (-18)
19E4  00                 [208] (-18)
19E5  BE                 [209] (-18)
19E6  00                 [210] (-18)
19E7  00                 [211] (-18)
19E8  00                 [212] (-17)
19E9  BE                 [213] (-17)
19EA  00                 [214] (-17)
19EB  00                 [215] (-17)
19EC  00                 [216] (-16)
19ED  BF                 [217] (-15)
19EE  00                 [218] (-15)
19EF  00                 [219] (-15)
19F0  00                 [220] (-15)
19F1  BF                 [221] (-14)
19F2  00                 [222] (-14)
19F3  00                 [223] (-14)
19F4  00                 [224] (-13)
19F5  BF                 [225] (-13)
19F6  00                 [226] (-13)
19F7  00                 [227] (-13)
19F8  00                 [228] (-11)
19F9  BF                 [229] (-11)
19FA  00                 [230] (-11)
19FB  00                 [231] (-11)
19FC  00                 [232] (-10)
19FD  BF                 [233] (-10)
19FE  00                 [234] (-10)
19FF  00                 [235] (-10)
1A00  00                 [236] (-10)
1A01  BF                 [237] (-9)
1A02  00                 [238] (-9)
1A03  00                 [239] (-9)
1A04  00                 [240] (-9)
1A05  C0                 [241] (-11)
1A06  00                 [242] (-8)
1A07  00                 [243] (-6)
1A08  00                 [244] (-6)
1A09  C0                 [245] (-6)
1A0A  00                 [246] (-6)
1A0B  00                 [247] (-6)
1A0C  00                 [248] (-5)
1A0D  C0                 [249] (-5)
1A0E  00                 [250] (-5)
1A0F  00                 [251] (-5)
1A10  00                 [252] (-2)
1A11  C4                 [253] (-2)
1A12  00                 [254] (-2)
1A13  00                 [255] (-2)
1A14  00                 [256] (-2)
1A15  C4                 [257] (-1)
1A16  00                 [258] (-1)
1A17  00                 [259] (-1)
1A18  00                 [260] (-1)
1A19  C4                 [261] (1)
1A1A  00                 [262] (1)
1A1B  00                 [263] (1)
1A1C  00                 [264] (1)
1A1D  C4                 [265] (2)
1A1E  00                 [266] (2)
1A1F  00                 [267] (2)
1A20  00                 [268] (2)
1A21  C4                 [269] (2)
1A22  00                 [270] (3)
1A23  00                 [271] (3)
1A24  00                 [272] (3)
1A25  C4                 [273] (3)
1A26  00                 [274] (1)
1A27  00                 [275] (4)
1A28  00                 [276] (7)
1A29  C4                 [277] (7)
1A2A  00                 [278] (7)
1A2B  00                 [279] (9)
1A2C  00                 [280] (9)
1A2D  C4                 [281] (9)
1A2E  00                 [282] (9)
1A2F  00                 [283] (9)
1A30  00                 [284] (9)
1A31  C4                 [285] (9)
1A32  00                 [286] (9)
1A33  00                 [287] (9)
1A34  00                 [288] (9)
1A35  C5                 [289] (10)
1A36  00                 [290] (10)
1A37  00                 [291] (11)
1A38  00                 [292] (11)
1A39  C5                 [293] (11)
1A3A  00                 [294] (11)
1A3B  00                 [295] (11)
1A3C  00                 [296] (12)
1A3D  C5                 [297] (12)
1A3E  00                 [298] (12)
1A3F  00                 [299] (15)
                         * locals:
1DC1  00                 sizelocvars (0)
                         * upvalues:
1DC2  00                 sizeupvalues (0)
                         ** end of function **

                         
1DC3                     ** function [4] definition (level 2)
                         ** start of function **
1DC3  00                 string size (0)
                         source name: (none)
1DC5  02                 line defined (273)
1DC6  9B                 last line defined (283)
1DC7  02                 nups (0)
1DC8  00                 numparams (1)
1DC9  01                 is_vararg (0)
1DCA  00                 maxstacksize (5)
                         * code:
1DCC  13                 sizecode (19)
1DCD  64004000           [01] self       1   0   256  ; 129677183
1DD1  62800001           [02] call       1   2   2  
1DD5  9D400000           [03] getglobal  2   1        ; 1074689893
1DD9  D2008000           [04] move       3   1      
1DDD  A2800001           [05] call       2   2   2  
1DE1  98000000           [06] test       2       0    ; to [8] if true
1DE5  1A000080           [07] jmp        1            ; to [9]
1DE9  1E008000           [08] return     0   1      
1DED  A480C000           [09] self       2   1   258  ; -1917464545
1DF1  A2800001           [10] call       2   2   2  
1DF5  A4C04001           [11] self       2   2   259  ; 1769516121
1DF9  A2800001           [12] call       2   2   2  
1DFD  DD400000           [13] getglobal  3   1        ; 1074689893
1E01  12010001           [14] move       4   2      
1E05  E2800001           [15] call       3   2   2  
1E09  D8000000           [16] test       3       0    ; to [18] if true
1E0D  1A000080           [17] jmp        1            ; to [19]
1E11  1E008000           [18] return     0   1      
1E15  1E008000           [19] return     0   1      
                         * constants:
1E19  04                 sizek (4)
1E1A  01                 const type 3
1E1B  7FB7BA07           const [0]: (129677183)
1E1F  01                 const type 3
1E20  65770E40           const [1]: (1074689893)
1E24  01                 const type 3
1E25  1FD0B58D           const [2]: (-1917464545)
1E29  01                 const type 3
1E2A  59AC7869           const [3]: (1769516121)
                         * functions:
1E2E  00                 sizep (0)
                         * lines:
1E2F  13                 sizelineinfo (19)
                         [pc] (line)
1E30  12                 [01] (18)
1E31  01                 [02] (18)
1E32  00                 [03] (19)
1E33  00                 [04] (19)
1E34  12                 [05] (19)
1E35  01                 [06] (19)
1E36  00                 [07] (19)
1E37  00                 [08] (20)
1E38  13                 [09] (22)
1E39  01                 [10] (22)
1E3A  00                 [11] (22)
1E3B  00                 [12] (22)
1E3C  13                 [13] (23)
1E3D  01                 [14] (23)
1E3E  00                 [15] (23)
1E3F  00                 [16] (23)
1E40  13                 [17] (23)
1E41  01                 [18] (24)
1E42  00                 [19] (27)
                         * locals:
1E7C  00                 sizelocvars (0)
                         * upvalues:
1E7D  00                 sizeupvalues (0)
                         ** end of function **

                         
1E7E                     ** function [5] definition (level 2)
                         ** start of function **
1E7E  00                 string size (0)
                         source name: (none)
1E80  02                 line defined (285)
1E81  B4                 last line defined (308)
1E82  02                 nups (0)
1E83  00                 numparams (1)
1E84  01                 is_vararg (0)
1E85  00                 maxstacksize (8)
                         * code:
1E87  48                 sizecode (72)
1E88  64004000           [01] self       1   0   256  ; 129677183
1E8C  62800001           [02] call       1   2   2  
1E90  9D400000           [03] getglobal  2   1        ; 1074689893
1E94  D2008000           [04] move       3   1      
1E98  A2800001           [05] call       2   2   2  
1E9C  98000000           [06] test       2       0    ; to [8] if true
1EA0  1A000080           [07] jmp        1            ; to [9]
1EA4  1E008000           [08] return     0   1      
1EA8  A480C000           [09] self       2   1   258  ; -1917464545
1EAC  A2800001           [10] call       2   2   2  
1EB0  A4C04001           [11] self       2   2   259  ; 1769516121
1EB4  A2800001           [12] call       2   2   2  
1EB8  DD400000           [13] getglobal  3   1        ; 1074689893
1EBC  12010001           [14] move       4   2      
1EC0  E2800001           [15] call       3   2   2  
1EC4  D8000000           [16] test       3       0    ; to [18] if true
1EC8  1A000080           [17] jmp        1            ; to [19]
1ECC  1E008000           [18] return     0   1      
1ED0  E4804000           [19] self       3   0   258  ; -1917464545
1ED4  E2800001           [20] call       3   2   2  
1ED8  E400C101           [21] self       3   3   260  ; 991629753
1EDC  5D410100           [22] getglobal  5   5        ; Game
1EE0  4E81C102           [23] gettable   5   5   262  ; "AVATAR_AURA_STRENGTH"
1EE4  9D410100           [24] getglobal  6   5        ; Game
1EE8  8EC14103           [25] gettable   6   6   263  ; "SET"
1EEC  D9010200           [26] loadk      7   8        ; 0
1EF0  E2408002           [27] call       3   5   1  
1EF4  E4804000           [28] self       3   0   258  ; -1917464545
1EF8  E2800001           [29] call       3   2   2  
1EFC  E440C201           [30] self       3   3   265  ; -925013987
1F00  6481C200           [31] self       5   1   266  ; -564624675
1F04  62810001           [32] call       5   2   2  
1F08  97010000           [33] loadbool   6   0   0    ; false
1F0C  D7010000           [34] loadbool   7   0   0    ; false
1F10  E2408002           [35] call       3   5   1  
1F14  E4804000           [36] self       3   0   258  ; -1917464545
1F18  E2800001           [37] call       3   2   2  
1F1C  E4C0C001           [38] self       3   3   259  ; 1769516121
1F20  E2800001           [39] call       3   2   2  
1F24  1D410000           [40] getglobal  4   1        ; 1074689893
1F28  52018001           [41] move       5   3      
1F2C  22810001           [42] call       4   2   2  
1F30  18410000           [43] test       4       1    ; to [45] if false
1F34  1A800680           [44] jmp        27           ; to [72]
1F38  24C1C201           [45] self       4   3   267  ; -1957065004
1F3C  9D010300           [46] getglobal  6   12       ; 738251817
1F40  D9410300           [47] loadk      7   13       ; "/Lotus/Powersuits/YinYang/YinYang"
1F44  A2010001           [48] call       6   2   0  
1F48  22810000           [49] call       4   0   2  
1F4C  18010000           [50] test       4       0    ; to [52] if true
1F50  1AC00480           [51] jmp        20           ; to [72]
1F54  1D810300           [52] getglobal  4   14       ; 849075268
1F58  59C10300           [53] loadk      5   15       ; "Lotus.Scripts.Effects.Polarity"
1F5C  22810001           [54] call       4   2   2  
1F60  4E014402           [55] gettable   5   4   272  ; -2035834394
1F64  92010001           [56] move       6   2      
1F68  62810001           [57] call       5   2   2  
1F6C  58010000           [58] test       5       0    ; to [60] if true
1F70  1AC00080           [59] jmp        4            ; to [64]
1F74  4E414402           [60] gettable   5   4   273  ; 315832179
1F78  92018001           [61] move       6   3      
1F7C  62410001           [62] call       5   2   1  
1F80  1AC00180           [63] jmp        8            ; to [72]
1F84  4E814402           [64] gettable   5   4   274  ; -146357477
1F88  92010001           [65] move       6   2      
1F8C  62810001           [66] call       5   2   2  
1F90  58010000           [67] test       5       0    ; to [69] if true
1F94  1A800080           [68] jmp        3            ; to [72]
1F98  4EC14402           [69] gettable   5   4   275  ; 1919368430
1F9C  92018001           [70] move       6   3      
1FA0  62410001           [71] call       5   2   1  
1FA4  1E008000           [72] return     0   1      
                         * constants:
1FA8  14                 sizek (20)
1FA9  01                 const type 3
1FAA  7FB7BA07           const [0]: (129677183)
1FAE  01                 const type 3
1FAF  65770E40           const [1]: (1074689893)
1FB3  01                 const type 3
1FB4  1FD0B58D           const [2]: (-1917464545)
1FB8  01                 const type 3
1FB9  59AC7869           const [3]: (1769516121)
1FBD  01                 const type 3
1FBE  B9111B3B           const [4]: (991629753)
1FC2  04                 const type 4
1FC3  05                 string size (5)
1FC4  47616D6500         "Game\0"
                         const [5]: "Game"
1FC9  04                 const type 4
1FCA  15                 string size (21)
1FCB  4156415441525F41+  "AVATAR_A"
1FD3  5552415F53545245+  "URA_STRE"
1FDB  4E47544800         "NGTH\0"
                         const [6]: "AVATAR_AURA_STRENGTH"
1FE0  04                 const type 4
1FE1  04                 string size (4)
1FE2  53455400           "SET\0"
                         const [7]: "SET"
1FE6  03                 const type 3
1FE7  00000000           const [8]: (0)
1FEB  01                 const type 3
1FEC  1D68DDC8           const [9]: (-925013987)
1FF0  01                 const type 3
1FF1  DD8258DE           const [10]: (-564624675)
1FF5  01                 const type 3
1FF6  D48E598B           const [11]: (-1957065004)
1FFA  01                 const type 3
1FFB  29D4002C           const [12]: (738251817)
1FFF  04                 const type 4
2000  22                 string size (34)
2001  2F4C6F7475732F50+  "/Lotus/P"
2009  6F77657273756974+  "owersuit"
2011  732F59696E59616E+  "s/YinYan"
2019  672F59696E59616E+  "g/YinYan"
2021  6700               "g\0"
                         const [13]: "/Lotus/Powersuits/YinYang/YinYang"
2023  01                 const type 3
2024  44DC9B32           const [14]: (849075268)
2028  04                 const type 4
2029  1F                 string size (31)
202A  4C6F7475732E5363+  "Lotus.Sc"
2032  72697074732E4566+  "ripts.Ef"
203A  66656374732E506F+  "fects.Po"
2042  6C617269747900     "larity\0"
                         const [15]: "Lotus.Scripts.Effects.Polarity"
2049  01                 const type 3
204A  E6A1A786           const [16]: (-2035834394)
204E  01                 const type 3
204F  7337D312           const [17]: (315832179)
2053  01                 const type 3
2054  1BC346F7           const [18]: (-146357477)
2058  01                 const type 3
2059  EE3C6772           const [19]: (1919368430)
                         * functions:
205D  00                 sizep (0)
                         * lines:
205E  48                 sizelineinfo (72)
                         [pc] (line)
205F  1E                 [01] (30)
2060  01                 [02] (30)
2061  00                 [03] (31)
2062  00                 [04] (31)
2063  1E                 [05] (31)
2064  01                 [06] (31)
2065  00                 [07] (31)
2066  00                 [08] (32)
2067  1F                 [09] (34)
2068  01                 [10] (34)
2069  00                 [11] (34)
206A  00                 [12] (34)
206B  1F                 [13] (35)
206C  01                 [14] (35)
206D  00                 [15] (35)
206E  00                 [16] (35)
206F  1F                 [17] (35)
2070  01                 [18] (36)
2071  00                 [19] (39)
2072  00                 [20] (39)
2073  1F                 [21] (39)
2074  01                 [22] (39)
2075  00                 [23] (39)
2076  00                 [24] (39)
2077  1F                 [25] (39)
2078  01                 [26] (39)
2079  00                 [27] (39)
207A  00                 [28] (40)
207B  20                 [29] (40)
207C  01                 [30] (40)
207D  00                 [31] (40)
207E  00                 [32] (40)
207F  22                 [33] (40)
2080  01                 [34] (40)
2081  00                 [35] (40)
2082  00                 [36] (43)
2083  22                 [37] (43)
2084  01                 [38] (43)
2085  00                 [39] (43)
2086  00                 [40] (44)
2087  22                 [41] (44)
2088  01                 [42] (44)
2089  00                 [43] (44)
208A  00                 [44] (44)
208B  22                 [45] (44)
208C  01                 [46] (44)
208D  00                 [47] (44)
208E  00                 [48] (44)
208F  23                 [49] (44)
2090  01                 [50] (44)
2091  00                 [51] (44)
2092  00                 [52] (45)
2093  23                 [53] (45)
2094  01                 [54] (45)
2095  00                 [55] (46)
2096  00                 [56] (46)
2097  23                 [57] (46)
2098  01                 [58] (46)
2099  00                 [59] (46)
209A  00                 [60] (47)
209B  23                 [61] (47)
209C  01                 [62] (47)
209D  00                 [63] (47)
209E  00                 [64] (48)
209F  23                 [65] (48)
20A0  01                 [66] (48)
20A1  00                 [67] (48)
20A2  00                 [68] (48)
20A3  24                 [69] (49)
20A4  01                 [70] (49)
20A5  00                 [71] (49)
20A6  00                 [72] (52)
                         * locals:
217F  00                 sizelocvars (0)
                         * upvalues:
2180  00                 sizeupvalues (0)
                         ** end of function **

                         
2181                     ** function [6] definition (level 2)
                         ** start of function **
2181  00                 string size (0)
                         source name: (none)
2183  02                 line defined (310)
2184  D8                 last line defined (344)
2185  02                 nups (2)
2186  02                 numparams (1)
2187  01                 is_vararg (0)
2188  00                 maxstacksize (20)
                         * code:
218A  6A                 sizecode (106)
218B  64004000           [001] self       1   0   256  ; -1870903749
218F  62800001           [002] call       1   2   2  
2193  9D400000           [003] getglobal  2   1        ; 1074689893
2197  D2008000           [004] move       3   1      
219B  A2800001           [005] call       2   2   2  
219F  98000000           [006] test       2       0    ; to [8] if true
21A3  1A000080           [007] jmp        1            ; to [9]
21A7  1E008000           [008] return     0   1      
21AB  A480C000           [009] self       2   1   258  ; -704974830
21AF  A2800001           [010] call       2   2   2  
21B3  E4C04001           [011] self       3   2   259  ; -1917464545
21B7  E2800001           [012] call       3   2   2  
21BB  E400C101           [013] self       3   3   260  ; 1674984496
21BF  5D410100           [014] getglobal  5   5        ; Engine
21C3  4E81C102           [015] gettable   5   5   262  ; "SLOT_10"
21C7  E2808001           [016] call       3   3   2  
21CB  24C1C100           [017] self       4   1   263  ; -1421644046
21CF  9D010200           [018] getglobal  6   8        ; beamType
21D3  D3010000           [019] getupval   7   0      
21D7  1D420200           [020] getglobal  8   9        ; 572299008
21DB  59820200           [021] loadk      9   10       ; 0
21DF  99C20200           [022] loadk      10  11       ; -51
21E3  D9820200           [023] loadk      11  10       ; 0
21E7  22820002           [024] call       8   4   2  
21EB  5D020300           [025] getglobal  9   12       ; ZERO_ROTATION
21EF  92028001           [026] move       10  3      
21F3  22818003           [027] call       4   7   2  
21F7  5D410000           [028] getglobal  5   1        ; 1074689893
21FB  92010002           [029] move       6   4      
21FF  62810001           [030] call       5   2   2  
2203  58410000           [031] test       5       1    ; to [33] if false
2207  1A400180           [032] jmp        6            ; to [39]
220B  64414302           [033] self       5   4   269  ; -408095485
220F  D2018000           [034] move       7   1      
2213  1D820300           [035] getglobal  8   14       ; -332969190
2217  59C20300           [036] loadk      9   15       ; "GAME_L1_ARM3"
221B  22020001           [037] call       8   2   0  
221F  62410000           [038] call       5   0   1  
2223  4B010000           [039] newtable   5   0   0    ; array=0, hash=0
2227  99010400           [040] loadk      6   16       ; 0
222B  DD410400           [041] getglobal  7   17       ; spawnDecoTypes
222F  CA018003           [042] len        7   7      
2233  19020400           [043] loadk      8   16       ; 0
2237  90810480           [044] forprep    6   19       ; to [64]
223B  9D820400           [045] getglobal  10  18       ; gRegion
223F  A4C24405           [046] self       10  10  275  ; -1110225722
2243  1D430400           [047] getglobal  12  17       ; spawnDecoTypes
2247  0E430206           [048] gettable   12  12  9  
224B  6403C500           [049] self       13  1   276  ; 196800914
224F  62830001           [050] call       13  2   2  
2253  9D030300           [051] getglobal  14  12       ; ZERO_ROTATION
2257  D2038001           [052] move       15  3      
225B  A2820003           [053] call       10  6   2  
225F  DD420000           [054] getglobal  11  1        ; 1074689893
2263  12030005           [055] move       12  10     
2267  E2820001           [056] call       11  2   2  
226B  D8420000           [057] test       11      1    ; to [59] if false
226F  1A000180           [058] jmp        5            ; to [64]
2273  DD420500           [059] getglobal  11  21       ; table
2277  CE82C505           [060] gettable   11  11  278  ; -431682403
227B  12038002           [061] move       12  5      
227F  52030005           [062] move       13  10     
2283  E2428001           [063] call       11  3   1  
2287  94C1FA7F           [064] forloop    6   -20      ; to [45] if loop
228B  D9820200           [065] loadk      11  10       ; 0
228F  1D430200           [066] getglobal  12  9        ; 572299008
2293  22838000           [067] call       12  1   2  
fail op	21
2297  15C0C505           [068] concat     0   11  279
229B  1AC00880           [069] jmp        36           ; to [106]
229F  5D430000           [070] getglobal  13  1        ; 1074689893
22A3  92038000           [071] move       14  1      
22A7  62830001           [072] call       13  2   2  
22AB  58430000           [073] test       13      1    ; to [75] if false
22AF  1A800780           [074] jmp        31           ; to [106]
22B3  5D030600           [075] getglobal  13  24       ; -523730508
22B7  A443C600           [076] self       14  1   281  ; -1565518332
22BB  13040000           [077] getupval   16  0      
22BF  A2838001           [078] call       14  3   2  
22C3  E443C600           [079] self       15  1   281  ; -1565518332
22C7  53048000           [080] getupval   17  1      
22CB  E2838001           [081] call       15  3   2  
22CF  19840600           [082] loadk      16  26       ; 0
22D3  62830002           [083] call       13  4   2  
22D7  12038006           [084] move       12  13     
22DB  59030400           [085] loadk      13  16       ; 0
22DF  8A038002           [086] len        14  5      
22E3  D9030400           [087] loadk      15  16       ; 0
22E7  50030280           [088] forprep    13  9        ; to [98]
22EB  5D440000           [089] getglobal  17  1        ; 1074689893
22EF  8E048402           [090] gettable   18  5   16 
22F3  62840001           [091] call       17  2   2  
22F7  58440000           [092] test       17      1    ; to [94] if false
22FB  1AC00080           [093] jmp        4            ; to [98]
22FF  4E048402           [094] gettable   17  5   16 
2303  64C4C608           [095] self       17  17  283  ; -333955620
2307  D2040006           [096] move       19  12     
230B  62448001           [097] call       17  3   1  
230F  5443FD7F           [098] forloop    13  -10      ; to [89] if loop
2313  5D040700           [099] getglobal  17  28       ; 1289681407
2317  62848000           [100] call       17  1   2  
231B  C3428405           [101] add        11  11  17 
231F  5D440700           [102] getglobal  17  29       ; 538022378
2323  99840200           [103] loadk      18  10       ; 0
2327  62440001           [104] call       17  2   1  
232B  1A40F67F           [105] jmp        -38          ; to [68]
232F  1E008000           [106] return     0   1      
                         * constants:
2333  1E                 sizek (30)
2334  01                 const type 3
2335  3B467C90           const [0]: (-1870903749)
2339  01                 const type 3
233A  65770E40           const [1]: (1074689893)
233E  01                 const type 3
233F  12F0FAD5           const [2]: (-704974830)
2343  01                 const type 3
2344  1FD0B58D           const [3]: (-1917464545)
2348  01                 const type 3
2349  303CD663           const [4]: (1674984496)
234D  04                 const type 4
234E  07                 string size (7)
234F  456E67696E6500     "Engine\0"
                         const [5]: "Engine"
2356  04                 const type 4
2357  08                 string size (8)
2358  534C4F545F313000   "SLOT_10\0"
                         const [6]: "SLOT_10"
2360  01                 const type 3
2361  F26E43AB           const [7]: (-1421644046)
2365  04                 const type 4
2366  09                 string size (9)
2367  6265616D54797065+  "beamType"
236F  00                 "\0"
                         const [8]: "beamType"
2370  01                 const type 3
2371  00971C22           const [9]: (572299008)
2375  03                 const type 3
2376  00000000           const [10]: (0)
237A  03                 const type 3
237B  CDCC4CBD           const [11]: (-51)
237F  04                 const type 4
2380  0E                 string size (14)
2381  5A45524F5F524F54+  "ZERO_ROT"
2389  4154494F4E00       "ATION\0"
                         const [12]: "ZERO_ROTATION"
238F  01                 const type 3
2390  03F5ACE7           const [13]: (-408095485)
2394  01                 const type 3
2395  1A4B27EC           const [14]: (-332969190)
2399  04                 const type 4
239A  0D                 string size (13)
239B  47414D455F4C315F+  "GAME_L1_"
23A3  41524D3300         "ARM3\0"
                         const [15]: "GAME_L1_ARM3"
23A8  03                 const type 3
23A9  0000803F           const [16]: (0)
23AD  04                 const type 4
23AE  0F                 string size (15)
23AF  737061776E446563+  "spawnDec"
23B7  6F547970657300     "oTypes\0"
                         const [17]: "spawnDecoTypes"
23BE  04                 const type 4
23BF  08                 string size (8)
23C0  67526567696F6E00   "gRegion\0"
                         const [18]: "gRegion"
23C8  01                 const type 3
23C9  C64CD3BD           const [19]: (-1110225722)
23CD  01                 const type 3
23CE  92F1BA0B           const [20]: (196800914)
23D2  04                 const type 4
23D3  06                 string size (6)
23D4  7461626C6500       "table\0"
                         const [21]: "table"
23DA  01                 const type 3
23DB  9D0C45E6           const [22]: (-431682403)
23DF  03                 const type 3
23E0  9A99993F           const [23]: (-102)
23E4  01                 const type 3
23E5  B481C8E0           const [24]: (-523730508)
23E9  01                 const type 3
23EA  0416B0A2           const [25]: (-1565518332)
23EE  03                 const type 3
23EF  0000003F           const [26]: (0)
23F3  01                 const type 3
23F4  DC3D18EC           const [27]: (-333955620)
23F8  01                 const type 3
23F9  FFF9DE4C           const [28]: (1289681407)
23FD  01                 const type 3
23FE  EA911120           const [29]: (538022378)
                         * functions:
2402  00                 sizep (0)
                         * lines:
2403  6A                 sizelineinfo (106)
                         [pc] (line)
2404  37                 [001] (55)
2405  01                 [002] (55)
2406  00                 [003] (56)
2407  00                 [004] (56)
2408  37                 [005] (56)
2409  01                 [006] (56)
240A  00                 [007] (56)
240B  00                 [008] (57)
240C  38                 [009] (59)
240D  01                 [010] (59)
240E  00                 [011] (61)
240F  00                 [012] (61)
2410  38                 [013] (61)
2411  01                 [014] (61)
2412  00                 [015] (61)
2413  00                 [016] (61)
2414  38                 [017] (63)
2415  01                 [018] (63)
2416  00                 [019] (63)
2417  00                 [020] (63)
2418  38                 [021] (63)
2419  01                 [022] (63)
241A  00                 [023] (63)
241B  00                 [024] (63)
241C  38                 [025] (63)
241D  01                 [026] (63)
241E  00                 [027] (63)
241F  00                 [028] (64)
2420  39                 [029] (64)
2421  01                 [030] (64)
2422  00                 [031] (64)
2423  00                 [032] (64)
2424  3B                 [033] (65)
2425  01                 [034] (65)
2426  00                 [035] (65)
2427  00                 [036] (65)
2428  3B                 [037] (65)
2429  01                 [038] (65)
242A  00                 [039] (68)
242B  00                 [040] (69)
242C  3D                 [041] (69)
242D  01                 [042] (69)
242E  00                 [043] (69)
242F  00                 [044] (69)
2430  3D                 [045] (70)
2431  01                 [046] (70)
2432  00                 [047] (70)
2433  00                 [048] (70)
2434  3D                 [049] (70)
2435  01                 [050] (70)
2436  00                 [051] (70)
2437  00                 [052] (70)
2438  3D                 [053] (70)
2439  01                 [054] (71)
243A  00                 [055] (71)
243B  00                 [056] (71)
243C  3D                 [057] (71)
243D  01                 [058] (71)
243E  00                 [059] (72)
243F  00                 [060] (72)
2440  3D                 [061] (72)
2441  01                 [062] (72)
2442  00                 [063] (72)
2443  00                 [064] (69)
2444  3F                 [065] (76)
2445  01                 [066] (77)
2446  00                 [067] (77)
2447  00                 [068] (78)
2448  3F                 [069] (78)
2449  01                 [070] (78)
244A  00                 [071] (78)
244B  00                 [072] (78)
244C  3F                 [073] (78)
244D  01                 [074] (78)
244E  00                 [075] (79)
244F  00                 [076] (79)
2450  3F                 [077] (79)
2451  01                 [078] (79)
2452  00                 [079] (79)
2453  00                 [080] (79)
2454  3F                 [081] (79)
2455  01                 [082] (79)
2456  00                 [083] (79)
2457  00                 [084] (79)
2458  3F                 [085] (80)
2459  01                 [086] (80)
245A  00                 [087] (80)
245B  00                 [088] (80)
245C  3F                 [089] (81)
245D  01                 [090] (81)
245E  00                 [091] (81)
245F  00                 [092] (81)
2460  3F                 [093] (81)
2461  01                 [094] (82)
2462  00                 [095] (82)
2463  00                 [096] (82)
2464  3F                 [097] (82)
2465  01                 [098] (80)
2466  00                 [099] (85)
2467  00                 [100] (85)
2468  3F                 [101] (85)
2469  01                 [102] (86)
246A  00                 [103] (86)
246B  00                 [104] (86)
246C  3F                 [105] (86)
246D  01                 [106] (88)
                         * locals:
25AC  00                 sizelocvars (0)
                         * upvalues:
25AD  00                 sizeupvalues (0)
                         ** end of function **

                         
25AE                     ** function [7] definition (level 2)
                         ** start of function **
25AE  00                 string size (0)
                         source name: (none)
25B0  02                 line defined (346)
25B1  F4                 last line defined (372)
25B2  02                 nups (0)
25B3  00                 numparams (1)
25B4  01                 is_vararg (0)
25B5  00                 maxstacksize (24)
                         * code:
25B7  4F                 sizecode (79)
25B8  64004000           [01] self       1   0   256  ; 366271214
25BC  DD400000           [02] getglobal  3   1        ; gDecorationType
25C0  62808001           [03] call       1   3   2  
25C4  A4004000           [04] self       2   0   256  ; 366271214
25C8  1D810000           [05] getglobal  4   2        ; gSkeletalClothExType
25CC  A2808001           [06] call       2   3   2  
25D0  E4004000           [07] self       3   0   256  ; 366271214
25D4  5DC10000           [08] getglobal  5   3        ; gLotusWeaponAttachmentType
25D8  E2808001           [09] call       3   3   2  
25DC  0B010000           [10] newtable   4   0   0    ; array=0, hash=0
25E0  5D010100           [11] getglobal  5   4        ; 1672515847
25E4  92018000           [12] move       6   1      
25E8  62010101           [13] call       5   2   4  
25EC  1A400280           [14] jmp        10           ; to [25]
25F0  9D420100           [15] getglobal  10  5        ; 1074689893
25F4  D2028004           [16] move       11  9      
25F8  A2820001           [17] call       10  2   2  
25FC  98420000           [18] test       10      1    ; to [20] if false
2600  1A000180           [19] jmp        5            ; to [25]
2604  9D820100           [20] getglobal  10  6        ; table
2608  8EC24105           [21] gettable   10  10  263  ; -431682403
260C  D2020002           [22] move       11  4      
2610  12038004           [23] move       12  9      
2614  A2428001           [24] call       10  3   1  
2618  56810000           [25] tforloop   5       2    ; to [27] if exit
261C  1AC0FC7F           [26] jmp        -12          ; to [15]
2620  9D020100           [27] getglobal  10  4        ; 1672515847
2624  D2020001           [28] move       11  2      
2628  A2020101           [29] call       10  2   4  
262C  1A400280           [30] jmp        10           ; to [41]
2630  DD430100           [31] getglobal  15  5        ; 1074689893
2634  12040007           [32] move       16  14     
2638  E2830001           [33] call       15  2   2  
263C  D8430000           [34] test       15      1    ; to [36] if false
2640  1A000180           [35] jmp        5            ; to [41]
2644  DD830100           [36] getglobal  15  6        ; table
2648  CEC3C107           [37] gettable   15  15  263  ; -431682403
264C  12040002           [38] move       16  4      
2650  52040007           [39] move       17  14     
2654  E2438001           [40] call       15  3   1  
2658  96820000           [41] tforloop   10      2    ; to [43] if exit
265C  1AC0FC7F           [42] jmp        -12          ; to [31]
2660  DD030100           [43] getglobal  15  4        ; 1672515847
2664  12048001           [44] move       16  3      
2668  E2030101           [45] call       15  2   4  
266C  1A400280           [46] jmp        10           ; to [57]
2670  1D450100           [47] getglobal  20  5        ; 1074689893
2674  52058009           [48] move       21  19     
2678  22850001           [49] call       20  2   2  
267C  18450000           [50] test       20      1    ; to [52] if false
2680  1A000180           [51] jmp        5            ; to [57]
2684  1D850100           [52] getglobal  20  6        ; table
2688  0EC5410A           [53] gettable   20  20  263  ; -431682403
268C  52050002           [54] move       21  4      
2690  92058009           [55] move       22  19     
2694  22458001           [56] call       20  3   1  
2698  D6830000           [57] tforloop   15      2    ; to [59] if exit
269C  1AC0FC7F           [58] jmp        -12          ; to [47]
26A0  24054200           [59] self       20  0   264  ; -1421644046
26A4  9D450200           [60] getglobal  22  9        ; projectorType
26A8  DD850200           [61] getglobal  23  10       ; EMPTY_SYMBOL
26AC  22850002           [62] call       20  4   2  
26B0  5D450100           [63] getglobal  21  5        ; 1074689893
26B4  9205000A           [64] move       22  20     
26B8  62850001           [65] call       21  2   2  
26BC  58450000           [66] test       21      1    ; to [68] if false
26C0  1A000180           [67] jmp        5            ; to [73]
26C4  5D850100           [68] getglobal  21  6        ; table
26C8  4EC5C10A           [69] gettable   21  21  263  ; -431682403
26CC  92050002           [70] move       22  4      
26D0  D205000A           [71] move       23  20     
26D4  62458001           [72] call       21  3   1  
26D8  5D850100           [73] getglobal  21  6        ; table
26DC  4EC5C10A           [74] gettable   21  21  263  ; -431682403
26E0  92050002           [75] move       22  4      
26E4  D2050000           [76] move       23  0      
26E8  62458001           [77] call       21  3   1  
26EC  1E010001           [78] return     4   2      
26F0  1E008000           [79] return     0   1      
                         * constants:
26F4  0B                 sizek (11)
26F5  01                 const type 3
26F6  EEDAD415           const [0]: (366271214)
26FA  04                 const type 4
26FB  10                 string size (16)
26FC  674465636F726174+  "gDecorat"
2704  696F6E5479706500   "ionType\0"
                         const [1]: "gDecorationType"
270C  04                 const type 4
270D  15                 string size (21)
270E  67536B656C657461+  "gSkeleta"
2716  6C436C6F74684578+  "lClothEx"
271E  5479706500         "Type\0"
                         const [2]: "gSkeletalClothExType"
2723  04                 const type 4
2724  1B                 string size (27)
2725  674C6F7475735765+  "gLotusWe"
272D  61706F6E41747461+  "aponAtta"
2735  63686D656E745479+  "chmentTy"
273D  706500             "pe\0"
                         const [3]: "gLotusWeaponAttachmentType"
2740  01                 const type 3
2741  0791B063           const [4]: (1672515847)
2745  01                 const type 3
2746  65770E40           const [5]: (1074689893)
274A  04                 const type 4
274B  06                 string size (6)
274C  7461626C6500       "table\0"
                         const [6]: "table"
2752  01                 const type 3
2753  9D0C45E6           const [7]: (-431682403)
2757  01                 const type 3
2758  F26E43AB           const [8]: (-1421644046)
275C  04                 const type 4
275D  0E                 string size (14)
275E  70726F6A6563746F+  "projecto"
2766  725479706500       "rType\0"
                         const [9]: "projectorType"
276C  04                 const type 4
276D  0D                 string size (13)
276E  454D5054595F5359+  "EMPTY_SY"
2776  4D424F4C00         "MBOL\0"
                         const [10]: "EMPTY_SYMBOL"
                         * functions:
277B  00                 sizep (0)
                         * lines:
277C  4F                 sizelineinfo (79)
                         [pc] (line)
277D  5B                 [01] (91)
277E  01                 [02] (91)
277F  00                 [03] (91)
2780  00                 [04] (92)
2781  5B                 [05] (92)
2782  01                 [06] (92)
2783  00                 [07] (93)
2784  00                 [08] (93)
2785  5B                 [09] (93)
2786  01                 [10] (94)
2787  00                 [11] (95)
2788  00                 [12] (95)
2789  5C                 [13] (95)
278A  01                 [14] (95)
278B  00                 [15] (96)
278C  00                 [16] (96)
278D  5C                 [17] (96)
278E  01                 [18] (96)
278F  00                 [19] (96)
2790  00                 [20] (97)
2791  5C                 [21] (97)
2792  01                 [22] (97)
2793  00                 [23] (97)
2794  00                 [24] (97)
2795  5D                 [25] (95)
2796  01                 [26] (98)
2797  00                 [27] (100)
2798  00                 [28] (100)
2799  5D                 [29] (100)
279A  01                 [30] (100)
279B  00                 [31] (101)
279C  00                 [32] (101)
279D  5D                 [33] (101)
279E  01                 [34] (101)
279F  00                 [35] (101)
27A0  00                 [36] (102)
27A1  5E                 [37] (102)
27A2  01                 [38] (102)
27A3  00                 [39] (102)
27A4  00                 [40] (102)
27A5  5F                 [41] (100)
27A6  01                 [42] (103)
27A7  00                 [43] (105)
27A8  00                 [44] (105)
27A9  5F                 [45] (105)
27AA  01                 [46] (105)
27AB  00                 [47] (106)
27AC  00                 [48] (106)
27AD  5F                 [49] (106)
27AE  01                 [50] (106)
27AF  00                 [51] (106)
27B0  00                 [52] (107)
27B1  5F                 [53] (107)
27B2  01                 [54] (107)
27B3  00                 [55] (107)
27B4  00                 [56] (107)
27B5  60                 [57] (105)
27B6  01                 [58] (108)
27B7  00                 [59] (110)
27B8  00                 [60] (110)
27B9  60                 [61] (110)
27BA  01                 [62] (110)
27BB  00                 [63] (111)
27BC  00                 [64] (111)
27BD  60                 [65] (111)
27BE  01                 [66] (111)
27BF  00                 [67] (111)
27C0  00                 [68] (112)
27C1  60                 [69] (112)
27C2  01                 [70] (112)
27C3  00                 [71] (112)
27C4  00                 [72] (112)
27C5  60                 [73] (114)
27C6  01                 [74] (114)
27C7  00                 [75] (114)
27C8  00                 [76] (114)
27C9  61                 [77] (114)
27CA  01                 [78] (115)
27CB  00                 [79] (116)
                         * locals:
28B9  00                 sizelocvars (0)
                         * upvalues:
28BA  00                 sizeupvalues (0)
                         ** end of function **

                         
28BB                     ** function [8] definition (level 2)
                         ** start of function **
28BB  00                 string size (0)
                         source name: (none)
28BD  02                 line defined (374)
28BE  A8                 last line defined (424)
28BF  03                 nups (6)
28C0  06                 numparams (1)
28C1  01                 is_vararg (0)
28C2  00                 maxstacksize (27)
                         * code:
28C5  01                 sizecode (143)
28C6  5D000000           [001] getglobal  1   0        ; 538022378
28CA  99400000           [002] loadk      2   1        ; 0
28CE  62400001           [003] call       1   2   1  
28D2  64804000           [004] self       1   0   258  ; -704974830
28D6  62800001           [005] call       1   2   2  
28DA  9DC00000           [006] getglobal  2   3        ; 1074689893
28DE  D2008000           [007] move       3   1      
28E2  A2800001           [008] call       2   2   2  
28E6  98000000           [009] test       2       0    ; to [11] if true
28EA  1A000080           [010] jmp        1            ; to [12]
28EE  1E008000           [011] return     0   1      
28F2  93000000           [012] getupval   2   0      
28F6  DD000100           [013] getglobal  3   4        ; cinematicUseOverrideBone
28FA  D8000000           [014] test       3       0    ; to [16] if true
28FE  1A000080           [015] jmp        1            ; to [17]
2902  9D400100           [016] getglobal  2   5        ; cinematicBoneOverride
2906  DD800100           [017] getglobal  3   6        ; Effects
290A  CEC0C101           [018] gettable   3   3   263  ; 1840978700
290E  12018000           [019] move       4   1      
2912  5D010200           [020] getglobal  5   8        ; gParticleSysType
2916  97018000           [021] loadbool   6   1   0    ; true
291A  D7010000           [022] loadbool   7   0   0    ; false
291E  E2408002           [023] call       3   5   1  
2922  E440C200           [024] self       3   1   265  ; -1565518332
2926  52010001           [025] move       5   2      
292A  E2808001           [026] call       3   3   2  
292E  13018000           [027] getupval   4   1      
2932  52018000           [028] move       5   1      
2936  9D810200           [029] getglobal  6   10       ; projectorType
293A  22818001           [030] call       4   3   2  
293E  5DC10200           [031] getglobal  5   11       ; 1672515847
2942  92010002           [032] move       6   4      
2946  62010101           [033] call       5   2   4  
294A  1A000380           [034] jmp        13           ; to [48]
294E  9DC20000           [035] getglobal  10  3        ; 1074689893
2952  D2028004           [036] move       11  9      
2956  A2820001           [037] call       10  2   2  
295A  98420000           [038] test       10      1    ; to [40] if false
295E  1AC00180           [039] jmp        8            ; to [48]
2962  A402C304           [040] self       10  9   268  ; -786111647
2966  13030001           [041] getupval   12  2      
296A  5D430300           [042] getglobal  13  13       ; pinchLengthAtten
296E  44430387           [043] mul        13  270 13   ; -51
2972  A2420002           [044] call       10  4   1  
2976  A4C2C304           [045] self       10  9   271  ; -703571861
297A  19430000           [046] loadk      12  1        ; 0
297E  A2428001           [047] call       10  3   1  
2982  56810000           [048] tforloop   5       2    ; to [50] if exit
2986  1A00FC7F           [049] jmp        -15          ; to [35]
298A  86020005           [050] loadnil    10  10     
298E  D9420000           [051] loadk      11  1        ; 0
2992  1D030400           [052] getglobal  12  16       ; 572299008
2996  59430000           [053] loadk      13  1        ; 0
299A  99430400           [054] loadk      14  17       ; 0
299E  D9430000           [055] loadk      15  1        ; 0
29A2  22830002           [056] call       12  4   2  
fail op	21
29A6  1540C405           [057] concat     0   11  273
29AA  1A801080           [058] jmp        67           ; to [126]
29AE  5DC30000           [059] getglobal  13  3        ; 1074689893
29B2  92038000           [060] move       14  1      
29B6  62830001           [061] call       13  2   2  
29BA  58430000           [062] test       13      1    ; to [64] if false
29BE  1A400F80           [063] jmp        62           ; to [126]
29C2  5D830400           [064] getglobal  13  18       ; math
29C6  4EC3C406           [065] gettable   13  13  275  ; -688728047
29CA  92038005           [066] move       14  11     
29CE  D9030500           [067] loadk      15  20       ; 0
29D2  62838001           [068] call       13  3   2  
29D6  8442838A           [069] mul        10  277 13   ; 0
29DA  6443C200           [070] self       13  1   265  ; -1565518332
29DE  D2030001           [071] move       15  2      
29E2  62838001           [072] call       13  3   2  
29E6  D2008006           [073] move       3   13     
29EA  5D830500           [074] getglobal  13  22       ; isCinematic
29EE  58430000           [075] test       13      1    ; to [77] if false
29F2  1AC00080           [076] jmp        4            ; to [81]
29F6  64C3C500           [077] self       13  1   279  ; -365711519
29FA  62830001           [078] call       13  2   2  
29FE  9D030600           [079] getglobal  14  24       ; axis
2A02  03838306           [080] add        12  13  14 
2A06  8D828288           [081] sub        10  273 10   ; 0
2A0A  4A030002           [082] len        13  4      
fail op	21
2A0E  1500C506           [083] concat     0   13  276
2A12  1AC00080           [084] jmp        4            ; to [89]
2A16  53038000           [085] getupval   13  1      
2A1A  92038000           [086] move       14  1      
2A1E  62830001           [087] call       13  2   2  
2A22  12018006           [088] move       4   13     
2A26  5DC30200           [089] getglobal  13  11       ; 1672515847
2A2A  92030002           [090] move       14  4      
2A2E  62030101           [091] call       13  2   4  
2A32  1A400580           [092] jmp        22           ; to [115]
2A36  9DC40000           [093] getglobal  18  3        ; 1074689893
2A3A  D2048008           [094] move       19  17     
2A3E  A2840001           [095] call       18  2   2  
2A42  98440000           [096] test       18      1    ; to [98] if false
2A46  1A000480           [097] jmp        17           ; to [115]
2A4A  A404C308           [098] self       18  17  268  ; -786111647
2A4E  13058001           [099] getupval   20  3      
2A52  52050005           [100] move       21  10     
2A56  A2440002           [101] call       18  4   1  
2A5A  A404C308           [102] self       18  17  268  ; -786111647
2A5E  13050002           [103] getupval   20  4      
2A62  4E45C601           [104] gettable   21  3   281  ; "x"
2A66  8E85C601           [105] gettable   22  3   282  ; "y"
2A6A  CEC5C601           [106] gettable   23  3   283  ; "z"
2A6E  19460400           [107] loadk      24  17       ; 0
2A72  A2448003           [108] call       18  7   1  
2A76  A404C308           [109] self       18  17  268  ; -786111647
2A7A  13058002           [110] getupval   20  5      
2A7E  4E454606           [111] gettable   21  12  281  ; "x"
2A82  8E854606           [112] gettable   22  12  282  ; "y"
2A86  CEC54606           [113] gettable   23  12  283  ; "z"
2A8A  A2440003           [114] call       18  6   1  
2A8E  56830000           [115] tforloop   13      2    ; to [117] if exit
2A92  1AC0F97F           [116] jmp        -24          ; to [93]
2A96  9D040700           [117] getglobal  18  28       ; 1289681407
2A9A  A2848000           [118] call       18  1   2  
2A9E  DD440700           [119] getglobal  19  29       ; speed
2AA2  84C40409           [120] mul        18  18  19 
2AA6  C3828405           [121] add        11  11  18 
2AAA  9D040000           [122] getglobal  18  0        ; 538022378
2AAE  D9440000           [123] loadk      19  1        ; 0
2AB2  A2440001           [124] call       18  2   1  
2AB6  1A80EE7F           [125] jmp        -69          ; to [57]
2ABA  9DC40200           [126] getglobal  18  11       ; 1672515847
2ABE  D2040002           [127] move       19  4      
2AC2  A2040101           [128] call       18  2   4  
2AC6  1A000280           [129] jmp        9            ; to [139]
2ACA  DDC50000           [130] getglobal  23  3        ; 1074689893
2ACE  1206000B           [131] move       24  22     
2AD2  E2850001           [132] call       23  2   2  
2AD6  D8450000           [133] test       23      1    ; to [135] if false
2ADA  1AC00080           [134] jmp        4            ; to [139]
2ADE  E405430B           [135] self       23  22  268  ; -786111647
2AE2  53068001           [136] getupval   25  3      
2AE6  99460500           [137] loadk      26  21       ; 0
2AEA  E2450002           [138] call       23  4   1  
2AEE  96840000           [139] tforloop   18      2    ; to [141] if exit
2AF2  1A00FD7F           [140] jmp        -11          ; to [130]
2AF6  E4854700           [141] self       23  0   286  ; -725453761
2AFA  E2450001           [142] call       23  2   1  
2AFE  1E008000           [143] return     0   1      
                         * constants:
2B02  1F                 sizek (31)
2B03  01                 const type 3
2B04  EA911120           const [0]: (538022378)
2B08  03                 const type 3
2B09  00000000           const [1]: (0)
2B0D  01                 const type 3
2B0E  12F0FAD5           const [2]: (-704974830)
2B12  01                 const type 3
2B13  65770E40           const [3]: (1074689893)
2B17  04                 const type 4
2B18  19                 string size (25)
2B19  63696E656D617469+  "cinemati"
2B21  635573654F766572+  "cUseOver"
2B29  72696465426F6E65+  "rideBone"
2B31  00                 "\0"
                         const [4]: "cinematicUseOverrideBone"
2B32  04                 const type 4
2B33  16                 string size (22)
2B34  63696E656D617469+  "cinemati"
2B3C  63426F6E654F7665+  "cBoneOve"
2B44  727269646500       "rride\0"
                         const [5]: "cinematicBoneOverride"
2B4A  04                 const type 4
2B4B  08                 string size (8)
2B4C  4566666563747300   "Effects\0"
                         const [6]: "Effects"
2B54  01                 const type 3
2B55  0C1BBB6D           const [7]: (1840978700)
2B59  04                 const type 4
2B5A  11                 string size (17)
2B5B  675061727469636C+  "gParticl"
2B63  6553797354797065+  "eSysType"
2B6B  00                 "\0"
                         const [8]: "gParticleSysType"
2B6C  01                 const type 3
2B6D  0416B0A2           const [9]: (-1565518332)
2B71  04                 const type 4
2B72  0E                 string size (14)
2B73  70726F6A6563746F+  "projecto"
2B7B  725479706500       "rType\0"
                         const [10]: "projectorType"
2B81  01                 const type 3
2B82  0791B063           const [11]: (1672515847)
2B86  01                 const type 3
2B87  61E324D1           const [12]: (-786111647)
2B8B  04                 const type 4
2B8C  11                 string size (17)
2B8D  70696E63684C656E+  "pinchLen"
2B95  677468417474656E+  "gthAtten"
2B9D  00                 "\0"
                         const [13]: "pinchLengthAtten"
2B9E  03                 const type 3
2B9F  CDCCCC3F           const [14]: (-51)
2BA3  01                 const type 3
2BA4  6B5810D6           const [15]: (-703571861)
2BA8  01                 const type 3
2BA9  00971C22           const [16]: (572299008)
2BAD  03                 const type 3
2BAE  0000803F           const [17]: (0)
2BB2  04                 const type 4
2BB3  05                 string size (5)
2BB4  6D61746800         "math\0"
                         const [18]: "math"
2BB9  01                 const type 3
2BBA  11D8F2D6           const [19]: (-688728047)
2BBE  03                 const type 3
2BBF  00004040           const [20]: (0)
2BC3  03                 const type 3
2BC4  0000003F           const [21]: (0)
2BC8  04                 const type 4
2BC9  0C                 string size (12)
2BCA  697343696E656D61+  "isCinema"
2BD2  74696300           "tic\0"
                         const [22]: "isCinematic"
2BD6  01                 const type 3
2BD7  61AF33EA           const [23]: (-365711519)
2BDB  04                 const type 4
2BDC  05                 string size (5)
2BDD  6178697300         "axis\0"
                         const [24]: "axis"
2BE2  04                 const type 4
2BE3  02                 string size (2)
2BE4  7800               "x\0"
                         const [25]: "x"
2BE6  04                 const type 4
2BE7  02                 string size (2)
2BE8  7900               "y\0"
                         const [26]: "y"
2BEA  04                 const type 4
2BEB  02                 string size (2)
2BEC  7A00               "z\0"
                         const [27]: "z"
2BEE  01                 const type 3
2BEF  FFF9DE4C           const [28]: (1289681407)
2BF3  04                 const type 4
2BF4  06                 string size (6)
2BF5  737065656400       "speed\0"
                         const [29]: "speed"
2BFB  01                 const type 3
2BFC  3F74C2D4           const [30]: (-725453761)
                         * functions:
2C00  00                 sizep (0)
                         * lines:
2C02  01                 sizelineinfo (143)
                         [pc] (line)
2C03  77                 [001] (119)
2C04  01                 [002] (119)
2C05  00                 [003] (119)
2C06  00                 [004] (120)
2C07  77                 [005] (120)
2C08  01                 [006] (121)
2C09  00                 [007] (121)
2C0A  00                 [008] (121)
2C0B  77                 [009] (121)
2C0C  01                 [010] (121)
2C0D  00                 [011] (122)
2C0E  00                 [012] (124)
2C0F  78                 [013] (125)
2C10  01                 [014] (125)
2C11  00                 [015] (125)
2C12  00                 [016] (126)
2C13  78                 [017] (-128)
2C14  01                 [018] (-128)
2C15  00                 [019] (-128)
2C16  00                 [020] (-128)
2C17  79                 [021] (-128)
2C18  01                 [022] (-128)
2C19  00                 [023] (-128)
2C1A  00                 [024] (-127)
2C1B  79                 [025] (-127)
2C1C  01                 [026] (-127)
2C1D  00                 [027] (-126)
2C1E  00                 [028] (-126)
2C1F  79                 [029] (-126)
2C20  01                 [030] (-126)
2C21  00                 [031] (-125)
2C22  00                 [032] (-125)
2C23  79                 [033] (-125)
2C24  01                 [034] (-125)
2C25  00                 [035] (-124)
2C26  00                 [036] (-124)
2C27  79                 [037] (-124)
2C28  01                 [038] (-124)
2C29  00                 [039] (-124)
2C2A  00                 [040] (-123)
2C2B  7A                 [041] (-123)
2C2C  01                 [042] (-123)
2C2D  00                 [043] (-123)
2C2E  00                 [044] (-123)
2C2F  7C                 [045] (-122)
2C30  01                 [046] (-122)
2C31  00                 [047] (-122)
2C32  00                 [048] (-125)
2C33  7D                 [049] (-121)
2C34  01                 [050] (-119)
2C35  00                 [051] (-118)
2C36  00                 [052] (-117)
2C37  7D                 [053] (-117)
2C38  01                 [054] (-117)
2C39  00                 [055] (-117)
2C3A  00                 [056] (-117)
2C3B  7D                 [057] (-116)
2C3C  01                 [058] (-116)
2C3D  00                 [059] (-116)
2C3E  00                 [060] (-116)
2C3F  7E                 [061] (-116)
2C40  01                 [062] (-116)
2C41  00                 [063] (-116)
2C42  00                 [064] (-115)
2C43  80                 [065] (-115)
2C44  01                 [066] (-115)
2C45  00                 [067] (-115)
2C46  00                 [068] (-115)
2C47  80                 [069] (-115)
2C48  01                 [070] (-114)
2C49  00                 [071] (-114)
2C4A  00                 [072] (-114)
2C4B  80                 [073] (-114)
2C4C  01                 [074] (-112)
2C4D  00                 [075] (-112)
2C4E  00                 [076] (-112)
2C4F  80                 [077] (-111)
2C50  01                 [078] (-111)
2C51  00                 [079] (-111)
2C52  00                 [080] (-111)
2C53  80                 [081] (-109)
2C54  01                 [082] (-107)
2C55  00                 [083] (-107)
2C56  00                 [084] (-107)
2C57  80                 [085] (-106)
2C58  01                 [086] (-106)
2C59  00                 [087] (-106)
2C5A  00                 [088] (-106)
2C5B  80                 [089] (-104)
2C5C  01                 [090] (-104)
2C5D  00                 [091] (-104)
2C5E  00                 [092] (-104)
2C5F  81                 [093] (-103)
2C60  01                 [094] (-103)
2C61  00                 [095] (-103)
2C62  00                 [096] (-103)
2C63  81                 [097] (-103)
2C64  01                 [098] (-102)
2C65  00                 [099] (-102)
2C66  00                 [100] (-102)
2C67  81                 [101] (-102)
2C68  01                 [102] (-101)
2C69  00                 [103] (-101)
2C6A  00                 [104] (-101)
2C6B  82                 [105] (-101)
2C6C  01                 [106] (-101)
2C6D  00                 [107] (-101)
2C6E  00                 [108] (-101)
2C6F  82                 [109] (-100)
2C70  01                 [110] (-100)
2C71  00                 [111] (-100)
2C72  00                 [112] (-100)
2C73  82                 [113] (-100)
2C74  01                 [114] (-100)
2C75  00                 [115] (-104)
2C76  00                 [116] (-99)
2C77  82                 [117] (-97)
2C78  01                 [118] (-97)
2C79  00                 [119] (-97)
2C7A  00                 [120] (-97)
2C7B  83                 [121] (-97)
2C7C  01                 [122] (-96)
2C7D  00                 [123] (-96)
2C7E  00                 [124] (-96)
2C7F  83                 [125] (-96)
2C80  01                 [126] (-94)
2C81  00                 [127] (-94)
2C82  00                 [128] (-94)
2C83  83                 [129] (-94)
2C84  01                 [130] (-93)
2C85  00                 [131] (-93)
2C86  00                 [132] (-93)
2C87  83                 [133] (-93)
2C88  01                 [134] (-93)
2C89  00                 [135] (-92)
2C8A  00                 [136] (-92)
2C8B  84                 [137] (-92)
2C8C  01                 [138] (-92)
2C8D  00                 [139] (-94)
2C8E  00                 [140] (-91)
2C8F  84                 [141] (-89)
2C90  01                 [142] (-89)
2C91  00                 [143] (-88)
                         * locals:
2E3F  00                 sizelocvars (0)
                         * upvalues:
2E40  00                 sizeupvalues (0)
                         ** end of function **

                         
2E41                     ** function [9] definition (level 2)
                         ** start of function **
2E41  00                 string size (0)
                         source name: (none)
2E43  03                 line defined (426)
2E44  F8                 last line defined (504)
2E45  03                 nups (4)
2E46  04                 numparams (1)
2E47  01                 is_vararg (0)
2E48  00                 maxstacksize (45)
                         * code:
2E4B  02                 sizecode (295)
2E4C  5D000000           [001] getglobal  1   0        ; 538022378
2E50  99400000           [002] loadk      2   1        ; 0
2E54  62400001           [003] call       1   2   1  
2E58  64804000           [004] self       1   0   258  ; -704974830
2E5C  62800001           [005] call       1   2   2  
2E60  9DC00000           [006] getglobal  2   3        ; 1074689893
2E64  D2008000           [007] move       3   1      
2E68  A2800001           [008] call       2   2   2  
2E6C  98000000           [009] test       2       0    ; to [11] if true
2E70  1A000080           [010] jmp        1            ; to [12]
2E74  1E008000           [011] return     0   1      
2E78  9D000100           [012] getglobal  2   4        ; gRegion
2E7C  A4404101           [013] self       2   2   261  ; -1875307917
2E80  1D810100           [014] getglobal  4   6        ; -332969190
2E84  59C10100           [015] loadk      5   7        ; "IntroQueen"
2E88  22010001           [016] call       4   2   0  
2E8C  A2800000           [017] call       2   0   2  
2E90  DDC00000           [018] getglobal  3   3        ; 1074689893
2E94  12010001           [019] move       4   2      
2E98  E2800001           [020] call       3   2   2  
2E9C  D8000000           [021] test       3       0    ; to [23] if true
2EA0  1A000080           [022] jmp        1            ; to [24]
2EA4  1E008000           [023] return     0   1      
2EA8  E4004201           [024] self       3   2   264  ; -1565518332
2EAC  5D810100           [025] getglobal  5   6        ; -332969190
2EB0  99410200           [026] loadk      6   9        ; "GAME_C1_SPINE5"
2EB4  62010001           [027] call       5   2   0  
2EB8  E2800000           [028] call       3   0   2  
2EBC  2481C200           [029] self       4   1   266  ; 366271214
2EC0  9DC10200           [030] getglobal  6   11       ; gDecorationType
2EC4  22818001           [031] call       4   3   2  
2EC8  6481C200           [032] self       5   1   266  ; 366271214
2ECC  DD010300           [033] getglobal  7   12       ; gSkeletalClothExType
2ED0  62818001           [034] call       5   3   2  
2ED4  A441C300           [035] self       6   1   269  ; -786111647
2ED8  13020000           [036] getupval   8   0      
2EDC  5D820300           [037] getglobal  9   14       ; axis
2EE0  4EC2C304           [038] gettable   9   9   271  ; "x"
2EE4  9D820300           [039] getglobal  10  14       ; axis
2EE8  8E024405           [040] gettable   10  10  272  ; "y"
2EEC  DD820300           [041] getglobal  11  14       ; axis
2EF0  CE42C405           [042] gettable   11  11  273  ; "z"
2EF4  A2410003           [043] call       6   6   1  
2EF8  A441C300           [044] self       6   1   269  ; -786111647
2EFC  13028000           [045] getupval   8   1      
2F00  59820400           [046] loadk      9   18       ; 0
2F04  A2410002           [047] call       6   4   1  
2F08  A441C300           [048] self       6   1   269  ; -786111647
2F0C  13020001           [049] getupval   8   2      
2F10  4EC2C301           [050] gettable   9   3   271  ; "x"
2F14  8E02C401           [051] gettable   10  3   272  ; "y"
2F18  CE42C401           [052] gettable   11  3   273  ; "z"
2F1C  19C30400           [053] loadk      12  19       ; 0
2F20  A2418003           [054] call       6   7   1  
2F24  99C10400           [055] loadk      6   19       ; 0
2F28  E401C500           [056] self       7   1   276  ; -1421644046
2F2C  5D420500           [057] getglobal  9   21       ; projectorType
2F30  9D820500           [058] getglobal  10  22       ; EMPTY_SYMBOL
2F34  E2810002           [059] call       7   4   2  
2F38  1DC20500           [060] getglobal  8   23       ; 1672515847
2F3C  52020002           [061] move       9   4      
2F40  22020101           [062] call       8   2   4  
2F44  1A000680           [063] jmp        25           ; to [89]
2F48  5DC30000           [064] getglobal  13  3        ; 1074689893
2F4C  92030006           [065] move       14  12     
2F50  62830001           [066] call       13  2   2  
2F54  58430000           [067] test       13      1    ; to [69] if false
2F58  1AC00480           [068] jmp        20           ; to [89]
2F5C  64434306           [069] self       13  12  269  ; -786111647
2F60  D3030000           [070] getupval   15  0      
2F64  1D840300           [071] getglobal  16  14       ; axis
2F68  0EC44308           [072] gettable   16  16  271  ; "x"
2F6C  5D840300           [073] getglobal  17  14       ; axis
2F70  4E04C408           [074] gettable   17  17  272  ; "y"
2F74  9D840300           [075] getglobal  18  14       ; axis
2F78  8E444409           [076] gettable   18  18  273  ; "z"
2F7C  62430003           [077] call       13  6   1  
2F80  64434306           [078] self       13  12  269  ; -786111647
2F84  D3038000           [079] getupval   15  1      
2F88  12040003           [080] move       16  6      
2F8C  62430002           [081] call       13  4   1  
2F90  64434306           [082] self       13  12  269  ; -786111647
2F94  D3030001           [083] getupval   15  2      
2F98  0EC4C301           [084] gettable   16  3   271  ; "x"
2F9C  4E04C401           [085] gettable   17  3   272  ; "y"
2FA0  8E44C401           [086] gettable   18  3   273  ; "z"
2FA4  D9C40400           [087] loadk      19  19       ; 0
2FA8  62438003           [088] call       13  7   1  
2FAC  16820000           [089] tforloop   8       2    ; to [91] if exit
2FB0  1A00F97F           [090] jmp        -27          ; to [64]
2FB4  5DC30500           [091] getglobal  13  23       ; 1672515847
2FB8  92038002           [092] move       14  5      
2FBC  62030101           [093] call       13  2   4  
2FC0  1A000680           [094] jmp        25           ; to [120]
2FC4  9DC40000           [095] getglobal  18  3        ; 1074689893
2FC8  D2048008           [096] move       19  17     
2FCC  A2840001           [097] call       18  2   2  
2FD0  98440000           [098] test       18      1    ; to [100] if false
2FD4  1AC00480           [099] jmp        20           ; to [120]
2FD8  A444C308           [100] self       18  17  269  ; -786111647
2FDC  13050000           [101] getupval   20  0      
2FE0  5D850300           [102] getglobal  21  14       ; axis
2FE4  4EC5C30A           [103] gettable   21  21  271  ; "x"
2FE8  9D850300           [104] getglobal  22  14       ; axis
2FEC  8E05440B           [105] gettable   22  22  272  ; "y"
2FF0  DD850300           [106] getglobal  23  14       ; axis
2FF4  CE45C40B           [107] gettable   23  23  273  ; "z"
2FF8  A2440003           [108] call       18  6   1  
2FFC  A444C308           [109] self       18  17  269  ; -786111647
3000  13058000           [110] getupval   20  1      
3004  52050003           [111] move       21  6      
3008  A2440002           [112] call       18  4   1  
300C  A444C308           [113] self       18  17  269  ; -786111647
3010  13050001           [114] getupval   20  2      
3014  4EC5C301           [115] gettable   21  3   271  ; "x"
3018  8E05C401           [116] gettable   22  3   272  ; "y"
301C  CE45C401           [117] gettable   23  3   273  ; "z"
3020  19C60400           [118] loadk      24  19       ; 0
3024  A2448003           [119] call       18  7   1  
3028  56830000           [120] tforloop   13      2    ; to [122] if exit
302C  1A00F97F           [121] jmp        -27          ; to [95]
3030  9DC40000           [122] getglobal  18  3        ; 1074689893
3034  D2048003           [123] move       19  7      
3038  A2840001           [124] call       18  2   2  
303C  98440000           [125] test       18      1    ; to [127] if false
3040  1AC00480           [126] jmp        20           ; to [147]
3044  A444C303           [127] self       18  7   269  ; -786111647
3048  13050000           [128] getupval   20  0      
304C  5D850300           [129] getglobal  21  14       ; axis
3050  4EC5C30A           [130] gettable   21  21  271  ; "x"
3054  9D850300           [131] getglobal  22  14       ; axis
3058  8E05440B           [132] gettable   22  22  272  ; "y"
305C  DD850300           [133] getglobal  23  14       ; axis
3060  CE45C40B           [134] gettable   23  23  273  ; "z"
3064  A2440003           [135] call       18  6   1  
3068  A444C303           [136] self       18  7   269  ; -786111647
306C  13058000           [137] getupval   20  1      
3070  52050003           [138] move       21  6      
3074  A2440002           [139] call       18  4   1  
3078  A444C303           [140] self       18  7   269  ; -786111647
307C  13050001           [141] getupval   20  2      
3080  4EC5C301           [142] gettable   21  3   271  ; "x"
3084  8E05C401           [143] gettable   22  3   272  ; "y"
3088  CE45C401           [144] gettable   23  3   273  ; "z"
308C  19C60400           [145] loadk      24  19       ; 0
3090  A2448003           [146] call       18  7   1  
3094  86040009           [147] loadnil    18  18     
3098  D9440000           [148] loadk      19  1        ; 0
fail op	21
309C  15C0C409           [149] concat     0   19  275
30A0  1A401B80           [150] jmp        110          ; to [261]
30A4  1DC50000           [151] getglobal  20  3        ; 1074689893
30A8  52058000           [152] move       21  1      
30AC  22850001           [153] call       20  2   2  
30B0  18450000           [154] test       20      1    ; to [156] if false
30B4  1A001A80           [155] jmp        105          ; to [261]
30B8  1D050600           [156] getglobal  20  24       ; math
30BC  0E45460A           [157] gettable   20  20  281  ; -688728047
30C0  4DC58489           [158] sub        21  275 19   ; 0
30C4  99850600           [159] loadk      22  26       ; 0
30C8  22858001           [160] call       20  3   2  
30CC  44C5848D           [161] mul        21  283 19   ; -51
30D0  8344058E           [162] add        18  284 21   ; -51
30D4  64054201           [163] self       21  2   264  ; -1565518332
30D8  DD850100           [164] getglobal  23  6        ; -332969190
30DC  19460200           [165] loadk      24  9        ; "GAME_C1_SPINE5"
30E0  E2050001           [166] call       23  2   0  
30E4  62850000           [167] call       21  0   2  
30E8  9D450700           [168] getglobal  22  29       ; 572299008
30EC  D9450000           [169] loadk      23  1        ; 0
30F0  19460000           [170] loadk      24  1        ; 0
30F4  59860700           [171] loadk      25  30       ; 0
30F8  A2850002           [172] call       22  4   2  
30FC  C380850A           [173] add        3   21  22 
3100  6445C300           [174] self       21  1   269  ; -786111647
3104  D3050001           [175] getupval   23  2      
3108  0EC6C301           [176] gettable   24  3   271  ; "x"
310C  4E06C401           [177] gettable   25  3   272  ; "y"
3110  8E46C401           [178] gettable   26  3   273  ; "z"
3114  D9C60400           [179] loadk      27  19       ; 0
3118  62458003           [180] call       21  7   1  
311C  6445C300           [181] self       21  1   269  ; -786111647
3120  D3058001           [182] getupval   23  3      
3124  12060009           [183] move       24  18     
3128  62450002           [184] call       21  4   1  
312C  4A050002           [185] len        21  4      
fail op	35
3130  23C0C40A           [186] close      0  
3134  1AC00080           [187] jmp        4            ; to [192]
3138  6485C200           [188] self       21  1   266  ; 366271214
313C  DDC50200           [189] getglobal  23  11       ; gDecorationType
3140  62858001           [190] call       21  3   2  
3144  1201800A           [191] move       4   21     
3148  5DC50500           [192] getglobal  21  23       ; 1672515847
314C  92050002           [193] move       22  4      
3150  62050101           [194] call       21  2   4  
3154  1AC00380           [195] jmp        16           ; to [212]
3158  9DC60000           [196] getglobal  26  3        ; 1074689893
315C  D206800C           [197] move       27  25     
3160  A2860001           [198] call       26  2   2  
3164  98460000           [199] test       26      1    ; to [201] if false
3168  1A800280           [200] jmp        11           ; to [212]
316C  A446C30C           [201] self       26  25  269  ; -786111647
3170  13078001           [202] getupval   28  3      
3174  52070009           [203] move       29  18     
3178  A2460002           [204] call       26  4   1  
317C  A446C30C           [205] self       26  25  269  ; -786111647
3180  13070001           [206] getupval   28  2      
3184  4EC7C301           [207] gettable   29  3   271  ; "x"
3188  8E07C401           [208] gettable   30  3   272  ; "y"
318C  CE47C401           [209] gettable   31  3   273  ; "z"
3190  19C80400           [210] loadk      32  19       ; 0
3194  A2468003           [211] call       26  7   1  
3198  56850000           [212] tforloop   21      2    ; to [214] if exit
319C  1A40FB7F           [213] jmp        -18          ; to [196]
31A0  9DC60500           [214] getglobal  26  23       ; 1672515847
31A4  D2068002           [215] move       27  5      
31A8  A2060101           [216] call       26  2   4  
31AC  1AC00380           [217] jmp        16           ; to [234]
31B0  DDC70000           [218] getglobal  31  3        ; 1074689893
31B4  1208000F           [219] move       32  30     
31B8  E2870001           [220] call       31  2   2  
31BC  D8470000           [221] test       31      1    ; to [223] if false
31C0  1A800280           [222] jmp        11           ; to [234]
31C4  E447430F           [223] self       31  30  269  ; -786111647
31C8  53088001           [224] getupval   33  3      
31CC  92080009           [225] move       34  18     
31D0  E2470002           [226] call       31  4   1  
31D4  E447430F           [227] self       31  30  269  ; -786111647
31D8  53080001           [228] getupval   33  2      
31DC  8EC8C301           [229] gettable   34  3   271  ; "x"
31E0  CE08C401           [230] gettable   35  3   272  ; "y"
31E4  0E49C401           [231] gettable   36  3   273  ; "z"
31E8  59C90400           [232] loadk      37  19       ; 0
31EC  E2478003           [233] call       31  7   1  
31F0  96860000           [234] tforloop   26      2    ; to [236] if exit
31F4  1A40FB7F           [235] jmp        -18          ; to [218]
31F8  DDC70000           [236] getglobal  31  3        ; 1074689893
31FC  12088003           [237] move       32  7      
3200  E2870001           [238] call       31  2   2  
3204  D8470000           [239] test       31      1    ; to [241] if false
3208  1A800280           [240] jmp        11           ; to [252]
320C  E447C303           [241] self       31  7   269  ; -786111647
3210  53088001           [242] getupval   33  3      
3214  92080009           [243] move       34  18     
3218  E2470002           [244] call       31  4   1  
321C  E447C303           [245] self       31  7   269  ; -786111647
3220  53080001           [246] getupval   33  2      
3224  8EC8C301           [247] gettable   34  3   271  ; "x"
3228  CE08C401           [248] gettable   35  3   272  ; "y"
322C  0E49C401           [249] gettable   36  3   273  ; "z"
3230  59C90400           [250] loadk      37  19       ; 0
3234  E2478003           [251] call       31  7   1  
3238  DDC70700           [252] getglobal  31  31       ; 1289681407
323C  E2878000           [253] call       31  1   2  
3240  1D080800           [254] getglobal  32  32       ; speed
3244  C407880F           [255] mul        31  31  32 
3248  C3C48709           [256] add        19  19  31 
324C  DD070000           [257] getglobal  31  0        ; 538022378
3250  19480000           [258] loadk      32  1        ; 0
3254  E2470001           [259] call       31  2   1  
3258  1AC0E37F           [260] jmp        -112         ; to [149]
325C  E447C300           [261] self       31  1   269  ; -786111647
3260  53088001           [262] getupval   33  3      
3264  99480800           [263] loadk      34  33       ; 0
3268  E2470002           [264] call       31  4   1  
326C  DDC70500           [265] getglobal  31  23       ; 1672515847
3270  12080002           [266] move       32  4      
3274  E2070101           [267] call       31  2   4  
3278  1A000280           [268] jmp        9            ; to [278]
327C  1DC90000           [269] getglobal  36  3        ; 1074689893
3280  52098011           [270] move       37  35     
3284  22890001           [271] call       36  2   2  
3288  18490000           [272] test       36      1    ; to [274] if false
328C  1AC00080           [273] jmp        4            ; to [278]
3290  2449C311           [274] self       36  35  269  ; -786111647
3294  93098001           [275] getupval   38  3      
3298  D9490800           [276] loadk      39  33       ; 0
329C  22490002           [277] call       36  4   1  
32A0  D6870000           [278] tforloop   31      2    ; to [280] if exit
32A4  1A00FD7F           [279] jmp        -11          ; to [269]
32A8  1DC90500           [280] getglobal  36  23       ; 1672515847
32AC  52098002           [281] move       37  5      
32B0  22090101           [282] call       36  2   4  
32B4  1A000280           [283] jmp        9            ; to [293]
32B8  5DCA0000           [284] getglobal  41  3        ; 1074689893
32BC  920A0014           [285] move       42  40     
32C0  628A0001           [286] call       41  2   2  
32C4  584A0000           [287] test       41      1    ; to [289] if false
32C8  1AC00080           [288] jmp        4            ; to [293]
32CC  644A4314           [289] self       41  40  269  ; -786111647
32D0  D30A8001           [290] getupval   43  3      
32D4  194B0800           [291] loadk      44  33       ; 0
32D8  624A0002           [292] call       41  4   1  
32DC  16890000           [293] tforloop   36      2    ; to [295] if exit
32E0  1A00FD7F           [294] jmp        -11          ; to [284]
32E4  1E008000           [295] return     0   1      
                         * constants:
32E8  22                 sizek (34)
32E9  01                 const type 3
32EA  EA911120           const [0]: (538022378)
32EE  03                 const type 3
32EF  00000000           const [1]: (0)
32F3  01                 const type 3
32F4  12F0FAD5           const [2]: (-704974830)
32F8  01                 const type 3
32F9  65770E40           const [3]: (1074689893)
32FD  04                 const type 4
32FE  08                 string size (8)
32FF  67526567696F6E00   "gRegion\0"
                         const [4]: "gRegion"
3307  01                 const type 3
3308  73123990           const [5]: (-1875307917)
330C  01                 const type 3
330D  1A4B27EC           const [6]: (-332969190)
3311  04                 const type 4
3312  0B                 string size (11)
3313  496E74726F517565+  "IntroQue"
331B  656E00             "en\0"
                         const [7]: "IntroQueen"
331E  01                 const type 3
331F  0416B0A2           const [8]: (-1565518332)
3323  04                 const type 4
3324  0F                 string size (15)
3325  47414D455F43315F+  "GAME_C1_"
332D  5350494E453500     "SPINE5\0"
                         const [9]: "GAME_C1_SPINE5"
3334  01                 const type 3
3335  EEDAD415           const [10]: (366271214)
3339  04                 const type 4
333A  10                 string size (16)
333B  674465636F726174+  "gDecorat"
3343  696F6E5479706500   "ionType\0"
                         const [11]: "gDecorationType"
334B  04                 const type 4
334C  15                 string size (21)
334D  67536B656C657461+  "gSkeleta"
3355  6C436C6F74684578+  "lClothEx"
335D  5479706500         "Type\0"
                         const [12]: "gSkeletalClothExType"
3362  01                 const type 3
3363  61E324D1           const [13]: (-786111647)
3367  04                 const type 4
3368  05                 string size (5)
3369  6178697300         "axis\0"
                         const [14]: "axis"
336E  04                 const type 4
336F  02                 string size (2)
3370  7800               "x\0"
                         const [15]: "x"
3372  04                 const type 4
3373  02                 string size (2)
3374  7900               "y\0"
                         const [16]: "y"
3376  04                 const type 4
3377  02                 string size (2)
3378  7A00               "z\0"
                         const [17]: "z"
337A  03                 const type 3
337B  00000040           const [18]: (0)
337F  03                 const type 3
3380  0000803F           const [19]: (0)
3384  01                 const type 3
3385  F26E43AB           const [20]: (-1421644046)
3389  04                 const type 4
338A  0E                 string size (14)
338B  70726F6A6563746F+  "projecto"
3393  725479706500       "rType\0"
                         const [21]: "projectorType"
3399  04                 const type 4
339A  0D                 string size (13)
339B  454D5054595F5359+  "EMPTY_SY"
33A3  4D424F4C00         "MBOL\0"
                         const [22]: "EMPTY_SYMBOL"
33A8  01                 const type 3
33A9  0791B063           const [23]: (1672515847)
33AD  04                 const type 4
33AE  05                 string size (5)
33AF  6D61746800         "math\0"
                         const [24]: "math"
33B4  01                 const type 3
33B5  11D8F2D6           const [25]: (-688728047)
33B9  03                 const type 3
33BA  00004040           const [26]: (0)
33BE  03                 const type 3
33BF  CDCCCC3E           const [27]: (-51)
33C3  03                 const type 3
33C4  CDCCCC3D           const [28]: (-51)
33C8  01                 const type 3
33C9  00971C22           const [29]: (572299008)
33CD  03                 const type 3
33CE  000080BE           const [30]: (0)
33D2  01                 const type 3
33D3  FFF9DE4C           const [31]: (1289681407)
33D7  04                 const type 4
33D8  06                 string size (6)
33D9  737065656400       "speed\0"
                         const [32]: "speed"
33DF  03                 const type 3
33E0  0000003F           const [33]: (0)
                         * functions:
33E4  00                 sizep (0)
                         * lines:
33E6  02                 sizelineinfo (295)
                         [pc] (line)
33E7  AB                 [001] (-85)
33E8  01                 [002] (-85)
33E9  00                 [003] (-85)
33EA  00                 [004] (-84)
33EB  AB                 [005] (-84)
33EC  01                 [006] (-83)
33ED  00                 [007] (-83)
33EE  00                 [008] (-83)
33EF  AB                 [009] (-83)
33F0  01                 [010] (-83)
33F1  00                 [011] (-82)
33F2  00                 [012] (-80)
33F3  AC                 [013] (-80)
33F4  01                 [014] (-80)
33F5  00                 [015] (-80)
33F6  00                 [016] (-80)
33F7  AC                 [017] (-80)
33F8  01                 [018] (-79)
33F9  00                 [019] (-79)
33FA  00                 [020] (-79)
33FB  AD                 [021] (-79)
33FC  01                 [022] (-79)
33FD  00                 [023] (-78)
33FE  00                 [024] (-76)
33FF  AD                 [025] (-76)
3400  01                 [026] (-76)
3401  00                 [027] (-76)
3402  00                 [028] (-76)
3403  AD                 [029] (-75)
3404  01                 [030] (-75)
3405  00                 [031] (-75)
3406  00                 [032] (-74)
3407  AD                 [033] (-74)
3408  01                 [034] (-74)
3409  00                 [035] (-73)
340A  00                 [036] (-73)
340B  AD                 [037] (-73)
340C  01                 [038] (-73)
340D  00                 [039] (-73)
340E  00                 [040] (-73)
340F  AE                 [041] (-73)
3410  01                 [042] (-73)
3411  00                 [043] (-73)
3412  00                 [044] (-72)
3413  B0                 [045] (-72)
3414  01                 [046] (-72)
3415  00                 [047] (-72)
3416  00                 [048] (-71)
3417  B0                 [049] (-71)
3418  01                 [050] (-71)
3419  00                 [051] (-71)
341A  00                 [052] (-71)
341B  B0                 [053] (-71)
341C  01                 [054] (-71)
341D  00                 [055] (-70)
341E  00                 [056] (-69)
341F  B0                 [057] (-69)
3420  01                 [058] (-69)
3421  00                 [059] (-69)
3422  00                 [060] (-68)
3423  B0                 [061] (-68)
3424  01                 [062] (-68)
3425  00                 [063] (-68)
3426  00                 [064] (-67)
3427  B0                 [065] (-67)
3428  01                 [066] (-67)
3429  00                 [067] (-67)
342A  00                 [068] (-67)
342B  B1                 [069] (-66)
342C  01                 [070] (-66)
342D  00                 [071] (-66)
342E  00                 [072] (-66)
342F  B1                 [073] (-66)
3430  01                 [074] (-66)
3431  00                 [075] (-66)
3432  00                 [076] (-66)
3433  B1                 [077] (-66)
3434  01                 [078] (-65)
3435  00                 [079] (-65)
3436  00                 [080] (-65)
3437  B1                 [081] (-65)
3438  01                 [082] (-64)
3439  00                 [083] (-64)
343A  00                 [084] (-64)
343B  B1                 [085] (-64)
343C  01                 [086] (-64)
343D  00                 [087] (-64)
343E  00                 [088] (-64)
343F  B2                 [089] (-68)
3440  01                 [090] (-63)
3441  00                 [091] (-61)
3442  00                 [092] (-61)
3443  B4                 [093] (-61)
3444  01                 [094] (-61)
3445  00                 [095] (-60)
3446  00                 [096] (-60)
3447  B4                 [097] (-60)
3448  01                 [098] (-60)
3449  00                 [099] (-60)
344A  00                 [100] (-59)
344B  B4                 [101] (-59)
344C  01                 [102] (-59)
344D  00                 [103] (-59)
344E  00                 [104] (-59)
344F  B4                 [105] (-59)
3450  01                 [106] (-59)
3451  00                 [107] (-59)
3452  00                 [108] (-59)
3453  B4                 [109] (-58)
3454  01                 [110] (-58)
3455  00                 [111] (-58)
3456  00                 [112] (-58)
3457  B5                 [113] (-57)
3458  01                 [114] (-57)
3459  00                 [115] (-57)
345A  00                 [116] (-57)
345B  B5                 [117] (-57)
345C  01                 [118] (-57)
345D  00                 [119] (-57)
345E  00                 [120] (-61)
345F  B5                 [121] (-56)
3460  01                 [122] (-54)
3461  00                 [123] (-54)
3462  00                 [124] (-54)
3463  B6                 [125] (-54)
3464  01                 [126] (-54)
3465  00                 [127] (-53)
3466  00                 [128] (-53)
3467  B6                 [129] (-53)
3468  01                 [130] (-53)
3469  00                 [131] (-53)
346A  00                 [132] (-53)
346B  B6                 [133] (-53)
346C  01                 [134] (-53)
346D  00                 [135] (-53)
346E  00                 [136] (-52)
346F  B7                 [137] (-52)
3470  01                 [138] (-52)
3471  00                 [139] (-52)
3472  00                 [140] (-51)
3473  B7                 [141] (-51)
3474  01                 [142] (-51)
3475  00                 [143] (-51)
3476  00                 [144] (-51)
3477  B7                 [145] (-51)
3478  01                 [146] (-51)
3479  00                 [147] (-49)
347A  00                 [148] (-48)
347B  B7                 [149] (-47)
347C  01                 [150] (-47)
347D  00                 [151] (-47)
347E  00                 [152] (-47)
347F  B7                 [153] (-47)
3480  01                 [154] (-47)
3481  00                 [155] (-47)
3482  00                 [156] (-46)
3483  B7                 [157] (-46)
3484  01                 [158] (-46)
3485  00                 [159] (-46)
3486  00                 [160] (-46)
3487  B7                 [161] (-45)
3488  01                 [162] (-45)
3489  00                 [163] (-44)
348A  00                 [164] (-44)
348B  B7                 [165] (-44)
348C  01                 [166] (-44)
348D  00                 [167] (-44)
348E  00                 [168] (-44)
348F  B7                 [169] (-44)
3490  01                 [170] (-44)
3491  00                 [171] (-44)
3492  00                 [172] (-44)
3493  B8                 [173] (-44)
3494  01                 [174] (-43)
3495  00                 [175] (-43)
3496  00                 [176] (-43)
3497  B8                 [177] (-43)
3498  01                 [178] (-43)
3499  00                 [179] (-43)
349A  00                 [180] (-43)
349B  B8                 [181] (-42)
349C  01                 [182] (-42)
349D  00                 [183] (-42)
349E  00                 [184] (-42)
349F  B8                 [185] (-41)
34A0  01                 [186] (-41)
34A1  00                 [187] (-41)
34A2  00                 [188] (-40)
34A3  B9                 [189] (-40)
34A4  01                 [190] (-40)
34A5  00                 [191] (-40)
34A6  00                 [192] (-38)
34A7  B9                 [193] (-38)
34A8  01                 [194] (-38)
34A9  00                 [195] (-38)
34AA  00                 [196] (-37)
34AB  B9                 [197] (-37)
34AC  01                 [198] (-37)
34AD  00                 [199] (-37)
34AE  00                 [200] (-37)
34AF  B9                 [201] (-36)
34B0  01                 [202] (-36)
34B1  00                 [203] (-36)
34B2  00                 [204] (-36)
34B3  B9                 [205] (-35)
34B4  01                 [206] (-35)
34B5  00                 [207] (-35)
34B6  00                 [208] (-35)
34B7  B9                 [209] (-35)
34B8  01                 [210] (-35)
34B9  00                 [211] (-35)
34BA  00                 [212] (-38)
34BB  B9                 [213] (-34)
34BC  01                 [214] (-32)
34BD  00                 [215] (-32)
34BE  00                 [216] (-32)
34BF  BA                 [217] (-32)
34C0  01                 [218] (-31)
34C1  00                 [219] (-31)
34C2  00                 [220] (-31)
34C3  BB                 [221] (-31)
34C4  01                 [222] (-31)
34C5  00                 [223] (-30)
34C6  00                 [224] (-30)
34C7  BB                 [225] (-30)
34C8  01                 [226] (-30)
34C9  00                 [227] (-29)
34CA  00                 [228] (-29)
34CB  BB                 [229] (-29)
34CC  01                 [230] (-29)
34CD  00                 [231] (-29)
34CE  00                 [232] (-29)
34CF  BB                 [233] (-29)
34D0  01                 [234] (-32)
34D1  00                 [235] (-28)
34D2  00                 [236] (-26)
34D3  BC                 [237] (-26)
34D4  01                 [238] (-26)
34D5  00                 [239] (-26)
34D6  00                 [240] (-26)
34D7  BC                 [241] (-25)
34D8  01                 [242] (-25)
34D9  00                 [243] (-25)
34DA  00                 [244] (-25)
34DB  BC                 [245] (-24)
34DC  01                 [246] (-24)
34DD  00                 [247] (-24)
34DE  00                 [248] (-24)
34DF  BC                 [249] (-24)
34E0  01                 [250] (-24)
34E1  00                 [251] (-24)
34E2  00                 [252] (-22)
34E3  BD                 [253] (-22)
34E4  01                 [254] (-22)
34E5  00                 [255] (-22)
34E6  00                 [256] (-22)
34E7  BD                 [257] (-21)
34E8  01                 [258] (-21)
34E9  00                 [259] (-21)
34EA  00                 [260] (-21)
34EB  BD                 [261] (-19)
34EC  01                 [262] (-19)
34ED  00                 [263] (-19)
34EE  00                 [264] (-19)
34EF  BD                 [265] (-18)
34F0  01                 [266] (-18)
34F1  00                 [267] (-18)
34F2  00                 [268] (-18)
34F3  BD                 [269] (-17)
34F4  01                 [270] (-17)
34F5  00                 [271] (-17)
34F6  00                 [272] (-17)
34F7  BE                 [273] (-17)
34F8  01                 [274] (-16)
34F9  00                 [275] (-16)
34FA  00                 [276] (-16)
34FB  BE                 [277] (-16)
34FC  01                 [278] (-18)
34FD  00                 [279] (-15)
34FE  00                 [280] (-13)
34FF  BE                 [281] (-13)
3500  01                 [282] (-13)
3501  00                 [283] (-13)
3502  00                 [284] (-12)
3503  BE                 [285] (-12)
3504  01                 [286] (-12)
3505  00                 [287] (-12)
3506  00                 [288] (-12)
3507  BE                 [289] (-11)
3508  01                 [290] (-11)
3509  00                 [291] (-11)
350A  00                 [292] (-11)
350B  BE                 [293] (-13)
350C  01                 [294] (-10)
350D  00                 [295] (-8)
                         * locals:
3883  00                 sizelocvars (0)
                         * upvalues:
3884  00                 sizeupvalues (0)
                         ** end of function **

                         
3885                     ** function [10] definition (level 2)
                         ** start of function **
3885  00                 string size (0)
                         source name: (none)
3887  03                 line defined (506)
3888  A4                 last line defined (548)
3889  04                 nups (6)
388A  06                 numparams (1)
388B  01                 is_vararg (0)
388C  00                 maxstacksize (27)
                         * code:
388E  7D                 sizecode (125)
388F  5D000000           [001] getglobal  1   0        ; 538022378
3893  99400000           [002] loadk      2   1        ; 0
3897  62400001           [003] call       1   2   1  
389B  64804000           [004] self       1   0   258  ; -704974830
389F  62800001           [005] call       1   2   2  
38A3  9DC00000           [006] getglobal  2   3        ; 1074689893
38A7  D2008000           [007] move       3   1      
38AB  A2800001           [008] call       2   2   2  
38AF  98000000           [009] test       2       0    ; to [11] if true
38B3  1A000080           [010] jmp        1            ; to [12]
38B7  1E008000           [011] return     0   1      
38BB  99000100           [012] loadk      2   4        ; -102
38BF  E440C100           [013] self       3   1   261  ; -1565518332
38C3  53010000           [014] getupval   5   0      
38C7  E2808001           [015] call       3   3   2  
38CB  13018000           [016] getupval   4   1      
38CF  52018000           [017] move       5   1      
38D3  9D810100           [018] getglobal  6   6        ; projectorType
38D7  22818001           [019] call       4   3   2  
38DB  5DC10100           [020] getglobal  5   7        ; 1672515847
38DF  92010002           [021] move       6   4      
38E3  62010101           [022] call       5   2   4  
38E7  1A400480           [023] jmp        18           ; to [42]
38EB  9DC20000           [024] getglobal  10  3        ; 1074689893
38EF  D2028004           [025] move       11  9      
38F3  A2820001           [026] call       10  2   2  
38F7  98420000           [027] test       10      1    ; to [29] if false
38FB  1A000380           [028] jmp        13           ; to [42]
38FF  A402C204           [029] self       10  9   264  ; -786111647
3903  13030001           [030] getupval   12  2      
3907  5D430200           [031] getglobal  13  9        ; axis
390B  4E83C206           [032] gettable   13  13  266  ; "x"
390F  9D430200           [033] getglobal  14  9        ; axis
3913  8EC34207           [034] gettable   14  14  267  ; "y"
3917  DD430200           [035] getglobal  15  9        ; axis
391B  CE03C307           [036] gettable   15  15  268  ; "z"
391F  A2420003           [037] call       10  6   1  
3923  A402C204           [038] self       10  9   264  ; -786111647
3927  13038001           [039] getupval   12  3      
392B  52030001           [040] move       13  2      
392F  A2420002           [041] call       10  4   1  
3933  56810000           [042] tforloop   5       2    ; to [44] if exit
3937  1AC0FA7F           [043] jmp        -20          ; to [24]
393B  86020005           [044] loadnil    10  10     
393F  D9420300           [045] loadk      11  13       ; 0
fail op	21
3943  15C08280           [046] concat     0   257 11 
3947  1AC00B80           [047] jmp        48           ; to [96]
394B  1DC30000           [048] getglobal  12  3        ; 1074689893
394F  52038000           [049] move       13  1      
3953  22830001           [050] call       12  2   2  
3957  18430000           [051] test       12      1    ; to [53] if false
395B  1A800A80           [052] jmp        43           ; to [96]
395F  1D830300           [053] getglobal  12  14       ; _T
3963  0EC34306           [054] gettable   12  12  271  ; "transferenceInterrupted"
3967  18430000           [055] test       12      1    ; to [57] if false
396B  1A800980           [056] jmp        39           ; to [96]
396F  84C20288           [057] mul        10  272 11   ; 0
3973  2443C100           [058] self       12  1   261  ; -1565518332
3977  93030000           [059] getupval   14  0      
397B  22838001           [060] call       12  3   2  
397F  D2000006           [061] move       3   12     
3983  1DC30100           [062] getglobal  12  7        ; 1672515847
3987  52030002           [063] move       13  4      
398B  22030101           [064] call       12  2   4  
398F  1A800480           [065] jmp        19           ; to [85]
3993  5DC40000           [066] getglobal  17  3        ; 1074689893
3997  92040008           [067] move       18  16     
399B  62840001           [068] call       17  2   2  
399F  58440000           [069] test       17      1    ; to [71] if false
39A3  1A400380           [070] jmp        14           ; to [85]
39A7  64044208           [071] self       17  16  264  ; -786111647
39AB  D3040002           [072] getupval   19  4      
39AF  12050005           [073] move       20  10     
39B3  62440002           [074] call       17  4   1  
39B7  64044208           [075] self       17  16  264  ; -786111647
39BB  D3048002           [076] getupval   19  5      
39BF  0E85C201           [077] gettable   20  3   266  ; "x"
39C3  4EC5C201           [078] gettable   21  3   267  ; "y"
39C7  8E05C301           [079] gettable   22  3   268  ; "z"
39CB  D9450300           [080] loadk      23  13       ; 0
39CF  62448003           [081] call       17  7   1  
39D3  64444408           [082] self       17  16  273  ; -703571861
39D7  CDC48286           [083] sub        19  269 11   ; 0
39DB  62448001           [084] call       17  3   1  
39DF  16830000           [085] tforloop   12      2    ; to [87] if exit
39E3  1A80FA7F           [086] jmp        -21          ; to [66]
39E7  5D840400           [087] getglobal  17  18       ; 1289681407
39EB  62848000           [088] call       17  1   2  
39EF  9DC40400           [089] getglobal  18  19       ; speed
39F3  44848408           [090] mul        17  17  18 
39F7  CD428405           [091] sub        11  11  17 
39FB  5D040000           [092] getglobal  17  0        ; 538022378
39FF  99440000           [093] loadk      18  1        ; 0
3A03  62440001           [094] call       17  2   1  
3A07  1A40F37F           [095] jmp        -50          ; to [46]
3A0B  5D840300           [096] getglobal  17  14       ; _T
3A0F  4EC4C308           [097] gettable   17  17  271  ; "transferenceInterrupted"
3A13  58440000           [098] test       17      1    ; to [100] if false
3A17  1AC00380           [099] jmp        16           ; to [116]
3A1B  5DC40100           [100] getglobal  17  7        ; 1672515847
3A1F  92040002           [101] move       18  4      
3A23  62040101           [102] call       17  2   4  
3A27  1A000280           [103] jmp        9            ; to [113]
3A2B  9DC50000           [104] getglobal  22  3        ; 1074689893
3A2F  D205800A           [105] move       23  21     
3A33  A2850001           [106] call       22  2   2  
3A37  98450000           [107] test       22      1    ; to [109] if false
3A3B  1AC00080           [108] jmp        4            ; to [113]
3A3F  A405C20A           [109] self       22  21  264  ; -786111647
3A43  13060002           [110] getupval   24  4      
3A47  59060400           [111] loadk      25  16       ; 0
3A4B  A2450002           [112] call       22  4   1  
3A4F  56840000           [113] tforloop   17      2    ; to [115] if exit
3A53  1A00FD7F           [114] jmp        -11          ; to [104]
3A57  1A400080           [115] jmp        2            ; to [118]
3A5B  9D850300           [116] getglobal  22  14       ; _T
3A5F  8C05C587           [117] settable   22  271 276  ; "transferenceInterrupted" nil
3A63  9D450500           [118] getglobal  22  21       ; Effects
3A67  8E85450B           [119] gettable   22  22  278  ; 1840978700
3A6B  D2058000           [120] move       23  1      
3A6F  1DC60500           [121] getglobal  24  23       ; gParticleSysType
3A73  57060000           [122] loadbool   25  0   0    ; false
3A77  97060000           [123] loadbool   26  0   0    ; false
3A7B  A2458002           [124] call       22  5   1  
3A7F  1E008000           [125] return     0   1      
                         * constants:
3A83  18                 sizek (24)
3A84  01                 const type 3
3A85  EA911120           const [0]: (538022378)
3A89  03                 const type 3
3A8A  00000000           const [1]: (0)
3A8E  01                 const type 3
3A8F  12F0FAD5           const [2]: (-704974830)
3A93  01                 const type 3
3A94  65770E40           const [3]: (1074689893)
3A98  03                 const type 3
3A99  9A99993F           const [4]: (-102)
3A9D  01                 const type 3
3A9E  0416B0A2           const [5]: (-1565518332)
3AA2  04                 const type 4
3AA3  0E                 string size (14)
3AA4  70726F6A6563746F+  "projecto"
3AAC  725479706500       "rType\0"
                         const [6]: "projectorType"
3AB2  01                 const type 3
3AB3  0791B063           const [7]: (1672515847)
3AB7  01                 const type 3
3AB8  61E324D1           const [8]: (-786111647)
3ABC  04                 const type 4
3ABD  05                 string size (5)
3ABE  6178697300         "axis\0"
                         const [9]: "axis"
3AC3  04                 const type 4
3AC4  02                 string size (2)
3AC5  7800               "x\0"
                         const [10]: "x"
3AC7  04                 const type 4
3AC8  02                 string size (2)
3AC9  7900               "y\0"
                         const [11]: "y"
3ACB  04                 const type 4
3ACC  02                 string size (2)
3ACD  7A00               "z\0"
                         const [12]: "z"
3ACF  03                 const type 3
3AD0  0000803F           const [13]: (0)
3AD4  04                 const type 4
3AD5  03                 string size (3)
3AD6  5F5400             "_T\0"
                         const [14]: "_T"
3AD9  04                 const type 4
3ADA  18                 string size (24)
3ADB  7472616E73666572+  "transfer"
3AE3  656E6365496E7465+  "enceInte"
3AEB  7272757074656400   "rrupted\0"
                         const [15]: "transferenceInterrupted"
3AF3  03                 const type 3
3AF4  0000003F           const [16]: (0)
3AF8  01                 const type 3
3AF9  6B5810D6           const [17]: (-703571861)
3AFD  01                 const type 3
3AFE  FFF9DE4C           const [18]: (1289681407)
3B02  04                 const type 4
3B03  06                 string size (6)
3B04  737065656400       "speed\0"
                         const [19]: "speed"
3B0A  00                 const type 0
                         const [20]: nil
3B0B  04                 const type 4
3B0C  08                 string size (8)
3B0D  4566666563747300   "Effects\0"
                         const [21]: "Effects"
3B15  01                 const type 3
3B16  0C1BBB6D           const [22]: (1840978700)
3B1A  04                 const type 4
3B1B  11                 string size (17)
3B1C  675061727469636C+  "gParticl"
3B24  6553797354797065+  "eSysType"
3B2C  00                 "\0"
                         const [23]: "gParticleSysType"
                         * functions:
3B2D  00                 sizep (0)
                         * lines:
3B2E  7D                 sizelineinfo (125)
                         [pc] (line)
3B2F  FB                 [001] (-5)
3B30  01                 [002] (-5)
3B31  00                 [003] (-5)
3B32  00                 [004] (-4)
3B33  FB                 [005] (-4)
3B34  01                 [006] (-3)
3B35  00                 [007] (-3)
3B36  00                 [008] (-3)
3B37  FB                 [009] (-3)
3B38  01                 [010] (-3)
3B39  00                 [011] (-2)
3B3A  00                 [012] (0)
3B3B  FC                 [013] (1)
3B3C  01                 [014] (1)
3B3D  00                 [015] (1)
3B3E  00                 [016] (2)
3B3F  FC                 [017] (2)
3B40  01                 [018] (2)
3B41  00                 [019] (2)
3B42  00                 [020] (3)
3B43  FD                 [021] (3)
3B44  01                 [022] (3)
3B45  00                 [023] (3)
3B46  00                 [024] (4)
3B47  FD                 [025] (4)
3B48  01                 [026] (4)
3B49  00                 [027] (4)
3B4A  00                 [028] (4)
3B4B  FD                 [029] (5)
3B4C  01                 [030] (5)
3B4D  00                 [031] (5)
3B4E  00                 [032] (5)
3B4F  FD                 [033] (5)
3B50  01                 [034] (5)
3B51  00                 [035] (5)
3B52  00                 [036] (5)
3B53  FD                 [037] (5)
3B54  01                 [038] (6)
3B55  00                 [039] (6)
3B56  00                 [040] (6)
3B57  FE                 [041] (6)
3B58  01                 [042] (3)
3B59  00                 [043] (7)
3B5A  00                 [044] (9)
3B5B  00                 [045] (10)
3B5C  02                 [046] (11)
3B5D  00                 [047] (11)
3B5E  00                 [048] (11)
3B5F  01                 [049] (11)
3B60  02                 [050] (11)
3B61  00                 [051] (11)
3B62  00                 [052] (11)
3B63  01                 [053] (11)
3B64  02                 [054] (11)
3B65  00                 [055] (11)
3B66  00                 [056] (11)
3B67  01                 [057] (12)
3B68  02                 [058] (13)
3B69  00                 [059] (13)
3B6A  00                 [060] (13)
3B6B  02                 [061] (13)
3B6C  02                 [062] (14)
3B6D  00                 [063] (14)
3B6E  00                 [064] (14)
3B6F  02                 [065] (14)
3B70  02                 [066] (15)
3B71  00                 [067] (15)
3B72  00                 [068] (15)
3B73  02                 [069] (15)
3B74  02                 [070] (15)
3B75  00                 [071] (16)
3B76  00                 [072] (16)
3B77  02                 [073] (16)
3B78  02                 [074] (16)
3B79  00                 [075] (17)
3B7A  00                 [076] (17)
3B7B  03                 [077] (17)
3B7C  02                 [078] (17)
3B7D  00                 [079] (17)
3B7E  00                 [080] (17)
3B7F  03                 [081] (17)
3B80  02                 [082] (18)
3B81  00                 [083] (18)
3B82  00                 [084] (18)
3B83  03                 [085] (14)
3B84  02                 [086] (19)
3B85  00                 [087] (21)
3B86  00                 [088] (21)
3B87  03                 [089] (21)
3B88  02                 [090] (21)
3B89  00                 [091] (21)
3B8A  00                 [092] (22)
3B8B  04                 [093] (22)
3B8C  02                 [094] (22)
3B8D  00                 [095] (22)
3B8E  00                 [096] (25)
3B8F  04                 [097] (25)
3B90  02                 [098] (25)
3B91  00                 [099] (25)
3B92  00                 [100] (26)
3B93  04                 [101] (26)
3B94  02                 [102] (26)
3B95  00                 [103] (26)
3B96  00                 [104] (27)
3B97  04                 [105] (27)
3B98  02                 [106] (27)
3B99  00                 [107] (27)
3B9A  00                 [108] (27)
3B9B  04                 [109] (28)
3B9C  02                 [110] (28)
3B9D  00                 [111] (28)
3B9E  00                 [112] (28)
3B9F  05                 [113] (26)
3BA0  02                 [114] (29)
3BA1  00                 [115] (30)
3BA2  00                 [116] (32)
3BA3  05                 [117] (32)
3BA4  02                 [118] (35)
3BA5  00                 [119] (35)
3BA6  00                 [120] (35)
3BA7  05                 [121] (35)
3BA8  02                 [122] (35)
3BA9  00                 [123] (35)
3BAA  00                 [124] (35)
3BAB  05                 [125] (36)
                         * locals:
3D23  00                 sizelocvars (0)
                         * upvalues:
3D24  00                 sizeupvalues (0)
                         ** end of function **

                         
3D25                     ** function [11] definition (level 2)
                         ** start of function **
3D25  00                 string size (0)
                         source name: (none)
3D27  04                 line defined (551)
3D28  CF                 last line defined (591)
3D29  04                 nups (6)
3D2A  06                 numparams (1)
3D2B  01                 is_vararg (0)
3D2C  00                 maxstacksize (28)
                         * code:
3D2E  76                 sizecode (118)
3D2F  5D000000           [001] getglobal  1   0        ; 538022378
3D33  99400000           [002] loadk      2   1        ; 0
3D37  62400001           [003] call       1   2   1  
3D3B  64804000           [004] self       1   0   258  ; -704974830
3D3F  62800001           [005] call       1   2   2  
3D43  9DC00000           [006] getglobal  2   3        ; 1074689893
3D47  D2008000           [007] move       3   1      
3D4B  A2800001           [008] call       2   2   2  
3D4F  98000000           [009] test       2       0    ; to [11] if true
3D53  1A000080           [010] jmp        1            ; to [12]
3D57  1E008000           [011] return     0   1      
3D5B  99000100           [012] loadk      2   4        ; -102
3D5F  E440C100           [013] self       3   1   261  ; -1565518332
3D63  53010000           [014] getupval   5   0      
3D67  E2808001           [015] call       3   3   2  
3D6B  2481C100           [016] self       4   1   262  ; -365711519
3D6F  22810001           [017] call       4   2   2  
3D73  53018000           [018] getupval   5   1      
3D77  92018000           [019] move       6   1      
3D7B  DDC10100           [020] getglobal  7   7        ; projectorType
3D7F  62818001           [021] call       5   3   2  
3D83  9D010200           [022] getglobal  6   8        ; 1672515847
3D87  D2018002           [023] move       7   5      
3D8B  A2010101           [024] call       6   2   4  
3D8F  1A400580           [025] jmp        22           ; to [48]
3D93  DDC20000           [026] getglobal  11  3        ; 1074689893
3D97  12030005           [027] move       12  10     
3D9B  E2820001           [028] call       11  2   2  
3D9F  D8420000           [029] test       11      1    ; to [31] if false
3DA3  1A000480           [030] jmp        17           ; to [48]
3DA7  E4424205           [031] self       11  10  265  ; -786111647
3DAB  53030001           [032] getupval   13  2      
3DAF  8E834202           [033] gettable   14  4   266  ; "x"
3DB3  CEC34202           [034] gettable   15  4   267  ; "y"
3DB7  0E044302           [035] gettable   16  4   268  ; "z"
3DBB  E2420003           [036] call       11  6   1  
3DBF  E4424205           [037] self       11  10  265  ; -786111647
3DC3  53038001           [038] getupval   13  3      
3DC7  92030001           [039] move       14  2      
3DCB  E2420002           [040] call       11  4   1  
3DCF  E4424205           [041] self       11  10  265  ; -786111647
3DD3  53030002           [042] getupval   13  4      
3DD7  8E83C201           [043] gettable   14  3   266  ; "x"
3DDB  CEC3C201           [044] gettable   15  3   267  ; "y"
3DDF  0E04C301           [045] gettable   16  3   268  ; "z"
3DE3  59440300           [046] loadk      17  13       ; 0
3DE7  E2428003           [047] call       11  7   1  
3DEB  96810000           [048] tforloop   6       2    ; to [50] if exit
3DEF  1AC0F97F           [049] jmp        -24          ; to [26]
3DF3  C6028005           [050] loadnil    11  11     
3DF7  19430300           [051] loadk      12  13       ; 0
fail op	21
3DFB  15000387           [052] concat     0   270 12 
3DFF  1A000C80           [053] jmp        49           ; to [103]
3E03  5DC30000           [054] getglobal  13  3        ; 1074689893
3E07  92038000           [055] move       14  1      
3E0B  62830001           [056] call       13  2   2  
3E0F  58430000           [057] test       13      1    ; to [59] if false
3E13  1AC00A80           [058] jmp        44           ; to [103]
3E17  5DC30300           [059] getglobal  13  15       ; math
3E1B  4E03C406           [060] gettable   13  13  272  ; -688728047
3E1F  8D038386           [061] sub        14  269 12   ; 0
3E23  D9430400           [062] loadk      15  17       ; 0
3E27  62838001           [063] call       13  3   2  
3E2B  C4028380           [064] mul        11  257 12   ; 0
3E2F  A443C100           [065] self       14  1   261  ; -1565518332
3E33  13040000           [066] getupval   16  0      
3E37  A2838001           [067] call       14  3   2  
3E3B  D2000007           [068] move       3   14     
3E3F  A483C100           [069] self       14  1   262  ; -365711519
3E43  A2830001           [070] call       14  2   2  
3E47  12010007           [071] move       4   14     
3E4B  9D030200           [072] getglobal  14  8        ; 1672515847
3E4F  D2038002           [073] move       15  5      
3E53  A2030101           [074] call       14  2   4  
3E57  1AC00380           [075] jmp        16           ; to [92]
3E5B  DDC40000           [076] getglobal  19  3        ; 1074689893
3E5F  12050009           [077] move       20  18     
3E63  E2840001           [078] call       19  2   2  
3E67  D8440000           [079] test       19      1    ; to [81] if false
3E6B  1A800280           [080] jmp        11           ; to [92]
3E6F  E4444209           [081] self       19  18  265  ; -786111647
3E73  53058002           [082] getupval   21  5      
3E77  92058005           [083] move       22  11     
3E7B  E2440002           [084] call       19  4   1  
3E7F  E4444209           [085] self       19  18  265  ; -786111647
3E83  53050002           [086] getupval   21  4      
3E87  8E85C201           [087] gettable   22  3   266  ; "x"
3E8B  CEC5C201           [088] gettable   23  3   267  ; "y"
3E8F  0E06C301           [089] gettable   24  3   268  ; "z"
3E93  59460300           [090] loadk      25  13       ; 0
3E97  E2448003           [091] call       19  7   1  
3E9B  96830000           [092] tforloop   14      2    ; to [94] if exit
3E9F  1A40FB7F           [093] jmp        -18          ; to [76]
3EA3  DD840400           [094] getglobal  19  18       ; 1289681407
3EA7  E2848000           [095] call       19  1   2  
3EAB  1DC50400           [096] getglobal  20  19       ; speed
3EAF  C4048509           [097] mul        19  19  20 
3EB3  0DC30406           [098] sub        12  12  19 
3EB7  DD040000           [099] getglobal  19  0        ; 538022378
3EBB  19850300           [100] loadk      20  14       ; 0
3EBF  E2440001           [101] call       19  2   1  
3EC3  1A00F37F           [102] jmp        -51          ; to [52]
3EC7  DD040200           [103] getglobal  19  8        ; 1672515847
3ECB  12058002           [104] move       20  5      
3ECF  E2040101           [105] call       19  2   4  
3ED3  1A000280           [106] jmp        9            ; to [116]
3ED7  1DC60000           [107] getglobal  24  3        ; 1074689893
3EDB  5206800B           [108] move       25  23     
3EDF  22860001           [109] call       24  2   2  
3EE3  18460000           [110] test       24      1    ; to [112] if false
3EE7  1AC00080           [111] jmp        4            ; to [116]
3EEB  2446C20B           [112] self       24  23  265  ; -786111647
3EEF  93068002           [113] getupval   26  5      
3EF3  D9460000           [114] loadk      27  1        ; 0
3EF7  22460002           [115] call       24  4   1  
3EFB  D6840000           [116] tforloop   19      2    ; to [118] if exit
3EFF  1A00FD7F           [117] jmp        -11          ; to [107]
3F03  1E008000           [118] return     0   1      
                         * constants:
3F07  14                 sizek (20)
3F08  01                 const type 3
3F09  EA911120           const [0]: (538022378)
3F0D  03                 const type 3
3F0E  0000003F           const [1]: (0)
3F12  01                 const type 3
3F13  12F0FAD5           const [2]: (-704974830)
3F17  01                 const type 3
3F18  65770E40           const [3]: (1074689893)
3F1C  03                 const type 3
3F1D  9A99993F           const [4]: (-102)
3F21  01                 const type 3
3F22  0416B0A2           const [5]: (-1565518332)
3F26  01                 const type 3
3F27  61AF33EA           const [6]: (-365711519)
3F2B  04                 const type 4
3F2C  0E                 string size (14)
3F2D  70726F6A6563746F+  "projecto"
3F35  725479706500       "rType\0"
                         const [7]: "projectorType"
3F3B  01                 const type 3
3F3C  0791B063           const [8]: (1672515847)
3F40  01                 const type 3
3F41  61E324D1           const [9]: (-786111647)
3F45  04                 const type 4
3F46  02                 string size (2)
3F47  7800               "x\0"
                         const [10]: "x"
3F49  04                 const type 4
3F4A  02                 string size (2)
3F4B  7900               "y\0"
                         const [11]: "y"
3F4D  04                 const type 4
3F4E  02                 string size (2)
3F4F  7A00               "z\0"
                         const [12]: "z"
3F51  03                 const type 3
3F52  0000803F           const [13]: (0)
3F56  03                 const type 3
3F57  00000000           const [14]: (0)
3F5B  04                 const type 4
3F5C  05                 string size (5)
3F5D  6D61746800         "math\0"
                         const [15]: "math"
3F62  01                 const type 3
3F63  11D8F2D6           const [16]: (-688728047)
3F67  03                 const type 3
3F68  00004040           const [17]: (0)
3F6C  01                 const type 3
3F6D  FFF9DE4C           const [18]: (1289681407)
3F71  04                 const type 4
3F72  06                 string size (6)
3F73  737065656400       "speed\0"
                         const [19]: "speed"
                         * functions:
3F79  00                 sizep (0)
                         * lines:
3F7A  76                 sizelineinfo (118)
                         [pc] (line)
3F7B  28                 [001] (40)
3F7C  02                 [002] (40)
3F7D  00                 [003] (40)
3F7E  00                 [004] (41)
3F7F  28                 [005] (41)
3F80  02                 [006] (42)
3F81  00                 [007] (42)
3F82  00                 [008] (42)
3F83  28                 [009] (42)
3F84  02                 [010] (42)
3F85  00                 [011] (43)
3F86  00                 [012] (45)
3F87  29                 [013] (46)
3F88  02                 [014] (46)
3F89  00                 [015] (46)
3F8A  00                 [016] (47)
3F8B  29                 [017] (47)
3F8C  02                 [018] (48)
3F8D  00                 [019] (48)
3F8E  00                 [020] (48)
3F8F  2A                 [021] (48)
3F90  02                 [022] (49)
3F91  00                 [023] (49)
3F92  00                 [024] (49)
3F93  2A                 [025] (49)
3F94  02                 [026] (50)
3F95  00                 [027] (50)
3F96  00                 [028] (50)
3F97  2A                 [029] (50)
3F98  02                 [030] (50)
3F99  00                 [031] (51)
3F9A  00                 [032] (51)
3F9B  2A                 [033] (51)
3F9C  02                 [034] (51)
3F9D  00                 [035] (51)
3F9E  00                 [036] (51)
3F9F  2A                 [037] (52)
3FA0  02                 [038] (52)
3FA1  00                 [039] (52)
3FA2  00                 [040] (52)
3FA3  2B                 [041] (53)
3FA4  02                 [042] (53)
3FA5  00                 [043] (53)
3FA6  00                 [044] (53)
3FA7  2D                 [045] (53)
3FA8  02                 [046] (53)
3FA9  00                 [047] (53)
3FAA  00                 [048] (49)
3FAB  2E                 [049] (54)
3FAC  02                 [050] (56)
3FAD  00                 [051] (57)
3FAE  00                 [052] (59)
3FAF  2E                 [053] (59)
3FB0  02                 [054] (59)
3FB1  00                 [055] (59)
3FB2  00                 [056] (59)
3FB3  2E                 [057] (59)
3FB4  02                 [058] (59)
3FB5  00                 [059] (60)
3FB6  00                 [060] (60)
3FB7  2F                 [061] (60)
3FB8  02                 [062] (60)
3FB9  00                 [063] (60)
3FBA  00                 [064] (61)
3FBB  2F                 [065] (62)
3FBC  02                 [066] (62)
3FBD  00                 [067] (62)
3FBE  00                 [068] (62)
3FBF  30                 [069] (63)
3FC0  02                 [070] (63)
3FC1  00                 [071] (63)
3FC2  00                 [072] (65)
3FC3  30                 [073] (65)
3FC4  02                 [074] (65)
3FC5  00                 [075] (65)
3FC6  00                 [076] (66)
3FC7  30                 [077] (66)
3FC8  02                 [078] (66)
3FC9  00                 [079] (66)
3FCA  00                 [080] (66)
3FCB  30                 [081] (67)
3FCC  02                 [082] (67)
3FCD  00                 [083] (67)
3FCE  00                 [084] (67)
3FCF  31                 [085] (68)
3FD0  02                 [086] (68)
3FD1  00                 [087] (68)
3FD2  00                 [088] (68)
3FD3  31                 [089] (68)
3FD4  02                 [090] (68)
3FD5  00                 [091] (68)
3FD6  00                 [092] (65)
3FD7  31                 [093] (69)
3FD8  02                 [094] (71)
3FD9  00                 [095] (71)
3FDA  00                 [096] (71)
3FDB  31                 [097] (71)
3FDC  02                 [098] (71)
3FDD  00                 [099] (72)
3FDE  00                 [100] (72)
3FDF  32                 [101] (72)
3FE0  02                 [102] (72)
3FE1  00                 [103] (74)
3FE2  00                 [104] (74)
3FE3  32                 [105] (74)
3FE4  02                 [106] (74)
3FE5  00                 [107] (75)
3FE6  00                 [108] (75)
3FE7  32                 [109] (75)
3FE8  02                 [110] (75)
3FE9  00                 [111] (75)
3FEA  00                 [112] (76)
3FEB  32                 [113] (76)
3FEC  02                 [114] (76)
3FED  00                 [115] (76)
3FEE  00                 [116] (74)
3FEF  32                 [117] (77)
3FF0  02                 [118] (79)
                         * locals:
4153  00                 sizelocvars (0)
                         * upvalues:
4154  00                 sizeupvalues (0)
                         ** end of function **

                         
4155                     ** function [12] definition (level 2)
                         ** start of function **
4155  00                 string size (0)
                         source name: (none)
4157  04                 line defined (593)
4158  90                 last line defined (656)
4159  05                 nups (0)
415A  00                 numparams (1)
415B  01                 is_vararg (0)
415C  00                 maxstacksize (39)
                         * code:
415F  01                 sizecode (198)
4160  64004000           [001] self       1   0   256  ; -704974830
4164  62800001           [002] call       1   2   2  
4168  9D400000           [003] getglobal  2   1        ; 1074689893
416C  D2008000           [004] move       3   1      
4170  A2800001           [005] call       2   2   2  
4174  98000000           [006] test       2       0    ; to [8] if true
4178  1A000080           [007] jmp        1            ; to [9]
417C  1E008000           [008] return     0   1      
4180  A480C000           [009] self       2   1   258  ; 366271214
4184  1DC10000           [010] getglobal  4   3        ; hairType
4188  A2808001           [011] call       2   3   2  
418C  DD400000           [012] getglobal  3   1        ; 1074689893
4190  12010001           [013] move       4   2      
4194  E2800001           [014] call       3   2   2  
4198  D8400000           [015] test       3       1    ; to [17] if false
419C  1A800080           [016] jmp        3            ; to [20]
41A0  CA000001           [017] len        3   2      
fail op	21
41A4  1500C101           [018] concat     0   3   260
41A8  1A800180           [019] jmp        7            ; to [27]
41AC  DD400100           [020] getglobal  3   5        ; 538022378
41B0  19810100           [021] loadk      4   6        ; 0
41B4  E2400001           [022] call       3   2   1  
41B8  E480C000           [023] self       3   1   258  ; 366271214
41BC  5DC10000           [024] getglobal  5   3        ; hairType
41C0  E2808001           [025] call       3   3   2  
41C4  92008001           [026] move       2   3      
41C8  DD400000           [027] getglobal  3   1        ; 1074689893
41CC  12010001           [028] move       4   2      
41D0  E2800001           [029] call       3   2   2  
41D4  D8000000           [030] test       3       0    ; to [32] if true
41D8  1A801080           [031] jmp        67           ; to [99]
41DC  CB000000           [032] newtable   3   0   0    ; array=0, hash=0
41E0  92008001           [033] move       2   3      
41E4  DD400100           [034] getglobal  3   5        ; 538022378
41E8  19810100           [035] loadk      4   6        ; 0
41EC  E2400001           [036] call       3   2   1  
41F0  DDC00100           [037] getglobal  3   7        ; -332969190
41F4  19010200           [038] loadk      4   8        ; "DoNotMirror"
41F8  E2800001           [039] call       3   2   2  
41FC  2481C000           [040] self       4   1   258  ; 366271214
4200  9D410200           [041] getglobal  6   9        ; gDecorationType
4204  22818001           [042] call       4   3   2  
4208  59010100           [043] loadk      5   4        ; 0
420C  8A010002           [044] len        6   4      
4210  D9010100           [045] loadk      7   4        ; 0
4214  50810780           [046] forprep    5   31       ; to [78]
4218  4E020202           [047] gettable   9   4   8  
421C  6482C204           [048] self       9   9   266  ; 1030473313
4220  D2028001           [049] move       11  3      
4224  62828001           [050] call       9   3   2  
4228  58020000           [051] test       9       0    ; to [53] if true
422C  1A000680           [052] jmp        25           ; to [78]
4230  5DC20200           [053] getglobal  9   11       ; table
4234  4E02C304           [054] gettable   9   9   268  ; -431682403
4238  92020001           [055] move       10  2      
423C  CE020202           [056] gettable   11  4   8  
4240  62428001           [057] call       9   3   1  
4244  4E020202           [058] gettable   9   4   8  
4248  6482C004           [059] self       9   9   258  ; 366271214
424C  DD420300           [060] getglobal  11  13       ; gSkeletalClothExType
4250  62828001           [061] call       9   3   2  
4254  99020100           [062] loadk      10  4        ; 0
4258  CA028004           [063] len        11  9      
425C  19030100           [064] loadk      12  4        ; 0
4260  90820280           [065] forprep    10  11       ; to [77]
4264  8E438304           [066] gettable   14  9   13 
4268  A4834207           [067] self       14  14  266  ; 1030473313
426C  12048001           [068] move       16  3      
4270  A2838001           [069] call       14  3   2  
4274  98430000           [070] test       14      1    ; to [72] if false
4278  1A000180           [071] jmp        5            ; to [77]
427C  9DC30200           [072] getglobal  14  11       ; table
4280  8E034307           [073] gettable   14  14  268  ; -431682403
4284  D2030001           [074] move       15  2      
4288  0E448304           [075] gettable   16  9   13 
428C  A2438001           [076] call       14  3   1  
4290  94C2FC7F           [077] forloop    10  -12      ; to [66] if loop
4294  54C1F77F           [078] forloop    5   -32      ; to [47] if loop
4298  A483C000           [079] self       14  1   258  ; 366271214
429C  1D440300           [080] getglobal  16  13       ; gSkeletalClothExType
42A0  A2838001           [081] call       14  3   2  
42A4  12010007           [082] move       4   14     
42A8  99030100           [083] loadk      14  4        ; 0
42AC  CA030002           [084] len        15  4      
42B0  19040100           [085] loadk      16  4        ; 0
42B4  90830280           [086] forprep    14  11       ; to [98]
42B8  8E440402           [087] gettable   18  4   17 
42BC  A4844209           [088] self       18  18  266  ; 1030473313
42C0  12058001           [089] move       20  3      
42C4  A2848001           [090] call       18  3   2  
42C8  98040000           [091] test       18      0    ; to [93] if true
42CC  1A000180           [092] jmp        5            ; to [98]
42D0  9DC40200           [093] getglobal  18  11       ; table
42D4  8E044309           [094] gettable   18  18  268  ; -431682403
42D8  D2040001           [095] move       19  2      
42DC  0E450402           [096] gettable   20  4   17 
42E0  A2448001           [097] call       18  3   1  
42E4  94C3FC7F           [098] forloop    14  -12      ; to [87] if loop
42E8  99040100           [099] loadk      18  4        ; 0
42EC  CA040001           [100] len        19  2      
42F0  19050100           [101] loadk      20  4        ; 0
42F4  90840780           [102] forprep    18  31       ; to [134]
42F8  8E450501           [103] gettable   22  2   21 
42FC  DD450000           [104] getglobal  23  1        ; 1074689893
4300  1206000B           [105] move       24  22     
4304  E2850001           [106] call       23  2   2  
4308  D8450000           [107] test       23      1    ; to [109] if false
430C  1A000680           [108] jmp        25           ; to [134]
4310  DD450000           [109] getglobal  23  1        ; 1074689893
4314  1D860300           [110] getglobal  24  14       ; hairMask
4318  E2850001           [111] call       23  2   2  
431C  D8450000           [112] test       23      1    ; to [114] if false
4320  1AC00480           [113] jmp        20           ; to [134]
4324  E4C5430B           [114] self       23  22  271  ; 826946071
4328  59860100           [115] loadk      25  6        ; 0
432C  99060400           [116] loadk      26  16       ; "SphericalMap"
4330  DD860300           [117] getglobal  27  14       ; hairMask
4334  E2458002           [118] call       23  5   1  
4338  E4C5430B           [119] self       23  22  271  ; 826946071
433C  59060100           [120] loadk      25  4        ; 0
4340  99060400           [121] loadk      26  16       ; "SphericalMap"
4344  DD860300           [122] getglobal  27  14       ; hairMask
4348  E2458002           [123] call       23  5   1  
434C  E4C5430B           [124] self       23  22  271  ; 826946071
4350  59460400           [125] loadk      25  17       ; 0
4354  99060400           [126] loadk      26  16       ; "SphericalMap"
4358  DD860300           [127] getglobal  27  14       ; hairMask
435C  E2458002           [128] call       23  5   1  
4360  E4C5430B           [129] self       23  22  271  ; 826946071
4364  59860400           [130] loadk      25  18       ; 0
4368  99060400           [131] loadk      26  16       ; "SphericalMap"
436C  DD860300           [132] getglobal  27  14       ; hairMask
4370  E2458002           [133] call       23  5   1  
4374  94C4F77F           [134] forloop    18  -32      ; to [103] if loop
4378  D9050100           [135] loadk      23  4        ; 0
437C  1DC60400           [136] getglobal  24  19       ; hairObjectsToHide
4380  0A06000C           [137] len        24  24     
4384  59060100           [138] loadk      25  4        ; 0
4388  D0050380           [139] forprep    23  13       ; to [153]
438C  E406C500           [140] self       27  1   276  ; -1625438872
4390  5DC70400           [141] getglobal  29  19       ; hairObjectsToHide
4394  4E87860E           [142] gettable   29  29  26 
4398  E2868001           [143] call       27  3   2  
439C  1D470000           [144] getglobal  28  1        ; 1074689893
43A0  5207800D           [145] move       29  27     
43A4  22870001           [146] call       28  2   2  
43A8  18470000           [147] test       28      1    ; to [149] if false
43AC  1AC00080           [148] jmp        4            ; to [153]
43B0  2447C50D           [149] self       28  27  277  ; 2109594123
43B4  97070000           [150] loadbool   30  0   0    ; false
43B8  D7070000           [151] loadbool   31  0   0    ; false
43BC  22470002           [152] call       28  4   1  
43C0  D445FC7F           [153] forloop    23  -14      ; to [140] if loop
43C4  1D470000           [154] getglobal  28  1        ; 1074689893
43C8  52070001           [155] move       29  2      
43CC  22870001           [156] call       28  2   2  
43D0  18470000           [157] test       28      1    ; to [159] if false
43D4  1A800080           [158] jmp        3            ; to [162]
43D8  0A070001           [159] len        28  2      
fail op	21
43DC  1500410E           [160] concat     0   28  260
43E0  1A000080           [161] jmp        1            ; to [163]
43E4  1E008000           [162] return     0   1      
43E8  0E074101           [163] gettable   28  2   260  ; 0
43EC  5D470000           [164] getglobal  29  1        ; 1074689893
43F0  9207000E           [165] move       30  28     
43F4  62870001           [166] call       29  2   2  
43F8  58470000           [167] test       29      1    ; to [169] if false
43FC  1A000780           [168] jmp        29           ; to [198]
4400  5D870500           [169] getglobal  29  22       ; hairObjectsToSwitch
4404  4A07800E           [170] len        29  29     
fail op	21
4408  15400783           [171] concat     0   262 29 
440C  1A000680           [172] jmp        25           ; to [198]
4410  5DC70500           [173] getglobal  29  23       ; hairObjectsNewMesh
4414  4A07800E           [174] len        29  29     
4418  9D870500           [175] getglobal  30  22       ; hairObjectsToSwitch
441C  8A07000F           [176] len        30  30     
fail op	35
4420  2380870E           [177] close      0  
4424  1A800480           [178] jmp        19           ; to [198]
4428  59070100           [179] loadk      29  4        ; 0
442C  9D870500           [180] getglobal  30  22       ; hairObjectsToSwitch
4430  8A07000F           [181] len        30  30     
4434  D9070100           [182] loadk      31  4        ; 0
4438  50070380           [183] forprep    29  13       ; to [197]
443C  6408460E           [184] self       33  28  280  ; -1957065004
4440  DD880500           [185] getglobal  35  22       ; hairObjectsToSwitch
4444  CE088811           [186] gettable   35  35  32 
4448  62888001           [187] call       33  3   2  
444C  58080000           [188] test       33      0    ; to [190] if true
4450  1A800180           [189] jmp        7            ; to [197]
4454  5DC80500           [190] getglobal  33  23       ; hairObjectsNewMesh
4458  4E088810           [191] gettable   33  33  32 
445C  A448460E           [192] self       34  28  281  ; 919598577
4460  12098010           [193] move       36  33     
4464  57090000           [194] loadbool   37  0   0    ; false
4468  97090000           [195] loadbool   38  0   0    ; false
446C  A2488002           [196] call       34  5   1  
4470  5447FC7F           [197] forloop    29  -14      ; to [184] if loop
4474  1E008000           [198] return     0   1      
                         * constants:
4478  1A                 sizek (26)
4479  01                 const type 3
447A  12F0FAD5           const [0]: (-704974830)
447E  01                 const type 3
447F  65770E40           const [1]: (1074689893)
4483  01                 const type 3
4484  EEDAD415           const [2]: (366271214)
4488  04                 const type 4
4489  09                 string size (9)
448A  6861697254797065+  "hairType"
4492  00                 "\0"
                         const [3]: "hairType"
4493  03                 const type 3
4494  0000803F           const [4]: (0)
4498  01                 const type 3
4499  EA911120           const [5]: (538022378)
449D  03                 const type 3
449E  00000000           const [6]: (0)
44A2  01                 const type 3
44A3  1A4B27EC           const [7]: (-332969190)
44A7  04                 const type 4
44A8  0C                 string size (12)
44A9  446F4E6F744D6972+  "DoNotMir"
44B1  726F7200           "ror\0"
                         const [8]: "DoNotMirror"
44B5  04                 const type 4
44B6  10                 string size (16)
44B7  674465636F726174+  "gDecorat"
44BF  696F6E5479706500   "ionType\0"
                         const [9]: "gDecorationType"
44C7  01                 const type 3
44C8  61C66B3D           const [10]: (1030473313)
44CC  04                 const type 4
44CD  06                 string size (6)
44CE  7461626C6500       "table\0"
                         const [11]: "table"
44D4  01                 const type 3
44D5  9D0C45E6           const [12]: (-431682403)
44D9  04                 const type 4
44DA  15                 string size (21)
44DB  67536B656C657461+  "gSkeleta"
44E3  6C436C6F74684578+  "lClothEx"
44EB  5479706500         "Type\0"
                         const [13]: "gSkeletalClothExType"
44F0  04                 const type 4
44F1  09                 string size (9)
44F2  686169724D61736B+  "hairMask"
44FA  00                 "\0"
                         const [14]: "hairMask"
44FB  01                 const type 3
44FC  17324A31           const [15]: (826946071)
4500  04                 const type 4
4501  0D                 string size (13)
4502  5370686572696361+  "Spherica"
450A  6C4D617000         "lMap\0"
                         const [16]: "SphericalMap"
450F  03                 const type 3
4510  00000040           const [17]: (0)
4514  03                 const type 3
4515  00004040           const [18]: (0)
4519  04                 const type 4
451A  12                 string size (18)
451B  686169724F626A65+  "hairObje"
4523  637473546F486964+  "ctsToHid"
452B  6500               "e\0"
                         const [19]: "hairObjectsToHide"
452D  01                 const type 3
452E  68C51D9F           const [20]: (-1625438872)
4532  01                 const type 3
4533  0BDABD7D           const [21]: (2109594123)
4537  04                 const type 4
4538  14                 string size (20)
4539  686169724F626A65+  "hairObje"
4541  637473546F537769+  "ctsToSwi"
4549  74636800           "tch\0"
                         const [22]: "hairObjectsToSwitch"
454D  04                 const type 4
454E  13                 string size (19)
454F  686169724F626A65+  "hairObje"
4557  6374734E65774D65+  "ctsNewMe"
455F  736800             "sh\0"
                         const [23]: "hairObjectsNewMesh"
4562  01                 const type 3
4563  D48E598B           const [24]: (-1957065004)
4567  01                 const type 3
4568  F1F5CF36           const [25]: (919598577)
                         * functions:
456C  00                 sizep (0)
                         * lines:
456E  01                 sizelineinfo (198)
                         [pc] (line)
456F  52                 [001] (82)
4570  02                 [002] (82)
4571  00                 [003] (83)
4572  00                 [004] (83)
4573  52                 [005] (83)
4574  02                 [006] (83)
4575  00                 [007] (83)
4576  00                 [008] (84)
4577  53                 [009] (86)
4578  02                 [010] (86)
4579  00                 [011] (86)
457A  00                 [012] (87)
457B  53                 [013] (87)
457C  02                 [014] (87)
457D  00                 [015] (87)
457E  00                 [016] (87)
457F  53                 [017] (87)
4580  02                 [018] (87)
4581  00                 [019] (87)
4582  00                 [020] (88)
4583  53                 [021] (88)
4584  02                 [022] (88)
4585  00                 [023] (89)
4586  00                 [024] (89)
4587  53                 [025] (89)
4588  02                 [026] (89)
4589  00                 [027] (91)
458A  00                 [028] (91)
458B  54                 [029] (91)
458C  02                 [030] (91)
458D  00                 [031] (91)
458E  00                 [032] (92)
458F  56                 [033] (92)
4590  02                 [034] (93)
4591  00                 [035] (93)
4592  00                 [036] (93)
4593  56                 [037] (94)
4594  02                 [038] (94)
4595  00                 [039] (94)
4596  00                 [040] (95)
4597  56                 [041] (95)
4598  02                 [042] (95)
4599  00                 [043] (96)
459A  00                 [044] (96)
459B  57                 [045] (96)
459C  02                 [046] (96)
459D  00                 [047] (97)
459E  00                 [048] (97)
459F  57                 [049] (97)
45A0  02                 [050] (97)
45A1  00                 [051] (97)
45A2  00                 [052] (97)
45A3  57                 [053] (98)
45A4  02                 [054] (98)
45A5  00                 [055] (98)
45A6  00                 [056] (98)
45A7  57                 [057] (98)
45A8  02                 [058] (99)
45A9  00                 [059] (99)
45AA  00                 [060] (99)
45AB  57                 [061] (99)
45AC  02                 [062] (100)
45AD  00                 [063] (100)
45AE  00                 [064] (100)
45AF  57                 [065] (100)
45B0  02                 [066] (101)
45B1  00                 [067] (101)
45B2  00                 [068] (101)
45B3  57                 [069] (101)
45B4  02                 [070] (101)
45B5  00                 [071] (101)
45B6  00                 [072] (102)
45B7  57                 [073] (102)
45B8  02                 [074] (102)
45B9  00                 [075] (102)
45BA  00                 [076] (102)
45BB  58                 [077] (100)
45BC  02                 [078] (96)
45BD  00                 [079] (108)
45BE  00                 [080] (108)
45BF  58                 [081] (108)
45C0  02                 [082] (108)
45C1  00                 [083] (109)
45C2  00                 [084] (109)
45C3  58                 [085] (109)
45C4  02                 [086] (109)
45C5  00                 [087] (110)
45C6  00                 [088] (110)
45C7  59                 [089] (110)
45C8  02                 [090] (110)
45C9  00                 [091] (110)
45CA  00                 [092] (110)
45CB  59                 [093] (111)
45CC  02                 [094] (111)
45CD  00                 [095] (111)
45CE  00                 [096] (111)
45CF  59                 [097] (111)
45D0  02                 [098] (109)
45D1  00                 [099] (115)
45D2  00                 [100] (115)
45D3  59                 [101] (115)
45D4  02                 [102] (115)
45D5  00                 [103] (116)
45D6  00                 [104] (117)
45D7  5B                 [105] (117)
45D8  02                 [106] (117)
45D9  00                 [107] (117)
45DA  00                 [108] (117)
45DB  5B                 [109] (117)
45DC  02                 [110] (117)
45DD  00                 [111] (117)
45DE  00                 [112] (117)
45DF  5B                 [113] (117)
45E0  02                 [114] (118)
45E1  00                 [115] (118)
45E2  00                 [116] (118)
45E3  5B                 [117] (118)
45E4  02                 [118] (118)
45E5  00                 [119] (119)
45E6  00                 [120] (119)
45E7  5B                 [121] (119)
45E8  02                 [122] (119)
45E9  00                 [123] (119)
45EA  00                 [124] (120)
45EB  5C                 [125] (120)
45EC  02                 [126] (120)
45ED  00                 [127] (120)
45EE  00                 [128] (120)
45EF  5C                 [129] (121)
45F0  02                 [130] (121)
45F1  00                 [131] (121)
45F2  00                 [132] (121)
45F3  5D                 [133] (121)
45F4  02                 [134] (115)
45F5  00                 [135] (124)
45F6  00                 [136] (124)
45F7  5D                 [137] (124)
45F8  02                 [138] (124)
45F9  00                 [139] (124)
45FA  00                 [140] (126)
45FB  5D                 [141] (126)
45FC  02                 [142] (126)
45FD  00                 [143] (126)
45FE  00                 [144] (127)
45FF  5E                 [145] (127)
4600  02                 [146] (127)
4601  00                 [147] (127)
4602  00                 [148] (127)
4603  5E                 [149] (-128)
4604  02                 [150] (-128)
4605  00                 [151] (-128)
4606  00                 [152] (-128)
4607  5E                 [153] (124)
4608  02                 [154] (-125)
4609  00                 [155] (-125)
460A  00                 [156] (-125)
460B  5F                 [157] (-125)
460C  02                 [158] (-125)
460D  00                 [159] (-125)
460E  00                 [160] (-125)
460F  5F                 [161] (-125)
4610  02                 [162] (-124)
4611  00                 [163] (-122)
4612  00                 [164] (-121)
4613  5F                 [165] (-121)
4614  02                 [166] (-121)
4615  00                 [167] (-121)
4616  00                 [168] (-121)
4617  60                 [169] (-121)
4618  02                 [170] (-121)
4619  00                 [171] (-121)
461A  00                 [172] (-121)
461B  60                 [173] (-121)
461C  02                 [174] (-121)
461D  00                 [175] (-121)
461E  00                 [176] (-121)
461F  60                 [177] (-121)
4620  02                 [178] (-121)
4621  00                 [179] (-120)
4622  00                 [180] (-120)
4623  60                 [181] (-120)
4624  02                 [182] (-120)
4625  00                 [183] (-120)
4626  00                 [184] (-118)
4627  61                 [185] (-118)
4628  02                 [186] (-118)
4629  00                 [187] (-118)
462A  00                 [188] (-118)
462B  61                 [189] (-118)
462C  02                 [190] (-117)
462D  00                 [191] (-117)
462E  00                 [192] (-116)
462F  61                 [193] (-116)
4630  02                 [194] (-116)
4631  00                 [195] (-116)
4632  00                 [196] (-116)
4633  61                 [197] (-120)
4634  02                 [198] (-112)
                         * locals:
4887  00                 sizelocvars (0)
                         * upvalues:
4888  00                 sizeupvalues (0)
                         ** end of function **

                         * lines:
4889  64                 sizelineinfo (100)
                         [pc] (line)
488A  1A                 [001] (26)
488B  00                 [002] (26)
488C  00                 [003] (26)
488D  00                 [004] (27)
488E  1A                 [005] (27)
488F  00                 [006] (27)
4890  00                 [007] (28)
4891  00                 [008] (29)
4892  1A                 [009] (30)
4893  00                 [010] (30)
4894  00                 [011] (30)
4895  00                 [012] (31)
4896  1B                 [013] (31)
4897  00                 [014] (31)
4898  00                 [015] (32)
4899  00                 [016] (32)
489A  1B                 [017] (32)
489B  00                 [018] (33)
489C  00                 [019] (33)
489D  00                 [020] (33)
489E  1B                 [021] (34)
489F  00                 [022] (34)
48A0  00                 [023] (34)
48A1  00                 [024] (35)
48A2  1C                 [025] (35)
48A3  00                 [026] (35)
48A4  00                 [027] (37)
48A5  00                 [028] (37)
48A6  1D                 [029] (37)
48A7  00                 [030] (37)
48A8  00                 [031] (37)
48A9  00                 [032] (46)
48AA  1E                 [033] (46)
48AB  00                 [034] (39)
48AC  00                 [035] (53)
48AD  00                 [036] (53)
48AE  1E                 [037] (48)
48AF  00                 [038] (-89)
48B0  00                 [039] (-89)
48B1  00                 [040] (-89)
48B2  1E                 [041] (-89)
48B3  00                 [042] (55)
48B4  00                 [043] (15)
48B5  00                 [044] (15)
48B6  1F                 [045] (15)
48B7  00                 [046] (15)
48B8  00                 [047] (15)
48B9  00                 [048] (15)
48BA  1F                 [049] (15)
48BB  00                 [050] (-87)
48BC  00                 [051] (27)
48BD  00                 [052] (27)
48BE  1F                 [053] (17)
48BF  00                 [054] (52)
48C0  00                 [055] (52)
48C1  00                 [056] (29)
48C2  20                 [057] (88)
48C3  00                 [058] (88)
48C4  00                 [059] (88)
48C5  00                 [060] (88)
48C6  20                 [061] (54)
48C7  00                 [062] (116)
48C8  00                 [063] (-88)
48C9  00                 [064] (-88)
48CA  20                 [065] (-88)
48CB  00                 [066] (-88)
48CC  00                 [067] (-88)
48CD  00                 [068] (-88)
48CE  21                 [069] (-88)
48CF  00                 [070] (-88)
48D0  00                 [071] (118)
48D1  00                 [072] (-8)
48D2  21                 [073] (-8)
48D3  00                 [074] (-8)
48D4  00                 [075] (-8)
48D5  00                 [076] (-8)
48D6  21                 [077] (-8)
48D7  00                 [078] (-86)
48D8  00                 [079] (36)
48D9  00                 [080] (36)
48DA  22                 [081] (36)
48DB  00                 [082] (36)
48DC  00                 [083] (36)
48DD  00                 [084] (36)
48DE  22                 [085] (36)
48DF  00                 [086] (36)
48E0  00                 [087] (-6)
48E1  00                 [088] (79)
48E2  22                 [089] (79)
48E3  00                 [090] (79)
48E4  00                 [091] (79)
48E5  00                 [092] (79)
48E6  23                 [093] (79)
48E7  00                 [094] (79)
48E8  00                 [095] (79)
48E9  00                 [096] (39)
48EA  23                 [097] (-112)
48EB  00                 [098] (-112)
48EC  00                 [099] (81)
48ED  00                 [100] (-112)
                         * locals:
4A1A  00                 sizelocvars (0)
                         * upvalues:
4A1B  00                 sizeupvalues (0)
                         ** end of function **

4A1C                     ** end of chunk **
