1	C:\wlua_dump\path\Lotus\Scripts\EffectsCreditPickups.lua
Pos   Hex Data           Description or Code
------------------------------------------------------------------------
0000                     ** source chunk: C:\wlua_dump\path\Lotus\Scripts\EffectsCreditPickups.lua
                         ** global header start **
0000  7F                 header signature: ""
0001  00                 version (major:minor hex digits)
0002  00                 format (0=official)
0003  00                 endianness (1=little endian)
0004  00                 size of int (bytes)
0005  00                 size of size_t (bytes)
0006  02                 size of Instruction (bytes)
0007  19                 size of number (bytes)
0008  6D                 integral (1=integral)
4109
                         * number type: single
                         * x86 standard (32-bit, little endian, doubles)
                         ** global header end **
SimJoint_1
SimJoint_3
SimJoint_5
SimJoint_7
SimJoint_8
SimJoint_9
SimJoint_11
SimJoint_12
SimJoint_15
SimJoint_17
SimJoint_2
SimJoint_4
SimJoint_6
SimJoint_10
SimJoint_13
SimJoint_14
SimJoint_16
SimJoint_18
SimJoint_19
SimJoint_20
SimJoint_21
SimJoint_22
CreditPickup
CircuitsPickup
gRegion
animatedDecoType
heading
pitch
bank
fakeCreditChips
math
x
z
pickupGlowType
EMPTY_SYMBOL
math
beamType
sparkBurst
                         
0001                     ** function [0] definition (level 1)
                         ** start of function **
0001  00                 string size (0)
                         source name: (none)
0002  00                 line defined (0)
0003  00                 last line defined (0)
0004  00                 nups (0)
0005  00                 numparams (0)
0006  02                 is_vararg (2)
0007  19                 maxstacksize (25)
                         * code:
0008  6D                 sizecode (109)
0009  0B008004           [001] newtable   0   9   0    ; array=9, hash=0
000D  5D000000           [002] getglobal  1   0        ; -332969190
0011  99400000           [003] loadk      2   1        ; "SimJoint_1"
0015  62800001           [004] call       1   2   2  
0019  9D000000           [005] getglobal  2   0        ; -332969190
001D  D9800000           [006] loadk      3   2        ; "SimJoint_3"
0021  A2800001           [007] call       2   2   2  
0025  DD000000           [008] getglobal  3   0        ; -332969190
0029  19C10000           [009] loadk      4   3        ; "SimJoint_5"
002D  E2800001           [010] call       3   2   2  
0031  1D010000           [011] getglobal  4   0        ; -332969190
0035  59010100           [012] loadk      5   4        ; "SimJoint_7"
0039  22810001           [013] call       4   2   2  
003D  5D010000           [014] getglobal  5   0        ; -332969190
0041  99410100           [015] loadk      6   5        ; "SimJoint_8"
0045  62810001           [016] call       5   2   2  
0049  9D010000           [017] getglobal  6   0        ; -332969190
004D  D9810100           [018] loadk      7   6        ; "SimJoint_9"
0051  A2810001           [019] call       6   2   2  
0055  DD010000           [020] getglobal  7   0        ; -332969190
0059  19C20100           [021] loadk      8   7        ; "SimJoint_11"
005D  E2810001           [022] call       7   2   2  
0061  1D020000           [023] getglobal  8   0        ; -332969190
0065  59020200           [024] loadk      9   8        ; "SimJoint_12"
0069  22820001           [025] call       8   2   2  
006D  5D020000           [026] getglobal  9   0        ; -332969190
0071  99420200           [027] loadk      10  9        ; "SimJoint_15"
0075  62820001           [028] call       9   2   2  
0079  9D020000           [029] getglobal  10  0        ; -332969190
007D  D9820200           [030] loadk      11  10       ; "SimJoint_17"
0081  A2020001           [031] call       10  2   0  
0085  1B400000           [032] setlist    0   0   1    ; index 1 to top
0089  4B008009           [033] newtable   1   19  0    ; array=22, hash=0
008D  9D000000           [034] getglobal  2   0        ; -332969190
0091  D9400000           [035] loadk      3   1        ; "SimJoint_1"
0095  A2800001           [036] call       2   2   2  
0099  DD000000           [037] getglobal  3   0        ; -332969190
009D  19C10200           [038] loadk      4   11       ; "SimJoint_2"
00A1  E2800001           [039] call       3   2   2  
00A5  1D010000           [040] getglobal  4   0        ; -332969190
00A9  59810000           [041] loadk      5   2        ; "SimJoint_3"
00AD  22810001           [042] call       4   2   2  
00B1  5D010000           [043] getglobal  5   0        ; -332969190
00B5  99010300           [044] loadk      6   12       ; "SimJoint_4"
00B9  62810001           [045] call       5   2   2  
00BD  9D010000           [046] getglobal  6   0        ; -332969190
00C1  D9C10000           [047] loadk      7   3        ; "SimJoint_5"
00C5  A2810001           [048] call       6   2   2  
00C9  DD010000           [049] getglobal  7   0        ; -332969190
00CD  19420300           [050] loadk      8   13       ; "SimJoint_6"
00D1  E2810001           [051] call       7   2   2  
00D5  1D020000           [052] getglobal  8   0        ; -332969190
00D9  59020100           [053] loadk      9   4        ; "SimJoint_7"
00DD  22820001           [054] call       8   2   2  
00E1  5D020000           [055] getglobal  9   0        ; -332969190
00E5  99420100           [056] loadk      10  5        ; "SimJoint_8"
00E9  62820001           [057] call       9   2   2  
00ED  9D020000           [058] getglobal  10  0        ; -332969190
00F1  D9820100           [059] loadk      11  6        ; "SimJoint_9"
00F5  A2820001           [060] call       10  2   2  
00F9  DD020000           [061] getglobal  11  0        ; -332969190
00FD  19830300           [062] loadk      12  14       ; "SimJoint_10"
0101  E2820001           [063] call       11  2   2  
0105  1D030000           [064] getglobal  12  0        ; -332969190
0109  59C30100           [065] loadk      13  7        ; "SimJoint_11"
010D  22830001           [066] call       12  2   2  
0111  5D030000           [067] getglobal  13  0        ; -332969190
0115  99030200           [068] loadk      14  8        ; "SimJoint_12"
0119  62830001           [069] call       13  2   2  
011D  9D030000           [070] getglobal  14  0        ; -332969190
0121  D9C30300           [071] loadk      15  15       ; "SimJoint_13"
0125  A2830001           [072] call       14  2   2  
0129  DD030000           [073] getglobal  15  0        ; -332969190
012D  19040400           [074] loadk      16  16       ; "SimJoint_14"
0131  E2830001           [075] call       15  2   2  
0135  1D040000           [076] getglobal  16  0        ; -332969190
0139  59440200           [077] loadk      17  9        ; "SimJoint_15"
013D  22840001           [078] call       16  2   2  
0141  5D040000           [079] getglobal  17  0        ; -332969190
0145  99440400           [080] loadk      18  17       ; "SimJoint_16"
0149  62840001           [081] call       17  2   2  
014D  9D040000           [082] getglobal  18  0        ; -332969190
0151  D9840200           [083] loadk      19  10       ; "SimJoint_17"
0155  A2840001           [084] call       18  2   2  
0159  DD040000           [085] getglobal  19  0        ; -332969190
015D  19850400           [086] loadk      20  18       ; "SimJoint_18"
0161  E2840001           [087] call       19  2   2  
0165  1D050000           [088] getglobal  20  0        ; -332969190
0169  59C50400           [089] loadk      21  19       ; "SimJoint_19"
016D  22850001           [090] call       20  2   2  
0171  5D050000           [091] getglobal  21  0        ; -332969190
0175  99050500           [092] loadk      22  20       ; "SimJoint_20"
0179  62850001           [093] call       21  2   2  
017D  9D050000           [094] getglobal  22  0        ; -332969190
0181  D9450500           [095] loadk      23  21       ; "SimJoint_21"
0185  A2850001           [096] call       22  2   2  
0189  DD050000           [097] getglobal  23  0        ; -332969190
018D  19860500           [098] loadk      24  22       ; "SimJoint_22"
0191  E2050001           [099] call       23  2   0  
0195  5B400000           [100] setlist    1   0   1    ; index 1 to top
0199  A5000000           [101] closure    2   0      
019D  12000000           [102] move       0   0      
01A1  A0C00500           [103] setglobal  2   23       ; CreditPickup
01A5  A0000600           [104] setglobal  2   24       ; -1188725655
01A9  A5400000           [105] closure    2   1      
01AD  12008000           [106] move       0   1      
01B1  A0400600           [107] setglobal  2   25       ; CircuitsPickup
01B5  A0800600           [108] setglobal  2   26       ; -2075926473
01B9  1E008000           [109] return     0   1      
                         * constants:
01BD  1B                 sizek (27)
01BE  01                 const type 3
01BF  1A4B27EC           const [0]: (-332969190)
01C3  04                 const type 4
01C4  0B                 string size (11)
01C5  53696D4A6F696E74+  "SimJoint"
01CD  5F3100             "_1\0"
                         const [1]: "SimJoint_1"
01D0  04                 const type 4
01D1  0B                 string size (11)
01D2  53696D4A6F696E74+  "SimJoint"
01DA  5F3300             "_3\0"
                         const [2]: "SimJoint_3"
01DD  04                 const type 4
01DE  0B                 string size (11)
01DF  53696D4A6F696E74+  "SimJoint"
01E7  5F3500             "_5\0"
                         const [3]: "SimJoint_5"
01EA  04                 const type 4
01EB  0B                 string size (11)
01EC  53696D4A6F696E74+  "SimJoint"
01F4  5F3700             "_7\0"
                         const [4]: "SimJoint_7"
01F7  04                 const type 4
01F8  0B                 string size (11)
01F9  53696D4A6F696E74+  "SimJoint"
0201  5F3800             "_8\0"
                         const [5]: "SimJoint_8"
0204  04                 const type 4
0205  0B                 string size (11)
0206  53696D4A6F696E74+  "SimJoint"
020E  5F3900             "_9\0"
                         const [6]: "SimJoint_9"
0211  04                 const type 4
0212  0C                 string size (12)
0213  53696D4A6F696E74+  "SimJoint"
021B  5F313100           "_11\0"
                         const [7]: "SimJoint_11"
021F  04                 const type 4
0220  0C                 string size (12)
0221  53696D4A6F696E74+  "SimJoint"
0229  5F313200           "_12\0"
                         const [8]: "SimJoint_12"
022D  04                 const type 4
022E  0C                 string size (12)
022F  53696D4A6F696E74+  "SimJoint"
0237  5F313500           "_15\0"
                         const [9]: "SimJoint_15"
023B  04                 const type 4
023C  0C                 string size (12)
023D  53696D4A6F696E74+  "SimJoint"
0245  5F313700           "_17\0"
                         const [10]: "SimJoint_17"
0249  04                 const type 4
024A  0B                 string size (11)
024B  53696D4A6F696E74+  "SimJoint"
0253  5F3200             "_2\0"
                         const [11]: "SimJoint_2"
0256  04                 const type 4
0257  0B                 string size (11)
0258  53696D4A6F696E74+  "SimJoint"
0260  5F3400             "_4\0"
                         const [12]: "SimJoint_4"
0263  04                 const type 4
0264  0B                 string size (11)
0265  53696D4A6F696E74+  "SimJoint"
026D  5F3600             "_6\0"
                         const [13]: "SimJoint_6"
0270  04                 const type 4
0271  0C                 string size (12)
0272  53696D4A6F696E74+  "SimJoint"
027A  5F313000           "_10\0"
                         const [14]: "SimJoint_10"
027E  04                 const type 4
027F  0C                 string size (12)
0280  53696D4A6F696E74+  "SimJoint"
0288  5F313300           "_13\0"
                         const [15]: "SimJoint_13"
028C  04                 const type 4
028D  0C                 string size (12)
028E  53696D4A6F696E74+  "SimJoint"
0296  5F313400           "_14\0"
                         const [16]: "SimJoint_14"
029A  04                 const type 4
029B  0C                 string size (12)
029C  53696D4A6F696E74+  "SimJoint"
02A4  5F313600           "_16\0"
                         const [17]: "SimJoint_16"
02A8  04                 const type 4
02A9  0C                 string size (12)
02AA  53696D4A6F696E74+  "SimJoint"
02B2  5F313800           "_18\0"
                         const [18]: "SimJoint_18"
02B6  04                 const type 4
02B7  0C                 string size (12)
02B8  53696D4A6F696E74+  "SimJoint"
02C0  5F313900           "_19\0"
                         const [19]: "SimJoint_19"
02C4  04                 const type 4
02C5  0C                 string size (12)
02C6  53696D4A6F696E74+  "SimJoint"
02CE  5F323000           "_20\0"
                         const [20]: "SimJoint_20"
02D2  04                 const type 4
02D3  0C                 string size (12)
02D4  53696D4A6F696E74+  "SimJoint"
02DC  5F323100           "_21\0"
                         const [21]: "SimJoint_21"
02E0  04                 const type 4
02E1  0C                 string size (12)
02E2  53696D4A6F696E74+  "SimJoint"
02EA  5F323200           "_22\0"
                         const [22]: "SimJoint_22"
02EE  04                 const type 4
02EF  0D                 string size (13)
02F0  4372656469745069+  "CreditPi"
02F8  636B757000         "ckup\0"
                         const [23]: "CreditPickup"
02FD  01                 const type 3
02FE  697C25B9           const [24]: (-1188725655)
0302  04                 const type 4
0303  0F                 string size (15)
0304  4369726375697473+  "Circuits"
030C  5069636B757000     "Pickup\0"
                         const [25]: "CircuitsPickup"
0313  01                 const type 3
0314  37E04384           const [26]: (-2075926473)
                         * functions:
0318  02                 sizep (2)
                         
0319                     ** function [0] definition (level 2)
                         ** start of function **
0319  00                 string size (0)
                         source name: (none)
031A  2D                 line defined (45)
031B  51                 last line defined (81)
031C  01                 nups (1)
031D  01                 numparams (1)
031E  00                 is_vararg (0)
031F  0F                 maxstacksize (15)
                         * code:
0321  01                 sizecode (141)
0322  64004000           [001] self       1   0   256  ; -703571861
0326  D9400000           [002] loadk      3   1        ; 0
032A  62408001           [003] call       1   3   1  
032E  5D800000           [004] getglobal  1   2        ; gRegion
0332  64C0C000           [005] self       1   1   259  ; -1110225722
0336  DD000100           [006] getglobal  3   4        ; animatedDecoType
033A  24414100           [007] self       4   0   261  ; 196800914
033E  22810001           [008] call       4   2   2  
0342  64814100           [009] self       5   0   262  ; 54877834
0346  62810001           [010] call       5   2   2  
034A  86010003           [011] loadnil    6   6      
034E  D2010000           [012] move       7   0      
0352  62808003           [013] call       1   7   2  
0356  99C00100           [014] loadk      2   7        ; 0
035A  D9C00100           [015] loadk      3   7        ; 0
035E  1D010200           [016] getglobal  4   8        ; 508519041
0362  22818000           [017] call       4   1   2  
0366  5D410200           [018] getglobal  5   9        ; 572299008
036A  62818000           [019] call       5   1   2  
036E  9D810200           [020] getglobal  6   10       ; 1074689893
0372  D2010000           [021] move       7   0      
0376  A2810001           [022] call       6   2   2  
037A  98410000           [023] test       6       1    ; to [25] if false
037E  1A401980           [024] jmp        102          ; to [127]
0382  9D810200           [025] getglobal  6   10       ; 1074689893
0386  D2018000           [026] move       7   1      
038A  A2810001           [027] call       6   2   2  
038E  98410000           [028] test       6       1    ; to [30] if false
0392  1A001880           [029] jmp        97           ; to [127]
fail op	21
0396  15C04201           [030] concat     0   2   267
039A  1A801780           [031] jmp        95           ; to [127]
fail op	21
039E  1500C301           [032] concat     0   3   268
03A2  1A800C80           [033] jmp        51           ; to [85]
03A6  9D810300           [034] getglobal  6   14       ; -1941280958
03AA  D9C10300           [035] loadk      7   15       ; 0
03AE  19020400           [036] loadk      8   16       ; 0
03B2  A2818001           [037] call       6   3   2  
03B6  0C818186           [038] settable   4   269 6    ; "heading"
03BA  9D810300           [039] getglobal  6   14       ; -1941280958
03BE  D9C10300           [040] loadk      7   15       ; 0
03C2  19020400           [041] loadk      8   16       ; 0
03C6  A2818001           [042] call       6   3   2  
03CA  0C818188           [043] settable   4   273 6    ; "pitch"
03CE  9D810300           [044] getglobal  6   14       ; -1941280958
03D2  D9C10300           [045] loadk      7   15       ; 0
03D6  19020400           [046] loadk      8   16       ; 0
03DA  A2818001           [047] call       6   3   2  
03DE  0C810189           [048] settable   4   274 6    ; "bank"
03E2  9D810000           [049] getglobal  6   2        ; gRegion
03E6  A4C14003           [050] self       6   6   259  ; -1110225722
03EA  1DC20400           [051] getglobal  8   19       ; fakeCreditChips
03EE  6402C500           [052] self       9   1   276  ; -1565518332
03F2  D3020000           [053] getupval   11  0      
03F6  1D430500           [054] getglobal  12  21       ; math
03FA  0E834506           [055] gettable   12  12  278  ; -2040962569
03FE  59430000           [056] loadk      13  1        ; 0
0402  93030000           [057] getupval   14  0      
0406  8A030007           [058] len        14  14     
040A  22838001           [059] call       12  3   2  
040E  CE028305           [060] gettable   11  11  12 
0412  62828001           [061] call       9   3   2  
0416  92020002           [062] move       10  4      
041A  D2020000           [063] move       11  0      
041E  12030000           [064] move       12  0      
0422  A2818003           [065] call       6   7   2  
0426  DD810200           [066] getglobal  7   10       ; 1074689893
042A  12020003           [067] move       8   6      
042E  E2810001           [068] call       7   2   2  
0432  D8410000           [069] test       7       1    ; to [71] if false
0436  1A000380           [070] jmp        13           ; to [84]
043A  DD810300           [071] getglobal  7   14       ; -1941280958
043E  19020600           [072] loadk      8   24       ; 0
0442  59420600           [073] loadk      9   25       ; 0
0446  E2818001           [074] call       7   3   2  
044A  4CC1818B           [075] settable   5   279 7    ; "x"
044E  DD810300           [076] getglobal  7   14       ; -1941280958
0452  19020600           [077] loadk      8   24       ; 0
0456  59420600           [078] loadk      9   25       ; 0
045A  E2818001           [079] call       7   3   2  
045E  4CC1018D           [080] settable   5   282 7    ; "z"
0462  E4C14603           [081] self       7   6   283  ; -353146959
0466  52028002           [082] move       9   5      
046A  E2418001           [083] call       7   3   1  
046E  C340C001           [084] add        3   3   257  ; 0
0472  E401C000           [085] self       7   1   256  ; -703571861
0476  5D420500           [086] getglobal  9   21       ; math
047A  4E02C704           [087] gettable   9   9   284  ; -1962864584
047E  8D828080           [088] sub        10  257 2    ; 0
0482  D9C20100           [089] loadk      11  7        ; 0
0486  62028001           [090] call       9   3   0  
048A  E2410000           [091] call       7   0   1  
048E  E4814100           [092] self       7   0   262  ; 54877834
0492  E2810001           [093] call       7   2   2  
0496  1D420700           [094] getglobal  8   29       ; -523730508
049A  6442C100           [095] self       9   1   261  ; 196800914
049E  62820001           [096] call       9   2   2  
04A2  A4424100           [097] self       10  0   261  ; 196800914
04A6  A2820001           [098] call       10  2   2  
04AA  C482008F           [099] mul        11  286 2    ; -51
04AE  C3C2828F           [100] add        11  287 11   ; 10
04B2  22820002           [101] call       8   4   2  
04B6  6402C800           [102] self       9   1   288  ; -333955620
04BA  D2020004           [103] move       11  8      
04BE  62428001           [104] call       9   3   1  
04C2  4E42C303           [105] gettable   9   7   269  ; "heading"
04C6  44828004           [106] mul        9   9   2  
04CA  4442C804           [107] mul        9   9   289  ; 0
04CE  CC418286           [108] settable   7   269 9    ; "heading"
04D2  4E42C403           [109] gettable   9   7   273  ; "pitch"
04D6  44828004           [110] mul        9   9   2  
04DA  4442C804           [111] mul        9   9   289  ; 0
04DE  CC418288           [112] settable   7   273 9    ; "pitch"
04E2  4E82C403           [113] gettable   9   7   274  ; "bank"
04E6  44828004           [114] mul        9   9   2  
04EA  4442C804           [115] mul        9   9   289  ; 0
04EE  CC410289           [116] settable   7   274 9    ; "bank"
04F2  6482C800           [117] self       9   1   290  ; 1352138124
04F6  D2028003           [118] move       11  7      
04FA  62428001           [119] call       9   3   1  
04FE  5DC20800           [120] getglobal  9   35       ; 1289681407
0502  62828000           [121] call       9   1   2  
0506  83400201           [122] add        2   2   9  
050A  5D020900           [123] getglobal  9   36       ; 538022378
050E  99C20100           [124] loadk      10  7        ; 0
0512  62420001           [125] call       9   2   1  
0516  1A00E57F           [126] jmp        -107         ; to [20]
051A  64024000           [127] self       9   0   256  ; -703571861
051E  D9C20100           [128] loadk      11  7        ; 0
0522  62428001           [129] call       9   3   1  
0526  64424900           [130] self       9   0   293  ; -1421644046
052A  DD820900           [131] getglobal  11  38       ; pickupGlowType
052E  1DC30900           [132] getglobal  12  39       ; EMPTY_SYMBOL
0532  62420002           [133] call       9   4   1  
0536  5D820200           [134] getglobal  9   10       ; 1074689893
053A  92028000           [135] move       10  1      
053E  62820001           [136] call       9   2   2  
0542  58420000           [137] test       9       1    ; to [139] if false
0546  1A400080           [138] jmp        2            ; to [141]
054A  6402CA00           [139] self       9   1   296  ; -725453761
054E  62420001           [140] call       9   2   1  
0552  1E008000           [141] return     0   1      
                         * constants:
0556  29                 sizek (41)
0557  01                 const type 3
0558  6B5810D6           const [0]: (-703571861)
055C  03                 const type 3
055D  0000803F           const [1]: (0)
0561  04                 const type 4
0562  08                 string size (8)
0563  67526567696F6E00   "gRegion\0"
                         const [2]: "gRegion"
056B  01                 const type 3
056C  C64CD3BD           const [3]: (-1110225722)
0570  04                 const type 4
0571  11                 string size (17)
0572  616E696D61746564+  "animated"
057A  4465636F54797065+  "DecoType"
0582  00                 "\0"
                         const [4]: "animatedDecoType"
0583  01                 const type 3
0584  92F1BA0B           const [5]: (196800914)
0588  01                 const type 3
0589  8A5E4503           const [6]: (54877834)
058D  03                 const type 3
058E  00000000           const [7]: (0)
0592  01                 const type 3
0593  81624F1E           const [8]: (508519041)
0597  01                 const type 3
0598  00971C22           const [9]: (572299008)
059C  01                 const type 3
059D  65770E40           const [10]: (1074689893)
05A1  03                 const type 3
05A2  00000040           const [11]: (0)
05A6  03                 const type 3
05A7  00002041           const [12]: (0)
05AB  04                 const type 4
05AC  08                 string size (8)
05AD  68656164696E6700   "heading\0"
                         const [13]: "heading"
05B5  01                 const type 3
05B6  42674A8C           const [14]: (-1941280958)
05BA  03                 const type 3
05BB  000034C3           const [15]: (0)
05BF  03                 const type 3
05C0  00003443           const [16]: (0)
05C4  04                 const type 4
05C5  06                 string size (6)
05C6  706974636800       "pitch\0"
                         const [17]: "pitch"
05CC  04                 const type 4
05CD  05                 string size (5)
05CE  62616E6B00         "bank\0"
                         const [18]: "bank"
05D3  04                 const type 4
05D4  10                 string size (16)
05D5  66616B6543726564+  "fakeCred"
05DD  6974436869707300   "itChips\0"
                         const [19]: "fakeCreditChips"
05E5  01                 const type 3
05E6  0416B0A2           const [20]: (-1565518332)
05EA  04                 const type 4
05EB  05                 string size (5)
05EC  6D61746800         "math\0"
                         const [21]: "math"
05F1  01                 const type 3
05F2  F7615986           const [22]: (-2040962569)
05F6  04                 const type 4
05F7  02                 string size (2)
05F8  7800               "x\0"
                         const [23]: "x"
05FA  03                 const type 3
05FB  0000C8C2           const [24]: (0)
05FF  03                 const type 3
0600  0000C842           const [25]: (0)
0604  04                 const type 4
0605  02                 string size (2)
0606  7A00               "z\0"
                         const [26]: "z"
0608  01                 const type 3
0609  B167F3EA           const [27]: (-353146959)
060D  01                 const type 3
060E  3810018B           const [28]: (-1962864584)
0612  01                 const type 3
0613  B481C8E0           const [29]: (-523730508)
0617  03                 const type 3
0618  CDCC4C3D           const [30]: (-51)
061C  03                 const type 3
061D  0AD7A33C           const [31]: (10)
0621  01                 const type 3
0622  DC3D18EC           const [32]: (-333955620)
0626  03                 const type 3
0627  0000003F           const [33]: (0)
062B  01                 const type 3
062C  8CFD9750           const [34]: (1352138124)
0630  01                 const type 3
0631  FFF9DE4C           const [35]: (1289681407)
0635  01                 const type 3
0636  EA911120           const [36]: (538022378)
063A  01                 const type 3
063B  F26E43AB           const [37]: (-1421644046)
063F  04                 const type 4
0640  0F                 string size (15)
0641  7069636B7570476C+  "pickupGl"
0649  6F775479706500     "owType\0"
                         const [38]: "pickupGlowType"
0650  04                 const type 4
0651  0D                 string size (13)
0652  454D5054595F5359+  "EMPTY_SY"
065A  4D424F4C00         "MBOL\0"
                         const [39]: "EMPTY_SYMBOL"
065F  01                 const type 3
0660  3F74C2D4           const [40]: (-725453761)
                         * functions:
0664  00                 sizep (0)
                         * lines:
0666  01                 sizelineinfo (141)
                         [pc] (line)
0667  2E                 [001] (46)
0668  00                 [002] (46)
0669  00                 [003] (46)
066A  00                 [004] (47)
066B  2E                 [005] (47)
066C  00                 [006] (47)
066D  00                 [007] (47)
066E  00                 [008] (47)
066F  2E                 [009] (47)
0670  00                 [010] (47)
0671  00                 [011] (47)
0672  00                 [012] (47)
0673  2F                 [013] (47)
0674  00                 [014] (48)
0675  00                 [015] (49)
0676  00                 [016] (50)
0677  2F                 [017] (50)
0678  00                 [018] (51)
0679  00                 [019] (51)
067A  00                 [020] (52)
067B  2F                 [021] (52)
067C  00                 [022] (52)
067D  00                 [023] (52)
067E  00                 [024] (52)
067F  2F                 [025] (52)
0680  00                 [026] (52)
0681  00                 [027] (52)
0682  00                 [028] (52)
0683  2F                 [029] (52)
0684  00                 [030] (52)
0685  00                 [031] (52)
0686  00                 [032] (53)
0687  2F                 [033] (53)
0688  00                 [034] (54)
0689  00                 [035] (54)
068A  00                 [036] (54)
068B  2F                 [037] (54)
068C  00                 [038] (54)
068D  00                 [039] (55)
068E  00                 [040] (55)
068F  2F                 [041] (55)
0690  00                 [042] (55)
0691  00                 [043] (55)
0692  00                 [044] (56)
0693  2F                 [045] (56)
0694  00                 [046] (56)
0695  00                 [047] (56)
0696  00                 [048] (56)
0697  2F                 [049] (57)
0698  00                 [050] (57)
0699  00                 [051] (57)
069A  00                 [052] (57)
069B  30                 [053] (57)
069C  00                 [054] (57)
069D  00                 [055] (57)
069E  00                 [056] (57)
069F  31                 [057] (57)
06A0  00                 [058] (57)
06A1  00                 [059] (57)
06A2  00                 [060] (57)
06A3  32                 [061] (57)
06A4  00                 [062] (57)
06A5  00                 [063] (57)
06A6  00                 [064] (57)
06A7  32                 [065] (57)
06A8  00                 [066] (58)
06A9  00                 [067] (58)
06AA  00                 [068] (58)
06AB  33                 [069] (58)
06AC  00                 [070] (58)
06AD  00                 [071] (59)
06AE  00                 [072] (59)
06AF  33                 [073] (59)
06B0  00                 [074] (59)
06B1  00                 [075] (59)
06B2  00                 [076] (60)
06B3  34                 [077] (60)
06B4  00                 [078] (60)
06B5  00                 [079] (60)
06B6  00                 [080] (60)
06B7  34                 [081] (61)
06B8  00                 [082] (61)
06B9  00                 [083] (61)
06BA  00                 [084] (63)
06BB  34                 [085] (65)
06BC  00                 [086] (65)
06BD  00                 [087] (65)
06BE  00                 [088] (65)
06BF  34                 [089] (65)
06C0  00                 [090] (65)
06C1  00                 [091] (65)
06C2  00                 [092] (66)
06C3  34                 [093] (66)
06C4  00                 [094] (67)
06C5  00                 [095] (67)
06C6  00                 [096] (67)
06C7  34                 [097] (67)
06C8  00                 [098] (67)
06C9  00                 [099] (67)
06CA  00                 [100] (67)
06CB  34                 [101] (67)
06CC  00                 [102] (68)
06CD  00                 [103] (68)
06CE  00                 [104] (68)
06CF  34                 [105] (69)
06D0  00                 [106] (69)
06D1  00                 [107] (69)
06D2  00                 [108] (69)
06D3  34                 [109] (70)
06D4  00                 [110] (70)
06D5  00                 [111] (70)
06D6  00                 [112] (70)
06D7  34                 [113] (71)
06D8  00                 [114] (71)
06D9  00                 [115] (71)
06DA  00                 [116] (71)
06DB  34                 [117] (72)
06DC  00                 [118] (72)
06DD  00                 [119] (72)
06DE  00                 [120] (73)
06DF  34                 [121] (73)
06E0  00                 [122] (73)
06E1  00                 [123] (74)
06E2  00                 [124] (74)
06E3  35                 [125] (74)
06E4  00                 [126] (74)
06E5  00                 [127] (76)
06E6  00                 [128] (76)
06E7  35                 [129] (76)
06E8  00                 [130] (77)
06E9  00                 [131] (77)
06EA  00                 [132] (77)
06EB  36                 [133] (77)
06EC  00                 [134] (78)
06ED  00                 [135] (78)
06EE  00                 [136] (78)
06EF  36                 [137] (78)
06F0  00                 [138] (78)
06F1  00                 [139] (79)
06F2  00                 [140] (79)
06F3  36                 [141] (81)
                         * locals:
089B  00                 sizelocvars (0)
                         * upvalues:
089C  00                 sizeupvalues (0)
                         ** end of function **

                         
089D                     ** function [1] definition (level 2)
                         ** start of function **
089D  00                 string size (0)
                         source name: (none)
089E  53                 line defined (83)
089F  64                 last line defined (100)
08A0  01                 nups (1)
08A1  01                 numparams (1)
08A2  00                 is_vararg (0)
08A3  09                 maxstacksize (9)
                         * code:
08A4  37                 sizecode (55)
08A5  59000000           [01] loadk      1   0        ; 0
08A9  9D400000           [02] getglobal  2   1        ; -332969190
08AD  A2808000           [03] call       2   1   2  
08B1  DD400000           [04] getglobal  3   1        ; -332969190
08B5  E2808000           [05] call       3   1   2  
fail op	21
08B9  1580C000           [06] concat     0   1   258
08BD  1A800B80           [07] jmp        47           ; to [55]
08C1  1DC10000           [08] getglobal  4   3        ; 1074689893
08C5  52010000           [09] move       5   0      
08C9  22810001           [10] call       4   2   2  
08CD  18410000           [11] test       4       1    ; to [13] if false
08D1  1A400A80           [12] jmp        42           ; to [55]
08D5  13010000           [13] getupval   4   0      
08D9  5D010100           [14] getglobal  5   4        ; math
08DD  4E41C102           [15] gettable   5   5   261  ; -2040962569
08E1  99810100           [16] loadk      6   6        ; 0
08E5  D3010000           [17] getupval   7   0      
08E9  CA018003           [18] len        7   7      
08ED  62818001           [19] call       5   3   2  
08F1  8E400102           [20] gettable   2   4   5  
08F5  13010000           [21] getupval   4   0      
08F9  5D010100           [22] getglobal  5   4        ; math
08FD  4E41C102           [23] gettable   5   5   261  ; -2040962569
0901  99810100           [24] loadk      6   6        ; 0
0905  D3010000           [25] getupval   7   0      
0909  CA018003           [26] len        7   7      
090D  62818001           [27] call       5   3   2  
0911  CE400102           [28] gettable   3   4   5  
0915  24C14100           [29] self       4   0   263  ; -1421644046
0919  9D010200           [30] getglobal  6   8        ; beamType
091D  D2010001           [31] move       7   2      
0921  22810002           [32] call       4   4   2  
0925  5DC10000           [33] getglobal  5   3        ; 1074689893
0929  92010002           [34] move       6   4      
092D  62810001           [35] call       5   2   2  
0931  58410000           [36] test       5       1    ; to [38] if false
0935  1AC00080           [37] jmp        4            ; to [42]
0939  64414202           [38] self       5   4   265  ; -408095485
093D  D2010000           [39] move       7   0      
0941  12028001           [40] move       8   3      
0945  62410002           [41] call       5   4   1  
0949  64C14100           [42] self       5   0   263  ; -1421644046
094D  DD810200           [43] getglobal  7   10       ; sparkBurst
0951  12028001           [44] move       8   3      
0955  62410002           [45] call       5   4   1  
0959  5DC10200           [46] getglobal  5   11       ; -1941280958
095D  99010300           [47] loadk      6   12       ; -51
0961  D9410300           [48] loadk      7   13       ; -102
0965  62818001           [49] call       5   3   2  
0969  9D810300           [50] getglobal  6   14       ; 538022378
096D  D2018002           [51] move       7   5      
0971  A2410001           [52] call       6   2   1  
0975  43408100           [53] add        1   1   5  
0979  1A80F37F           [54] jmp        -49          ; to [6]
097D  1E008000           [55] return     0   1      
                         * constants:
0981  0F                 sizek (15)
0982  03                 const type 3
0983  00000000           const [0]: (0)
0987  01                 const type 3
0988  1A4B27EC           const [1]: (-332969190)
098C  03                 const type 3
098D  00009040           const [2]: (0)
0991  01                 const type 3
0992  65770E40           const [3]: (1074689893)
0996  04                 const type 4
0997  05                 string size (5)
0998  6D61746800         "math\0"
                         const [4]: "math"
099D  01                 const type 3
099E  F7615986           const [5]: (-2040962569)
09A2  03                 const type 3
09A3  0000803F           const [6]: (0)
09A7  01                 const type 3
09A8  F26E43AB           const [7]: (-1421644046)
09AC  04                 const type 4
09AD  09                 string size (9)
09AE  6265616D54797065+  "beamType"
09B6  00                 "\0"
                         const [8]: "beamType"
09B7  01                 const type 3
09B8  03F5ACE7           const [9]: (-408095485)
09BC  04                 const type 4
09BD  0B                 string size (11)
09BE  737061726B427572+  "sparkBur"
09C6  737400             "st\0"
                         const [10]: "sparkBurst"
09C9  01                 const type 3
09CA  42674A8C           const [11]: (-1941280958)
09CE  03                 const type 3
09CF  CDCCCC3D           const [12]: (-51)
09D3  03                 const type 3
09D4  9A99993E           const [13]: (-102)
09D8  01                 const type 3
09D9  EA911120           const [14]: (538022378)
                         * functions:
09DD  00                 sizep (0)
                         * lines:
09DE  37                 sizelineinfo (55)
                         [pc] (line)
09DF  54                 [01] (84)
09E0  00                 [02] (85)
09E1  00                 [03] (85)
09E2  00                 [04] (86)
09E3  55                 [05] (86)
09E4  00                 [06] (87)
09E5  00                 [07] (87)
09E6  00                 [08] (87)
09E7  55                 [09] (87)
09E8  00                 [10] (87)
09E9  00                 [11] (87)
09EA  00                 [12] (87)
09EB  56                 [13] (88)
09EC  00                 [14] (88)
09ED  00                 [15] (88)
09EE  00                 [16] (88)
09EF  56                 [17] (88)
09F0  00                 [18] (88)
09F1  00                 [19] (88)
09F2  00                 [20] (88)
09F3  57                 [21] (89)
09F4  00                 [22] (89)
09F5  00                 [23] (89)
09F6  00                 [24] (89)
09F7  57                 [25] (89)
09F8  00                 [26] (89)
09F9  00                 [27] (89)
09FA  00                 [28] (89)
09FB  57                 [29] (90)
09FC  00                 [30] (90)
09FD  00                 [31] (90)
09FE  00                 [32] (90)
09FF  57                 [33] (91)
0A00  00                 [34] (91)
0A01  00                 [35] (91)
0A02  00                 [36] (91)
0A03  57                 [37] (91)
0A04  00                 [38] (92)
0A05  00                 [39] (92)
0A06  00                 [40] (92)
0A07  57                 [41] (92)
0A08  00                 [42] (95)
0A09  00                 [43] (95)
0A0A  00                 [44] (95)
0A0B  57                 [45] (95)
0A0C  00                 [46] (96)
0A0D  00                 [47] (96)
0A0E  00                 [48] (96)
0A0F  58                 [49] (96)
0A10  00                 [50] (97)
0A11  00                 [51] (97)
0A12  00                 [52] (97)
0A13  58                 [53] (98)
0A14  00                 [54] (98)
0A15  00                 [55] (100)
                         * locals:
0ABB  00                 sizelocvars (0)
                         * upvalues:
0ABC  00                 sizeupvalues (0)
                         ** end of function **

                         * lines:
0ABD  6D                 sizelineinfo (109)
                         [pc] (line)
0ABE  07                 [001] (7)
0ABF  00                 [002] (8)
0AC0  00                 [003] (8)
0AC1  00                 [004] (8)
0AC2  08                 [005] (9)
0AC3  00                 [006] (9)
0AC4  00                 [007] (9)
0AC5  00                 [008] (10)
0AC6  08                 [009] (10)
0AC7  00                 [010] (10)
0AC8  00                 [011] (11)
0AC9  00                 [012] (11)
0ACA  08                 [013] (11)
0ACB  00                 [014] (12)
0ACC  00                 [015] (12)
0ACD  00                 [016] (12)
0ACE  09                 [017] (13)
0ACF  00                 [018] (13)
0AD0  00                 [019] (13)
0AD1  00                 [020] (14)
0AD2  09                 [021] (14)
0AD3  00                 [022] (14)
0AD4  00                 [023] (15)
0AD5  00                 [024] (15)
0AD6  09                 [025] (15)
0AD7  00                 [026] (16)
0AD8  00                 [027] (16)
0AD9  00                 [028] (16)
0ADA  0A                 [029] (17)
0ADB  00                 [030] (17)
0ADC  00                 [031] (17)
0ADD  00                 [032] (18)
0ADE  0A                 [033] (20)
0ADF  00                 [034] (21)
0AE0  00                 [035] (21)
0AE1  00                 [036] (21)
0AE2  0A                 [037] (22)
0AE3  00                 [038] (22)
0AE4  00                 [039] (22)
0AE5  00                 [040] (23)
0AE6  0B                 [041] (23)
0AE7  00                 [042] (23)
0AE8  00                 [043] (24)
0AE9  00                 [044] (24)
0AEA  0B                 [045] (24)
0AEB  00                 [046] (25)
0AEC  00                 [047] (25)
0AED  00                 [048] (25)
0AEE  0B                 [049] (26)
0AEF  00                 [050] (26)
0AF0  00                 [051] (26)
0AF1  00                 [052] (27)
0AF2  0C                 [053] (27)
0AF3  00                 [054] (27)
0AF4  00                 [055] (28)
0AF5  00                 [056] (28)
0AF6  0C                 [057] (28)
0AF7  00                 [058] (29)
0AF8  00                 [059] (29)
0AF9  00                 [060] (29)
0AFA  0C                 [061] (30)
0AFB  00                 [062] (30)
0AFC  00                 [063] (30)
0AFD  00                 [064] (31)
0AFE  0D                 [065] (31)
0AFF  00                 [066] (31)
0B00  00                 [067] (32)
0B01  00                 [068] (32)
0B02  0D                 [069] (32)
0B03  00                 [070] (33)
0B04  00                 [071] (33)
0B05  00                 [072] (33)
0B06  0D                 [073] (34)
0B07  00                 [074] (34)
0B08  00                 [075] (34)
0B09  00                 [076] (35)
0B0A  0E                 [077] (35)
0B0B  00                 [078] (35)
0B0C  00                 [079] (36)
0B0D  00                 [080] (36)
0B0E  0E                 [081] (36)
0B0F  00                 [082] (37)
0B10  00                 [083] (37)
0B11  00                 [084] (37)
0B12  0E                 [085] (38)
0B13  00                 [086] (38)
0B14  00                 [087] (38)
0B15  00                 [088] (39)
0B16  0F                 [089] (39)
0B17  00                 [090] (39)
0B18  00                 [091] (40)
0B19  00                 [092] (40)
0B1A  0F                 [093] (40)
0B1B  00                 [094] (41)
0B1C  00                 [095] (41)
0B1D  00                 [096] (41)
0B1E  0F                 [097] (42)
0B1F  00                 [098] (42)
0B20  00                 [099] (42)
0B21  00                 [100] (43)
0B22  10                 [101] (81)
0B23  00                 [102] (81)
0B24  00                 [103] (81)
0B25  00                 [104] (45)
0B26  10                 [105] (100)
0B27  00                 [106] (100)
0B28  00                 [107] (100)
0B29  00                 [108] (83)
0B2A  10                 [109] (100)
                         * locals:
0C72  00                 sizelocvars (0)
                         * upvalues:
0C73  00                 sizeupvalues (0)
                         ** end of function **

0C74                     ** end of chunk **
