1	C:\wlua_dump\path\Lotus\Scripts\EffectsDecalEmissiveFade.lua
Pos   Hex Data           Description or Code
------------------------------------------------------------------------
0000                     ** source chunk: C:\wlua_dump\path\Lotus\Scripts\EffectsDecalEmissiveFade.lua
                         ** global header start **
0000  7F                 header signature: ""
0001  00                 version (major:minor hex digits)
0002  00                 format (0=official)
0003  00                 endianness (1=little endian)
0004  00                 size of int (bytes)
0005  00                 size of size_t (bytes)
0006  02                 size of Instruction (bytes)
0007  05                 size of number (bytes)
0008  12                 integral (1=integral)
418
                         * number type: single
                         * x86 standard (32-bit, little endian, doubles)
                         ** global header end **
Lotus.Scripts.Effects.EffectsColorUtilities
EmissiveMapAtten
EmissiveTintColor
FadeEmissive
gLotusWeaponType
useAttachmentsColorSlot
Lotus_Game
Attachments
EnergyColor
mEnergyColor
EnergyColor1
mEnergyColor1
fadeDuration
emissiveAtten
red
green
blue
                         
0001                     ** function [0] definition (level 1)
                         ** start of function **
0001  00                 string size (0)
                         source name: (none)
0002  00                 line defined (0)
0003  00                 last line defined (0)
0004  00                 nups (0)
0005  00                 numparams (0)
0006  02                 is_vararg (2)
0007  05                 maxstacksize (5)
                         * code:
0008  12                 sizecode (18)
0009  1D000000           [01] getglobal  0   0        ; 849075268
000D  59400000           [02] loadk      1   1        ; "Lotus.Scripts.Effects.EffectsColorUtilities"
0011  22800001           [03] call       0   2   2  
0015  5D800000           [04] getglobal  1   2        ; -332969190
0019  99C00000           [05] loadk      2   3        ; "EmissiveMapAtten"
001D  62800001           [06] call       1   2   2  
0021  9D800000           [07] getglobal  2   2        ; -332969190
0025  D9000100           [08] loadk      3   4        ; "EmissiveTintColor"
0029  A2800001           [09] call       2   2   2  
002D  D7000000           [10] loadbool   3   0   0    ; false
0031  25010000           [11] closure    4   0      
0035  12008001           [12] move       0   3      
0039  12008000           [13] move       0   1      
003D  12000001           [14] move       0   2      
0041  12000000           [15] move       0   0      
0045  20410100           [16] setglobal  4   5        ; FadeEmissive
0049  20810100           [17] setglobal  4   6        ; 57102287
004D  1E008000           [18] return     0   1      
                         * constants:
0051  07                 sizek (7)
0052  01                 const type 3
0053  44DC9B32           const [0]: (849075268)
0057  04                 const type 4
0058  2C                 string size (44)
0059  4C6F7475732E5363+  "Lotus.Sc"
0061  72697074732E4566+  "ripts.Ef"
0069  66656374732E4566+  "fects.Ef"
0071  6665637473436F6C+  "fectsCol"
0079  6F725574696C6974+  "orUtilit"
0081  69657300           "ies\0"
                         const [1]: "Lotus.Scripts.Effects.EffectsColorUtilities"
0085  01                 const type 3
0086  1A4B27EC           const [2]: (-332969190)
008A  04                 const type 4
008B  11                 string size (17)
008C  456D697373697665+  "Emissive"
0094  4D6170417474656E+  "MapAtten"
009C  00                 "\0"
                         const [3]: "EmissiveMapAtten"
009D  04                 const type 4
009E  12                 string size (18)
009F  456D697373697665+  "Emissive"
00A7  54696E74436F6C6F+  "TintColo"
00AF  7200               "r\0"
                         const [4]: "EmissiveTintColor"
00B1  04                 const type 4
00B2  0D                 string size (13)
00B3  46616465456D6973+  "FadeEmis"
00BB  7369766500         "sive\0"
                         const [5]: "FadeEmissive"
00C0  01                 const type 3
00C1  CF4F6703           const [6]: (57102287)
                         * functions:
00C5  01                 sizep (1)
                         
00C6                     ** function [0] definition (level 2)
                         ** start of function **
00C6  00                 string size (0)
                         source name: (none)
00C7  0B                 line defined (11)
00C8  38                 last line defined (56)
00C9  04                 nups (4)
00CA  01                 numparams (1)
00CB  00                 is_vararg (0)
00CC  0F                 maxstacksize (15)
                         * code:
00CD  7F                 sizecode (127)
00CE  5D000000           [001] getglobal  1   0        ; -1247440829
00D2  62808000           [002] call       1   1   2  
00D6  9D000000           [003] getglobal  2   0        ; -1247440829
00DA  A2808000           [004] call       2   1   2  
00DE  DD000000           [005] getglobal  3   0        ; -1247440829
00E2  E2808000           [006] call       3   1   2  
00E6  24414000           [007] self       4   0   257  ; 129677183
00EA  22810001           [008] call       4   2   2  
00EE  5D810000           [009] getglobal  5   2        ; 1074689893
00F2  92010002           [010] move       6   4      
00F6  62810001           [011] call       5   2   2  
00FA  58410000           [012] test       5       1    ; to [14] if false
00FE  1A000C80           [013] jmp        49           ; to [63]
0102  64C14002           [014] self       5   4   259  ; -1957065004
0106  DD010100           [015] getglobal  7   4        ; gLotusWeaponType
010A  62818001           [016] call       5   3   2  
010E  58010000           [017] test       5       0    ; to [19] if true
0112  1AC00A80           [018] jmp        44           ; to [63]
0116  5D410100           [019] getglobal  5   5        ; useAttachmentsColorSlot
011A  58010000           [020] test       5       0    ; to [22] if true
011E  1A800780           [021] jmp        31           ; to [53]
0122  64814102           [022] self       5   4   262  ; -1348043987
0126  62810001           [023] call       5   2   2  
012A  A4C1C102           [024] self       6   5   263  ; -479391803
012E  1D020200           [025] getglobal  8   8        ; Lotus_Game
0132  0E424204           [026] gettable   8   8   265  ; "Attachments"
0136  A2818001           [027] call       6   3   2  
013A  E4814203           [028] self       7   6   266  ; 979293742
013E  5D020200           [029] getglobal  9   8        ; Lotus_Game
0142  4EC2C204           [030] gettable   9   9   267  ; "EnergyColor"
0146  E2818001           [031] call       7   3   2  
014A  D8010000           [032] test       7       0    ; to [34] if true
014E  1A000780           [033] jmp        29           ; to [63]
0152  DD010000           [034] getglobal  7   0        ; -1247440829
0156  0E024303           [035] gettable   8   6   268  ; "mEnergyColor"
015A  E2810001           [036] call       7   2   2  
015E  92008003           [037] move       2   7      
0162  D7018000           [038] loadbool   7   1   0    ; true
fail op	8
0166  C8010000           [039] setupval   7   0      
016A  E4814203           [040] self       7   6   266  ; 979293742
016E  5D020200           [041] getglobal  9   8        ; Lotus_Game
0172  4E42C304           [042] gettable   9   9   269  ; "EnergyColor1"
0176  E2818001           [043] call       7   3   2  
017A  D8010000           [044] test       7       0    ; to [46] if true
017E  1A000180           [045] jmp        5            ; to [51]
0182  DD010000           [046] getglobal  7   0        ; -1247440829
0186  0E824303           [047] gettable   8   6   270  ; "mEnergyColor1"
018A  E2810001           [048] call       7   2   2  
018E  D2008003           [049] move       3   7      
0192  1AC00280           [050] jmp        12           ; to [63]
0196  D2000001           [051] move       3   2      
019A  1A400280           [052] jmp        10           ; to [63]
019E  E4C14302           [053] self       7   4   271  ; -881144909
01A2  52020001           [054] move       9   2      
01A6  97020000           [055] loadbool   10  0   0    ; false
01AA  E2810002           [056] call       7   4   2  
fail op	8
01AE  C8010000           [057] setupval   7   0      
01B2  E4C14302           [058] self       7   4   271  ; -881144909
01B6  52028001           [059] move       9   3      
01BA  97028000           [060] loadbool   10  1   0    ; true
01BE  E2810002           [061] call       7   4   2  
fail op	8
01C2  C8010000           [062] setupval   7   0      
01C6  D9010400           [063] loadk      7   16       ; 0
01CA  1D420400           [064] getglobal  8   17       ; fadeDuration
fail op	21
01CE  15008203           [065] concat     0   7   8  
01D2  1AC00D80           [066] jmp        56           ; to [123]
01D6  24824400           [067] self       8   0   274  ; -786111647
01DA  93028000           [068] getupval   10  1      
01DE  DDC20400           [069] getglobal  11  19       ; -1642362560
01E2  1D430400           [070] getglobal  12  17       ; fadeDuration
01E6  1C038303           [071] div        12  7   12 
01EA  E2820001           [072] call       11  2   2  
01EE  CDC2028A           [073] sub        11  276 11   ; 0
01F2  1D430500           [074] getglobal  12  21       ; emissiveAtten
01F6  C4028305           [075] mul        11  11  12 
01FA  22420002           [076] call       8   4   1  
01FE  13020000           [077] getupval   8   0      
0202  18020000           [078] test       8       0    ; to [80] if true
0206  1AC00880           [079] jmp        36           ; to [116]
020A  1DC20500           [080] getglobal  8   23       ; -1828500651
020E  4E824501           [081] gettable   9   2   278  ; "red"
0212  8E82C501           [082] gettable   10  3   278  ; "red"
0216  DD420400           [083] getglobal  11  17       ; fadeDuration
021A  DCC28203           [084] div        11  7   11 
021E  22820002           [085] call       8   4   2  
0222  4C00028B           [086] settable   1   278 8    ; "red"
0226  1DC20500           [087] getglobal  8   23       ; -1828500651
022A  4E024601           [088] gettable   9   2   280  ; "green"
022E  8E02C601           [089] gettable   10  3   280  ; "green"
0232  DD420400           [090] getglobal  11  17       ; fadeDuration
0236  DCC28203           [091] div        11  7   11 
023A  22820002           [092] call       8   4   2  
023E  4C00028C           [093] settable   1   280 8    ; "green"
0242  1DC20500           [094] getglobal  8   23       ; -1828500651
0246  4E424601           [095] gettable   9   2   281  ; "blue"
024A  8E42C601           [096] gettable   10  3   281  ; "blue"
024E  DD420400           [097] getglobal  11  17       ; fadeDuration
0252  DCC28203           [098] div        11  7   11 
0256  22820002           [099] call       8   4   2  
025A  4C00828C           [100] settable   1   281 8    ; "blue"
025E  24824400           [101] self       8   0   274  ; -786111647
0262  93020001           [102] getupval   10  2      
0266  D3028001           [103] getupval   11  3      
026A  CE82C605           [104] gettable   11  11  282  ; 1988048406
026E  0E83C500           [105] gettable   12  1   278  ; "red"
0272  E2820001           [106] call       11  2   2  
0276  13038001           [107] getupval   12  3      
027A  0E834606           [108] gettable   12  12  282  ; 1988048406
027E  4E03C600           [109] gettable   13  1   280  ; "green"
0282  22830001           [110] call       12  2   2  
0286  53038001           [111] getupval   13  3      
028A  4E83C606           [112] gettable   13  13  282  ; 1988048406
028E  8E43C600           [113] gettable   14  1   281  ; "blue"
0292  62030001           [114] call       13  2   0  
0296  22420000           [115] call       8   0   1  
029A  1DC20600           [116] getglobal  8   27       ; 1289681407
029E  22828000           [117] call       8   1   2  
02A2  C3018203           [118] add        7   7   8  
02A6  1D020700           [119] getglobal  8   28       ; 538022378
02AA  59020400           [120] loadk      9   16       ; 0
02AE  22420001           [121] call       8   2   1  
02B2  1A00F17F           [122] jmp        -59          ; to [64]
02B6  24824400           [123] self       8   0   274  ; -786111647
02BA  93028000           [124] getupval   10  1      
02BE  D9020400           [125] loadk      11  16       ; 0
02C2  22420002           [126] call       8   4   1  
02C6  1E008000           [127] return     0   1      
                         * constants:
02CA  1D                 sizek (29)
02CB  01                 const type 3
02CC  4390A5B5           const [0]: (-1247440829)
02D0  01                 const type 3
02D1  7FB7BA07           const [1]: (129677183)
02D5  01                 const type 3
02D6  65770E40           const [2]: (1074689893)
02DA  01                 const type 3
02DB  D48E598B           const [3]: (-1957065004)
02DF  04                 const type 4
02E0  11                 string size (17)
02E1  674C6F7475735765+  "gLotusWe"
02E9  61706F6E54797065+  "aponType"
02F1  00                 "\0"
                         const [4]: "gLotusWeaponType"
02F2  04                 const type 4
02F3  18                 string size (24)
02F4  7573654174746163+  "useAttac"
02FC  686D656E7473436F+  "hmentsCo"
0304  6C6F72536C6F7400   "lorSlot\0"
                         const [5]: "useAttachmentsColorSlot"
030C  01                 const type 3
030D  2D7BA6AF           const [6]: (-1348043987)
0311  01                 const type 3
0312  C50F6DE3           const [7]: (-479391803)
0316  04                 const type 4
0317  0B                 string size (11)
0318  4C6F7475735F4761+  "Lotus_Ga"
0320  6D6500             "me\0"
                         const [8]: "Lotus_Game"
0323  04                 const type 4
0324  0C                 string size (12)
0325  4174746163686D65+  "Attachme"
032D  6E747300           "nts\0"
                         const [9]: "Attachments"
0331  01                 const type 3
0332  2ED65E3A           const [10]: (979293742)
0336  04                 const type 4
0337  0C                 string size (12)
0338  456E65726779436F+  "EnergyCo"
0340  6C6F7200           "lor\0"
                         const [11]: "EnergyColor"
0344  04                 const type 4
0345  0D                 string size (13)
0346  6D456E6572677943+  "mEnergyC"
034E  6F6C6F7200         "olor\0"
                         const [12]: "mEnergyColor"
0353  04                 const type 4
0354  0D                 string size (13)
0355  456E65726779436F+  "EnergyCo"
035D  6C6F723100         "lor1\0"
                         const [13]: "EnergyColor1"
0362  04                 const type 4
0363  0E                 string size (14)
0364  6D456E6572677943+  "mEnergyC"
036C  6F6C6F723100       "olor1\0"
                         const [14]: "mEnergyColor1"
0372  01                 const type 3
0373  B3CB7ACB           const [15]: (-881144909)
0377  03                 const type 3
0378  00000000           const [16]: (0)
037C  04                 const type 4
037D  0D                 string size (13)
037E  6661646544757261+  "fadeDura"
0386  74696F6E00         "tion\0"
                         const [17]: "fadeDuration"
038B  01                 const type 3
038C  61E324D1           const [18]: (-786111647)
0390  01                 const type 3
0391  40891B9E           const [19]: (-1642362560)
0395  03                 const type 3
0396  0000803F           const [20]: (0)
039A  04                 const type 4
039B  0E                 string size (14)
039C  656D697373697665+  "emissive"
03A4  417474656E00       "Atten\0"
                         const [21]: "emissiveAtten"
03AA  04                 const type 4
03AB  04                 string size (4)
03AC  72656400           "red\0"
                         const [22]: "red"
03B0  01                 const type 3
03B1  554B0393           const [23]: (-1828500651)
03B5  04                 const type 4
03B6  06                 string size (6)
03B7  677265656E00       "green\0"
                         const [24]: "green"
03BD  04                 const type 4
03BE  05                 string size (5)
03BF  626C756500         "blue\0"
                         const [25]: "blue"
03C4  01                 const type 3
03C5  16367F76           const [26]: (1988048406)
03C9  01                 const type 3
03CA  FFF9DE4C           const [27]: (1289681407)
03CE  01                 const type 3
03CF  EA911120           const [28]: (538022378)
                         * functions:
03D3  00                 sizep (0)
                         * lines:
03D4  7F                 sizelineinfo (127)
                         [pc] (line)
03D5  0D                 [001] (13)
03D6  00                 [002] (13)
03D7  00                 [003] (14)
03D8  00                 [004] (14)
03D9  0D                 [005] (15)
03DA  00                 [006] (15)
03DB  00                 [007] (17)
03DC  00                 [008] (17)
03DD  0E                 [009] (18)
03DE  00                 [010] (18)
03DF  00                 [011] (18)
03E0  00                 [012] (18)
03E1  0E                 [013] (18)
03E2  00                 [014] (18)
03E3  00                 [015] (18)
03E4  00                 [016] (18)
03E5  0F                 [017] (18)
03E6  00                 [018] (18)
03E7  00                 [019] (19)
03E8  00                 [020] (19)
03E9  0F                 [021] (19)
03EA  00                 [022] (20)
03EB  00                 [023] (20)
03EC  00                 [024] (21)
03ED  11                 [025] (21)
03EE  00                 [026] (21)
03EF  00                 [027] (21)
03F0  00                 [028] (22)
03F1  11                 [029] (22)
03F2  00                 [030] (22)
03F3  00                 [031] (22)
03F4  00                 [032] (22)
03F5  12                 [033] (22)
03F6  00                 [034] (23)
03F7  00                 [035] (23)
03F8  00                 [036] (23)
03F9  12                 [037] (23)
03FA  00                 [038] (24)
03FB  00                 [039] (24)
03FC  00                 [040] (25)
03FD  12                 [041] (25)
03FE  00                 [042] (25)
03FF  00                 [043] (25)
0400  00                 [044] (25)
0401  12                 [045] (25)
0402  00                 [046] (26)
0403  00                 [047] (26)
0404  00                 [048] (26)
0405  12                 [049] (26)
0406  00                 [050] (26)
0407  00                 [051] (28)
0408  00                 [052] (30)
0409  12                 [053] (32)
040A  00                 [054] (32)
040B  00                 [055] (32)
040C  00                 [056] (32)
040D  12                 [057] (32)
040E  00                 [058] (33)
040F  00                 [059] (33)
0410  00                 [060] (33)
0411  12                 [061] (33)
0412  00                 [062] (33)
0413  00                 [063] (38)
0414  00                 [064] (39)
0415  12                 [065] (39)
0416  00                 [066] (39)
0417  00                 [067] (40)
0418  00                 [068] (40)
0419  12                 [069] (40)
041A  00                 [070] (40)
041B  00                 [071] (40)
041C  00                 [072] (40)
041D  13                 [073] (40)
041E  00                 [074] (40)
041F  00                 [075] (40)
0420  00                 [076] (40)
0421  13                 [077] (42)
0422  00                 [078] (42)
0423  00                 [079] (42)
0424  00                 [080] (44)
0425  13                 [081] (44)
0426  00                 [082] (44)
0427  00                 [083] (44)
0428  00                 [084] (44)
0429  14                 [085] (44)
042A  00                 [086] (44)
042B  00                 [087] (45)
042C  00                 [088] (45)
042D  14                 [089] (45)
042E  00                 [090] (45)
042F  00                 [091] (45)
0430  00                 [092] (45)
0431  15                 [093] (45)
0432  00                 [094] (46)
0433  00                 [095] (46)
0434  00                 [096] (46)
0435  15                 [097] (46)
0436  00                 [098] (46)
0437  00                 [099] (46)
0438  00                 [100] (46)
0439  15                 [101] (48)
043A  00                 [102] (48)
043B  00                 [103] (48)
043C  00                 [104] (48)
043D  15                 [105] (48)
043E  00                 [106] (48)
043F  00                 [107] (48)
0440  00                 [108] (48)
0441  16                 [109] (48)
0442  00                 [110] (48)
0443  00                 [111] (48)
0444  00                 [112] (48)
0445  16                 [113] (48)
0446  00                 [114] (48)
0447  00                 [115] (48)
0448  00                 [116] (51)
0449  16                 [117] (51)
044A  00                 [118] (51)
044B  00                 [119] (52)
044C  00                 [120] (52)
044D  16                 [121] (52)
044E  00                 [122] (52)
044F  00                 [123] (55)
0450  00                 [124] (55)
0451  16                 [125] (55)
0452  00                 [126] (55)
0453  00                 [127] (56)
                         * locals:
05D1  00                 sizelocvars (0)
                         * upvalues:
05D2  00                 sizeupvalues (0)
                         ** end of function **

                         * lines:
05D3  12                 sizelineinfo (18)
                         [pc] (line)
05D4  05                 [01] (5)
05D5  00                 [02] (5)
05D6  00                 [03] (5)
05D7  00                 [04] (7)
05D8  05                 [05] (7)
05D9  00                 [06] (7)
05DA  00                 [07] (8)
05DB  00                 [08] (8)
05DC  05                 [09] (8)
05DD  00                 [10] (9)
05DE  00                 [11] (56)
05DF  00                 [12] (56)
05E0  07                 [13] (56)
05E1  00                 [14] (56)
05E2  00                 [15] (56)
05E3  00                 [16] (56)
05E4  07                 [17] (11)
05E5  00                 [18] (56)
                         * locals:
061C  00                 sizelocvars (0)
                         * upvalues:
061D  00                 sizeupvalues (0)
                         ** end of function **

061E                     ** end of chunk **
