1	C:\wlua_dump\path\Lotus\Scripts\EventsNidusReleaseAlchemyChair.lua
Pos   Hex Data           Description or Code
------------------------------------------------------------------------
0000                     ** source chunk: C:\wlua_dump\path\Lotus\Scripts\EventsNidusReleaseAlchemyChair.lua
                         ** global header start **
0000  7F                 header signature: ""
0001  00                 version (major:minor hex digits)
0002  00                 format (0=official)
0003  00                 endianness (1=little endian)
0004  00                 size of int (bytes)
0005  00                 size of size_t (bytes)
0006  02                 size of Instruction (bytes)
0007  0F                 size of number (bytes)
0008  60                 integral (1=integral)
496
                         * number type: single
                         * x86 standard (32-bit, little endian, doubles)
                         ** global header end **
NidusInjectionCin
NidusInjectionCam
/Lotus/Powersuits/Infestation/Infestation
/Lotus/Types/Friendly/Tenno/OperatorHubAvatar
/Lotus/Types/Items/ShipFeatureItems/AlchemyRoomFeatureItem
/Lotus/Characters/Tenno/Infestation/Cyst/InfestationCystCustomizationAttachment
/Lotus/Types/Items/MiscItems/UmbraEchoes
InfestedAlchemy
EmissiveMapAtten
EmRedAtten
EmGreenAtten
Lotus.Interface.LotusUtilities
EnterRoom
CheckForFeature
WarframeInjectedCinFunc
OnUmbraEchoesInstalled
OnInfectedSuitCured
OnSuitInfected
OnFeatureUnlock
ActivateChair
InfestedAlchemyEmissive
gPlayerProfileMgr
_T
CystRemovedFrames
Lotus_Game
LOT_NORMAL
SUIT_SLOT
mItemId
gLotusNpcAvatarType
gPlayerProfileMgr
gRegion
Lotus_Game
LOT_NORMAL
SUIT_SLOT
mInfestationDate
mUmbraDate
chairAction
_T
AlchemyChairActionTextToggled
/Lotus/Language/Actions/RemoveAlchemyChairUmbra
/Lotus/Language/Actions/UseAlchemyChairUmbra
gPlayerProfileMgr
_T
InfestedAlchemyActive
gRegion
_T
umbraEchoesInstalled
removeCystSound
Engine
SP_NO_SUBTITLE
removeCystFx
gPlayerProfileMgr
Lotus_Game
LOT_NORMAL
SUIT_SLOT
CystRemovedFrames
InfestedAlchemyActive
cureTransmission
table
mItemId
transmissions
Failed to install umbra echoes on suit.
_T
umbraEchoesInstalled
Failed to cure suit.
Failed to infect suit.
Failed to unlock alchemy room.
gPlayerProfileMgr
gRegion
Lotus_Game
LOT_NORMAL
SUIT_SLOT
mUmbraDate
inputFilter
StartPlaying
mItemId
OnInfectedSuitCured
OnUmbraEchoesInstalled
StopPlaying
Timed out waiting for infestation to be cured.
OnFeatureUnlock
OnSuitInfected
Timed out waiting for infection/ship feature unlock.
_T
InfestedAlchemyActive
CystRemovedFrames
cancelTransmissions
transmissions
gPlayerProfileMgr
_T
InfestedAlchemyActive
gRegion
                         
0001                     ** function [0] definition (level 1)
                         ** start of function **
0001  00                 string size (0)
                         source name: (none)
0002  00                 line defined (0)
0003  00                 last line defined (0)
0004  00                 nups (0)
0005  00                 numparams (0)
0006  02                 is_vararg (2)
0007  0F                 maxstacksize (15)
                         * code:
0008  60                 sizecode (96)
0009  1D000000           [01] getglobal  0   0        ; -332969190
000D  59400000           [02] loadk      1   1        ; "NidusInjectionCin"
0011  22800001           [03] call       0   2   2  
0015  5D000000           [04] getglobal  1   0        ; -332969190
0019  99800000           [05] loadk      2   2        ; "NidusInjectionCam"
001D  62800001           [06] call       1   2   2  
0021  9DC00000           [07] getglobal  2   3        ; 738251817
0025  D9000100           [08] loadk      3   4        ; "/Lotus/Powersuits/Infestation/Infestation"
0029  A2800001           [09] call       2   2   2  
002D  DDC00000           [10] getglobal  3   3        ; 738251817
0031  19410100           [11] loadk      4   5        ; "/Lotus/Types/Friendly/Tenno/OperatorHubAvatar"
0035  E2800001           [12] call       3   2   2  
0039  1DC10000           [13] getglobal  4   3        ; 738251817
003D  59810100           [14] loadk      5   6        ; "/Lotus/Types/Items/ShipFeatureItems/AlchemyRoomFeatureItem"
0041  22810001           [15] call       4   2   2  
0045  5DC10000           [16] getglobal  5   3        ; 738251817
0049  99C10100           [17] loadk      6   7        ; "/Lotus/Characters/Tenno/Infestation/Cyst/InfestationCystCustomizationAttachment"
004D  62810001           [18] call       5   2   2  
0051  9DC10000           [19] getglobal  6   3        ; 738251817
0055  D9010200           [20] loadk      7   8        ; "/Lotus/Types/Items/MiscItems/UmbraEchoes"
0059  A2810001           [21] call       6   2   2  
005D  DD010000           [22] getglobal  7   0        ; -332969190
0061  19420200           [23] loadk      8   9        ; "InfestedAlchemy"
0065  E2810001           [24] call       7   2   2  
0069  0B020001           [25] newtable   8   2   0    ; array=2, hash=0
006D  5D020000           [26] getglobal  9   0        ; -332969190
0071  99820200           [27] loadk      10  10       ; "EmissiveMapAtten"
0075  62820001           [28] call       9   2   2  
0079  9D020000           [29] getglobal  10  0        ; -332969190
007D  D9C20200           [30] loadk      11  11       ; "EmRedAtten"
0081  A2820001           [31] call       10  2   2  
0085  DD020000           [32] getglobal  11  0        ; -332969190
0089  19030300           [33] loadk      12  12       ; "EmGreenAtten"
008D  E2020001           [34] call       11  2   0  
0091  1B420000           [35] setlist    8   0   1    ; index 1 to top
0095  57020000           [36] loadbool   9   0   0    ; false
0099  97020000           [37] loadbool   10  0   0    ; false
009D  D7020000           [38] loadbool   11  0   0    ; false
00A1  1D430300           [39] getglobal  12  13       ; 849075268
00A5  59830300           [40] loadk      13  14       ; "Lotus.Interface.LotusUtilities"
00A9  22830001           [41] call       12  2   2  
00AD  65030000           [42] closure    13  0      
00B1  A5430000           [43] closure    14  1      
00B5  12008006           [44] move       0   13     
00B9  12000006           [45] move       0   12     
00BD  12000003           [46] move       0   6      
00C1  12000001           [47] move       0   2      
00C5  12000002           [48] move       0   4      
00C9  12008001           [49] move       0   3      
00CD  A0C30300           [50] setglobal  14  15       ; EnterRoom
00D1  A0030400           [51] setglobal  14  16       ; -1039767664
00D5  A5830000           [52] closure    14  2      
00D9  12000002           [53] move       0   4      
00DD  A0430400           [54] setglobal  14  17       ; CheckForFeature
00E1  A0830400           [55] setglobal  14  18       ; 1326912923
00E5  A5C30000           [56] closure    14  3      
00E9  12008002           [57] move       0   5      
00ED  12008006           [58] move       0   13     
00F1  12000006           [59] move       0   12     
00F5  A0C30400           [60] setglobal  14  19       ; WarframeInjectedCinFunc
00F9  A0030500           [61] setglobal  14  20       ; 2127484023
00FD  A5030100           [62] closure    14  4      
0101  12008004           [63] move       0   9      
0105  A0430500           [64] setglobal  14  21       ; OnUmbraEchoesInstalled
0109  A0830500           [65] setglobal  14  22       ; 150200715
010D  A5430100           [66] closure    14  5      
0111  12008004           [67] move       0   9      
0115  A0C30500           [68] setglobal  14  23       ; OnInfectedSuitCured
0119  A0030600           [69] setglobal  14  24       ; -136994703
011D  A5830100           [70] closure    14  6      
0121  12000005           [71] move       0   10     
0125  A0430600           [72] setglobal  14  25       ; OnSuitInfected
0129  A0830600           [73] setglobal  14  26       ; -1532404626
012D  A5C30100           [74] closure    14  7      
0131  12008005           [75] move       0   11     
0135  A0C30600           [76] setglobal  14  27       ; OnFeatureUnlock
0139  A0030700           [77] setglobal  14  28       ; 541485531
013D  A5030200           [78] closure    14  8      
0141  12000002           [79] move       0   4      
0145  12000006           [80] move       0   12     
0149  12008006           [81] move       0   13     
014D  12000003           [82] move       0   6      
0151  12000001           [83] move       0   2      
0155  12000000           [84] move       0   0      
0159  12008000           [85] move       0   1      
015D  12008004           [86] move       0   9      
0161  12008005           [87] move       0   11     
0165  12000005           [88] move       0   10     
0169  A0430700           [89] setglobal  14  29       ; ActivateChair
016D  A0830700           [90] setglobal  14  30       ; 1786465306
0171  A5430200           [91] closure    14  9      
0175  12008003           [92] move       0   7      
0179  12000004           [93] move       0   8      
017D  A0C30700           [94] setglobal  14  31       ; InfestedAlchemyEmissive
0181  A0030800           [95] setglobal  14  32       ; -1919898675
0185  1E008000           [96] return     0   1      
                         * constants:
0189  21                 sizek (33)
018A  01                 const type 3
018B  1A4B27EC           const [0]: (-332969190)
018F  04                 const type 4
0190  12                 string size (18)
0191  4E69647573496E6A+  "NidusInj"
0199  656374696F6E4369+  "ectionCi"
01A1  6E00               "n\0"
                         const [1]: "NidusInjectionCin"
01A3  04                 const type 4
01A4  12                 string size (18)
01A5  4E69647573496E6A+  "NidusInj"
01AD  656374696F6E4361+  "ectionCa"
01B5  6D00               "m\0"
                         const [2]: "NidusInjectionCam"
01B7  01                 const type 3
01B8  29D4002C           const [3]: (738251817)
01BC  04                 const type 4
01BD  2A                 string size (42)
01BE  2F4C6F7475732F50+  "/Lotus/P"
01C6  6F77657273756974+  "owersuit"
01CE  732F496E66657374+  "s/Infest"
01D6  6174696F6E2F496E+  "ation/In"
01DE  666573746174696F+  "festatio"
01E6  6E00               "n\0"
                         const [4]: "/Lotus/Powersuits/Infestation/Infestation"
01E8  04                 const type 4
01E9  2E                 string size (46)
01EA  2F4C6F7475732F54+  "/Lotus/T"
01F2  797065732F467269+  "ypes/Fri"
01FA  656E646C792F5465+  "endly/Te"
0202  6E6E6F2F4F706572+  "nno/Oper"
020A  61746F7248756241+  "atorHubA"
0212  766174617200       "vatar\0"
                         const [5]: "/Lotus/Types/Friendly/Tenno/OperatorHubAvatar"
0218  04                 const type 4
0219  3B                 string size (59)
021A  2F4C6F7475732F54+  "/Lotus/T"
0222  797065732F497465+  "ypes/Ite"
022A  6D732F5368697046+  "ms/ShipF"
0232  6561747572654974+  "eatureIt"
023A  656D732F416C6368+  "ems/Alch"
0242  656D79526F6F6D46+  "emyRoomF"
024A  6561747572654974+  "eatureIt"
0252  656D00             "em\0"
                         const [6]: "/Lotus/Types/Items/ShipFeatureItems/AlchemyRoomFeatureItem"
0255  04                 const type 4
0256  50                 string size (80)
0257  2F4C6F7475732F43+  "/Lotus/C"
025F  6861726163746572+  "haracter"
0267  732F54656E6E6F2F+  "s/Tenno/"
026F  496E666573746174+  "Infestat"
0277  696F6E2F43797374+  "ion/Cyst"
027F  2F496E6665737461+  "/Infesta"
0287  74696F6E43797374+  "tionCyst"
028F  437573746F6D697A+  "Customiz"
0297  6174696F6E417474+  "ationAtt"
029F  6163686D656E7400   "achment\0"
                         const [7]: "/Lotus/Characters/Tenno/Infestation/Cyst/InfestationCystCustomizationAttachment"
02A7  04                 const type 4
02A8  29                 string size (41)
02A9  2F4C6F7475732F54+  "/Lotus/T"
02B1  797065732F497465+  "ypes/Ite"
02B9  6D732F4D69736349+  "ms/MiscI"
02C1  74656D732F556D62+  "tems/Umb"
02C9  72614563686F6573+  "raEchoes"
02D1  00                 "\0"
                         const [8]: "/Lotus/Types/Items/MiscItems/UmbraEchoes"
02D2  04                 const type 4
02D3  10                 string size (16)
02D4  496E666573746564+  "Infested"
02DC  416C6368656D7900   "Alchemy\0"
                         const [9]: "InfestedAlchemy"
02E4  04                 const type 4
02E5  11                 string size (17)
02E6  456D697373697665+  "Emissive"
02EE  4D6170417474656E+  "MapAtten"
02F6  00                 "\0"
                         const [10]: "EmissiveMapAtten"
02F7  04                 const type 4
02F8  0B                 string size (11)
02F9  456D526564417474+  "EmRedAtt"
0301  656E00             "en\0"
                         const [11]: "EmRedAtten"
0304  04                 const type 4
0305  0D                 string size (13)
0306  456D477265656E41+  "EmGreenA"
030E  7474656E00         "tten\0"
                         const [12]: "EmGreenAtten"
0313  01                 const type 3
0314  44DC9B32           const [13]: (849075268)
0318  04                 const type 4
0319  1F                 string size (31)
031A  4C6F7475732E496E+  "Lotus.In"
0322  746572666163652E+  "terface."
032A  4C6F747573557469+  "LotusUti"
0332  6C697469657300     "lities\0"
                         const [14]: "Lotus.Interface.LotusUtilities"
0339  04                 const type 4
033A  0A                 string size (10)
033B  456E746572526F6F+  "EnterRoo"
0343  6D00               "m\0"
                         const [15]: "EnterRoom"
0345  01                 const type 3
0346  906706C2           const [16]: (-1039767664)
034A  04                 const type 4
034B  10                 string size (16)
034C  436865636B466F72+  "CheckFor"
0354  4665617475726500   "Feature\0"
                         const [17]: "CheckForFeature"
035C  01                 const type 3
035D  9B15174F           const [18]: (1326912923)
0361  04                 const type 4
0362  18                 string size (24)
0363  5761726672616D65+  "Warframe"
036B  496E6A6563746564+  "Injected"
0373  43696E46756E6300   "CinFunc\0"
                         const [19]: "WarframeInjectedCinFunc"
037B  01                 const type 3
037C  77D4CE7E           const [20]: (2127484023)
0380  04                 const type 4
0381  17                 string size (23)
0382  4F6E556D62726145+  "OnUmbraE"
038A  63686F6573496E73+  "choesIns"
0392  74616C6C656400     "talled\0"
                         const [21]: "OnUmbraEchoesInstalled"
0399  01                 const type 3
039A  8BE1F308           const [22]: (150200715)
039E  04                 const type 4
039F  14                 string size (20)
03A0  4F6E496E66656374+  "OnInfect"
03A8  6564537569744375+  "edSuitCu"
03B0  72656400           "red\0"
                         const [23]: "OnInfectedSuitCured"
03B4  01                 const type 3
03B5  71A0D5F7           const [24]: (-136994703)
03B9  04                 const type 4
03BA  0F                 string size (15)
03BB  4F6E53756974496E+  "OnSuitIn"
03C3  66656374656400     "fected\0"
                         const [25]: "OnSuitInfected"
03CA  01                 const type 3
03CB  6E5CA9A4           const [26]: (-1532404626)
03CF  04                 const type 4
03D0  10                 string size (16)
03D1  4F6E466561747572+  "OnFeatur"
03D9  65556E6C6F636B00   "eUnlock\0"
                         const [27]: "OnFeatureUnlock"
03E1  01                 const type 3
03E2  DB694620           const [28]: (541485531)
03E6  04                 const type 4
03E7  0E                 string size (14)
03E8  4163746976617465+  "Activate"
03F0  436861697200       "Chair\0"
                         const [29]: "ActivateChair"
03F6  01                 const type 3
03F7  1A4C7B6A           const [30]: (1786465306)
03FB  04                 const type 4
03FC  18                 string size (24)
03FD  496E666573746564+  "Infested"
0405  416C6368656D7945+  "AlchemyE"
040D  6D69737369766500   "missive\0"
                         const [31]: "InfestedAlchemyEmissive"
0415  01                 const type 3
0416  CDAB908D           const [32]: (-1919898675)
                         * functions:
041A  0A                 sizep (10)
                         
041B                     ** function [0] definition (level 2)
                         ** start of function **
041B  00                 string size (0)
                         source name: (none)
041C  1E                 line defined (30)
041D  30                 last line defined (48)
041E  00                 nups (0)
041F  01                 numparams (1)
0420  00                 is_vararg (0)
0421  08                 maxstacksize (8)
                         * code:
0422  30                 sizecode (48)
fail op	35
0423  23004000           [01] close      0  
0427  1A400380           [02] jmp        14           ; to [17]
042B  5D400000           [03] getglobal  1   1        ; gPlayerProfileMgr
042F  6480C000           [04] self       1   1   258  ; 569342746
0433  D9C00000           [05] loadk      3   3        ; 0
0437  62808001           [06] call       1   3   2  
043B  9D000100           [07] getglobal  2   4        ; 1074689893
043F  D2008000           [08] move       3   1      
0443  A2800001           [09] call       2   2   2  
0447  98000000           [10] test       2       0    ; to [12] if true
044B  1A400080           [11] jmp        2            ; to [14]
044F  97000000           [12] loadbool   2   0   0    ; false
0453  9E000001           [13] return     2   2      
0457  A440C100           [14] self       2   1   261  ; 1699680402
045B  A2800001           [15] call       2   2   2  
045F  12000001           [16] move       0   2      
0463  9D800100           [17] getglobal  2   6        ; _T
0467  8EC04101           [18] gettable   2   2   263  ; "CystRemovedFrames"
fail op	35
046B  63004001           [19] close      1  
046F  1A000680           [20] jmp        25           ; to [46]
0473  A4004200           [21] self       2   0   264  ; 51109503
0477  A2800001           [22] call       2   2   2  
047B  A4404201           [23] self       2   2   265  ; 1644212373
047F  1D810200           [24] getglobal  4   10       ; Lotus_Game
0483  0EC14202           [25] gettable   4   4   267  ; "LOT_NORMAL"
0487  5D810200           [26] getglobal  5   10       ; Lotus_Game
048B  4E01C302           [27] gettable   5   5   268  ; "SUIT_SLOT"
048F  A2800002           [28] call       2   4   2  
0493  8E404301           [29] gettable   2   2   269  ; "mItemId"
0497  A4804301           [30] self       2   2   270  ; 1288286795
049B  A2800001           [31] call       2   2   2  
049F  D9C00300           [32] loadk      3   15       ; 0
04A3  1D810100           [33] getglobal  4   6        ; _T
04A7  0EC14102           [34] gettable   4   4   263  ; "CystRemovedFrames"
04AB  0A010002           [35] len        4   4      
04AF  59C10300           [36] loadk      5   15       ; 0
04B3  D0800180           [37] forprep    3   7        ; to [45]
04B7  DD810100           [38] getglobal  7   6        ; _T
04BB  CEC1C103           [39] gettable   7   7   263  ; "CystRemovedFrames"
04BF  CE818103           [40] gettable   7   7   6  
fail op	35
04C3  23808003           [41] close      0  
04C7  1A400080           [42] jmp        2            ; to [45]
04CB  D7018000           [43] loadbool   7   1   0    ; true
04CF  DE010001           [44] return     7   2      
04D3  D4C0FD7F           [45] forloop    3   -8       ; to [38] if loop
04D7  D7010000           [46] loadbool   7   0   0    ; false
04DB  DE010001           [47] return     7   2      
04DF  1E008000           [48] return     0   1      
                         * constants:
04E3  10                 sizek (16)
04E4  00                 const type 0
                         const [0]: nil
04E5  04                 const type 4
04E6  12                 string size (18)
04E7  67506C6179657250+  "gPlayerP"
04EF  726F66696C654D67+  "rofileMg"
04F7  7200               "r\0"
                         const [1]: "gPlayerProfileMgr"
04F9  01                 const type 3
04FA  1A7BEF21           const [2]: (569342746)
04FE  03                 const type 3
04FF  00000000           const [3]: (0)
0503  01                 const type 3
0504  65770E40           const [4]: (1074689893)
0508  01                 const type 3
0509  92104F65           const [5]: (1699680402)
050D  04                 const type 4
050E  03                 string size (3)
050F  5F5400             "_T\0"
                         const [6]: "_T"
0512  04                 const type 4
0513  12                 string size (18)
0514  4379737452656D6F+  "CystRemo"
051C  7665644672616D65+  "vedFrame"
0524  7300               "s\0"
                         const [7]: "CystRemovedFrames"
0526  01                 const type 3
0527  7FDE0B03           const [8]: (51109503)
052B  01                 const type 3
052C  95B00062           const [9]: (1644212373)
0530  04                 const type 4
0531  0B                 string size (11)
0532  4C6F7475735F4761+  "Lotus_Ga"
053A  6D6500             "me\0"
                         const [10]: "Lotus_Game"
053D  04                 const type 4
053E  0B                 string size (11)
053F  4C4F545F4E4F524D+  "LOT_NORM"
0547  414C00             "AL\0"
                         const [11]: "LOT_NORMAL"
054A  04                 const type 4
054B  0A                 string size (10)
054C  535549545F534C4F+  "SUIT_SLO"
0554  5400               "T\0"
                         const [12]: "SUIT_SLOT"
0556  04                 const type 4
0557  08                 string size (8)
0558  6D4974656D496400   "mItemId\0"
                         const [13]: "mItemId"
0560  01                 const type 3
0561  4BB2C94C           const [14]: (1288286795)
0565  03                 const type 3
0566  0000803F           const [15]: (0)
                         * functions:
056A  00                 sizep (0)
                         * lines:
056B  30                 sizelineinfo (48)
                         [pc] (line)
056C  1F                 [01] (31)
056D  00                 [02] (31)
056E  00                 [03] (32)
056F  00                 [04] (32)
0570  1F                 [05] (32)
0571  00                 [06] (32)
0572  00                 [07] (33)
0573  00                 [08] (33)
0574  20                 [09] (33)
0575  00                 [10] (33)
0576  00                 [11] (33)
0577  00                 [12] (34)
0578  20                 [13] (34)
0579  00                 [14] (36)
057A  00                 [15] (36)
057B  00                 [16] (36)
057C  20                 [17] (39)
057D  00                 [18] (39)
057E  00                 [19] (39)
057F  00                 [20] (39)
0580  20                 [21] (40)
0581  00                 [22] (40)
0582  00                 [23] (40)
0583  00                 [24] (40)
0584  21                 [25] (40)
0585  00                 [26] (40)
0586  00                 [27] (40)
0587  00                 [28] (40)
0588  21                 [29] (40)
0589  00                 [30] (40)
058A  00                 [31] (40)
058B  00                 [32] (41)
058C  21                 [33] (41)
058D  00                 [34] (41)
058E  00                 [35] (41)
058F  00                 [36] (41)
0590  21                 [37] (41)
0591  00                 [38] (42)
0592  00                 [39] (42)
0593  00                 [40] (42)
0594  21                 [41] (42)
0595  00                 [42] (42)
0596  00                 [43] (43)
0597  00                 [44] (43)
0598  22                 [45] (41)
0599  00                 [46] (47)
059A  00                 [47] (47)
059B  00                 [48] (48)
                         * locals:
062C  00                 sizelocvars (0)
                         * upvalues:
062D  00                 sizeupvalues (0)
                         ** end of function **

                         
062E                     ** function [1] definition (level 2)
                         ** start of function **
062E  00                 string size (0)
                         source name: (none)
062F  32                 line defined (50)
0630  5F                 last line defined (95)
0631  06                 nups (6)
0632  01                 numparams (1)
0633  00                 is_vararg (0)
0634  0D                 maxstacksize (13)
                         * code:
0636  01                 sizecode (177)
0637  64004000           [001] self       1   0   256  ; 2082429591
063B  62800001           [002] call       1   2   2  
063F  A440C000           [003] self       2   1   257  ; -1957065004
0643  1D810000           [004] getglobal  4   2        ; gLotusNpcAvatarType
0647  A2808001           [005] call       2   3   2  
064B  98000000           [006] test       2       0    ; to [8] if true
064F  1A000080           [007] jmp        1            ; to [9]
0653  1E008000           [008] return     0   1      
0657  9DC00000           [009] getglobal  2   3        ; gPlayerProfileMgr
065B  A4004101           [010] self       2   2   260  ; 569342746
065F  19410100           [011] loadk      4   5        ; 0
0663  A2808001           [012] call       2   3   2  
0667  DD800100           [013] getglobal  3   6        ; gRegion
066B  E4C0C101           [014] self       3   3   263  ; -1520831144
066F  E2800001           [015] call       3   2   2  
0673  D8000000           [016] test       3       0    ; to [18] if true
0677  1A000180           [017] jmp        5            ; to [23]
067B  DD000200           [018] getglobal  3   8        ; 1074689893
067F  12010001           [019] move       4   2      
0683  E2800001           [020] call       3   2   2  
0687  D8000000           [021] test       3       0    ; to [23] if true
068B  1A000080           [022] jmp        1            ; to [24]
068F  1E008000           [023] return     0   1      
0693  E440C200           [024] self       3   1   265  ; 1309201817
0697  E2800001           [025] call       3   2   2  
069B  D8400000           [026] test       3       1    ; to [28] if false
069F  1A000080           [027] jmp        1            ; to [29]
06A3  1E008000           [028] return     0   1      
06A7  E4804201           [029] self       3   2   266  ; 1699680402
06AB  E2800001           [030] call       3   2   2  
06AF  13010000           [031] getupval   4   0      
06B3  52018001           [032] move       5   3      
06B7  22810001           [033] call       4   2   2  
06BB  53018000           [034] getupval   5   1      
06BF  4EC1C202           [035] gettable   5   5   267  ; -2075390360
06C3  A401C301           [036] self       6   3   268  ; 51109503
06C7  A2010001           [037] call       6   2   0  
06CB  62810000           [038] call       5   0   2  
06CF  A401C301           [039] self       6   3   268  ; 51109503
06D3  A2810001           [040] call       6   2   2  
06D7  A4414303           [041] self       6   6   269  ; 1644212373
06DB  1D820300           [042] getglobal  8   14       ; Lotus_Game
06DF  0EC24304           [043] gettable   8   8   271  ; "LOT_NORMAL"
06E3  5D820300           [044] getglobal  9   14       ; Lotus_Game
06E7  4E02C404           [045] gettable   9   9   272  ; "SUIT_SLOT"
06EB  A2810002           [046] call       6   4   2  
06EF  CE414403           [047] gettable   7   6   273  ; "mInfestationDate"
06F3  2482C401           [048] self       8   3   274  ; 1865287165
06F7  22820001           [049] call       8   2   2  
06FB  24C24404           [050] self       8   8   275  ; 1152082367
06FF  93020001           [051] getupval   10  2      
0703  22828001           [052] call       8   3   2  
0707  18420000           [053] test       8       1    ; to [55] if false
070B  1A800080           [054] jmp        3            ; to [58]
070F  0E024503           [055] gettable   8   6   276  ; "mUmbraDate"
0713  24424504           [056] self       8   8   277  ; 828278287
0717  22820001           [057] call       8   2   2  
071B  6482C500           [058] self       9   1   278  ; -1917464545
071F  62820001           [059] call       9   2   2  
0723  64C2C504           [060] self       9   9   279  ; 1769516121
0727  62820001           [061] call       9   2   2  
072B  9D020200           [062] getglobal  10  8        ; 1074689893
072F  D2028004           [063] move       11  9      
0733  A2820001           [064] call       10  2   2  
0737  98420000           [065] test       10      1    ; to [67] if false
073B  1AC00880           [066] jmp        36           ; to [103]
073F  A442C004           [067] self       10  9   257  ; -1957065004
0743  13038001           [068] getupval   12  3      
0747  A2828001           [069] call       10  3   2  
074B  98020000           [070] test       10      0    ; to [72] if true
074F  1A800780           [071] jmp        31           ; to [103]
0753  A402C601           [072] self       10  3   280  ; -1381110470
0757  13030002           [073] getupval   12  4      
075B  A2828001           [074] call       10  3   2  
075F  98020000           [075] test       10      0    ; to [77] if true
0763  1A000180           [076] jmp        5            ; to [82]
0767  A442C601           [077] self       10  3   281  ; -1269704954
076B  13030002           [078] getupval   12  4      
076F  A2828001           [079] call       10  3   2  
0773  98020000           [080] test       10      0    ; to [82] if true
0777  1AC00080           [081] jmp        4            ; to [86]
077B  A442C503           [082] self       10  7   277  ; 828278287
077F  A2820001           [083] call       10  2   2  
0783  98420000           [084] test       10      1    ; to [86] if false
0787  1A000480           [085] jmp        17           ; to [103]
078B  9D820600           [086] getglobal  10  26       ; chairAction
078F  A4C24605           [087] self       10  10  283  ; -974578778
0793  A2420001           [088] call       10  2   1  
0797  9D820600           [089] getglobal  10  26       ; chairAction
079B  A4024705           [090] self       10  10  284  ; 250836541
079F  12038000           [091] move       12  1      
07A3  A2428001           [092] call       10  3   1  
07A7  9D420700           [093] getglobal  10  29       ; _T
07AB  8E824705           [094] gettable   10  10  286  ; "AlchemyChairActionTextToggled"
07AF  98020000           [095] test       10      0    ; to [97] if true
07B3  1AC01380           [096] jmp        80           ; to [177]
07B7  9D820600           [097] getglobal  10  26       ; chairAction
07BB  A4C24705           [098] self       10  10  287  ; -1406675014
07BF  A2420001           [099] call       10  2   1  
07C3  9D420700           [100] getglobal  10  29       ; _T
07C7  8C02488F           [101] settable   10  286 288  ; "AlchemyChairActionTextToggled" 0
07CB  1A401280           [102] jmp        74           ; to [177]
07CF  A442C000           [103] self       10  1   257  ; -1957065004
07D3  13038002           [104] getupval   12  5      
07D7  A2828001           [105] call       10  3   2  
07DB  98420000           [106] test       10      1    ; to [108] if false
07DF  1A000580           [107] jmp        21           ; to [129]
07E3  18410000           [108] test       4       1    ; to [110] if false
07E7  1A800480           [109] jmp        19           ; to [129]
07EB  58010000           [110] test       5       0    ; to [112] if true
07EF  1A000480           [111] jmp        17           ; to [129]
07F3  9D820600           [112] getglobal  10  26       ; chairAction
07F7  A4C24605           [113] self       10  10  283  ; -974578778
07FB  A2420001           [114] call       10  2   1  
07FF  9D820600           [115] getglobal  10  26       ; chairAction
0803  A4024705           [116] self       10  10  284  ; 250836541
0807  12038000           [117] move       12  1      
080B  A2428001           [118] call       10  3   1  
080F  9D420700           [119] getglobal  10  29       ; _T
0813  8E824705           [120] gettable   10  10  286  ; "AlchemyChairActionTextToggled"
0817  98420000           [121] test       10      1    ; to [123] if false
081B  1A400D80           [122] jmp        54           ; to [177]
081F  9D820600           [123] getglobal  10  26       ; chairAction
0823  A4C24705           [124] self       10  10  287  ; -1406675014
0827  A2420001           [125] call       10  2   1  
082B  9D420700           [126] getglobal  10  29       ; _T
082F  8C42488F           [127] settable   10  286 289  ; "AlchemyChairActionTextToggled" 1
0833  1AC00B80           [128] jmp        48           ; to [177]
0837  A442C000           [129] self       10  1   257  ; -1957065004
083B  13038002           [130] getupval   12  5      
083F  A2828001           [131] call       10  3   2  
0843  98420000           [132] test       10      1    ; to [134] if false
0847  1A800880           [133] jmp        35           ; to [169]
084B  9D020200           [134] getglobal  10  8        ; 1074689893
084F  D2028004           [135] move       11  9      
0853  A2820001           [136] call       10  2   2  
0857  98420000           [137] test       10      1    ; to [139] if false
085B  1A400780           [138] jmp        30           ; to [169]
085F  A482C804           [139] self       10  9   290  ; -343492726
0863  A2820001           [140] call       10  2   2  
0867  98420000           [141] test       10      1    ; to [143] if false
086B  1A400680           [142] jmp        26           ; to [169]
086F  18020000           [143] test       8       0    ; to [145] if true
0873  1AC00580           [144] jmp        24           ; to [169]
0877  9D820600           [145] getglobal  10  26       ; chairAction
087B  A4C24605           [146] self       10  10  283  ; -974578778
087F  A2420001           [147] call       10  2   1  
0883  9D820600           [148] getglobal  10  26       ; chairAction
0887  A4024705           [149] self       10  10  284  ; 250836541
088B  12038000           [150] move       12  1      
088F  A2428001           [151] call       10  3   1  
0893  8E024503           [152] gettable   10  6   276  ; "mUmbraDate"
0897  A4424505           [153] self       10  10  277  ; 828278287
089B  A2820001           [154] call       10  2   2  
089F  98020000           [155] test       10      0    ; to [157] if true
08A3  1A000180           [156] jmp        5            ; to [162]
08A7  9D820600           [157] getglobal  10  26       ; chairAction
08AB  A4C24805           [158] self       10  10  291  ; 552913567
08AF  19030900           [159] loadk      12  36       ; "/Lotus/Language/Actions/RemoveAlchemyChairUmbra"
08B3  A2428001           [160] call       10  3   1  
08B7  1AC00080           [161] jmp        4            ; to [166]
08BB  9D820600           [162] getglobal  10  26       ; chairAction
08BF  A4C24805           [163] self       10  10  291  ; 552913567
08C3  19430900           [164] loadk      12  37       ; "/Lotus/Language/Actions/UseAlchemyChairUmbra"
08C7  A2428001           [165] call       10  3   1  
08CB  9D420700           [166] getglobal  10  29       ; _T
08CF  8C42488F           [167] settable   10  286 289  ; "AlchemyChairActionTextToggled" 1
08D3  1AC00180           [168] jmp        8            ; to [177]
08D7  A442C000           [169] self       10  1   257  ; -1957065004
08DB  13038002           [170] getupval   12  5      
08DF  A2828001           [171] call       10  3   2  
08E3  98420000           [172] test       10      1    ; to [174] if false
08E7  1A800080           [173] jmp        3            ; to [177]
08EB  9D820600           [174] getglobal  10  26       ; chairAction
08EF  A4824905           [175] self       10  10  294  ; 766584623
08F3  A2420001           [176] call       10  2   1  
08F7  1E008000           [177] return     0   1      
                         * constants:
08FB  27                 sizek (39)
08FC  01                 const type 3
08FD  975A1F7C           const [0]: (2082429591)
0901  01                 const type 3
0902  D48E598B           const [1]: (-1957065004)
0906  04                 const type 4
0907  14                 string size (20)
0908  674C6F7475734E70+  "gLotusNp"
0910  6341766174617254+  "cAvatarT"
0918  79706500           "ype\0"
                         const [2]: "gLotusNpcAvatarType"
091C  04                 const type 4
091D  12                 string size (18)
091E  67506C6179657250+  "gPlayerP"
0926  726F66696C654D67+  "rofileMg"
092E  7200               "r\0"
                         const [3]: "gPlayerProfileMgr"
0930  01                 const type 3
0931  1A7BEF21           const [4]: (569342746)
0935  03                 const type 3
0936  00000000           const [5]: (0)
093A  04                 const type 4
093B  08                 string size (8)
093C  67526567696F6E00   "gRegion\0"
                         const [6]: "gRegion"
0944  01                 const type 3
0945  58F559A5           const [7]: (-1520831144)
0949  01                 const type 3
094A  65770E40           const [8]: (1074689893)
094E  01                 const type 3
094F  99D5084E           const [9]: (1309201817)
0953  01                 const type 3
0954  92104F65           const [10]: (1699680402)
0958  01                 const type 3
0959  680E4C84           const [11]: (-2075390360)
095D  01                 const type 3
095E  7FDE0B03           const [12]: (51109503)
0962  01                 const type 3
0963  95B00062           const [13]: (1644212373)
0967  04                 const type 4
0968  0B                 string size (11)
0969  4C6F7475735F4761+  "Lotus_Ga"
0971  6D6500             "me\0"
                         const [14]: "Lotus_Game"
0974  04                 const type 4
0975  0B                 string size (11)
0976  4C4F545F4E4F524D+  "LOT_NORM"
097E  414C00             "AL\0"
                         const [15]: "LOT_NORMAL"
0981  04                 const type 4
0982  0A                 string size (10)
0983  535549545F534C4F+  "SUIT_SLO"
098B  5400               "T\0"
                         const [16]: "SUIT_SLOT"
098D  04                 const type 4
098E  11                 string size (17)
098F  6D496E6665737461+  "mInfesta"
0997  74696F6E44617465+  "tionDate"
099F  00                 "\0"
                         const [17]: "mInfestationDate"
09A0  01                 const type 3
09A1  FD052E6F           const [18]: (1865287165)
09A5  01                 const type 3
09A6  BF61AB44           const [19]: (1152082367)
09AA  04                 const type 4
09AB  0B                 string size (11)
09AC  6D556D6272614461+  "mUmbraDa"
09B4  746500             "te\0"
                         const [20]: "mUmbraDate"
09B7  01                 const type 3
09B8  0F865E31           const [21]: (828278287)
09BC  01                 const type 3
09BD  1FD0B58D           const [22]: (-1917464545)
09C1  01                 const type 3
09C2  59AC7869           const [23]: (1769516121)
09C6  01                 const type 3
09C7  3AEDADAD           const [24]: (-1381110470)
09CB  01                 const type 3
09CC  06D751B4           const [25]: (-1269704954)
09D0  04                 const type 4
09D1  0C                 string size (12)
09D2  6368616972416374+  "chairAct"
09DA  696F6E00           "ion\0"
                         const [26]: "chairAction"
09DE  01                 const type 3
09DF  A61BE9C5           const [27]: (-974578778)
09E3  01                 const type 3
09E4  3D76F30E           const [28]: (250836541)
09E8  04                 const type 4
09E9  03                 string size (3)
09EA  5F5400             "_T\0"
                         const [29]: "_T"
09ED  04                 const type 4
09EE  1E                 string size (30)
09EF  416C6368656D7943+  "AlchemyC"
09F7  6861697241637469+  "hairActi"
09FF  6F6E54657874546F+  "onTextTo"
0A07  67676C656400       "ggled\0"
                         const [30]: "AlchemyChairActionTextToggled"
0A0D  01                 const type 3
0A0E  BAD727AC           const [31]: (-1406675014)
0A12  01                 const type 3
0A13  00000000           const [32]: (0)
0A17  01                 const type 3
0A18  01000000           const [33]: (1)
0A1C  01                 const type 3
0A1D  8AB786EB           const [34]: (-343492726)
0A21  01                 const type 3
0A22  9FCAF420           const [35]: (552913567)
0A26  04                 const type 4
0A27  30                 string size (48)
0A28  2F4C6F7475732F4C+  "/Lotus/L"
0A30  616E67756167652F+  "anguage/"
0A38  416374696F6E732F+  "Actions/"
0A40  52656D6F7665416C+  "RemoveAl"
0A48  6368656D79436861+  "chemyCha"
0A50  6972556D62726100   "irUmbra\0"
                         const [36]: "/Lotus/Language/Actions/RemoveAlchemyChairUmbra"
0A58  04                 const type 4
0A59  2D                 string size (45)
0A5A  2F4C6F7475732F4C+  "/Lotus/L"
0A62  616E67756167652F+  "anguage/"
0A6A  416374696F6E732F+  "Actions/"
0A72  557365416C636865+  "UseAlche"
0A7A  6D79436861697255+  "myChairU"
0A82  6D62726100         "mbra\0"
                         const [37]: "/Lotus/Language/Actions/UseAlchemyChairUmbra"
0A87  01                 const type 3
0A88  2F27B12D           const [38]: (766584623)
                         * functions:
0A8C  00                 sizep (0)
                         * lines:
0A8E  01                 sizelineinfo (177)
                         [pc] (line)
0A8F  33                 [001] (51)
0A90  00                 [002] (51)
0A91  00                 [003] (52)
0A92  00                 [004] (52)
0A93  33                 [005] (52)
0A94  00                 [006] (52)
0A95  00                 [007] (52)
0A96  00                 [008] (53)
0A97  34                 [009] (55)
0A98  00                 [010] (55)
0A99  00                 [011] (55)
0A9A  00                 [012] (55)
0A9B  34                 [013] (56)
0A9C  00                 [014] (56)
0A9D  00                 [015] (56)
0A9E  00                 [016] (56)
0A9F  34                 [017] (56)
0AA0  00                 [018] (56)
0AA1  00                 [019] (56)
0AA2  00                 [020] (56)
0AA3  34                 [021] (56)
0AA4  00                 [022] (56)
0AA5  00                 [023] (57)
0AA6  00                 [024] (59)
0AA7  34                 [025] (59)
0AA8  00                 [026] (59)
0AA9  00                 [027] (59)
0AAA  00                 [028] (60)
0AAB  35                 [029] (62)
0AAC  00                 [030] (62)
0AAD  00                 [031] (63)
0AAE  00                 [032] (63)
0AAF  37                 [033] (63)
0AB0  00                 [034] (64)
0AB1  00                 [035] (64)
0AB2  00                 [036] (64)
0AB3  37                 [037] (64)
0AB4  00                 [038] (64)
0AB5  00                 [039] (65)
0AB6  00                 [040] (65)
0AB7  37                 [041] (65)
0AB8  00                 [042] (65)
0AB9  00                 [043] (65)
0ABA  00                 [044] (65)
0ABB  37                 [045] (65)
0ABC  00                 [046] (65)
0ABD  00                 [047] (66)
0ABE  00                 [048] (67)
0ABF  38                 [049] (67)
0AC0  00                 [050] (67)
0AC1  00                 [051] (67)
0AC2  00                 [052] (67)
0AC3  38                 [053] (67)
0AC4  00                 [054] (67)
0AC5  00                 [055] (67)
0AC6  00                 [056] (67)
0AC7  38                 [057] (67)
0AC8  00                 [058] (68)
0AC9  00                 [059] (68)
0ACA  00                 [060] (68)
0ACB  38                 [061] (68)
0ACC  00                 [062] (69)
0ACD  00                 [063] (69)
0ACE  00                 [064] (69)
0ACF  38                 [065] (69)
0AD0  00                 [066] (69)
0AD1  00                 [067] (69)
0AD2  00                 [068] (69)
0AD3  38                 [069] (69)
0AD4  00                 [070] (69)
0AD5  00                 [071] (69)
0AD6  00                 [072] (69)
0AD7  38                 [073] (69)
0AD8  00                 [074] (69)
0AD9  00                 [075] (69)
0ADA  00                 [076] (69)
0ADB  38                 [077] (69)
0ADC  00                 [078] (69)
0ADD  00                 [079] (69)
0ADE  00                 [080] (69)
0ADF  38                 [081] (69)
0AE0  00                 [082] (69)
0AE1  00                 [083] (69)
0AE2  00                 [084] (69)
0AE3  38                 [085] (69)
0AE4  00                 [086] (70)
0AE5  00                 [087] (70)
0AE6  00                 [088] (70)
0AE7  39                 [089] (71)
0AE8  00                 [090] (71)
0AE9  00                 [091] (71)
0AEA  00                 [092] (71)
0AEB  3B                 [093] (72)
0AEC  00                 [094] (72)
0AED  00                 [095] (72)
0AEE  00                 [096] (72)
0AEF  3B                 [097] (73)
0AF0  00                 [098] (73)
0AF1  00                 [099] (73)
0AF2  00                 [100] (74)
0AF3  3B                 [101] (74)
0AF4  00                 [102] (75)
0AF5  00                 [103] (76)
0AF6  00                 [104] (76)
0AF7  3B                 [105] (76)
0AF8  00                 [106] (76)
0AF9  00                 [107] (76)
0AFA  00                 [108] (76)
0AFB  3C                 [109] (76)
0AFC  00                 [110] (76)
0AFD  00                 [111] (76)
0AFE  00                 [112] (77)
0AFF  3E                 [113] (77)
0B00  00                 [114] (77)
0B01  00                 [115] (78)
0B02  00                 [116] (78)
0B03  3E                 [117] (78)
0B04  00                 [118] (78)
0B05  00                 [119] (79)
0B06  00                 [120] (79)
0B07  3F                 [121] (79)
0B08  00                 [122] (79)
0B09  00                 [123] (80)
0B0A  00                 [124] (80)
0B0B  3F                 [125] (80)
0B0C  00                 [126] (81)
0B0D  00                 [127] (81)
0B0E  00                 [128] (82)
0B0F  3F                 [129] (83)
0B10  00                 [130] (83)
0B11  00                 [131] (83)
0B12  00                 [132] (83)
0B13  40                 [133] (83)
0B14  00                 [134] (83)
0B15  00                 [135] (83)
0B16  00                 [136] (83)
0B17  40                 [137] (83)
0B18  00                 [138] (83)
0B19  00                 [139] (83)
0B1A  00                 [140] (83)
0B1B  40                 [141] (83)
0B1C  00                 [142] (83)
0B1D  00                 [143] (83)
0B1E  00                 [144] (83)
0B1F  40                 [145] (84)
0B20  00                 [146] (84)
0B21  00                 [147] (84)
0B22  00                 [148] (85)
0B23  40                 [149] (85)
0B24  00                 [150] (85)
0B25  00                 [151] (85)
0B26  00                 [152] (86)
0B27  41                 [153] (86)
0B28  00                 [154] (86)
0B29  00                 [155] (86)
0B2A  00                 [156] (86)
0B2B  41                 [157] (87)
0B2C  00                 [158] (87)
0B2D  00                 [159] (87)
0B2E  00                 [160] (87)
0B2F  41                 [161] (87)
0B30  00                 [162] (89)
0B31  00                 [163] (89)
0B32  00                 [164] (89)
0B33  41                 [165] (89)
0B34  00                 [166] (91)
0B35  00                 [167] (91)
0B36  00                 [168] (91)
0B37  41                 [169] (92)
0B38  00                 [170] (92)
0B39  00                 [171] (92)
0B3A  00                 [172] (92)
0B3B  41                 [173] (92)
0B3C  00                 [174] (93)
0B3D  00                 [175] (93)
0B3E  00                 [176] (93)
0B3F  41                 [177] (95)
                         * locals:
0D53  00                 sizelocvars (0)
                         * upvalues:
0D54  00                 sizeupvalues (0)
                         ** end of function **

                         
0D55                     ** function [2] definition (level 2)
                         ** start of function **
0D55  00                 string size (0)
                         source name: (none)
0D56  61                 line defined (97)
0D57  6D                 last line defined (109)
0D58  01                 nups (1)
0D59  00                 numparams (0)
0D5A  00                 is_vararg (0)
0D5B  05                 maxstacksize (5)
                         * code:
0D5C  1D                 sizecode (29)
0D5D  1D000000           [01] getglobal  0   0        ; gPlayerProfileMgr
0D61  24404000           [02] self       0   0   257  ; 853032131
0D65  22800001           [03] call       0   2   2  
0D69  18400000           [04] test       0       1    ; to [6] if false
0D6D  1AC00080           [05] jmp        4            ; to [10]
0D71  1D800000           [06] getglobal  0   2        ; 538022378
0D75  59C00000           [07] loadk      1   3        ; 0
0D79  22400001           [08] call       0   2   1  
0D7D  1A80FD7F           [09] jmp        -9           ; to [1]
0D81  1D000000           [10] getglobal  0   0        ; gPlayerProfileMgr
0D85  24004100           [11] self       0   0   260  ; 569342746
0D89  99C00000           [12] loadk      2   3        ; 0
0D8D  22808001           [13] call       0   3   2  
0D91  5D400100           [14] getglobal  1   5        ; 1074689893
0D95  92000000           [15] move       2   0      
0D99  62800001           [16] call       1   2   2  
0D9D  58000000           [17] test       1       0    ; to [19] if true
0DA1  1A000080           [18] jmp        1            ; to [20]
0DA5  1E008000           [19] return     0   1      
0DA9  64804100           [20] self       1   0   262  ; 1699680402
0DAD  62800001           [21] call       1   2   2  
0DB1  A4C0C100           [22] self       2   1   263  ; -1269704954
0DB5  13010000           [23] getupval   4   0      
0DB9  A2808001           [24] call       2   3   2  
0DBD  98000000           [25] test       2       0    ; to [27] if true
0DC1  1A400080           [26] jmp        2            ; to [29]
0DC5  9D000200           [27] getglobal  2   8        ; _T
0DC9  8C80C284           [28] settable   2   265 266  ; "InfestedAlchemyActive" 1
0DCD  1E008000           [29] return     0   1      
                         * constants:
0DD1  0B                 sizek (11)
0DD2  04                 const type 4
0DD3  12                 string size (18)
0DD4  67506C6179657250+  "gPlayerP"
0DDC  726F66696C654D67+  "rofileMg"
0DE4  7200               "r\0"
                         const [0]: "gPlayerProfileMgr"
0DE6  01                 const type 3
0DE7  C33CD832           const [1]: (853032131)
0DEB  01                 const type 3
0DEC  EA911120           const [2]: (538022378)
0DF0  03                 const type 3
0DF1  00000000           const [3]: (0)
0DF5  01                 const type 3
0DF6  1A7BEF21           const [4]: (569342746)
0DFA  01                 const type 3
0DFB  65770E40           const [5]: (1074689893)
0DFF  01                 const type 3
0E00  92104F65           const [6]: (1699680402)
0E04  01                 const type 3
0E05  06D751B4           const [7]: (-1269704954)
0E09  04                 const type 4
0E0A  03                 string size (3)
0E0B  5F5400             "_T\0"
                         const [8]: "_T"
0E0E  04                 const type 4
0E0F  16                 string size (22)
0E10  496E666573746564+  "Infested"
0E18  416C6368656D7941+  "AlchemyA"
0E20  637469766500       "ctive\0"
                         const [9]: "InfestedAlchemyActive"
0E26  01                 const type 3
0E27  01000000           const [10]: (1)
                         * functions:
0E2B  00                 sizep (0)
                         * lines:
0E2C  1D                 sizelineinfo (29)
                         [pc] (line)
0E2D  62                 [01] (98)
0E2E  00                 [02] (98)
0E2F  00                 [03] (98)
0E30  00                 [04] (98)
0E31  62                 [05] (98)
0E32  00                 [06] (99)
0E33  00                 [07] (99)
0E34  00                 [08] (99)
0E35  62                 [09] (99)
0E36  00                 [10] (101)
0E37  00                 [11] (101)
0E38  00                 [12] (101)
0E39  62                 [13] (101)
0E3A  00                 [14] (102)
0E3B  00                 [15] (102)
0E3C  00                 [16] (102)
0E3D  62                 [17] (102)
0E3E  00                 [18] (102)
0E3F  00                 [19] (103)
0E40  00                 [20] (105)
0E41  63                 [21] (105)
0E42  00                 [22] (106)
0E43  00                 [23] (106)
0E44  00                 [24] (106)
0E45  63                 [25] (106)
0E46  00                 [26] (106)
0E47  00                 [27] (107)
0E48  00                 [28] (107)
0E49  63                 [29] (109)
                         * locals:
0EA1  00                 sizelocvars (0)
                         * upvalues:
0EA2  00                 sizeupvalues (0)
                         ** end of function **

                         
0EA3                     ** function [3] definition (level 2)
                         ** start of function **
0EA3  00                 string size (0)
                         source name: (none)
0EA4  6F                 line defined (111)
0EA5  94                 last line defined (148)
0EA6  01                 nups (3)
0EA7  03                 numparams (0)
0EA8  00                 is_vararg (0)
0EA9  00                 maxstacksize (13)
                         * code:
0EAB  78                 sizecode (120)
0EAC  1D000000           [001] getglobal  0   0        ; gRegion
0EB0  24404000           [002] self       0   0   257  ; 65205951
0EB4  22800001           [003] call       0   2   2  
0EB8  5D800000           [004] getglobal  1   2        ; 1074689893
0EBC  92000000           [005] move       2   0      
0EC0  62800001           [006] call       1   2   2  
0EC4  58000000           [007] test       1       0    ; to [9] if true
0EC8  1A000080           [008] jmp        1            ; to [10]
0ECC  1E008000           [009] return     0   1      
0ED0  5DC00000           [010] getglobal  1   3        ; _T
0ED4  4E00C100           [011] gettable   1   1   260  ; "umbraEchoesInstalled"
0ED8  58000000           [012] test       1       0    ; to [14] if true
0EDC  1A800080           [013] jmp        3            ; to [17]
0EE0  5DC00000           [014] getglobal  1   3        ; _T
0EE4  4C404182           [015] settable   1   260 261  ; "umbraEchoesInstalled" nil
0EE8  1E008000           [016] return     0   1      
0EEC  64804100           [017] self       1   0   262  ; -1625438872
0EF0  D3000000           [018] getupval   3   0      
0EF4  62808001           [019] call       1   3   2  
0EF8  93008000           [020] getupval   2   1      
0EFC  A2808000           [021] call       2   1   2  
0F00  DD800000           [022] getglobal  3   2        ; 1074689893
0F04  12018000           [023] move       4   1      
0F08  E2800001           [024] call       3   2   2  
0F0C  D8400000           [025] test       3       1    ; to [27] if false
0F10  1A401480           [026] jmp        82           ; to [109]
0F14  98400000           [027] test       2       1    ; to [29] if false
0F18  1AC01380           [028] jmp        80           ; to [109]
0F1C  E4C0C100           [029] self       3   1   263  ; 1786666898
0F20  59010200           [030] loadk      5   8        ; 10
0F24  97018000           [031] loadbool   6   1   0    ; true
0F28  E2400002           [032] call       3   4   1  
0F2C  DD800000           [033] getglobal  3   2        ; 1074689893
0F30  1D410200           [034] getglobal  4   9        ; removeCystSound
0F34  E2800001           [035] call       3   2   2  
0F38  D8400000           [036] test       3       1    ; to [38] if false
0F3C  1A800180           [037] jmp        7            ; to [45]
0F40  E480C200           [038] self       3   1   266  ; 630793108
0F44  5D410200           [039] getglobal  5   9        ; removeCystSound
0F48  97010000           [040] loadbool   6   0   0    ; false
0F4C  DDC10200           [041] getglobal  7   11       ; Engine
0F50  CE01C303           [042] gettable   7   7   268  ; "SP_NO_SUBTITLE"
0F54  17020000           [043] loadbool   8   0   0    ; false
0F58  E2400003           [044] call       3   6   1  
0F5C  DD800000           [045] getglobal  3   2        ; 1074689893
0F60  1D410300           [046] getglobal  4   13       ; removeCystFx
0F64  E2800001           [047] call       3   2   2  
0F68  D8400000           [048] test       3       1    ; to [50] if false
0F6C  1A800380           [049] jmp        15           ; to [65]
0F70  DD000000           [050] getglobal  3   0        ; gRegion
0F74  E480C301           [051] self       3   3   270  ; -1110225722
0F78  5D410300           [052] getglobal  5   13       ; removeCystFx
0F7C  A4C1C300           [053] self       6   1   271  ; 1839670529
0F80  A2810001           [054] call       6   2   2  
0F84  DD010400           [055] getglobal  7   16       ; -1359160945
0F88  2442C400           [056] self       8   1   273  ; -231049143
0F8C  22820001           [057] call       8   2   2  
0F90  5D820400           [058] getglobal  9   18       ; 508519041
0F94  99C20400           [059] loadk      10  19       ; 0
0F98  D9020500           [060] loadk      11  20       ; 0
0F9C  19C30400           [061] loadk      12  19       ; 0
0FA0  62020002           [062] call       9   4   0  
0FA4  E2010000           [063] call       7   0   0  
0FA8  E2400000           [064] call       3   0   1  
0FAC  DD400500           [065] getglobal  3   21       ; gPlayerProfileMgr
0FB0  E480C501           [066] self       3   3   278  ; 569342746
0FB4  59C10400           [067] loadk      5   19       ; 0
0FB8  E2808001           [068] call       3   3   2  
0FBC  1D810000           [069] getglobal  4   2        ; 1074689893
0FC0  52018001           [070] move       5   3      
0FC4  22810001           [071] call       4   2   2  
0FC8  18010000           [072] test       4       0    ; to [74] if true
0FCC  1A000080           [073] jmp        1            ; to [75]
0FD0  1E008000           [074] return     0   1      
0FD4  24C1C501           [075] self       4   3   279  ; 1699680402
0FD8  22810001           [076] call       4   2   2  
0FDC  64014602           [077] self       5   4   280  ; 51109503
0FE0  62810001           [078] call       5   2   2  
0FE4  6441C602           [079] self       5   5   281  ; 1644212373
0FE8  DD810600           [080] getglobal  7   26       ; Lotus_Game
0FEC  CEC1C603           [081] gettable   7   7   283  ; "LOT_NORMAL"
0FF0  1D820600           [082] getglobal  8   26       ; Lotus_Game
0FF4  0E024704           [083] gettable   8   8   284  ; "SUIT_SLOT"
0FF8  62810002           [084] call       5   4   2  
0FFC  9DC10000           [085] getglobal  6   3        ; _T
1000  8E414703           [086] gettable   6   6   285  ; "CystRemovedFrames"
fail op	35
1004  23404103           [087] close      0  
1008  1A800280           [088] jmp        11           ; to [100]
100C  9DC10000           [089] getglobal  6   3        ; _T
1010  CB010000           [090] newtable   7   0   0    ; array=0, hash=0
1014  8CC1818E           [091] settable   6   285 7    ; "CystRemovedFrames"
1018  9DC10000           [092] getglobal  6   3        ; _T
101C  8E814703           [093] gettable   6   6   286  ; "InfestedAlchemyActive"
1020  98010000           [094] test       6       0    ; to [96] if true
1024  1AC00080           [095] jmp        4            ; to [100]
1028  93010001           [096] getupval   6   2      
102C  8EC14703           [097] gettable   6   6   287  ; 910246418
1030  DD010800           [098] getglobal  7   32       ; cureTransmission
1034  A2410001           [099] call       6   2   1  
1038  9D410800           [100] getglobal  6   33       ; table
103C  8E814803           [101] gettable   6   6   290  ; -431682403
1040  DDC10000           [102] getglobal  7   3        ; _T
1044  CE41C703           [103] gettable   7   7   285  ; "CystRemovedFrames"
1048  0EC2C802           [104] gettable   8   5   291  ; "mItemId"
104C  24024904           [105] self       8   8   292  ; 1288286795
1050  22020001           [106] call       8   2   0  
1054  A2410000           [107] call       6   0   1  
1058  1A800280           [108] jmp        11           ; to [120]
105C  99410900           [109] loadk      6   37       ; 0
1060  DD810900           [110] getglobal  7   38       ; transmissions
1064  CA018003           [111] len        7   7      
1068  19420900           [112] loadk      8   37       ; 0
106C  90010180           [113] forprep    6   5        ; to [119]
1070  93020001           [114] getupval   10  2      
1074  8EC24705           [115] gettable   10  10  287  ; 910246418
1078  DD820900           [116] getglobal  11  38       ; transmissions
107C  CE428205           [117] gettable   11  11  9  
1080  A2420001           [118] call       10  2   1  
1084  9441FE7F           [119] forloop    6   -6       ; to [114] if loop
1088  1E008000           [120] return     0   1      
                         * constants:
108C  27                 sizek (39)
108D  04                 const type 4
108E  08                 string size (8)
108F  67526567696F6E00   "gRegion\0"
                         const [0]: "gRegion"
1097  01                 const type 3
1098  BFF6E203           const [1]: (65205951)
109C  01                 const type 3
109D  65770E40           const [2]: (1074689893)
10A1  04                 const type 4
10A2  03                 string size (3)
10A3  5F5400             "_T\0"
                         const [3]: "_T"
10A6  04                 const type 4
10A7  15                 string size (21)
10A8  756D627261456368+  "umbraEch"
10B0  6F6573496E737461+  "oesInsta"
10B8  6C6C656400         "lled\0"
                         const [4]: "umbraEchoesInstalled"
10BD  00                 const type 0
                         const [5]: nil
10BE  01                 const type 3
10BF  68C51D9F           const [6]: (-1625438872)
10C3  01                 const type 3
10C4  925F7E6A           const [7]: (1786666898)
10C8  03                 const type 3
10C9  0AD7233C           const [8]: (10)
10CD  04                 const type 4
10CE  10                 string size (16)
10CF  72656D6F76654379+  "removeCy"
10D7  7374536F756E6400   "stSound\0"
                         const [9]: "removeCystSound"
10DF  01                 const type 3
10E0  94239925           const [10]: (630793108)
10E4  04                 const type 4
10E5  07                 string size (7)
10E6  456E67696E6500     "Engine\0"
                         const [11]: "Engine"
10ED  04                 const type 4
10EE  0F                 string size (15)
10EF  53505F4E4F5F5355+  "SP_NO_SU"
10F7  425449544C4500     "BTITLE\0"
                         const [12]: "SP_NO_SUBTITLE"
10FE  04                 const type 4
10FF  0D                 string size (13)
1100  72656D6F76654379+  "removeCy"
1108  7374467800         "stFx\0"
                         const [13]: "removeCystFx"
110D  01                 const type 3
110E  C64CD3BD           const [14]: (-1110225722)
1112  01                 const type 3
1113  0125A76D           const [15]: (1839670529)
1117  01                 const type 3
1118  8FD9FCAE           const [16]: (-1359160945)
111C  01                 const type 3
111D  49783AF2           const [17]: (-231049143)
1121  01                 const type 3
1122  81624F1E           const [18]: (508519041)
1126  03                 const type 3
1127  00000000           const [19]: (0)
112B  03                 const type 3
112C  0000B4C2           const [20]: (0)
1130  04                 const type 4
1131  12                 string size (18)
1132  67506C6179657250+  "gPlayerP"
113A  726F66696C654D67+  "rofileMg"
1142  7200               "r\0"
                         const [21]: "gPlayerProfileMgr"
1144  01                 const type 3
1145  1A7BEF21           const [22]: (569342746)
1149  01                 const type 3
114A  92104F65           const [23]: (1699680402)
114E  01                 const type 3
114F  7FDE0B03           const [24]: (51109503)
1153  01                 const type 3
1154  95B00062           const [25]: (1644212373)
1158  04                 const type 4
1159  0B                 string size (11)
115A  4C6F7475735F4761+  "Lotus_Ga"
1162  6D6500             "me\0"
                         const [26]: "Lotus_Game"
1165  04                 const type 4
1166  0B                 string size (11)
1167  4C4F545F4E4F524D+  "LOT_NORM"
116F  414C00             "AL\0"
                         const [27]: "LOT_NORMAL"
1172  04                 const type 4
1173  0A                 string size (10)
1174  535549545F534C4F+  "SUIT_SLO"
117C  5400               "T\0"
                         const [28]: "SUIT_SLOT"
117E  04                 const type 4
117F  12                 string size (18)
1180  4379737452656D6F+  "CystRemo"
1188  7665644672616D65+  "vedFrame"
1190  7300               "s\0"
                         const [29]: "CystRemovedFrames"
1192  04                 const type 4
1193  16                 string size (22)
1194  496E666573746564+  "Infested"
119C  416C6368656D7941+  "AlchemyA"
11A4  637469766500       "ctive\0"
                         const [30]: "InfestedAlchemyActive"
11AA  01                 const type 3
11AB  12424136           const [31]: (910246418)
11AF  04                 const type 4
11B0  11                 string size (17)
11B1  637572655472616E+  "cureTran"
11B9  736D697373696F6E+  "smission"
11C1  00                 "\0"
                         const [32]: "cureTransmission"
11C2  04                 const type 4
11C3  06                 string size (6)
11C4  7461626C6500       "table\0"
                         const [33]: "table"
11CA  01                 const type 3
11CB  9D0C45E6           const [34]: (-431682403)
11CF  04                 const type 4
11D0  08                 string size (8)
11D1  6D4974656D496400   "mItemId\0"
                         const [35]: "mItemId"
11D9  01                 const type 3
11DA  4BB2C94C           const [36]: (1288286795)
11DE  03                 const type 3
11DF  0000803F           const [37]: (0)
11E3  04                 const type 4
11E4  0E                 string size (14)
11E5  7472616E736D6973+  "transmis"
11ED  73696F6E7300       "sions\0"
                         const [38]: "transmissions"
                         * functions:
11F3  00                 sizep (0)
                         * lines:
11F4  78                 sizelineinfo (120)
                         [pc] (line)
11F5  70                 [001] (112)
11F6  00                 [002] (112)
11F7  00                 [003] (112)
11F8  00                 [004] (113)
11F9  70                 [005] (113)
11FA  00                 [006] (113)
11FB  00                 [007] (113)
11FC  00                 [008] (113)
11FD  70                 [009] (114)
11FE  00                 [010] (116)
11FF  00                 [011] (116)
1200  00                 [012] (116)
1201  71                 [013] (116)
1202  00                 [014] (117)
1203  00                 [015] (117)
1204  00                 [016] (118)
1205  71                 [017] (120)
1206  00                 [018] (120)
1207  00                 [019] (120)
1208  00                 [020] (121)
1209  71                 [021] (121)
120A  00                 [022] (122)
120B  00                 [023] (122)
120C  00                 [024] (122)
120D  71                 [025] (122)
120E  00                 [026] (122)
120F  00                 [027] (122)
1210  00                 [028] (122)
1211  71                 [029] (123)
1212  00                 [030] (123)
1213  00                 [031] (123)
1214  00                 [032] (123)
1215  72                 [033] (124)
1216  00                 [034] (124)
1217  00                 [035] (124)
1218  00                 [036] (124)
1219  74                 [037] (124)
121A  00                 [038] (125)
121B  00                 [039] (125)
121C  00                 [040] (125)
121D  74                 [041] (125)
121E  00                 [042] (125)
121F  00                 [043] (125)
1220  00                 [044] (125)
1221  74                 [045] (127)
1222  00                 [046] (127)
1223  00                 [047] (127)
1224  00                 [048] (127)
1225  74                 [049] (127)
1226  00                 [050] (-128)
1227  00                 [051] (-128)
1228  00                 [052] (-128)
1229  75                 [053] (-128)
122A  00                 [054] (-128)
122B  00                 [055] (-128)
122C  00                 [056] (-128)
122D  75                 [057] (-128)
122E  00                 [058] (-128)
122F  00                 [059] (-128)
1230  00                 [060] (-128)
1231  76                 [061] (-128)
1232  00                 [062] (-128)
1233  00                 [063] (-128)
1234  00                 [064] (-128)
1235  78                 [065] (-126)
1236  00                 [066] (-126)
1237  00                 [067] (-126)
1238  00                 [068] (-126)
1239  78                 [069] (-125)
123A  00                 [070] (-125)
123B  00                 [071] (-125)
123C  00                 [072] (-125)
123D  78                 [073] (-125)
123E  00                 [074] (-124)
123F  00                 [075] (-122)
1240  00                 [076] (-122)
1241  79                 [077] (-121)
1242  00                 [078] (-121)
1243  00                 [079] (-121)
1244  00                 [080] (-121)
1245  79                 [081] (-121)
1246  00                 [082] (-121)
1247  00                 [083] (-121)
1248  00                 [084] (-121)
1249  7A                 [085] (-120)
124A  00                 [086] (-120)
124B  00                 [087] (-120)
124C  00                 [088] (-120)
124D  7A                 [089] (-119)
124E  00                 [090] (-119)
124F  00                 [091] (-119)
1250  00                 [092] (-118)
1251  7A                 [093] (-118)
1252  00                 [094] (-118)
1253  00                 [095] (-118)
1254  00                 [096] (-117)
1255  7A                 [097] (-117)
1256  00                 [098] (-117)
1257  00                 [099] (-117)
1258  00                 [100] (-114)
1259  7A                 [101] (-114)
125A  00                 [102] (-114)
125B  00                 [103] (-114)
125C  00                 [104] (-114)
125D  7A                 [105] (-114)
125E  00                 [106] (-114)
125F  00                 [107] (-114)
1260  00                 [108] (-114)
1261  7A                 [109] (-112)
1262  00                 [110] (-112)
1263  00                 [111] (-112)
1264  00                 [112] (-112)
1265  7B                 [113] (-112)
1266  00                 [114] (-111)
1267  00                 [115] (-111)
1268  00                 [116] (-111)
1269  7B                 [117] (-111)
126A  00                 [118] (-111)
126B  00                 [119] (-112)
126C  00                 [120] (-108)
                         * locals:
13D5  00                 sizelocvars (0)
                         * upvalues:
13D6  00                 sizeupvalues (0)
                         ** end of function **

                         
13D7                     ** function [4] definition (level 2)
                         ** start of function **
13D7  00                 string size (0)
                         source name: (none)
13D9  01                 line defined (150)
13DA  9C                 last line defined (156)
13DB  01                 nups (1)
13DC  01                 numparams (2)
13DD  02                 is_vararg (0)
13DE  00                 maxstacksize (4)
                         * code:
13E0  0A                 sizecode (10)
13E1  18400000           [01] test       0       1    ; to [3] if false
13E5  1A800080           [02] jmp        3            ; to [6]
13E9  9D000000           [03] getglobal  2   0        ; -1817107093
13ED  D9400000           [04] loadk      3   1        ; "Failed to install umbra echoes on suit."
13F1  A2400001           [05] call       2   2   1  
13F5  97008000           [06] loadbool   2   1   0    ; true
fail op	8
13F9  88000000           [07] setupval   2   0      
13FD  9D800000           [08] getglobal  2   2        ; _T
1401  8C00C181           [09] settable   2   259 260  ; "umbraEchoesInstalled" 1
1405  1E008000           [10] return     0   1      
                         * constants:
1409  05                 sizek (5)
140A  01                 const type 3
140B  6B25B193           const [0]: (-1817107093)
140F  04                 const type 4
1410  28                 string size (40)
1411  4661696C65642074+  "Failed t"
1419  6F20696E7374616C+  "o instal"
1421  6C20756D62726120+  "l umbra "
1429  6563686F6573206F+  "echoes o"
1431  6E20737569742E00   "n suit.\0"
                         const [1]: "Failed to install umbra echoes on suit."
1439  04                 const type 4
143A  03                 string size (3)
143B  5F5400             "_T\0"
                         const [2]: "_T"
143E  04                 const type 4
143F  15                 string size (21)
1440  756D627261456368+  "umbraEch"
1448  6F6573496E737461+  "oesInsta"
1450  6C6C656400         "lled\0"
                         const [3]: "umbraEchoesInstalled"
1455  01                 const type 3
1456  01000000           const [4]: (1)
                         * functions:
145A  00                 sizep (0)
                         * lines:
145B  0A                 sizelineinfo (10)
                         [pc] (line)
145C  97                 [01] (-105)
145D  00                 [02] (-105)
145E  00                 [03] (-104)
145F  00                 [04] (-104)
1460  97                 [05] (-104)
1461  00                 [06] (-102)
1462  00                 [07] (-102)
1463  00                 [08] (-101)
1464  98                 [09] (-101)
1465  00                 [10] (-100)
                         * locals:
1484  00                 sizelocvars (0)
                         * upvalues:
1485  00                 sizeupvalues (0)
                         ** end of function **

                         
1486                     ** function [5] definition (level 2)
                         ** start of function **
1486  00                 string size (0)
                         source name: (none)
1488  01                 line defined (158)
1489  A3                 last line defined (163)
148A  01                 nups (1)
148B  01                 numparams (2)
148C  02                 is_vararg (0)
148D  00                 maxstacksize (4)
                         * code:
148F  08                 sizecode (8)
1490  18400000           [1] test       0       1    ; to [3] if false
1494  1A800080           [2] jmp        3            ; to [6]
1498  9D000000           [3] getglobal  2   0        ; -1817107093
149C  D9400000           [4] loadk      3   1        ; "Failed to cure suit."
14A0  A2400001           [5] call       2   2   1  
14A4  97008000           [6] loadbool   2   1   0    ; true
fail op	8
14A8  88000000           [7] setupval   2   0      
14AC  1E008000           [8] return     0   1      
                         * constants:
14B0  02                 sizek (2)
14B1  01                 const type 3
14B2  6B25B193           const [0]: (-1817107093)
14B6  04                 const type 4
14B7  15                 string size (21)
14B8  4661696C65642074+  "Failed t"
14C0  6F20637572652073+  "o cure s"
14C8  7569742E00         "uit.\0"
                         const [1]: "Failed to cure suit."
                         * functions:
14CD  00                 sizep (0)
                         * lines:
14CE  08                 sizelineinfo (8)
                         [pc] (line)
14CF  9F                 [1] (-97)
14D0  00                 [2] (-97)
14D1  00                 [3] (-96)
14D2  00                 [4] (-96)
14D3  9F                 [5] (-96)
14D4  00                 [6] (-94)
14D5  00                 [7] (-94)
14D6  00                 [8] (-93)
                         * locals:
14EF  00                 sizelocvars (0)
                         * upvalues:
14F0  00                 sizeupvalues (0)
                         ** end of function **

                         
14F1                     ** function [6] definition (level 2)
                         ** start of function **
14F1  00                 string size (0)
                         source name: (none)
14F3  01                 line defined (165)
14F4  AA                 last line defined (170)
14F5  01                 nups (1)
14F6  01                 numparams (2)
14F7  02                 is_vararg (0)
14F8  00                 maxstacksize (4)
                         * code:
14FA  08                 sizecode (8)
14FB  18400000           [1] test       0       1    ; to [3] if false
14FF  1A800080           [2] jmp        3            ; to [6]
1503  9D000000           [3] getglobal  2   0        ; -1817107093
1507  D9400000           [4] loadk      3   1        ; "Failed to infect suit."
150B  A2400001           [5] call       2   2   1  
150F  97008000           [6] loadbool   2   1   0    ; true
fail op	8
1513  88000000           [7] setupval   2   0      
1517  1E008000           [8] return     0   1      
                         * constants:
151B  02                 sizek (2)
151C  01                 const type 3
151D  6B25B193           const [0]: (-1817107093)
1521  04                 const type 4
1522  17                 string size (23)
1523  4661696C65642074+  "Failed t"
152B  6F20696E66656374+  "o infect"
1533  20737569742E00     " suit.\0"
                         const [1]: "Failed to infect suit."
                         * functions:
153A  00                 sizep (0)
                         * lines:
153B  08                 sizelineinfo (8)
                         [pc] (line)
153C  A6                 [1] (-90)
153D  00                 [2] (-90)
153E  00                 [3] (-89)
153F  00                 [4] (-89)
1540  A6                 [5] (-89)
1541  00                 [6] (-87)
1542  00                 [7] (-87)
1543  00                 [8] (-86)
                         * locals:
155C  00                 sizelocvars (0)
                         * upvalues:
155D  00                 sizeupvalues (0)
                         ** end of function **

                         
155E                     ** function [7] definition (level 2)
                         ** start of function **
155E  00                 string size (0)
                         source name: (none)
1560  01                 line defined (172)
1561  B1                 last line defined (177)
1562  01                 nups (1)
1563  01                 numparams (2)
1564  02                 is_vararg (0)
1565  00                 maxstacksize (4)
                         * code:
1567  08                 sizecode (8)
1568  18400000           [1] test       0       1    ; to [3] if false
156C  1A800080           [2] jmp        3            ; to [6]
1570  9D000000           [3] getglobal  2   0        ; -1817107093
1574  D9400000           [4] loadk      3   1        ; "Failed to unlock alchemy room."
1578  A2400001           [5] call       2   2   1  
157C  97008000           [6] loadbool   2   1   0    ; true
fail op	8
1580  88000000           [7] setupval   2   0      
1584  1E008000           [8] return     0   1      
                         * constants:
1588  02                 sizek (2)
1589  01                 const type 3
158A  6B25B193           const [0]: (-1817107093)
158E  04                 const type 4
158F  1F                 string size (31)
1590  4661696C65642074+  "Failed t"
1598  6F20756E6C6F636B+  "o unlock"
15A0  20616C6368656D79+  " alchemy"
15A8  20726F6F6D2E00     " room.\0"
                         const [1]: "Failed to unlock alchemy room."
                         * functions:
15AF  00                 sizep (0)
                         * lines:
15B0  08                 sizelineinfo (8)
                         [pc] (line)
15B1  AD                 [1] (-83)
15B2  00                 [2] (-83)
15B3  00                 [3] (-82)
15B4  00                 [4] (-82)
15B5  AD                 [5] (-82)
15B6  00                 [6] (-80)
15B7  00                 [7] (-80)
15B8  00                 [8] (-79)
                         * locals:
15D1  00                 sizelocvars (0)
                         * upvalues:
15D2  00                 sizeupvalues (0)
                         ** end of function **

                         
15D3                     ** function [8] definition (level 2)
                         ** start of function **
15D3  00                 string size (0)
                         source name: (none)
15D5  01                 line defined (179)
15D6  96                 last line defined (278)
15D7  02                 nups (10)
15D8  0A                 numparams (1)
15D9  01                 is_vararg (0)
15DA  00                 maxstacksize (24)
                         * code:
15DD  02                 sizecode (259)
15DE  5D000000           [001] getglobal  1   0        ; gPlayerProfileMgr
15E2  6440C000           [002] self       1   1   257  ; 569342746
15E6  D9800000           [003] loadk      3   2        ; 0
15EA  62808001           [004] call       1   3   2  
15EE  9DC00000           [005] getglobal  2   3        ; 1074689893
15F2  D2008000           [006] move       3   1      
15F6  A2800001           [007] call       2   2   2  
15FA  98400000           [008] test       2       1    ; to [10] if false
15FE  1A000180           [009] jmp        5            ; to [15]
1602  9D000100           [010] getglobal  2   4        ; gRegion
1606  A4404101           [011] self       2   2   261  ; -1520831144
160A  A2800001           [012] call       2   2   2  
160E  98400000           [013] test       2       1    ; to [15] if false
1612  1A000080           [014] jmp        1            ; to [16]
1616  1E008000           [015] return     0   1      
161A  A480C100           [016] self       2   1   262  ; 1699680402
161E  A2800001           [017] call       2   2   2  
1622  E4C04101           [018] self       3   2   263  ; -1269704954
1626  53010000           [019] getupval   5   0      
162A  E2808001           [020] call       3   3   2  
162E  13018000           [021] getupval   4   1      
1632  0E014202           [022] gettable   4   4   264  ; -2075390360
1636  64414201           [023] self       5   2   265  ; 51109503
163A  62010001           [024] call       5   2   0  
163E  22810000           [025] call       4   0   2  
1642  18010000           [026] test       4       0    ; to [28] if true
1646  1AC00080           [027] jmp        4            ; to [32]
164A  13010001           [028] getupval   4   2      
164E  52010001           [029] move       5   2      
1652  22810001           [030] call       4   2   2  
fail op	9
1656  09010002           [031] settable   4   4   0  
165A  64414201           [032] self       5   2   265  ; 51109503
165E  62810001           [033] call       5   2   2  
1662  6481C202           [034] self       5   5   266  ; 1644212373
1666  DDC10200           [035] getglobal  7   11       ; Lotus_Game
166A  CE01C303           [036] gettable   7   7   268  ; "LOT_NORMAL"
166E  1DC20200           [037] getglobal  8   11       ; Lotus_Game
1672  0E424304           [038] gettable   8   8   269  ; "SUIT_SLOT"
1676  62810002           [039] call       5   4   2  
167A  A4814301           [040] self       6   2   270  ; 1865287165
167E  A2810001           [041] call       6   2   2  
1682  A4C14303           [042] self       6   6   271  ; 1152082367
1686  13028001           [043] getupval   8   3      
168A  A2818001           [044] call       6   3   2  
168E  98410000           [045] test       6       1    ; to [47] if false
1692  1A800080           [046] jmp        3            ; to [50]
1696  8E01C402           [047] gettable   6   5   272  ; "mUmbraDate"
169A  A4414403           [048] self       6   6   273  ; 828278287
169E  A2810001           [049] call       6   2   2  
16A2  E4814400           [050] self       7   0   274  ; 2082429591
16A6  E2810001           [051] call       7   2   2  
16AA  18410000           [052] test       4       1    ; to [54] if false
16AE  1A000480           [053] jmp        17           ; to [71]
16B2  98410000           [054] test       6       1    ; to [56] if false
16B6  1A800380           [055] jmp        15           ; to [71]
16BA  24C2C403           [056] self       8   7   275  ; -1917464545
16BE  22820001           [057] call       8   2   2  
16C2  24024504           [058] self       8   8   276  ; 1769516121
16C6  22820001           [059] call       8   2   2  
16CA  24424504           [060] self       8   8   277  ; -1957065004
16CE  93020002           [061] getupval   10  4      
16D2  22828001           [062] call       8   3   2  
16D6  18020000           [063] test       8       0    ; to [65] if true
16DA  1A000180           [064] jmp        5            ; to [70]
16DE  24824501           [065] self       8   2   278  ; -1381110470
16E2  93020000           [066] getupval   10  0      
16E6  22828001           [067] call       8   3   2  
16EA  18420000           [068] test       8       1    ; to [70] if false
16EE  1A000080           [069] jmp        1            ; to [71]
16F2  1E008000           [070] return     0   1      
16F6  1DC20000           [071] getglobal  8   3        ; 1074689893
16FA  5DC20500           [072] getglobal  9   23       ; inputFilter
16FE  22820001           [073] call       8   2   2  
1702  18420000           [074] test       8       1    ; to [76] if false
1706  1A800080           [075] jmp        3            ; to [79]
170A  2402C603           [076] self       8   7   280  ; 1129512439
170E  9DC20500           [077] getglobal  10  23       ; inputFilter
1712  22428001           [078] call       8   3   1  
1716  1D020100           [079] getglobal  8   4        ; gRegion
171A  24424604           [080] self       8   8   281  ; -1875307917
171E  93028002           [081] getupval   10  5      
1722  22828001           [082] call       8   3   2  
1726  5D020100           [083] getglobal  9   4        ; gRegion
172A  6442C604           [084] self       9   9   281  ; -1875307917
172E  D3020003           [085] getupval   11  6      
1732  62828001           [086] call       9   3   2  
1736  A4824604           [087] self       10  8   282  ; -1923578185
173A  19C30600           [088] loadk      12  27       ; "StartPlaying"
173E  A2428001           [089] call       10  3   1  
1742  A402C703           [090] self       10  7   284  ; 1525877273
1746  A2820001           [091] call       10  2   2  
174A  A4424705           [092] self       10  10  285  ; 1362416700
174E  12038004           [093] move       12  9      
1752  59830700           [094] loadk      13  30       ; -102
1756  A2420002           [095] call       10  4   1  
175A  A5020000           [096] closure    10  0      
175E  12008003           [097] move       0   7      
1762  18410000           [098] test       4       1    ; to [100] if false
1766  1A400080           [099] jmp        2            ; to [102]
176A  98010000           [100] test       6       0    ; to [102] if true
176E  1A000980           [101] jmp        37           ; to [139]
1772  18010000           [102] test       4       0    ; to [104] if true
1776  1A000180           [103] jmp        5            ; to [109]
177A  E4C24701           [104] self       11  2   287  ; -194452999
177E  4E03C802           [105] gettable   13  5   288  ; "mItemId"
1782  99430800           [106] loadk      14  33       ; "OnInfectedSuitCured"
1786  E2420002           [107] call       11  4   1  
178A  1AC00080           [108] jmp        4            ; to [113]
178E  E4824801           [109] self       11  2   290  ; -2475193
1792  4E03C802           [110] gettable   13  5   288  ; "mItemId"
1796  99C30800           [111] loadk      14  35       ; "OnUmbraEchoesInstalled"
179A  E2420002           [112] call       11  4   1  
179E  D9820000           [113] loadk      11  2        ; 0
17A2  13038003           [114] getupval   12  7      
17A6  18430000           [115] test       12      1    ; to [117] if false
17AA  1A401180           [116] jmp        70           ; to [187]
17AE  1D030900           [117] getglobal  12  36       ; 538022378
17B2  59430900           [118] loadk      13  37       ; -51
17B6  22430001           [119] call       12  2   1  
17BA  C342C905           [120] add        11  11  293  ; -51
17BE  13038003           [121] getupval   12  7      
17C2  18430000           [122] test       12      1    ; to [124] if false
17C6  1A40FD7F           [123] jmp        -10          ; to [114]
fail op	21
17CA  15C00293           [124] concat     0   294 11 
17CE  1AC0FC7F           [125] jmp        -12          ; to [114]
17D2  24834604           [126] self       12  8   282  ; -1923578185
17D6  99C30900           [127] loadk      14  39       ; "StopPlaying"
17DA  22438001           [128] call       12  3   1  
17DE  24034A00           [129] self       12  0   296  ; -974578778
17E2  22430001           [130] call       12  2   1  
17E6  1D430A00           [131] getglobal  12  41       ; -1817107093
17EA  59830A00           [132] loadk      13  42       ; "Timed out waiting for infestation to be cured."
17EE  22430001           [133] call       12  2   1  
17F2  12030005           [134] move       12  10     
17F6  22438000           [135] call       12  1   1  
17FA  1E008000           [136] return     0   1      
17FE  1AC0F97F           [137] jmp        -24          ; to [114]
1802  1AC00B80           [138] jmp        48           ; to [187]
1806  D8400000           [139] test       3       1    ; to [141] if false
180A  1A800180           [140] jmp        7            ; to [148]
180E  24C34A01           [141] self       12  2   299  ; 2024412094
1812  93030000           [142] getupval   14  0      
1816  C6038007           [143] loadnil    15  15     
181A  19840000           [144] loadk      16  2        ; 0
181E  59040B00           [145] loadk      17  44       ; "OnFeatureUnlock"
1822  22430003           [146] call       12  6   1  
1826  1A400080           [147] jmp        2            ; to [150]
182A  17038000           [148] loadbool   12  1   0    ; true
fail op	8
182E  08030004           [149] setupval   12  8      
1832  24434B01           [150] self       12  2   301  ; 921899601
1836  8E03C802           [151] gettable   14  5   288  ; "mItemId"
183A  D9830B00           [152] loadk      15  46       ; "OnSuitInfected"
183E  22430002           [153] call       12  4   1  
1842  19830000           [154] loadk      12  2        ; 0
1846  53038004           [155] getupval   13  9      
184A  58030000           [156] test       13      0    ; to [158] if true
184E  1A800080           [157] jmp        3            ; to [161]
1852  53030004           [158] getupval   13  8      
1856  58430000           [159] test       13      1    ; to [161] if false
185A  1AC00580           [160] jmp        24           ; to [185]
185E  5D030900           [161] getglobal  13  36       ; 538022378
1862  99430900           [162] loadk      14  37       ; -51
1866  62430001           [163] call       13  2   1  
186A  03434906           [164] add        12  12  293  ; -51
186E  53038004           [165] getupval   13  9      
1872  58030000           [166] test       13      0    ; to [168] if true
1876  1A800080           [167] jmp        3            ; to [171]
187A  53030004           [168] getupval   13  8      
187E  58430000           [169] test       13      1    ; to [171] if false
1882  1AC0FB7F           [170] jmp        -16          ; to [155]
fail op	21
1886  15000393           [171] concat     0   294 12 
188A  1A40FB7F           [172] jmp        -18          ; to [155]
188E  64834604           [173] self       13  8   282  ; -1923578185
1892  D9C30900           [174] loadk      15  39       ; "StopPlaying"
1896  62438001           [175] call       13  3   1  
189A  64034A00           [176] self       13  0   296  ; -974578778
189E  62430001           [177] call       13  2   1  
18A2  5D430A00           [178] getglobal  13  41       ; -1817107093
18A6  99C30B00           [179] loadk      14  47       ; "Timed out waiting for infection/ship feature unlock."
18AA  62430001           [180] call       13  2   1  
18AE  52030005           [181] move       13  10     
18B2  62438000           [182] call       13  1   1  
18B6  1E008000           [183] return     0   1      
18BA  1A40F87F           [184] jmp        -30          ; to [155]
18BE  5D030C00           [185] getglobal  13  48       ; _T
18C2  4C83CC98           [186] settable   13  305 306  ; "InfestedAlchemyActive" 1
18C6  98410000           [187] test       6       1    ; to [189] if false
18CA  1A400880           [188] jmp        34           ; to [223]
18CE  18010000           [189] test       4       0    ; to [191] if true
18D2  1AC00080           [190] jmp        4            ; to [195]
18D6  5D030C00           [191] getglobal  13  48       ; _T
18DA  4EC3CC06           [192] gettable   13  13  307  ; "CystRemovedFrames"
fail op	35
18DE  2300CD06           [193] close      0  
18E2  1AC00680           [194] jmp        28           ; to [223]
18E6  59430D00           [195] loadk      13  53       ; 0
18EA  9D830D00           [196] getglobal  14  54       ; cancelTransmissions
18EE  8A030007           [197] len        14  14     
18F2  D9430D00           [198] loadk      15  53       ; 0
18F6  50030180           [199] forprep    13  5        ; to [205]
18FA  53048000           [200] getupval   17  1      
18FE  4EC4CD08           [201] gettable   17  17  311  ; -697559211
1902  9D840D00           [202] getglobal  18  54       ; cancelTransmissions
1906  8E040409           [203] gettable   18  18  16 
190A  62440001           [204] call       17  2   1  
190E  5443FE7F           [205] forloop    13  -6       ; to [200] if loop
1912  5D040900           [206] getglobal  17  36       ; 538022378
1916  99840000           [207] loadk      18  2        ; 0
191A  62440001           [208] call       17  2   1  
191E  5D040900           [209] getglobal  17  36       ; 538022378
1922  99840000           [210] loadk      18  2        ; 0
1926  62440001           [211] call       17  2   1  
192A  59440D00           [212] loadk      17  53       ; 0
192E  9D040E00           [213] getglobal  18  56       ; transmissions
1932  8A040009           [214] len        18  18     
1936  D9440D00           [215] loadk      19  53       ; 0
193A  50040180           [216] forprep    17  5        ; to [222]
193E  53058000           [217] getupval   21  1      
1942  4E45CE0A           [218] gettable   21  21  313  ; 910246418
1946  9D050E00           [219] getglobal  22  56       ; transmissions
194A  8E05050B           [220] gettable   22  22  20 
194E  62450001           [221] call       21  2   1  
1952  5444FE7F           [222] forloop    17  -6       ; to [217] if loop
1956  64854E04           [223] self       21  8   314  ; 1438910546
195A  62850001           [224] call       21  2   2  
195E  58450000           [225] test       21      1    ; to [227] if false
1962  1A400180           [226] jmp        6            ; to [233]
1966  6405C703           [227] self       21  7   284  ; 1525877273
196A  62850001           [228] call       21  2   2  
196E  64C5CE0A           [229] self       21  21  315  ; -735717699
1972  62850001           [230] call       21  2   2  
fail op	35
1976  6340820A           [231] close      1  
197A  1AC00380           [232] jmp        16           ; to [249]
197E  5D050900           [233] getglobal  21  36       ; 538022378
1982  99850000           [234] loadk      22  2        ; 0
1986  62450001           [235] call       21  2   1  
198A  5DC50000           [236] getglobal  21  3        ; 1074689893
198E  92058003           [237] move       22  7      
1992  62850001           [238] call       21  2   2  
1996  58450000           [239] test       21      1    ; to [241] if false
199A  1A400180           [240] jmp        6            ; to [247]
199E  5DC50000           [241] getglobal  21  3        ; 1074689893
19A2  A405C703           [242] self       22  7   284  ; 1525877273
19A6  A2050001           [243] call       22  2   0  
19AA  62850000           [244] call       21  0   2  
19AE  58050000           [245] test       21      0    ; to [247] if true
19B2  1AC0F97F           [246] jmp        -24          ; to [223]
19B6  1E008000           [247] return     0   1      
19BA  1A40F97F           [248] jmp        -26          ; to [223]
19BE  5DC50000           [249] getglobal  21  3        ; 1074689893
19C2  9DC50500           [250] getglobal  22  23       ; inputFilter
19C6  62850001           [251] call       21  2   2  
19CA  58450000           [252] test       21      1    ; to [254] if false
19CE  1A800080           [253] jmp        3            ; to [257]
19D2  6405CF03           [254] self       21  7   316  ; 1265388858
19D6  DDC50500           [255] getglobal  23  23       ; inputFilter
19DA  62458001           [256] call       21  3   1  
19DE  52050005           [257] move       21  10     
19E2  62458000           [258] call       21  1   1  
19E6  1E008000           [259] return     0   1      
                         * constants:
19EA  3D                 sizek (61)
19EB  04                 const type 4
19EC  12                 string size (18)
19ED  67506C6179657250+  "gPlayerP"
19F5  726F66696C654D67+  "rofileMg"
19FD  7200               "r\0"
                         const [0]: "gPlayerProfileMgr"
19FF  01                 const type 3
1A00  1A7BEF21           const [1]: (569342746)
1A04  03                 const type 3
1A05  00000000           const [2]: (0)
1A09  01                 const type 3
1A0A  65770E40           const [3]: (1074689893)
1A0E  04                 const type 4
1A0F  08                 string size (8)
1A10  67526567696F6E00   "gRegion\0"
                         const [4]: "gRegion"
1A18  01                 const type 3
1A19  58F559A5           const [5]: (-1520831144)
1A1D  01                 const type 3
1A1E  92104F65           const [6]: (1699680402)
1A22  01                 const type 3
1A23  06D751B4           const [7]: (-1269704954)
1A27  01                 const type 3
1A28  680E4C84           const [8]: (-2075390360)
1A2C  01                 const type 3
1A2D  7FDE0B03           const [9]: (51109503)
1A31  01                 const type 3
1A32  95B00062           const [10]: (1644212373)
1A36  04                 const type 4
1A37  0B                 string size (11)
1A38  4C6F7475735F4761+  "Lotus_Ga"
1A40  6D6500             "me\0"
                         const [11]: "Lotus_Game"
1A43  04                 const type 4
1A44  0B                 string size (11)
1A45  4C4F545F4E4F524D+  "LOT_NORM"
1A4D  414C00             "AL\0"
                         const [12]: "LOT_NORMAL"
1A50  04                 const type 4
1A51  0A                 string size (10)
1A52  535549545F534C4F+  "SUIT_SLO"
1A5A  5400               "T\0"
                         const [13]: "SUIT_SLOT"
1A5C  01                 const type 3
1A5D  FD052E6F           const [14]: (1865287165)
1A61  01                 const type 3
1A62  BF61AB44           const [15]: (1152082367)
1A66  04                 const type 4
1A67  0B                 string size (11)
1A68  6D556D6272614461+  "mUmbraDa"
1A70  746500             "te\0"
                         const [16]: "mUmbraDate"
1A73  01                 const type 3
1A74  0F865E31           const [17]: (828278287)
1A78  01                 const type 3
1A79  975A1F7C           const [18]: (2082429591)
1A7D  01                 const type 3
1A7E  1FD0B58D           const [19]: (-1917464545)
1A82  01                 const type 3
1A83  59AC7869           const [20]: (1769516121)
1A87  01                 const type 3
1A88  D48E598B           const [21]: (-1957065004)
1A8C  01                 const type 3
1A8D  3AEDADAD           const [22]: (-1381110470)
1A91  04                 const type 4
1A92  0C                 string size (12)
1A93  696E70757446696C+  "inputFil"
1A9B  74657200           "ter\0"
                         const [23]: "inputFilter"
1A9F  01                 const type 3
1AA0  F7FD5243           const [24]: (1129512439)
1AA4  01                 const type 3
1AA5  73123990           const [25]: (-1875307917)
1AA9  01                 const type 3
1AAA  B786588D           const [26]: (-1923578185)
1AAE  04                 const type 4
1AAF  0D                 string size (13)
1AB0  5374617274506C61+  "StartPla"
1AB8  79696E6700         "ying\0"
                         const [27]: "StartPlaying"
1ABD  01                 const type 3
1ABE  190AF35A           const [28]: (1525877273)
1AC2  01                 const type 3
1AC3  3CD43451           const [29]: (1362416700)
1AC7  03                 const type 3
1AC8  9A99993E           const [30]: (-102)
1ACC  01                 const type 3
1ACD  F9E168F4           const [31]: (-194452999)
1AD1  04                 const type 4
1AD2  08                 string size (8)
1AD3  6D4974656D496400   "mItemId\0"
                         const [32]: "mItemId"
1ADB  04                 const type 4
1ADC  14                 string size (20)
1ADD  4F6E496E66656374+  "OnInfect"
1AE5  6564537569744375+  "edSuitCu"
1AED  72656400           "red\0"
                         const [33]: "OnInfectedSuitCured"
1AF1  01                 const type 3
1AF2  473BDAFF           const [34]: (-2475193)
1AF6  04                 const type 4
1AF7  17                 string size (23)
1AF8  4F6E556D62726145+  "OnUmbraE"
1B00  63686F6573496E73+  "choesIns"
1B08  74616C6C656400     "talled\0"
                         const [35]: "OnUmbraEchoesInstalled"
1B0F  01                 const type 3
1B10  EA911120           const [36]: (538022378)
1B14  03                 const type 3
1B15  CDCCCC3D           const [37]: (-51)
1B19  03                 const type 3
1B1A  0000A040           const [38]: (0)
1B1E  04                 const type 4
1B1F  0C                 string size (12)
1B20  53746F70506C6179+  "StopPlay"
1B28  696E6700           "ing\0"
                         const [39]: "StopPlaying"
1B2C  01                 const type 3
1B2D  A61BE9C5           const [40]: (-974578778)
1B31  01                 const type 3
1B32  6B25B193           const [41]: (-1817107093)
1B36  04                 const type 4
1B37  2F                 string size (47)
1B38  54696D6564206F75+  "Timed ou"
1B40  742077616974696E+  "t waitin"
1B48  6720666F7220696E+  "g for in"
1B50  666573746174696F+  "festatio"
1B58  6E20746F20626520+  "n to be "
1B60  63757265642E00     "cured.\0"
                         const [42]: "Timed out waiting for infestation to be cured."
1B67  01                 const type 3
1B68  BE13AA78           const [43]: (2024412094)
1B6C  04                 const type 4
1B6D  10                 string size (16)
1B6E  4F6E466561747572+  "OnFeatur"
1B76  65556E6C6F636B00   "eUnlock\0"
                         const [44]: "OnFeatureUnlock"
1B7E  01                 const type 3
1B7F  5112F336           const [45]: (921899601)
1B83  04                 const type 4
1B84  0F                 string size (15)
1B85  4F6E53756974496E+  "OnSuitIn"
1B8D  66656374656400     "fected\0"
                         const [46]: "OnSuitInfected"
1B94  04                 const type 4
1B95  35                 string size (53)
1B96  54696D6564206F75+  "Timed ou"
1B9E  742077616974696E+  "t waitin"
1BA6  6720666F7220696E+  "g for in"
1BAE  66656374696F6E2F+  "fection/"
1BB6  7368697020666561+  "ship fea"
1BBE  7475726520756E6C+  "ture unl"
1BC6  6F636B2E00         "ock.\0"
                         const [47]: "Timed out waiting for infection/ship feature unlock."
1BCB  04                 const type 4
1BCC  03                 string size (3)
1BCD  5F5400             "_T\0"
                         const [48]: "_T"
1BD0  04                 const type 4
1BD1  16                 string size (22)
1BD2  496E666573746564+  "Infested"
1BDA  416C6368656D7941+  "AlchemyA"
1BE2  637469766500       "ctive\0"
                         const [49]: "InfestedAlchemyActive"
1BE8  01                 const type 3
1BE9  01000000           const [50]: (1)
1BED  04                 const type 4
1BEE  12                 string size (18)
1BEF  4379737452656D6F+  "CystRemo"
1BF7  7665644672616D65+  "vedFrame"
1BFF  7300               "s\0"
                         const [51]: "CystRemovedFrames"
1C01  00                 const type 0
                         const [52]: nil
1C02  03                 const type 3
1C03  0000803F           const [53]: (0)
1C07  04                 const type 4
1C08  14                 string size (20)
1C09  63616E63656C5472+  "cancelTr"
1C11  616E736D69737369+  "ansmissi"
1C19  6F6E7300           "ons\0"
                         const [54]: "cancelTransmissions"
1C1D  01                 const type 3
1C1E  55176CD6           const [55]: (-697559211)
1C22  04                 const type 4
1C23  0E                 string size (14)
1C24  7472616E736D6973+  "transmis"
1C2C  73696F6E7300       "sions\0"
                         const [56]: "transmissions"
1C32  01                 const type 3
1C33  12424136           const [57]: (910246418)
1C37  01                 const type 3
1C38  5208C455           const [58]: (1438910546)
1C3C  01                 const type 3
1C3D  BDD625D4           const [59]: (-735717699)
1C41  01                 const type 3
1C42  3A4D6C4B           const [60]: (1265388858)
                         * functions:
1C46  01                 sizep (1)
                         
1C47                     ** function [0] definition (level 3)
                         ** start of function **
1C47  00                 string size (0)
                         source name: (none)
1C49  01                 line defined (204)
1C4A  D4                 last line defined (212)
1C4B  01                 nups (1)
1C4C  01                 numparams (0)
1C4D  00                 is_vararg (0)
1C4E  00                 maxstacksize (6)
                         * code:
1C50  15                 sizecode (21)
1C51  1D000000           [01] getglobal  0   0        ; 1074689893
1C55  53000000           [02] getupval   1   0      
1C59  22800001           [03] call       0   2   2  
1C5D  18400000           [04] test       0       1    ; to [6] if false
1C61  1A800380           [05] jmp        15           ; to [21]
1C65  13000000           [06] getupval   0   0      
1C69  24404000           [07] self       0   0   257  ; 1525877273
1C6D  22800001           [08] call       0   2   2  
1C71  64804000           [09] self       1   0   258  ; -1705858434
1C75  62800001           [10] call       1   2   2  
1C79  A4C04000           [11] self       2   0   259  ; 1071098030
1C7D  19010100           [12] loadk      4   4        ; -102
1C81  A2408001           [13] call       2   3   1  
1C85  A4404100           [14] self       2   0   261  ; 1362416700
1C89  06010002           [15] loadnil    4   4      
1C8D  59810100           [16] loadk      5   6        ; 0
1C91  A2400002           [17] call       2   4   1  
1C95  A4C04000           [18] self       2   0   259  ; 1071098030
1C99  12018000           [19] move       4   1      
1C9D  A2408001           [20] call       2   3   1  
1CA1  1E008000           [21] return     0   1      
                         * constants:
1CA5  07                 sizek (7)
1CA6  01                 const type 3
1CA7  65770E40           const [0]: (1074689893)
1CAB  01                 const type 3
1CAC  190AF35A           const [1]: (1525877273)
1CB0  01                 const type 3
1CB1  7EAA529A           const [2]: (-1705858434)
1CB5  01                 const type 3
1CB6  AEA8D73F           const [3]: (1071098030)
1CBA  03                 const type 3
1CBB  9A99993E           const [4]: (-102)
1CBF  01                 const type 3
1CC0  3CD43451           const [5]: (1362416700)
1CC4  03                 const type 3
1CC5  0000803F           const [6]: (0)
                         * functions:
1CC9  00                 sizep (0)
                         * lines:
1CCA  15                 sizelineinfo (21)
                         [pc] (line)
1CCB  CD                 [01] (-51)
1CCC  00                 [02] (-51)
1CCD  00                 [03] (-51)
1CCE  00                 [04] (-51)
1CCF  CD                 [05] (-51)
1CD0  00                 [06] (-50)
1CD1  00                 [07] (-50)
1CD2  00                 [08] (-50)
1CD3  CD                 [09] (-49)
1CD4  00                 [10] (-49)
1CD5  00                 [11] (-48)
1CD6  00                 [12] (-48)
1CD7  CD                 [13] (-48)
1CD8  00                 [14] (-47)
1CD9  00                 [15] (-47)
1CDA  00                 [16] (-47)
1CDB  CD                 [17] (-47)
1CDC  00                 [18] (-46)
1CDD  00                 [19] (-46)
1CDE  00                 [20] (-46)
1CDF  CE                 [21] (-44)
                         * locals:
1D1F  00                 sizelocvars (0)
                         * upvalues:
1D20  00                 sizeupvalues (0)
                         ** end of function **

                         * lines:
1D22  02                 sizelineinfo (259)
                         [pc] (line)
1D23  B4                 [001] (-76)
1D24  00                 [002] (-76)
1D25  00                 [003] (-76)
1D26  00                 [004] (-76)
1D27  B4                 [005] (-75)
1D28  00                 [006] (-75)
1D29  00                 [007] (-75)
1D2A  00                 [008] (-75)
1D2B  B4                 [009] (-75)
1D2C  00                 [010] (-75)
1D2D  00                 [011] (-75)
1D2E  00                 [012] (-75)
1D2F  B4                 [013] (-75)
1D30  00                 [014] (-75)
1D31  00                 [015] (-74)
1D32  00                 [016] (-72)
1D33  B5                 [017] (-72)
1D34  00                 [018] (-71)
1D35  00                 [019] (-71)
1D36  00                 [020] (-71)
1D37  B5                 [021] (-70)
1D38  00                 [022] (-70)
1D39  00                 [023] (-70)
1D3A  00                 [024] (-70)
1D3B  B5                 [025] (-70)
1D3C  00                 [026] (-70)
1D3D  00                 [027] (-70)
1D3E  00                 [028] (-70)
1D3F  B5                 [029] (-70)
1D40  00                 [030] (-70)
1D41  00                 [031] (-70)
1D42  00                 [032] (-69)
1D43  B5                 [033] (-69)
1D44  00                 [034] (-69)
1D45  00                 [035] (-69)
1D46  00                 [036] (-69)
1D47  B5                 [037] (-69)
1D48  00                 [038] (-69)
1D49  00                 [039] (-69)
1D4A  00                 [040] (-68)
1D4B  B5                 [041] (-68)
1D4C  00                 [042] (-68)
1D4D  00                 [043] (-68)
1D4E  00                 [044] (-68)
1D4F  B5                 [045] (-68)
1D50  00                 [046] (-68)
1D51  00                 [047] (-68)
1D52  00                 [048] (-68)
1D53  B5                 [049] (-68)
1D54  00                 [050] (-66)
1D55  00                 [051] (-66)
1D56  00                 [052] (-65)
1D57  B5                 [053] (-65)
1D58  00                 [054] (-65)
1D59  00                 [055] (-65)
1D5A  00                 [056] (-65)
1D5B  B6                 [057] (-65)
1D5C  00                 [058] (-65)
1D5D  00                 [059] (-65)
1D5E  00                 [060] (-65)
1D5F  B8                 [061] (-65)
1D60  00                 [062] (-65)
1D61  00                 [063] (-65)
1D62  00                 [064] (-65)
1D63  B8                 [065] (-65)
1D64  00                 [066] (-65)
1D65  00                 [067] (-65)
1D66  00                 [068] (-65)
1D67  B9                 [069] (-65)
1D68  00                 [070] (-64)
1D69  00                 [071] (-61)
1D6A  00                 [072] (-61)
1D6B  B9                 [073] (-61)
1D6C  00                 [074] (-61)
1D6D  00                 [075] (-61)
1D6E  00                 [076] (-60)
1D6F  B9                 [077] (-60)
1D70  00                 [078] (-60)
1D71  00                 [079] (-57)
1D72  00                 [080] (-57)
1D73  BA                 [081] (-57)
1D74  00                 [082] (-57)
1D75  00                 [083] (-56)
1D76  00                 [084] (-56)
1D77  BA                 [085] (-56)
1D78  00                 [086] (-56)
1D79  00                 [087] (-55)
1D7A  00                 [088] (-55)
1D7B  BA                 [089] (-55)
1D7C  00                 [090] (-54)
1D7D  00                 [091] (-54)
1D7E  00                 [092] (-54)
1D7F  BA                 [093] (-54)
1D80  00                 [094] (-54)
1D81  00                 [095] (-54)
1D82  00                 [096] (-44)
1D83  BA                 [097] (-44)
1D84  00                 [098] (-42)
1D85  00                 [099] (-42)
1D86  00                 [100] (-42)
1D87  BA                 [101] (-42)
1D88  00                 [102] (-41)
1D89  00                 [103] (-41)
1D8A  00                 [104] (-40)
1D8B  BA                 [105] (-40)
1D8C  00                 [106] (-40)
1D8D  00                 [107] (-40)
1D8E  00                 [108] (-40)
1D8F  BA                 [109] (-38)
1D90  00                 [110] (-38)
1D91  00                 [111] (-38)
1D92  00                 [112] (-38)
1D93  BA                 [113] (-35)
1D94  00                 [114] (-34)
1D95  00                 [115] (-34)
1D96  00                 [116] (-34)
1D97  BA                 [117] (-33)
1D98  00                 [118] (-33)
1D99  00                 [119] (-33)
1D9A  00                 [120] (-32)
1D9B  BA                 [121] (-31)
1D9C  00                 [122] (-31)
1D9D  00                 [123] (-31)
1D9E  00                 [124] (-31)
1D9F  BB                 [125] (-31)
1DA0  00                 [126] (-30)
1DA1  00                 [127] (-30)
1DA2  00                 [128] (-30)
1DA3  BB                 [129] (-29)
1DA4  00                 [130] (-29)
1DA5  00                 [131] (-28)
1DA6  00                 [132] (-28)
1DA7  BB                 [133] (-28)
1DA8  00                 [134] (-27)
1DA9  00                 [135] (-27)
1DAA  00                 [136] (-26)
1DAB  BB                 [137] (-25)
1DAC  00                 [138] (-24)
1DAD  00                 [139] (-22)
1DAE  00                 [140] (-22)
1DAF  BB                 [141] (-21)
1DB0  00                 [142] (-21)
1DB1  00                 [143] (-21)
1DB2  00                 [144] (-21)
1DB3  BB                 [145] (-21)
1DB4  00                 [146] (-21)
1DB5  00                 [147] (-21)
1DB6  00                 [148] (-19)
1DB7  BB                 [149] (-19)
1DB8  00                 [150] (-17)
1DB9  00                 [151] (-17)
1DBA  00                 [152] (-17)
1DBB  BB                 [153] (-17)
1DBC  00                 [154] (-16)
1DBD  00                 [155] (-15)
1DBE  00                 [156] (-15)
1DBF  BC                 [157] (-15)
1DC0  00                 [158] (-15)
1DC1  00                 [159] (-15)
1DC2  00                 [160] (-15)
1DC3  BC                 [161] (-14)
1DC4  00                 [162] (-14)
1DC5  00                 [163] (-14)
1DC6  00                 [164] (-13)
1DC7  BC                 [165] (-12)
1DC8  00                 [166] (-12)
1DC9  00                 [167] (-12)
1DCA  00                 [168] (-12)
1DCB  BC                 [169] (-12)
1DCC  00                 [170] (-12)
1DCD  00                 [171] (-12)
1DCE  00                 [172] (-12)
1DCF  BC                 [173] (-11)
1DD0  00                 [174] (-11)
1DD1  00                 [175] (-11)
1DD2  00                 [176] (-10)
1DD3  BC                 [177] (-10)
1DD4  00                 [178] (-9)
1DD5  00                 [179] (-9)
1DD6  00                 [180] (-9)
1DD7  BC                 [181] (-8)
1DD8  00                 [182] (-8)
1DD9  00                 [183] (-7)
1DDA  00                 [184] (-6)
1DDB  BC                 [185] (-4)
1DDC  00                 [186] (-4)
1DDD  00                 [187] (-1)
1DDE  00                 [188] (-1)
1DDF  BC                 [189] (-1)
1DE0  00                 [190] (-1)
1DE1  00                 [191] (-1)
1DE2  00                 [192] (-1)
1DE3  BC                 [193] (-1)
1DE4  00                 [194] (-1)
1DE5  00                 [195] (0)
1DE6  00                 [196] (0)
1DE7  BE                 [197] (0)
1DE8  00                 [198] (0)
1DE9  00                 [199] (0)
1DEA  00                 [200] (1)
1DEB  BE                 [201] (1)
1DEC  00                 [202] (1)
1DED  00                 [203] (1)
1DEE  00                 [204] (1)
1DEF  BF                 [205] (0)
1DF0  00                 [206] (3)
1DF1  00                 [207] (3)
1DF2  00                 [208] (3)
1DF3  BF                 [209] (4)
1DF4  00                 [210] (4)
1DF5  00                 [211] (4)
1DF6  00                 [212] (5)
1DF7  BF                 [213] (5)
1DF8  00                 [214] (5)
1DF9  00                 [215] (5)
1DFA  00                 [216] (5)
1DFB  BF                 [217] (6)
1DFC  00                 [218] (6)
1DFD  00                 [219] (6)
1DFE  00                 [220] (6)
1DFF  BF                 [221] (6)
1E00  00                 [222] (5)
1E01  00                 [223] (10)
1E02  00                 [224] (10)
1E03  BF                 [225] (10)
1E04  00                 [226] (10)
1E05  00                 [227] (10)
1E06  00                 [228] (10)
1E07  BF                 [229] (10)
1E08  00                 [230] (10)
1E09  00                 [231] (10)
1E0A  00                 [232] (10)
1E0B  BF                 [233] (11)
1E0C  00                 [234] (11)
1E0D  00                 [235] (11)
1E0E  00                 [236] (12)
1E0F  BF                 [237] (12)
1E10  00                 [238] (12)
1E11  00                 [239] (12)
1E12  00                 [240] (12)
1E13  BF                 [241] (12)
1E14  00                 [242] (12)
1E15  00                 [243] (12)
1E16  00                 [244] (12)
1E17  BF                 [245] (12)
1E18  00                 [246] (12)
1E19  00                 [247] (13)
1E1A  00                 [248] (14)
1E1B  BF                 [249] (17)
1E1C  00                 [250] (17)
1E1D  00                 [251] (17)
1E1E  00                 [252] (17)
1E1F  BF                 [253] (17)
1E20  00                 [254] (18)
1E21  00                 [255] (18)
1E22  00                 [256] (18)
1E23  BF                 [257] (21)
1E24  00                 [258] (21)
1E25  00                 [259] (22)
                         * locals:
212F  00                 sizelocvars (0)
                         * upvalues:
2130  00                 sizeupvalues (0)
                         ** end of function **

                         
2131                     ** function [9] definition (level 2)
                         ** start of function **
2131  00                 string size (0)
                         source name: (none)
2133  02                 line defined (280)
2134  CB                 last line defined (331)
2135  02                 nups (2)
2136  02                 numparams (1)
2137  01                 is_vararg (0)
2138  00                 maxstacksize (26)
                         * code:
213A  7B                 sizecode (123)
213B  5D000000           [001] getglobal  1   0        ; 538022378
213F  99400000           [002] loadk      2   1        ; 0
2143  62400001           [003] call       1   2   1  
2147  5D800000           [004] getglobal  1   2        ; gPlayerProfileMgr
214B  64C0C000           [005] self       1   1   259  ; 853032131
214F  62800001           [006] call       1   2   2  
2153  58400000           [007] test       1       1    ; to [9] if false
2157  1AC00080           [008] jmp        4            ; to [13]
215B  5D000000           [009] getglobal  1   0        ; 538022378
215F  99000100           [010] loadk      2   4        ; 0
2163  62400001           [011] call       1   2   1  
2167  1A80FD7F           [012] jmp        -9           ; to [4]
216B  5D000000           [013] getglobal  1   0        ; 538022378
216F  99400100           [014] loadk      2   5        ; 0
2173  62400001           [015] call       1   2   1  
2177  5D800100           [016] getglobal  1   6        ; 1074689893
217B  9DC00100           [017] getglobal  2   7        ; _T
217F  8E004201           [018] gettable   2   2   264  ; "InfestedAlchemyActive"
2183  62800001           [019] call       1   2   2  
2187  58000000           [020] test       1       0    ; to [22] if true
218B  1A400080           [021] jmp        2            ; to [24]
218F  5DC00100           [022] getglobal  1   7        ; _T
2193  4C404284           [023] settable   1   264 265  ; "InfestedAlchemyActive" 0
2197  5D800200           [024] getglobal  1   10       ; gRegion
219B  64C0C200           [025] self       1   1   267  ; -1485896174
219F  D3000000           [026] getupval   3   0      
21A3  62808001           [027] call       1   3   2  
21A7  8B000000           [028] newtable   2   0   0    ; array=0, hash=0
21AB  D9400000           [029] loadk      3   1        ; 0
21AF  0A018000           [030] len        4   1      
21B3  59410000           [031] loadk      5   1        ; 0
21B7  D0000B80           [032] forprep    3   45       ; to [78]
21BB  CB010000           [033] newtable   7   0   0    ; array=0, hash=0
21BF  8CC00103           [034] settable   2   6   7  
21C3  CE818100           [035] gettable   7   1   6  
21C7  1D820100           [036] getglobal  8   6        ; 1074689893
21CB  52028003           [037] move       9   7      
21CF  22820001           [038] call       8   2   2  
21D3  18420000           [039] test       8       1    ; to [41] if false
21D7  1A000980           [040] jmp        37           ; to [78]
21DB  2402C303           [041] self       8   7   268  ; 1781416269
21DF  99020100           [042] loadk      10  4        ; 0
21E3  22828001           [043] call       8   3   2  
21E7  5D820100           [044] getglobal  9   6        ; 1074689893
21EB  92020004           [045] move       10  8      
21EF  62820001           [046] call       9   2   2  
21F3  58420000           [047] test       9       1    ; to [49] if false
21F7  1A000780           [048] jmp        29           ; to [78]
21FB  59420000           [049] loadk      9   1        ; 0
21FF  93028000           [050] getupval   10  1      
2203  8A020005           [051] len        10  10     
2207  D9420000           [052] loadk      11  1        ; 0
220B  50820580           [053] forprep    9   23       ; to [77]
220F  4E830101           [054] gettable   13  2   6  
2213  A443C303           [055] self       14  7   269  ; -1411936111
2217  13048000           [056] getupval   16  1      
221B  0E040308           [057] gettable   16  16  12 
221F  59440000           [058] loadk      17  1        ; 0
2223  A2830002           [059] call       14  4   2  
2227  4C830306           [060] settable   13  12  14 
222B  4E830101           [061] gettable   13  2   6  
222F  4E038306           [062] gettable   13  13  12 
fail op	21
2233  15400387           [063] concat     0   270 13 
2237  1A800180           [064] jmp        7            ; to [72]
223B  4E830101           [065] gettable   13  2   6  
223F  A4C34304           [066] self       14  8   271  ; -1615759522
2243  13048000           [067] getupval   16  1      
2247  0E040308           [068] gettable   16  16  12 
224B  59440000           [069] loadk      17  1        ; 0
224F  A2830002           [070] call       14  4   2  
2253  4C830306           [071] settable   13  12  14 
2257  6403C403           [072] self       13  7   272  ; -786111647
225B  D3038000           [073] getupval   15  1      
225F  CE038307           [074] gettable   15  15  12 
2263  19040100           [075] loadk      16  4        ; 0
2267  62430002           [076] call       13  4   1  
226B  54C2F97F           [077] forloop    9   -24      ; to [54] if loop
226F  D440F47F           [078] forloop    3   -46      ; to [33] if loop
2273  5D830100           [079] getglobal  13  6        ; 1074689893
2277  9DC30100           [080] getglobal  14  7        ; _T
227B  8E034207           [081] gettable   14  14  264  ; "InfestedAlchemyActive"
227F  62830001           [082] call       13  2   2  
2283  58430000           [083] test       13      1    ; to [85] if false
2287  1A000180           [084] jmp        5            ; to [90]
228B  5DC30100           [085] getglobal  13  7        ; _T
228F  4E03C206           [086] gettable   13  13  264  ; "InfestedAlchemyActive"
2293  58030000           [087] test       13      0    ; to [89] if true
2297  1A000080           [088] jmp        1            ; to [90]
229B  1AC00080           [089] jmp        4            ; to [94]
229F  5D030000           [090] getglobal  13  0        ; 538022378
22A3  99030100           [091] loadk      14  4        ; 0
22A7  62430001           [092] call       13  2   1  
22AB  1A00FC7F           [093] jmp        -15          ; to [79]
22AF  59430000           [094] loadk      13  1        ; 0
22B3  8A038000           [095] len        14  1      
22B7  D9430000           [096] loadk      15  1        ; 0
22BB  50C30580           [097] forprep    13  24       ; to [122]
22BF  4E048400           [098] gettable   17  1   16 
22C3  9D840100           [099] getglobal  18  6        ; 1074689893
22C7  D2048008           [100] move       19  17     
22CB  A2840001           [101] call       18  2   2  
22CF  98440000           [102] test       18      1    ; to [104] if false
22D3  1A400480           [103] jmp        18           ; to [122]
22D7  99440000           [104] loadk      18  1        ; 0
22DB  D3048000           [105] getupval   19  1      
22DF  CA048009           [106] len        19  19     
22E3  19450000           [107] loadk      20  1        ; 0
22E7  90C40280           [108] forprep    18  12       ; to [121]
22EB  9D850100           [109] getglobal  22  6        ; 1074689893
22EF  CE050401           [110] gettable   23  2   16 
22F3  CE45850B           [111] gettable   23  23  21 
22F7  A2850001           [112] call       22  2   2  
22FB  98450000           [113] test       22      1    ; to [115] if false
22FF  1A400180           [114] jmp        6            ; to [121]
2303  A405C408           [115] self       22  17  272  ; -786111647
2307  13068000           [116] getupval   24  1      
230B  0E46050C           [117] gettable   24  24  21 
230F  4E060401           [118] gettable   25  2   16 
2313  4E46850C           [119] gettable   25  25  21 
2317  A2450002           [120] call       22  4   1  
231B  9484FC7F           [121] forloop    18  -13      ; to [109] if loop
231F  5483F97F           [122] forloop    13  -25      ; to [98] if loop
2323  1E008000           [123] return     0   1      
                         * constants:
2327  11                 sizek (17)
2328  01                 const type 3
2329  EA911120           const [0]: (538022378)
232D  03                 const type 3
232E  0000803F           const [1]: (0)
2332  04                 const type 4
2333  12                 string size (18)
2334  67506C6179657250+  "gPlayerP"
233C  726F66696C654D67+  "rofileMg"
2344  7200               "r\0"
                         const [2]: "gPlayerProfileMgr"
2346  01                 const type 3
2347  C33CD832           const [3]: (853032131)
234B  03                 const type 3
234C  00000000           const [4]: (0)
2350  03                 const type 3
2351  00008040           const [5]: (0)
2355  01                 const type 3
2356  65770E40           const [6]: (1074689893)
235A  04                 const type 4
235B  03                 string size (3)
235C  5F5400             "_T\0"
                         const [7]: "_T"
235F  04                 const type 4
2360  16                 string size (22)
2361  496E666573746564+  "Infested"
2369  416C6368656D7941+  "AlchemyA"
2371  637469766500       "ctive\0"
                         const [8]: "InfestedAlchemyActive"
2377  01                 const type 3
2378  00000000           const [9]: (0)
237C  04                 const type 4
237D  08                 string size (8)
237E  67526567696F6E00   "gRegion\0"
                         const [10]: "gRegion"
2386  01                 const type 3
2387  12066FA7           const [11]: (-1485896174)
238B  01                 const type 3
238C  4D412E6A           const [12]: (1781416269)
2390  01                 const type 3
2391  9190D7AB           const [13]: (-1411936111)
2395  03                 const type 3
2396  0000C842           const [14]: (0)
239A  01                 const type 3
239B  5E77B19F           const [15]: (-1615759522)
239F  01                 const type 3
23A0  61E324D1           const [16]: (-786111647)
                         * functions:
23A4  00                 sizep (0)
                         * lines:
23A5  7B                 sizelineinfo (123)
                         [pc] (line)
23A6  19                 [001] (25)
23A7  01                 [002] (25)
23A8  00                 [003] (25)
23A9  00                 [004] (26)
23AA  19                 [005] (26)
23AB  01                 [006] (26)
23AC  00                 [007] (26)
23AD  00                 [008] (26)
23AE  19                 [009] (27)
23AF  01                 [010] (27)
23B0  00                 [011] (27)
23B1  00                 [012] (27)
23B2  1A                 [013] (29)
23B3  01                 [014] (29)
23B4  00                 [015] (29)
23B5  00                 [016] (32)
23B6  1A                 [017] (32)
23B7  01                 [018] (32)
23B8  00                 [019] (32)
23B9  00                 [020] (32)
23BA  1A                 [021] (32)
23BB  01                 [022] (33)
23BC  00                 [023] (33)
23BD  00                 [024] (36)
23BE  1A                 [025] (36)
23BF  01                 [026] (36)
23C0  00                 [027] (36)
23C1  00                 [028] (38)
23C2  1A                 [029] (39)
23C3  01                 [030] (39)
23C4  00                 [031] (39)
23C5  00                 [032] (39)
23C6  1B                 [033] (40)
23C7  01                 [034] (40)
23C8  00                 [035] (41)
23C9  00                 [036] (42)
23CA  1B                 [037] (42)
23CB  01                 [038] (42)
23CC  00                 [039] (42)
23CD  00                 [040] (42)
23CE  1B                 [041] (43)
23CF  01                 [042] (43)
23D0  00                 [043] (43)
23D1  00                 [044] (44)
23D2  1B                 [045] (44)
23D3  01                 [046] (44)
23D4  00                 [047] (44)
23D5  00                 [048] (44)
23D6  1D                 [049] (45)
23D7  01                 [050] (45)
23D8  00                 [051] (45)
23D9  00                 [052] (45)
23DA  1D                 [053] (45)
23DB  01                 [054] (46)
23DC  00                 [055] (46)
23DD  00                 [056] (46)
23DE  1D                 [057] (46)
23DF  01                 [058] (46)
23E0  00                 [059] (46)
23E1  00                 [060] (46)
23E2  20                 [061] (47)
23E3  01                 [062] (47)
23E4  00                 [063] (47)
23E5  00                 [064] (47)
23E6  20                 [065] (48)
23E7  01                 [066] (48)
23E8  00                 [067] (48)
23E9  00                 [068] (48)
23EA  20                 [069] (48)
23EB  01                 [070] (48)
23EC  00                 [071] (48)
23ED  00                 [072] (50)
23EE  20                 [073] (50)
23EF  01                 [074] (50)
23F0  00                 [075] (50)
23F1  00                 [076] (50)
23F2  20                 [077] (45)
23F3  01                 [078] (39)
23F4  00                 [079] (57)
23F5  00                 [080] (57)
23F6  20                 [081] (57)
23F7  01                 [082] (57)
23F8  00                 [083] (57)
23F9  00                 [084] (57)
23FA  21                 [085] (58)
23FB  01                 [086] (58)
23FC  00                 [087] (58)
23FD  00                 [088] (58)
23FE  21                 [089] (59)
23FF  01                 [090] (62)
2400  00                 [091] (62)
2401  00                 [092] (62)
2402  24                 [093] (62)
2403  01                 [094] (65)
2404  00                 [095] (65)
2405  00                 [096] (65)
2406  24                 [097] (65)
2407  01                 [098] (66)
2408  00                 [099] (67)
2409  00                 [100] (67)
240A  24                 [101] (67)
240B  01                 [102] (67)
240C  00                 [103] (67)
240D  00                 [104] (68)
240E  24                 [105] (68)
240F  01                 [106] (68)
2410  00                 [107] (68)
2411  00                 [108] (68)
2412  26                 [109] (69)
2413  01                 [110] (69)
2414  00                 [111] (69)
2415  00                 [112] (69)
2416  27                 [113] (69)
2417  01                 [114] (69)
2418  00                 [115] (70)
2419  00                 [116] (70)
241A  27                 [117] (70)
241B  01                 [118] (70)
241C  00                 [119] (70)
241D  00                 [120] (70)
241E  27                 [121] (68)
241F  01                 [122] (65)
2420  00                 [123] (75)
                         * locals:
2592  00                 sizelocvars (0)
                         * upvalues:
2593  00                 sizeupvalues (0)
                         ** end of function **

                         * lines:
2594  60                 sizelineinfo (96)
                         [pc] (line)
2595  0C                 [01] (12)
2596  00                 [02] (12)
2597  00                 [03] (12)
2598  00                 [04] (13)
2599  0C                 [05] (13)
259A  00                 [06] (13)
259B  00                 [07] (14)
259C  00                 [08] (14)
259D  0C                 [09] (14)
259E  00                 [10] (15)
259F  00                 [11] (15)
25A0  00                 [12] (15)
25A1  0D                 [13] (16)
25A2  00                 [14] (16)
25A3  00                 [15] (16)
25A4  00                 [16] (17)
25A5  0D                 [17] (17)
25A6  00                 [18] (17)
25A7  00                 [19] (18)
25A8  00                 [20] (18)
25A9  0D                 [21] (18)
25AA  00                 [22] (20)
25AB  00                 [23] (20)
25AC  00                 [24] (20)
25AD  0E                 [25] (21)
25AE  00                 [26] (21)
25AF  00                 [27] (21)
25B0  00                 [28] (21)
25B1  0E                 [29] (21)
25B2  00                 [30] (21)
25B3  00                 [31] (21)
25B4  00                 [32] (21)
25B5  0E                 [33] (21)
25B6  00                 [34] (21)
25B7  00                 [35] (21)
25B8  00                 [36] (23)
25B9  0F                 [37] (24)
25BA  00                 [38] (25)
25BB  00                 [39] (27)
25BC  00                 [40] (27)
25BD  0F                 [41] (27)
25BE  00                 [42] (48)
25BF  00                 [43] (95)
25C0  00                 [44] (95)
25C1  0F                 [45] (95)
25C2  00                 [46] (95)
25C3  00                 [47] (95)
25C4  00                 [48] (95)
25C5  10                 [49] (95)
25C6  00                 [50] (95)
25C7  00                 [51] (50)
25C8  00                 [52] (109)
25C9  10                 [53] (109)
25CA  00                 [54] (109)
25CB  00                 [55] (97)
25CC  00                 [56] (-108)
25CD  10                 [57] (-108)
25CE  00                 [58] (-108)
25CF  00                 [59] (-108)
25D0  00                 [60] (-108)
25D1  11                 [61] (111)
25D2  00                 [62] (-100)
25D3  00                 [63] (-100)
25D4  00                 [64] (-100)
25D5  11                 [65] (-106)
25D6  00                 [66] (-93)
25D7  00                 [67] (-93)
25D8  00                 [68] (-93)
25D9  11                 [69] (-98)
25DA  00                 [70] (-86)
25DB  00                 [71] (-86)
25DC  00                 [72] (-86)
25DD  12                 [73] (-91)
25DE  00                 [74] (-79)
25DF  00                 [75] (-79)
25E0  00                 [76] (-79)
25E1  12                 [77] (-84)
25E2  00                 [78] (22)
25E3  00                 [79] (22)
25E4  00                 [80] (22)
25E5  12                 [81] (22)
25E6  00                 [82] (22)
25E7  00                 [83] (22)
25E8  00                 [84] (22)
25E9  14                 [85] (22)
25EA  00                 [86] (22)
25EB  00                 [87] (22)
25EC  00                 [88] (22)
25ED  14                 [89] (22)
25EE  00                 [90] (-77)
25EF  00                 [91] (75)
25F0  00                 [92] (75)
25F1  14                 [93] (75)
25F2  00                 [94] (75)
25F3  00                 [95] (24)
25F4  00                 [96] (75)
                         * locals:
2715  00                 sizelocvars (0)
                         * upvalues:
2716  00                 sizeupvalues (0)
                         ** end of function **

2717                     ** end of chunk **
