1	C:\wlua_dump\path\Lotus\Scripts\GameplayVoidTear.lua
Pos   Hex Data           Description or Code
------------------------------------------------------------------------
0000                     ** source chunk: C:\wlua_dump\path\Lotus\Scripts\GameplayVoidTear.lua
                         ** global header start **
0000  7F                 header signature: ""
0001  00                 version (major:minor hex digits)
0002  00                 format (0=official)
0003  00                 endianness (1=little endian)
0004  00                 size of int (bytes)
0005  00                 size of size_t (bytes)
0006  02                 size of Instruction (bytes)
0007  5A                 size of number (bytes)
0008  F3                 integral (1=integral)
4243
                         * number type: single
                         * x86 standard (32-bit, little endian, doubles)
                         ** global header end **
/Lotus/Materials/PostFX/OrokinB_v.png
/Lotus/Types/Game/EnemySpecs/VoidTearT1EnemySpec
/Lotus/Fx/Enemies/CaptainVor/CptVorTeleportEnd
/Lotus/Sounds/Gameplay/VoidTear/VoidTearTendrilAttach
/Lotus/Sounds/Gameplay/VoidTear/VoidTearOpen
/Lotus/Sounds/Gameplay/VoidTear/VoidTearClose
/Lotus/Sounds/Gameplay/VoidTear/VoidTearLoopBSeq
/Lotus/Sounds/Gameplay/VoidTear/VoidTearFeed
/Lotus/Types/PickUps/VoidTearSealerItem
/Lotus/Types/PickUps/VoidTearSealerBuffItem
gGameRules
gRegion
EE.Interface.Utilities
Lotus.Scripts.Libs.TableLib
/Lotus/Fx/Gameplay/VoidTear/VoidTearRaycastLightningBeam
/Lotus/Fx/Gameplay/VoidTear/VoidTearCorruptedProjector
/Lotus/Fx/Gameplay/VoidTear/VoidTearSpawnProj
/Lotus/Fx/Gameplay/VoidTear/VoidTearSpawnAmb
/Lotus/Fx/Gameplay/VoidTear/VoidTearStagePopSpawn
/Lotus/Fx/Gameplay/VoidTear/VoidTearEndFinalPopSpawn
/Lotus/Types/Game/Triggers/VoidTearTrigger
/Lotus/Types/Items/MiscItems/VoidTearDrop
/Lotus/Language/Menu/VoidTearCorruptedEnemy
/Lotus/Sounds/Dialog/VoidRelics/DVRCFissDetectLotus
/Lotus/Sounds/Dialog/VoidRelics/DVRCFissureFoundLotus
/Lotus/Sounds/Dialog/VoidRelics/DVRCPickReactLotus
/Lotus/Sounds/Dialog/VoidRelics/DVRCAftermathLotus
/Lotus/Sounds/Dialog/VoidRelics/DVRCReactNeededLotus
VoidInvuln
TearCount
ReactantNextDrop
ExcavatorsStarted
/Lotus/Types/Game/Projections/T1VoidProjection
/Lotus/Types/Game/Projections/T2VoidProjection
/Lotus/Types/Game/Projections/T3VoidProjection
/Lotus/Types/Game/Projections/T4VoidProjection
Type
Game
AVATAR_HEALTH_MAX
Op
MULTIPLY
Val
AVATAR_ARMOUR
AVATAR_SHIELD_MAX
WEAPON_DAMAGE_AMOUNT
Slot
Engine
SLOT_1
Upgrades
WEAPON_AMMO_CONSUME_RATE
SLOT_2
SLOT_4
AVATAR_ABILITY_RANGE
AVATAR_ABILITY_STRENGTH
SLOT_6
WEAPON_CHANNELING_EFFICIENCY
OnPickupCreated
OnPlayersChanged
CorruptEnemy
OnKilled
OnResourceReady
VoidTear
PickupEvaluate
PickupReactant
Engine
SLOT_1
Lotus_Game
PISTOL_SLOT
SLOT_2
LONG_GUN_SLOT
SLOT_4
SUIT_SLOT
SLOT_6
MELEE_SLOT
Bad slot passed to _GetWeapon!
LOT_NORMAL
mItemType
INVALID
gRegion
_T
PlayPickupTrans
table
gBaseMarkerInfoType
Lotus_Game
instigator
affected
buffType
BT_TIMER
buffData
abilityType
Player
Slot
table
mActiveVoidProjection
Lotus_Game
instigator
affected
buffType
BT_AMOUNT
math
buffData
abilityType
buffId
gRegion
gPromotedToHost
TENNO
NEUTRAL
Engine
DT_ANY
ANY_PART
Orokin
ENEMY
EMPTY_SYMBOL
VoidTear
gGameRules
Type
Op
Val
ELECTRIFIED_LOOP
ATMM_ANIMATION_DRIVEN
PRT_LOOP
ELECTRIFIED_END
PRT_ONCE
ATMM_PHYSICS_DRIVEN
table
sealerDropTable
EMPTY_SYMBOL
gRegion
FLT_MAX
gLotusNpcAvatarType
table
gRegion
ZERO_ROTATION
CorruptEnemy
OnKilled
math
Engine
EXIMUS
STANDARD
_T
UseAiDirectorPopulationSpawnCount
agent
EndlessModeEnemyLevel
EMPTY_SYMBOL
VoidTear
table
gPowerSuitType
EMPTY_SYMBOL
gWeaponExType
Engine
THIRD_PERSON
gGameRules
table
Slot
Upgrades
Type
Op
Val
Player
gPowerSuitType
gWeaponExType
Engine
THIRD_PERSON
Slot
Upgrades
Type
Op
Val
Engine
INVALID
gRegion
_T
VoidTearProgress
Curr
math
Total
mActiveVoidProjection
RemotePlayersProgress
Count
Avatar
OtherAvatar
activeMissionTag
EMPTY_SYMBOL
string
missionType
Lotus_Game
MT_CAPTURE
MT_RESCUE
MT_SABOTAGE
MT_ASSASSINATION
MT_INTEL
MT_EXTERMINATION
MT_EXCAVATE
MT_TERRITORY
gRegion
Val
math
difficulty
reactantPickupType
gBaseMarkerInfoType
voidProjectionRewardMovie
OnResourceReady
voidProjectionSelectionMovie
math
tier
table
gRegion
postProcess
lightning
table
sealerDropTable
gRegion
OnPlayersChanged
_T
PlayPickupTrans
gPromotedToHost
Engine
INVALID
MissionInitReady
gGameRules
/Lotus/Types/Game/Waypoints/VoidTearWaypoint
table
ZERO_ROTATION
FLT_MAX
CorruptPlayer
missionType
Lotus_Game
MT_EXCAVATE
math
Player
Slot
gGameRules
gRegion
mActiveVoidProjection
ZERO_ROTATION
_T
table
reactantPickupType
                         
0001                     ** function [0] definition (level 1)
                         ** start of function **
0001  00                 string size (0)
                         source name: (none)
0002  00                 line defined (0)
0003  00                 last line defined (0)
0004  00                 nups (0)
0005  00                 numparams (0)
0006  02                 is_vararg (2)
0007  5A                 maxstacksize (90)
                         * code:
0009  03                 sizecode (499)
000A  1D000000           [001] getglobal  0   0        ; 2083004503
000E  59400000           [002] loadk      1   1        ; "/Lotus/Materials/PostFX/OrokinB_v.png"
0012  22800001           [003] call       0   2   2  
0016  5D000000           [004] getglobal  1   0        ; 2083004503
001A  99800000           [005] loadk      2   2        ; "/Lotus/Types/Game/EnemySpecs/VoidTearT1EnemySpec"
001E  62800001           [006] call       1   2   2  
0022  9D000000           [007] getglobal  2   0        ; 2083004503
0026  D9C00000           [008] loadk      3   3        ; "/Lotus/Fx/Enemies/CaptainVor/CptVorTeleportEnd"
002A  A2800001           [009] call       2   2   2  
002E  DD000000           [010] getglobal  3   0        ; 2083004503
0032  19010100           [011] loadk      4   4        ; "/Lotus/Sounds/Gameplay/VoidTear/VoidTearTendrilAttach"
0036  E2800001           [012] call       3   2   2  
003A  1D010000           [013] getglobal  4   0        ; 2083004503
003E  59410100           [014] loadk      5   5        ; "/Lotus/Sounds/Gameplay/VoidTear/VoidTearOpen"
0042  22810001           [015] call       4   2   2  
0046  5D010000           [016] getglobal  5   0        ; 2083004503
004A  99810100           [017] loadk      6   6        ; "/Lotus/Sounds/Gameplay/VoidTear/VoidTearClose"
004E  62810001           [018] call       5   2   2  
0052  9D010000           [019] getglobal  6   0        ; 2083004503
0056  D9C10100           [020] loadk      7   7        ; "/Lotus/Sounds/Gameplay/VoidTear/VoidTearLoopBSeq"
005A  A2810001           [021] call       6   2   2  
005E  DD010000           [022] getglobal  7   0        ; 2083004503
0062  19020200           [023] loadk      8   8        ; "/Lotus/Sounds/Gameplay/VoidTear/VoidTearFeed"
0066  E2810001           [024] call       7   2   2  
006A  1D420200           [025] getglobal  8   9        ; 738251817
006E  59820200           [026] loadk      9   10       ; "/Lotus/Types/PickUps/VoidTearSealerItem"
0072  22820001           [027] call       8   2   2  
0076  5D420200           [028] getglobal  9   9        ; 738251817
007A  99C20200           [029] loadk      10  11       ; "/Lotus/Types/PickUps/VoidTearSealerBuffItem"
007E  62820001           [030] call       9   2   2  
0082  86020005           [031] loadnil    10  10     
0086  DD020300           [032] getglobal  11  12       ; gGameRules
008A  1D430300           [033] getglobal  12  13       ; gRegion
008E  24834306           [034] self       12  12  270  ; -774964848
0092  22830001           [035] call       12  2   2  
0096  64C34306           [036] self       13  12  271  ; 537471347
009A  62830001           [037] call       13  2   2  
009E  9D030400           [038] getglobal  14  16       ; 849075268
00A2  D9430400           [039] loadk      15  17       ; "EE.Interface.Utilities"
00A6  A2830001           [040] call       14  2   2  
00AA  DD030400           [041] getglobal  15  16       ; 849075268
00AE  19840400           [042] loadk      16  18       ; "Lotus.Scripts.Libs.TableLib"
00B2  E2830001           [043] call       15  2   2  
00B6  1D040000           [044] getglobal  16  0        ; 2083004503
00BA  59C40400           [045] loadk      17  19       ; "/Lotus/Fx/Gameplay/VoidTear/VoidTearRaycastLightningBeam"
00BE  22840001           [046] call       16  2   2  
00C2  5D040000           [047] getglobal  17  0        ; 2083004503
00C6  99040500           [048] loadk      18  20       ; "/Lotus/Fx/Gameplay/VoidTear/VoidTearCorruptedProjector"
00CA  62840001           [049] call       17  2   2  
00CE  9D040000           [050] getglobal  18  0        ; 2083004503
00D2  D9440500           [051] loadk      19  21       ; "/Lotus/Fx/Gameplay/VoidTear/VoidTearSpawnProj"
00D6  A2840001           [052] call       18  2   2  
00DA  DD040000           [053] getglobal  19  0        ; 2083004503
00DE  19850500           [054] loadk      20  22       ; "/Lotus/Fx/Gameplay/VoidTear/VoidTearSpawnAmb"
00E2  E2840001           [055] call       19  2   2  
00E6  1D050000           [056] getglobal  20  0        ; 2083004503
00EA  59C50500           [057] loadk      21  23       ; "/Lotus/Fx/Gameplay/VoidTear/VoidTearStagePopSpawn"
00EE  22850001           [058] call       20  2   2  
00F2  5D050000           [059] getglobal  21  0        ; 2083004503
00F6  99050600           [060] loadk      22  24       ; "/Lotus/Fx/Gameplay/VoidTear/VoidTearEndFinalPopSpawn"
00FA  62850001           [061] call       21  2   2  
00FE  9D450600           [062] getglobal  22  25       ; -895206725
0102  D9850600           [063] loadk      23  26       ; "/Lotus/Types/Game/Triggers/VoidTearTrigger"
0106  A2850001           [064] call       22  2   2  
010A  DD050000           [065] getglobal  23  0        ; 2083004503
010E  19C60600           [066] loadk      24  27       ; "/Lotus/Types/Items/MiscItems/VoidTearDrop"
0112  E2850001           [067] call       23  2   2  
0116  19060700           [068] loadk      24  28       ; "/Lotus/Language/Menu/VoidTearCorruptedEnemy"
011A  5D460200           [069] getglobal  25  9        ; 738251817
011E  99460700           [070] loadk      26  29       ; "/Lotus/Sounds/Dialog/VoidRelics/DVRCFissDetectLotus"
0122  62860001           [071] call       25  2   2  
0126  9D460200           [072] getglobal  26  9        ; 738251817
012A  D9860700           [073] loadk      27  30       ; "/Lotus/Sounds/Dialog/VoidRelics/DVRCFissureFoundLotus"
012E  A2860001           [074] call       26  2   2  
0132  DD460200           [075] getglobal  27  9        ; 738251817
0136  19C70700           [076] loadk      28  31       ; "/Lotus/Sounds/Dialog/VoidRelics/DVRCPickReactLotus"
013A  E2860001           [077] call       27  2   2  
013E  1D470200           [078] getglobal  28  9        ; 738251817
0142  59070800           [079] loadk      29  32       ; "/Lotus/Sounds/Dialog/VoidRelics/DVRCAftermathLotus"
0146  22870001           [080] call       28  2   2  
014A  5D470200           [081] getglobal  29  9        ; 738251817
014E  99470800           [082] loadk      30  33       ; "/Lotus/Sounds/Dialog/VoidRelics/DVRCReactNeededLotus"
0152  62870001           [083] call       29  2   2  
0156  9D870800           [084] getglobal  30  34       ; -332969190
015A  D9C70800           [085] loadk      31  35       ; "VoidInvuln"
015E  A2870001           [086] call       30  2   2  
0162  DD870800           [087] getglobal  31  34       ; -332969190
0166  19080900           [088] loadk      32  36       ; "TearCount"
016A  E2870001           [089] call       31  2   2  
016E  1D880800           [090] getglobal  32  34       ; -332969190
0172  59480900           [091] loadk      33  37       ; "ReactantNextDrop"
0176  22880001           [092] call       32  2   2  
017A  5D880800           [093] getglobal  33  34       ; -332969190
017E  99880900           [094] loadk      34  38       ; "ExcavatorsStarted"
0182  62880001           [095] call       33  2   2  
0186  97080000           [096] loadbool   34  0   0    ; false
018A  C6088012           [097] loadnil    35  37     
018E  8B090000           [098] newtable   38  0   0    ; array=0, hash=0
0192  CB090000           [099] newtable   39  0   0    ; array=0, hash=0
0196  060A0014           [100] loadnil    40  40     
019A  59CA0900           [101] loadk      41  39       ; 0
019E  990A0A00           [102] loadk      42  40       ; 0
01A2  D9CA0900           [103] loadk      43  39       ; 0
01A6  194B0A00           [104] loadk      44  41       ; 0
01AA  4E8B4A07           [105] gettable   45  14  298  ; -132701534
01AE  970B0000           [106] loadbool   46  0   0    ; false
01B2  D9CB0A00           [107] loadk      47  43       ; 0
01B6  190C0A00           [108] loadk      48  40       ; 0
01BA  628B0002           [109] call       45  4   2  
01BE  990B0B00           [110] loadk      46  44       ; 0
01C2  D9CB0900           [111] loadk      47  39       ; 0
01C6  0B0C8002           [112] newtable   48  5   0    ; array=5, hash=0
01CA  594C0B00           [113] loadk      49  45       ; 0
01CE  994C0A00           [114] loadk      50  41       ; 0
01D2  D98C0B00           [115] loadk      51  46       ; 0
01D6  19CD0B00           [116] loadk      52  47       ; 0
01DA  590D0C00           [117] loadk      53  48       ; 0
01DE  1B4C8002           [118] setlist    48  5   1    ; index 1 to 5
01E2  4B0C0001           [119] newtable   49  2   0    ; array=2, hash=0
01E6  994C0C00           [120] loadk      50  49       ; 0
01EA  D94C0B00           [121] loadk      51  45       ; 0
01EE  5B4C0001           [122] setlist    49  2   1    ; index 1 to 2
01F2  8B0C0001           [123] newtable   50  2   0    ; array=2, hash=0
01F6  D90C0B00           [124] loadk      51  44       ; 0
01FA  198D0C00           [125] loadk      52  50       ; 0
01FE  9B4C0001           [126] setlist    50  2   1    ; index 1 to 2
0202  D9CC0A00           [127] loadk      51  43       ; 0
0206  0B0D0000           [128] newtable   52  0   0    ; array=0, hash=0
020A  59CD0C00           [129] loadk      53  51       ; 0
020E  99CD0C00           [130] loadk      54  51       ; 0
0212  D9CD0C00           [131] loadk      55  51       ; 0
0216  19CE0C00           [132] loadk      56  51       ; 0
021A  590E0D00           [133] loadk      57  52       ; 0
021E  99CE0900           [134] loadk      58  39       ; 0
0222  D94E0D00           [135] loadk      59  53       ; 0
0226  0B0F0000           [136] newtable   60  0   0    ; array=0, hash=0
022A  4B0F0000           [137] newtable   61  0   0    ; array=0, hash=0
022E  99CF0A00           [138] loadk      62  43       ; 0
0232  CB0F0000           [139] newtable   63  0   0    ; array=0, hash=0
0236  17108000           [140] loadbool   64  1   0    ; true
023A  4B108001           [141] newtable   65  3   0    ; array=3, hash=0
023E  9D500200           [142] getglobal  66  9        ; 738251817
0242  D9900D00           [143] loadk      67  54       ; "/Lotus/Types/Game/Projections/T1VoidProjection"
0246  A2900001           [144] call       66  2   2  
024A  DD500200           [145] getglobal  67  9        ; 738251817
024E  19D10D00           [146] loadk      68  55       ; "/Lotus/Types/Game/Projections/T2VoidProjection"
0252  E2900001           [147] call       67  2   2  
0256  1D510200           [148] getglobal  68  9        ; 738251817
025A  59110E00           [149] loadk      69  56       ; "/Lotus/Types/Game/Projections/T3VoidProjection"
025E  22910001           [150] call       68  2   2  
0262  5D510200           [151] getglobal  69  9        ; 738251817
0266  99510E00           [152] loadk      70  57       ; "/Lotus/Types/Game/Projections/T4VoidProjection"
026A  62110001           [153] call       69  2   0  
026E  5B500000           [154] setlist    65  0   1    ; index 1 to top
0272  8B100000           [155] newtable   66  0   0    ; array=0, hash=0
0276  CB100002           [156] newtable   67  4   0    ; array=4, hash=0
027A  0BD10000           [157] newtable   68  0   3    ; array=0, hash=3
027E  5DD10E00           [158] getglobal  69  59       ; Game
0282  4E11CF22           [159] gettable   69  69  316  ; "AVATAR_HEALTH_MAX"
0286  0C51119D           [160] settable   68  314 69   ; "Type"
028A  5DD10E00           [161] getglobal  69  59       ; Game
028E  4E91CF22           [162] gettable   69  69  318  ; "MULTIPLY"
0292  0C51919E           [163] settable   68  317 69   ; "Op"
0296  0CD1CA9F           [164] settable   68  319 299  ; "Val" 0
029A  4BD10000           [165] newtable   69  0   3    ; array=0, hash=3
029E  9DD10E00           [166] getglobal  70  59       ; Game
02A2  8E115023           [167] gettable   70  70  320  ; "AVATAR_ARMOUR"
02A6  4C91119D           [168] settable   69  314 70   ; "Type"
02AA  9DD10E00           [169] getglobal  70  59       ; Game
02AE  8E914F23           [170] gettable   70  70  318  ; "MULTIPLY"
02B2  4C91919E           [171] settable   69  317 70   ; "Op"
02B6  4CD1CA9F           [172] settable   69  319 299  ; "Val" 0
02BA  8BD10000           [173] newtable   70  0   3    ; array=0, hash=3
02BE  DDD10E00           [174] getglobal  71  59       ; Game
02C2  CE51D023           [175] gettable   71  71  321  ; "AVATAR_SHIELD_MAX"
02C6  8CD1119D           [176] settable   70  314 71   ; "Type"
02CA  DDD10E00           [177] getglobal  71  59       ; Game
02CE  CE91CF23           [178] gettable   71  71  318  ; "MULTIPLY"
02D2  8CD1919E           [179] settable   70  317 71   ; "Op"
02D6  8CD1CA9F           [180] settable   70  319 299  ; "Val" 0
02DA  CBD10000           [181] newtable   71  0   3    ; array=0, hash=3
02DE  1DD20E00           [182] getglobal  72  59       ; Game
02E2  0E925024           [183] gettable   72  72  322  ; "WEAPON_DAMAGE_AMOUNT"
02E6  CC11129D           [184] settable   71  314 72   ; "Type"
02EA  1DD20E00           [185] getglobal  72  59       ; Game
02EE  0E924F24           [186] gettable   72  72  318  ; "MULTIPLY"
02F2  CC11929E           [187] settable   71  317 72   ; "Op"
02F6  CCD1CA9F           [188] settable   71  319 299  ; "Val" 0
02FA  DB500002           [189] setlist    67  4   1    ; index 1 to 4
02FE  0B110002           [190] newtable   68  4   0    ; array=4, hash=0
0302  4B910000           [191] newtable   69  0   2    ; array=0, hash=2
0306  9D111100           [192] getglobal  70  68       ; Engine
030A  8E515123           [193] gettable   70  70  325  ; "SLOT_1"
030E  4C9191A1           [194] settable   69  323 70   ; "Slot"
0312  8B110001           [195] newtable   70  2   0    ; array=2, hash=0
0316  CBD10000           [196] newtable   71  0   3    ; array=0, hash=3
031A  1DD20E00           [197] getglobal  72  59       ; Game
031E  0ED25124           [198] gettable   72  72  327  ; "WEAPON_AMMO_CONSUME_RATE"
0322  CC11129D           [199] settable   71  314 72   ; "Type"
0326  1DD20E00           [200] getglobal  72  59       ; Game
032A  0E924F24           [201] gettable   72  72  318  ; "MULTIPLY"
032E  CC11929E           [202] settable   71  317 72   ; "Op"
0332  CCD1C99F           [203] settable   71  319 295  ; "Val" 0
0336  0BD20000           [204] newtable   72  0   3    ; array=0, hash=3
033A  5DD20E00           [205] getglobal  73  59       ; Game
033E  4E92D024           [206] gettable   73  73  322  ; "WEAPON_DAMAGE_AMOUNT"
0342  0C52129D           [207] settable   72  314 73   ; "Type"
0346  5DD20E00           [208] getglobal  73  59       ; Game
034A  4E92CF24           [209] gettable   73  73  318  ; "MULTIPLY"
034E  0C52929E           [210] settable   72  317 73   ; "Op"
0352  0C12D29F           [211] settable   72  319 328  ; "Val" 0
0356  9B510001           [212] setlist    70  2   1    ; index 1 to 2
035A  4C9111A3           [213] settable   69  326 70   ; "Upgrades"
035E  8B910000           [214] newtable   70  0   2    ; array=0, hash=2
0362  DD111100           [215] getglobal  71  68       ; Engine
0366  CE51D223           [216] gettable   71  71  329  ; "SLOT_2"
036A  8CD191A1           [217] settable   70  323 71   ; "Slot"
036E  CB110001           [218] newtable   71  2   0    ; array=2, hash=0
0372  0BD20000           [219] newtable   72  0   3    ; array=0, hash=3
0376  5DD20E00           [220] getglobal  73  59       ; Game
037A  4ED2D124           [221] gettable   73  73  327  ; "WEAPON_AMMO_CONSUME_RATE"
037E  0C52129D           [222] settable   72  314 73   ; "Type"
0382  5DD20E00           [223] getglobal  73  59       ; Game
0386  4E92CF24           [224] gettable   73  73  318  ; "MULTIPLY"
038A  0C52929E           [225] settable   72  317 73   ; "Op"
038E  0CD2C99F           [226] settable   72  319 295  ; "Val" 0
0392  4BD20000           [227] newtable   73  0   3    ; array=0, hash=3
0396  9DD20E00           [228] getglobal  74  59       ; Game
039A  8E925025           [229] gettable   74  74  322  ; "WEAPON_DAMAGE_AMOUNT"
039E  4C92129D           [230] settable   73  314 74   ; "Type"
03A2  9DD20E00           [231] getglobal  74  59       ; Game
03A6  8E924F25           [232] gettable   74  74  318  ; "MULTIPLY"
03AA  4C92929E           [233] settable   73  317 74   ; "Op"
03AE  4C12D29F           [234] settable   73  319 328  ; "Val" 0
03B2  DB510001           [235] setlist    71  2   1    ; index 1 to 2
03B6  8CD111A3           [236] settable   70  326 71   ; "Upgrades"
03BA  CB910000           [237] newtable   71  0   2    ; array=0, hash=2
03BE  1D121100           [238] getglobal  72  68       ; Engine
03C2  0E925224           [239] gettable   72  72  330  ; "SLOT_4"
03C6  CC1192A1           [240] settable   71  323 72   ; "Slot"
03CA  0B120001           [241] newtable   72  2   0    ; array=2, hash=0
03CE  4BD20000           [242] newtable   73  0   3    ; array=0, hash=3
03D2  9DD20E00           [243] getglobal  74  59       ; Game
03D6  8ED25225           [244] gettable   74  74  331  ; "AVATAR_ABILITY_RANGE"
03DA  4C92129D           [245] settable   73  314 74   ; "Type"
03DE  9DD20E00           [246] getglobal  74  59       ; Game
03E2  8E924F25           [247] gettable   74  74  318  ; "MULTIPLY"
03E6  4C92929E           [248] settable   73  317 74   ; "Op"
03EA  4C12CD9F           [249] settable   73  319 308  ; "Val" 0
03EE  8BD20000           [250] newtable   74  0   3    ; array=0, hash=3
03F2  DDD20E00           [251] getglobal  75  59       ; Game
03F6  CE12D325           [252] gettable   75  75  332  ; "AVATAR_ABILITY_STRENGTH"
03FA  8CD2129D           [253] settable   74  314 75   ; "Type"
03FE  DDD20E00           [254] getglobal  75  59       ; Game
0402  CE92CF25           [255] gettable   75  75  318  ; "MULTIPLY"
0406  8CD2929E           [256] settable   74  317 75   ; "Op"
040A  8C12CD9F           [257] settable   74  319 308  ; "Val" 0
040E  1B520001           [258] setlist    72  2   1    ; index 1 to 2
0412  CC1112A3           [259] settable   71  326 72   ; "Upgrades"
0416  0B920000           [260] newtable   72  0   2    ; array=0, hash=2
041A  5D121100           [261] getglobal  73  68       ; Engine
041E  4E52D324           [262] gettable   73  73  333  ; "SLOT_6"
0422  0C5292A1           [263] settable   72  323 73   ; "Slot"
0426  4B120001           [264] newtable   73  2   0    ; array=2, hash=0
042A  8BD20000           [265] newtable   74  0   3    ; array=0, hash=3
042E  DDD20E00           [266] getglobal  75  59       ; Game
0432  CE92D325           [267] gettable   75  75  334  ; "WEAPON_CHANNELING_EFFICIENCY"
0436  8CD2129D           [268] settable   74  314 75   ; "Type"
043A  DDD20E00           [269] getglobal  75  59       ; Game
043E  CE92CF25           [270] gettable   75  75  318  ; "MULTIPLY"
0442  8CD2929E           [271] settable   74  317 75   ; "Op"
0446  8C12CA9F           [272] settable   74  319 296  ; "Val" 0
044A  CBD20000           [273] newtable   75  0   3    ; array=0, hash=3
044E  1DD30E00           [274] getglobal  76  59       ; Game
0452  0E935026           [275] gettable   76  76  322  ; "WEAPON_DAMAGE_AMOUNT"
0456  CC12139D           [276] settable   75  314 76   ; "Type"
045A  1DD30E00           [277] getglobal  76  59       ; Game
045E  0E934F26           [278] gettable   76  76  318  ; "MULTIPLY"
0462  CC12939E           [279] settable   75  317 76   ; "Op"
0466  CC12D29F           [280] settable   75  319 328  ; "Val" 0
046A  5B520001           [281] setlist    73  2   1    ; index 1 to 2
046E  0C5212A3           [282] settable   72  326 73   ; "Upgrades"
0472  1B510002           [283] setlist    68  4   1    ; index 1 to 4
0476  4B110002           [284] newtable   69  4   0    ; array=4, hash=0
047A  9D111100           [285] getglobal  70  68       ; Engine
047E  8E515123           [286] gettable   70  70  325  ; "SLOT_1"
0482  DD111100           [287] getglobal  71  68       ; Engine
0486  CE51D223           [288] gettable   71  71  329  ; "SLOT_2"
048A  1D121100           [289] getglobal  72  68       ; Engine
048E  0E925224           [290] gettable   72  72  330  ; "SLOT_4"
0492  5D121100           [291] getglobal  73  68       ; Engine
0496  4E52D324           [292] gettable   73  73  333  ; "SLOT_6"
049A  5B510002           [293] setlist    69  4   1    ; index 1 to 4
049E  A5110000           [294] closure    70  0      
04A2  E5510000           [295] closure    71  1      
04A6  12000004           [296] move       0   8      
04AA  25920000           [297] closure    72  2      
04AE  12008023           [298] move       0   71     
04B2  12008016           [299] move       0   45     
04B6  20D21300           [300] setglobal  72  79       ; OnPickupCreated
04BA  20121400           [301] setglobal  72  80       ; 1579562504
04BE  25D20000           [302] closure    72  3      
04C2  12000018           [303] move       0   48     
04C6  12008019           [304] move       0   51     
04CA  12008004           [305] move       0   9      
04CE  65120100           [306] closure    73  4      
04D2  12000013           [307] move       0   38     
04D6  12008022           [308] move       0   69     
04DA  12008005           [309] move       0   11     
04DE  12008007           [310] move       0   15     
04E2  12000021           [311] move       0   66     
04E6  A5520100           [312] closure    74  5      
04EA  12000013           [313] move       0   38     
04EE  12008013           [314] move       0   39     
04F2  E5920100           [315] closure    75  6      
04F6  12008016           [316] move       0   45     
04FA  12008023           [317] move       0   71     
04FE  12000004           [318] move       0   8      
0502  25D30100           [319] closure    76  7      
0506  12000013           [320] move       0   38     
050A  12008013           [321] move       0   39     
050E  12008005           [322] move       0   11     
0512  12008024           [323] move       0   73     
0516  12008025           [324] move       0   75     
051A  20531400           [325] setglobal  76  81       ; OnPlayersChanged
051E  20931400           [326] setglobal  76  82       ; 448974417
0522  25130200           [327] closure    76  8      
0526  12008007           [328] move       0   15     
052A  1200801F           [329] move       0   63     
052E  65530200           [330] closure    77  9      
0532  12000026           [331] move       0   76     
0536  A5930200           [332] closure    78  10     
053A  1200000F           [333] move       0   30     
053E  1200000C           [334] move       0   24     
0542  12008008           [335] move       0   17     
0546  12000009           [336] move       0   18     
054A  12000001           [337] move       0   2      
054E  12008001           [338] move       0   3      
0552  12008021           [339] move       0   67     
0556  1200001F           [340] move       0   62     
055A  1200801F           [341] move       0   63     
055E  A0D31400           [342] setglobal  78  83       ; CorruptEnemy
0562  A0131500           [343] setglobal  78  84       ; -1191325434
0566  A5D30200           [344] closure    78  11     
056A  12000013           [345] move       0   38     
056E  12008023           [346] move       0   71     
0572  12008016           [347] move       0   45     
0576  12008005           [348] move       0   11     
057A  12000010           [349] move       0   32     
057E  12000019           [350] move       0   50     
0582  A0531500           [351] setglobal  78  85       ; OnKilled
0586  A0931500           [352] setglobal  78  86       ; 986490728
058A  A5130300           [353] closure    78  12     
058E  12008006           [354] move       0   13     
0592  12008026           [355] move       0   77     
0596  E5530300           [356] closure    79  13     
059A  12000014           [357] move       0   40     
059E  12008009           [358] move       0   19     
05A2  1200000A           [359] move       0   20     
05A6  12000002           [360] move       0   4      
05AA  12008014           [361] move       0   41     
05AE  12000020           [362] move       0   64     
05B2  12000013           [363] move       0   38     
05B6  12000005           [364] move       0   10     
05BA  12000003           [365] move       0   6      
05BE  12008026           [366] move       0   77     
05C2  12000008           [367] move       0   16     
05C6  12008005           [368] move       0   11     
05CA  1200800F           [369] move       0   31     
05CE  1200801B           [370] move       0   55     
05D2  12000007           [371] move       0   14     
05D6  12008006           [372] move       0   13     
05DA  1200001E           [373] move       0   60     
05DE  12000009           [374] move       0   18     
05E2  12000001           [375] move       0   2      
05E6  12008001           [376] move       0   3      
05EA  1200801F           [377] move       0   63     
05EE  1200000D           [378] move       0   26     
05F2  25940300           [379] closure    80  14     
05F6  12008008           [380] move       0   17     
05FA  65D40300           [381] closure    81  15     
05FE  12008022           [382] move       0   69     
0602  12000023           [383] move       0   70     
0606  12000022           [384] move       0   68     
060A  12000028           [385] move       0   80     
060E  12000018           [386] move       0   48     
0612  12008019           [387] move       0   51     
0616  12008003           [388] move       0   7      
061A  1200800B           [389] move       0   23     
061E  12008018           [390] move       0   49     
0622  12008005           [391] move       0   11     
0626  12000021           [392] move       0   66     
062A  A5140400           [393] closure    82  16     
062E  12008008           [394] move       0   17     
0632  E5540400           [395] closure    83  17     
0636  12000023           [396] move       0   70     
063A  12000029           [397] move       0   82     
063E  12000022           [398] move       0   68     
0642  25950400           [399] closure    84  18     
0646  12008011           [400] move       0   35     
064A  12000012           [401] move       0   36     
064E  12008012           [402] move       0   37     
0652  12008023           [403] move       0   71     
0656  12008016           [404] move       0   45     
065A  12000011           [405] move       0   34     
065E  12000024           [406] move       0   72     
0662  12000013           [407] move       0   38     
0666  12008025           [408] move       0   75     
066A  65D50400           [409] closure    85  19     
066E  60D51500           [410] setglobal  85  87       ; OnResourceReady
0672  60151600           [411] setglobal  85  88       ; 1985412254
0676  65150500           [412] closure    85  20     
067A  12008005           [413] move       0   11     
067E  12008019           [414] move       0   51     
0682  12000019           [415] move       0   50     
0686  1200001B           [416] move       0   54     
068A  1200801A           [417] move       0   53     
068E  12000015           [418] move       0   42     
0692  12000017           [419] move       0   46     
0696  1200801D           [420] move       0   59     
069A  12000020           [421] move       0   64     
069E  12000010           [422] move       0   32     
06A2  12008021           [423] move       0   67     
06A6  1200001C           [424] move       0   56     
06AA  1200801E           [425] move       0   61     
06AE  12008000           [426] move       0   1      
06B2  A5550500           [427] closure    86  21     
06B6  12008006           [428] move       0   13     
06BA  1200801B           [429] move       0   55     
06BE  1200001C           [430] move       0   56     
06C2  1200801C           [431] move       0   57     
06C6  12008005           [432] move       0   11     
06CA  1200800F           [433] move       0   31     
06CE  1200001D           [434] move       0   58     
06D2  12000007           [435] move       0   14     
06D6  1200801D           [436] move       0   59     
06DA  1200801E           [437] move       0   61     
06DE  1200001E           [438] move       0   60     
06E2  E5950500           [439] closure    87  22     
06E6  12000000           [440] move       0   0      
06EA  25D60500           [441] closure    88  23     
06EE  1200801F           [442] move       0   63     
06F2  65160600           [443] closure    89  24     
06F6  12008015           [444] move       0   43     
06FA  1200800D           [445] move       0   27     
06FE  12008011           [446] move       0   35     
0702  1200802B           [447] move       0   87     
0706  1200802A           [448] move       0   85     
070A  1200002A           [449] move       0   84     
070E  12000013           [450] move       0   38     
0712  1200001A           [451] move       0   52     
0716  12000023           [452] move       0   70     
071A  12000028           [453] move       0   80     
071E  12000029           [454] move       0   82     
0722  12008005           [455] move       0   11     
0726  1200000B           [456] move       0   22     
072A  12000014           [457] move       0   40     
072E  12008009           [458] move       0   19     
0732  12008024           [459] move       0   73     
0736  1200800C           [460] move       0   25     
073A  12008028           [461] move       0   81     
073E  1200002C           [462] move       0   88     
0742  12000025           [463] move       0   74     
0746  12000016           [464] move       0   44     
074A  12008017           [465] move       0   47     
074E  12008010           [466] move       0   33     
0752  1200001B           [467] move       0   54     
0756  12000017           [468] move       0   46     
075A  12008026           [469] move       0   77     
075E  12000027           [470] move       0   78     
0762  12000006           [471] move       0   12     
0766  1200002B           [472] move       0   86     
076A  12008027           [473] move       0   79     
076E  12008014           [474] move       0   41     
0772  12000015           [475] move       0   42     
0776  1200000A           [476] move       0   20     
077A  12008002           [477] move       0   5      
077E  12000005           [478] move       0   10     
0782  1200801A           [479] move       0   53     
0786  12000021           [480] move       0   66     
078A  12008029           [481] move       0   83     
078E  60561600           [482] setglobal  89  89       ; VoidTear
0792  60961600           [483] setglobal  89  90       ; -1165450244
0796  65560600           [484] closure    89  25     
079A  12008023           [485] move       0   71     
079E  12008016           [486] move       0   45     
07A2  60D61600           [487] setglobal  89  91       ; PickupEvaluate
07A6  60161700           [488] setglobal  89  92       ; 2082331865
07AA  65960600           [489] closure    89  26     
07AE  12008023           [490] move       0   71     
07B2  12008016           [491] move       0   45     
07B6  1200800A           [492] move       0   21     
07BA  1200000E           [493] move       0   28     
07BE  1200800B           [494] move       0   23     
07C2  12008018           [495] move       0   49     
07C6  1200800E           [496] move       0   29     
07CA  60561700           [497] setglobal  89  93       ; PickupReactant
07CE  60961700           [498] setglobal  89  94       ; 1943551915
07D2  1E008000           [499] return     0   1      
                         * constants:
07D6  5F                 sizek (95)
07D7  01                 const type 3
07D8  5720287C           const [0]: (2083004503)
07DC  04                 const type 4
07DD  26                 string size (38)
07DE  2F4C6F7475732F4D+  "/Lotus/M"
07E6  6174657269616C73+  "aterials"
07EE  2F506F737446582F+  "/PostFX/"
07F6  4F726F6B696E425F+  "OrokinB_"
07FE  762E706E6700       "v.png\0"
                         const [1]: "/Lotus/Materials/PostFX/OrokinB_v.png"
0804  04                 const type 4
0805  31                 string size (49)
0806  2F4C6F7475732F54+  "/Lotus/T"
080E  797065732F47616D+  "ypes/Gam"
0816  652F456E656D7953+  "e/EnemyS"
081E  706563732F566F69+  "pecs/Voi"
0826  6454656172543145+  "dTearT1E"
082E  6E656D7953706563+  "nemySpec"
0836  00                 "\0"
                         const [2]: "/Lotus/Types/Game/EnemySpecs/VoidTearT1EnemySpec"
0837  04                 const type 4
0838  2F                 string size (47)
0839  2F4C6F7475732F46+  "/Lotus/F"
0841  782F456E656D6965+  "x/Enemie"
0849  732F436170746169+  "s/Captai"
0851  6E566F722F437074+  "nVor/Cpt"
0859  566F7254656C6570+  "VorTelep"
0861  6F7274456E6400     "ortEnd\0"
                         const [3]: "/Lotus/Fx/Enemies/CaptainVor/CptVorTeleportEnd"
0868  04                 const type 4
0869  36                 string size (54)
086A  2F4C6F7475732F53+  "/Lotus/S"
0872  6F756E64732F4761+  "ounds/Ga"
087A  6D65706C61792F56+  "meplay/V"
0882  6F6964546561722F+  "oidTear/"
088A  566F696454656172+  "VoidTear"
0892  54656E6472696C41+  "TendrilA"
089A  747461636800       "ttach\0"
                         const [4]: "/Lotus/Sounds/Gameplay/VoidTear/VoidTearTendrilAttach"
08A0  04                 const type 4
08A1  2D                 string size (45)
08A2  2F4C6F7475732F53+  "/Lotus/S"
08AA  6F756E64732F4761+  "ounds/Ga"
08B2  6D65706C61792F56+  "meplay/V"
08BA  6F6964546561722F+  "oidTear/"
08C2  566F696454656172+  "VoidTear"
08CA  4F70656E00         "Open\0"
                         const [5]: "/Lotus/Sounds/Gameplay/VoidTear/VoidTearOpen"
08CF  04                 const type 4
08D0  2E                 string size (46)
08D1  2F4C6F7475732F53+  "/Lotus/S"
08D9  6F756E64732F4761+  "ounds/Ga"
08E1  6D65706C61792F56+  "meplay/V"
08E9  6F6964546561722F+  "oidTear/"
08F1  566F696454656172+  "VoidTear"
08F9  436C6F736500       "Close\0"
                         const [6]: "/Lotus/Sounds/Gameplay/VoidTear/VoidTearClose"
08FF  04                 const type 4
0900  31                 string size (49)
0901  2F4C6F7475732F53+  "/Lotus/S"
0909  6F756E64732F4761+  "ounds/Ga"
0911  6D65706C61792F56+  "meplay/V"
0919  6F6964546561722F+  "oidTear/"
0921  566F696454656172+  "VoidTear"
0929  4C6F6F7042536571+  "LoopBSeq"
0931  00                 "\0"
                         const [7]: "/Lotus/Sounds/Gameplay/VoidTear/VoidTearLoopBSeq"
0932  04                 const type 4
0933  2D                 string size (45)
0934  2F4C6F7475732F53+  "/Lotus/S"
093C  6F756E64732F4761+  "ounds/Ga"
0944  6D65706C61792F56+  "meplay/V"
094C  6F6964546561722F+  "oidTear/"
0954  566F696454656172+  "VoidTear"
095C  4665656400         "Feed\0"
                         const [8]: "/Lotus/Sounds/Gameplay/VoidTear/VoidTearFeed"
0961  01                 const type 3
0962  29D4002C           const [9]: (738251817)
0966  04                 const type 4
0967  28                 string size (40)
0968  2F4C6F7475732F54+  "/Lotus/T"
0970  797065732F506963+  "ypes/Pic"
0978  6B5570732F566F69+  "kUps/Voi"
0980  6454656172536561+  "dTearSea"
0988  6C65724974656D00   "lerItem\0"
                         const [10]: "/Lotus/Types/PickUps/VoidTearSealerItem"
0990  04                 const type 4
0991  2C                 string size (44)
0992  2F4C6F7475732F54+  "/Lotus/T"
099A  797065732F506963+  "ypes/Pic"
09A2  6B5570732F566F69+  "kUps/Voi"
09AA  6454656172536561+  "dTearSea"
09B2  6C65724275666649+  "lerBuffI"
09BA  74656D00           "tem\0"
                         const [11]: "/Lotus/Types/PickUps/VoidTearSealerBuffItem"
09BE  04                 const type 4
09BF  0B                 string size (11)
09C0  6747616D6552756C+  "gGameRul"
09C8  657300             "es\0"
                         const [12]: "gGameRules"
09CB  04                 const type 4
09CC  08                 string size (8)
09CD  67526567696F6E00   "gRegion\0"
                         const [13]: "gRegion"
09D5  01                 const type 3
09D6  90F9CED1           const [14]: (-774964848)
09DA  01                 const type 3
09DB  73290920           const [15]: (537471347)
09DF  01                 const type 3
09E0  44DC9B32           const [16]: (849075268)
09E4  04                 const type 4
09E5  17                 string size (23)
09E6  45452E496E746572+  "EE.Inter"
09EE  666163652E557469+  "face.Uti"
09F6  6C697469657300     "lities\0"
                         const [17]: "EE.Interface.Utilities"
09FD  04                 const type 4
09FE  1C                 string size (28)
09FF  4C6F7475732E5363+  "Lotus.Sc"
0A07  72697074732E4C69+  "ripts.Li"
0A0F  62732E5461626C65+  "bs.Table"
0A17  4C696200           "Lib\0"
                         const [18]: "Lotus.Scripts.Libs.TableLib"
0A1B  04                 const type 4
0A1C  39                 string size (57)
0A1D  2F4C6F7475732F46+  "/Lotus/F"
0A25  782F47616D65706C+  "x/Gamepl"
0A2D  61792F566F696454+  "ay/VoidT"
0A35  6561722F566F6964+  "ear/Void"
0A3D  5465617252617963+  "TearRayc"
0A45  6173744C69676874+  "astLight"
0A4D  6E696E674265616D+  "ningBeam"
0A55  00                 "\0"
                         const [19]: "/Lotus/Fx/Gameplay/VoidTear/VoidTearRaycastLightningBeam"
0A56  04                 const type 4
0A57  37                 string size (55)
0A58  2F4C6F7475732F46+  "/Lotus/F"
0A60  782F47616D65706C+  "x/Gamepl"
0A68  61792F566F696454+  "ay/VoidT"
0A70  6561722F566F6964+  "ear/Void"
0A78  54656172436F7272+  "TearCorr"
0A80  757074656450726F+  "uptedPro"
0A88  6A6563746F7200     "jector\0"
                         const [20]: "/Lotus/Fx/Gameplay/VoidTear/VoidTearCorruptedProjector"
0A8F  04                 const type 4
0A90  2E                 string size (46)
0A91  2F4C6F7475732F46+  "/Lotus/F"
0A99  782F47616D65706C+  "x/Gamepl"
0AA1  61792F566F696454+  "ay/VoidT"
0AA9  6561722F566F6964+  "ear/Void"
0AB1  5465617253706177+  "TearSpaw"
0AB9  6E50726F6A00       "nProj\0"
                         const [21]: "/Lotus/Fx/Gameplay/VoidTear/VoidTearSpawnProj"
0ABF  04                 const type 4
0AC0  2D                 string size (45)
0AC1  2F4C6F7475732F46+  "/Lotus/F"
0AC9  782F47616D65706C+  "x/Gamepl"
0AD1  61792F566F696454+  "ay/VoidT"
0AD9  6561722F566F6964+  "ear/Void"
0AE1  5465617253706177+  "TearSpaw"
0AE9  6E416D6200         "nAmb\0"
                         const [22]: "/Lotus/Fx/Gameplay/VoidTear/VoidTearSpawnAmb"
0AEE  04                 const type 4
0AEF  32                 string size (50)
0AF0  2F4C6F7475732F46+  "/Lotus/F"
0AF8  782F47616D65706C+  "x/Gamepl"
0B00  61792F566F696454+  "ay/VoidT"
0B08  6561722F566F6964+  "ear/Void"
0B10  5465617253746167+  "TearStag"
0B18  65506F7053706177+  "ePopSpaw"
0B20  6E00               "n\0"
                         const [23]: "/Lotus/Fx/Gameplay/VoidTear/VoidTearStagePopSpawn"
0B22  04                 const type 4
0B23  35                 string size (53)
0B24  2F4C6F7475732F46+  "/Lotus/F"
0B2C  782F47616D65706C+  "x/Gamepl"
0B34  61792F566F696454+  "ay/VoidT"
0B3C  6561722F566F6964+  "ear/Void"
0B44  54656172456E6446+  "TearEndF"
0B4C  696E616C506F7053+  "inalPopS"
0B54  7061776E00         "pawn\0"
                         const [24]: "/Lotus/Fx/Gameplay/VoidTear/VoidTearEndFinalPopSpawn"
0B59  01                 const type 3
0B5A  BB3AA4CA           const [25]: (-895206725)
0B5E  04                 const type 4
0B5F  2B                 string size (43)
0B60  2F4C6F7475732F54+  "/Lotus/T"
0B68  797065732F47616D+  "ypes/Gam"
0B70  652F547269676765+  "e/Trigge"
0B78  72732F566F696454+  "rs/VoidT"
0B80  6561725472696767+  "earTrigg"
0B88  657200             "er\0"
                         const [26]: "/Lotus/Types/Game/Triggers/VoidTearTrigger"
0B8B  04                 const type 4
0B8C  2A                 string size (42)
0B8D  2F4C6F7475732F54+  "/Lotus/T"
0B95  797065732F497465+  "ypes/Ite"
0B9D  6D732F4D69736349+  "ms/MiscI"
0BA5  74656D732F566F69+  "tems/Voi"
0BAD  645465617244726F+  "dTearDro"
0BB5  7000               "p\0"
                         const [27]: "/Lotus/Types/Items/MiscItems/VoidTearDrop"
0BB7  04                 const type 4
0BB8  2C                 string size (44)
0BB9  2F4C6F7475732F4C+  "/Lotus/L"
0BC1  616E67756167652F+  "anguage/"
0BC9  4D656E752F566F69+  "Menu/Voi"
0BD1  6454656172436F72+  "dTearCor"
0BD9  727570746564456E+  "ruptedEn"
0BE1  656D7900           "emy\0"
                         const [28]: "/Lotus/Language/Menu/VoidTearCorruptedEnemy"
0BE5  04                 const type 4
0BE6  34                 string size (52)
0BE7  2F4C6F7475732F53+  "/Lotus/S"
0BEF  6F756E64732F4469+  "ounds/Di"
0BF7  616C6F672F566F69+  "alog/Voi"
0BFF  6452656C6963732F+  "dRelics/"
0C07  4456524346697373+  "DVRCFiss"
0C0F  4465746563744C6F+  "DetectLo"
0C17  74757300           "tus\0"
                         const [29]: "/Lotus/Sounds/Dialog/VoidRelics/DVRCFissDetectLotus"
0C1B  04                 const type 4
0C1C  36                 string size (54)
0C1D  2F4C6F7475732F53+  "/Lotus/S"
0C25  6F756E64732F4469+  "ounds/Di"
0C2D  616C6F672F566F69+  "alog/Voi"
0C35  6452656C6963732F+  "dRelics/"
0C3D  4456524346697373+  "DVRCFiss"
0C45  757265466F756E64+  "ureFound"
0C4D  4C6F74757300       "Lotus\0"
                         const [30]: "/Lotus/Sounds/Dialog/VoidRelics/DVRCFissureFoundLotus"
0C53  04                 const type 4
0C54  33                 string size (51)
0C55  2F4C6F7475732F53+  "/Lotus/S"
0C5D  6F756E64732F4469+  "ounds/Di"
0C65  616C6F672F566F69+  "alog/Voi"
0C6D  6452656C6963732F+  "dRelics/"
0C75  445652435069636B+  "DVRCPick"
0C7D  52656163744C6F74+  "ReactLot"
0C85  757300             "us\0"
                         const [31]: "/Lotus/Sounds/Dialog/VoidRelics/DVRCPickReactLotus"
0C88  04                 const type 4
0C89  33                 string size (51)
0C8A  2F4C6F7475732F53+  "/Lotus/S"
0C92  6F756E64732F4469+  "ounds/Di"
0C9A  616C6F672F566F69+  "alog/Voi"
0CA2  6452656C6963732F+  "dRelics/"
0CAA  4456524341667465+  "DVRCAfte"
0CB2  726D6174684C6F74+  "rmathLot"
0CBA  757300             "us\0"
                         const [32]: "/Lotus/Sounds/Dialog/VoidRelics/DVRCAftermathLotus"
0CBD  04                 const type 4
0CBE  35                 string size (53)
0CBF  2F4C6F7475732F53+  "/Lotus/S"
0CC7  6F756E64732F4469+  "ounds/Di"
0CCF  616C6F672F566F69+  "alog/Voi"
0CD7  6452656C6963732F+  "dRelics/"
0CDF  4456524352656163+  "DVRCReac"
0CE7  744E65656465644C+  "tNeededL"
0CEF  6F74757300         "otus\0"
                         const [33]: "/Lotus/Sounds/Dialog/VoidRelics/DVRCReactNeededLotus"
0CF4  01                 const type 3
0CF5  1A4B27EC           const [34]: (-332969190)
0CF9  04                 const type 4
0CFA  0B                 string size (11)
0CFB  566F6964496E7675+  "VoidInvu"
0D03  6C6E00             "ln\0"
                         const [35]: "VoidInvuln"
0D06  04                 const type 4
0D07  0A                 string size (10)
0D08  54656172436F756E+  "TearCoun"
0D10  7400               "t\0"
                         const [36]: "TearCount"
0D12  04                 const type 4
0D13  11                 string size (17)
0D14  5265616374616E74+  "Reactant"
0D1C  4E65787444726F70+  "NextDrop"
0D24  00                 "\0"
                         const [37]: "ReactantNextDrop"
0D25  04                 const type 4
0D26  12                 string size (18)
0D27  457863617661746F+  "Excavato"
0D2F  7273537461727465+  "rsStarte"
0D37  6400               "d\0"
                         const [38]: "ExcavatorsStarted"
0D39  03                 const type 3
0D3A  00000000           const [39]: (0)
0D3E  03                 const type 3
0D3F  00002041           const [40]: (0)
0D43  03                 const type 3
0D44  00007042           const [41]: (0)
0D48  01                 const type 3
0D49  A22217F8           const [42]: (-132701534)
0D4D  03                 const type 3
0D4E  0000803F           const [43]: (0)
0D52  03                 const type 3
0D53  0000A040           const [44]: (0)
0D57  03                 const type 3
0D58  0000F041           const [45]: (0)
0D5C  03                 const type 3
0D5D  0000B442           const [46]: (0)
0D61  03                 const type 3
0D62  0000F042           const [47]: (0)
0D66  03                 const type 3
0D67  00001643           const [48]: (0)
0D6B  03                 const type 3
0D6C  0000C040           const [49]: (0)
0D70  03                 const type 3
0D71  00000041           const [50]: (0)
0D75  03                 const type 3
0D76  00004040           const [51]: (0)
0D7A  03                 const type 3
0D7B  00000040           const [52]: (0)
0D7F  03                 const type 3
0D80  00008040           const [53]: (0)
0D84  04                 const type 4
0D85  2F                 string size (47)
0D86  2F4C6F7475732F54+  "/Lotus/T"
0D8E  797065732F47616D+  "ypes/Gam"
0D96  652F50726F6A6563+  "e/Projec"
0D9E  74696F6E732F5431+  "tions/T1"
0DA6  566F696450726F6A+  "VoidProj"
0DAE  656374696F6E00     "ection\0"
                         const [54]: "/Lotus/Types/Game/Projections/T1VoidProjection"
0DB5  04                 const type 4
0DB6  2F                 string size (47)
0DB7  2F4C6F7475732F54+  "/Lotus/T"
0DBF  797065732F47616D+  "ypes/Gam"
0DC7  652F50726F6A6563+  "e/Projec"
0DCF  74696F6E732F5432+  "tions/T2"
0DD7  566F696450726F6A+  "VoidProj"
0DDF  656374696F6E00     "ection\0"
                         const [55]: "/Lotus/Types/Game/Projections/T2VoidProjection"
0DE6  04                 const type 4
0DE7  2F                 string size (47)
0DE8  2F4C6F7475732F54+  "/Lotus/T"
0DF0  797065732F47616D+  "ypes/Gam"
0DF8  652F50726F6A6563+  "e/Projec"
0E00  74696F6E732F5433+  "tions/T3"
0E08  566F696450726F6A+  "VoidProj"
0E10  656374696F6E00     "ection\0"
                         const [56]: "/Lotus/Types/Game/Projections/T3VoidProjection"
0E17  04                 const type 4
0E18  2F                 string size (47)
0E19  2F4C6F7475732F54+  "/Lotus/T"
0E21  797065732F47616D+  "ypes/Gam"
0E29  652F50726F6A6563+  "e/Projec"
0E31  74696F6E732F5434+  "tions/T4"
0E39  566F696450726F6A+  "VoidProj"
0E41  656374696F6E00     "ection\0"
                         const [57]: "/Lotus/Types/Game/Projections/T4VoidProjection"
0E48  04                 const type 4
0E49  05                 string size (5)
0E4A  5479706500         "Type\0"
                         const [58]: "Type"
0E4F  04                 const type 4
0E50  05                 string size (5)
0E51  47616D6500         "Game\0"
                         const [59]: "Game"
0E56  04                 const type 4
0E57  12                 string size (18)
0E58  4156415441525F48+  "AVATAR_H"
0E60  45414C54485F4D41+  "EALTH_MA"
0E68  5800               "X\0"
                         const [60]: "AVATAR_HEALTH_MAX"
0E6A  04                 const type 4
0E6B  03                 string size (3)
0E6C  4F7000             "Op\0"
                         const [61]: "Op"
0E6F  04                 const type 4
0E70  09                 string size (9)
0E71  4D554C5449504C59+  "MULTIPLY"
0E79  00                 "\0"
                         const [62]: "MULTIPLY"
0E7A  04                 const type 4
0E7B  04                 string size (4)
0E7C  56616C00           "Val\0"
                         const [63]: "Val"
0E80  04                 const type 4
0E81  0E                 string size (14)
0E82  4156415441525F41+  "AVATAR_A"
0E8A  524D4F555200       "RMOUR\0"
                         const [64]: "AVATAR_ARMOUR"
0E90  04                 const type 4
0E91  12                 string size (18)
0E92  4156415441525F53+  "AVATAR_S"
0E9A  4849454C445F4D41+  "HIELD_MA"
0EA2  5800               "X\0"
                         const [65]: "AVATAR_SHIELD_MAX"
0EA4  04                 const type 4
0EA5  15                 string size (21)
0EA6  574541504F4E5F44+  "WEAPON_D"
0EAE  414D4147455F414D+  "AMAGE_AM"
0EB6  4F554E5400         "OUNT\0"
                         const [66]: "WEAPON_DAMAGE_AMOUNT"
0EBB  04                 const type 4
0EBC  05                 string size (5)
0EBD  536C6F7400         "Slot\0"
                         const [67]: "Slot"
0EC2  04                 const type 4
0EC3  07                 string size (7)
0EC4  456E67696E6500     "Engine\0"
                         const [68]: "Engine"
0ECB  04                 const type 4
0ECC  07                 string size (7)
0ECD  534C4F545F3100     "SLOT_1\0"
                         const [69]: "SLOT_1"
0ED4  04                 const type 4
0ED5  09                 string size (9)
0ED6  5570677261646573+  "Upgrades"
0EDE  00                 "\0"
                         const [70]: "Upgrades"
0EDF  04                 const type 4
0EE0  19                 string size (25)
0EE1  574541504F4E5F41+  "WEAPON_A"
0EE9  4D4D4F5F434F4E53+  "MMO_CONS"
0EF1  554D455F52415445+  "UME_RATE"
0EF9  00                 "\0"
                         const [71]: "WEAPON_AMMO_CONSUME_RATE"
0EFA  03                 const type 3
0EFB  0000A03F           const [72]: (0)
0EFF  04                 const type 4
0F00  07                 string size (7)
0F01  534C4F545F3200     "SLOT_2\0"
                         const [73]: "SLOT_2"
0F08  04                 const type 4
0F09  07                 string size (7)
0F0A  534C4F545F3400     "SLOT_4\0"
                         const [74]: "SLOT_4"
0F11  04                 const type 4
0F12  15                 string size (21)
0F13  4156415441525F41+  "AVATAR_A"
0F1B  42494C4954595F52+  "BILITY_R"
0F23  414E474500         "ANGE\0"
                         const [75]: "AVATAR_ABILITY_RANGE"
0F28  04                 const type 4
0F29  18                 string size (24)
0F2A  4156415441525F41+  "AVATAR_A"
0F32  42494C4954595F53+  "BILITY_S"
0F3A  5452454E47544800   "TRENGTH\0"
                         const [76]: "AVATAR_ABILITY_STRENGTH"
0F42  04                 const type 4
0F43  07                 string size (7)
0F44  534C4F545F3600     "SLOT_6\0"
                         const [77]: "SLOT_6"
0F4B  04                 const type 4
0F4C  1D                 string size (29)
0F4D  574541504F4E5F43+  "WEAPON_C"
0F55  48414E4E454C494E+  "HANNELIN"
0F5D  475F454646494349+  "G_EFFICI"
0F65  454E435900         "ENCY\0"
                         const [78]: "WEAPON_CHANNELING_EFFICIENCY"
0F6A  04                 const type 4
0F6B  10                 string size (16)
0F6C  4F6E5069636B7570+  "OnPickup"
0F74  4372656174656400   "Created\0"
                         const [79]: "OnPickupCreated"
0F7C  01                 const type 3
0F7D  0836265E           const [80]: (1579562504)
0F81  04                 const type 4
0F82  11                 string size (17)
0F83  4F6E506C61796572+  "OnPlayer"
0F8B  734368616E676564+  "sChanged"
0F93  00                 "\0"
                         const [81]: "OnPlayersChanged"
0F94  01                 const type 3
0F95  51CEC21A           const [82]: (448974417)
0F99  04                 const type 4
0F9A  0D                 string size (13)
0F9B  436F727275707445+  "CorruptE"
0FA3  6E656D7900         "nemy\0"
                         const [83]: "CorruptEnemy"
0FA8  01                 const type 3
0FA9  06D1FDB8           const [84]: (-1191325434)
0FAD  04                 const type 4
0FAE  09                 string size (9)
0FAF  4F6E4B696C6C6564+  "OnKilled"
0FB7  00                 "\0"
                         const [85]: "OnKilled"
0FB8  01                 const type 3
0FB9  68A7CC3A           const [86]: (986490728)
0FBD  04                 const type 4
0FBE  10                 string size (16)
0FBF  4F6E5265736F7572+  "OnResour"
0FC7  6365526561647900   "ceReady\0"
                         const [87]: "OnResourceReady"
0FCF  01                 const type 3
0FD0  9EFC5676           const [88]: (1985412254)
0FD4  04                 const type 4
0FD5  09                 string size (9)
0FD6  566F696454656172+  "VoidTear"
0FDE  00                 "\0"
                         const [89]: "VoidTear"
0FDF  01                 const type 3
0FE0  FCA388BA           const [90]: (-1165450244)
0FE4  04                 const type 4
0FE5  0F                 string size (15)
0FE6  5069636B75704576+  "PickupEv"
0FEE  616C7561746500     "aluate\0"
                         const [91]: "PickupEvaluate"
0FF5  01                 const type 3
0FF6  D9DC1D7C           const [92]: (2082331865)
0FFA  04                 const type 4
0FFB  0F                 string size (15)
0FFC  5069636B75705265+  "PickupRe"
1004  616374616E7400     "actant\0"
                         const [93]: "PickupReactant"
100B  01                 const type 3
100C  AB3FD873           const [94]: (1943551915)
                         * functions:
1010  1B                 sizep (27)
                         
1011                     ** function [0] definition (level 2)
                         ** start of function **
1011  00                 string size (0)
                         source name: (none)
1013  01                 line defined (136)
1014  A7                 last line defined (167)
1015  01                 nups (0)
1016  00                 numparams (2)
1017  02                 is_vararg (0)
1018  00                 maxstacksize (13)
                         * code:
101A  46                 sizecode (70)
101B  A4004000           [01] self       2   0   256  ; -1813551355
101F  A2800001           [02] call       2   2   2  
1023  C6008001           [03] loadnil    3   3      
1027  1D410000           [04] getglobal  4   1        ; Engine
102B  0E814002           [05] gettable   4   4   258  ; "SLOT_1"
fail op	35
102F  23008100           [06] close      0  
1033  1A800080           [07] jmp        3            ; to [11]
1037  1DC10000           [08] getglobal  4   3        ; Lotus_Game
103B  CE004102           [09] gettable   3   4   260  ; "PISTOL_SLOT"
103F  1AC00480           [10] jmp        20           ; to [31]
1043  1D410000           [11] getglobal  4   1        ; Engine
1047  0E414102           [12] gettable   4   4   261  ; "SLOT_2"
fail op	35
104B  23008100           [13] close      0  
104F  1A800080           [14] jmp        3            ; to [18]
1053  1DC10000           [15] getglobal  4   3        ; Lotus_Game
1057  CE804102           [16] gettable   3   4   262  ; "LONG_GUN_SLOT"
105B  1A000380           [17] jmp        13           ; to [31]
105F  1D410000           [18] getglobal  4   1        ; Engine
1063  0EC14102           [19] gettable   4   4   263  ; "SLOT_4"
fail op	35
1067  23008100           [20] close      0  
106B  1A800080           [21] jmp        3            ; to [25]
106F  1DC10000           [22] getglobal  4   3        ; Lotus_Game
1073  CE004202           [23] gettable   3   4   264  ; "SUIT_SLOT"
1077  1A400180           [24] jmp        6            ; to [31]
107B  1D410000           [25] getglobal  4   1        ; Engine
107F  0E414202           [26] gettable   4   4   265  ; "SLOT_6"
fail op	35
1083  23008100           [27] close      0  
1087  1A400080           [28] jmp        2            ; to [31]
108B  1DC10000           [29] getglobal  4   3        ; Lotus_Game
108F  CE804202           [30] gettable   3   4   266  ; "MELEE_SLOT"
fail op	35
1093  23C0C201           [31] close      0  
1097  1A000180           [32] jmp        5            ; to [38]
109B  1D010300           [33] getglobal  4   12       ; -1817107093
109F  59410300           [34] loadk      5   13       ; "Bad slot passed to _GetWeapon!"
10A3  22410001           [35] call       4   2   1  
10A7  06010002           [36] loadnil    4   4      
10AB  1E010001           [37] return     4   2      
10AF  24814300           [38] self       4   0   270  ; 51109503
10B3  22810001           [39] call       4   2   2  
10B7  24C14302           [40] self       4   4   271  ; 1644212373
10BB  9DC10000           [41] getglobal  6   3        ; Lotus_Game
10BF  8E014403           [42] gettable   6   6   272  ; "LOT_NORMAL"
10C3  D2018001           [43] move       7   3      
10C7  22810002           [44] call       4   4   2  
10CB  0E414402           [45] gettable   4   4   273  ; "mItemType"
10CF  59810400           [46] loadk      5   18       ; 0
10D3  9D410000           [47] getglobal  6   1        ; Engine
10D7  8EC14403           [48] gettable   6   6   275  ; "INVALID"
10DB  D9810400           [49] loadk      7   18       ; 0
10DF  50C10380           [50] forprep    5   16       ; to [67]
10E3  64024501           [51] self       9   2   276  ; -1917464545
10E7  62820001           [52] call       9   2   2  
10EB  6442C504           [53] self       9   9   277  ; 1674984496
10EF  CD824404           [54] sub        11  8   274  ; 0
10F3  62828001           [55] call       9   3   2  
10F7  9D820500           [56] getglobal  10  22       ; 1074689893
10FB  D2028004           [57] move       11  9      
10FF  A2820001           [58] call       10  2   2  
1103  98420000           [59] test       10      1    ; to [61] if false
1107  1A400180           [60] jmp        6            ; to [67]
110B  A4C2C504           [61] self       10  9   279  ; -1957065004
110F  12030002           [62] move       12  4      
1113  A2828001           [63] call       10  3   2  
1117  98020000           [64] test       10      0    ; to [66] if true
111B  1A000080           [65] jmp        1            ; to [67]
111F  5E020001           [66] return     9   2      
1123  5481FB7F           [67] forloop    5   -17      ; to [51] if loop
1127  86020005           [68] loadnil    10  10     
112B  9E020001           [69] return     10  2      
112F  1E008000           [70] return     0   1      
                         * constants:
1133  18                 sizek (24)
1134  01                 const type 3
1135  0567E793           const [0]: (-1813551355)
1139  04                 const type 4
113A  07                 string size (7)
113B  456E67696E6500     "Engine\0"
                         const [1]: "Engine"
1142  04                 const type 4
1143  07                 string size (7)
1144  534C4F545F3100     "SLOT_1\0"
                         const [2]: "SLOT_1"
114B  04                 const type 4
114C  0B                 string size (11)
114D  4C6F7475735F4761+  "Lotus_Ga"
1155  6D6500             "me\0"
                         const [3]: "Lotus_Game"
1158  04                 const type 4
1159  0C                 string size (12)
115A  504953544F4C5F53+  "PISTOL_S"
1162  4C4F5400           "LOT\0"
                         const [4]: "PISTOL_SLOT"
1166  04                 const type 4
1167  07                 string size (7)
1168  534C4F545F3200     "SLOT_2\0"
                         const [5]: "SLOT_2"
116F  04                 const type 4
1170  0E                 string size (14)
1171  4C4F4E475F47554E+  "LONG_GUN"
1179  5F534C4F5400       "_SLOT\0"
                         const [6]: "LONG_GUN_SLOT"
117F  04                 const type 4
1180  07                 string size (7)
1181  534C4F545F3400     "SLOT_4\0"
                         const [7]: "SLOT_4"
1188  04                 const type 4
1189  0A                 string size (10)
118A  535549545F534C4F+  "SUIT_SLO"
1192  5400               "T\0"
                         const [8]: "SUIT_SLOT"
1194  04                 const type 4
1195  07                 string size (7)
1196  534C4F545F3600     "SLOT_6\0"
                         const [9]: "SLOT_6"
119D  04                 const type 4
119E  0B                 string size (11)
119F  4D454C45455F534C+  "MELEE_SL"
11A7  4F5400             "OT\0"
                         const [10]: "MELEE_SLOT"
11AA  00                 const type 0
                         const [11]: nil
11AB  01                 const type 3
11AC  6B25B193           const [12]: (-1817107093)
11B0  04                 const type 4
11B1  1F                 string size (31)
11B2  42616420736C6F74+  "Bad slot"
11BA  2070617373656420+  " passed "
11C2  746F205F47657457+  "to _GetW"
11CA  6561706F6E2100     "eapon!\0"
                         const [13]: "Bad slot passed to _GetWeapon!"
11D1  01                 const type 3
11D2  7FDE0B03           const [14]: (51109503)
11D6  01                 const type 3
11D7  95B00062           const [15]: (1644212373)
11DB  04                 const type 4
11DC  0B                 string size (11)
11DD  4C4F545F4E4F524D+  "LOT_NORM"
11E5  414C00             "AL\0"
                         const [16]: "LOT_NORMAL"
11E8  04                 const type 4
11E9  0A                 string size (10)
11EA  6D4974656D547970+  "mItemTyp"
11F2  6500               "e\0"
                         const [17]: "mItemType"
11F4  03                 const type 3
11F5  0000803F           const [18]: (0)
11F9  04                 const type 4
11FA  08                 string size (8)
11FB  494E56414C494400   "INVALID\0"
                         const [19]: "INVALID"
1203  01                 const type 3
1204  1FD0B58D           const [20]: (-1917464545)
1208  01                 const type 3
1209  303CD663           const [21]: (1674984496)
120D  01                 const type 3
120E  65770E40           const [22]: (1074689893)
1212  01                 const type 3
1213  D48E598B           const [23]: (-1957065004)
                         * functions:
1217  00                 sizep (0)
                         * lines:
1218  46                 sizelineinfo (70)
                         [pc] (line)
1219  89                 [01] (-119)
121A  00                 [02] (-119)
121B  00                 [03] (-117)
121C  00                 [04] (-116)
121D  89                 [05] (-116)
121E  00                 [06] (-116)
121F  00                 [07] (-116)
1220  00                 [08] (-115)
1221  8B                 [09] (-115)
1222  00                 [10] (-115)
1223  00                 [11] (-114)
1224  00                 [12] (-114)
1225  8C                 [13] (-114)
1226  00                 [14] (-114)
1227  00                 [15] (-113)
1228  00                 [16] (-113)
1229  8C                 [17] (-113)
122A  00                 [18] (-112)
122B  00                 [19] (-112)
122C  00                 [20] (-112)
122D  8C                 [21] (-112)
122E  00                 [22] (-111)
122F  00                 [23] (-111)
1230  00                 [24] (-111)
1231  8C                 [25] (-110)
1232  00                 [26] (-110)
1233  00                 [27] (-110)
1234  00                 [28] (-110)
1235  8D                 [29] (-109)
1236  00                 [30] (-109)
1237  00                 [31] (-106)
1238  00                 [32] (-106)
1239  8D                 [33] (-105)
123A  00                 [34] (-105)
123B  00                 [35] (-105)
123C  00                 [36] (-104)
123D  8D                 [37] (-104)
123E  00                 [38] (-98)
123F  00                 [39] (-98)
1240  00                 [40] (-98)
1241  8E                 [41] (-98)
1242  00                 [42] (-98)
1243  00                 [43] (-98)
1244  00                 [44] (-98)
1245  8E                 [45] (-98)
1246  00                 [46] (-97)
1247  00                 [47] (-97)
1248  00                 [48] (-97)
1249  8E                 [49] (-97)
124A  00                 [50] (-97)
124B  00                 [51] (-96)
124C  00                 [52] (-96)
124D  8E                 [53] (-96)
124E  00                 [54] (-96)
124F  00                 [55] (-96)
1250  00                 [56] (-95)
1251  8F                 [57] (-95)
1252  00                 [58] (-95)
1253  00                 [59] (-95)
1254  00                 [60] (-95)
1255  8F                 [61] (-95)
1256  00                 [62] (-95)
1257  00                 [63] (-95)
1258  00                 [64] (-95)
1259  8F                 [65] (-95)
125A  00                 [66] (-94)
125B  00                 [67] (-97)
125C  00                 [68] (-90)
125D  90                 [69] (-90)
125E  00                 [70] (-89)
                         * locals:
1331  00                 sizelocvars (0)
                         * upvalues:
1332  00                 sizeupvalues (0)
                         ** end of function **

                         
1333                     ** function [1] definition (level 2)
                         ** start of function **
1333  00                 string size (0)
                         source name: (none)
1335  01                 line defined (169)
1336  BB                 last line defined (187)
1337  01                 nups (1)
1338  01                 numparams (1)
1339  01                 is_vararg (0)
133A  00                 maxstacksize (7)
                         * code:
133C  26                 sizecode (38)
133D  5D000000           [01] getglobal  1   0        ; 1074689893
1341  92000000           [02] move       2   0      
1345  62800001           [03] call       1   2   2  
1349  58000000           [04] test       1       0    ; to [6] if true
134D  1A400080           [05] jmp        2            ; to [8]
1351  59400000           [06] loadk      1   1        ; 0
1355  5E000001           [07] return     1   2      
1359  64804000           [08] self       1   0   258  ; -1813551355
135D  62800001           [09] call       1   2   2  
1361  9D000000           [10] getglobal  2   0        ; 1074689893
1365  D2008000           [11] move       3   1      
1369  A2800001           [12] call       2   2   2  
136D  98000000           [13] test       2       0    ; to [15] if true
1371  1A400080           [14] jmp        2            ; to [17]
1375  99400000           [15] loadk      2   1        ; 0
1379  9E000001           [16] return     2   2      
137D  A4C0C000           [17] self       2   1   259  ; -1917464545
1381  A2800001           [18] call       2   2   2  
1385  A4004101           [19] self       2   2   260  ; 1025387940
1389  13010000           [20] getupval   4   0      
138D  A2808001           [21] call       2   3   2  
1391  E4404100           [22] self       3   0   261  ; -2135866365
1395  E2800001           [23] call       3   2   2  
1399  1D010000           [24] getglobal  4   0        ; 1074689893
139D  52018001           [25] move       5   3      
13A1  22810001           [26] call       4   2   2  
13A5  18410000           [27] test       4       1    ; to [29] if false
13A9  1AC00180           [28] jmp        8            ; to [37]
fail op	35
13AD  63408001           [29] close      1  
13B1  1A400180           [30] jmp        6            ; to [37]
13B5  24C1C001           [31] self       4   3   259  ; -1917464545
13B9  22810001           [32] call       4   2   2  
13BD  24014102           [33] self       4   4   260  ; 1025387940
13C1  93010000           [34] getupval   6   0      
13C5  22818001           [35] call       4   3   2  
13C9  83000101           [36] add        2   2   4  
13CD  9E000001           [37] return     2   2      
13D1  1E008000           [38] return     0   1      
                         * constants:
13D5  06                 sizek (6)
13D6  01                 const type 3
13D7  65770E40           const [0]: (1074689893)
13DB  03                 const type 3
13DC  00000000           const [1]: (0)
13E0  01                 const type 3
13E1  0567E793           const [2]: (-1813551355)
13E5  01                 const type 3
13E6  1FD0B58D           const [3]: (-1917464545)
13EA  01                 const type 3
13EB  A42D1E3D           const [4]: (1025387940)
13EF  01                 const type 3
13F0  0344B180           const [5]: (-2135866365)
                         * functions:
13F4  00                 sizep (0)
                         * lines:
13F5  26                 sizelineinfo (38)
                         [pc] (line)
13F6  AA                 [01] (-86)
13F7  00                 [02] (-86)
13F8  00                 [03] (-86)
13F9  00                 [04] (-86)
13FA  AA                 [05] (-86)
13FB  00                 [06] (-85)
13FC  00                 [07] (-85)
13FD  00                 [08] (-82)
13FE  AA                 [09] (-82)
13FF  00                 [10] (-81)
1400  00                 [11] (-81)
1401  00                 [12] (-81)
1402  AA                 [13] (-81)
1403  00                 [14] (-81)
1404  00                 [15] (-80)
1405  00                 [16] (-80)
1406  AA                 [17] (-77)
1407  00                 [18] (-77)
1408  00                 [19] (-77)
1409  00                 [20] (-77)
140A  AB                 [21] (-77)
140B  00                 [22] (-75)
140C  00                 [23] (-75)
140D  00                 [24] (-74)
140E  AB                 [25] (-74)
140F  00                 [26] (-74)
1410  00                 [27] (-74)
1411  00                 [28] (-74)
1412  AE                 [29] (-74)
1413  00                 [30] (-74)
1414  00                 [31] (-73)
1415  00                 [32] (-73)
1416  AE                 [33] (-73)
1417  00                 [34] (-73)
1418  00                 [35] (-73)
1419  00                 [36] (-73)
141A  AF                 [37] (-70)
141B  00                 [38] (-69)
                         * locals:
148E  00                 sizelocvars (0)
                         * upvalues:
148F  00                 sizeupvalues (0)
                         ** end of function **

                         
1490                     ** function [2] definition (level 2)
                         ** start of function **
1490  00                 string size (0)
                         source name: (none)
1492  01                 line defined (190)
1493  F2                 last line defined (242)
1494  01                 nups (2)
1495  02                 numparams (1)
1496  01                 is_vararg (0)
1497  00                 maxstacksize (14)
                         * code:
1499  7B                 sizecode (123)
149A  5D000000           [001] getglobal  1   0        ; gRegion
149E  6440C000           [002] self       1   1   257  ; -1520831144
14A2  62800001           [003] call       1   2   2  
14A6  58000000           [004] test       1       0    ; to [6] if true
14AA  1A800280           [005] jmp        11           ; to [17]
14AE  5D800000           [006] getglobal  1   2        ; 1074689893
14B2  9DC00000           [007] getglobal  2   3        ; _T
14B6  8E004101           [008] gettable   2   2   260  ; "PlayPickupTrans"
14BA  62800001           [009] call       1   2   2  
14BE  58400000           [010] test       1       1    ; to [12] if false
14C2  1A000180           [011] jmp        5            ; to [17]
14C6  5DC00000           [012] getglobal  1   3        ; _T
14CA  4E40C100           [013] gettable   1   1   261  ; 786091065
14CE  62408000           [014] call       1   1   1  
14D2  5DC00000           [015] getglobal  1   3        ; _T
14D6  4C804182           [016] settable   1   260 262  ; "PlayPickupTrans" nil
14DA  5D000000           [017] getglobal  1   0        ; gRegion
14DE  64C0C100           [018] self       1   1   263  ; 925677844
14E2  62800001           [019] call       1   2   2  
14E6  9D800000           [020] getglobal  2   2        ; 1074689893
14EA  D2008000           [021] move       3   1      
14EE  A2800001           [022] call       2   2   2  
14F2  98000000           [023] test       2       0    ; to [25] if true
14F6  1AC00080           [024] jmp        4            ; to [29]
14FA  9D000200           [025] getglobal  2   8        ; 538022378
14FE  D9400200           [026] loadk      3   9        ; 0
1502  A2400001           [027] call       2   2   1  
1506  1A80FD7F           [028] jmp        -9           ; to [20]
150A  A480C200           [029] self       2   1   266  ; -1813551355
150E  A2800001           [030] call       2   2   2  
1512  DD800000           [031] getglobal  3   2        ; 1074689893
1516  12010001           [032] move       4   2      
151A  E2800001           [033] call       3   2   2  
151E  D8000000           [034] test       3       0    ; to [36] if true
1522  1AC00280           [035] jmp        12           ; to [48]
1526  DD800000           [036] getglobal  3   2        ; 1074689893
152A  12010000           [037] move       4   0      
152E  E2800001           [038] call       3   2   2  
1532  D8400000           [039] test       3       1    ; to [41] if false
1536  1A800180           [040] jmp        7            ; to [48]
153A  DD000200           [041] getglobal  3   8        ; 538022378
153E  19410200           [042] loadk      4   9        ; 0
1542  E2400001           [043] call       3   2   1  
1546  E480C200           [044] self       3   1   266  ; -1813551355
154A  E2800001           [045] call       3   2   2  
154E  92008001           [046] move       2   3      
1552  1A80FB7F           [047] jmp        -17          ; to [31]
1556  DD800000           [048] getglobal  3   2        ; 1074689893
155A  12010000           [049] move       4   0      
155E  E2800001           [050] call       3   2   2  
1562  D8000000           [051] test       3       0    ; to [53] if true
1566  1A000080           [052] jmp        1            ; to [54]
156A  1E008000           [053] return     0   1      
156E  D9400200           [054] loadk      3   9        ; 0
1572  1D810000           [055] getglobal  4   2        ; 1074689893
1576  64C14200           [056] self       5   0   267  ; 930762077
157A  62010001           [057] call       5   2   0  
157E  22810000           [058] call       4   0   2  
1582  18010000           [059] test       4       0    ; to [61] if true
1586  1A400280           [060] jmp        10           ; to [71]
158A  1D010200           [061] getglobal  4   8        ; 538022378
158E  59410200           [062] loadk      5   9        ; 0
1592  22410001           [063] call       4   2   1  
1596  1D010300           [064] getglobal  4   12       ; 1289681407
159A  22818000           [065] call       4   1   2  
159E  C3008101           [066] add        3   3   4  
fail op	21
15A2  15C08086           [067] concat     0   269 3  
15A6  1A40FC7F           [068] jmp        -14          ; to [55]
15AA  1E008000           [069] return     0   1      
15AE  1AC0FB7F           [070] jmp        -16          ; to [55]
15B2  1D010000           [071] getglobal  4   0        ; gRegion
15B6  24414002           [072] self       4   4   257  ; -1520831144
15BA  22810001           [073] call       4   2   2  
15BE  18010000           [074] test       4       0    ; to [76] if true
15C2  1A400880           [075] jmp        34           ; to [110]
15C6  0B010000           [076] newtable   4   0   0    ; array=0, hash=0
15CA  5D010000           [077] getglobal  5   0        ; gRegion
15CE  6481C302           [078] self       5   5   270  ; 1224466847
15D2  62810001           [079] call       5   2   2  
15D6  9DC10300           [080] getglobal  6   15       ; 1672515847
15DA  D2018002           [081] move       7   5      
15DE  A2010101           [082] call       6   2   4  
15E2  1A800280           [083] jmp        11           ; to [95]
15E6  D3020000           [084] getupval   11  0      
15EA  12030005           [085] move       12  10     
15EE  E2820001           [086] call       11  2   2  
15F2  13038000           [087] getupval   12  1      
fail op	21
15F6  15008305           [088] concat     0   11  12 
15FA  1A000180           [089] jmp        5            ; to [95]
15FE  DD020400           [090] getglobal  11  16       ; table
1602  CE42C405           [091] gettable   11  11  273  ; -431682403
1606  12030002           [092] move       12  4      
160A  52030005           [093] move       13  10     
160E  E2428001           [094] call       11  3   1  
1612  96810000           [095] tforloop   6       2    ; to [97] if exit
1616  1A80FC7F           [096] jmp        -13          ; to [84]
161A  CA020002           [097] len        11  4      
fail op	35
161E  2340C205           [098] close      0  
1622  1A000180           [099] jmp        5            ; to [105]
1626  E4C24200           [100] self       11  0   267  ; 930762077
162A  E2820001           [101] call       11  2   2  
162E  E482C405           [102] self       11  11  274  ; -725453761
1632  E2420001           [103] call       11  2   1  
1636  1A000180           [104] jmp        5            ; to [110]
163A  E4C24200           [105] self       11  0   267  ; 930762077
163E  E2820001           [106] call       11  2   2  
1642  E4C2C405           [107] self       11  11  275  ; 1699949376
1646  52030002           [108] move       13  4      
164A  E2428001           [109] call       11  3   1  
164E  E4C24200           [110] self       11  0   267  ; 930762077
1652  E2820001           [111] call       11  2   2  
1656  E402C505           [112] self       11  11  276  ; -1625438872
165A  5D430500           [113] getglobal  13  21       ; gBaseMarkerInfoType
165E  E2828001           [114] call       11  3   2  
1662  13030000           [115] getupval   12  0      
1666  52038000           [116] move       13  1      
166A  22830001           [117] call       12  2   2  
166E  53038000           [118] getupval   13  1      
fail op	21
1672  15400306           [119] concat     0   12  13 
1676  1A400080           [120] jmp        2            ; to [123]
167A  2483C505           [121] self       12  11  278  ; -974578778
167E  22430001           [122] call       12  2   1  
1682  1E008000           [123] return     0   1      
                         * constants:
1686  17                 sizek (23)
1687  04                 const type 4
1688  08                 string size (8)
1689  67526567696F6E00   "gRegion\0"
                         const [0]: "gRegion"
1691  01                 const type 3
1692  58F559A5           const [1]: (-1520831144)
1696  01                 const type 3
1697  65770E40           const [2]: (1074689893)
169B  04                 const type 4
169C  03                 string size (3)
169D  5F5400             "_T\0"
                         const [3]: "_T"
16A0  04                 const type 4
16A1  10                 string size (16)
16A2  506C61795069636B+  "PlayPick"
16AA  75705472616E7300   "upTrans\0"
                         const [4]: "PlayPickupTrans"
16B2  01                 const type 3
16B3  39CCDA2E           const [5]: (786091065)
16B7  00                 const type 0
                         const [6]: nil
16B8  01                 const type 3
16B9  14B92C37           const [7]: (925677844)
16BD  01                 const type 3
16BE  EA911120           const [8]: (538022378)
16C2  03                 const type 3
16C3  00000000           const [9]: (0)
16C7  01                 const type 3
16C8  0567E793           const [10]: (-1813551355)
16CC  01                 const type 3
16CD  5D4D7A37           const [11]: (930762077)
16D1  01                 const type 3
16D2  FFF9DE4C           const [12]: (1289681407)
16D6  03                 const type 3
16D7  0000803F           const [13]: (0)
16DB  01                 const type 3
16DC  9FE1FB48           const [14]: (1224466847)
16E0  01                 const type 3
16E1  0791B063           const [15]: (1672515847)
16E5  04                 const type 4
16E6  06                 string size (6)
16E7  7461626C6500       "table\0"
                         const [16]: "table"
16ED  01                 const type 3
16EE  9D0C45E6           const [17]: (-431682403)
16F2  01                 const type 3
16F3  3F74C2D4           const [18]: (-725453761)
16F7  01                 const type 3
16F8  402B5365           const [19]: (1699949376)
16FC  01                 const type 3
16FD  68C51D9F           const [20]: (-1625438872)
1701  04                 const type 4
1702  14                 string size (20)
1703  67426173654D6172+  "gBaseMar"
170B  6B6572496E666F54+  "kerInfoT"
1713  79706500           "ype\0"
                         const [21]: "gBaseMarkerInfoType"
1717  01                 const type 3
1718  A61BE9C5           const [22]: (-974578778)
                         * functions:
171C  00                 sizep (0)
                         * lines:
171D  7B                 sizelineinfo (123)
                         [pc] (line)
171E  BF                 [001] (-65)
171F  00                 [002] (-65)
1720  00                 [003] (-65)
1721  00                 [004] (-65)
1722  BF                 [005] (-65)
1723  00                 [006] (-65)
1724  00                 [007] (-65)
1725  00                 [008] (-65)
1726  BF                 [009] (-65)
1727  00                 [010] (-65)
1728  00                 [011] (-65)
1729  00                 [012] (-64)
172A  BF                 [013] (-64)
172B  00                 [014] (-64)
172C  00                 [015] (-63)
172D  00                 [016] (-63)
172E  BF                 [017] (-60)
172F  00                 [018] (-60)
1730  00                 [019] (-60)
1731  00                 [020] (-59)
1732  BF                 [021] (-59)
1733  00                 [022] (-59)
1734  00                 [023] (-59)
1735  00                 [024] (-59)
1736  BF                 [025] (-58)
1737  00                 [026] (-58)
1738  00                 [027] (-58)
1739  00                 [028] (-58)
173A  BF                 [029] (-55)
173B  00                 [030] (-55)
173C  00                 [031] (-54)
173D  00                 [032] (-54)
173E  BF                 [033] (-54)
173F  00                 [034] (-54)
1740  00                 [035] (-54)
1741  00                 [036] (-54)
1742  BF                 [037] (-54)
1743  00                 [038] (-54)
1744  00                 [039] (-54)
1745  00                 [040] (-54)
1746  BF                 [041] (-53)
1747  00                 [042] (-53)
1748  00                 [043] (-53)
1749  00                 [044] (-52)
174A  C0                 [045] (-52)
174B  00                 [046] (-52)
174C  00                 [047] (-52)
174D  00                 [048] (-49)
174E  C0                 [049] (-49)
174F  00                 [050] (-49)
1750  00                 [051] (-49)
1751  00                 [052] (-49)
1752  C0                 [053] (-48)
1753  00                 [054] (-45)
1754  00                 [055] (-44)
1755  00                 [056] (-44)
1756  C1                 [057] (-44)
1757  00                 [058] (-44)
1758  00                 [059] (-44)
1759  00                 [060] (-44)
175A  C1                 [061] (-43)
175B  00                 [062] (-43)
175C  00                 [063] (-43)
175D  00                 [064] (-42)
175E  C4                 [065] (-42)
175F  00                 [066] (-42)
1760  00                 [067] (-41)
1761  00                 [068] (-41)
1762  C4                 [069] (-40)
1763  00                 [070] (-39)
1764  00                 [071] (-36)
1765  00                 [072] (-36)
1766  C4                 [073] (-36)
1767  00                 [074] (-36)
1768  00                 [075] (-36)
1769  00                 [076] (-35)
176A  C5                 [077] (-33)
176B  00                 [078] (-33)
176C  00                 [079] (-33)
176D  00                 [080] (-32)
176E  C5                 [081] (-32)
176F  00                 [082] (-32)
1770  00                 [083] (-32)
1771  00                 [084] (-31)
1772  C5                 [085] (-31)
1773  00                 [086] (-31)
1774  00                 [087] (-31)
1775  00                 [088] (-31)
1776  C5                 [089] (-31)
1777  00                 [090] (-30)
1778  00                 [091] (-30)
1779  00                 [092] (-30)
177A  C5                 [093] (-30)
177B  00                 [094] (-30)
177C  00                 [095] (-32)
177D  00                 [096] (-29)
177E  C6                 [097] (-26)
177F  00                 [098] (-26)
1780  00                 [099] (-26)
1781  00                 [100] (-25)
1782  C6                 [101] (-25)
1783  00                 [102] (-25)
1784  00                 [103] (-25)
1785  00                 [104] (-25)
1786  C6                 [105] (-23)
1787  00                 [106] (-23)
1788  00                 [107] (-23)
1789  00                 [108] (-23)
178A  C6                 [109] (-23)
178B  00                 [110] (-18)
178C  00                 [111] (-18)
178D  00                 [112] (-18)
178E  C9                 [113] (-18)
178F  00                 [114] (-18)
1790  00                 [115] (-17)
1791  00                 [116] (-17)
1792  C9                 [117] (-17)
1793  00                 [118] (-17)
1794  00                 [119] (-17)
1795  00                 [120] (-17)
1796  CA                 [121] (-16)
1797  00                 [122] (-16)
1798  00                 [123] (-14)
                         * locals:
190A  00                 sizelocvars (0)
                         * upvalues:
190B  00                 sizeupvalues (0)
                         ** end of function **

                         
190C                     ** function [3] definition (level 2)
                         ** start of function **
190C  00                 string size (0)
                         source name: (none)
190E  01                 line defined (244)
190F  FC                 last line defined (252)
1910  01                 nups (3)
1911  03                 numparams (1)
1912  01                 is_vararg (0)
1913  00                 maxstacksize (7)
                         * code:
1915  17                 sizecode (23)
1916  5D000000           [01] getglobal  1   0        ; Lotus_Game
191A  4E40C000           [02] gettable   1   1   257  ; -84065502
191E  62808000           [03] call       1   1   2  
1922  4C000081           [04] settable   1   258 0    ; "instigator"
1926  8B008000           [05] newtable   2   1   0    ; array=1, hash=0
192A  D2000000           [06] move       3   0      
192E  9B408000           [07] setlist    2   1   1    ; index 1 to 1
1932  4C808081           [08] settable   1   259 2    ; "affected"
1936  9D000000           [09] getglobal  2   0        ; Lotus_Game
193A  8E404101           [10] gettable   2   2   261  ; "BT_TIMER"
193E  4C800082           [11] settable   1   260 2    ; "buffType"
1942  93000000           [12] getupval   2   0      
1946  D3008000           [13] getupval   3   1      
194A  8EC00001           [14] gettable   2   2   3  
194E  4C800083           [15] settable   1   262 2    ; "buffData"
1952  93000001           [16] getupval   2   2      
1956  4C808083           [17] settable   1   263 2    ; "abilityType"
195A  A4004200           [18] self       2   0   264  ; 1481577430
195E  12018000           [19] move       4   1      
1962  57018000           [20] loadbool   5   1   0    ; true
1966  97010000           [21] loadbool   6   0   0    ; false
196A  A2408002           [22] call       2   5   1  
196E  1E008000           [23] return     0   1      
                         * constants:
1972  09                 sizek (9)
1973  04                 const type 4
1974  0B                 string size (11)
1975  4C6F7475735F4761+  "Lotus_Ga"
197D  6D6500             "me\0"
                         const [0]: "Lotus_Game"
1980  01                 const type 3
1981  2243FDFA           const [1]: (-84065502)
1985  04                 const type 4
1986  0B                 string size (11)
1987  696E737469676174+  "instigat"
198F  6F7200             "or\0"
                         const [2]: "instigator"
1992  04                 const type 4
1993  09                 string size (9)
1994  6166666563746564+  "affected"
199C  00                 "\0"
                         const [3]: "affected"
199D  04                 const type 4
199E  09                 string size (9)
199F  6275666654797065+  "buffType"
19A7  00                 "\0"
                         const [4]: "buffType"
19A8  04                 const type 4
19A9  09                 string size (9)
19AA  42545F54494D4552+  "BT_TIMER"
19B2  00                 "\0"
                         const [5]: "BT_TIMER"
19B3  04                 const type 4
19B4  09                 string size (9)
19B5  6275666644617461+  "buffData"
19BD  00                 "\0"
                         const [6]: "buffData"
19BE  04                 const type 4
19BF  0C                 string size (12)
19C0  6162696C69747954+  "abilityT"
19C8  79706500           "ype\0"
                         const [7]: "abilityType"
19CC  01                 const type 3
19CD  D6134F58           const [8]: (1481577430)
                         * functions:
19D1  00                 sizep (0)
                         * lines:
19D2  17                 sizelineinfo (23)
                         [pc] (line)
19D3  F5                 [01] (-11)
19D4  00                 [02] (-11)
19D5  00                 [03] (-11)
19D6  00                 [04] (-10)
19D7  F5                 [05] (-9)
19D8  00                 [06] (-9)
19D9  00                 [07] (-9)
19DA  00                 [08] (-9)
19DB  F5                 [09] (-8)
19DC  00                 [10] (-8)
19DD  00                 [11] (-8)
19DE  00                 [12] (-7)
19DF  F6                 [13] (-7)
19E0  00                 [14] (-7)
19E1  00                 [15] (-7)
19E2  00                 [16] (-6)
19E3  F7                 [17] (-6)
19E4  00                 [18] (-5)
19E5  00                 [19] (-5)
19E6  00                 [20] (-5)
19E7  F7                 [21] (-5)
19E8  00                 [22] (-5)
19E9  00                 [23] (-4)
                         * locals:
1A2F  00                 sizelocvars (0)
                         * upvalues:
1A30  00                 sizeupvalues (0)
                         ** end of function **

                         
1A31                     ** function [4] definition (level 2)
                         ** start of function **
1A31  00                 string size (0)
                         source name: (none)
1A33  01                 line defined (255)
1A34  8C                 last line defined (268)
1A35  02                 nups (5)
1A36  05                 numparams (0)
1A37  00                 is_vararg (0)
1A38  00                 maxstacksize (14)
                         * code:
1A3A  31                 sizecode (49)
1A3B  1D000000           [01] getglobal  0   0        ; 1672515847
1A3F  53000000           [02] getupval   1   0      
1A43  22000101           [03] call       0   2   4  
1A47  1A400A80           [04] jmp        42           ; to [47]
1A4B  5D010000           [05] getglobal  5   0        ; 1672515847
1A4F  93018000           [06] getupval   6   1      
1A53  62010101           [07] call       5   2   4  
1A57  1AC00880           [08] jmp        36           ; to [45]
1A5B  9D420000           [09] getglobal  10  1        ; -332969190
1A5F  E4824002           [10] self       11  4   258  ; 340404473
1A63  E2820001           [11] call       11  2   2  
1A67  1DC30000           [12] getglobal  12  3        ; -1615931716
1A6B  52038004           [13] move       13  9      
1A6F  22830001           [14] call       12  2   2  
1A73  C2028305           [15] concat     11  11  12 
1A77  A2820001           [16] call       10  2   2  
1A7B  D3020001           [17] getupval   11  2      
1A7F  E402C105           [18] self       11  11  260  ; -414383436
1A83  52030005           [19] move       13  10     
1A87  E2828001           [20] call       11  3   2  
1A8B  D8020000           [21] test       11      0    ; to [23] if true
1A8F  1A400580           [22] jmp        22           ; to [45]
1A93  D3020001           [23] getupval   11  2      
1A97  E442C105           [24] self       11  11  261  ; 1157879449
1A9B  52030005           [25] move       13  10     
1A9F  E2828001           [26] call       11  3   2  
fail op	21
1AA3  15C00283           [27] concat     0   262 11 
1AA7  1AC00380           [28] jmp        16           ; to [45]
1AAB  D3028001           [29] getupval   11  3      
1AAF  CEC2C105           [30] gettable   11  11  263  ; 439703155
1AB3  13030002           [31] getupval   12  4      
1AB7  4B830000           [32] newtable   13  0   2    ; array=0, hash=2
1ABB  4C030184           [33] settable   13  264 4    ; "Player"
1ABF  4C438284           [34] settable   13  265 9    ; "Slot"
1AC3  E2828001           [35] call       11  3   2  
fail op	33
1AC7  2180C105           [36] tforloop   0       262  ; to [38] if exit
1ACB  1A800180           [37] jmp        7            ; to [45]
1ACF  DD820200           [38] getglobal  11  10       ; table
1AD3  CEC2C205           [39] gettable   11  11  267  ; -431682403
1AD7  13030002           [40] getupval   12  4      
1ADB  4B830000           [41] newtable   13  0   2    ; array=0, hash=2
1ADF  4C030184           [42] settable   13  264 4    ; "Player"
1AE3  4C438284           [43] settable   13  265 9    ; "Slot"
1AE7  E2428001           [44] call       11  3   1  
1AEB  56810000           [45] tforloop   5       2    ; to [47] if exit
1AEF  1A40F67F           [46] jmp        -38          ; to [9]
1AF3  16800000           [47] tforloop   0       2    ; to [49] if exit
1AF7  1AC0F47F           [48] jmp        -44          ; to [5]
1AFB  1E008000           [49] return     0   1      
                         * constants:
1AFF  0C                 sizek (12)
1B00  01                 const type 3
1B01  0791B063           const [0]: (1672515847)
1B05  01                 const type 3
1B06  1A4B27EC           const [1]: (-332969190)
1B0A  01                 const type 3
1B0B  F9284A14           const [2]: (340404473)
1B0F  01                 const type 3
1B10  BCD6AE9F           const [3]: (-1615931716)
1B14  01                 const type 3
1B15  B4024DE7           const [4]: (-414383436)
1B19  01                 const type 3
1B1A  99D60345           const [5]: (1157879449)
1B1E  03                 const type 3
1B1F  00000000           const [6]: (0)
1B23  01                 const type 3
1B24  7356351A           const [7]: (439703155)
1B28  04                 const type 4
1B29  07                 string size (7)
1B2A  506C6179657200     "Player\0"
                         const [8]: "Player"
1B31  04                 const type 4
1B32  05                 string size (5)
1B33  536C6F7400         "Slot\0"
                         const [9]: "Slot"
1B38  04                 const type 4
1B39  06                 string size (6)
1B3A  7461626C6500       "table\0"
                         const [10]: "table"
1B40  01                 const type 3
1B41  9D0C45E6           const [11]: (-431682403)
                         * functions:
1B45  00                 sizep (0)
                         * lines:
1B46  31                 sizelineinfo (49)
                         [pc] (line)
1B47  00                 [01] (0)
1B48  01                 [02] (0)
1B49  00                 [03] (0)
1B4A  00                 [04] (0)
1B4B  00                 [05] (1)
1B4C  01                 [06] (1)
1B4D  00                 [07] (1)
1B4E  00                 [08] (1)
1B4F  00                 [09] (2)
1B50  01                 [10] (2)
1B51  00                 [11] (2)
1B52  00                 [12] (2)
1B53  00                 [13] (2)
1B54  01                 [14] (2)
1B55  00                 [15] (2)
1B56  00                 [16] (2)
1B57  01                 [17] (4)
1B58  01                 [18] (4)
1B59  00                 [19] (4)
1B5A  00                 [20] (4)
1B5B  01                 [21] (4)
1B5C  01                 [22] (4)
1B5D  00                 [23] (5)
1B5E  00                 [24] (5)
1B5F  01                 [25] (5)
1B60  01                 [26] (5)
1B61  00                 [27] (5)
1B62  00                 [28] (5)
1B63  01                 [29] (6)
1B64  01                 [30] (6)
1B65  00                 [31] (6)
1B66  00                 [32] (6)
1B67  02                 [33] (6)
1B68  01                 [34] (6)
1B69  00                 [35] (6)
1B6A  00                 [36] (6)
1B6B  02                 [37] (6)
1B6C  01                 [38] (8)
1B6D  00                 [39] (8)
1B6E  00                 [40] (8)
1B6F  02                 [41] (8)
1B70  01                 [42] (8)
1B71  00                 [43] (8)
1B72  00                 [44] (8)
1B73  02                 [45] (1)
1B74  01                 [46] (9)
1B75  00                 [47] (0)
1B76  00                 [48] (10)
1B77  02                 [49] (12)
                         * locals:
1C0B  00                 sizelocvars (0)
                         * upvalues:
1C0C  00                 sizeupvalues (0)
                         ** end of function **

                         
1C0D                     ** function [5] definition (level 2)
                         ** start of function **
1C0D  00                 string size (0)
                         source name: (none)
1C0F  02                 line defined (270)
1C10  9B                 last line defined (283)
1C11  02                 nups (2)
1C12  02                 numparams (0)
1C13  00                 is_vararg (0)
1C14  00                 maxstacksize (10)
                         * code:
1C16  2B                 sizecode (43)
1C17  1D000000           [01] getglobal  0   0        ; 1672515847
1C1B  53000000           [02] getupval   1   0      
1C1F  22000101           [03] call       0   2   4  
1C23  1AC00880           [04] jmp        36           ; to [41]
1C27  64414002           [05] self       5   4   257  ; 340404473
1C2B  62810001           [06] call       5   2   2  
1C2F  93018000           [07] getupval   6   1      
1C33  8E410103           [08] gettable   6   6   5  
fail op	35
1C37  63804003           [09] close      1  
1C3B  1AC00080           [10] jmp        4            ; to [15]
1C3F  93018000           [11] getupval   6   1      
1C43  8E410103           [12] gettable   6   6   5  
fail op	35
1C47  23C04003           [13] close      0  
1C4B  1A400680           [14] jmp        26           ; to [41]
1C4F  9D010100           [15] getglobal  6   4        ; 1074689893
1C53  E4414102           [16] self       7   4   261  ; -1813551355
1C57  E2010001           [17] call       7   2   0  
1C5B  A2810000           [18] call       6   0   2  
1C5F  98410000           [19] test       6       1    ; to [21] if false
1C63  1AC00480           [20] jmp        20           ; to [41]
1C67  A4814102           [21] self       6   4   262  ; 1283871032
1C6B  A2810001           [22] call       6   2   2  
1C6F  98010000           [23] test       6       0    ; to [25] if true
1C73  1AC00380           [24] jmp        16           ; to [41]
1C77  93018000           [25] getupval   6   1      
1C7B  8CC1C102           [26] settable   6   5   263  ; 1
1C7F  A4014202           [27] self       6   4   264  ; 51109503
1C83  A2810001           [28] call       6   2   2  
1C87  DD010100           [29] getglobal  7   4        ; 1074689893
1C8B  0E424203           [30] gettable   8   6   265  ; "mActiveVoidProjection"
1C8F  E2810001           [31] call       7   2   2  
1C93  D8410000           [32] test       7       1    ; to [34] if false
1C97  1A800180           [33] jmp        7            ; to [41]
1C9B  E4414102           [34] self       7   4   261  ; -1813551355
1C9F  E2810001           [35] call       7   2   2  
1CA3  E481C203           [36] self       7   7   266  ; -1917464545
1CA7  E2810001           [37] call       7   2   2  
1CAB  E4C1C203           [38] self       7   7   267  ; -1721614150
1CAF  4E424203           [39] gettable   9   6   265  ; "mActiveVoidProjection"
1CB3  E2418001           [40] call       7   3   1  
1CB7  16800000           [41] tforloop   0       2    ; to [43] if exit
1CBB  1A40F67F           [42] jmp        -38          ; to [5]
1CBF  1E008000           [43] return     0   1      
                         * constants:
1CC3  0C                 sizek (12)
1CC4  01                 const type 3
1CC5  0791B063           const [0]: (1672515847)
1CC9  01                 const type 3
1CCA  F9284A14           const [1]: (340404473)
1CCE  00                 const type 0
                         const [2]: nil
1CCF  01                 const type 3
1CD0  00000000           const [3]: (0)
1CD4  01                 const type 3
1CD5  65770E40           const [4]: (1074689893)
1CD9  01                 const type 3
1CDA  0567E793           const [5]: (-1813551355)
1CDE  01                 const type 3
1CDF  3851864C           const [6]: (1283871032)
1CE3  01                 const type 3
1CE4  01000000           const [7]: (1)
1CE8  01                 const type 3
1CE9  7FDE0B03           const [8]: (51109503)
1CED  04                 const type 4
1CEE  16                 string size (22)
1CEF  6D41637469766556+  "mActiveV"
1CF7  6F696450726F6A65+  "oidProje"
1CFF  6374696F6E00       "ction\0"
                         const [9]: "mActiveVoidProjection"
1D05  01                 const type 3
1D06  1FD0B58D           const [10]: (-1917464545)
1D0A  01                 const type 3
1D0B  BA406299           const [11]: (-1721614150)
                         * functions:
1D0F  00                 sizep (0)
                         * lines:
1D10  2B                 sizelineinfo (43)
                         [pc] (line)
1D11  0F                 [01] (15)
1D12  01                 [02] (15)
1D13  00                 [03] (15)
1D14  00                 [04] (15)
1D15  0F                 [05] (16)
1D16  01                 [06] (16)
1D17  00                 [07] (17)
1D18  00                 [08] (17)
1D19  0F                 [09] (17)
1D1A  01                 [10] (17)
1D1B  00                 [11] (17)
1D1C  00                 [12] (17)
1D1D  0F                 [13] (17)
1D1E  01                 [14] (17)
1D1F  00                 [15] (18)
1D20  00                 [16] (18)
1D21  10                 [17] (18)
1D22  01                 [18] (18)
1D23  00                 [19] (18)
1D24  00                 [20] (18)
1D25  10                 [21] (18)
1D26  01                 [22] (18)
1D27  00                 [23] (18)
1D28  00                 [24] (18)
1D29  11                 [25] (19)
1D2A  01                 [26] (19)
1D2B  00                 [27] (20)
1D2C  00                 [28] (20)
1D2D  11                 [29] (21)
1D2E  01                 [30] (21)
1D2F  00                 [31] (21)
1D30  00                 [32] (21)
1D31  11                 [33] (21)
1D32  01                 [34] (22)
1D33  00                 [35] (22)
1D34  00                 [36] (22)
1D35  11                 [37] (22)
1D36  01                 [38] (22)
1D37  00                 [39] (22)
1D38  00                 [40] (22)
1D39  11                 [41] (15)
1D3A  01                 [42] (25)
1D3B  00                 [43] (27)
                         * locals:
1DBD  00                 sizelocvars (0)
                         * upvalues:
1DBE  00                 sizeupvalues (0)
                         ** end of function **

                         
1DBF                     ** function [6] definition (level 2)
                         ** start of function **
1DBF  00                 string size (0)
                         source name: (none)
1DC1  02                 line defined (285)
1DC2  B6                 last line defined (310)
1DC3  02                 nups (3)
1DC4  03                 numparams (3)
1DC5  03                 is_vararg (0)
1DC6  00                 maxstacksize (11)
                         * code:
1DC8  3E                 sizecode (62)
1DC9  DD000000           [01] getglobal  3   0        ; 1074689893
1DCD  12010000           [02] move       4   0      
1DD1  E2800001           [03] call       3   2   2  
1DD5  D8400000           [04] test       3       1    ; to [6] if false
1DD9  1A400280           [05] jmp        10           ; to [16]
1DDD  DD000000           [06] getglobal  3   0        ; 1074689893
1DE1  12010001           [07] move       4   2      
1DE5  E2800001           [08] call       3   2   2  
1DE9  D8400000           [09] test       3       1    ; to [11] if false
1DED  1A000180           [10] jmp        5            ; to [16]
1DF1  DD000000           [11] getglobal  3   0        ; 1074689893
1DF5  0E414001           [12] gettable   4   2   257  ; 0
1DF9  E2800001           [13] call       3   2   2  
1DFD  D8000000           [14] test       3       0    ; to [16] if true
1E01  1A000080           [15] jmp        1            ; to [17]
1E05  1E008000           [16] return     0   1      
1E09  CE404001           [17] gettable   3   2   257  ; 0
1E0D  E480C001           [18] self       3   3   258  ; -1764426596
1E11  E2800001           [19] call       3   2   2  
1E15  1DC10000           [20] getglobal  4   3        ; Lotus_Game
1E19  0E014102           [21] gettable   4   4   260  ; -84065502
1E1D  22818000           [22] call       4   1   2  
1E21  0C018082           [23] settable   4   261 0    ; "instigator"
1E25  0C810083           [24] settable   4   262 2    ; "affected"
1E29  5DC10000           [25] getglobal  5   3        ; Lotus_Game
1E2D  4E01C202           [26] gettable   5   5   264  ; "BT_AMOUNT"
1E31  0C418183           [27] settable   4   263 5    ; "buffType"
1E35  5D410200           [28] getglobal  5   9        ; math
1E39  4E81C202           [29] gettable   5   5   266  ; 1710846250
1E3D  93010000           [30] getupval   6   0      
1E41  D3018000           [31] getupval   7   1      
1E45  12028001           [32] move       8   3      
1E49  E2010001           [33] call       7   2   0  
1E4D  62810000           [34] call       5   0   2  
1E51  0C418185           [35] settable   4   267 5    ; "buffData"
1E55  93010001           [36] getupval   6   2      
1E59  0C810186           [37] settable   4   268 6    ; "abilityType"
1E5D  9D010000           [38] getglobal  6   0        ; 1074689893
1E61  D2018001           [39] move       7   3      
1E65  A2810001           [40] call       6   2   2  
1E69  98410000           [41] test       6       1    ; to [43] if false
1E6D  1A800080           [42] jmp        3            ; to [46]
1E71  A481C301           [43] self       6   3   270  ; 1808941484
1E75  A2810001           [44] call       6   2   2  
1E79  0C818186           [45] settable   4   269 6    ; "buffId"
1E7D  A4C14300           [46] self       6   0   271  ; 1481577430
1E81  12020002           [47] move       8   4      
1E85  57028000           [48] loadbool   9   1   0    ; true
1E89  97020000           [49] loadbool   10  0   0    ; false
1E8D  A2418002           [50] call       6   5   1  
1E91  9D010000           [51] getglobal  6   0        ; 1074689893
1E95  D2018000           [52] move       7   1      
1E99  A2810001           [53] call       6   2   2  
1E9D  98410000           [54] test       6       1    ; to [56] if false
1EA1  1A400180           [55] jmp        6            ; to [62]
1EA5  0C418082           [56] settable   4   261 1    ; "instigator"
1EA9  A4C1C300           [57] self       6   1   271  ; 1481577430
1EAD  12020002           [58] move       8   4      
1EB1  57028000           [59] loadbool   9   1   0    ; true
1EB5  97020000           [60] loadbool   10  0   0    ; false
1EB9  A2418002           [61] call       6   5   1  
1EBD  1E008000           [62] return     0   1      
                         * constants:
1EC1  10                 sizek (16)
1EC2  01                 const type 3
1EC3  65770E40           const [0]: (1074689893)
1EC7  03                 const type 3
1EC8  0000803F           const [1]: (0)
1ECC  01                 const type 3
1ECD  9CFCD496           const [2]: (-1764426596)
1ED1  04                 const type 4
1ED2  0B                 string size (11)
1ED3  4C6F7475735F4761+  "Lotus_Ga"
1EDB  6D6500             "me\0"
                         const [3]: "Lotus_Game"
1EDE  01                 const type 3
1EDF  2243FDFA           const [4]: (-84065502)
1EE3  04                 const type 4
1EE4  0B                 string size (11)
1EE5  696E737469676174+  "instigat"
1EED  6F7200             "or\0"
                         const [5]: "instigator"
1EF0  04                 const type 4
1EF1  09                 string size (9)
1EF2  6166666563746564+  "affected"
1EFA  00                 "\0"
                         const [6]: "affected"
1EFB  04                 const type 4
1EFC  09                 string size (9)
1EFD  6275666654797065+  "buffType"
1F05  00                 "\0"
                         const [7]: "buffType"
1F06  04                 const type 4
1F07  0A                 string size (10)
1F08  42545F414D4F554E+  "BT_AMOUN"
1F10  5400               "T\0"
                         const [8]: "BT_AMOUNT"
1F12  04                 const type 4
1F13  05                 string size (5)
1F14  6D61746800         "math\0"
                         const [9]: "math"
1F19  01                 const type 3
1F1A  2A71F965           const [10]: (1710846250)
1F1E  04                 const type 4
1F1F  09                 string size (9)
1F20  6275666644617461+  "buffData"
1F28  00                 "\0"
                         const [11]: "buffData"
1F29  04                 const type 4
1F2A  0C                 string size (12)
1F2B  6162696C69747954+  "abilityT"
1F33  79706500           "ype\0"
                         const [12]: "abilityType"
1F37  04                 const type 4
1F38  07                 string size (7)
1F39  62756666496400     "buffId\0"
                         const [13]: "buffId"
1F40  01                 const type 3
1F41  AC41D26B           const [14]: (1808941484)
1F45  01                 const type 3
1F46  D6134F58           const [15]: (1481577430)
                         * functions:
1F4A  00                 sizep (0)
                         * lines:
1F4B  3E                 sizelineinfo (62)
                         [pc] (line)
1F4C  1E                 [01] (30)
1F4D  01                 [02] (30)
1F4E  00                 [03] (30)
1F4F  00                 [04] (30)
1F50  1E                 [05] (30)
1F51  01                 [06] (30)
1F52  00                 [07] (30)
1F53  00                 [08] (30)
1F54  1E                 [09] (30)
1F55  01                 [10] (30)
1F56  00                 [11] (30)
1F57  00                 [12] (30)
1F58  1E                 [13] (30)
1F59  01                 [14] (30)
1F5A  00                 [15] (30)
1F5B  00                 [16] (31)
1F5C  1E                 [17] (34)
1F5D  01                 [18] (34)
1F5E  00                 [19] (34)
1F5F  00                 [20] (35)
1F60  1E                 [21] (35)
1F61  01                 [22] (35)
1F62  00                 [23] (36)
1F63  00                 [24] (37)
1F64  1E                 [25] (38)
1F65  01                 [26] (38)
1F66  00                 [27] (38)
1F67  00                 [28] (40)
1F68  1E                 [29] (40)
1F69  01                 [30] (40)
1F6A  00                 [31] (40)
1F6B  00                 [32] (40)
1F6C  1E                 [33] (40)
1F6D  01                 [34] (40)
1F6E  00                 [35] (41)
1F6F  00                 [36] (42)
1F70  1E                 [37] (42)
1F71  01                 [38] (44)
1F72  00                 [39] (44)
1F73  00                 [40] (44)
1F74  1E                 [41] (44)
1F75  01                 [42] (44)
1F76  00                 [43] (45)
1F77  00                 [44] (45)
1F78  1E                 [45] (45)
1F79  01                 [46] (48)
1F7A  00                 [47] (48)
1F7B  00                 [48] (48)
1F7C  1E                 [49] (48)
1F7D  01                 [50] (48)
1F7E  00                 [51] (50)
1F7F  00                 [52] (50)
1F80  1E                 [53] (50)
1F81  01                 [54] (50)
1F82  00                 [55] (50)
1F83  00                 [56] (51)
1F84  1E                 [57] (52)
1F85  01                 [58] (52)
1F86  00                 [59] (52)
1F87  00                 [60] (52)
1F88  1F                 [61] (52)
1F89  01                 [62] (54)
                         * locals:
2044  00                 sizelocvars (0)
                         * upvalues:
2045  00                 sizeupvalues (0)
                         ** end of function **

                         
2046                     ** function [7] definition (level 2)
                         ** start of function **
2046  00                 string size (0)
                         source name: (none)
2048  02                 line defined (312)
2049  D4                 last line defined (340)
204A  02                 nups (5)
204B  05                 numparams (0)
204C  00                 is_vararg (0)
204D  00                 maxstacksize (26)
                         * code:
204F  41                 sizecode (65)
2050  1D000000           [01] getglobal  0   0        ; gRegion
2054  24404000           [02] self       0   0   257  ; 1224466847
2058  22800001           [03] call       0   2   2  
fail op	8
205C  08000000           [04] setupval   0   0      
2060  1D000000           [05] getglobal  0   0        ; gRegion
2064  24804000           [06] self       0   0   258  ; -1520831144
2068  22800001           [07] call       0   2   2  
206C  18000000           [08] test       0       0    ; to [10] if true
2070  1A400580           [09] jmp        22           ; to [32]
2074  1DC00000           [10] getglobal  0   3        ; 248503575
2078  53008000           [11] getupval   1   1      
207C  22000101           [12] call       0   2   4  
2080  1AC00380           [13] jmp        16           ; to [30]
2084  57010000           [14] loadbool   5   0   0    ; false
2088  9D010100           [15] getglobal  6   4        ; 1672515847
208C  D3010000           [16] getupval   7   0      
2090  A2010101           [17] call       6   2   4  
2094  1A000180           [18] jmp        5            ; to [24]
2098  E4424105           [19] self       11  10  261  ; 340404473
209C  E2820001           [20] call       11  2   2  
fail op	35
20A0  23C08005           [21] close      0  
20A4  1A000080           [22] jmp        1            ; to [24]
20A8  57018000           [23] loadbool   5   1   0    ; true
20AC  96810000           [24] tforloop   6       2    ; to [26] if exit
20B0  1A00FE7F           [25] jmp        -7           ; to [19]
20B4  58410000           [26] test       5       1    ; to [28] if false
20B8  1A400080           [27] jmp        2            ; to [30]
20BC  D3028000           [28] getupval   11  1      
20C0  CC82C101           [29] settable   11  3   262  ; 0
20C4  16800000           [30] tforloop   0       2    ; to [32] if exit
20C8  1A40FB7F           [31] jmp        -18          ; to [14]
20CC  DDC20100           [32] getglobal  11  7        ; gPromotedToHost
20D0  D8020000           [33] test       11      0    ; to [35] if true
20D4  1A400780           [34] jmp        30           ; to [65]
20D8  DD020200           [35] getglobal  11  8        ; 1074689893
20DC  13030001           [36] getupval   12  2      
20E0  E2820001           [37] call       11  2   2  
20E4  D8420000           [38] test       11      1    ; to [40] if false
20E8  1A000680           [39] jmp        25           ; to [65]
20EC  D3028001           [40] getupval   11  3      
20F0  E2428000           [41] call       11  1   1  
20F4  DD020000           [42] getglobal  11  0        ; gRegion
20F8  E442C205           [43] self       11  11  265  ; 925677844
20FC  E2820001           [44] call       11  2   2  
2100  2483C205           [45] self       12  11  266  ; -1813551355
2104  22830001           [46] call       12  2   2  
2108  64C3C205           [47] self       13  11  267  ; -1888201767
210C  62830001           [48] call       13  2   2  
2110  9D030100           [49] getglobal  14  4        ; 1672515847
2114  D3030000           [50] getupval   15  0      
2118  A2030101           [51] call       14  2   4  
211C  1A400280           [52] jmp        10           ; to [63]
2120  D3040002           [53] getupval   19  4      
2124  12050006           [54] move       20  12     
2128  52058006           [55] move       21  13     
212C  8B058000           [56] newtable   22  1   0    ; array=1, hash=0
2130  E4854209           [57] self       23  18  266  ; -1813551355
2134  E2850001           [58] call       23  2   2  
2138  24C64209           [59] self       24  18  267  ; -1888201767
213C  22060001           [60] call       24  2   0  
2140  9B450000           [61] setlist    22  0   1    ; index 1 to top
2144  E2440002           [62] call       19  4   1  
2148  96830000           [63] tforloop   14      2    ; to [65] if exit
214C  1AC0FC7F           [64] jmp        -12          ; to [53]
2150  1E008000           [65] return     0   1      
                         * constants:
2154  0C                 sizek (12)
2155  04                 const type 4
2156  08                 string size (8)
2157  67526567696F6E00   "gRegion\0"
                         const [0]: "gRegion"
215F  01                 const type 3
2160  9FE1FB48           const [1]: (1224466847)
2164  01                 const type 3
2165  58F559A5           const [2]: (-1520831144)
2169  01                 const type 3
216A  17DDCF0E           const [3]: (248503575)
216E  01                 const type 3
216F  0791B063           const [4]: (1672515847)
2173  01                 const type 3
2174  F9284A14           const [5]: (340404473)
2178  01                 const type 3
2179  00000000           const [6]: (0)
217D  04                 const type 4
217E  10                 string size (16)
217F  6750726F6D6F7465+  "gPromote"
2187  64546F486F737400   "dToHost\0"
                         const [7]: "gPromotedToHost"
218F  01                 const type 3
2190  65770E40           const [8]: (1074689893)
2194  01                 const type 3
2195  14B92C37           const [9]: (925677844)
2199  01                 const type 3
219A  0567E793           const [10]: (-1813551355)
219E  01                 const type 3
219F  D953748F           const [11]: (-1888201767)
                         * functions:
21A3  00                 sizep (0)
                         * lines:
21A4  41                 sizelineinfo (65)
                         [pc] (line)
21A5  39                 [01] (57)
21A6  01                 [02] (57)
21A7  00                 [03] (57)
21A8  00                 [04] (57)
21A9  39                 [05] (59)
21AA  01                 [06] (59)
21AB  00                 [07] (59)
21AC  00                 [08] (59)
21AD  39                 [09] (59)
21AE  01                 [10] (61)
21AF  00                 [11] (61)
21B0  00                 [12] (61)
21B1  39                 [13] (61)
21B2  01                 [14] (62)
21B3  00                 [15] (63)
21B4  00                 [16] (63)
21B5  3B                 [17] (63)
21B6  01                 [18] (63)
21B7  00                 [19] (64)
21B8  00                 [20] (64)
21B9  3B                 [21] (64)
21BA  01                 [22] (64)
21BB  00                 [23] (65)
21BC  00                 [24] (63)
21BD  3B                 [25] (66)
21BE  01                 [26] (69)
21BF  00                 [27] (69)
21C0  00                 [28] (70)
21C1  3B                 [29] (70)
21C2  01                 [30] (61)
21C3  00                 [31] (71)
21C4  00                 [32] (75)
21C5  3B                 [33] (75)
21C6  01                 [34] (75)
21C7  00                 [35] (75)
21C8  00                 [36] (75)
21C9  3D                 [37] (75)
21CA  01                 [38] (75)
21CB  00                 [39] (75)
21CC  00                 [40] (76)
21CD  3D                 [41] (76)
21CE  01                 [42] (77)
21CF  00                 [43] (77)
21D0  00                 [44] (77)
21D1  3D                 [45] (78)
21D2  01                 [46] (78)
21D3  00                 [47] (79)
21D4  00                 [48] (79)
21D5  3D                 [49] (80)
21D6  01                 [50] (80)
21D7  00                 [51] (80)
21D8  00                 [52] (80)
21D9  3E                 [53] (81)
21DA  01                 [54] (81)
21DB  00                 [55] (81)
21DC  00                 [56] (81)
21DD  3F                 [57] (81)
21DE  01                 [58] (81)
21DF  00                 [59] (81)
21E0  00                 [60] (81)
21E1  3F                 [61] (81)
21E2  01                 [62] (81)
21E3  00                 [63] (80)
21E4  00                 [64] (81)
21E5  3F                 [65] (84)
                         * locals:
22A9  00                 sizelocvars (0)
                         * upvalues:
22AA  00                 sizeupvalues (0)
                         ** end of function **

                         
22AB                     ** function [8] definition (level 2)
                         ** start of function **
22AB  00                 string size (0)
                         source name: (none)
22AD  02                 line defined (342)
22AE  D8                 last line defined (344)
22AF  02                 nups (2)
22B0  02                 numparams (1)
22B1  01                 is_vararg (0)
22B2  00                 maxstacksize (4)
                         * code:
22B4  0B                 sizecode (11)
22B5  53000000           [01] getupval   1   0      
22B9  4E00C000           [02] gettable   1   1   256  ; 439703155
22BD  93008000           [03] getupval   2   1      
22C1  D2000000           [04] move       3   0      
22C5  62808001           [05] call       1   3   2  
fail op	21
22C9  55408080           [06] concat     1   257 1  
22CD  1A000080           [07] jmp        1            ; to [9]
22D1  57400000           [08] loadbool   1   0   1    ; false, to [10]
22D5  57008000           [09] loadbool   1   1   0    ; true
22D9  5E000001           [10] return     1   2      
22DD  1E008000           [11] return     0   1      
                         * constants:
22E1  02                 sizek (2)
22E2  01                 const type 3
22E3  7356351A           const [0]: (439703155)
22E7  03                 const type 3
22E8  00000000           const [1]: (0)
                         * functions:
22EC  00                 sizep (0)
                         * lines:
22ED  0B                 sizelineinfo (11)
                         [pc] (line)
22EE  57                 [01] (87)
22EF  01                 [02] (87)
22F0  00                 [03] (87)
22F1  00                 [04] (87)
22F2  57                 [05] (87)
22F3  01                 [06] (87)
22F4  00                 [07] (87)
22F5  00                 [08] (87)
22F6  57                 [09] (87)
22F7  01                 [10] (87)
22F8  00                 [11] (88)
                         * locals:
231A  00                 sizelocvars (0)
                         * upvalues:
231B  00                 sizeupvalues (0)
                         ** end of function **

                         
231C                     ** function [9] definition (level 2)
                         ** start of function **
231C  00                 string size (0)
                         source name: (none)
231E  02                 line defined (346)
231F  EA                 last line defined (362)
2320  02                 nups (1)
2321  01                 numparams (1)
2322  01                 is_vararg (0)
2323  00                 maxstacksize (4)
                         * code:
2325  32                 sizecode (50)
2326  5D000000           [01] getglobal  1   0        ; 1074689893
232A  92000000           [02] move       2   0      
232E  62800001           [03] call       1   2   2  
2332  58400000           [04] test       1       1    ; to [6] if false
2336  1A400A80           [05] jmp        42           ; to [48]
233A  64404000           [06] self       1   0   257  ; 1511086594
233E  62800001           [07] call       1   2   2  
2342  58400000           [08] test       1       1    ; to [10] if false
2346  1A400980           [09] jmp        38           ; to [48]
234A  64804000           [10] self       1   0   258  ; 1298798293
234E  62800001           [11] call       1   2   2  
2352  58400000           [12] test       1       1    ; to [14] if false
2356  1A400880           [13] jmp        34           ; to [48]
235A  64C04000           [14] self       1   0   259  ; -1238811972
235E  62800001           [15] call       1   2   2  
2362  58400000           [16] test       1       1    ; to [18] if false
2366  1A400780           [17] jmp        30           ; to [48]
236A  64004100           [18] self       1   0   260  ; 161185442
236E  62800001           [19] call       1   2   2  
2372  58400000           [20] test       1       1    ; to [22] if false
2376  1A400680           [21] jmp        26           ; to [48]
237A  64404100           [22] self       1   0   261  ; -1081228973
237E  62800001           [23] call       1   2   2  
2382  9D800100           [24] getglobal  2   6        ; -332969190
2386  D9C00100           [25] loadk      3   7        ; "TENNO"
238A  A2800001           [26] call       2   2   2  
fail op	35
238E  63808000           [27] close      1  
2392  1A800480           [28] jmp        19           ; to [48]
2396  64404100           [29] self       1   0   261  ; -1081228973
239A  62800001           [30] call       1   2   2  
239E  9D800100           [31] getglobal  2   6        ; -332969190
23A2  D9000200           [32] loadk      3   8        ; "NEUTRAL"
23A6  A2800001           [33] call       2   2   2  
fail op	35
23AA  63808000           [34] close      1  
23AE  1AC00280           [35] jmp        12           ; to [48]
23B2  64404200           [36] self       1   0   265  ; -1519595333
23B6  62800001           [37] call       1   2   2  
23BA  58400000           [38] test       1       1    ; to [40] if false
23BE  1AC00180           [39] jmp        8            ; to [48]
23C2  53000000           [40] getupval   1   0      
23C6  92000000           [41] move       2   0      
23CA  62800001           [42] call       1   2   2  
23CE  58400000           [43] test       1       1    ; to [45] if false
23D2  1A800080           [44] jmp        3            ; to [48]
23D6  57008000           [45] loadbool   1   1   0    ; true
23DA  5E000001           [46] return     1   2      
23DE  1A400080           [47] jmp        2            ; to [50]
23E2  57000000           [48] loadbool   1   0   0    ; false
23E6  5E000001           [49] return     1   2      
23EA  1E008000           [50] return     0   1      
                         * constants:
23EE  0A                 sizek (10)
23EF  01                 const type 3
23F0  65770E40           const [0]: (1074689893)
23F4  01                 const type 3
23F5  025A115A           const [1]: (1511086594)
23F9  01                 const type 3
23FA  D5166A4D           const [2]: (1298798293)
23FE  01                 const type 3
23FF  BC3A29B6           const [3]: (-1238811972)
2403  01                 const type 3
2404  A27E9B09           const [4]: (161185442)
2408  01                 const type 3
2409  53C18DBF           const [5]: (-1081228973)
240D  01                 const type 3
240E  1A4B27EC           const [6]: (-332969190)
2412  04                 const type 4
2413  06                 string size (6)
2414  54454E4E4F00       "TENNO\0"
                         const [7]: "TENNO"
241A  04                 const type 4
241B  08                 string size (8)
241C  4E45555452414C00   "NEUTRAL\0"
                         const [8]: "NEUTRAL"
2424  01                 const type 3
2425  BBD06CA5           const [9]: (-1519595333)
                         * functions:
2429  00                 sizep (0)
                         * lines:
242A  32                 sizelineinfo (50)
                         [pc] (line)
242B  5C                 [01] (92)
242C  01                 [02] (92)
242D  00                 [03] (92)
242E  00                 [04] (92)
242F  5C                 [05] (92)
2430  01                 [06] (93)
2431  00                 [07] (93)
2432  00                 [08] (93)
2433  5C                 [09] (93)
2434  01                 [10] (94)
2435  00                 [11] (94)
2436  00                 [12] (94)
2437  5C                 [13] (94)
2438  01                 [14] (95)
2439  00                 [15] (95)
243A  00                 [16] (95)
243B  5C                 [17] (95)
243C  01                 [18] (96)
243D  00                 [19] (96)
243E  00                 [20] (96)
243F  5D                 [21] (96)
2440  01                 [22] (97)
2441  00                 [23] (97)
2442  00                 [24] (97)
2443  5D                 [25] (97)
2444  01                 [26] (97)
2445  00                 [27] (97)
2446  00                 [28] (97)
2447  5D                 [29] (98)
2448  01                 [30] (98)
2449  00                 [31] (98)
244A  00                 [32] (98)
244B  5D                 [33] (98)
244C  01                 [34] (98)
244D  00                 [35] (98)
244E  00                 [36] (99)
244F  5E                 [37] (99)
2450  01                 [38] (99)
2451  00                 [39] (99)
2452  00                 [40] (100)
2453  5E                 [41] (100)
2454  01                 [42] (100)
2455  00                 [43] (100)
2456  00                 [44] (100)
2457  5E                 [45] (102)
2458  01                 [46] (102)
2459  00                 [47] (102)
245A  00                 [48] (104)
245B  5E                 [49] (104)
245C  01                 [50] (106)
                         * locals:
24F3  00                 sizelocvars (0)
                         * upvalues:
24F4  00                 sizeupvalues (0)
                         ** end of function **

                         
24F5                     ** function [10] definition (level 2)
                         ** start of function **
24F5  00                 string size (0)
                         source name: (none)
24F7  02                 line defined (364)
24F8  9A                 last line defined (410)
24F9  03                 nups (9)
24FA  09                 numparams (1)
24FB  01                 is_vararg (0)
24FC  00                 maxstacksize (17)
                         * code:
24FF  01                 sizecode (173)
2500  64004000           [001] self       1   0   256  ; -1544157541
2504  62800001           [002] call       1   2   2  
2508  6440C000           [003] self       1   1   257  ; -1844106636
250C  D3000000           [004] getupval   3   0      
2510  1D810000           [005] getglobal  4   2        ; Engine
2514  0EC14002           [006] gettable   4   4   259  ; "DT_ANY"
2518  5D810000           [007] getglobal  5   2        ; Engine
251C  4E01C102           [008] gettable   5   5   260  ; "ANY_PART"
2520  99410100           [009] loadk      6   5        ; 0
2524  62400003           [010] call       1   6   1  
2528  5D800100           [011] getglobal  1   6        ; 538022378
252C  9DC00100           [012] getglobal  2   7        ; 2144646525
2530  D9400100           [013] loadk      3   5        ; 0
2534  19010200           [014] loadk      4   8        ; 0
2538  A2808001           [015] call       2   3   2  
253C  84404201           [016] mul        2   2   265  ; 0
2540  62400001           [017] call       1   2   1  
2544  5D800200           [018] getglobal  1   10       ; 1074689893
2548  92000000           [019] move       2   0      
254C  62800001           [020] call       1   2   2  
2550  58400000           [021] test       1       1    ; to [23] if false
2554  1AC00080           [022] jmp        4            ; to [27]
2558  64C04200           [023] self       1   0   267  ; 1511086594
255C  62800001           [024] call       1   2   2  
2560  58000000           [025] test       1       0    ; to [27] if true
2564  1A000080           [026] jmp        1            ; to [28]
2568  1E008000           [027] return     0   1      
256C  64004300           [028] self       1   0   268  ; -1081228973
2570  62800001           [029] call       1   2   2  
2574  9D400300           [030] getglobal  2   13       ; -332969190
2578  D9800300           [031] loadk      3   14       ; "Orokin"
257C  A2800001           [032] call       2   2   2  
fail op	35
2580  63808000           [033] close      1  
2584  1A800980           [034] jmp        39           ; to [74]
2588  64C04300           [035] self       1   0   271  ; -1334436347
258C  62800001           [036] call       1   2   2  
2590  6400C400           [037] self       1   1   272  ; 1590141906
2594  62800001           [038] call       1   2   2  
2598  93008000           [039] getupval   2   1      
fail op	35
259C  63808000           [040] close      1  
25A0  1A000080           [041] jmp        1            ; to [43]
25A4  57400000           [042] loadbool   1   0   1    ; false, to [44]
25A8  57008000           [043] loadbool   1   1   0    ; true
25AC  58400000           [044] test       1       1    ; to [46] if false
25B0  1A400380           [045] jmp        14           ; to [60]
25B4  A4404400           [046] self       2   0   273  ; 1888920740
25B8  1D410300           [047] getglobal  4   13       ; -332969190
25BC  53018000           [048] getupval   5   1      
25C0  22810001           [049] call       4   2   2  
25C4  59810400           [050] loadk      5   18       ; "ENEMY"
25C8  A4C14300           [051] self       6   0   271  ; -1334436347
25CC  A2810001           [052] call       6   2   2  
25D0  A4014403           [053] self       6   6   272  ; 1590141906
25D4  A2010001           [054] call       6   2   0  
25D8  A2400000           [055] call       2   0   1  
25DC  A4C04400           [056] self       2   0   275  ; -1421644046
25E0  13010001           [057] getupval   4   2      
25E4  5D010500           [058] getglobal  5   20       ; EMPTY_SYMBOL
25E8  A2400002           [059] call       2   4   1  
25EC  A4404500           [060] self       2   0   277  ; -1338608417
25F0  1D410300           [061] getglobal  4   13       ; -332969190
25F4  59810300           [062] loadk      5   14       ; "Orokin"
25F8  22010001           [063] call       4   2   0  
25FC  A2400000           [064] call       2   0   1  
2600  A4804500           [065] self       2   0   278  ; 1445902558
2604  1D410300           [066] getglobal  4   13       ; -332969190
2608  59C10500           [067] loadk      5   23       ; "VoidTear"
260C  22810001           [068] call       4   2   2  
2610  5D010600           [069] getglobal  5   24       ; gGameRules
2614  6441C602           [070] self       5   5   281  ; -689167287
2618  62810001           [071] call       5   2   2  
261C  4E01C202           [072] gettable   5   5   264  ; 0
2620  A2400002           [073] call       2   4   1  
2624  A4C04400           [074] self       2   0   275  ; -1421644046
2628  13018001           [075] getupval   4   3      
262C  5D010500           [076] getglobal  5   20       ; EMPTY_SYMBOL
2630  A2400002           [077] call       2   4   1  
2634  A4C04400           [078] self       2   0   275  ; -1421644046
2638  13010002           [079] getupval   4   4      
263C  5D010500           [080] getglobal  5   20       ; EMPTY_SYMBOL
2640  A2400002           [081] call       2   4   1  
2644  A4804600           [082] self       2   0   282  ; 630793108
2648  13018002           [083] getupval   4   5      
264C  57010000           [084] loadbool   5   0   0    ; false
2650  A2400002           [085] call       2   4   1  
2654  A4C04600           [086] self       2   0   283  ; -1917464545
2658  A2800001           [087] call       2   2   2  
265C  DD000700           [088] getglobal  3   28       ; 1672515847
2660  13010003           [089] getupval   4   6      
2664  E2000101           [090] call       3   2   4  
2668  1A000180           [091] jmp        5            ; to [97]
266C  24424701           [092] self       8   2   285  ; 991629753
2670  8E82C703           [093] gettable   10  7   286  ; "Type"
2674  CEC2C703           [094] gettable   11  7   287  ; "Op"
2678  0E03C803           [095] gettable   12  7   288  ; "Val"
267C  22428002           [096] call       8   5   1  
2680  D6800000           [097] tforloop   3       2    ; to [99] if exit
2684  1A00FE7F           [098] jmp        -7           ; to [92]
2688  24024000           [099] self       8   0   256  ; -1544157541
268C  22820001           [100] call       8   2   2  
2690  24424804           [101] self       8   8   289  ; -1992773175
2694  A4024000           [102] self       10  0   256  ; -1544157541
2698  A2820001           [103] call       10  2   2  
269C  A4824805           [104] self       10  10  290  ; -227502409
26A0  A2020001           [105] call       10  2   0  
26A4  22420000           [106] call       8   0   1  
26A8  24C24800           [107] self       8   0   291  ; 1992436207
26AC  A4024900           [108] self       10  0   292  ; 945541886
26B0  A2020001           [109] call       10  2   0  
26B4  22420000           [110] call       8   0   1  
26B8  1DC20100           [111] getglobal  8   7        ; 2144646525
26BC  59420100           [112] loadk      9   5        ; 0
26C0  99420900           [113] loadk      10  37       ; 0
26C4  22828001           [114] call       8   3   2  
26C8  64824900           [115] self       9   0   294  ; -1174384187
26CC  DD420300           [116] getglobal  11  13       ; -332969190
26D0  19C30900           [117] loadk      12  39       ; "ELECTRIFIED_LOOP"
26D4  E2820001           [118] call       11  2   2  
26D8  17030000           [119] loadbool   12  0   0    ; false
26DC  5D830000           [120] getglobal  13  2        ; Engine
26E0  4E03CA06           [121] gettable   13  13  296  ; "ATMM_ANIMATION_DRIVEN"
26E4  9D830000           [122] getglobal  14  2        ; Engine
26E8  8E434A07           [123] gettable   14  14  297  ; "PRT_LOOP"
26EC  D7038000           [124] loadbool   15  1   0    ; true
26F0  12040004           [125] move       16  8      
26F4  62420004           [126] call       9   8   1  
26F8  5D820100           [127] getglobal  9   6        ; 538022378
26FC  93028003           [128] getupval   10  7      
2700  62420001           [129] call       9   2   1  
2704  5D820200           [130] getglobal  9   10       ; 1074689893
2708  A4824900           [131] self       10  0   294  ; -1174384187
270C  1D430300           [132] getglobal  12  13       ; -332969190
2710  59830A00           [133] loadk      13  42       ; "ELECTRIFIED_END"
2714  22830001           [134] call       12  2   2  
2718  57038000           [135] loadbool   13  1   0    ; true
271C  9D830000           [136] getglobal  14  2        ; Engine
2720  8E034A07           [137] gettable   14  14  296  ; "ATMM_ANIMATION_DRIVEN"
2724  DD830000           [138] getglobal  15  2        ; Engine
2728  CEC3CA07           [139] gettable   15  15  299  ; "PRT_ONCE"
272C  17048000           [140] loadbool   16  1   0    ; true
2730  A2028003           [141] call       10  7   0  
2734  62820000           [142] call       9   0   2  
2738  58020000           [143] test       9       0    ; to [145] if true
273C  1A000280           [144] jmp        9            ; to [154]
2740  64024B00           [145] self       9   0   300  ; 2056776437
2744  C6028005           [146] loadnil    11  11     
2748  17030000           [147] loadbool   12  0   0    ; false
274C  5D830000           [148] getglobal  13  2        ; Engine
2750  4E43CB06           [149] gettable   13  13  301  ; "ATMM_PHYSICS_DRIVEN"
2754  9D830000           [150] getglobal  14  2        ; Engine
2758  8EC34A07           [151] gettable   14  14  299  ; "PRT_ONCE"
275C  D7030000           [152] loadbool   15  0   0    ; false
2760  62428003           [153] call       9   7   1  
2764  64024000           [154] self       9   0   256  ; -1544157541
2768  62820001           [155] call       9   2   2  
276C  6482CB04           [156] self       9   9   302  ; 391699238
2770  D3020000           [157] getupval   11  0      
2774  62428001           [158] call       9   3   1  
2778  64C24B00           [159] self       9   0   303  ; -1411785325
277C  62820001           [160] call       9   2   2  
2780  9D820200           [161] getglobal  10  10       ; 1074689893
2784  D2028004           [162] move       11  9      
2788  A2820001           [163] call       10  2   2  
278C  98420000           [164] test       10      1    ; to [166] if false
2790  1A400080           [165] jmp        2            ; to [168]
2794  A402CC04           [166] self       10  9   304  ; -1850937571
2798  A2420001           [167] call       10  2   1  
279C  9D420C00           [168] getglobal  10  49       ; table
27A0  8E824C05           [169] gettable   10  10  306  ; -431682403
27A4  D3020004           [170] getupval   11  8      
27A8  12030000           [171] move       12  0      
27AC  A2428001           [172] call       10  3   1  
27B0  1E008000           [173] return     0   1      
                         * constants:
27B4  33                 sizek (51)
27B5  01                 const type 3
27B6  9B06F6A3           const [0]: (-1544157541)
27BA  01                 const type 3
27BB  742A1592           const [1]: (-1844106636)
27BF  04                 const type 4
27C0  07                 string size (7)
27C1  456E67696E6500     "Engine\0"
                         const [2]: "Engine"
27C8  04                 const type 4
27C9  07                 string size (7)
27CA  44545F414E5900     "DT_ANY\0"
                         const [3]: "DT_ANY"
27D1  04                 const type 4
27D2  09                 string size (9)
27D3  414E595F50415254+  "ANY_PART"
27DB  00                 "\0"
                         const [4]: "ANY_PART"
27DC  03                 const type 3
27DD  00000000           const [5]: (0)
27E1  01                 const type 3
27E2  EA911120           const [6]: (538022378)
27E6  01                 const type 3
27E7  7DB5D47F           const [7]: (2144646525)
27EB  03                 const type 3
27EC  0000803F           const [8]: (0)
27F0  03                 const type 3
27F1  0000803E           const [9]: (0)
27F5  01                 const type 3
27F6  65770E40           const [10]: (1074689893)
27FA  01                 const type 3
27FB  025A115A           const [11]: (1511086594)
27FF  01                 const type 3
2800  53C18DBF           const [12]: (-1081228973)
2804  01                 const type 3
2805  1A4B27EC           const [13]: (-332969190)
2809  04                 const type 4
280A  07                 string size (7)
280B  4F726F6B696E00     "Orokin\0"
                         const [14]: "Orokin"
2812  01                 const type 3
2813  051E76B0           const [15]: (-1334436347)
2817  01                 const type 3
2818  D2A3C75E           const [16]: (1590141906)
281C  01                 const type 3
281D  A4A49670           const [17]: (1888920740)
2821  04                 const type 4
2822  06                 string size (6)
2823  454E454D5900       "ENEMY\0"
                         const [18]: "ENEMY"
2829  01                 const type 3
282A  F26E43AB           const [19]: (-1421644046)
282E  04                 const type 4
282F  0D                 string size (13)
2830  454D5054595F5359+  "EMPTY_SY"
2838  4D424F4C00         "MBOL\0"
                         const [20]: "EMPTY_SYMBOL"
283D  01                 const type 3
283E  DF7436B0           const [21]: (-1338608417)
2842  01                 const type 3
2843  DEB82E56           const [22]: (1445902558)
2847  04                 const type 4
2848  09                 string size (9)
2849  566F696454656172+  "VoidTear"
2851  00                 "\0"
                         const [23]: "VoidTear"
2852  04                 const type 4
2853  0B                 string size (11)
2854  6747616D6552756C+  "gGameRul"
285C  657300             "es\0"
                         const [24]: "gGameRules"
285F  01                 const type 3
2860  4924ECD6           const [25]: (-689167287)
2864  01                 const type 3
2865  94239925           const [26]: (630793108)
2869  01                 const type 3
286A  1FD0B58D           const [27]: (-1917464545)
286E  01                 const type 3
286F  0791B063           const [28]: (1672515847)
2873  01                 const type 3
2874  B9111B3B           const [29]: (991629753)
2878  04                 const type 4
2879  05                 string size (5)
287A  5479706500         "Type\0"
                         const [30]: "Type"
287F  04                 const type 4
2880  03                 string size (3)
2881  4F7000             "Op\0"
                         const [31]: "Op"
2884  04                 const type 4
2885  04                 string size (4)
2886  56616C00           "Val\0"
                         const [32]: "Val"
288A  01                 const type 3
288B  C9B13889           const [33]: (-1992773175)
288F  01                 const type 3
2890  B79670F2           const [34]: (-227502409)
2894  01                 const type 3
2895  EF29C276           const [35]: (1992436207)
2899  01                 const type 3
289A  FED25B38           const [36]: (945541886)
289E  03                 const type 3
289F  00004040           const [37]: (0)
28A3  01                 const type 3
28A4  C55100BA           const [38]: (-1174384187)
28A8  04                 const type 4
28A9  11                 string size (17)
28AA  454C454354524946+  "ELECTRIF"
28B2  4945445F4C4F4F50+  "IED_LOOP"
28BA  00                 "\0"
                         const [39]: "ELECTRIFIED_LOOP"
28BB  04                 const type 4
28BC  16                 string size (22)
28BD  41544D4D5F414E49+  "ATMM_ANI"
28C5  4D4154494F4E5F44+  "MATION_D"
28CD  524956454E00       "RIVEN\0"
                         const [40]: "ATMM_ANIMATION_DRIVEN"
28D3  04                 const type 4
28D4  09                 string size (9)
28D5  5052545F4C4F4F50+  "PRT_LOOP"
28DD  00                 "\0"
                         const [41]: "PRT_LOOP"
28DE  04                 const type 4
28DF  10                 string size (16)
28E0  454C454354524946+  "ELECTRIF"
28E8  4945445F454E4400   "IED_END\0"
                         const [42]: "ELECTRIFIED_END"
28F0  04                 const type 4
28F1  09                 string size (9)
28F2  5052545F4F4E4345+  "PRT_ONCE"
28FA  00                 "\0"
                         const [43]: "PRT_ONCE"
28FB  01                 const type 3
28FC  F5EA977A           const [44]: (2056776437)
2900  04                 const type 4
2901  14                 string size (20)
2902  41544D4D5F504859+  "ATMM_PHY"
290A  534943535F445249+  "SICS_DRI"
2912  56454E00           "VEN\0"
                         const [45]: "ATMM_PHYSICS_DRIVEN"
2916  01                 const type 3
2917  26DB5817           const [46]: (391699238)
291B  01                 const type 3
291C  93DDD9AB           const [47]: (-1411785325)
2920  01                 const type 3
2921  1DEFAC91           const [48]: (-1850937571)
2925  04                 const type 4
2926  06                 string size (6)
2927  7461626C6500       "table\0"
                         const [49]: "table"
292D  01                 const type 3
292E  9D0C45E6           const [50]: (-431682403)
                         * functions:
2932  00                 sizep (0)
                         * lines:
2934  01                 sizelineinfo (173)
                         [pc] (line)
2935  6D                 [001] (109)
2936  01                 [002] (109)
2937  00                 [003] (109)
2938  00                 [004] (109)
2939  6D                 [005] (109)
293A  01                 [006] (109)
293B  00                 [007] (109)
293C  00                 [008] (109)
293D  6D                 [009] (109)
293E  01                 [010] (109)
293F  00                 [011] (110)
2940  00                 [012] (110)
2941  6D                 [013] (110)
2942  01                 [014] (110)
2943  00                 [015] (110)
2944  00                 [016] (110)
2945  6D                 [017] (110)
2946  01                 [018] (112)
2947  00                 [019] (112)
2948  00                 [020] (112)
2949  6D                 [021] (112)
294A  01                 [022] (112)
294B  00                 [023] (112)
294C  00                 [024] (112)
294D  6D                 [025] (112)
294E  01                 [026] (112)
294F  00                 [027] (113)
2950  00                 [028] (116)
2951  6D                 [029] (116)
2952  01                 [030] (116)
2953  00                 [031] (116)
2954  00                 [032] (116)
2955  6D                 [033] (116)
2956  01                 [034] (116)
2957  00                 [035] (117)
2958  00                 [036] (117)
2959  6D                 [037] (117)
295A  01                 [038] (117)
295B  00                 [039] (117)
295C  00                 [040] (117)
295D  6E                 [041] (117)
295E  01                 [042] (117)
295F  00                 [043] (117)
2960  00                 [044] (118)
2961  6E                 [045] (118)
2962  01                 [046] (119)
2963  00                 [047] (119)
2964  00                 [048] (119)
2965  6E                 [049] (119)
2966  01                 [050] (119)
2967  00                 [051] (119)
2968  00                 [052] (119)
2969  6E                 [053] (119)
296A  01                 [054] (119)
296B  00                 [055] (119)
296C  00                 [056] (120)
296D  6E                 [057] (120)
296E  01                 [058] (120)
296F  00                 [059] (120)
2970  00                 [060] (124)
2971  6E                 [061] (124)
2972  01                 [062] (124)
2973  00                 [063] (124)
2974  00                 [064] (124)
2975  6E                 [065] (127)
2976  01                 [066] (127)
2977  00                 [067] (127)
2978  00                 [068] (127)
2979  70                 [069] (127)
297A  01                 [070] (127)
297B  00                 [071] (127)
297C  00                 [072] (127)
297D  70                 [073] (127)
297E  01                 [074] (-127)
297F  00                 [075] (-127)
2980  00                 [076] (-127)
2981  70                 [077] (-127)
2982  01                 [078] (-126)
2983  00                 [079] (-126)
2984  00                 [080] (-126)
2985  70                 [081] (-126)
2986  01                 [082] (-125)
2987  00                 [083] (-125)
2988  00                 [084] (-125)
2989  70                 [085] (-125)
298A  01                 [086] (-123)
298B  00                 [087] (-123)
298C  00                 [088] (-122)
298D  70                 [089] (-122)
298E  01                 [090] (-122)
298F  00                 [091] (-122)
2990  00                 [092] (-121)
2991  70                 [093] (-121)
2992  01                 [094] (-121)
2993  00                 [095] (-121)
2994  00                 [096] (-121)
2995  70                 [097] (-122)
2996  01                 [098] (-121)
2997  00                 [099] (-118)
2998  00                 [100] (-118)
2999  70                 [101] (-118)
299A  01                 [102] (-118)
299B  00                 [103] (-118)
299C  00                 [104] (-118)
299D  71                 [105] (-118)
299E  01                 [106] (-118)
299F  00                 [107] (-117)
29A0  00                 [108] (-117)
29A1  74                 [109] (-117)
29A2  01                 [110] (-117)
29A3  00                 [111] (-115)
29A4  00                 [112] (-115)
29A5  74                 [113] (-115)
29A6  01                 [114] (-115)
29A7  00                 [115] (-114)
29A8  00                 [116] (-114)
29A9  74                 [117] (-114)
29AA  01                 [118] (-114)
29AB  00                 [119] (-114)
29AC  00                 [120] (-114)
29AD  74                 [121] (-114)
29AE  01                 [122] (-114)
29AF  00                 [123] (-114)
29B0  00                 [124] (-114)
29B1  74                 [125] (-114)
29B2  01                 [126] (-114)
29B3  00                 [127] (-113)
29B4  00                 [128] (-113)
29B5  74                 [129] (-113)
29B6  01                 [130] (-112)
29B7  00                 [131] (-112)
29B8  00                 [132] (-112)
29B9  74                 [133] (-112)
29BA  01                 [134] (-112)
29BB  00                 [135] (-112)
29BC  00                 [136] (-112)
29BD  75                 [137] (-112)
29BE  01                 [138] (-112)
29BF  00                 [139] (-112)
29C0  00                 [140] (-112)
29C1  75                 [141] (-112)
29C2  01                 [142] (-112)
29C3  00                 [143] (-112)
29C4  00                 [144] (-112)
29C5  75                 [145] (-111)
29C6  01                 [146] (-111)
29C7  00                 [147] (-111)
29C8  00                 [148] (-111)
29C9  75                 [149] (-111)
29CA  01                 [150] (-111)
29CB  00                 [151] (-111)
29CC  00                 [152] (-111)
29CD  75                 [153] (-111)
29CE  01                 [154] (-109)
29CF  00                 [155] (-109)
29D0  00                 [156] (-109)
29D1  75                 [157] (-109)
29D2  01                 [158] (-109)
29D3  00                 [159] (-108)
29D4  00                 [160] (-108)
29D5  75                 [161] (-107)
29D6  01                 [162] (-107)
29D7  00                 [163] (-107)
29D8  00                 [164] (-107)
29D9  75                 [165] (-107)
29DA  01                 [166] (-106)
29DB  00                 [167] (-106)
29DC  00                 [168] (-103)
29DD  75                 [169] (-103)
29DE  01                 [170] (-103)
29DF  00                 [171] (-103)
29E0  00                 [172] (-103)
29E1  76                 [173] (-102)
                         * locals:
2BE9  00                 sizelocvars (0)
                         * upvalues:
2BEA  00                 sizeupvalues (0)
                         ** end of function **

                         
2BEB                     ** function [11] definition (level 2)
                         ** start of function **
2BEB  00                 string size (0)
                         source name: (none)
2BED  03                 line defined (412)
2BEE  AF                 last line defined (431)
2BEF  03                 nups (6)
2BF0  06                 numparams (1)
2BF1  01                 is_vararg (0)
2BF2  00                 maxstacksize (14)
                         * code:
2BF4  30                 sizecode (48)
2BF5  57000000           [01] loadbool   1   0   0    ; false
2BF9  9D000000           [02] getglobal  2   0        ; 1672515847
2BFD  D3000000           [03] getupval   3   0      
2C01  A2000101           [04] call       2   2   4  
2C05  1A800180           [05] jmp        7            ; to [13]
2C09  D3018000           [06] getupval   7   1      
2C0D  12020003           [07] move       8   6      
2C11  E2810001           [08] call       7   2   2  
2C15  13020001           [09] getupval   8   2      
fail op	21
2C19  15008203           [10] concat     0   7   8  
2C1D  1A000080           [11] jmp        1            ; to [13]
2C21  57008000           [12] loadbool   1   1   0    ; true
2C25  96800000           [13] tforloop   2       2    ; to [15] if exit
2C29  1A80FD7F           [14] jmp        -9           ; to [6]
2C2D  58400000           [15] test       1       1    ; to [17] if false
2C31  1A000080           [16] jmp        1            ; to [18]
2C35  1E008000           [17] return     0   1      
2C39  D3018001           [18] getupval   7   3      
2C3D  E441C003           [19] self       7   7   257  ; -317790213
2C41  53020002           [20] getupval   9   4      
2C45  99820000           [21] loadk      10  2        ; 0
2C49  E2810002           [22] call       7   4   2  
2C4D  CD81C003           [23] sub        7   7   258  ; 0
fail op	35
2C51  23C0C003           [24] close      0  
2C55  1A000480           [25] jmp        17           ; to [43]
2C59  1D020100           [26] getglobal  8   4        ; sealerDropTable
2C5D  24424104           [27] self       8   8   261  ; -801556842
2C61  92020000           [28] move       10  0      
2C65  DD820100           [29] getglobal  11  6        ; EMPTY_SYMBOL
2C69  19C30000           [30] loadk      12  3        ; 0
2C6D  22428002           [31] call       8   5   1  
2C71  13028001           [32] getupval   8   3      
2C75  24C24104           [33] self       8   8   263  ; -803877924
2C79  93020002           [34] getupval   10  4      
2C7D  DD020200           [35] getglobal  11  8        ; 2144646525
2C81  13038002           [36] getupval   12  5      
2C85  0E834006           [37] gettable   12  12  258  ; 0
2C89  53038002           [38] getupval   13  5      
2C8D  4E43C206           [39] gettable   13  13  265  ; 0
2C91  E2028001           [40] call       11  3   0  
2C95  22420000           [41] call       8   0   1  
2C99  1A000180           [42] jmp        5            ; to [48]
2C9D  13028001           [43] getupval   8   3      
2CA1  24C24104           [44] self       8   8   263  ; -803877924
2CA5  93020002           [45] getupval   10  4      
2CA9  D2028003           [46] move       11  7      
2CAD  22420002           [47] call       8   4   1  
2CB1  1E008000           [48] return     0   1      
                         * constants:
2CB5  0A                 sizek (10)
2CB6  01                 const type 3
2CB7  0791B063           const [0]: (1672515847)
2CBB  01                 const type 3
2CBC  FBE70EED           const [1]: (-317790213)
2CC0  03                 const type 3
2CC1  0000803F           const [2]: (0)
2CC5  03                 const type 3
2CC6  00000000           const [3]: (0)
2CCA  04                 const type 4
2CCB  10                 string size (16)
2CCC  7365616C65724472+  "sealerDr"
2CD4  6F705461626C6500   "opTable\0"
                         const [4]: "sealerDropTable"
2CDC  01                 const type 3
2CDD  963639D0           const [5]: (-801556842)
2CE1  04                 const type 4
2CE2  0D                 string size (13)
2CE3  454D5054595F5359+  "EMPTY_SY"
2CEB  4D424F4C00         "MBOL\0"
                         const [6]: "EMPTY_SYMBOL"
2CF0  01                 const type 3
2CF1  DCCB15D0           const [7]: (-803877924)
2CF5  01                 const type 3
2CF6  7DB5D47F           const [8]: (2144646525)
2CFA  03                 const type 3
2CFB  00000040           const [9]: (0)
                         * functions:
2CFF  00                 sizep (0)
                         * lines:
2D00  30                 sizelineinfo (48)
                         [pc] (line)
2D01  9D                 [01] (-99)
2D02  01                 [02] (-98)
2D03  00                 [03] (-98)
2D04  00                 [04] (-98)
2D05  9E                 [05] (-98)
2D06  01                 [06] (-97)
2D07  00                 [07] (-97)
2D08  00                 [08] (-97)
2D09  9E                 [09] (-97)
2D0A  01                 [10] (-97)
2D0B  00                 [11] (-97)
2D0C  00                 [12] (-96)
2D0D  9E                 [13] (-98)
2D0E  01                 [14] (-95)
2D0F  00                 [15] (-92)
2D10  00                 [16] (-92)
2D11  9E                 [17] (-91)
2D12  01                 [18] (-88)
2D13  00                 [19] (-88)
2D14  00                 [20] (-88)
2D15  9F                 [21] (-88)
2D16  01                 [22] (-88)
2D17  00                 [23] (-88)
2D18  00                 [24] (-87)
2D19  9F                 [25] (-87)
2D1A  01                 [26] (-86)
2D1B  00                 [27] (-86)
2D1C  00                 [28] (-86)
2D1D  9F                 [29] (-86)
2D1E  01                 [30] (-86)
2D1F  00                 [31] (-86)
2D20  00                 [32] (-85)
2D21  9F                 [33] (-85)
2D22  01                 [34] (-85)
2D23  00                 [35] (-85)
2D24  00                 [36] (-85)
2D25  9F                 [37] (-85)
2D26  01                 [38] (-85)
2D27  00                 [39] (-85)
2D28  00                 [40] (-85)
2D29  9F                 [41] (-85)
2D2A  01                 [42] (-85)
2D2B  00                 [43] (-83)
2D2C  00                 [44] (-83)
2D2D  A0                 [45] (-83)
2D2E  01                 [46] (-83)
2D2F  00                 [47] (-83)
2D30  00                 [48] (-81)
                         * locals:
2DC1  00                 sizelocvars (0)
                         * upvalues:
2DC2  00                 sizeupvalues (0)
                         ** end of function **

                         
2DC3                     ** function [12] definition (level 2)
                         ** start of function **
2DC3  00                 string size (0)
                         source name: (none)
2DC5  03                 line defined (433)
2DC6  C4                 last line defined (452)
2DC7  03                 nups (2)
2DC8  02                 numparams (0)
2DC9  00                 is_vararg (0)
2DCA  00                 maxstacksize (17)
                         * code:
2DCC  2E                 sizecode (46)
2DCD  1D000000           [01] getglobal  0   0        ; gRegion
2DD1  24404000           [02] self       0   0   257  ; -2071158816
2DD5  22800001           [03] call       0   2   2  
2DD9  5D000000           [04] getglobal  1   0        ; gRegion
2DDD  6480C000           [05] self       1   1   258  ; 65205951
2DE1  62800001           [06] call       1   2   2  
2DE5  9DC00000           [07] getglobal  2   3        ; FLT_MAX
2DE9  DD000100           [08] getglobal  3   4        ; 1672515847
2DED  12010000           [09] move       4   0      
2DF1  E2000101           [10] call       3   2   4  
2DF5  1AC00180           [11] jmp        8            ; to [20]
2DF9  13020000           [12] getupval   8   0      
2DFD  24424104           [13] self       8   8   261  ; 1016787375
2E01  92028003           [14] move       10  7      
2E05  22828001           [15] call       8   3   2  
fail op	21
2E09  15800004           [16] concat     0   8   2  
2E0D  1A400080           [17] jmp        2            ; to [20]
2E11  92000004           [18] move       2   8      
2E15  52008003           [19] move       1   7      
2E19  D6800000           [20] tforloop   3       2    ; to [22] if exit
2E1D  1A40FD7F           [21] jmp        -10          ; to [12]
2E21  5D020000           [22] getglobal  9   0        ; gRegion
2E25  6482C104           [23] self       9   9   262  ; 152279552
2E29  DDC20100           [24] getglobal  11  7        ; gLotusNpcAvatarType
2E2D  2403C200           [25] self       12  1   264  ; 1839670529
2E31  22830001           [26] call       12  2   2  
2E35  59430200           [27] loadk      13  9        ; 0
2E39  99830200           [28] loadk      14  10       ; 0
2E3D  62820003           [29] call       9   6   2  
2E41  8A028004           [30] len        10  9      
2E45  D9C20200           [31] loadk      11  11       ; 0
2E49  19030300           [32] loadk      12  12       ; 0
2E4D  90420280           [33] forprep    10  10       ; to [44]
2E51  93038000           [34] getupval   14  1      
2E55  CE438304           [35] gettable   15  9   13 
2E59  A2830001           [36] call       14  2   2  
2E5D  98430000           [37] test       14      1    ; to [39] if false
2E61  1A000180           [38] jmp        5            ; to [44]
2E65  9D430300           [39] getglobal  14  13       ; table
2E69  8E834307           [40] gettable   14  14  270  ; -843973282
2E6D  D2038004           [41] move       15  9      
2E71  12048006           [42] move       16  13     
2E75  A2438001           [43] call       14  3   1  
2E79  9402FD7F           [44] forloop    10  -11      ; to [34] if loop
2E7D  5E020001           [45] return     9   2      
2E81  1E008000           [46] return     0   1      
                         * constants:
2E85  0F                 sizek (15)
2E86  04                 const type 4
2E87  08                 string size (8)
2E88  67526567696F6E00   "gRegion\0"
                         const [0]: "gRegion"
2E90  01                 const type 3
2E91  E09F8C84           const [1]: (-2071158816)
2E95  01                 const type 3
2E96  BFF6E203           const [2]: (65205951)
2E9A  04                 const type 4
2E9B  08                 string size (8)
2E9C  464C545F4D415800   "FLT_MAX\0"
                         const [3]: "FLT_MAX"
2EA4  01                 const type 3
2EA5  0791B063           const [4]: (1672515847)
2EA9  01                 const type 3
2EAA  AFF19A3C           const [5]: (1016787375)
2EAE  01                 const type 3
2EAF  009A1309           const [6]: (152279552)
2EB3  04                 const type 4
2EB4  14                 string size (20)
2EB5  674C6F7475734E70+  "gLotusNp"
2EBD  6341766174617254+  "cAvatarT"
2EC5  79706500           "ype\0"
                         const [7]: "gLotusNpcAvatarType"
2EC9  01                 const type 3
2ECA  0125A76D           const [8]: (1839670529)
2ECE  03                 const type 3
2ECF  00000000           const [9]: (0)
2ED3  03                 const type 3
2ED4  00004842           const [10]: (0)
2ED8  03                 const type 3
2ED9  0000803F           const [11]: (0)
2EDD  03                 const type 3
2EDE  000080BF           const [12]: (0)
2EE2  04                 const type 4
2EE3  06                 string size (6)
2EE4  7461626C6500       "table\0"
                         const [13]: "table"
2EEA  01                 const type 3
2EEB  5EFDB1CD           const [14]: (-843973282)
                         * functions:
2EEF  00                 sizep (0)
                         * lines:
2EF0  2E                 sizelineinfo (46)
                         [pc] (line)
2EF1  B2                 [01] (-78)
2EF2  01                 [02] (-78)
2EF3  00                 [03] (-78)
2EF4  00                 [04] (-77)
2EF5  B2                 [05] (-77)
2EF6  01                 [06] (-77)
2EF7  00                 [07] (-76)
2EF8  00                 [08] (-75)
2EF9  B2                 [09] (-75)
2EFA  01                 [10] (-75)
2EFB  00                 [11] (-75)
2EFC  00                 [12] (-74)
2EFD  B3                 [13] (-74)
2EFE  01                 [14] (-74)
2EFF  00                 [15] (-74)
2F00  00                 [16] (-73)
2F01  B3                 [17] (-73)
2F02  01                 [18] (-72)
2F03  00                 [19] (-71)
2F04  00                 [20] (-75)
2F05  B3                 [21] (-70)
2F06  01                 [22] (-68)
2F07  00                 [23] (-68)
2F08  00                 [24] (-68)
2F09  B4                 [25] (-68)
2F0A  01                 [26] (-68)
2F0B  00                 [27] (-68)
2F0C  00                 [28] (-68)
2F0D  B5                 [29] (-68)
2F0E  01                 [30] (-66)
2F0F  00                 [31] (-66)
2F10  00                 [32] (-66)
2F11  B5                 [33] (-66)
2F12  01                 [34] (-65)
2F13  00                 [35] (-65)
2F14  00                 [36] (-65)
2F15  B5                 [37] (-65)
2F16  01                 [38] (-65)
2F17  00                 [39] (-64)
2F18  00                 [40] (-64)
2F19  B5                 [41] (-64)
2F1A  01                 [42] (-64)
2F1B  00                 [43] (-64)
2F1C  00                 [44] (-66)
2F1D  B6                 [45] (-61)
2F1E  01                 [46] (-60)
                         * locals:
2FA9  00                 sizelocvars (0)
                         * upvalues:
2FAA  00                 sizeupvalues (0)
                         ** end of function **

                         
2FAB                     ** function [13] definition (level 2)
                         ** start of function **
2FAB  00                 string size (0)
                         source name: (none)
2FAD  03                 line defined (454)
2FAE  A0                 last line defined (544)
2FAF  04                 nups (22)
2FB0  16                 numparams (2)
2FB1  02                 is_vararg (0)
2FB2  00                 maxstacksize (38)
                         * code:
2FB5  02                 sizecode (306)
2FB6  9D000000           [001] getglobal  2   0        ; gRegion
2FBA  A4404001           [002] self       2   2   257  ; -1110225722
2FBE  13018000           [003] getupval   4   1      
2FC2  52018000           [004] move       5   1      
2FC6  9D810000           [005] getglobal  6   2        ; ZERO_ROTATION
2FCA  A2808002           [006] call       2   5   2  
fail op	8
2FCE  88000000           [007] setupval   2   0      
2FD2  9D000000           [008] getglobal  2   0        ; gRegion
2FD6  A4404001           [009] self       2   2   257  ; -1110225722
2FDA  13010001           [010] getupval   4   2      
2FDE  52018000           [011] move       5   1      
2FE2  9D810000           [012] getglobal  6   2        ; ZERO_ROTATION
2FE6  A2408002           [013] call       2   5   1  
2FEA  93000000           [014] getupval   2   0      
2FEE  A4C04001           [015] self       2   2   259  ; 630793108
2FF2  13018001           [016] getupval   4   3      
2FF6  57010000           [017] loadbool   5   0   0    ; false
2FFA  A2400002           [018] call       2   4   1  
2FFE  99000100           [019] loadk      2   4        ; 0
fail op	8
3002  88000002           [020] setupval   2   4      
3006  97000000           [021] loadbool   2   0   0    ; false
300A  D9000100           [022] loadk      3   4        ; 0
300E  13018002           [023] getupval   4   5      
3012  18010000           [024] test       4       0    ; to [26] if true
3016  1A800780           [025] jmp        31           ; to [57]
301A  98400000           [026] test       2       1    ; to [28] if false
301E  1A000780           [027] jmp        29           ; to [57]
fail op	21
3022  1540C101           [028] concat     0   3   261
3026  1A800680           [029] jmp        27           ; to [57]
302A  1D810100           [030] getglobal  4   6        ; 1672515847
302E  53010003           [031] getupval   5   6      
3032  22010101           [032] call       4   2   4  
3036  1A400380           [033] jmp        14           ; to [48]
303A  64C24104           [034] self       9   8   263  ; -2135866365
303E  62820001           [035] call       9   2   2  
3042  9D020200           [036] getglobal  10  8        ; 1074689893
3046  D2028004           [037] move       11  9      
304A  A2820001           [038] call       10  2   2  
304E  98420000           [039] test       10      1    ; to [41] if false
3052  1A800180           [040] jmp        7            ; to [48]
3056  A442C204           [041] self       10  9   265  ; 1844415358
305A  13030000           [042] getupval   12  0      
305E  A2828001           [043] call       10  3   2  
fail op	21
3062  15800285           [044] concat     0   266 10 
3066  1A400080           [045] jmp        2            ; to [48]
306A  97008000           [046] loadbool   2   1   0    ; true
306E  1A400080           [047] jmp        2            ; to [50]
3072  16810000           [048] tforloop   4       2    ; to [50] if exit
3076  1AC0FB7F           [049] jmp        -16          ; to [34]
307A  9DC20200           [050] getglobal  10  11       ; 538022378
307E  D9020100           [051] loadk      11  4        ; 0
3082  A2420001           [052] call       10  2   1  
3086  9D020300           [053] getglobal  10  12       ; 1289681407
308A  A2828000           [054] call       10  1   2  
308E  C3808201           [055] add        3   3   10 
3092  1A40F77F           [056] jmp        -34          ; to [23]
3096  9D020000           [057] getglobal  10  0        ; gRegion
309A  A4424005           [058] self       10  10  257  ; -1110225722
309E  13030004           [059] getupval   12  8      
30A2  53030000           [060] getupval   13  0      
30A6  6443C306           [061] self       13  13  269  ; 1839670529
30AA  62830001           [062] call       13  2   2  
30AE  9D830000           [063] getglobal  14  2        ; ZERO_ROTATION
30B2  D3030000           [064] getupval   15  0      
30B6  A2820003           [065] call       10  6   2  
fail op	8
30BA  88028003           [066] setupval   10  7      
30BE  86020005           [067] loadnil    10  10     
30C2  DD820100           [068] getglobal  11  6        ; 1672515847
30C6  12030000           [069] move       12  0      
30CA  E2020101           [070] call       11  2   4  
30CE  1A800A80           [071] jmp        43           ; to [115]
30D2  13048004           [072] getupval   16  9      
30D6  52048007           [073] move       17  15     
30DA  22840001           [074] call       16  2   2  
30DE  18040000           [075] test       16      0    ; to [77] if true
30E2  1A400980           [076] jmp        38           ; to [115]
30E6  1D040000           [077] getglobal  16  0        ; gRegion
30EA  24444008           [078] self       16  16  257  ; -1110225722
30EE  93040005           [079] getupval   18  10     
30F2  D3040000           [080] getupval   19  0      
30F6  E444C309           [081] self       19  19  269  ; 1839670529
30FA  E2840001           [082] call       19  2   2  
30FE  1D850000           [083] getglobal  20  2        ; ZERO_ROTATION
3102  22848002           [084] call       16  5   2  
3106  64844308           [085] self       17  16  270  ; 1311555023
310A  E444C307           [086] self       19  15  269  ; 1839670529
310E  E2040001           [087] call       19  2   0  
3112  62440000           [088] call       17  0   1  
3116  64C4C307           [089] self       17  15  271  ; -1302048094
311A  DD040400           [090] getglobal  19  16       ; -332969190
311E  19450400           [091] loadk      20  17       ; "CorruptEnemy"
3122  E2840001           [092] call       19  2   2  
3126  17050000           [093] loadbool   20  0   0    ; false
312A  62440002           [094] call       17  4   1  
312E  5D840400           [095] getglobal  17  18       ; -1799570112
3132  92048007           [096] move       18  15     
3136  D9C40400           [097] loadk      19  19       ; "OnKilled"
313A  62448001           [098] call       17  3   1  
313E  6404C507           [099] self       17  15  276  ; -1411785325
3142  62840001           [100] call       17  2   2  
3146  9D040200           [101] getglobal  18  8        ; 1074689893
314A  D2048008           [102] move       19  17     
314E  A2840001           [103] call       18  2   2  
3152  98440000           [104] test       18      1    ; to [106] if false
3156  1A000280           [105] jmp        9            ; to [115]
315A  9D040200           [106] getglobal  18  8        ; 1074689893
315E  E444C508           [107] self       19  17  277  ; 1569762139
3162  E2040001           [108] call       19  2   0  
3166  A2840000           [109] call       18  0   2  
316A  98440000           [110] test       18      1    ; to [112] if false
316E  1A800080           [111] jmp        3            ; to [115]
3172  A444C508           [112] self       18  17  277  ; 1569762139
3176  A2840001           [113] call       18  2   2  
317A  92020009           [114] move       10  18     
317E  D6820000           [115] tforloop   11      2    ; to [117] if exit
3182  1A80F47F           [116] jmp        -45          ; to [72]
3186  93048005           [117] getupval   18  11     
318A  A4844509           [118] self       18  18  278  ; -317790213
318E  13050006           [119] getupval   20  12     
3192  59050100           [120] loadk      21  4        ; 0
3196  A2840002           [121] call       18  4   2  
319A  83C44509           [122] add        18  18  279  ; 0
fail op	21
319E  15808482           [123] concat     0   261 18 
31A2  1A800180           [124] jmp        7            ; to [132]
31A6  DD040600           [125] getglobal  19  24       ; math
31AA  CE44C609           [126] gettable   19  19  281  ; 842624623
31AE  0D454109           [127] sub        20  18  261  ; 0
31B2  53058006           [128] getupval   21  13     
31B6  E2848001           [129] call       19  3   2  
fail op	35
31BA  6300C109           [130] close      1  
31BE  1A800080           [131] jmp        3            ; to [135]
fail op	35
31C2  63404109           [132] close      1  
31C6  1A000080           [133] jmp        1            ; to [135]
31CA  D7440000           [134] loadbool   19  0   1    ; false, to [136]
31CE  D7048000           [135] loadbool   19  1   0    ; true
31D2  13050007           [136] getupval   20  14     
31D6  0E85460A           [137] gettable   20  20  282  ; -132701534
31DA  52058009           [138] move       21  19     
31DE  9DC50600           [139] getglobal  22  27       ; Engine
31E2  8E05470B           [140] gettable   22  22  284  ; "EXIMUS"
31E6  DDC50600           [141] getglobal  23  27       ; Engine
31EA  CE45C70B           [142] gettable   23  23  285  ; "STANDARD"
31EE  22850002           [143] call       20  4   2  
31F2  59050100           [144] loadk      21  4        ; 0
31F6  99450100           [145] loadk      22  5        ; 0
31FA  DD050200           [146] getglobal  23  8        ; 1074689893
31FE  1D860700           [147] getglobal  24  30       ; _T
3202  0EC6470C           [148] gettable   24  24  287  ; "UseAiDirectorPopulationSpawnCount"
3206  E2850001           [149] call       23  2   2  
320A  D8450000           [150] test       23      1    ; to [152] if false
320E  1AC00380           [151] jmp        16           ; to [168]
3212  DD850700           [152] getglobal  23  30       ; _T
3216  CEC5C70B           [153] gettable   23  23  287  ; "UseAiDirectorPopulationSpawnCount"
321A  D8050000           [154] test       23      0    ; to [156] if true
321E  1AC00280           [155] jmp        12           ; to [168]
3222  DD050600           [156] getglobal  23  24       ; math
3226  CE05C80B           [157] gettable   23  23  288  ; 1710846250
322A  19460100           [158] loadk      24  5        ; 0
322E  53068007           [159] getupval   25  15     
3232  6446C80C           [160] self       25  25  289  ; 290519734
3236  62860001           [161] call       25  2   2  
323A  93068007           [162] getupval   26  15     
323E  A486480D           [163] self       26  26  290  ; -1626084341
3242  A2860001           [164] call       26  2   2  
3246  4D86860C           [165] sub        25  25  26 
324A  E2858001           [166] call       23  3   2  
324E  9205800B           [167] move       22  23     
3252  D9C50500           [168] loadk      23  23       ; 0
3256  1D060600           [169] getglobal  24  24       ; math
325A  0E06480C           [170] gettable   24  24  288  ; 1710846250
325E  52060009           [171] move       25  18     
3262  99460100           [172] loadk      26  5        ; 0
3266  22868001           [173] call       24  3   2  
326A  59C60500           [174] loadk      25  23       ; 0
326E  D0051C80           [175] forprep    23  113      ; to [289]
3272  D3068007           [176] getupval   27  15     
3276  E486C80D           [177] self       27  27  290  ; -1626084341
327A  57070000           [178] loadbool   29  0   0    ; false
327E  E2868001           [179] call       27  3   2  
3282  13078007           [180] getupval   28  15     
3286  24C7480E           [181] self       28  28  291  ; -1738719634
328A  22870001           [182] call       28  2   2  
fail op	33
328E  61C0060E           [183] tforloop   1       27   ; to [185] if exit
3292  1A001A80           [184] jmp        105          ; to [290]
fail op	33
3296  2140050B           [185] tforloop   0       21   ; to [187] if exit
329A  1A000080           [186] jmp        1            ; to [188]
329E  1A401980           [187] jmp        102          ; to [290]
32A2  DD060900           [188] getglobal  27  36       ; -895206725
32A6  13070008           [189] getupval   28  16     
32AA  5D470900           [190] getglobal  29  37       ; 2144646525
32AE  99C70500           [191] loadk      30  23       ; 0
32B2  D3070008           [192] getupval   31  16     
32B6  CA07800F           [193] len        31  31     
32BA  62878001           [194] call       29  3   2  
32BE  0E47070E           [195] gettable   28  28  29 
32C2  0E87490E           [196] gettable   28  28  294  ; "agent"
32C6  E2860001           [197] call       27  2   2  
32CA  19070100           [198] loadk      28  4        ; 0
32CE  5D070200           [199] getglobal  29  8        ; 1074689893
32D2  9D870700           [200] getglobal  30  30       ; _T
32D6  8EC7490F           [201] gettable   30  30  295  ; "EndlessModeEnemyLevel"
32DA  62870001           [202] call       29  2   2  
32DE  58470000           [203] test       29      1    ; to [205] if false
32E2  1A000280           [204] jmp        9            ; to [214]
32E6  5D470900           [205] getglobal  29  37       ; 2144646525
32EA  9D870700           [206] getglobal  30  30       ; _T
32EE  8EC7490F           [207] gettable   30  30  295  ; "EndlessModeEnemyLevel"
32F2  8D074A0F           [208] sub        30  30  296  ; 0
32F6  DD870700           [209] getglobal  31  30       ; _T
32FA  CEC7C90F           [210] gettable   31  31  295  ; "EndlessModeEnemyLevel"
32FE  C307CA0F           [211] add        31  31  296  ; 0
3302  62878001           [212] call       29  3   2  
3306  1207800E           [213] move       28  29     
330A  53078007           [214] getupval   29  15     
330E  6447CA0E           [215] self       29  29  297  ; -2120903900
3312  D207800D           [216] move       31  27     
3316  13080000           [217] getupval   32  0      
331A  59880A00           [218] loadk      33  42       ; 0
331E  9DC80A00           [219] getglobal  34  43       ; EMPTY_SYMBOL
3322  D208000E           [220] move       35  28     
3326  06090012           [221] loadnil    36  36     
332A  5209000A           [222] move       37  20     
332E  62878004           [223] call       29  9   2  
3332  9D070200           [224] getglobal  30  8        ; 1074689893
3336  D207800E           [225] move       31  29     
333A  A2870001           [226] call       30  2   2  
333E  98470000           [227] test       30      1    ; to [229] if false
3342  1A000E80           [228] jmp        57           ; to [286]
3346  A4C7C10E           [229] self       30  29  263  ; -2135866365
334A  A2870001           [230] call       30  2   2  
334E  E4074B0F           [231] self       31  30  300  ; -1421644046
3352  53088008           [232] getupval   33  17     
3356  9DC80A00           [233] getglobal  34  43       ; EMPTY_SYMBOL
335A  E2470002           [234] call       31  4   1  
335E  E4074B0F           [235] self       31  30  300  ; -1421644046
3362  53080009           [236] getupval   33  18     
3366  9DC80A00           [237] getglobal  34  43       ; EMPTY_SYMBOL
336A  E2470002           [238] call       31  4   1  
336E  E4C7400F           [239] self       31  30  259  ; 630793108
3372  53088009           [240] getupval   33  19     
3376  97080000           [241] loadbool   34  0   0    ; false
337A  E2470002           [242] call       31  4   1  
337E  DD070000           [243] getglobal  31  0        ; gRegion
3382  E447C00F           [244] self       31  31  257  ; -1110225722
3386  53080005           [245] getupval   33  10     
338A  93080000           [246] getupval   34  0      
338E  A4484311           [247] self       34  34  269  ; 1839670529
3392  A2880001           [248] call       34  2   2  
3396  DD880000           [249] getglobal  35  2        ; ZERO_ROTATION
339A  E2878002           [250] call       31  5   2  
339E  2488C30F           [251] self       32  31  270  ; 1311555023
33A2  A448430F           [252] self       34  30  269  ; 1839670529
33A6  A2080001           [253] call       34  2   0  
33AA  22480000           [254] call       32  0   1  
33AE  24484B0F           [255] self       32  30  301  ; 1445902558
33B2  9D080400           [256] getglobal  34  16       ; -332969190
33B6  D9880B00           [257] loadk      35  46       ; "VoidTear"
33BA  A2880001           [258] call       34  2   2  
33BE  D3088005           [259] getupval   35  11     
33C2  E4C8CB11           [260] self       35  35  303  ; -689167287
33C6  E2880001           [261] call       35  2   2  
33CA  CEC8C511           [262] gettable   35  35  279  ; 0
33CE  22480002           [263] call       32  4   1  
33D2  1D880400           [264] getglobal  32  18       ; -1799570112
33D6  5208000F           [265] move       33  30     
33DA  99C80400           [266] loadk      34  19       ; "OnKilled"
33DE  22488001           [267] call       32  3   1  
33E2  2408CC0E           [268] self       32  29  304  ; -1850937571
33E6  22480001           [269] call       32  2   1  
33EA  1DC80600           [270] getglobal  32  27       ; Engine
33EE  0E454710           [271] gettable   20  32  285  ; "STANDARD"
33F2  43C5C50A           [272] add        21  21  279  ; 0
33F6  1D080200           [273] getglobal  32  8        ; 1074689893
33FA  52080005           [274] move       33  10     
33FE  22880001           [275] call       32  2   2  
3402  18480000           [276] test       32      1    ; to [278] if false
3406  1A800080           [277] jmp        3            ; to [281]
340A  2448CC0E           [278] self       32  29  305  ; 1755388072
340E  92080005           [279] move       34  10     
3412  22488001           [280] call       32  3   1  
3416  1D880C00           [281] getglobal  32  50       ; table
341A  0EC84C10           [282] gettable   32  32  307  ; -431682403
341E  5308000A           [283] getupval   33  20     
3422  9208000F           [284] move       34  30     
3426  22488001           [285] call       32  3   1  
342A  1DC80200           [286] getglobal  32  11       ; 538022378
342E  59080100           [287] loadk      33  4        ; 0
3432  22480001           [288] call       32  2   1  
3436  D445E37F           [289] forloop    23  -114     ; to [176] if loop
343A  1D080200           [290] getglobal  32  8        ; 1074689893
343E  5308800A           [291] getupval   33  21     
3442  22880001           [292] call       32  2   2  
3446  18480000           [293] test       32      1    ; to [295] if false
344A  1A400180           [294] jmp        6            ; to [301]
344E  13088005           [295] getupval   32  11     
3452  24084D10           [296] self       32  32  308  ; -1464939954
3456  9308800A           [297] getupval   34  21     
345A  22488001           [298] call       32  3   1  
345E  06080010           [299] loadnil    32  32     
fail op	8
3462  0808800A           [300] setupval   32  21     
3466  13088005           [301] getupval   32  11     
346A  24484D10           [302] self       32  32  309  ; -803877924
346E  93080006           [303] getupval   34  12     
3472  D2080009           [304] move       35  18     
3476  22480002           [305] call       32  4   1  
347A  1E008000           [306] return     0   1      
                         * constants:
347E  36                 sizek (54)
347F  04                 const type 4
3480  08                 string size (8)
3481  67526567696F6E00   "gRegion\0"
                         const [0]: "gRegion"
3489  01                 const type 3
348A  C64CD3BD           const [1]: (-1110225722)
348E  04                 const type 4
348F  0E                 string size (14)
3490  5A45524F5F524F54+  "ZERO_ROT"
3498  4154494F4E00       "ATION\0"
                         const [2]: "ZERO_ROTATION"
349E  01                 const type 3
349F  94239925           const [3]: (630793108)
34A3  03                 const type 3
34A4  00000000           const [4]: (0)
34A8  03                 const type 3
34A9  00004040           const [5]: (0)
34AD  01                 const type 3
34AE  0791B063           const [6]: (1672515847)
34B2  01                 const type 3
34B3  0344B180           const [7]: (-2135866365)
34B7  01                 const type 3
34B8  65770E40           const [8]: (1074689893)
34BC  01                 const type 3
34BD  7E8BEF6D           const [9]: (1844415358)
34C1  03                 const type 3
34C2  CDCCCC3D           const [10]: (-51)
34C6  01                 const type 3
34C7  EA911120           const [11]: (538022378)
34CB  01                 const type 3
34CC  FFF9DE4C           const [12]: (1289681407)
34D0  01                 const type 3
34D1  0125A76D           const [13]: (1839670529)
34D5  01                 const type 3
34D6  CFBD2C4E           const [14]: (1311555023)
34DA  01                 const type 3
34DB  A25264B2           const [15]: (-1302048094)
34DF  01                 const type 3
34E0  1A4B27EC           const [16]: (-332969190)
34E4  04                 const type 4
34E5  0D                 string size (13)
34E6  436F727275707445+  "CorruptE"
34EE  6E656D7900         "nemy\0"
                         const [17]: "CorruptEnemy"
34F3  01                 const type 3
34F4  40BDBC94           const [18]: (-1799570112)
34F8  04                 const type 4
34F9  09                 string size (9)
34FA  4F6E4B696C6C6564+  "OnKilled"
3502  00                 "\0"
                         const [19]: "OnKilled"
3503  01                 const type 3
3504  93DDD9AB           const [20]: (-1411785325)
3508  01                 const type 3
3509  5BAB905D           const [21]: (1569762139)
350D  01                 const type 3
350E  FBE70EED           const [22]: (-317790213)
3512  03                 const type 3
3513  0000803F           const [23]: (0)
3517  04                 const type 4
3518  05                 string size (5)
3519  6D61746800         "math\0"
                         const [24]: "math"
351E  01                 const type 3
351F  6F6E3932           const [25]: (842624623)
3523  01                 const type 3
3524  A22217F8           const [26]: (-132701534)
3528  04                 const type 4
3529  07                 string size (7)
352A  456E67696E6500     "Engine\0"
                         const [27]: "Engine"
3531  04                 const type 4
3532  07                 string size (7)
3533  4558494D555300     "EXIMUS\0"
                         const [28]: "EXIMUS"
353A  04                 const type 4
353B  09                 string size (9)
353C  5354414E44415244+  "STANDARD"
3544  00                 "\0"
                         const [29]: "STANDARD"
3545  04                 const type 4
3546  03                 string size (3)
3547  5F5400             "_T\0"
                         const [30]: "_T"
354A  04                 const type 4
354B  22                 string size (34)
354C  5573654169446972+  "UseAiDir"
3554  6563746F72506F70+  "ectorPop"
355C  756C6174696F6E53+  "ulationS"
3564  7061776E436F756E+  "pawnCoun"
356C  7400               "t\0"
                         const [31]: "UseAiDirectorPopulationSpawnCount"
356E  01                 const type 3
356F  2A71F965           const [32]: (1710846250)
3573  01                 const type 3
3574  B6FA5011           const [33]: (290519734)
3578  01                 const type 3
3579  0BEC139F           const [34]: (-1626084341)
357D  01                 const type 3
357E  6E3E5D98           const [35]: (-1738719634)
3582  01                 const type 3
3583  BB3AA4CA           const [36]: (-895206725)
3587  01                 const type 3
3588  7DB5D47F           const [37]: (2144646525)
358C  04                 const type 4
358D  06                 string size (6)
358E  6167656E7400       "agent\0"
                         const [38]: "agent"
3594  04                 const type 4
3595  16                 string size (22)
3596  456E646C6573734D+  "EndlessM"
359E  6F6465456E656D79+  "odeEnemy"
35A6  4C6576656C00       "Level\0"
                         const [39]: "EndlessModeEnemyLevel"
35AC  03                 const type 3
35AD  00000040           const [40]: (0)
35B1  01                 const type 3
35B2  24939581           const [41]: (-2120903900)
35B6  03                 const type 3
35B7  0000A040           const [42]: (0)
35BB  04                 const type 4
35BC  0D                 string size (13)
35BD  454D5054595F5359+  "EMPTY_SY"
35C5  4D424F4C00         "MBOL\0"
                         const [43]: "EMPTY_SYMBOL"
35CA  01                 const type 3
35CB  F26E43AB           const [44]: (-1421644046)
35CF  01                 const type 3
35D0  DEB82E56           const [45]: (1445902558)
35D4  04                 const type 4
35D5  09                 string size (9)
35D6  566F696454656172+  "VoidTear"
35DE  00                 "\0"
                         const [46]: "VoidTear"
35DF  01                 const type 3
35E0  4924ECD6           const [47]: (-689167287)
35E4  01                 const type 3
35E5  1DEFAC91           const [48]: (-1850937571)
35E9  01                 const type 3
35EA  A818A168           const [49]: (1755388072)
35EE  04                 const type 4
35EF  06                 string size (6)
35F0  7461626C6500       "table\0"
                         const [50]: "table"
35F6  01                 const type 3
35F7  9D0C45E6           const [51]: (-431682403)
35FB  01                 const type 3
35FC  4ECAAEA8           const [52]: (-1464939954)
3600  01                 const type 3
3601  DCCB15D0           const [53]: (-803877924)
                         * functions:
3605  00                 sizep (0)
                         * lines:
3607  02                 sizelineinfo (306)
                         [pc] (line)
3608  C7                 [001] (-57)
3609  01                 [002] (-57)
360A  00                 [003] (-57)
360B  00                 [004] (-57)
360C  C7                 [005] (-57)
360D  01                 [006] (-57)
360E  00                 [007] (-57)
360F  00                 [008] (-56)
3610  C7                 [009] (-56)
3611  01                 [010] (-56)
3612  00                 [011] (-56)
3613  00                 [012] (-56)
3614  C7                 [013] (-56)
3615  01                 [014] (-55)
3616  00                 [015] (-55)
3617  00                 [016] (-55)
3618  C7                 [017] (-55)
3619  01                 [018] (-55)
361A  00                 [019] (-54)
361B  00                 [020] (-54)
361C  C7                 [021] (-51)
361D  01                 [022] (-50)
361E  00                 [023] (-49)
361F  00                 [024] (-49)
3620  C7                 [025] (-49)
3621  01                 [026] (-49)
3622  00                 [027] (-49)
3623  00                 [028] (-49)
3624  C8                 [029] (-49)
3625  01                 [030] (-48)
3626  00                 [031] (-48)
3627  00                 [032] (-48)
3628  C8                 [033] (-48)
3629  01                 [034] (-47)
362A  00                 [035] (-47)
362B  00                 [036] (-46)
362C  C8                 [037] (-46)
362D  01                 [038] (-46)
362E  00                 [039] (-46)
362F  00                 [040] (-46)
3630  C8                 [041] (-46)
3631  01                 [042] (-46)
3632  00                 [043] (-46)
3633  00                 [044] (-46)
3634  C8                 [045] (-46)
3635  01                 [046] (-45)
3636  00                 [047] (-44)
3637  00                 [048] (-48)
3638  C8                 [049] (-43)
3639  01                 [050] (-41)
363A  00                 [051] (-41)
363B  00                 [052] (-41)
363C  C9                 [053] (-40)
363D  01                 [054] (-40)
363E  00                 [055] (-40)
363F  00                 [056] (-40)
3640  C9                 [057] (-36)
3641  01                 [058] (-36)
3642  00                 [059] (-36)
3643  00                 [060] (-36)
3644  C9                 [061] (-36)
3645  01                 [062] (-36)
3646  00                 [063] (-36)
3647  00                 [064] (-36)
3648  C9                 [065] (-36)
3649  01                 [066] (-36)
364A  00                 [067] (-34)
364B  00                 [068] (-31)
364C  C9                 [069] (-31)
364D  01                 [070] (-31)
364E  00                 [071] (-31)
364F  00                 [072] (-30)
3650  CA                 [073] (-30)
3651  01                 [074] (-30)
3652  00                 [075] (-30)
3653  00                 [076] (-30)
3654  CA                 [077] (-29)
3655  01                 [078] (-29)
3656  00                 [079] (-29)
3657  00                 [080] (-29)
3658  CD                 [081] (-29)
3659  01                 [082] (-29)
365A  00                 [083] (-29)
365B  00                 [084] (-29)
365C  CE                 [085] (-28)
365D  01                 [086] (-28)
365E  00                 [087] (-28)
365F  00                 [088] (-28)
3660  CF                 [089] (-27)
3661  01                 [090] (-27)
3662  00                 [091] (-27)
3663  00                 [092] (-27)
3664  CF                 [093] (-27)
3665  01                 [094] (-27)
3666  00                 [095] (-26)
3667  00                 [096] (-26)
3668  CF                 [097] (-26)
3669  01                 [098] (-26)
366A  00                 [099] (-25)
366B  00                 [100] (-25)
366C  CF                 [101] (-24)
366D  01                 [102] (-24)
366E  00                 [103] (-24)
366F  00                 [104] (-24)
3670  CF                 [105] (-24)
3671  01                 [106] (-24)
3672  00                 [107] (-24)
3673  00                 [108] (-24)
3674  CF                 [109] (-24)
3675  01                 [110] (-24)
3676  00                 [111] (-24)
3677  00                 [112] (-23)
3678  CF                 [113] (-23)
3679  01                 [114] (-23)
367A  00                 [115] (-31)
367B  00                 [116] (-21)
367C  D0                 [117] (-17)
367D  01                 [118] (-17)
367E  00                 [119] (-17)
367F  00                 [120] (-17)
3680  D0                 [121] (-17)
3681  01                 [122] (-17)
3682  00                 [123] (-16)
3683  00                 [124] (-16)
3684  D0                 [125] (-16)
3685  01                 [126] (-16)
3686  00                 [127] (-16)
3687  00                 [128] (-16)
3688  D0                 [129] (-16)
3689  01                 [130] (-16)
368A  00                 [131] (-16)
368B  00                 [132] (-16)
368C  D1                 [133] (-16)
368D  01                 [134] (-16)
368E  00                 [135] (-16)
368F  00                 [136] (-15)
3690  D1                 [137] (-15)
3691  01                 [138] (-15)
3692  00                 [139] (-15)
3693  00                 [140] (-15)
3694  D2                 [141] (-15)
3695  01                 [142] (-15)
3696  00                 [143] (-15)
3697  00                 [144] (-14)
3698  D2                 [145] (-13)
3699  01                 [146] (-12)
369A  00                 [147] (-12)
369B  00                 [148] (-12)
369C  D2                 [149] (-12)
369D  01                 [150] (-12)
369E  00                 [151] (-12)
369F  00                 [152] (-12)
36A0  D2                 [153] (-12)
36A1  01                 [154] (-12)
36A2  00                 [155] (-12)
36A3  00                 [156] (-11)
36A4  D2                 [157] (-11)
36A5  01                 [158] (-11)
36A6  00                 [159] (-11)
36A7  00                 [160] (-11)
36A8  D2                 [161] (-11)
36A9  01                 [162] (-11)
36AA  00                 [163] (-11)
36AB  00                 [164] (-11)
36AC  D2                 [165] (-11)
36AD  01                 [166] (-11)
36AE  00                 [167] (-11)
36AF  00                 [168] (-8)
36B0  D2                 [169] (-8)
36B1  01                 [170] (-8)
36B2  00                 [171] (-8)
36B3  00                 [172] (-8)
36B4  D2                 [173] (-8)
36B5  01                 [174] (-8)
36B6  00                 [175] (-8)
36B7  00                 [176] (-7)
36B8  D2                 [177] (-7)
36B9  01                 [178] (-7)
36BA  00                 [179] (-7)
36BB  00                 [180] (-7)
36BC  D3                 [181] (-7)
36BD  01                 [182] (-7)
36BE  00                 [183] (-7)
36BF  00                 [184] (-7)
36C0  D4                 [185] (-7)
36C1  01                 [186] (-7)
36C2  00                 [187] (-6)
36C3  00                 [188] (-3)
36C4  D0                 [189] (-3)
36C5  01                 [190] (-3)
36C6  00                 [191] (-3)
36C7  00                 [192] (-3)
36C8  D5                 [193] (-3)
36C9  01                 [194] (-3)
36CA  00                 [195] (-3)
36CB  00                 [196] (-3)
36CC  D7                 [197] (-3)
36CD  01                 [198] (-2)
36CE  00                 [199] (-1)
36CF  00                 [200] (-1)
36D0  D7                 [201] (-1)
36D1  01                 [202] (-1)
36D2  00                 [203] (-1)
36D3  00                 [204] (-1)
36D4  D7                 [205] (0)
36D5  01                 [206] (0)
36D6  00                 [207] (0)
36D7  00                 [208] (0)
36D8  D8                 [209] (0)
36D9  01                 [210] (0)
36DA  00                 [211] (0)
36DB  00                 [212] (0)
36DC  D8                 [213] (0)
36DD  01                 [214] (3)
36DE  00                 [215] (3)
36DF  00                 [216] (3)
36E0  D8                 [217] (3)
36E1  01                 [218] (3)
36E2  00                 [219] (3)
36E3  00                 [220] (3)
36E4  D8                 [221] (3)
36E5  01                 [222] (3)
36E6  00                 [223] (3)
36E7  00                 [224] (4)
36E8  DC                 [225] (4)
36E9  01                 [226] (4)
36EA  00                 [227] (4)
36EB  00                 [228] (4)
36EC  DC                 [229] (5)
36ED  01                 [230] (5)
36EE  00                 [231] (6)
36EF  00                 [232] (6)
36F0  DC                 [233] (6)
36F1  01                 [234] (6)
36F2  00                 [235] (7)
36F3  00                 [236] (7)
36F4  DC                 [237] (7)
36F5  01                 [238] (7)
36F6  00                 [239] (8)
36F7  00                 [240] (8)
36F8  DC                 [241] (8)
36F9  01                 [242] (8)
36FA  00                 [243] (9)
36FB  00                 [244] (9)
36FC  DC                 [245] (9)
36FD  01                 [246] (9)
36FE  00                 [247] (9)
36FF  00                 [248] (9)
3700  DC                 [249] (9)
3701  01                 [250] (9)
3702  00                 [251] (10)
3703  00                 [252] (10)
3704  DC                 [253] (10)
3705  01                 [254] (10)
3706  00                 [255] (11)
3707  00                 [256] (11)
3708  DC                 [257] (11)
3709  01                 [258] (11)
370A  00                 [259] (11)
370B  00                 [260] (11)
370C  DC                 [261] (11)
370D  01                 [262] (11)
370E  00                 [263] (11)
370F  00                 [264] (12)
3710  DE                 [265] (12)
3711  01                 [266] (12)
3712  00                 [267] (12)
3713  00                 [268] (13)
3714  E1                 [269] (13)
3715  01                 [270] (14)
3716  00                 [271] (14)
3717  00                 [272] (15)
3718  E1                 [273] (17)
3719  01                 [274] (17)
371A  00                 [275] (17)
371B  00                 [276] (17)
371C  E1                 [277] (17)
371D  01                 [278] (18)
371E  00                 [279] (18)
371F  00                 [280] (18)
3720  E1                 [281] (21)
3721  01                 [282] (21)
3722  00                 [283] (21)
3723  00                 [284] (21)
3724  E2                 [285] (21)
3725  01                 [286] (23)
3726  00                 [287] (23)
3727  00                 [288] (23)
3728  E2                 [289] (-8)
3729  01                 [290] (26)
372A  00                 [291] (26)
372B  00                 [292] (26)
372C  E2                 [293] (26)
372D  01                 [294] (26)
372E  00                 [295] (27)
372F  00                 [296] (27)
3730  E2                 [297] (27)
3731  01                 [298] (27)
3732  00                 [299] (28)
3733  00                 [300] (28)
3734  E2                 [301] (31)
3735  01                 [302] (31)
3736  00                 [303] (31)
3737  00                 [304] (31)
3738  E3                 [305] (31)
3739  01                 [306] (32)
                         * locals:
3AD0  00                 sizelocvars (0)
                         * upvalues:
3AD1  00                 sizeupvalues (0)
                         ** end of function **

                         
3AD2                     ** function [14] definition (level 2)
                         ** start of function **
3AD2  00                 string size (0)
                         source name: (none)
3AD4  04                 line defined (546)
3AD5  B5                 last line defined (565)
3AD6  04                 nups (1)
3AD7  01                 numparams (2)
3AD8  02                 is_vararg (0)
3AD9  00                 maxstacksize (16)
                         * code:
3ADB  38                 sizecode (56)
3ADC  A4004000           [01] self       2   0   256  ; -1957065004
3AE0  1D410000           [02] getglobal  4   1        ; gPowerSuitType
3AE4  A2808001           [03] call       2   3   2  
3AE8  98000000           [04] test       2       0    ; to [6] if true
3AEC  1A000180           [05] jmp        5            ; to [11]
3AF0  A480C000           [06] self       2   1   258  ; -1421644046
3AF4  13010000           [07] getupval   4   0      
3AF8  5DC10000           [08] getglobal  5   3        ; EMPTY_SYMBOL
3AFC  A2400002           [09] call       2   4   1  
3B00  1A000B80           [10] jmp        45           ; to [56]
3B04  A4004000           [11] self       2   0   256  ; -1957065004
3B08  1D010100           [12] getglobal  4   4        ; gWeaponExType
3B0C  A2808001           [13] call       2   3   2  
3B10  98000000           [14] test       2       0    ; to [16] if true
3B14  1AC00980           [15] jmp        40           ; to [56]
3B18  99400100           [16] loadk      2   5        ; 0
3B1C  D9800100           [17] loadk      3   6        ; 0
3B20  19C10100           [18] loadk      4   7        ; 0
3B24  90400380           [19] forprep    2   14       ; to [34]
3B28  A4014200           [20] self       6   0   264  ; -479621877
3B2C  1D420200           [21] getglobal  8   9        ; Engine
3B30  0E824204           [22] gettable   8   8   266  ; "THIRD_PERSON"
3B34  52028002           [23] move       9   5      
3B38  A2810002           [24] call       6   4   2  
3B3C  DDC10200           [25] getglobal  7   11       ; 1074689893
3B40  12020003           [26] move       8   6      
3B44  E2810001           [27] call       7   2   2  
3B48  D8410000           [28] test       7       1    ; to [30] if false
3B4C  1AC00080           [29] jmp        4            ; to [34]
3B50  E4814003           [30] self       7   6   258  ; -1421644046
3B54  53020000           [31] getupval   9   0      
3B58  9DC20000           [32] getglobal  10  3        ; EMPTY_SYMBOL
3B5C  E2410002           [33] call       7   4   1  
3B60  9400FC7F           [34] forloop    2   -15      ; to [20] if loop
3B64  E4014300           [35] self       7   0   268  ; 830516712
3B68  E2810001           [36] call       7   2   2  
3B6C  D8010000           [37] test       7       0    ; to [39] if true
3B70  1A000480           [38] jmp        17           ; to [56]
3B74  E4414300           [39] self       7   0   269  ; 51530231
3B78  E2810001           [40] call       7   2   2  
3B7C  19C20100           [41] loadk      8   7        ; 0
3B80  4A028003           [42] len        9   7      
3B84  99C20100           [43] loadk      10  7        ; 0
3B88  10420280           [44] forprep    8   10       ; to [55]
3B8C  1DC30200           [45] getglobal  12  11       ; 1074689893
3B90  4EC38203           [46] gettable   13  7   11 
3B94  22830001           [47] call       12  2   2  
3B98  18430000           [48] test       12      1    ; to [50] if false
3B9C  1A000180           [49] jmp        5            ; to [55]
3BA0  0EC38203           [50] gettable   12  7   11 
3BA4  24834006           [51] self       12  12  258  ; -1421644046
3BA8  93030000           [52] getupval   14  0      
3BAC  DDC30000           [53] getglobal  15  3        ; EMPTY_SYMBOL
3BB0  22430002           [54] call       12  4   1  
3BB4  1402FD7F           [55] forloop    8   -11      ; to [45] if loop
3BB8  1E008000           [56] return     0   1      
                         * constants:
3BBC  0E                 sizek (14)
3BBD  01                 const type 3
3BBE  D48E598B           const [0]: (-1957065004)
3BC2  04                 const type 4
3BC3  0F                 string size (15)
3BC4  67506F7765725375+  "gPowerSu"
3BCC  69745479706500     "itType\0"
                         const [1]: "gPowerSuitType"
3BD3  01                 const type 3
3BD4  F26E43AB           const [2]: (-1421644046)
3BD8  04                 const type 4
3BD9  0D                 string size (13)
3BDA  454D5054595F5359+  "EMPTY_SY"
3BE2  4D424F4C00         "MBOL\0"
                         const [3]: "EMPTY_SYMBOL"
3BE7  04                 const type 4
3BE8  0E                 string size (14)
3BE9  67576561706F6E45+  "gWeaponE"
3BF1  785479706500       "xType\0"
                         const [4]: "gWeaponExType"
3BF7  03                 const type 3
3BF8  00000000           const [5]: (0)
3BFC  03                 const type 3
3BFD  00004040           const [6]: (0)
3C01  03                 const type 3
3C02  0000803F           const [7]: (0)
3C06  01                 const type 3
3C07  0B8D69E3           const [8]: (-479621877)
3C0B  04                 const type 4
3C0C  07                 string size (7)
3C0D  456E67696E6500     "Engine\0"
                         const [9]: "Engine"
3C14  04                 const type 4
3C15  0D                 string size (13)
3C16  54484952445F5045+  "THIRD_PE"
3C1E  52534F4E00         "RSON\0"
                         const [10]: "THIRD_PERSON"
3C23  01                 const type 3
3C24  65770E40           const [11]: (1074689893)
3C28  01                 const type 3
3C29  E8AD8031           const [12]: (830516712)
3C2D  01                 const type 3
3C2E  F7491203           const [13]: (51530231)
                         * functions:
3C32  00                 sizep (0)
                         * lines:
3C33  38                 sizelineinfo (56)
                         [pc] (line)
3C34  23                 [01] (35)
3C35  02                 [02] (35)
3C36  00                 [03] (35)
3C37  00                 [04] (35)
3C38  23                 [05] (35)
3C39  02                 [06] (36)
3C3A  00                 [07] (36)
3C3B  00                 [08] (36)
3C3C  23                 [09] (36)
3C3D  02                 [10] (36)
3C3E  00                 [11] (37)
3C3F  00                 [12] (37)
3C40  23                 [13] (37)
3C41  02                 [14] (37)
3C42  00                 [15] (37)
3C43  00                 [16] (38)
3C44  23                 [17] (38)
3C45  02                 [18] (38)
3C46  00                 [19] (38)
3C47  00                 [20] (39)
3C48  24                 [21] (39)
3C49  02                 [22] (39)
3C4A  00                 [23] (39)
3C4B  00                 [24] (39)
3C4C  24                 [25] (40)
3C4D  02                 [26] (40)
3C4E  00                 [27] (40)
3C4F  00                 [28] (40)
3C50  24                 [29] (40)
3C51  02                 [30] (41)
3C52  00                 [31] (41)
3C53  00                 [32] (41)
3C54  24                 [33] (41)
3C55  02                 [34] (38)
3C56  00                 [35] (44)
3C57  00                 [36] (44)
3C58  24                 [37] (44)
3C59  02                 [38] (44)
3C5A  00                 [39] (45)
3C5B  00                 [40] (45)
3C5C  25                 [41] (46)
3C5D  02                 [42] (46)
3C5E  00                 [43] (46)
3C5F  00                 [44] (46)
3C60  25                 [45] (47)
3C61  02                 [46] (47)
3C62  00                 [47] (47)
3C63  00                 [48] (47)
3C64  25                 [49] (47)
3C65  02                 [50] (48)
3C66  00                 [51] (48)
3C67  00                 [52] (48)
3C68  25                 [53] (48)
3C69  02                 [54] (48)
3C6A  00                 [55] (46)
3C6B  00                 [56] (53)
                         * locals:
3D14  00                 sizelocvars (0)
                         * upvalues:
3D15  00                 sizeupvalues (0)
                         ** end of function **

                         
3D16                     ** function [15] definition (level 2)
                         ** start of function **
3D16  00                 string size (0)
                         source name: (none)
3D18  04                 line defined (568)
3D19  E4                 last line defined (612)
3D1A  04                 nups (11)
3D1B  0B                 numparams (1)
3D1C  01                 is_vararg (0)
3D1D  00                 maxstacksize (32)
                         * code:
3D20  01                 sizecode (129)
3D21  64004000           [001] self       1   0   256  ; -1813551355
3D25  62800001           [002] call       1   2   2  
3D29  A440C000           [003] self       2   1   257  ; -1917464545
3D2D  A2800001           [004] call       2   2   2  
3D31  E4804000           [005] self       3   0   258  ; 340404473
3D35  E2800001           [006] call       3   2   2  
3D39  0B010000           [007] newtable   4   0   0    ; array=0, hash=0
3D3D  5DC10000           [008] getglobal  5   3        ; 1672515847
3D41  93010000           [009] getupval   6   0      
3D45  62010101           [010] call       5   2   4  
3D49  1A400680           [011] jmp        26           ; to [38]
3D4D  9D020100           [012] getglobal  10  4        ; -332969190
3D51  D2028001           [013] move       11  3      
3D55  1D430100           [014] getglobal  12  5        ; -1615931716
3D59  52038004           [015] move       13  9      
3D5D  22830001           [016] call       12  2   2  
3D61  C2028305           [017] concat     11  11  12 
3D65  A2820001           [018] call       10  2   2  
3D69  DD820100           [019] getglobal  11  6        ; 1074689893
3D6D  13038000           [020] getupval   12  1      
3D71  52030000           [021] move       13  0      
3D75  92038004           [022] move       14  9      
3D79  22038001           [023] call       12  3   0  
3D7D  E2820000           [024] call       11  0   2  
3D81  D8420000           [025] test       11      1    ; to [27] if false
3D85  1A800280           [026] jmp        11           ; to [38]
3D89  DDC20100           [027] getglobal  11  7        ; gGameRules
3D8D  E402C205           [028] self       11  11  264  ; -414383436
3D91  52030005           [029] move       13  10     
3D95  E2828001           [030] call       11  3   2  
3D99  D8420000           [031] test       11      1    ; to [33] if false
3D9D  1A000180           [032] jmp        5            ; to [38]
3DA1  DD420200           [033] getglobal  11  9        ; table
3DA5  CE82C205           [034] gettable   11  11  266  ; -431682403
3DA9  12030002           [035] move       12  4      
3DAD  52038004           [036] move       13  9      
3DB1  E2428001           [037] call       11  3   1  
3DB5  56810000           [038] tforloop   5       2    ; to [40] if exit
3DB9  1AC0F87F           [039] jmp        -28          ; to [12]
3DBD  CA020002           [040] len        11  4      
fail op	35
3DC1  23C0C205           [041] close      0  
3DC5  1A000080           [042] jmp        1            ; to [44]
3DC9  1E008000           [043] return     0   1      
3DCD  DD020300           [044] getglobal  11  12       ; 2144646525
3DD1  19430300           [045] loadk      12  13       ; 0
3DD5  4A030002           [046] len        13  4      
3DD9  E2828001           [047] call       11  3   2  
3DDD  CEC20202           [048] gettable   11  4   11 
3DE1  13038000           [049] getupval   12  1      
3DE5  52030000           [050] move       13  0      
3DE9  92038005           [051] move       14  11     
3DED  22838001           [052] call       12  3   2  
3DF1  59430300           [053] loadk      13  13       ; 0
3DF5  93030001           [054] getupval   14  2      
3DF9  8A030007           [055] len        14  14     
3DFD  D9430300           [056] loadk      15  13       ; 0
3E01  50830480           [057] forprep    13  19       ; to [77]
3E05  53040001           [058] getupval   17  2      
3E09  4E048408           [059] gettable   17  17  16 
3E0D  8E84C308           [060] gettable   18  17  270  ; "Slot"
fail op	35
3E11  23C00209           [061] close      0  
3E15  1A400380           [062] jmp        14           ; to [77]
3E19  9DC40000           [063] getglobal  18  3        ; 1672515847
3E1D  CEC4C308           [064] gettable   19  17  271  ; "Upgrades"
3E21  A2040101           [065] call       18  2   4  
3E25  1A800180           [066] jmp        7            ; to [74]
3E29  E4054401           [067] self       23  2   272  ; 991629753
3E2D  4E46440B           [068] gettable   25  22  273  ; "Type"
3E31  8E86440B           [069] gettable   26  22  274  ; "Op"
3E35  CEC6440B           [070] gettable   27  22  275  ; "Val"
3E39  24074506           [071] self       28  12  276  ; -491574171
3E3D  22070001           [072] call       28  2   0  
3E41  E2450000           [073] call       23  0   1  
3E45  96840000           [074] tforloop   18      2    ; to [76] if exit
3E49  1A80FD7F           [075] jmp        -9           ; to [67]
3E4D  1A000080           [076] jmp        1            ; to [78]
3E51  54C3FA7F           [077] forloop    13  -20      ; to [58] if loop
3E55  D3058001           [078] getupval   23  3      
3E59  12060006           [079] move       24  12     
3E5D  52068000           [080] move       25  1      
3E61  E2458001           [081] call       23  3   1  
3E65  E4454501           [082] self       23  2   277  ; 989072727
3E69  52068005           [083] move       25  11     
3E6D  E2458001           [084] call       23  3   1  
3E71  D3050002           [085] getupval   23  4      
3E75  13068002           [086] getupval   24  5      
3E79  CE05860B           [087] gettable   23  23  24 
3E7D  2486C500           [088] self       24  1   278  ; 630793108
3E81  93060003           [089] getupval   26  6      
3E85  D7060000           [090] loadbool   27  0   0    ; false
3E89  22460002           [091] call       24  4   1  
3E8D  24C64501           [092] self       24  2   279  ; 1401485941
3E91  93068003           [093] getupval   26  7      
3E95  DD060300           [094] getglobal  27  12       ; 2144646525
3E99  13070004           [095] getupval   28  8      
3E9D  0E47430E           [096] gettable   28  28  269  ; 0
3EA1  53070004           [097] getupval   29  8      
3EA5  4E07C60E           [098] gettable   29  29  280  ; 0
3EA9  E2068001           [099] call       27  3   0  
3EAD  22460000           [100] call       24  0   1  
3EB1  1D060100           [101] getglobal  24  4        ; -332969190
3EB5  52068001           [102] move       25  3      
3EB9  9D460100           [103] getglobal  26  5        ; -1615931716
3EBD  D2068005           [104] move       27  11     
3EC1  A2860001           [105] call       26  2   2  
3EC5  4286860C           [106] concat     25  25  26 
3EC9  22860001           [107] call       24  2   2  
3ECD  53068004           [108] getupval   25  9      
3ED1  6446C60C           [109] self       25  25  281  ; -249861443
3ED5  D206000C           [110] move       27  24     
3ED9  1D070100           [111] getglobal  28  4        ; -332969190
3EDD  22878000           [112] call       28  1   2  
3EE1  5207800B           [113] move       29  23     
3EE5  97070000           [114] loadbool   30  0   0    ; false
3EE9  D7070000           [115] loadbool   31  0   0    ; false
3EED  62468003           [116] call       25  7   1  
3EF1  53068004           [117] getupval   25  9      
3EF5  6486C60C           [118] self       25  25  282  ; -39864641
3EF9  D206000C           [119] move       27  24     
3EFD  17078000           [120] loadbool   28  1   0    ; true
3F01  62460002           [121] call       25  4   1  
3F05  5D460200           [122] getglobal  25  9        ; table
3F09  4E86C20C           [123] gettable   25  25  266  ; -431682403
3F0D  93060005           [124] getupval   26  10     
3F11  CB860000           [125] newtable   27  0   2    ; array=0, hash=2
3F15  CC06808D           [126] settable   27  283 0    ; "Player"
3F19  CCC60287           [127] settable   27  270 11   ; "Slot"
3F1D  62468001           [128] call       25  3   1  
3F21  1E008000           [129] return     0   1      
                         * constants:
3F25  1C                 sizek (28)
3F26  01                 const type 3
3F27  0567E793           const [0]: (-1813551355)
3F2B  01                 const type 3
3F2C  1FD0B58D           const [1]: (-1917464545)
3F30  01                 const type 3
3F31  F9284A14           const [2]: (340404473)
3F35  01                 const type 3
3F36  0791B063           const [3]: (1672515847)
3F3A  01                 const type 3
3F3B  1A4B27EC           const [4]: (-332969190)
3F3F  01                 const type 3
3F40  BCD6AE9F           const [5]: (-1615931716)
3F44  01                 const type 3
3F45  65770E40           const [6]: (1074689893)
3F49  04                 const type 4
3F4A  0B                 string size (11)
3F4B  6747616D6552756C+  "gGameRul"
3F53  657300             "es\0"
                         const [7]: "gGameRules"
3F56  01                 const type 3
3F57  B4024DE7           const [8]: (-414383436)
3F5B  04                 const type 4
3F5C  06                 string size (6)
3F5D  7461626C6500       "table\0"
                         const [9]: "table"
3F63  01                 const type 3
3F64  9D0C45E6           const [10]: (-431682403)
3F68  03                 const type 3
3F69  00000000           const [11]: (0)
3F6D  01                 const type 3
3F6E  7DB5D47F           const [12]: (2144646525)
3F72  03                 const type 3
3F73  0000803F           const [13]: (0)
3F77  04                 const type 4
3F78  05                 string size (5)
3F79  536C6F7400         "Slot\0"
                         const [14]: "Slot"
3F7E  04                 const type 4
3F7F  09                 string size (9)
3F80  5570677261646573+  "Upgrades"
3F88  00                 "\0"
                         const [15]: "Upgrades"
3F89  01                 const type 3
3F8A  B9111B3B           const [16]: (991629753)
3F8E  04                 const type 4
3F8F  05                 string size (5)
3F90  5479706500         "Type\0"
                         const [17]: "Type"
3F95  04                 const type 4
3F96  03                 string size (3)
3F97  4F7000             "Op\0"
                         const [18]: "Op"
3F9A  04                 const type 4
3F9B  04                 string size (4)
3F9C  56616C00           "Val\0"
                         const [19]: "Val"
3FA0  01                 const type 3
3FA1  652CB3E2           const [20]: (-491574171)
3FA5  01                 const type 3
3FA6  570DF43A           const [21]: (989072727)
3FAA  01                 const type 3
3FAB  94239925           const [22]: (630793108)
3FAF  01                 const type 3
3FB0  75FA8853           const [23]: (1401485941)
3FB4  03                 const type 3
3FB5  00000040           const [24]: (0)
3FB9  01                 const type 3
3FBA  BD6A1BF1           const [25]: (-249861443)
3FBE  01                 const type 3
3FBF  BFB69FFD           const [26]: (-39864641)
3FC3  04                 const type 4
3FC4  07                 string size (7)
3FC5  506C6179657200     "Player\0"
                         const [27]: "Player"
                         * functions:
3FCC  00                 sizep (0)
                         * lines:
3FCE  01                 sizelineinfo (129)
                         [pc] (line)
3FCF  39                 [001] (57)
3FD0  02                 [002] (57)
3FD1  00                 [003] (58)
3FD2  00                 [004] (58)
3FD3  39                 [005] (59)
3FD4  02                 [006] (59)
3FD5  00                 [007] (60)
3FD6  00                 [008] (61)
3FD7  3A                 [009] (61)
3FD8  02                 [010] (61)
3FD9  00                 [011] (61)
3FDA  00                 [012] (62)
3FDB  3A                 [013] (62)
3FDC  02                 [014] (62)
3FDD  00                 [015] (62)
3FDE  00                 [016] (62)
3FDF  3B                 [017] (62)
3FE0  02                 [018] (62)
3FE1  00                 [019] (64)
3FE2  00                 [020] (64)
3FE3  3B                 [021] (64)
3FE4  02                 [022] (64)
3FE5  00                 [023] (64)
3FE6  00                 [024] (64)
3FE7  3C                 [025] (64)
3FE8  02                 [026] (64)
3FE9  00                 [027] (65)
3FEA  00                 [028] (65)
3FEB  3D                 [029] (65)
3FEC  02                 [030] (65)
3FED  00                 [031] (65)
3FEE  00                 [032] (65)
3FEF  3D                 [033] (67)
3FF0  02                 [034] (67)
3FF1  00                 [035] (67)
3FF2  00                 [036] (67)
3FF3  3D                 [037] (67)
3FF4  02                 [038] (61)
3FF5  00                 [039] (68)
3FF6  00                 [040] (71)
3FF7  3D                 [041] (71)
3FF8  02                 [042] (71)
3FF9  00                 [043] (72)
3FFA  00                 [044] (75)
3FFB  3E                 [045] (75)
3FFC  02                 [046] (75)
3FFD  00                 [047] (75)
3FFE  00                 [048] (75)
3FFF  3E                 [049] (76)
4000  02                 [050] (76)
4001  00                 [051] (76)
4002  00                 [052] (76)
4003  3E                 [053] (78)
4004  02                 [054] (78)
4005  00                 [055] (78)
4006  00                 [056] (78)
4007  3E                 [057] (78)
4008  02                 [058] (79)
4009  00                 [059] (79)
400A  00                 [060] (80)
400B  3E                 [061] (80)
400C  02                 [062] (80)
400D  00                 [063] (81)
400E  00                 [064] (81)
400F  3E                 [065] (81)
4010  02                 [066] (81)
4011  00                 [067] (82)
4012  00                 [068] (82)
4013  3E                 [069] (82)
4014  02                 [070] (82)
4015  00                 [071] (82)
4016  00                 [072] (82)
4017  40                 [073] (82)
4018  02                 [074] (81)
4019  00                 [075] (82)
401A  00                 [076] (84)
401B  40                 [077] (78)
401C  02                 [078] (88)
401D  00                 [079] (88)
401E  00                 [080] (88)
401F  40                 [081] (88)
4020  02                 [082] (90)
4021  00                 [083] (90)
4022  00                 [084] (90)
4023  40                 [085] (92)
4024  02                 [086] (92)
4025  00                 [087] (92)
4026  00                 [088] (94)
4027  40                 [089] (94)
4028  02                 [090] (94)
4029  00                 [091] (94)
402A  00                 [092] (95)
402B  40                 [093] (95)
402C  02                 [094] (95)
402D  00                 [095] (95)
402E  00                 [096] (95)
402F  40                 [097] (95)
4030  02                 [098] (95)
4031  00                 [099] (95)
4032  00                 [100] (95)
4033  40                 [101] (96)
4034  02                 [102] (96)
4035  00                 [103] (96)
4036  00                 [104] (96)
4037  41                 [105] (96)
4038  02                 [106] (96)
4039  00                 [107] (96)
403A  00                 [108] (97)
403B  41                 [109] (97)
403C  02                 [110] (97)
403D  00                 [111] (97)
403E  00                 [112] (97)
403F  41                 [113] (97)
4040  02                 [114] (97)
4041  00                 [115] (97)
4042  00                 [116] (97)
4043  41                 [117] (98)
4044  02                 [118] (98)
4045  00                 [119] (98)
4046  00                 [120] (98)
4047  41                 [121] (98)
4048  02                 [122] (99)
4049  00                 [123] (99)
404A  00                 [124] (99)
404B  41                 [125] (99)
404C  02                 [126] (99)
404D  00                 [127] (99)
404E  00                 [128] (99)
404F  43                 [129] (100)
                         * locals:
41D3  00                 sizelocvars (0)
                         * upvalues:
41D4  00                 sizeupvalues (0)
                         ** end of function **

                         
41D5                     ** function [16] definition (level 2)
                         ** start of function **
41D5  00                 string size (0)
                         source name: (none)
41D7  04                 line defined (614)
41D8  F7                 last line defined (631)
41D9  04                 nups (1)
41DA  01                 numparams (2)
41DB  02                 is_vararg (0)
41DC  00                 maxstacksize (11)
                         * code:
41DE  2F                 sizecode (47)
41DF  A4004000           [01] self       2   0   256  ; -1957065004
41E3  1D410000           [02] getglobal  4   1        ; gPowerSuitType
41E7  A2808001           [03] call       2   3   2  
41EB  98000000           [04] test       2       0    ; to [6] if true
41EF  1A800280           [05] jmp        11           ; to [17]
41F3  A480C000           [06] self       2   1   258  ; -1625438872
41F7  13010000           [07] getupval   4   0      
41FB  A2808001           [08] call       2   3   2  
41FF  DDC00000           [09] getglobal  3   3        ; 1074689893
4203  12010001           [10] move       4   2      
4207  E2800001           [11] call       3   2   2  
420B  D8400000           [12] test       3       1    ; to [14] if false
420F  1A000880           [13] jmp        33           ; to [47]
4213  E4004101           [14] self       3   2   260  ; -725453761
4217  E2400001           [15] call       3   2   1  
421B  1A400780           [16] jmp        30           ; to [47]
421F  E4004000           [17] self       3   0   256  ; -1957065004
4223  5D410100           [18] getglobal  5   5        ; gWeaponExType
4227  E2808001           [19] call       3   3   2  
422B  D8000000           [20] test       3       0    ; to [22] if true
422F  1A000680           [21] jmp        25           ; to [47]
4233  D9800100           [22] loadk      3   6        ; 0
4237  19C10100           [23] loadk      4   7        ; 0
423B  59010200           [24] loadk      5   8        ; 0
423F  D0C00480           [25] forprep    3   20       ; to [46]
4243  E4414200           [26] self       7   0   265  ; -479621877
4247  5D820200           [27] getglobal  9   10       ; Engine
424B  4EC2C204           [28] gettable   9   9   267  ; "THIRD_PERSON"
424F  92020003           [29] move       10  6      
4253  E2810002           [30] call       7   4   2  
4257  1DC20000           [31] getglobal  8   3        ; 1074689893
425B  52028003           [32] move       9   7      
425F  22820001           [33] call       8   2   2  
4263  18420000           [34] test       8       1    ; to [36] if false
4267  1A400280           [35] jmp        10           ; to [46]
426B  2482C003           [36] self       8   7   258  ; -1625438872
426F  93020000           [37] getupval   10  0      
4273  22828001           [38] call       8   3   2  
4277  5DC20000           [39] getglobal  9   3        ; 1074689893
427B  92020004           [40] move       10  8      
427F  62820001           [41] call       9   2   2  
4283  58420000           [42] test       9       1    ; to [44] if false
4287  1A400080           [43] jmp        2            ; to [46]
428B  64024104           [44] self       9   8   260  ; -725453761
428F  62420001           [45] call       9   2   1  
4293  D480FA7F           [46] forloop    3   -21      ; to [26] if loop
4297  1E008000           [47] return     0   1      
                         * constants:
429B  0C                 sizek (12)
429C  01                 const type 3
429D  D48E598B           const [0]: (-1957065004)
42A1  04                 const type 4
42A2  0F                 string size (15)
42A3  67506F7765725375+  "gPowerSu"
42AB  69745479706500     "itType\0"
                         const [1]: "gPowerSuitType"
42B2  01                 const type 3
42B3  68C51D9F           const [2]: (-1625438872)
42B7  01                 const type 3
42B8  65770E40           const [3]: (1074689893)
42BC  01                 const type 3
42BD  3F74C2D4           const [4]: (-725453761)
42C1  04                 const type 4
42C2  0E                 string size (14)
42C3  67576561706F6E45+  "gWeaponE"
42CB  785479706500       "xType\0"
                         const [5]: "gWeaponExType"
42D1  03                 const type 3
42D2  00000000           const [6]: (0)
42D6  03                 const type 3
42D7  00004040           const [7]: (0)
42DB  03                 const type 3
42DC  0000803F           const [8]: (0)
42E0  01                 const type 3
42E1  0B8D69E3           const [9]: (-479621877)
42E5  04                 const type 4
42E6  07                 string size (7)
42E7  456E67696E6500     "Engine\0"
                         const [10]: "Engine"
42EE  04                 const type 4
42EF  0D                 string size (13)
42F0  54484952445F5045+  "THIRD_PE"
42F8  52534F4E00         "RSON\0"
                         const [11]: "THIRD_PERSON"
                         * functions:
42FD  00                 sizep (0)
                         * lines:
42FE  2F                 sizelineinfo (47)
                         [pc] (line)
42FF  67                 [01] (103)
4300  02                 [02] (103)
4301  00                 [03] (103)
4302  00                 [04] (103)
4303  67                 [05] (103)
4304  02                 [06] (104)
4305  00                 [07] (104)
4306  00                 [08] (104)
4307  67                 [09] (105)
4308  02                 [10] (105)
4309  00                 [11] (105)
430A  00                 [12] (105)
430B  67                 [13] (105)
430C  02                 [14] (106)
430D  00                 [15] (106)
430E  00                 [16] (107)
430F  67                 [17] (108)
4310  02                 [18] (108)
4311  00                 [19] (108)
4312  00                 [20] (108)
4313  68                 [21] (108)
4314  02                 [22] (109)
4315  00                 [23] (109)
4316  00                 [24] (109)
4317  68                 [25] (109)
4318  02                 [26] (110)
4319  00                 [27] (110)
431A  00                 [28] (110)
431B  68                 [29] (110)
431C  02                 [30] (110)
431D  00                 [31] (111)
431E  00                 [32] (111)
431F  69                 [33] (111)
4320  02                 [34] (111)
4321  00                 [35] (111)
4322  00                 [36] (112)
4323  69                 [37] (112)
4324  02                 [38] (112)
4325  00                 [39] (113)
4326  00                 [40] (113)
4327  69                 [41] (113)
4328  02                 [42] (113)
4329  00                 [43] (113)
432A  00                 [44] (114)
432B  69                 [45] (114)
432C  02                 [46] (109)
432D  00                 [47] (119)
                         * locals:
43BB  00                 sizelocvars (0)
                         * upvalues:
43BC  00                 sizeupvalues (0)
                         ** end of function **

                         
43BD                     ** function [17] definition (level 2)
                         ** start of function **
43BD  00                 string size (0)
                         source name: (none)
43BF  04                 line defined (635)
43C0  95                 last line defined (661)
43C1  05                 nups (3)
43C2  03                 numparams (2)
43C3  02                 is_vararg (0)
43C4  00                 maxstacksize (22)
                         * code:
43C6  3C                 sizecode (60)
43C7  A4004000           [01] self       2   0   256  ; -1813551355
43CB  A2800001           [02] call       2   2   2  
43CF  DD400000           [03] getglobal  3   1        ; 1074689893
43D3  12010001           [04] move       4   2      
43D7  E2800001           [05] call       3   2   2  
43DB  D8400000           [06] test       3       1    ; to [8] if false
43DF  1A400C80           [07] jmp        50           ; to [58]
43E3  E4804001           [08] self       3   2   258  ; 1511086594
43E7  E2800001           [09] call       3   2   2  
43EB  D8400000           [10] test       3       1    ; to [12] if false
43EF  1A400B80           [11] jmp        46           ; to [58]
43F3  E4C04001           [12] self       3   2   259  ; -1917464545
43F7  E2800001           [13] call       3   2   2  
43FB  13010000           [14] getupval   4   0      
43FF  52010000           [15] move       5   0      
4403  92018000           [16] move       6   1      
4407  22818001           [17] call       4   3   2  
440B  5D410000           [18] getglobal  5   1        ; 1074689893
440F  92010002           [19] move       6   4      
4413  62810001           [20] call       5   2   2  
4417  58410000           [21] test       5       1    ; to [23] if false
441B  1A800880           [22] jmp        35           ; to [58]
441F  53018000           [23] getupval   5   1      
4423  92010002           [24] move       6   4      
4427  D2010001           [25] move       7   2      
442B  62418001           [26] call       5   3   1  
442F  59010100           [27] loadk      5   4        ; 0
4433  93010001           [28] getupval   6   2      
4437  8A010003           [29] len        6   6      
443B  D9010100           [30] loadk      7   4        ; 0
443F  50810480           [31] forprep    5   19       ; to [51]
4443  53020001           [32] getupval   9   2      
4447  4E028204           [33] gettable   9   9   8  
444B  8E42C104           [34] gettable   10  9   261  ; "Slot"
fail op	35
444F  23400005           [35] close      0  
4453  1A400380           [36] jmp        14           ; to [51]
4457  9D820100           [37] getglobal  10  6        ; 1672515847
445B  CEC2C104           [38] gettable   11  9   263  ; "Upgrades"
445F  A2020101           [39] call       10  2   4  
4463  1A800180           [40] jmp        7            ; to [48]
4467  E403C201           [41] self       15  3   264  ; -233482841
446B  4E444207           [42] gettable   17  14  265  ; "Type"
446F  8E844207           [43] gettable   18  14  266  ; "Op"
4473  CEC44207           [44] gettable   19  14  267  ; "Val"
4477  24054302           [45] self       20  4   268  ; -491574171
447B  22050001           [46] call       20  2   0  
447F  E2430000           [47] call       15  0   1  
4483  96820000           [48] tforloop   10      2    ; to [50] if exit
4487  1A80FD7F           [49] jmp        -9           ; to [41]
448B  1A000080           [50] jmp        1            ; to [52]
448F  54C1FA7F           [51] forloop    5   -20      ; to [32] if loop
4493  E443C301           [52] self       15  3   269  ; 989072727
4497  5D840300           [53] getglobal  17  14       ; Engine
449B  4EC4C308           [54] gettable   17  17  271  ; "INVALID"
449F  E2438001           [55] call       15  3   1  
44A3  D7038000           [56] loadbool   15  1   0    ; true
44A7  DE030001           [57] return     15  2      
44AB  D7030000           [58] loadbool   15  0   0    ; false
44AF  DE030001           [59] return     15  2      
44B3  1E008000           [60] return     0   1      
                         * constants:
44B7  10                 sizek (16)
44B8  01                 const type 3
44B9  0567E793           const [0]: (-1813551355)
44BD  01                 const type 3
44BE  65770E40           const [1]: (1074689893)
44C2  01                 const type 3
44C3  025A115A           const [2]: (1511086594)
44C7  01                 const type 3
44C8  1FD0B58D           const [3]: (-1917464545)
44CC  03                 const type 3
44CD  0000803F           const [4]: (0)
44D1  04                 const type 4
44D2  05                 string size (5)
44D3  536C6F7400         "Slot\0"
                         const [5]: "Slot"
44D8  01                 const type 3
44D9  0791B063           const [6]: (1672515847)
44DD  04                 const type 4
44DE  09                 string size (9)
44DF  5570677261646573+  "Upgrades"
44E7  00                 "\0"
                         const [7]: "Upgrades"
44E8  01                 const type 3
44E9  A75515F2           const [8]: (-233482841)
44ED  04                 const type 4
44EE  05                 string size (5)
44EF  5479706500         "Type\0"
                         const [9]: "Type"
44F4  04                 const type 4
44F5  03                 string size (3)
44F6  4F7000             "Op\0"
                         const [10]: "Op"
44F9  04                 const type 4
44FA  04                 string size (4)
44FB  56616C00           "Val\0"
                         const [11]: "Val"
44FF  01                 const type 3
4500  652CB3E2           const [12]: (-491574171)
4504  01                 const type 3
4505  570DF43A           const [13]: (989072727)
4509  04                 const type 4
450A  07                 string size (7)
450B  456E67696E6500     "Engine\0"
                         const [14]: "Engine"
4512  04                 const type 4
4513  08                 string size (8)
4514  494E56414C494400   "INVALID\0"
                         const [15]: "INVALID"
                         * functions:
451C  00                 sizep (0)
                         * lines:
451D  3C                 sizelineinfo (60)
                         [pc] (line)
451E  7C                 [01] (124)
451F  02                 [02] (124)
4520  00                 [03] (125)
4521  00                 [04] (125)
4522  7C                 [05] (125)
4523  02                 [06] (125)
4524  00                 [07] (125)
4525  00                 [08] (125)
4526  7D                 [09] (125)
4527  02                 [10] (125)
4528  00                 [11] (125)
4529  00                 [12] (126)
452A  7D                 [13] (126)
452B  02                 [14] (127)
452C  00                 [15] (127)
452D  00                 [16] (127)
452E  7D                 [17] (127)
452F  02                 [18] (-127)
4530  00                 [19] (-127)
4531  00                 [20] (-127)
4532  7D                 [21] (-127)
4533  02                 [22] (-127)
4534  00                 [23] (-126)
4535  00                 [24] (-126)
4536  7D                 [25] (-126)
4537  02                 [26] (-126)
4538  00                 [27] (-124)
4539  00                 [28] (-124)
453A  7D                 [29] (-124)
453B  02                 [30] (-124)
453C  00                 [31] (-124)
453D  00                 [32] (-123)
453E  7D                 [33] (-123)
453F  02                 [34] (-122)
4540  00                 [35] (-122)
4541  00                 [36] (-122)
4542  7D                 [37] (-121)
4543  02                 [38] (-121)
4544  00                 [39] (-121)
4545  00                 [40] (-121)
4546  7D                 [41] (-120)
4547  02                 [42] (-120)
4548  00                 [43] (-120)
4549  00                 [44] (-120)
454A  7E                 [45] (-120)
454B  02                 [46] (-120)
454C  00                 [47] (-120)
454D  00                 [48] (-121)
454E  7E                 [49] (-120)
454F  02                 [50] (-118)
4550  00                 [51] (-124)
4551  00                 [52] (-114)
4552  7F                 [53] (-114)
4553  02                 [54] (-114)
4554  00                 [55] (-114)
4555  00                 [56] (-112)
4556  7F                 [57] (-112)
4557  02                 [58] (-108)
4558  00                 [59] (-108)
4559  00                 [60] (-107)
                         * locals:
460E  00                 sizelocvars (0)
                         * upvalues:
460F  00                 sizeupvalues (0)
                         ** end of function **

                         
4610                     ** function [18] definition (level 2)
                         ** start of function **
4610  00                 string size (0)
                         source name: (none)
4612  05                 line defined (663)
4613  D9                 last line defined (729)
4614  05                 nups (9)
4615  09                 numparams (0)
4616  00                 is_vararg (0)
4617  00                 maxstacksize (20)
                         * code:
461A  01                 sizecode (156)
461B  1D000000           [001] getglobal  0   0        ; 1074689893
461F  53000000           [002] getupval   1   0      
4623  22800001           [003] call       0   2   2  
4627  18000000           [004] test       0       0    ; to [6] if true
462B  1A400280           [005] jmp        10           ; to [16]
462F  1D400000           [006] getglobal  0   1        ; gRegion
4633  24804000           [007] self       0   0   258  ; 925677844
4637  22800001           [008] call       0   2   2  
fail op	8
463B  08000000           [009] setupval   0   0      
463F  1D000000           [010] getglobal  0   0        ; 1074689893
4643  53000000           [011] getupval   1   0      
4647  22800001           [012] call       0   2   2  
464B  18000000           [013] test       0       0    ; to [15] if true
464F  1A000080           [014] jmp        1            ; to [16]
4653  1E008000           [015] return     0   1      
4657  13000000           [016] getupval   0   0      
465B  24C04000           [017] self       0   0   259  ; -1813551355
465F  22800001           [018] call       0   2   2  
4663  5D000000           [019] getglobal  1   0        ; 1074689893
4667  92000000           [020] move       2   0      
466B  62800001           [021] call       1   2   2  
466F  58000000           [022] test       1       0    ; to [24] if true
4673  1A000080           [023] jmp        1            ; to [25]
4677  1E008000           [024] return     0   1      
467B  53000000           [025] getupval   1   0      
467F  6400C100           [026] self       1   1   260  ; -1888201767
4683  62800001           [027] call       1   2   2  
4687  97000000           [028] loadbool   2   0   0    ; false
468B  D3008000           [029] getupval   3   1      
fail op	35
468F  23C00000           [030] close      0  
4693  1A800080           [031] jmp        3            ; to [35]
4697  D3000001           [032] getupval   3   2      
fail op	35
469B  63C08000           [033] close      1  
469F  1A800080           [034] jmp        3            ; to [38]
fail op	8
46A3  08008000           [035] setupval   0   1      
fail op	8
46A7  48000001           [036] setupval   1   2      
46AB  97008000           [037] loadbool   2   1   0    ; true
46AF  D3008001           [038] getupval   3   3      
46B3  13010000           [039] getupval   4   0      
46B7  E2800001           [040] call       3   2   2  
46BB  1D410100           [041] getglobal  4   5        ; _T
46BF  4B810000           [042] newtable   5   0   2    ; array=0, hash=2
46C3  9D010200           [043] getglobal  6   8        ; math
46C7  8E414203           [044] gettable   6   6   265  ; 1710846250
46CB  D2018001           [045] move       7   3      
46CF  13020002           [046] getupval   8   4      
46D3  A2818001           [047] call       6   3   2  
46D7  4C818183           [048] settable   5   263 6    ; "Curr"
46DB  93010002           [049] getupval   6   4      
46DF  4C810185           [050] settable   5   266 6    ; "Total"
46E3  0C410183           [051] settable   4   262 5    ; "VoidTearProgress"
46E7  1D010000           [052] getglobal  4   0        ; 1074689893
46EB  53010000           [053] getupval   5   0      
46EF  64C1C202           [054] self       5   5   267  ; 51109503
46F3  62810001           [055] call       5   2   2  
46F7  4E01C302           [056] gettable   5   5   268  ; "mActiveVoidProjection"
46FB  22810001           [057] call       4   2   2  
fail op	9
46FF  09010002           [058] settable   4   4   0  
4703  53010002           [059] getupval   5   4      
fail op	35
4707  23408101           [060] close      0  
470B  1A800280           [061] jmp        11           ; to [73]
470F  18010000           [062] test       4       0    ; to [64] if true
4713  1A000280           [063] jmp        9            ; to [73]
4717  53018002           [064] getupval   5   5      
471B  58410000           [065] test       5       1    ; to [67] if false
471F  1AC00180           [066] jmp        8            ; to [75]
4723  53010003           [067] getupval   5   6      
4727  92010000           [068] move       6   0      
472B  62410001           [069] call       5   2   1  
472F  57018000           [070] loadbool   5   1   0    ; true
fail op	8
4733  48018002           [071] setupval   5   5      
4737  1A400080           [072] jmp        2            ; to [75]
473B  57010000           [073] loadbool   5   0   0    ; false
fail op	8
473F  48018002           [074] setupval   5   5      
4743  5D410100           [075] getglobal  5   5        ; _T
4747  4E41C302           [076] gettable   5   5   269  ; "RemotePlayersProgress"
fail op	35
474B  2380C302           [077] close      0  
474F  1A800080           [078] jmp        3            ; to [82]
4753  5D410100           [079] getglobal  5   5        ; _T
4757  8B010000           [080] newtable   6   0   0    ; array=0, hash=0
475B  4C818186           [081] settable   5   269 6    ; "RemotePlayersProgress"
475F  5DC10300           [082] getglobal  5   15       ; 1672515847
4763  93018003           [083] getupval   6   7      
4767  62010101           [084] call       5   2   4  
476B  1AC01080           [085] jmp        68           ; to [154]
476F  A4C2C004           [086] self       10  9   259  ; -1813551355
4773  A2820001           [087] call       10  2   2  
4777  DD020000           [088] getglobal  11  0        ; 1074689893
477B  12030005           [089] move       12  10     
477F  E2820001           [090] call       11  2   2  
4783  D8420000           [091] test       11      1    ; to [93] if false
4787  1A000F80           [092] jmp        61           ; to [154]
fail op	35
478B  63000005           [093] close      1  
478F  1A800E80           [094] jmp        59           ; to [154]
4793  E402C104           [095] self       11  9   260  ; -1888201767
4797  E2820001           [096] call       11  2   2  
479B  2403C404           [097] self       12  9   272  ; 340404473
479F  22830001           [098] call       12  2   2  
47A3  5D430100           [099] getglobal  13  5        ; _T
47A7  4E43C306           [100] gettable   13  13  269  ; "RemotePlayersProgress"
47AB  4E038306           [101] gettable   13  13  12 
fail op	35
47AF  2380C306           [102] close      0  
47B3  1A800180           [103] jmp        7            ; to [111]
47B7  5D430100           [104] getglobal  13  5        ; _T
47BB  4E43C306           [105] gettable   13  13  269  ; "RemotePlayersProgress"
47BF  8BC30000           [106] newtable   14  0   3    ; array=0, hash=3
47C3  8C83C388           [107] settable   14  273 270  ; "Count" nil
47C7  8C830289           [108] settable   14  274 10   ; "Avatar"
47CB  8CC38289           [109] settable   14  275 11   ; "OtherAvatar"
47CF  4C830306           [110] settable   13  12  14 
47D3  53038001           [111] getupval   13  3      
47D7  92038004           [112] move       14  9      
47DB  62830001           [113] call       13  2   2  
47DF  9D430100           [114] getglobal  14  5        ; _T
47E3  8E434307           [115] gettable   14  14  269  ; "RemotePlayersProgress"
47E7  8E030307           [116] gettable   14  14  12 
47EB  8E434407           [117] gettable   14  14  273  ; "Count"
fail op	35
47EF  23808306           [118] close      0  
47F3  1A400380           [119] jmp        14           ; to [134]
47F7  9D430100           [120] getglobal  14  5        ; _T
47FB  8E434307           [121] gettable   14  14  269  ; "RemotePlayersProgress"
47FF  8E030307           [122] gettable   14  14  12 
4803  8E834407           [123] gettable   14  14  274  ; "Avatar"
fail op	35
4807  23800305           [124] close      0  
480B  1AC00180           [125] jmp        8            ; to [134]
480F  9D430100           [126] getglobal  14  5        ; _T
4813  8E434307           [127] gettable   14  14  269  ; "RemotePlayersProgress"
4817  8E030307           [128] gettable   14  14  12 
481B  8EC34407           [129] gettable   14  14  275  ; "OtherAvatar"
fail op	35
481F  23808305           [130] close      0  
4823  1A400080           [131] jmp        2            ; to [134]
4827  98000000           [132] test       2       0    ; to [134] if true
482B  1AC00480           [133] jmp        20           ; to [154]
482F  9D430100           [134] getglobal  14  5        ; _T
4833  8E434307           [135] gettable   14  14  269  ; "RemotePlayersProgress"
4837  8E030307           [136] gettable   14  14  12 
483B  8C438388           [137] settable   14  273 13   ; "Count"
483F  9D430100           [138] getglobal  14  5        ; _T
4843  8E434307           [139] gettable   14  14  269  ; "RemotePlayersProgress"
4847  8E030307           [140] gettable   14  14  12 
484B  8C830289           [141] settable   14  274 10   ; "Avatar"
484F  9D430100           [142] getglobal  14  5        ; _T
4853  8E434307           [143] gettable   14  14  269  ; "RemotePlayersProgress"
4857  8E030307           [144] gettable   14  14  12 
485B  8CC38289           [145] settable   14  275 11   ; "OtherAvatar"
485F  93030004           [146] getupval   14  8      
4863  D2030000           [147] move       15  0      
4867  12048000           [148] move       16  1      
486B  4B040001           [149] newtable   17  2   0    ; array=2, hash=0
486F  92040005           [150] move       18  10     
4873  D2048005           [151] move       19  11     
4877  5B440001           [152] setlist    17  2   1    ; index 1 to 2
487B  A2430002           [153] call       14  4   1  
487F  56810000           [154] tforloop   5       2    ; to [156] if exit
4883  1A40EE7F           [155] jmp        -70          ; to [86]
4887  1E008000           [156] return     0   1      
                         * constants:
488B  14                 sizek (20)
488C  01                 const type 3
488D  65770E40           const [0]: (1074689893)
4891  04                 const type 4
4892  08                 string size (8)
4893  67526567696F6E00   "gRegion\0"
                         const [1]: "gRegion"
489B  01                 const type 3
489C  14B92C37           const [2]: (925677844)
48A0  01                 const type 3
48A1  0567E793           const [3]: (-1813551355)
48A5  01                 const type 3
48A6  D953748F           const [4]: (-1888201767)
48AA  04                 const type 4
48AB  03                 string size (3)
48AC  5F5400             "_T\0"
                         const [5]: "_T"
48AF  04                 const type 4
48B0  11                 string size (17)
48B1  566F696454656172+  "VoidTear"
48B9  50726F6772657373+  "Progress"
48C1  00                 "\0"
                         const [6]: "VoidTearProgress"
48C2  04                 const type 4
48C3  05                 string size (5)
48C4  4375727200         "Curr\0"
                         const [7]: "Curr"
48C9  04                 const type 4
48CA  05                 string size (5)
48CB  6D61746800         "math\0"
                         const [8]: "math"
48D0  01                 const type 3
48D1  2A71F965           const [9]: (1710846250)
48D5  04                 const type 4
48D6  06                 string size (6)
48D7  546F74616C00       "Total\0"
                         const [10]: "Total"
48DD  01                 const type 3
48DE  7FDE0B03           const [11]: (51109503)
48E2  04                 const type 4
48E3  16                 string size (22)
48E4  6D41637469766556+  "mActiveV"
48EC  6F696450726F6A65+  "oidProje"
48F4  6374696F6E00       "ction\0"
                         const [12]: "mActiveVoidProjection"
48FA  04                 const type 4
48FB  16                 string size (22)
48FC  52656D6F7465506C+  "RemotePl"
4904  617965727350726F+  "ayersPro"
490C  677265737300       "gress\0"
                         const [13]: "RemotePlayersProgress"
4912  00                 const type 0
                         const [14]: nil
4913  01                 const type 3
4914  0791B063           const [15]: (1672515847)
4918  01                 const type 3
4919  F9284A14           const [16]: (340404473)
491D  04                 const type 4
491E  06                 string size (6)
491F  436F756E7400       "Count\0"
                         const [17]: "Count"
4925  04                 const type 4
4926  07                 string size (7)
4927  41766174617200     "Avatar\0"
                         const [18]: "Avatar"
492E  04                 const type 4
492F  0C                 string size (12)
4930  4F74686572417661+  "OtherAva"
4938  74617200           "tar\0"
                         const [19]: "OtherAvatar"
                         * functions:
493C  00                 sizep (0)
                         * lines:
493E  01                 sizelineinfo (156)
                         [pc] (line)
493F  98                 [001] (-104)
4940  02                 [002] (-104)
4941  00                 [003] (-104)
4942  00                 [004] (-104)
4943  98                 [005] (-104)
4944  02                 [006] (-103)
4945  00                 [007] (-103)
4946  00                 [008] (-103)
4947  98                 [009] (-103)
4948  02                 [010] (-102)
4949  00                 [011] (-102)
494A  00                 [012] (-102)
494B  98                 [013] (-102)
494C  02                 [014] (-102)
494D  00                 [015] (-101)
494E  00                 [016] (-97)
494F  98                 [017] (-97)
4950  02                 [018] (-97)
4951  00                 [019] (-96)
4952  00                 [020] (-96)
4953  99                 [021] (-96)
4954  02                 [022] (-96)
4955  00                 [023] (-96)
4956  00                 [024] (-95)
4957  99                 [025] (-92)
4958  02                 [026] (-92)
4959  00                 [027] (-92)
495A  00                 [028] (-90)
495B  99                 [029] (-89)
495C  02                 [030] (-89)
495D  00                 [031] (-89)
495E  00                 [032] (-89)
495F  99                 [033] (-89)
4960  02                 [034] (-89)
4961  00                 [035] (-88)
4962  00                 [036] (-87)
4963  9A                 [037] (-86)
4964  02                 [038] (-83)
4965  00                 [039] (-83)
4966  00                 [040] (-83)
4967  9A                 [041] (-81)
4968  02                 [042] (-81)
4969  00                 [043] (-81)
496A  00                 [044] (-81)
496B  9A                 [045] (-81)
496C  02                 [046] (-81)
496D  00                 [047] (-81)
496E  00                 [048] (-81)
496F  9A                 [049] (-81)
4970  02                 [050] (-81)
4971  00                 [051] (-81)
4972  00                 [052] (-79)
4973  9A                 [053] (-79)
4974  02                 [054] (-79)
4975  00                 [055] (-79)
4976  00                 [056] (-79)
4977  9B                 [057] (-79)
4978  02                 [058] (-79)
4979  00                 [059] (-78)
497A  00                 [060] (-78)
497B  9F                 [061] (-78)
497C  02                 [062] (-78)
497D  00                 [063] (-78)
497E  00                 [064] (-77)
497F  9F                 [065] (-77)
4980  02                 [066] (-77)
4981  00                 [067] (-76)
4982  00                 [068] (-76)
4983  9F                 [069] (-76)
4984  02                 [070] (-75)
4985  00                 [071] (-75)
4986  00                 [072] (-74)
4987  A0                 [073] (-70)
4988  02                 [074] (-70)
4989  00                 [075] (-67)
498A  00                 [076] (-67)
498B  A0                 [077] (-67)
498C  02                 [078] (-67)
498D  00                 [079] (-66)
498E  00                 [080] (-66)
498F  A0                 [081] (-66)
4990  02                 [082] (-63)
4991  00                 [083] (-63)
4992  00                 [084] (-63)
4993  A0                 [085] (-63)
4994  02                 [086] (-62)
4995  00                 [087] (-62)
4996  00                 [088] (-61)
4997  A0                 [089] (-61)
4998  02                 [090] (-61)
4999  00                 [091] (-61)
499A  00                 [092] (-61)
499B  A1                 [093] (-61)
499C  02                 [094] (-61)
499D  00                 [095] (-60)
499E  00                 [096] (-60)
499F  A4                 [097] (-59)
49A0  02                 [098] (-59)
49A1  00                 [099] (-58)
49A2  00                 [100] (-58)
49A3  A4                 [101] (-58)
49A4  02                 [102] (-58)
49A5  00                 [103] (-58)
49A6  00                 [104] (-55)
49A7  A4                 [105] (-55)
49A8  02                 [106] (-55)
49A9  00                 [107] (-55)
49AA  00                 [108] (-55)
49AB  A6                 [109] (-55)
49AC  02                 [110] (-55)
49AD  00                 [111] (-52)
49AE  00                 [112] (-52)
49AF  A7                 [113] (-52)
49B0  02                 [114] (-51)
49B1  00                 [115] (-51)
49B2  00                 [116] (-51)
49B3  A7                 [117] (-51)
49B4  02                 [118] (-51)
49B5  00                 [119] (-51)
49B6  00                 [120] (-50)
49B7  A7                 [121] (-50)
49B8  02                 [122] (-50)
49B9  00                 [123] (-50)
49BA  00                 [124] (-50)
49BB  A7                 [125] (-50)
49BC  02                 [126] (-49)
49BD  00                 [127] (-49)
49BE  00                 [128] (-49)
49BF  A7                 [129] (-49)
49C0  02                 [130] (-49)
49C1  00                 [131] (-49)
49C2  00                 [132] (-48)
49C3  A7                 [133] (-48)
49C4  02                 [134] (-47)
49C5  00                 [135] (-47)
49C6  00                 [136] (-47)
49C7  A8                 [137] (-47)
49C8  02                 [138] (-46)
49C9  00                 [139] (-46)
49CA  00                 [140] (-46)
49CB  A9                 [141] (-46)
49CC  02                 [142] (-45)
49CD  00                 [143] (-45)
49CE  00                 [144] (-45)
49CF  AA                 [145] (-45)
49D0  02                 [146] (-43)
49D1  00                 [147] (-43)
49D2  00                 [148] (-43)
49D3  AD                 [149] (-43)
49D4  02                 [150] (-43)
49D5  00                 [151] (-43)
49D6  00                 [152] (-43)
49D7  AD                 [153] (-43)
49D8  02                 [154] (-63)
49D9  00                 [155] (-41)
49DA  00                 [156] (-39)
                         * locals:
4BAF  00                 sizelocvars (0)
                         * upvalues:
4BB0  00                 sizeupvalues (0)
                         ** end of function **

                         
4BB1                     ** function [19] definition (level 2)
                         ** start of function **
4BB1  00                 string size (0)
                         source name: (none)
4BB3  05                 line defined (731)
4BB4  DD                 last line defined (733)
4BB5  05                 nups (0)
4BB6  00                 numparams (0)
4BB7  00                 is_vararg (0)
4BB8  00                 maxstacksize (2)
                         * code:
4BBA  01                 sizecode (1)
4BBB  1E008000           [1] return     0   1      
                         * constants:
4BBF  00                 sizek (0)
                         * functions:
4BC0  00                 sizep (0)
                         * lines:
4BC1  01                 sizelineinfo (1)
                         [pc] (line)
4BC2  DD                 [1] (-35)
                         * locals:
4BC6  00                 sizelocvars (0)
                         * upvalues:
4BC7  00                 sizeupvalues (0)
                         ** end of function **

                         
4BC8                     ** function [20] definition (level 2)
                         ** start of function **
4BC8  00                 string size (0)
                         source name: (none)
4BCA  05                 line defined (736)
4BCB  A9                 last line defined (809)
4BCC  06                 nups (14)
4BCD  0E                 numparams (0)
4BCE  00                 is_vararg (0)
4BCF  00                 maxstacksize (19)
                         * code:
4BD2  01                 sizecode (184)
4BD3  13000000           [001] getupval   0   0      
4BD7  24004000           [002] self       0   0   256  ; -1201441975
4BDB  22800001           [003] call       0   2   2  
4BDF  59400000           [004] loadk      1   1        ; 0
4BE3  8E804000           [005] gettable   2   0   258  ; "activeMissionTag"
4BE7  DDC00000           [006] getglobal  3   3        ; EMPTY_SYMBOL
fail op	35
4BEB  63C00001           [007] close      1  
4BEF  1AC00080           [008] jmp        4            ; to [13]
4BF3  9D000100           [009] getglobal  2   4        ; -1615931716
4BF7  CE804000           [010] gettable   3   0   258  ; "activeMissionTag"
4BFB  A2800001           [011] call       2   2   2  
4BFF  52000001           [012] move       1   2      
4C03  9D400100           [013] getglobal  2   5        ; -174740002
4C07  DD800100           [014] getglobal  3   6        ; string
4C0B  CEC0C101           [015] gettable   3   3   263  ; 2071470131
4C0F  12018000           [016] move       4   1      
4C13  5D810100           [017] getglobal  5   6        ; string
4C17  4E01C202           [018] gettable   5   5   264  ; -965268854
4C1B  92018000           [019] move       6   1      
4C1F  62010001           [020] call       5   2   0  
4C23  E2000000           [021] call       3   0   0  
4C27  A2800000           [022] call       2   0   2  
fail op	8
4C2B  88008000           [023] setupval   2   1      
4C2F  8E404200           [024] gettable   2   0   265  ; "missionType"
4C33  DD800200           [025] getglobal  3   10       ; Lotus_Game
4C37  CEC0C201           [026] gettable   3   3   267  ; "MT_CAPTURE"
fail op	35
4C3B  63C00001           [027] close      1  
4C3F  1AC00480           [028] jmp        20           ; to [49]
4C43  8E404200           [029] gettable   2   0   265  ; "missionType"
4C47  DD800200           [030] getglobal  3   10       ; Lotus_Game
4C4B  CE00C301           [031] gettable   3   3   268  ; "MT_RESCUE"
fail op	35
4C4F  63C00001           [032] close      1  
4C53  1A800380           [033] jmp        15           ; to [49]
4C57  8E404200           [034] gettable   2   0   265  ; "missionType"
4C5B  DD800200           [035] getglobal  3   10       ; Lotus_Game
4C5F  CE40C301           [036] gettable   3   3   269  ; "MT_SABOTAGE"
fail op	35
4C63  63C00001           [037] close      1  
4C67  1A400280           [038] jmp        10           ; to [49]
4C6B  8E404200           [039] gettable   2   0   265  ; "missionType"
4C6F  DD800200           [040] getglobal  3   10       ; Lotus_Game
4C73  CE80C301           [041] gettable   3   3   270  ; "MT_ASSASSINATION"
fail op	35
4C77  63C00001           [042] close      1  
4C7B  1A000180           [043] jmp        5            ; to [49]
4C7F  8E404200           [044] gettable   2   0   265  ; "missionType"
4C83  DD800200           [045] getglobal  3   10       ; Lotus_Game
4C87  CEC0C301           [046] gettable   3   3   271  ; "MT_INTEL"
fail op	35
4C8B  23C00001           [047] close      0  
4C8F  1A800380           [048] jmp        15           ; to [64]
4C93  8B000001           [049] newtable   2   2   0    ; array=2, hash=0
4C97  D9000400           [050] loadk      3   16       ; 0
4C9B  19410400           [051] loadk      4   17       ; 0
4C9F  9B400001           [052] setlist    2   2   1    ; index 1 to 2
fail op	8
4CA3  88000001           [053] setupval   2   2      
4CA7  99400000           [054] loadk      2   1        ; 0
fail op	8
4CAB  88008001           [055] setupval   2   3      
4CAF  99400000           [056] loadk      2   1        ; 0
fail op	8
4CB3  88000002           [057] setupval   2   4      
4CB7  99400400           [058] loadk      2   17       ; 0
fail op	8
4CBB  88008002           [059] setupval   2   5      
4CBF  99000400           [060] loadk      2   16       ; 0
fail op	8
4CC3  88000003           [061] setupval   2   6      
4CC7  99000400           [062] loadk      2   16       ; 0
fail op	8
4CCB  88008003           [063] setupval   2   7      
4CCF  8E404200           [064] gettable   2   0   265  ; "missionType"
4CD3  DD800200           [065] getglobal  3   10       ; Lotus_Game
4CD7  CE80C401           [066] gettable   3   3   274  ; "MT_EXTERMINATION"
fail op	35
4CDB  23C00001           [067] close      0  
4CDF  1A000480           [068] jmp        17           ; to [86]
4CE3  97000000           [069] loadbool   2   0   0    ; false
fail op	8
4CE7  88000004           [070] setupval   2   8      
4CEB  8B000001           [071] newtable   2   2   0    ; array=2, hash=0
4CEF  D9000400           [072] loadk      3   16       ; 0
4CF3  19C10400           [073] loadk      4   19       ; 0
4CF7  9B400001           [074] setlist    2   2   1    ; index 1 to 2
fail op	8
4CFB  88000001           [075] setupval   2   2      
4CFF  99400000           [076] loadk      2   1        ; 0
fail op	8
4D03  88008001           [077] setupval   2   3      
4D07  99400000           [078] loadk      2   1        ; 0
fail op	8
4D0B  88000002           [079] setupval   2   4      
4D0F  99400400           [080] loadk      2   17       ; 0
fail op	8
4D13  88008002           [081] setupval   2   5      
4D17  99000400           [082] loadk      2   16       ; 0
fail op	8
4D1B  88000003           [083] setupval   2   6      
4D1F  99000400           [084] loadk      2   16       ; 0
fail op	8
4D23  88008003           [085] setupval   2   7      
4D27  8E404200           [086] gettable   2   0   265  ; "missionType"
4D2B  DD800200           [087] getglobal  3   10       ; Lotus_Game
4D2F  CE00C501           [088] gettable   3   3   276  ; "MT_EXCAVATE"
fail op	35
4D33  63C00001           [089] close      1  
4D37  1A000180           [090] jmp        5            ; to [96]
4D3B  8E404200           [091] gettable   2   0   265  ; "missionType"
4D3F  DD800200           [092] getglobal  3   10       ; Lotus_Game
4D43  CE40C501           [093] gettable   3   3   277  ; "MT_TERRITORY"
fail op	35
4D47  23C00001           [094] close      0  
4D4B  1A400080           [095] jmp        2            ; to [98]
4D4F  97000000           [096] loadbool   2   0   0    ; false
fail op	8
4D53  88000004           [097] setupval   2   8      
4D57  97000000           [098] loadbool   2   0   0    ; false
4D5B  98000000           [099] test       2       0    ; to [101] if true
4D5F  1A000180           [100] jmp        5            ; to [106]
4D63  8B000001           [101] newtable   2   2   0    ; array=2, hash=0
4D67  D9400000           [102] loadk      3   1        ; 0
4D6B  19410000           [103] loadk      4   1        ; 0
4D6F  9B400001           [104] setlist    2   2   1    ; index 1 to 2
fail op	8
4D73  88000001           [105] setupval   2   2      
4D77  9D800500           [106] getglobal  2   22       ; gRegion
4D7B  A4C04501           [107] self       2   2   279  ; -1520831144
4D7F  A2800001           [108] call       2   2   2  
4D83  98000000           [109] test       2       0    ; to [111] if true
4D87  1A400280           [110] jmp        10           ; to [121]
4D8B  93000000           [111] getupval   2   0      
4D8F  A4004601           [112] self       2   2   280  ; -803877924
4D93  13018004           [113] getupval   4   9      
4D97  5D410600           [114] getglobal  5   25       ; 2144646525
4D9B  93010001           [115] getupval   6   2      
4D9F  8E414003           [116] gettable   6   6   257  ; 0
4DA3  D3010001           [117] getupval   7   2      
4DA7  CE01C403           [118] gettable   7   7   272  ; 0
4DAB  62018001           [119] call       5   3   0  
4DAF  A2400000           [120] call       2   0   1  
4DB3  9D800600           [121] getglobal  2   26       ; 1672515847
4DB7  D3000005           [122] getupval   3   10     
4DBB  A2000101           [123] call       2   2   4  
4DBF  1A000180           [124] jmp        5            ; to [130]
4DC3  CEC14603           [125] gettable   7   6   283  ; "Val"
4DC7  13028000           [126] getupval   8   1      
4DCB  0402028E           [127] mul        8   284 8    ; -51
4DCF  C3018203           [128] add        7   7   8  
4DD3  8CC1818D           [129] settable   6   283 7    ; "Val"
4DD7  96800000           [130] tforloop   2       2    ; to [132] if exit
4DDB  1A00FE7F           [131] jmp        -7           ; to [125]
4DDF  D3018005           [132] getupval   7   11     
4DE3  1D420700           [133] getglobal  8   29       ; math
4DE7  0E824704           [134] gettable   8   8   286  ; -150971781
4DEB  4EC24700           [135] gettable   9   0   287  ; "difficulty"
4DEF  22820001           [136] call       8   2   2  
4DF3  0D028288           [137] sub        8   273 8    ; 0
4DF7  C3018203           [138] add        7   7   8  
fail op	8
4DFB  C8018005           [139] setupval   7   11     
4DFF  D3018006           [140] getupval   7   13     
4E03  E401C803           [141] self       7   7   288  ; 1891965785
4E07  E2810001           [142] call       7   2   2  
fail op	8
4E0B  C8010006           [143] setupval   7   12     
4E0F  DD810500           [144] getglobal  7   22       ; gRegion
4E13  E441C803           [145] self       7   7   289  ; 152279552
4E17  5D820800           [146] getglobal  9   34       ; reactantPickupType
4E1B  E2818001           [147] call       7   3   2  
4E1F  1D820600           [148] getglobal  8   26       ; 1672515847
4E23  52028003           [149] move       9   7      
4E27  22020101           [150] call       8   2   4  
4E2B  1A400380           [151] jmp        14           ; to [166]
4E2F  64C34806           [152] self       13  12  291  ; -751689315
4E33  62830001           [153] call       13  2   2  
4E37  58430000           [154] test       13      1    ; to [156] if false
4E3B  1A400280           [155] jmp        10           ; to [166]
4E3F  64034906           [156] self       13  12  292  ; -1625438872
4E43  DD430900           [157] getglobal  15  37       ; gBaseMarkerInfoType
4E47  62838001           [158] call       13  3   2  
4E4B  9D830900           [159] getglobal  14  38       ; 1074689893
4E4F  D2038006           [160] move       15  13     
4E53  A2830001           [161] call       14  2   2  
4E57  98430000           [162] test       14      1    ; to [164] if false
4E5B  1A400080           [163] jmp        2            ; to [166]
4E5F  A4C3C906           [164] self       14  13  295  ; 766584623
4E63  A2430001           [165] call       14  2   1  
4E67  16820000           [166] tforloop   8       2    ; to [168] if exit
4E6B  1AC0FB7F           [167] jmp        -16          ; to [152]
4E6F  93030000           [168] getupval   14  0      
4E73  A4034A07           [169] self       14  14  296  ; 1247278653
4E77  1D440A00           [170] getglobal  16  41       ; voidProjectionRewardMovie
4E7B  24844A08           [171] self       16  16  298  ; 455421500
4E7F  22840001           [172] call       16  2   2  
4E83  59C40A00           [173] loadk      17  43       ; "OnResourceReady"
4E87  97048000           [174] loadbool   18  1   0    ; true
4E8B  A2438002           [175] call       14  5   1  
4E8F  93030000           [176] getupval   14  0      
4E93  A4034A07           [177] self       14  14  296  ; 1247278653
4E97  1D040B00           [178] getglobal  16  44       ; voidProjectionSelectionMovie
4E9B  24844A08           [179] self       16  16  298  ; 455421500
4E9F  22840001           [180] call       16  2   2  
4EA3  59C40A00           [181] loadk      17  43       ; "OnResourceReady"
4EA7  97048000           [182] loadbool   18  1   0    ; true
4EAB  A2438002           [183] call       14  5   1  
4EAF  1E008000           [184] return     0   1      
                         * constants:
4EB3  2D                 sizek (45)
4EB4  01                 const type 3
4EB5  497363B8           const [0]: (-1201441975)
4EB9  03                 const type 3
4EBA  0000803F           const [1]: (0)
4EBE  04                 const type 4
4EBF  11                 string size (17)
4EC0  6163746976654D69+  "activeMi"
4EC8  7373696F6E546167+  "ssionTag"
4ED0  00                 "\0"
                         const [2]: "activeMissionTag"
4ED1  04                 const type 4
4ED2  0D                 string size (13)
4ED3  454D5054595F5359+  "EMPTY_SY"
4EDB  4D424F4C00         "MBOL\0"
                         const [3]: "EMPTY_SYMBOL"
4EE0  01                 const type 3
4EE1  BCD6AE9F           const [4]: (-1615931716)
4EE5  01                 const type 3
4EE6  DEAD95F5           const [5]: (-174740002)
4EEA  04                 const type 4
4EEB  07                 string size (7)
4EEC  737472696E6700     "string\0"
                         const [6]: "string"
4EF3  01                 const type 3
4EF4  3320787B           const [7]: (2071470131)
4EF8  01                 const type 3
4EF9  8A2A77C6           const [8]: (-965268854)
4EFD  04                 const type 4
4EFE  0C                 string size (12)
4EFF  6D697373696F6E54+  "missionT"
4F07  79706500           "ype\0"
                         const [9]: "missionType"
4F0B  04                 const type 4
4F0C  0B                 string size (11)
4F0D  4C6F7475735F4761+  "Lotus_Ga"
4F15  6D6500             "me\0"
                         const [10]: "Lotus_Game"
4F18  04                 const type 4
4F19  0B                 string size (11)
4F1A  4D545F4341505455+  "MT_CAPTU"
4F22  524500             "RE\0"
                         const [11]: "MT_CAPTURE"
4F25  04                 const type 4
4F26  0A                 string size (10)
4F27  4D545F5245534355+  "MT_RESCU"
4F2F  4500               "E\0"
                         const [12]: "MT_RESCUE"
4F31  04                 const type 4
4F32  0C                 string size (12)
4F33  4D545F5341424F54+  "MT_SABOT"
4F3B  41474500           "AGE\0"
                         const [13]: "MT_SABOTAGE"
4F3F  04                 const type 4
4F40  11                 string size (17)
4F41  4D545F4153534153+  "MT_ASSAS"
4F49  53494E4154494F4E+  "SINATION"
4F51  00                 "\0"
                         const [14]: "MT_ASSASSINATION"
4F52  04                 const type 4
4F53  09                 string size (9)
4F54  4D545F494E54454C+  "MT_INTEL"
4F5C  00                 "\0"
                         const [15]: "MT_INTEL"
4F5D  03                 const type 3
4F5E  00000040           const [16]: (0)
4F62  03                 const type 3
4F63  0000A040           const [17]: (0)
4F67  04                 const type 4
4F68  11                 string size (17)
4F69  4D545F4558544552+  "MT_EXTER"
4F71  4D494E4154494F4E+  "MINATION"
4F79  00                 "\0"
                         const [18]: "MT_EXTERMINATION"
4F7A  03                 const type 3
4F7B  00004040           const [19]: (0)
4F7F  04                 const type 4
4F80  0C                 string size (12)
4F81  4D545F4558434156+  "MT_EXCAV"
4F89  41544500           "ATE\0"
                         const [20]: "MT_EXCAVATE"
4F8D  04                 const type 4
4F8E  0D                 string size (13)
4F8F  4D545F5445525249+  "MT_TERRI"
4F97  544F525900         "TORY\0"
                         const [21]: "MT_TERRITORY"
4F9C  04                 const type 4
4F9D  08                 string size (8)
4F9E  67526567696F6E00   "gRegion\0"
                         const [22]: "gRegion"
4FA6  01                 const type 3
4FA7  58F559A5           const [23]: (-1520831144)
4FAB  01                 const type 3
4FAC  DCCB15D0           const [24]: (-803877924)
4FB0  01                 const type 3
4FB1  7DB5D47F           const [25]: (2144646525)
4FB5  01                 const type 3
4FB6  0791B063           const [26]: (1672515847)
4FBA  04                 const type 4
4FBB  04                 string size (4)
4FBC  56616C00           "Val\0"
                         const [27]: "Val"
4FC0  03                 const type 3
4FC1  CDCCCC3D           const [28]: (-51)
4FC5  04                 const type 4
4FC6  05                 string size (5)
4FC7  6D61746800         "math\0"
                         const [29]: "math"
4FCC  01                 const type 3
4FCD  7B5A00F7           const [30]: (-150971781)
4FD1  04                 const type 4
4FD2  0B                 string size (11)
4FD3  646966666963756C+  "difficul"
4FDB  747900             "ty\0"
                         const [31]: "difficulty"
4FDE  01                 const type 3
4FDF  591BC570           const [32]: (1891965785)
4FE3  01                 const type 3
4FE4  009A1309           const [33]: (152279552)
4FE8  04                 const type 4
4FE9  13                 string size (19)
4FEA  7265616374616E74+  "reactant"
4FF2  5069636B75705479+  "PickupTy"
4FFA  706500             "pe\0"
                         const [34]: "reactantPickupType"
4FFD  01                 const type 3
4FFE  9D2132D3           const [35]: (-751689315)
5002  01                 const type 3
5003  68C51D9F           const [36]: (-1625438872)
5007  04                 const type 4
5008  14                 string size (20)
5009  67426173654D6172+  "gBaseMar"
5011  6B6572496E666F54+  "kerInfoT"
5019  79706500           "ype\0"
                         const [37]: "gBaseMarkerInfoType"
501D  01                 const type 3
501E  65770E40           const [38]: (1074689893)
5022  01                 const type 3
5023  2F27B12D           const [39]: (766584623)
5027  01                 const type 3
5028  3DF6574A           const [40]: (1247278653)
502C  04                 const type 4
502D  1A                 string size (26)
502E  766F696450726F6A+  "voidProj"
5036  656374696F6E5265+  "ectionRe"
503E  776172644D6F7669+  "wardMovi"
5046  6500               "e\0"
                         const [41]: "voidProjectionRewardMovie"
5048  01                 const type 3
5049  3C2E251B           const [42]: (455421500)
504D  04                 const type 4
504E  10                 string size (16)
504F  4F6E5265736F7572+  "OnResour"
5057  6365526561647900   "ceReady\0"
                         const [43]: "OnResourceReady"
505F  04                 const type 4
5060  1D                 string size (29)
5061  766F696450726F6A+  "voidProj"
5069  656374696F6E5365+  "ectionSe"
5071  6C656374696F6E4D+  "lectionM"
5079  6F76696500         "ovie\0"
                         const [44]: "voidProjectionSelectionMovie"
                         * functions:
507E  00                 sizep (0)
                         * lines:
5080  01                 sizelineinfo (184)
                         [pc] (line)
5081  E1                 [001] (-31)
5082  02                 [002] (-31)
5083  00                 [003] (-31)
5084  00                 [004] (-29)
5085  E1                 [005] (-28)
5086  02                 [006] (-28)
5087  00                 [007] (-28)
5088  00                 [008] (-28)
5089  E1                 [009] (-27)
508A  02                 [010] (-27)
508B  00                 [011] (-27)
508C  00                 [012] (-27)
508D  E3                 [013] (-24)
508E  02                 [014] (-24)
508F  00                 [015] (-24)
5090  00                 [016] (-24)
5091  E4                 [017] (-24)
5092  02                 [018] (-24)
5093  00                 [019] (-24)
5094  00                 [020] (-24)
5095  E4                 [021] (-24)
5096  02                 [022] (-24)
5097  00                 [023] (-24)
5098  00                 [024] (-21)
5099  E4                 [025] (-21)
509A  02                 [026] (-21)
509B  00                 [027] (-21)
509C  00                 [028] (-21)
509D  E4                 [029] (-20)
509E  02                 [030] (-20)
509F  00                 [031] (-20)
50A0  00                 [032] (-20)
50A1  E5                 [033] (-20)
50A2  02                 [034] (-19)
50A3  00                 [035] (-19)
50A4  00                 [036] (-19)
50A5  E5                 [037] (-19)
50A6  02                 [038] (-19)
50A7  00                 [039] (-18)
50A8  00                 [040] (-18)
50A9  E5                 [041] (-18)
50AA  02                 [042] (-18)
50AB  00                 [043] (-18)
50AC  00                 [044] (-17)
50AD  E5                 [045] (-17)
50AE  02                 [046] (-17)
50AF  00                 [047] (-17)
50B0  00                 [048] (-17)
50B1  E8                 [049] (-14)
50B2  02                 [050] (-14)
50B3  00                 [051] (-14)
50B4  00                 [052] (-14)
50B5  E8                 [053] (-14)
50B6  02                 [054] (-13)
50B7  00                 [055] (-13)
50B8  00                 [056] (-12)
50B9  E8                 [057] (-12)
50BA  02                 [058] (-11)
50BB  00                 [059] (-11)
50BC  00                 [060] (-10)
50BD  E8                 [061] (-10)
50BE  02                 [062] (-9)
50BF  00                 [063] (-9)
50C0  00                 [064] (-6)
50C1  E8                 [065] (-6)
50C2  02                 [066] (-6)
50C3  00                 [067] (-6)
50C4  00                 [068] (-6)
50C5  E8                 [069] (-5)
50C6  02                 [070] (-5)
50C7  00                 [071] (-4)
50C8  00                 [072] (-4)
50C9  E8                 [073] (-4)
50CA  02                 [074] (-4)
50CB  00                 [075] (-4)
50CC  00                 [076] (-3)
50CD  E8                 [077] (-3)
50CE  02                 [078] (-2)
50CF  00                 [079] (-2)
50D0  00                 [080] (-1)
50D1  E8                 [081] (-1)
50D2  02                 [082] (0)
50D3  00                 [083] (0)
50D4  00                 [084] (1)
50D5  E8                 [085] (1)
50D6  02                 [086] (5)
50D7  00                 [087] (5)
50D8  00                 [088] (5)
50D9  E8                 [089] (5)
50DA  02                 [090] (5)
50DB  00                 [091] (6)
50DC  00                 [092] (6)
50DD  EB                 [093] (6)
50DE  02                 [094] (6)
50DF  00                 [095] (6)
50E0  00                 [096] (8)
50E1  EB                 [097] (8)
50E2  02                 [098] (11)
50E3  00                 [099] (11)
50E4  00                 [100] (11)
50E5  EB                 [101] (12)
50E6  02                 [102] (12)
50E7  00                 [103] (12)
50E8  00                 [104] (12)
50E9  EB                 [105] (12)
50EA  02                 [106] (15)
50EB  00                 [107] (15)
50EC  00                 [108] (15)
50ED  EB                 [109] (15)
50EE  02                 [110] (15)
50EF  00                 [111] (16)
50F0  00                 [112] (16)
50F1  EC                 [113] (16)
50F2  02                 [114] (16)
50F3  00                 [115] (16)
50F4  00                 [116] (16)
50F5  EC                 [117] (16)
50F6  02                 [118] (16)
50F7  00                 [119] (16)
50F8  00                 [120] (16)
50F9  EC                 [121] (19)
50FA  02                 [122] (19)
50FB  00                 [123] (19)
50FC  00                 [124] (19)
50FD  EC                 [125] (20)
50FE  02                 [126] (20)
50FF  00                 [127] (20)
5100  00                 [128] (20)
5101  EC                 [129] (20)
5102  02                 [130] (19)
5103  00                 [131] (20)
5104  00                 [132] (23)
5105  ED                 [133] (23)
5106  02                 [134] (23)
5107  00                 [135] (23)
5108  00                 [136] (23)
5109  ED                 [137] (23)
510A  02                 [138] (23)
510B  00                 [139] (23)
510C  00                 [140] (25)
510D  ED                 [141] (25)
510E  02                 [142] (25)
510F  00                 [143] (25)
5110  00                 [144] (27)
5111  ED                 [145] (27)
5112  02                 [146] (27)
5113  00                 [147] (27)
5114  00                 [148] (28)
5115  ED                 [149] (28)
5116  02                 [150] (28)
5117  00                 [151] (28)
5118  00                 [152] (29)
5119  EE                 [153] (29)
511A  02                 [154] (29)
511B  00                 [155] (29)
511C  00                 [156] (30)
511D  EE                 [157] (30)
511E  02                 [158] (30)
511F  00                 [159] (31)
5120  00                 [160] (31)
5121  EE                 [161] (31)
5122  02                 [162] (31)
5123  00                 [163] (31)
5124  00                 [164] (32)
5125  EE                 [165] (32)
5126  02                 [166] (28)
5127  00                 [167] (34)
5128  00                 [168] (39)
5129  EE                 [169] (39)
512A  02                 [170] (39)
512B  00                 [171] (39)
512C  00                 [172] (39)
512D  EF                 [173] (39)
512E  02                 [174] (39)
512F  00                 [175] (39)
5130  00                 [176] (40)
5131  EF                 [177] (40)
5132  02                 [178] (40)
5133  00                 [179] (40)
5134  00                 [180] (40)
5135  EF                 [181] (40)
5136  02                 [182] (40)
5137  00                 [183] (40)
5138  00                 [184] (41)
                         * locals:
5361  00                 sizelocvars (0)
                         * upvalues:
5362  00                 sizeupvalues (0)
                         ** end of function **

                         
5363                     ** function [21] definition (level 2)
                         ** start of function **
5363  00                 string size (0)
                         source name: (none)
5365  06                 line defined (811)
5366  B9                 last line defined (825)
5367  06                 nups (11)
5368  0B                 numparams (0)
5369  00                 is_vararg (0)
536A  00                 maxstacksize (10)
                         * code:
536C  3D                 sizecode (61)
536D  1D000000           [01] getglobal  0   0        ; math
5371  0E404000           [02] gettable   0   0   257  ; -150971781
5375  5D000000           [03] getglobal  1   0        ; math
5379  4E80C000           [04] gettable   1   1   258  ; -1962864584
537D  99C00000           [05] loadk      2   3        ; 0
5381  D3000000           [06] getupval   3   0      
5385  E400C101           [07] self       3   3   260  ; -354168336
5389  E2800001           [08] call       3   2   2  
538D  CD40C101           [09] sub        3   3   261  ; 0
5391  62808001           [10] call       1   3   2  
5395  5C40C100           [11] div        1   1   261  ; 0
5399  22800001           [12] call       0   2   2  
539D  5D000000           [13] getglobal  1   0        ; math
53A1  4E80C000           [14] gettable   1   1   258  ; -1962864584
53A5  93000001           [15] getupval   2   2      
53A9  8D000001           [16] sub        2   2   0  
53AD  D3008001           [17] getupval   3   3      
53B1  62808001           [18] call       1   3   2  
fail op	8
53B5  48008000           [19] setupval   1   1      
53B9  53000002           [20] getupval   1   4      
53BD  6480C100           [21] self       1   1   262  ; -317790213
53C1  D3008002           [22] getupval   3   5      
53C5  19C10100           [23] loadk      4   7        ; 0
53C9  62800002           [24] call       1   4   2  
53CD  93008003           [25] getupval   2   7      
53D1  8E004201           [26] gettable   2   2   264  ; -132701534
fail op	21
53D5  55408083           [27] concat     1   263 1  
53D9  1A000080           [28] jmp        1            ; to [30]
53DD  D7400000           [29] loadbool   3   0   1    ; false, to [31]
53E1  D7008000           [30] loadbool   3   1   0    ; true
53E5  1D010000           [31] getglobal  4   0        ; math
53E9  0E414002           [32] gettable   4   4   257  ; -150971781
53ED  53010004           [33] getupval   5   8      
53F1  5C418100           [34] div        5   1   5  
53F5  22810001           [35] call       4   2   2  
53F9  59C10100           [36] loadk      5   7        ; 0
53FD  A2800002           [37] call       2   4   2  
fail op	8
5401  88000003           [38] setupval   2   6      
5405  93008004           [39] getupval   2   9      
5409  8A000001           [40] len        2   2      
540D  D9C00000           [41] loadk      3   3        ; 0
5411  19410200           [42] loadk      4   9        ; 0
5415  90C00380           [43] forprep    2   16       ; to [60]
5419  93018004           [44] getupval   6   9      
541D  8E410103           [45] gettable   6   6   5  
5421  CE814203           [46] gettable   7   6   266  ; "tier"
5425  13020003           [47] getupval   8   6      
fail op	33
5429  21008203           [48] tforloop   0       8    ; to [50] if exit
542D  1A400280           [49] jmp        10           ; to [60]
5431  DDC10200           [50] getglobal  7   11       ; table
5435  CE01C303           [51] gettable   7   7   268  ; -431682403
5439  13020005           [52] getupval   8   10     
543D  52020003           [53] move       9   6      
5441  E2418001           [54] call       7   3   1  
5445  DDC10200           [55] getglobal  7   11       ; table
5449  CE41C303           [56] gettable   7   7   269  ; -843973282
544D  13028004           [57] getupval   8   9      
5451  52028002           [58] move       9   5      
5455  E2418001           [59] call       7   3   1  
5459  9480FB7F           [60] forloop    2   -17      ; to [44] if loop
545D  1E008000           [61] return     0   1      
                         * constants:
5461  0E                 sizek (14)
5462  04                 const type 4
5463  05                 string size (5)
5464  6D61746800         "math\0"
                         const [0]: "math"
5469  01                 const type 3
546A  7B5A00F7           const [1]: (-150971781)
546E  01                 const type 3
546F  3810018B           const [2]: (-1962864584)
5473  03                 const type 3
5474  0000803F           const [3]: (0)
5478  01                 const type 3
5479  F0D1E3EA           const [4]: (-354168336)
547D  03                 const type 3
547E  00002041           const [5]: (0)
5482  01                 const type 3
5483  FBE70EED           const [6]: (-317790213)
5487  03                 const type 3
5488  00000000           const [7]: (0)
548C  01                 const type 3
548D  A22217F8           const [8]: (-132701534)
5491  03                 const type 3
5492  000080BF           const [9]: (0)
5496  04                 const type 4
5497  05                 string size (5)
5498  7469657200         "tier\0"
                         const [10]: "tier"
549D  04                 const type 4
549E  06                 string size (6)
549F  7461626C6500       "table\0"
                         const [11]: "table"
54A5  01                 const type 3
54A6  9D0C45E6           const [12]: (-431682403)
54AA  01                 const type 3
54AB  5EFDB1CD           const [13]: (-843973282)
                         * functions:
54AF  00                 sizep (0)
                         * lines:
54B0  3D                 sizelineinfo (61)
                         [pc] (line)
54B1  2C                 [01] (44)
54B2  03                 [02] (44)
54B3  00                 [03] (44)
54B4  00                 [04] (44)
54B5  2C                 [05] (44)
54B6  03                 [06] (44)
54B7  00                 [07] (44)
54B8  00                 [08] (44)
54B9  2C                 [09] (44)
54BA  03                 [10] (44)
54BB  00                 [11] (44)
54BC  00                 [12] (44)
54BD  2C                 [13] (45)
54BE  03                 [14] (45)
54BF  00                 [15] (45)
54C0  00                 [16] (45)
54C1  2C                 [17] (45)
54C2  03                 [18] (45)
54C3  00                 [19] (45)
54C4  00                 [20] (47)
54C5  2C                 [21] (47)
54C6  03                 [22] (47)
54C7  00                 [23] (47)
54C8  00                 [24] (47)
54C9  2C                 [25] (48)
54CA  03                 [26] (48)
54CB  00                 [27] (48)
54CC  00                 [28] (48)
54CD  2C                 [29] (48)
54CE  03                 [30] (48)
54CF  00                 [31] (48)
54D0  00                 [32] (48)
54D1  2C                 [33] (48)
54D2  03                 [34] (48)
54D3  00                 [35] (48)
54D4  00                 [36] (48)
54D5  2C                 [37] (48)
54D6  03                 [38] (48)
54D7  00                 [39] (50)
54D8  00                 [40] (50)
54D9  2C                 [41] (50)
54DA  03                 [42] (50)
54DB  00                 [43] (50)
54DC  00                 [44] (51)
54DD  2C                 [45] (51)
54DE  03                 [46] (52)
54DF  00                 [47] (52)
54E0  00                 [48] (52)
54E1  2D                 [49] (52)
54E2  03                 [50] (53)
54E3  00                 [51] (53)
54E4  00                 [52] (53)
54E5  2D                 [53] (53)
54E6  03                 [54] (53)
54E7  00                 [55] (54)
54E8  00                 [56] (54)
54E9  2D                 [57] (54)
54EA  03                 [58] (54)
54EB  00                 [59] (54)
54EC  00                 [60] (50)
54ED  2D                 [61] (57)
                         * locals:
55A5  00                 sizelocvars (0)
                         * upvalues:
55A6  00                 sizeupvalues (0)
                         ** end of function **

                         
55A7                     ** function [22] definition (level 2)
                         ** start of function **
55A7  00                 string size (0)
                         source name: (none)
55A9  06                 line defined (827)
55AA  C7                 last line defined (839)
55AB  06                 nups (1)
55AC  01                 numparams (0)
55AD  00                 is_vararg (0)
55AE  00                 maxstacksize (8)
                         * code:
55B0  22                 sizecode (34)
55B1  1D000000           [01] getglobal  0   0        ; gRegion
55B5  24404000           [02] self       0   0   257  ; -1456226250
55B9  22800001           [03] call       0   2   2  
55BD  0E804000           [04] gettable   0   0   258  ; "postProcess"
55C1  0C00C181           [05] settable   0   259 260  ; "lightning" 1
55C5  5D400100           [06] getglobal  1   5        ; 1074689893
55C9  9D000000           [07] getglobal  2   0        ; gRegion
55CD  A4804101           [08] self       2   2   262  ; 65205951
55D1  A2000001           [09] call       2   2   0  
55D5  62800000           [10] call       1   0   2  
55D9  58000000           [11] test       1       0    ; to [13] if true
55DD  1AC00080           [12] jmp        4            ; to [17]
55E1  5DC00100           [13] getglobal  1   7        ; 538022378
55E5  99000200           [14] loadk      2   8        ; 0
55E9  62400001           [15] call       1   2   1  
55ED  1A00FD7F           [16] jmp        -11          ; to [6]
55F1  5D000000           [17] getglobal  1   0        ; gRegion
55F5  6480C100           [18] self       1   1   262  ; 65205951
55F9  62800001           [19] call       1   2   2  
55FD  6440C200           [20] self       1   1   265  ; 1525877273
5601  62800001           [21] call       1   2   2  
5605  A480C200           [22] self       2   1   266  ; 167589562
5609  19C10200           [23] loadk      4   11       ; 51
560D  59010300           [24] loadk      5   12       ; 102
5611  99010300           [25] loadk      6   12       ; 102
5615  D9410300           [26] loadk      7   13       ; 0
5619  A2400003           [27] call       2   6   1  
561D  A480C300           [28] self       2   1   270  ; -847416010
5621  13010000           [29] getupval   4   0      
5625  59C10300           [30] loadk      5   15       ; 0
5629  99010400           [31] loadk      6   16       ; 0
562D  D9C10300           [32] loadk      7   15       ; 0
5631  A2400003           [33] call       2   6   1  
5635  1E008000           [34] return     0   1      
                         * constants:
5639  11                 sizek (17)
563A  04                 const type 4
563B  08                 string size (8)
563C  67526567696F6E00   "gRegion\0"
                         const [0]: "gRegion"
5644  01                 const type 3
5645  36C033A9           const [1]: (-1456226250)
5649  04                 const type 4
564A  0C                 string size (12)
564B  706F737450726F63+  "postProc"
5653  65737300           "ess\0"
                         const [2]: "postProcess"
5657  04                 const type 4
5658  0A                 string size (10)
5659  6C696768746E696E+  "lightnin"
5661  6700               "g\0"
                         const [3]: "lightning"
5663  01                 const type 3
5664  01000000           const [4]: (1)
5668  01                 const type 3
5669  65770E40           const [5]: (1074689893)
566D  01                 const type 3
566E  BFF6E203           const [6]: (65205951)
5672  01                 const type 3
5673  EA911120           const [7]: (538022378)
5677  03                 const type 3
5678  00000000           const [8]: (0)
567C  01                 const type 3
567D  190AF35A           const [9]: (1525877273)
5681  01                 const type 3
5682  BA36FD09           const [10]: (167589562)
5686  03                 const type 3
5687  3333333F           const [11]: (51)
568B  03                 const type 3
568C  6666863F           const [12]: (102)
5690  03                 const type 3
5691  00000040           const [13]: (0)
5695  01                 const type 3
5696  36757DCD           const [14]: (-847416010)
569A  03                 const type 3
569B  0000803F           const [15]: (0)
569F  03                 const type 3
56A0  000080BF           const [16]: (0)
                         * functions:
56A4  00                 sizep (0)
                         * lines:
56A5  22                 sizelineinfo (34)
                         [pc] (line)
56A6  3D                 [01] (61)
56A7  03                 [02] (61)
56A8  00                 [03] (61)
56A9  00                 [04] (61)
56AA  3D                 [05] (62)
56AB  03                 [06] (64)
56AC  00                 [07] (64)
56AD  00                 [08] (64)
56AE  3D                 [09] (64)
56AF  03                 [10] (64)
56B0  00                 [11] (64)
56B1  00                 [12] (64)
56B2  3D                 [13] (65)
56B3  03                 [14] (65)
56B4  00                 [15] (65)
56B5  00                 [16] (65)
56B6  3E                 [17] (68)
56B7  03                 [18] (68)
56B8  00                 [19] (68)
56B9  00                 [20] (68)
56BA  40                 [21] (68)
56BB  03                 [22] (69)
56BC  00                 [23] (69)
56BD  00                 [24] (69)
56BE  40                 [25] (69)
56BF  03                 [26] (69)
56C0  00                 [27] (69)
56C1  00                 [28] (70)
56C2  40                 [29] (70)
56C3  03                 [30] (70)
56C4  00                 [31] (70)
56C5  00                 [32] (70)
56C6  40                 [33] (70)
56C7  03                 [34] (71)
                         * locals:
572E  00                 sizelocvars (0)
                         * upvalues:
572F  00                 sizeupvalues (0)
                         ** end of function **

                         
5730                     ** function [23] definition (level 2)
                         ** start of function **
5730  00                 string size (0)
                         source name: (none)
5732  06                 line defined (841)
5733  D0                 last line defined (848)
5734  06                 nups (1)
5735  01                 numparams (0)
5736  00                 is_vararg (0)
5737  00                 maxstacksize (8)
                         * code:
5739  17                 sizecode (23)
573A  13000000           [01] getupval   0   0      
573E  0A000000           [02] len        0   0      
5742  59000000           [03] loadk      1   0        ; 0
5746  99400000           [04] loadk      2   1        ; 0
574A  10C00380           [05] forprep    0   16       ; to [22]
574E  13010000           [06] getupval   4   0      
5752  0EC10002           [07] gettable   4   4   3  
5756  5D810000           [08] getglobal  5   2        ; 1074689893
575A  92010002           [09] move       6   4      
575E  62810001           [10] call       5   2   2  
5762  58410000           [11] test       5       1    ; to [13] if false
5766  1AC00080           [12] jmp        4            ; to [17]
576A  64C14002           [13] self       5   4   259  ; 1511086594
576E  62810001           [14] call       5   2   2  
5772  58010000           [15] test       5       0    ; to [17] if true
5776  1A000180           [16] jmp        5            ; to [22]
577A  5D010100           [17] getglobal  5   4        ; table
577E  4E41C102           [18] gettable   5   5   261  ; -843973282
5782  93010000           [19] getupval   6   0      
5786  D2018001           [20] move       7   3      
578A  62418001           [21] call       5   3   1  
578E  1480FB7F           [22] forloop    0   -17      ; to [6] if loop
5792  1E008000           [23] return     0   1      
                         * constants:
5796  06                 sizek (6)
5797  03                 const type 3
5798  0000803F           const [0]: (0)
579C  03                 const type 3
579D  000080BF           const [1]: (0)
57A1  01                 const type 3
57A2  65770E40           const [2]: (1074689893)
57A6  01                 const type 3
57A7  025A115A           const [3]: (1511086594)
57AB  04                 const type 4
57AC  06                 string size (6)
57AD  7461626C6500       "table\0"
                         const [4]: "table"
57B3  01                 const type 3
57B4  5EFDB1CD           const [5]: (-843973282)
                         * functions:
57B8  00                 sizep (0)
                         * lines:
57B9  17                 sizelineinfo (23)
                         [pc] (line)
57BA  4A                 [01] (74)
57BB  03                 [02] (74)
57BC  00                 [03] (74)
57BD  00                 [04] (74)
57BE  4A                 [05] (74)
57BF  03                 [06] (75)
57C0  00                 [07] (75)
57C1  00                 [08] (76)
57C2  4A                 [09] (76)
57C3  03                 [10] (76)
57C4  00                 [11] (76)
57C5  00                 [12] (76)
57C6  4A                 [13] (76)
57C7  03                 [14] (76)
57C8  00                 [15] (76)
57C9  00                 [16] (76)
57CA  4A                 [17] (77)
57CB  03                 [18] (77)
57CC  00                 [19] (77)
57CD  00                 [20] (77)
57CE  4B                 [21] (77)
57CF  03                 [22] (74)
57D0  00                 [23] (80)
                         * locals:
5816  00                 sizelocvars (0)
                         * upvalues:
5817  00                 sizeupvalues (0)
                         ** end of function **

                         
5818                     ** function [24] definition (level 2)
                         ** start of function **
5818  00                 string size (0)
                         source name: (none)
581A  06                 line defined (850)
581B  8C                 last line defined (1036)
581C  08                 nups (38)
581D  26                 numparams (1)
581E  01                 is_vararg (0)
581F  00                 maxstacksize (51)
                         * code:
5822  03                 sizecode (492)
5823  5D000000           [001] getglobal  1   0        ; sealerDropTable
5827  60000000           [002] setglobal  1   0        ; sealerDropTable
582B  5D400000           [003] getglobal  1   1        ; gRegion
582F  6480C000           [004] self       1   1   258  ; 1804432755
5833  D9C00000           [005] loadk      3   3        ; "OnPlayersChanged"
5837  62408001           [006] call       1   3   1  
583B  5D000100           [007] getglobal  1   4        ; _T
583F  A5000000           [008] closure    2   0      
5843  13000000           [009] getupval   0   0      
5847  13008000           [010] getupval   0   1      
584B  4C808082           [011] settable   1   261 2    ; "PlayPickupTrans"
584F  5D400000           [012] getglobal  1   1        ; gRegion
5853  6480C100           [013] self       1   1   262  ; 925677844
5857  62800001           [014] call       1   2   2  
fail op	8
585B  48000001           [015] setupval   1   2      
585F  53008001           [016] getupval   1   3      
5863  62408000           [017] call       1   1   1  
5867  53000002           [018] getupval   1   4      
586B  62408000           [019] call       1   1   1  
586F  5D400000           [020] getglobal  1   1        ; gRegion
5873  64C0C100           [021] self       1   1   263  ; -1520831144
5877  62800001           [022] call       1   2   2  
587B  58400000           [023] test       1       1    ; to [25] if false
587F  1AC01780           [024] jmp        96           ; to [121]
5883  5D000200           [025] getglobal  1   8        ; gPromotedToHost
5887  58400000           [026] test       1       1    ; to [28] if false
588B  1A001780           [027] jmp        93           ; to [121]
588F  53008002           [028] getupval   1   5      
5893  62408000           [029] call       1   1   1  
5897  5D400000           [030] getglobal  1   1        ; gRegion
589B  6440C200           [031] self       1   1   265  ; 1224466847
589F  62800001           [032] call       1   2   2  
fail op	8
58A3  48000003           [033] setupval   1   6      
58A7  5D800200           [034] getglobal  1   10       ; 1672515847
58AB  93000003           [035] getupval   2   6      
58AF  62000101           [036] call       1   2   4  
58B3  1A001380           [037] jmp        77           ; to [115]
58B7  A4C1C202           [038] self       6   5   267  ; -1813551355
58BB  A2810001           [039] call       6   2   2  
58BF  DD010300           [040] getglobal  7   12       ; 1074689893
58C3  12020003           [041] move       8   6      
58C7  E2810001           [042] call       7   2   2  
58CB  D8410000           [043] test       7       1    ; to [45] if false
58CF  1A401180           [044] jmp        70           ; to [115]
58D3  E4414303           [045] self       7   6   269  ; 1511086594
58D7  E2810001           [046] call       7   2   2  
58DB  D8410000           [047] test       7       1    ; to [49] if false
58DF  1A401080           [048] jmp        66           ; to [115]
58E3  E4814303           [049] self       7   6   270  ; -1917464545
58E7  E2810001           [050] call       7   2   2  
58EB  24C2C303           [051] self       8   7   271  ; 1795518672
58EF  22820001           [052] call       8   2   2  
58F3  5D020400           [053] getglobal  9   16       ; Engine
58F7  4E42C404           [054] gettable   9   9   273  ; "INVALID"
fail op	35
58FB  63400204           [055] close      1  
58FF  1A400680           [056] jmp        26           ; to [83]
5903  5D020300           [057] getglobal  9   12       ; 1074689893
5907  93028003           [058] getupval   10  7      
590B  E482C402           [059] self       11  5   274  ; 340404473
590F  E2820001           [060] call       11  2   2  
5913  8EC20205           [061] gettable   10  10  11 
5917  62820001           [062] call       9   2   2  
591B  58020000           [063] test       9       0    ; to [65] if true
591F  1A400480           [064] jmp        18           ; to [83]
5923  53020004           [065] getupval   9   8      
5927  92028002           [066] move       10  5      
592B  D2020004           [067] move       11  8      
592F  62828001           [068] call       9   3   2  
5933  9D020300           [069] getglobal  10  12       ; 1074689893
5937  D2028004           [070] move       11  9      
593B  A2820001           [071] call       10  2   2  
593F  98420000           [072] test       10      1    ; to [74] if false
5943  1A000A80           [073] jmp        41           ; to [115]
5947  93028004           [074] getupval   10  9      
594B  D2028004           [075] move       11  9      
594F  12030003           [076] move       12  6      
5953  A2428001           [077] call       10  3   1  
5957  93028003           [078] getupval   10  7      
595B  E482C402           [079] self       11  5   274  ; 340404473
595F  E2820001           [080] call       11  2   2  
5963  8C028205           [081] settable   10  11  8  
5967  1AC00780           [082] jmp        32           ; to [115]
596B  9D020400           [083] getglobal  10  16       ; Engine
596F  8E424405           [084] gettable   10  10  273  ; "INVALID"
fail op	35
5973  23800204           [085] close      0  
5977  1AC00680           [086] jmp        28           ; to [115]
597B  9D020300           [087] getglobal  10  12       ; 1074689893
597F  D3028003           [088] getupval   11  7      
5983  2483C402           [089] self       12  5   274  ; 340404473
5987  22830001           [090] call       12  2   2  
598B  CE028305           [091] gettable   11  11  12 
598F  A2820001           [092] call       10  2   2  
5993  98420000           [093] test       10      1    ; to [95] if false
5997  1AC00480           [094] jmp        20           ; to [115]
599B  93020004           [095] getupval   10  8      
599F  D2028002           [096] move       11  5      
59A3  13038003           [097] getupval   12  7      
59A7  6483C402           [098] self       13  5   274  ; 340404473
59AB  62830001           [099] call       13  2   2  
59AF  0E430306           [100] gettable   12  12  13 
59B3  A2828001           [101] call       10  3   2  
59B7  DD020300           [102] getglobal  11  12       ; 1074689893
59BB  12030005           [103] move       12  10     
59BF  E2820001           [104] call       11  2   2  
59C3  D8420000           [105] test       11      1    ; to [107] if false
59C7  1AC00180           [106] jmp        8            ; to [115]
59CB  D3020005           [107] getupval   11  10     
59CF  12030005           [108] move       12  10     
59D3  52030003           [109] move       13  6      
59D7  E2428001           [110] call       11  3   1  
59DB  D3028003           [111] getupval   11  7      
59DF  2483C402           [112] self       12  5   274  ; 340404473
59E3  22830001           [113] call       12  2   2  
59E7  CCC24406           [114] settable   11  12  275  ; nil
59EB  56800000           [115] tforloop   1       2    ; to [117] if exit
59EF  1A00EC7F           [116] jmp        -79          ; to [38]
59F3  DD020500           [117] getglobal  11  20       ; 538022378
59F7  19430500           [118] loadk      12  21       ; 0
59FB  E2420001           [119] call       11  2   1  
59FF  1AC0E77F           [120] jmp        -96          ; to [25]
5A03  DD020300           [121] getglobal  11  12       ; 1074689893
5A07  1D030100           [122] getglobal  12  4        ; _T
5A0B  0E834506           [123] gettable   12  12  278  ; "MissionInitReady"
5A0F  E2820001           [124] call       11  2   2  
5A13  D8420000           [125] test       11      1    ; to [127] if false
5A17  1A000280           [126] jmp        9            ; to [136]
5A1B  DD020100           [127] getglobal  11  4        ; _T
5A1F  CE82C505           [128] gettable   11  11  278  ; "MissionInitReady"
5A23  D8020000           [129] test       11      0    ; to [131] if true
5A27  1A000180           [130] jmp        5            ; to [136]
5A2B  DD020300           [131] getglobal  11  12       ; 1074689893
5A2F  13038005           [132] getupval   12  11     
5A33  E2820001           [133] call       11  2   2  
5A37  D8020000           [134] test       11      0    ; to [136] if true
5A3B  1A800280           [135] jmp        11           ; to [147]
5A3F  DD020500           [136] getglobal  11  20       ; 538022378
5A43  19430500           [137] loadk      12  21       ; 0
5A47  E2420001           [138] call       11  2   1  
5A4B  DD020300           [139] getglobal  11  12       ; 1074689893
5A4F  13038005           [140] getupval   12  11     
5A53  E2820001           [141] call       11  2   2  
5A57  D8020000           [142] test       11      0    ; to [144] if true
5A5B  1A00FA7F           [143] jmp        -23          ; to [121]
5A5F  DDC20500           [144] getglobal  11  23       ; gGameRules
fail op	8
5A63  C8028005           [145] setupval   11  11     
5A67  1A40F97F           [146] jmp        -26          ; to [121]
5A6B  DD420000           [147] getglobal  11  1        ; gRegion
5A6F  E402C605           [148] self       11  11  280  ; 152279552
5A73  5D430600           [149] getglobal  13  25       ; 738251817
5A77  99830600           [150] loadk      14  26       ; "/Lotus/Types/Game/Waypoints/VoidTearWaypoint"
5A7B  62030001           [151] call       13  2   0  
5A7F  E2820000           [152] call       11  0   2  
5A83  0B030000           [153] newtable   12  0   0    ; array=0, hash=0
5A87  5D830200           [154] getglobal  13  10       ; 1672515847
5A8B  92038005           [155] move       14  11     
5A8F  62030101           [156] call       13  2   4  
5A93  1A800280           [157] jmp        11           ; to [169]
5A97  9DC40600           [158] getglobal  18  27       ; table
5A9B  8E044709           [159] gettable   18  18  284  ; -431682403
5A9F  D2040006           [160] move       19  12     
5AA3  1D450000           [161] getglobal  20  1        ; gRegion
5AA7  2445470A           [162] self       20  20  285  ; -1110225722
5AAB  93050006           [163] getupval   22  12     
5AAF  E485C708           [164] self       23  17  286  ; 1839670529
5AB3  E2850001           [165] call       23  2   2  
5AB7  1DC60700           [166] getglobal  24  31       ; ZERO_ROTATION
5ABB  22058002           [167] call       20  5   0  
5ABF  A2440000           [168] call       18  0   1  
5AC3  56830000           [169] tforloop   13      2    ; to [171] if exit
5AC7  1A80FC7F           [170] jmp        -13          ; to [158]
5ACB  9D040200           [171] getglobal  18  8        ; gPromotedToHost
5ACF  98040000           [172] test       18      0    ; to [174] if true
5AD3  1A000380           [173] jmp        13           ; to [187]
5AD7  9D440000           [174] getglobal  18  1        ; gRegion
5ADB  A4044809           [175] self       18  18  288  ; -1084394954
5ADF  13050007           [176] getupval   20  14     
5AE3  5D450800           [177] getglobal  21  33       ; 572299008
5AE7  62858000           [178] call       21  1   2  
5AEB  9D850800           [179] getglobal  22  34       ; FLT_MAX
5AEF  A2848002           [180] call       18  5   2  
fail op	8
5AF3  88048006           [181] setupval   18  13     
5AF7  93048007           [182] getupval   18  15     
5AFB  A2448000           [183] call       18  1   1  
5AFF  93048001           [184] getupval   18  3      
5B03  A2448000           [185] call       18  1   1  
5B07  1A800180           [186] jmp        7            ; to [194]
5B0B  9D040500           [187] getglobal  18  20       ; 538022378
5B0F  D9C40800           [188] loadk      19  35       ; 0
5B13  A2440001           [189] call       18  2   1  
5B17  93048005           [190] getupval   18  11     
5B1B  A4044909           [191] self       18  18  292  ; -1464939954
5B1F  13050008           [192] getupval   20  16     
5B23  A2448001           [193] call       18  3   1  
5B27  9D040100           [194] getglobal  18  4        ; _T
5B2B  E5440000           [195] closure    19  1      
5B2F  13008008           [196] getupval   0   17     
5B33  8CC48492           [197] settable   18  293 19   ; "CorruptPlayer"
5B37  93048005           [198] getupval   18  11     
5B3B  A4844909           [199] self       18  18  294  ; -1201441975
5B3F  A2840001           [200] call       18  2   2  
5B43  CEC44909           [201] gettable   19  18  295  ; "missionType"
5B47  1D050A00           [202] getglobal  20  40       ; 1289681407
5B4B  22858000           [203] call       20  1   2  
5B4F  53050003           [204] getupval   21  6      
5B53  4A05800A           [205] len        21  21     
fail op	35
5B57  2340C50A           [206] close      0  
5B5B  1AC00080           [207] jmp        4            ; to [212]
5B5F  5D450000           [208] getglobal  21  1        ; gRegion
5B63  6445C20A           [209] self       21  21  265  ; 1224466847
5B67  62850001           [210] call       21  2   2  
fail op	8
5B6B  48050003           [211] setupval   21  6      
5B6F  5D050300           [212] getglobal  21  12       ; 1074689893
5B73  93050001           [213] getupval   22  2      
5B77  62850001           [214] call       21  2   2  
5B7B  58050000           [215] test       21      0    ; to [217] if true
5B7F  1AC00080           [216] jmp        4            ; to [221]
5B83  5D450000           [217] getglobal  21  1        ; gRegion
5B87  6485C10A           [218] self       21  21  262  ; 925677844
5B8B  62850001           [219] call       21  2   2  
fail op	8
5B8F  48050001           [220] setupval   21  2      
5B93  53058002           [221] getupval   21  5      
5B97  62458000           [222] call       21  1   1  
5B9B  53050009           [223] getupval   21  18     
5B9F  62458000           [224] call       21  1   1  
5BA3  53058009           [225] getupval   21  19     
5BA7  62458000           [226] call       21  1   1  
5BAB  5D450A00           [227] getglobal  21  41       ; 1668611480
5BAF  93050000           [228] getupval   22  0      
5BB3  8D05050B           [229] sub        22  22  20 
5BB7  D9450500           [230] loadk      23  21       ; 0
5BBB  1306000A           [231] getupval   24  20     
5BBF  62850002           [232] call       21  4   2  
fail op	8
5BC3  48050000           [233] setupval   21  0      
5BC7  5D050300           [234] getglobal  21  12       ; 1074689893
5BCB  93058006           [235] getupval   22  13     
5BCF  62850001           [236] call       21  2   2  
5BD3  58050000           [237] test       21      0    ; to [239] if true
5BD7  1A802780           [238] jmp        159          ; to [398]
5BDB  5305800A           [239] getupval   21  21     
5BDF  4305850A           [240] add        21  21  20 
fail op	8
5BE3  4805800A           [241] setupval   21  21     
5BE7  5D850A00           [242] getglobal  21  42       ; Lotus_Game
5BEB  4EC5CA0A           [243] gettable   21  21  299  ; "MT_EXCAVATE"
fail op	35
5BEF  23408509           [244] close      0  
5BF3  1A000280           [245] jmp        9            ; to [255]
5BF7  53058005           [246] getupval   21  11     
5BFB  6405CB0A           [247] self       21  21  300  ; -317790213
5BFF  D305000B           [248] getupval   23  22     
5C03  19460500           [249] loadk      24  21       ; 0
5C07  62850002           [250] call       21  4   2  
5C0B  9305800A           [251] getupval   22  21     
5C0F  C405850A           [252] mul        23  21  20 
5C13  83C5050B           [253] add        22  22  23 
fail op	8
5C17  8805800A           [254] setupval   22  21     
5C1B  9305800A           [255] getupval   22  21     
fail op	21
5C1F  15808596           [256] concat     0   301 22 
5C23  1A400080           [257] jmp        2            ; to [260]
5C27  99850B00           [258] loadk      22  46       ; 0
fail op	8
5C2B  8805800B           [259] setupval   22  23     
5C2F  9305800A           [260] getupval   22  21     
5C33  D305000C           [261] getupval   23  24     
fail op	21
5C37  1580850B           [262] concat     0   23  22 
5C3B  1A402B80           [263] jmp        174          ; to [438]
5C3F  8B050000           [264] newtable   22  0   0    ; array=0, hash=0
5C43  C605800B           [265] loadnil    23  23     
5C47  1D860200           [266] getglobal  24  10       ; 1672515847
5C4B  52060006           [267] move       25  12     
5C4F  22060101           [268] call       24  2   4  
5C53  1A800880           [269] jmp        35           ; to [305]
5C57  64C74B0E           [270] self       29  28  303  ; 1916070914
5C5B  62870001           [271] call       29  2   2  
5C5F  8A07800E           [272] len        30  29     
5C63  D9870B00           [273] loadk      31  46       ; 0
5C67  19080C00           [274] loadk      32  48       ; 0
5C6B  90870280           [275] forprep    30  11       ; to [287]
5C6F  8E48880E           [276] gettable   34  29  33 
5C73  D308800C           [277] getupval   35  25     
5C77  12090011           [278] move       36  34     
5C7B  E2880001           [279] call       35  2   2  
5C7F  D8480000           [280] test       35      1    ; to [282] if false
5C83  1A000180           [281] jmp        5            ; to [287]
5C87  DDC80600           [282] getglobal  35  27       ; table
5C8B  CE48CC11           [283] gettable   35  35  305  ; -843973282
5C8F  1209800E           [284] move       36  29     
5C93  52098010           [285] move       37  33     
5C97  E2488001           [286] call       35  3   1  
5C9B  94C7FC7F           [287] forloop    30  -12      ; to [276] if loop
5C9F  CA08800E           [288] len        35  29     
5CA3  0A09000B           [289] len        36  22     
fail op	21
5CA7  15C00812           [290] concat     0   36  35 
5CAB  1A000380           [291] jmp        13           ; to [305]
5CAF  CA08800E           [292] len        35  29     
5CB3  1309800B           [293] getupval   36  23     
fail op	33
5CB7  21C00812           [294] tforloop   0       35   ; to [296] if exit
5CBB  1A000280           [295] jmp        9            ; to [305]
5CBF  9205800E           [296] move       22  29     
5CC3  E488470E           [297] self       35  28  286  ; 1839670529
5CC7  E2880001           [298] call       35  2   2  
5CCB  1D490800           [299] getglobal  36  33       ; 572299008
5CCF  59490500           [300] loadk      37  21       ; 0
5CD3  99890C00           [301] loadk      38  50       ; 0
5CD7  D9490500           [302] loadk      39  21       ; 0
5CDB  22890002           [303] call       36  4   2  
5CDF  C3058911           [304] add        23  35  36 
5CE3  16860000           [305] tforloop   24      2    ; to [307] if exit
5CE7  1A80F67F           [306] jmp        -37          ; to [270]
5CEB  DD080300           [307] getglobal  35  12       ; 1074689893
5CEF  1209800B           [308] move       36  23     
5CF3  E2880001           [309] call       35  2   2  
5CF7  D8080000           [310] test       35      0    ; to [312] if true
5CFB  1A800080           [311] jmp        3            ; to [315]
5CFF  D308000D           [312] getupval   35  26     
5D03  E2888000           [313] call       35  1   2  
5D07  92058011           [314] move       22  35     
5D0B  CA08000B           [315] len        35  22     
5D0F  1309800B           [316] getupval   36  23     
fail op	33
5D13  21C00812           [317] tforloop   0       35   ; to [319] if exit
5D17  1A801080           [318] jmp        67           ; to [386]
5D1B  DD080300           [319] getglobal  35  12       ; 1074689893
5D1F  1209800B           [320] move       36  23     
5D23  E2880001           [321] call       35  2   2  
5D27  D8080000           [322] test       35      0    ; to [324] if true
5D2B  1A400F80           [323] jmp        62           ; to [386]
5D2F  CA08000B           [324] len        35  22     
5D33  DC88CC11           [325] div        35  35  306  ; 0
5D37  1DC90C00           [326] getglobal  36  51       ; 2144646525
5D3B  59890B00           [327] loadk      37  46       ; 0
5D3F  9D090D00           [328] getglobal  38  52       ; math
5D43  8E494D13           [329] gettable   38  38  309  ; -1124579617
5D47  D2098011           [330] move       39  35     
5D4B  A2090001           [331] call       38  2   0  
5D4F  22890000           [332] call       36  0   2  
5D53  0E09090B           [333] gettable   36  22  36 
5D57  5DC90C00           [334] getglobal  37  51       ; 2144646525
5D5B  9D090D00           [335] getglobal  38  52       ; math
5D5F  8E894D13           [336] gettable   38  38  310  ; -150971781
5D63  C389CB11           [337] add        39  35  302  ; 0
5D67  A2890001           [338] call       38  2   2  
5D6B  CA09000B           [339] len        39  22     
5D6F  62898001           [340] call       37  3   2  
5D73  4E49090B           [341] gettable   37  22  37 
5D77  9DC90D00           [342] getglobal  38  55       ; -523730508
5D7B  E4894712           [343] self       39  36  286  ; 1839670529
5D7F  E2890001           [344] call       39  2   2  
5D83  248AC712           [345] self       40  37  286  ; 1839670529
5D87  228A0001           [346] call       40  2   2  
5D8B  590A0E00           [347] loadk      41  56       ; 0
5D8F  A2890002           [348] call       38  4   2  
5D93  D309800D           [349] getupval   39  27     
5D97  E449CE13           [350] self       39  39  313  ; -682771662
5D9B  520A0013           [351] move       41  38     
5D9F  994A0B00           [352] loadk      42  45       ; 0
5DA3  E2890002           [353] call       39  4   2  
5DA7  D8490000           [354] test       39      1    ; to [356] if false
5DAB  1A800080           [355] jmp        3            ; to [359]
5DAF  248A4712           [356] self       40  36  286  ; 1839670529
5DB3  228A0001           [357] call       40  2   2  
5DB7  92090014           [358] move       38  40     
5DBB  1D4A0800           [359] getglobal  40  33       ; 572299008
5DBF  594A0500           [360] loadk      41  21       ; 0
5DC3  998A0E00           [361] loadk      42  58       ; 0
5DC7  D94A0500           [362] loadk      43  21       ; 0
5DCB  228A0002           [363] call       40  4   2  
5DCF  5D4A0000           [364] getglobal  41  1        ; gRegion
5DD3  64CACE14           [365] self       41  41  315  ; 187283819
5DD7  D20A0013           [366] move       43  38     
5DDB  1D4B0800           [367] getglobal  44  33       ; 572299008
5DDF  594B0500           [368] loadk      45  21       ; 0
5DE3  998B0E00           [369] loadk      46  58       ; 0
5DE7  D94B0500           [370] loadk      47  21       ; 0
5DEB  228B0002           [371] call       44  4   2  
5DEF  030B0B13           [372] add        44  38  44 
5DF3  460B0017           [373] loadnil    45  46     
5DF7  D20B0014           [374] move       47  40     
5DFB  170C8000           [375] loadbool   48  1   0    ; true
5DFF  628A0004           [376] call       41  8   2  
5E03  580A0000           [377] test       41      0    ; to [379] if true
5E07  1A400180           [378] jmp        6            ; to [385]
5E0B  5D4A0800           [379] getglobal  41  33       ; 572299008
5E0F  994A0500           [380] loadk      42  21       ; 0
5E13  D98A0B00           [381] loadk      43  46       ; 0
5E17  194B0500           [382] loadk      44  21       ; 0
5E1B  628A0002           [383] call       41  4   2  
5E1F  0D4A0A14           [384] sub        40  40  41 
5E23  C3050A13           [385] add        23  38  40 
5E27  5D0A0300           [386] getglobal  41  12       ; 1074689893
5E2B  920A800B           [387] move       42  23     
5E2F  628A0001           [388] call       41  2   2  
5E33  584A0000           [389] test       41      1    ; to [391] if false
5E37  1A800B80           [390] jmp        47           ; to [438]
5E3B  530A000E           [391] getupval   41  28     
5E3F  624A8000           [392] call       41  1   1  
5E43  530A800E           [393] getupval   41  29     
5E47  920A000B           [394] move       42  22     
5E4B  D20A800B           [395] move       43  23     
5E4F  624A8001           [396] call       41  3   1  
5E53  1AC00980           [397] jmp        40           ; to [438]
5E57  530A000F           [398] getupval   41  30     
5E5B  9D0A0A00           [399] getglobal  42  40       ; 1289681407
5E5F  A28A8000           [400] call       42  1   2  
5E63  438A8A14           [401] add        41  41  42 
fail op	8
5E67  480A000F           [402] setupval   41  30     
5E6B  530A000F           [403] getupval   41  30     
5E6F  930A800F           [404] getupval   42  31     
fail op	21
5E73  15400A15           [405] concat     0   42  41 
5E77  1A800780           [406] jmp        31           ; to [438]
5E7B  530A8006           [407] getupval   41  13     
5E7F  640ACF14           [408] self       41  41  316  ; -725453761
5E83  624A0001           [409] call       41  2   1  
5E87  5D4A0000           [410] getglobal  41  1        ; gRegion
5E8B  644AC714           [411] self       41  41  285  ; -1110225722
5E8F  D30A0010           [412] getupval   43  32     
5E93  130B8006           [413] getupval   44  13     
5E97  248B4716           [414] self       44  44  286  ; 1839670529
5E9B  228B0001           [415] call       44  2   2  
5E9F  5DCB0700           [416] getglobal  45  31       ; ZERO_ROTATION
5EA3  624A8002           [417] call       41  5   1  
5EA7  530A8006           [418] getupval   41  13     
5EAB  644ACF14           [419] self       41  41  317  ; 630793108
5EAF  D30A8010           [420] getupval   43  33     
5EB3  170B0000           [421] loadbool   44  0   0    ; false
5EB7  624A0002           [422] call       41  4   1  
5EBB  5D0A0300           [423] getglobal  41  12       ; 1074689893
5EBF  930A0011           [424] getupval   42  34     
5EC3  628A0001           [425] call       41  2   2  
5EC7  584A0000           [426] test       41      1    ; to [428] if false
5ECB  1A800080           [427] jmp        3            ; to [431]
5ECF  530A0011           [428] getupval   41  34     
5ED3  640ACF14           [429] self       41  41  316  ; -725453761
5ED7  624A0001           [430] call       41  2   1  
5EDB  530A800A           [431] getupval   41  21     
fail op	21
5EDF  15408A96           [432] concat     0   301 41 
5EE3  1A400080           [433] jmp        2            ; to [436]
5EE7  530A8011           [434] getupval   41  35     
fail op	8
5EEB  480A800B           [435] setupval   41  23     
5EEF  594A0500           [436] loadk      41  21       ; 0
fail op	8
5EF3  480A800A           [437] setupval   41  21     
5EF7  530A0012           [438] getupval   41  36     
5EFB  4A0A8014           [439] len        41  41     
5EFF  998A0B00           [440] loadk      42  46       ; 0
5F03  D90A0C00           [441] loadk      43  48       ; 0
5F07  50CA0A80           [442] forprep    41  44       ; to [487]
5F0B  530B0012           [443] getupval   45  36     
5F0F  4E0B8B16           [444] gettable   45  45  44 
5F13  4E8BCF16           [445] gettable   45  45  318  ; "Player"
5F17  930B0012           [446] getupval   46  36     
5F1B  8E0B0B17           [447] gettable   46  46  44 
5F1F  8ECB4F17           [448] gettable   46  46  319  ; "Slot"
5F23  DD0B0300           [449] getglobal  47  12       ; 1074689893
5F27  120C8016           [450] move       48  45     
5F2B  E28B0001           [451] call       47  2   2  
5F2F  D84B0000           [452] test       47      1    ; to [454] if false
5F33  1A000880           [453] jmp        33           ; to [487]
5F37  DD0B1000           [454] getglobal  47  64       ; -332969190
5F3B  248CC416           [455] self       48  45  274  ; 340404473
5F3F  228C0001           [456] call       48  2   2  
5F43  5D4C1000           [457] getglobal  49  65       ; -1615931716
5F47  920C0017           [458] move       50  46     
5F4B  628C0001           [459] call       49  2   2  
5F4F  024C0C18           [460] concat     48  48  49 
5F53  E28B0001           [461] call       47  2   2  
5F57  130C8005           [462] getupval   48  11     
5F5B  248C5018           [463] self       48  48  322  ; -414383436
5F5F  920C8017           [464] move       50  47     
5F63  228C8001           [465] call       48  3   2  
5F67  180C0000           [466] test       48      0    ; to [468] if true
5F6B  1A800480           [467] jmp        19           ; to [487]
5F6F  130C8005           [468] getupval   48  11     
5F73  24CC5018           [469] self       48  48  323  ; 1157879449
5F77  920C8017           [470] move       50  47     
5F7B  228C8001           [471] call       48  3   2  
fail op	33
5F7F  21404518           [472] tforloop   0       277  ; to [474] if exit
5F83  1A000380           [473] jmp        13           ; to [487]
5F87  130C8012           [474] getupval   48  37     
5F8B  520C8016           [475] move       49  45     
5F8F  920C0017           [476] move       50  46     
5F93  224C8001           [477] call       48  3   1  
5F97  130C8005           [478] getupval   48  11     
5F9B  240C5118           [479] self       48  48  324  ; 237539347
5F9F  920C8017           [480] move       50  47     
5FA3  224C8001           [481] call       48  3   1  
5FA7  1DCC0600           [482] getglobal  48  27       ; table
5FAB  0E4C4C18           [483] gettable   48  48  305  ; -843973282
5FAF  530C0012           [484] getupval   49  36     
5FB3  920C0016           [485] move       50  44     
5FB7  224C8001           [486] call       48  3   1  
5FBB  548AF47F           [487] forloop    41  -45      ; to [443] if loop
5FBF  1D0C0500           [488] getglobal  48  20       ; 538022378
5FC3  594C0500           [489] loadk      49  21       ; 0
5FC7  224C0001           [490] call       48  2   1  
5FCB  1A40B77F           [491] jmp        -290         ; to [202]
5FCF  1E008000           [492] return     0   1      
                         * constants:
5FD3  45                 sizek (69)
5FD4  04                 const type 4
5FD5  10                 string size (16)
5FD6  7365616C65724472+  "sealerDr"
5FDE  6F705461626C6500   "opTable\0"
                         const [0]: "sealerDropTable"
5FE6  04                 const type 4
5FE7  08                 string size (8)
5FE8  67526567696F6E00   "gRegion\0"
                         const [1]: "gRegion"
5FF0  01                 const type 3
5FF1  73758D6B           const [2]: (1804432755)
5FF5  04                 const type 4
5FF6  11                 string size (17)
5FF7  4F6E506C61796572+  "OnPlayer"
5FFF  734368616E676564+  "sChanged"
6007  00                 "\0"
                         const [3]: "OnPlayersChanged"
6008  04                 const type 4
6009  03                 string size (3)
600A  5F5400             "_T\0"
                         const [4]: "_T"
600D  04                 const type 4
600E  10                 string size (16)
600F  506C61795069636B+  "PlayPick"
6017  75705472616E7300   "upTrans\0"
                         const [5]: "PlayPickupTrans"
601F  01                 const type 3
6020  14B92C37           const [6]: (925677844)
6024  01                 const type 3
6025  58F559A5           const [7]: (-1520831144)
6029  04                 const type 4
602A  10                 string size (16)
602B  6750726F6D6F7465+  "gPromote"
6033  64546F486F737400   "dToHost\0"
                         const [8]: "gPromotedToHost"
603B  01                 const type 3
603C  9FE1FB48           const [9]: (1224466847)
6040  01                 const type 3
6041  0791B063           const [10]: (1672515847)
6045  01                 const type 3
6046  0567E793           const [11]: (-1813551355)
604A  01                 const type 3
604B  65770E40           const [12]: (1074689893)
604F  01                 const type 3
6050  025A115A           const [13]: (1511086594)
6054  01                 const type 3
6055  1FD0B58D           const [14]: (-1917464545)
6059  01                 const type 3
605A  D070056B           const [15]: (1795518672)
605E  04                 const type 4
605F  07                 string size (7)
6060  456E67696E6500     "Engine\0"
                         const [16]: "Engine"
6067  04                 const type 4
6068  08                 string size (8)
6069  494E56414C494400   "INVALID\0"
                         const [17]: "INVALID"
6071  01                 const type 3
6072  F9284A14           const [18]: (340404473)
6076  00                 const type 0
                         const [19]: nil
6077  01                 const type 3
6078  EA911120           const [20]: (538022378)
607C  03                 const type 3
607D  00000000           const [21]: (0)
6081  04                 const type 4
6082  11                 string size (17)
6083  4D697373696F6E49+  "MissionI"
608B  6E69745265616479+  "nitReady"
6093  00                 "\0"
                         const [22]: "MissionInitReady"
6094  04                 const type 4
6095  0B                 string size (11)
6096  6747616D6552756C+  "gGameRul"
609E  657300             "es\0"
                         const [23]: "gGameRules"
60A1  01                 const type 3
60A2  009A1309           const [24]: (152279552)
60A6  01                 const type 3
60A7  29D4002C           const [25]: (738251817)
60AB  04                 const type 4
60AC  2D                 string size (45)
60AD  2F4C6F7475732F54+  "/Lotus/T"
60B5  797065732F47616D+  "ypes/Gam"
60BD  652F576179706F69+  "e/Waypoi"
60C5  6E74732F566F6964+  "nts/Void"
60CD  5465617257617970+  "TearWayp"
60D5  6F696E7400         "oint\0"
                         const [26]: "/Lotus/Types/Game/Waypoints/VoidTearWaypoint"
60DA  04                 const type 4
60DB  06                 string size (6)
60DC  7461626C6500       "table\0"
                         const [27]: "table"
60E2  01                 const type 3
60E3  9D0C45E6           const [28]: (-431682403)
60E7  01                 const type 3
60E8  C64CD3BD           const [29]: (-1110225722)
60EC  01                 const type 3
60ED  0125A76D           const [30]: (1839670529)
60F1  04                 const type 4
60F2  0E                 string size (14)
60F3  5A45524F5F524F54+  "ZERO_ROT"
60FB  4154494F4E00       "ATION\0"
                         const [31]: "ZERO_ROTATION"
6101  01                 const type 3
6102  36725DBF           const [32]: (-1084394954)
6106  01                 const type 3
6107  00971C22           const [33]: (572299008)
610B  04                 const type 4
610C  08                 string size (8)
610D  464C545F4D415800   "FLT_MAX\0"
                         const [34]: "FLT_MAX"
6115  03                 const type 3
6116  0000A040           const [35]: (0)
611A  01                 const type 3
611B  4ECAAEA8           const [36]: (-1464939954)
611F  04                 const type 4
6120  0E                 string size (14)
6121  436F727275707450+  "CorruptP"
6129  6C6179657200       "layer\0"
                         const [37]: "CorruptPlayer"
612F  01                 const type 3
6130  497363B8           const [38]: (-1201441975)
6134  04                 const type 4
6135  0C                 string size (12)
6136  6D697373696F6E54+  "missionT"
613E  79706500           "ype\0"
                         const [39]: "missionType"
6142  01                 const type 3
6143  FFF9DE4C           const [40]: (1289681407)
6147  01                 const type 3
6148  98FD7463           const [41]: (1668611480)
614C  04                 const type 4
614D  0B                 string size (11)
614E  4C6F7475735F4761+  "Lotus_Ga"
6156  6D6500             "me\0"
                         const [42]: "Lotus_Game"
6159  04                 const type 4
615A  0C                 string size (12)
615B  4D545F4558434156+  "MT_EXCAV"
6163  41544500           "ATE\0"
                         const [43]: "MT_EXCAVATE"
6167  01                 const type 3
6168  FBE70EED           const [44]: (-317790213)
616C  03                 const type 3
616D  0000A041           const [45]: (0)
6171  03                 const type 3
6172  0000803F           const [46]: (0)
6176  01                 const type 3
6177  02EC3472           const [47]: (1916070914)
617B  03                 const type 3
617C  000080BF           const [48]: (0)
6180  01                 const type 3
6181  5EFDB1CD           const [49]: (-843973282)
6185  03                 const type 3
6186  00000040           const [50]: (0)
618A  01                 const type 3
618B  7DB5D47F           const [51]: (2144646525)
618F  04                 const type 4
6190  05                 string size (5)
6191  6D61746800         "math\0"
                         const [52]: "math"
6196  01                 const type 3
6197  DF46F8BC           const [53]: (-1124579617)
619B  01                 const type 3
619C  7B5A00F7           const [54]: (-150971781)
61A0  01                 const type 3
61A1  B481C8E0           const [55]: (-523730508)
61A5  03                 const type 3
61A6  0000003F           const [56]: (0)
61AA  01                 const type 3
61AB  32BB4DD7           const [57]: (-682771662)
61AF  03                 const type 3
61B0  00004040           const [58]: (0)
61B4  01                 const type 3
61B5  6BB9290B           const [59]: (187283819)
61B9  01                 const type 3
61BA  3F74C2D4           const [60]: (-725453761)
61BE  01                 const type 3
61BF  94239925           const [61]: (630793108)
61C3  04                 const type 4
61C4  07                 string size (7)
61C5  506C6179657200     "Player\0"
                         const [62]: "Player"
61CC  04                 const type 4
61CD  05                 string size (5)
61CE  536C6F7400         "Slot\0"
                         const [63]: "Slot"
61D3  01                 const type 3
61D4  1A4B27EC           const [64]: (-332969190)
61D8  01                 const type 3
61D9  BCD6AE9F           const [65]: (-1615931716)
61DD  01                 const type 3
61DE  B4024DE7           const [66]: (-414383436)
61E2  01                 const type 3
61E3  99D60345           const [67]: (1157879449)
61E7  01                 const type 3
61E8  1390280E           const [68]: (237539347)
                         * functions:
61EC  02                 sizep (2)
                         
61ED                     ** function [0] definition (level 3)
                         ** start of function **
61ED  00                 string size (0)
                         source name: (none)
61EF  06                 line defined (854)
61F0  DA                 last line defined (858)
61F1  06                 nups (2)
61F2  02                 numparams (0)
61F3  00                 is_vararg (0)
61F4  00                 maxstacksize (3)
                         * code:
61F6  08                 sizecode (8)
61F7  13000000           [1] getupval   0   0      
fail op	33
61FB  21004000           [2] tforloop   0       256  ; to [4] if exit
61FF  1AC00080           [3] jmp        4            ; to [8]
6203  1D400000           [4] getglobal  0   1        ; gGameRules
6207  24804000           [5] self       0   0   258  ; -1464939954
620B  93008000           [6] getupval   2   1      
620F  22408001           [7] call       0   3   1  
6213  1E008000           [8] return     0   1      
                         * constants:
6217  03                 sizek (3)
6218  03                 const type 3
6219  00000000           const [0]: (0)
621D  04                 const type 4
621E  0B                 string size (11)
621F  6747616D6552756C+  "gGameRul"
6227  657300             "es\0"
                         const [1]: "gGameRules"
622A  01                 const type 3
622B  4ECAAEA8           const [2]: (-1464939954)
                         * functions:
622F  00                 sizep (0)
                         * lines:
6230  08                 sizelineinfo (8)
                         [pc] (line)
6231  57                 [1] (87)
6232  03                 [2] (87)
6233  00                 [3] (87)
6234  00                 [4] (88)
6235  57                 [5] (88)
6236  03                 [6] (88)
6237  00                 [7] (88)
6238  00                 [8] (90)
                         * locals:
6251  00                 sizelocvars (0)
                         * upvalues:
6252  00                 sizeupvalues (0)
                         ** end of function **

                         
6253                     ** function [1] definition (level 3)
                         ** start of function **
6253  00                 string size (0)
                         source name: (none)
6255  07                 line defined (920)
6256  9A                 last line defined (922)
6257  07                 nups (1)
6258  01                 numparams (1)
6259  01                 is_vararg (0)
625A  00                 maxstacksize (3)
                         * code:
625C  04                 sizecode (4)
625D  53000000           [1] getupval   1   0      
6261  92000000           [2] move       2   0      
6265  62400001           [3] call       1   2   1  
6269  1E008000           [4] return     0   1      
                         * constants:
626D  00                 sizek (0)
                         * functions:
626E  00                 sizep (0)
                         * lines:
626F  04                 sizelineinfo (4)
                         [pc] (line)
6270  99                 [1] (-103)
6271  03                 [2] (-103)
6272  00                 [3] (-103)
6273  00                 [4] (-102)
                         * locals:
6280  00                 sizelocvars (0)
                         * upvalues:
6281  00                 sizeupvalues (0)
                         ** end of function **

                         * lines:
6283  03                 sizelineinfo (492)
                         [pc] (line)
6284  53                 [001] (83)
6285  03                 [002] (83)
6286  00                 [003] (84)
6287  00                 [004] (84)
6288  53                 [005] (84)
6289  03                 [006] (84)
628A  00                 [007] (86)
628B  00                 [008] (90)
628C  54                 [009] (90)
628D  03                 [010] (90)
628E  00                 [011] (90)
628F  00                 [012] (92)
6290  54                 [013] (92)
6291  03                 [014] (92)
6292  00                 [015] (92)
6293  00                 [016] (94)
6294  54                 [017] (94)
6295  03                 [018] (95)
6296  00                 [019] (95)
6297  00                 [020] (97)
6298  54                 [021] (97)
6299  03                 [022] (97)
629A  00                 [023] (97)
629B  00                 [024] (97)
629C  56                 [025] (98)
629D  03                 [026] (98)
629E  00                 [027] (98)
629F  00                 [028] (99)
62A0  5A                 [029] (99)
62A1  03                 [030] (102)
62A2  00                 [031] (102)
62A3  00                 [032] (102)
62A4  5A                 [033] (102)
62A5  03                 [034] (103)
62A6  00                 [035] (103)
62A7  00                 [036] (103)
62A8  5A                 [037] (103)
62A9  03                 [038] (104)
62AA  00                 [039] (104)
62AB  00                 [040] (105)
62AC  5A                 [041] (105)
62AD  03                 [042] (105)
62AE  00                 [043] (105)
62AF  00                 [044] (105)
62B0  5C                 [045] (105)
62B1  03                 [046] (105)
62B2  00                 [047] (105)
62B3  00                 [048] (105)
62B4  5C                 [049] (106)
62B5  03                 [050] (106)
62B6  00                 [051] (107)
62B7  00                 [052] (107)
62B8  5C                 [053] (109)
62B9  03                 [054] (109)
62BA  00                 [055] (109)
62BB  00                 [056] (109)
62BC  5C                 [057] (109)
62BD  03                 [058] (109)
62BE  00                 [059] (109)
62BF  00                 [060] (109)
62C0  5E                 [061] (109)
62C1  03                 [062] (109)
62C2  00                 [063] (109)
62C3  00                 [064] (109)
62C4  5E                 [065] (110)
62C5  03                 [066] (110)
62C6  00                 [067] (110)
62C7  00                 [068] (110)
62C8  5F                 [069] (111)
62C9  03                 [070] (111)
62CA  00                 [071] (111)
62CB  00                 [072] (111)
62CC  5F                 [073] (111)
62CD  03                 [074] (112)
62CE  00                 [075] (112)
62CF  00                 [076] (112)
62D0  61                 [077] (112)
62D1  03                 [078] (113)
62D2  00                 [079] (113)
62D3  00                 [080] (113)
62D4  61                 [081] (113)
62D5  03                 [082] (114)
62D6  00                 [083] (115)
62D7  00                 [084] (115)
62D8  61                 [085] (115)
62D9  03                 [086] (115)
62DA  00                 [087] (115)
62DB  00                 [088] (115)
62DC  61                 [089] (115)
62DD  03                 [090] (115)
62DE  00                 [091] (115)
62DF  00                 [092] (115)
62E0  61                 [093] (115)
62E1  03                 [094] (115)
62E2  00                 [095] (116)
62E3  00                 [096] (116)
62E4  62                 [097] (116)
62E5  03                 [098] (116)
62E6  00                 [099] (116)
62E7  00                 [100] (116)
62E8  62                 [101] (116)
62E9  03                 [102] (117)
62EA  00                 [103] (117)
62EB  00                 [104] (117)
62EC  62                 [105] (117)
62ED  03                 [106] (117)
62EE  00                 [107] (118)
62EF  00                 [108] (118)
62F0  63                 [109] (118)
62F1  03                 [110] (118)
62F2  00                 [111] (119)
62F3  00                 [112] (119)
62F4  63                 [113] (119)
62F5  03                 [114] (119)
62F6  00                 [115] (103)
62F7  00                 [116] (122)
62F8  66                 [117] (126)
62F9  03                 [118] (126)
62FA  00                 [119] (126)
62FB  00                 [120] (126)
62FC  66                 [121] (-126)
62FD  03                 [122] (-126)
62FE  00                 [123] (-126)
62FF  00                 [124] (-126)
6300  66                 [125] (-126)
6301  03                 [126] (-126)
6302  00                 [127] (-126)
6303  00                 [128] (-126)
6304  66                 [129] (-126)
6305  03                 [130] (-126)
6306  00                 [131] (-126)
6307  00                 [132] (-126)
6308  67                 [133] (-126)
6309  03                 [134] (-126)
630A  00                 [135] (-126)
630B  00                 [136] (-125)
630C  67                 [137] (-125)
630D  03                 [138] (-125)
630E  00                 [139] (-124)
630F  00                 [140] (-124)
6310  67                 [141] (-124)
6311  03                 [142] (-124)
6312  00                 [143] (-124)
6313  00                 [144] (-123)
6314  67                 [145] (-123)
6315  03                 [146] (-122)
6316  00                 [147] (-119)
6317  00                 [148] (-119)
6318  68                 [149] (-119)
6319  03                 [150] (-119)
631A  00                 [151] (-119)
631B  00                 [152] (-119)
631C  68                 [153] (-118)
631D  03                 [154] (-117)
631E  00                 [155] (-117)
631F  00                 [156] (-117)
6320  69                 [157] (-117)
6321  03                 [158] (-116)
6322  00                 [159] (-116)
6323  00                 [160] (-116)
6324  69                 [161] (-116)
6325  03                 [162] (-116)
6326  00                 [163] (-116)
6327  00                 [164] (-116)
6328  69                 [165] (-116)
6329  03                 [166] (-116)
632A  00                 [167] (-116)
632B  00                 [168] (-116)
632C  69                 [169] (-117)
632D  03                 [170] (-116)
632E  00                 [171] (-113)
632F  00                 [172] (-113)
6330  69                 [173] (-113)
6331  03                 [174] (-112)
6332  00                 [175] (-112)
6333  00                 [176] (-112)
6334  69                 [177] (-112)
6335  03                 [178] (-112)
6336  00                 [179] (-112)
6337  00                 [180] (-112)
6338  69                 [181] (-112)
6339  03                 [182] (-111)
633A  00                 [183] (-111)
633B  00                 [184] (-110)
633C  69                 [185] (-110)
633D  03                 [186] (-110)
633E  00                 [187] (-108)
633F  00                 [188] (-108)
6340  69                 [189] (-108)
6341  03                 [190] (-107)
6342  00                 [191] (-107)
6343  00                 [192] (-107)
6344  6A                 [193] (-107)
6345  03                 [194] (-104)
6346  00                 [195] (-102)
6347  00                 [196] (-102)
6348  6A                 [197] (-102)
6349  03                 [198] (-100)
634A  00                 [199] (-100)
634B  00                 [200] (-100)
634C  6B                 [201] (-99)
634D  03                 [202] (-96)
634E  00                 [203] (-96)
634F  00                 [204] (-94)
6350  6B                 [205] (-94)
6351  03                 [206] (-94)
6352  00                 [207] (-94)
6353  00                 [208] (-93)
6354  6D                 [209] (-93)
6355  03                 [210] (-93)
6356  00                 [211] (-93)
6357  00                 [212] (-90)
6358  6D                 [213] (-90)
6359  03                 [214] (-90)
635A  00                 [215] (-90)
635B  00                 [216] (-90)
635C  6D                 [217] (-89)
635D  03                 [218] (-89)
635E  00                 [219] (-89)
635F  00                 [220] (-89)
6360  6D                 [221] (-86)
6361  03                 [222] (-86)
6362  00                 [223] (-85)
6363  00                 [224] (-85)
6364  6D                 [225] (-84)
6365  03                 [226] (-84)
6366  00                 [227] (-83)
6367  00                 [228] (-83)
6368  6D                 [229] (-83)
6369  03                 [230] (-83)
636A  00                 [231] (-83)
636B  00                 [232] (-83)
636C  6D                 [233] (-83)
636D  03                 [234] (-81)
636E  00                 [235] (-81)
636F  00                 [236] (-81)
6370  6D                 [237] (-81)
6371  03                 [238] (-81)
6372  00                 [239] (-80)
6373  00                 [240] (-80)
6374  6D                 [241] (-80)
6375  03                 [242] (-78)
6376  00                 [243] (-78)
6377  00                 [244] (-78)
6378  6D                 [245] (-78)
6379  03                 [246] (-76)
637A  00                 [247] (-76)
637B  00                 [248] (-76)
637C  6D                 [249] (-76)
637D  03                 [250] (-76)
637E  00                 [251] (-75)
637F  00                 [252] (-75)
6380  6D                 [253] (-75)
6381  03                 [254] (-75)
6382  00                 [255] (-72)
6383  00                 [256] (-72)
6384  6E                 [257] (-72)
6385  03                 [258] (-70)
6386  00                 [259] (-70)
6387  00                 [260] (-67)
6388  6E                 [261] (-67)
6389  03                 [262] (-67)
638A  00                 [263] (-67)
638B  00                 [264] (-65)
638C  6E                 [265] (-64)
638D  03                 [266] (-63)
638E  00                 [267] (-63)
638F  00                 [268] (-63)
6390  6E                 [269] (-63)
6391  03                 [270] (-62)
6392  00                 [271] (-62)
6393  00                 [272] (-61)
6394  6F                 [273] (-61)
6395  03                 [274] (-61)
6396  00                 [275] (-61)
6397  00                 [276] (-60)
6398  6F                 [277] (-59)
6399  03                 [278] (-59)
639A  00                 [279] (-59)
639B  00                 [280] (-59)
639C  6F                 [281] (-59)
639D  03                 [282] (-58)
639E  00                 [283] (-58)
639F  00                 [284] (-58)
63A0  6F                 [285] (-58)
63A1  03                 [286] (-58)
63A2  00                 [287] (-61)
63A3  00                 [288] (-53)
63A4  6F                 [289] (-53)
63A5  03                 [290] (-53)
63A6  00                 [291] (-53)
63A7  00                 [292] (-53)
63A8  70                 [293] (-53)
63A9  03                 [294] (-53)
63AA  00                 [295] (-53)
63AB  00                 [296] (-52)
63AC  70                 [297] (-51)
63AD  03                 [298] (-51)
63AE  00                 [299] (-51)
63AF  00                 [300] (-51)
63B0  70                 [301] (-51)
63B1  03                 [302] (-51)
63B2  00                 [303] (-51)
63B3  00                 [304] (-51)
63B4  70                 [305] (-63)
63B5  03                 [306] (-50)
63B6  00                 [307] (-46)
63B7  00                 [308] (-46)
63B8  71                 [309] (-46)
63B9  03                 [310] (-46)
63BA  00                 [311] (-46)
63BB  00                 [312] (-45)
63BC  71                 [313] (-45)
63BD  03                 [314] (-45)
63BE  00                 [315] (-41)
63BF  00                 [316] (-41)
63C0  71                 [317] (-41)
63C1  03                 [318] (-41)
63C2  00                 [319] (-41)
63C3  00                 [320] (-41)
63C4  71                 [321] (-41)
63C5  03                 [322] (-41)
63C6  00                 [323] (-41)
63C7  00                 [324] (-40)
63C8  72                 [325] (-40)
63C9  03                 [326] (-39)
63CA  00                 [327] (-39)
63CB  00                 [328] (-39)
63CC  73                 [329] (-39)
63CD  03                 [330] (-39)
63CE  00                 [331] (-39)
63CF  00                 [332] (-39)
63D0  73                 [333] (-39)
63D1  03                 [334] (-38)
63D2  00                 [335] (-38)
63D3  00                 [336] (-38)
63D4  73                 [337] (-38)
63D5  03                 [338] (-38)
63D6  00                 [339] (-38)
63D7  00                 [340] (-38)
63D8  73                 [341] (-38)
63D9  03                 [342] (-37)
63DA  00                 [343] (-37)
63DB  00                 [344] (-37)
63DC  73                 [345] (-37)
63DD  03                 [346] (-37)
63DE  00                 [347] (-37)
63DF  00                 [348] (-37)
63E0  73                 [349] (-36)
63E1  03                 [350] (-36)
63E2  00                 [351] (-36)
63E3  00                 [352] (-36)
63E4  73                 [353] (-36)
63E5  03                 [354] (-35)
63E6  00                 [355] (-35)
63E7  00                 [356] (-34)
63E8  73                 [357] (-34)
63E9  03                 [358] (-34)
63EA  00                 [359] (-32)
63EB  00                 [360] (-32)
63EC  73                 [361] (-32)
63ED  03                 [362] (-32)
63EE  00                 [363] (-32)
63EF  00                 [364] (-31)
63F0  73                 [365] (-31)
63F1  03                 [366] (-31)
63F2  00                 [367] (-31)
63F3  00                 [368] (-31)
63F4  73                 [369] (-31)
63F5  03                 [370] (-31)
63F6  00                 [371] (-31)
63F7  00                 [372] (-31)
63F8  73                 [373] (-31)
63F9  03                 [374] (-31)
63FA  00                 [375] (-31)
63FB  00                 [376] (-31)
63FC  74                 [377] (-31)
63FD  03                 [378] (-31)
63FE  00                 [379] (-30)
63FF  00                 [380] (-30)
6400  74                 [381] (-30)
6401  03                 [382] (-30)
6402  00                 [383] (-30)
6403  00                 [384] (-30)
6404  74                 [385] (-28)
6405  03                 [386] (-25)
6406  00                 [387] (-25)
6407  00                 [388] (-25)
6408  74                 [389] (-25)
6409  03                 [390] (-25)
640A  00                 [391] (-24)
640B  00                 [392] (-24)
640C  74                 [393] (-23)
640D  03                 [394] (-23)
640E  00                 [395] (-23)
640F  00                 [396] (-23)
6410  74                 [397] (-21)
6411  03                 [398] (-19)
6412  00                 [399] (-19)
6413  00                 [400] (-19)
6414  74                 [401] (-19)
6415  03                 [402] (-19)
6416  00                 [403] (-18)
6417  00                 [404] (-18)
6418  75                 [405] (-18)
6419  03                 [406] (-18)
641A  00                 [407] (-17)
641B  00                 [408] (-17)
641C  75                 [409] (-17)
641D  03                 [410] (-16)
641E  00                 [411] (-16)
641F  00                 [412] (-16)
6420  75                 [413] (-16)
6421  03                 [414] (-16)
6422  00                 [415] (-16)
6423  00                 [416] (-16)
6424  75                 [417] (-16)
6425  03                 [418] (-15)
6426  00                 [419] (-15)
6427  00                 [420] (-15)
6428  75                 [421] (-15)
6429  03                 [422] (-15)
642A  00                 [423] (-14)
642B  00                 [424] (-14)
642C  76                 [425] (-14)
642D  03                 [426] (-14)
642E  00                 [427] (-14)
642F  00                 [428] (-13)
6430  76                 [429] (-13)
6431  03                 [430] (-13)
6432  00                 [431] (-11)
6433  00                 [432] (-11)
6434  76                 [433] (-11)
6435  03                 [434] (-10)
6436  00                 [435] (-10)
6437  00                 [436] (-8)
6438  76                 [437] (-8)
6439  03                 [438] (-4)
643A  00                 [439] (-4)
643B  00                 [440] (-4)
643C  77                 [441] (-4)
643D  03                 [442] (-4)
643E  00                 [443] (-3)
643F  00                 [444] (-3)
6440  77                 [445] (-3)
6441  03                 [446] (-2)
6442  00                 [447] (-2)
6443  00                 [448] (-2)
6444  77                 [449] (0)
6445  03                 [450] (0)
6446  00                 [451] (0)
6447  00                 [452] (0)
6448  77                 [453] (0)
6449  03                 [454] (1)
644A  00                 [455] (1)
644B  00                 [456] (1)
644C  67                 [457] (1)
644D  03                 [458] (1)
644E  00                 [459] (1)
644F  00                 [460] (1)
6450  7A                 [461] (1)
6451  03                 [462] (2)
6452  00                 [463] (2)
6453  00                 [464] (2)
6454  7E                 [465] (2)
6455  03                 [466] (2)
6456  00                 [467] (2)
6457  00                 [468] (2)
6458  7E                 [469] (2)
6459  03                 [470] (2)
645A  00                 [471] (2)
645B  00                 [472] (2)
645C  7E                 [473] (2)
645D  03                 [474] (3)
645E  00                 [475] (3)
645F  00                 [476] (3)
6460  7E                 [477] (3)
6461  03                 [478] (4)
6462  00                 [479] (4)
6463  00                 [480] (4)
6464  82                 [481] (4)
6465  03                 [482] (5)
6466  00                 [483] (5)
6467  00                 [484] (5)
6468  82                 [485] (5)
6469  03                 [486] (5)
646A  00                 [487] (-4)
646B  00                 [488] (10)
646C  82                 [489] (10)
646D  03                 [490] (10)
646E  00                 [491] (10)
646F  00                 [492] (12)
                         * locals:
6A34  00                 sizelocvars (0)
                         * upvalues:
6A35  00                 sizeupvalues (0)
                         ** end of function **

                         
6A36                     ** function [25] definition (level 2)
                         ** start of function **
6A36  00                 string size (0)
                         source name: (none)
6A38  08                 line defined (1038)
6A39  96                 last line defined (1046)
6A3A  08                 nups (2)
6A3B  02                 numparams (2)
6A3C  02                 is_vararg (0)
6A3D  00                 maxstacksize (5)
                         * code:
6A3F  13                 sizecode (19)
6A40  A400C000           [01] self       2   1   256  ; -1764426596
6A44  A2800001           [02] call       2   2   2  
6A48  DD400000           [03] getglobal  3   1        ; 1074689893
6A4C  12010001           [04] move       4   2      
6A50  E2800001           [05] call       3   2   2  
6A54  D8000000           [06] test       3       0    ; to [8] if true
6A58  1A400080           [07] jmp        2            ; to [10]
6A5C  D7000000           [08] loadbool   3   0   0    ; false
6A60  DE000001           [09] return     3   2      
6A64  D3000000           [10] getupval   3   0      
6A68  12010001           [11] move       4   2      
6A6C  E2800001           [12] call       3   2   2  
6A70  13018000           [13] getupval   4   1      
fail op	21
6A74  55008101           [14] concat     1   3   4  
6A78  1A000080           [15] jmp        1            ; to [17]
6A7C  17410000           [16] loadbool   4   0   1    ; false, to [18]
6A80  17018000           [17] loadbool   4   1   0    ; true
6A84  1E010001           [18] return     4   2      
6A88  1E008000           [19] return     0   1      
                         * constants:
6A8C  02                 sizek (2)
6A8D  01                 const type 3
6A8E  9CFCD496           const [0]: (-1764426596)
6A92  01                 const type 3
6A93  65770E40           const [1]: (1074689893)
                         * functions:
6A97  00                 sizep (0)
                         * lines:
6A98  13                 sizelineinfo (19)
                         [pc] (line)
6A99  0F                 [01] (15)
6A9A  04                 [02] (15)
6A9B  00                 [03] (16)
6A9C  00                 [04] (16)
6A9D  0F                 [05] (16)
6A9E  04                 [06] (16)
6A9F  00                 [07] (16)
6AA0  00                 [08] (17)
6AA1  10                 [09] (17)
6AA2  04                 [10] (20)
6AA3  00                 [11] (20)
6AA4  00                 [12] (20)
6AA5  10                 [13] (21)
6AA6  04                 [14] (21)
6AA7  00                 [15] (21)
6AA8  00                 [16] (21)
6AA9  10                 [17] (21)
6AAA  04                 [18] (21)
6AAB  00                 [19] (22)
                         * locals:
6AE5  00                 sizelocvars (0)
                         * upvalues:
6AE6  00                 sizeupvalues (0)
                         ** end of function **

                         
6AE7                     ** function [26] definition (level 2)
                         ** start of function **
6AE7  00                 string size (0)
                         source name: (none)
6AE9  08                 line defined (1048)
6AEA  CD                 last line defined (1101)
6AEB  08                 nups (7)
6AEC  07                 numparams (4)
6AED  04                 is_vararg (0)
6AEE  00                 maxstacksize (24)
                         * code:
6AF1  01                 sizecode (135)
6AF2  1D010000           [001] getglobal  4   0        ; gRegion
6AF6  24414002           [002] self       4   4   257  ; -1520831144
6AFA  22810001           [003] call       4   2   2  
6AFE  18410000           [004] test       4       1    ; to [6] if false
6B02  1A000080           [005] jmp        1            ; to [7]
6B06  1E008000           [006] return     0   1      
6B0A  24814000           [007] self       4   0   258  ; -1813551355
6B0E  22810001           [008] call       4   2   2  
6B12  5DC10000           [009] getglobal  5   3        ; 1074689893
6B16  92010002           [010] move       6   4      
6B1A  62810001           [011] call       5   2   2  
6B1E  58010000           [012] test       5       0    ; to [14] if true
6B22  1AC00280           [013] jmp        12           ; to [26]
6B26  5DC10000           [014] getglobal  5   3        ; 1074689893
6B2A  92010000           [015] move       6   0      
6B2E  62810001           [016] call       5   2   2  
6B32  58410000           [017] test       5       1    ; to [19] if false
6B36  1A800180           [018] jmp        7            ; to [26]
6B3A  5D010100           [019] getglobal  5   4        ; 538022378
6B3E  99410100           [020] loadk      6   5        ; 0
6B42  62410001           [021] call       5   2   1  
6B46  64814000           [022] self       5   0   258  ; -1813551355
6B4A  62810001           [023] call       5   2   2  
6B4E  12018002           [024] move       4   5      
6B52  1A80FB7F           [025] jmp        -17          ; to [9]
6B56  5DC10000           [026] getglobal  5   3        ; 1074689893
6B5A  92010002           [027] move       6   4      
6B5E  62810001           [028] call       5   2   2  
6B62  58010000           [029] test       5       0    ; to [31] if true
6B66  1A000080           [030] jmp        1            ; to [32]
6B6A  1E008000           [031] return     0   1      
6B6E  53010000           [032] getupval   5   0      
6B72  92010000           [033] move       6   0      
6B76  62810001           [034] call       5   2   2  
6B7A  9DC10000           [035] getglobal  6   3        ; 1074689893
6B7E  E4814100           [036] self       7   0   262  ; 51109503
6B82  E2810001           [037] call       7   2   2  
6B86  CEC1C103           [038] gettable   7   7   263  ; "mActiveVoidProjection"
6B8A  A2810001           [039] call       6   2   2  
fail op	9
6B8E  89010003           [040] settable   6   6   0  
6B92  D3018000           [041] getupval   7   1      
fail op	35
6B96  23C08102           [042] close      0  
6B9A  1A401580           [043] jmp        86           ; to [130]
6B9E  E4014200           [044] self       7   0   264  ; -2135866365
6BA2  E2810001           [045] call       7   2   2  
6BA6  1DC20000           [046] getglobal  8   3        ; 1074689893
6BAA  52028003           [047] move       9   7      
6BAE  22820001           [048] call       8   2   2  
6BB2  18420000           [049] test       8       1    ; to [51] if false
6BB6  1A000280           [050] jmp        9            ; to [60]
fail op	35
6BBA  63008103           [051] close      1  
6BBE  1A800180           [052] jmp        7            ; to [60]
6BC2  24424202           [053] self       8   4   265  ; -1917464545
6BC6  22820001           [054] call       8   2   2  
6BCA  24824204           [055] self       8   8   266  ; 607379275
6BCE  A442C203           [056] self       10  7   265  ; -1917464545
6BD2  A2820001           [057] call       10  2   2  
6BD6  D7028000           [058] loadbool   11  1   0    ; true
6BDA  22420002           [059] call       8   4   1  
6BDE  1D020000           [060] getglobal  8   0        ; gRegion
6BE2  24C24204           [061] self       8   8   267  ; -1110225722
6BE6  93020001           [062] getupval   10  2      
6BEA  E4024302           [063] self       11  4   268  ; 1839670529
6BEE  E2820001           [064] call       11  2   2  
6BF2  1D430300           [065] getglobal  12  13       ; ZERO_ROTATION
6BF6  22828002           [066] call       8   5   2  
6BFA  64824304           [067] self       9   8   270  ; -974578778
6BFE  62420001           [068] call       9   2   1  
6C02  98010000           [069] test       6       0    ; to [71] if true
6C06  1AC00180           [070] jmp        8            ; to [79]
6C0A  5DC20300           [071] getglobal  9   15       ; _T
6C0E  4E02C404           [072] gettable   9   9   272  ; -2137034232
6C12  92020000           [073] move       10  0      
6C16  62420001           [074] call       9   2   1  
6C1A  64424402           [075] self       9   4   273  ; 145557915
6C1E  D3028001           [076] getupval   11  3      
6C22  62428001           [077] call       9   3   1  
6C26  1A800280           [078] jmp        11           ; to [90]
6C2A  64424202           [079] self       9   4   265  ; -1917464545
6C2E  62820001           [080] call       9   2   2  
6C32  6482C404           [081] self       9   9   274  ; 1401485941
6C36  D3020002           [082] getupval   11  4      
6C3A  1DC30400           [083] getglobal  12  19       ; 2144646525
6C3E  53038002           [084] getupval   13  5      
6C42  4E03C506           [085] gettable   13  13  276  ; 0
6C46  93038002           [086] getupval   14  5      
6C4A  8E434507           [087] gettable   14  14  277  ; 0
6C4E  22038001           [088] call       12  3   0  
6C52  62420000           [089] call       9   0   1  
6C56  4B020000           [090] newtable   9   0   0    ; array=0, hash=0
6C5A  9D020000           [091] getglobal  10  0        ; gRegion
6C5E  A4824505           [092] self       10  10  278  ; 1224466847
6C62  A2820001           [093] call       10  2   2  
6C66  DDC20500           [094] getglobal  11  23       ; 1672515847
6C6A  12030005           [095] move       12  10     
6C6E  E2020101           [096] call       11  2   4  
6C72  1A000380           [097] jmp        13           ; to [111]
fail op	35
6C76  63008007           [098] close      1  
6C7A  1A800280           [099] jmp        11           ; to [111]
6C7E  13040000           [100] getupval   16  0      
6C82  52048007           [101] move       17  15     
6C86  22840001           [102] call       16  2   2  
6C8A  53048000           [103] getupval   17  1      
fail op	21
6C8E  15400408           [104] concat     0   16  17 
6C92  1A000180           [105] jmp        5            ; to [111]
6C96  1D040600           [106] getglobal  16  24       ; table
6C9A  0E444608           [107] gettable   16  16  281  ; -431682403
6C9E  52048004           [108] move       17  9      
6CA2  92048007           [109] move       18  15     
6CA6  22448001           [110] call       16  3   1  
6CAA  D6820000           [111] tforloop   11      2    ; to [113] if exit
6CAE  1A00FC7F           [112] jmp        -15          ; to [98]
6CB2  1D040000           [113] getglobal  16  0        ; gRegion
6CB6  24844608           [114] self       16  16  282  ; 2021214108
6CBA  9DC40600           [115] getglobal  18  27       ; reactantPickupType
6CBE  22848001           [116] call       16  3   2  
6CC2  59040500           [117] loadk      17  20       ; 0
6CC6  8A040008           [118] len        18  16     
6CCA  D9040500           [119] loadk      19  20       ; 0
6CCE  50840180           [120] forprep    17  7        ; to [128]
6CD2  4E050508           [121] gettable   21  16  20 
fail op	35
6CD6  63C0800A           [122] close      1  
6CDA  1AC00080           [123] jmp        4            ; to [128]
6CDE  4E050508           [124] gettable   21  16  20 
6CE2  6405C70A           [125] self       21  21  284  ; 1699949376
6CE6  D2058004           [126] move       23  9      
6CEA  62458001           [127] call       21  3   1  
6CEE  54C4FD7F           [128] forloop    17  -8       ; to [121] if loop
6CF2  1A000180           [129] jmp        5            ; to [135]
fail op	35
6CF6  2300C502           [130] close      0  
6CFA  1A800080           [131] jmp        3            ; to [135]
6CFE  64454402           [132] self       21  4   273  ; 145557915
6D02  D3050003           [133] getupval   23  6      
6D06  62458001           [134] call       21  3   1  
6D0A  1E008000           [135] return     0   1      
                         * constants:
6D0E  1D                 sizek (29)
6D0F  04                 const type 4
6D10  08                 string size (8)
6D11  67526567696F6E00   "gRegion\0"
                         const [0]: "gRegion"
6D19  01                 const type 3
6D1A  58F559A5           const [1]: (-1520831144)
6D1E  01                 const type 3
6D1F  0567E793           const [2]: (-1813551355)
6D23  01                 const type 3
6D24  65770E40           const [3]: (1074689893)
6D28  01                 const type 3
6D29  EA911120           const [4]: (538022378)
6D2D  03                 const type 3
6D2E  00000000           const [5]: (0)
6D32  01                 const type 3
6D33  7FDE0B03           const [6]: (51109503)
6D37  04                 const type 4
6D38  16                 string size (22)
6D39  6D41637469766556+  "mActiveV"
6D41  6F696450726F6A65+  "oidProje"
6D49  6374696F6E00       "ction\0"
                         const [7]: "mActiveVoidProjection"
6D4F  01                 const type 3
6D50  0344B180           const [8]: (-2135866365)
6D54  01                 const type 3
6D55  1FD0B58D           const [9]: (-1917464545)
6D59  01                 const type 3
6D5A  4BDF3324           const [10]: (607379275)
6D5E  01                 const type 3
6D5F  C64CD3BD           const [11]: (-1110225722)
6D63  01                 const type 3
6D64  0125A76D           const [12]: (1839670529)
6D68  04                 const type 4
6D69  0E                 string size (14)
6D6A  5A45524F5F524F54+  "ZERO_ROT"
6D72  4154494F4E00       "ATION\0"
                         const [13]: "ZERO_ROTATION"
6D78  01                 const type 3
6D79  A61BE9C5           const [14]: (-974578778)
6D7D  04                 const type 4
6D7E  03                 string size (3)
6D7F  5F5400             "_T\0"
                         const [15]: "_T"
6D82  01                 const type 3
6D83  08729F80           const [16]: (-2137034232)
6D87  01                 const type 3
6D88  9B09AD08           const [17]: (145557915)
6D8C  01                 const type 3
6D8D  75FA8853           const [18]: (1401485941)
6D91  01                 const type 3
6D92  7DB5D47F           const [19]: (2144646525)
6D96  03                 const type 3
6D97  0000803F           const [20]: (0)
6D9B  03                 const type 3
6D9C  00000040           const [21]: (0)
6DA0  01                 const type 3
6DA1  9FE1FB48           const [22]: (1224466847)
6DA5  01                 const type 3
6DA6  0791B063           const [23]: (1672515847)
6DAA  04                 const type 4
6DAB  06                 string size (6)
6DAC  7461626C6500       "table\0"
                         const [24]: "table"
6DB2  01                 const type 3
6DB3  9D0C45E6           const [25]: (-431682403)
6DB7  01                 const type 3
6DB8  9C477978           const [26]: (2021214108)
6DBC  04                 const type 4
6DBD  13                 string size (19)
6DBE  7265616374616E74+  "reactant"
6DC6  5069636B75705479+  "PickupTy"
6DCE  706500             "pe\0"
                         const [27]: "reactantPickupType"
6DD1  01                 const type 3
6DD2  402B5365           const [28]: (1699949376)
                         * functions:
6DD6  00                 sizep (0)
                         * lines:
6DD8  01                 sizelineinfo (135)
                         [pc] (line)
6DD9  19                 [001] (25)
6DDA  04                 [002] (25)
6DDB  00                 [003] (25)
6DDC  00                 [004] (25)
6DDD  19                 [005] (25)
6DDE  04                 [006] (26)
6DDF  00                 [007] (29)
6DE0  00                 [008] (29)
6DE1  19                 [009] (30)
6DE2  04                 [010] (30)
6DE3  00                 [011] (30)
6DE4  00                 [012] (30)
6DE5  19                 [013] (30)
6DE6  04                 [014] (30)
6DE7  00                 [015] (30)
6DE8  00                 [016] (30)
6DE9  19                 [017] (30)
6DEA  04                 [018] (30)
6DEB  00                 [019] (31)
6DEC  00                 [020] (31)
6DED  1A                 [021] (31)
6DEE  04                 [022] (32)
6DEF  00                 [023] (32)
6DF0  00                 [024] (32)
6DF1  1D                 [025] (32)
6DF2  04                 [026] (35)
6DF3  00                 [027] (35)
6DF4  00                 [028] (35)
6DF5  1D                 [029] (35)
6DF6  04                 [030] (35)
6DF7  00                 [031] (36)
6DF8  00                 [032] (39)
6DF9  1E                 [033] (39)
6DFA  04                 [034] (39)
6DFB  00                 [035] (41)
6DFC  00                 [036] (41)
6DFD  1E                 [037] (41)
6DFE  04                 [038] (41)
6DFF  00                 [039] (41)
6E00  00                 [040] (41)
6E01  1E                 [041] (43)
6E02  04                 [042] (43)
6E03  00                 [043] (43)
6E04  00                 [044] (45)
6E05  1E                 [045] (45)
6E06  04                 [046] (46)
6E07  00                 [047] (46)
6E08  00                 [048] (46)
6E09  1E                 [049] (46)
6E0A  04                 [050] (46)
6E0B  00                 [051] (46)
6E0C  00                 [052] (46)
6E0D  1E                 [053] (47)
6E0E  04                 [054] (47)
6E0F  00                 [055] (47)
6E10  00                 [056] (47)
6E11  1E                 [057] (47)
6E12  04                 [058] (47)
6E13  00                 [059] (47)
6E14  00                 [060] (50)
6E15  1E                 [061] (50)
6E16  04                 [062] (50)
6E17  00                 [063] (50)
6E18  00                 [064] (50)
6E19  1E                 [065] (50)
6E1A  04                 [066] (50)
6E1B  00                 [067] (51)
6E1C  00                 [068] (51)
6E1D  1E                 [069] (52)
6E1E  04                 [070] (52)
6E1F  00                 [071] (53)
6E20  00                 [072] (53)
6E21  1F                 [073] (53)
6E22  04                 [074] (53)
6E23  00                 [075] (54)
6E24  00                 [076] (54)
6E25  1F                 [077] (54)
6E26  04                 [078] (54)
6E27  00                 [079] (56)
6E28  00                 [080] (56)
6E29  1F                 [081] (56)
6E2A  04                 [082] (56)
6E2B  00                 [083] (56)
6E2C  00                 [084] (56)
6E2D  20                 [085] (56)
6E2E  04                 [086] (56)
6E2F  00                 [087] (56)
6E30  00                 [088] (56)
6E31  20                 [089] (56)
6E32  04                 [090] (60)
6E33  00                 [091] (61)
6E34  00                 [092] (61)
6E35  20                 [093] (61)
6E36  04                 [094] (62)
6E37  00                 [095] (62)
6E38  00                 [096] (62)
6E39  20                 [097] (62)
6E3A  04                 [098] (63)
6E3B  00                 [099] (63)
6E3C  00                 [100] (63)
6E3D  23                 [101] (63)
6E3E  04                 [102] (63)
6E3F  00                 [103] (63)
6E40  00                 [104] (63)
6E41  23                 [105] (63)
6E42  04                 [106] (64)
6E43  00                 [107] (64)
6E44  00                 [108] (64)
6E45  23                 [109] (64)
6E46  04                 [110] (64)
6E47  00                 [111] (62)
6E48  00                 [112] (65)
6E49  23                 [113] (68)
6E4A  04                 [114] (68)
6E4B  00                 [115] (68)
6E4C  00                 [116] (68)
6E4D  23                 [117] (69)
6E4E  04                 [118] (69)
6E4F  00                 [119] (69)
6E50  00                 [120] (69)
6E51  24                 [121] (70)
6E52  04                 [122] (70)
6E53  00                 [123] (70)
6E54  00                 [124] (71)
6E55  27                 [125] (71)
6E56  04                 [126] (71)
6E57  00                 [127] (71)
6E58  00                 [128] (69)
6E59  27                 [129] (73)
6E5A  04                 [130] (74)
6E5B  00                 [131] (74)
6E5C  00                 [132] (75)
6E5D  27                 [133] (75)
6E5E  04                 [134] (75)
6E5F  00                 [135] (77)
                         * locals:
6FF5  00                 sizelocvars (0)
                         * upvalues:
6FF6  00                 sizeupvalues (0)
                         ** end of function **

                         * lines:
6FF8  03                 sizelineinfo (499)
                         [pc] (line)
6FF9  06                 [001] (6)
6FFA  00                 [002] (6)
6FFB  00                 [003] (6)
6FFC  00                 [004] (7)
6FFD  06                 [005] (7)
6FFE  00                 [006] (7)
6FFF  00                 [007] (8)
7000  00                 [008] (8)
7001  06                 [009] (8)
7002  00                 [010] (10)
7003  00                 [011] (10)
7004  00                 [012] (10)
7005  07                 [013] (11)
7006  00                 [014] (11)
7007  00                 [015] (11)
7008  00                 [016] (12)
7009  07                 [017] (12)
700A  00                 [018] (12)
700B  00                 [019] (13)
700C  00                 [020] (13)
700D  07                 [021] (13)
700E  00                 [022] (14)
700F  00                 [023] (14)
7010  00                 [024] (14)
7011  08                 [025] (15)
7012  00                 [026] (15)
7013  00                 [027] (15)
7014  00                 [028] (16)
7015  08                 [029] (16)
7016  00                 [030] (16)
7017  00                 [031] (17)
7018  00                 [032] (19)
7019  08                 [033] (20)
701A  00                 [034] (20)
701B  00                 [035] (20)
701C  00                 [036] (21)
701D  0A                 [037] (21)
701E  00                 [038] (23)
701F  00                 [039] (23)
7020  00                 [040] (23)
7021  0A                 [041] (24)
7022  00                 [042] (24)
7023  00                 [043] (24)
7024  00                 [044] (26)
7025  0A                 [045] (26)
7026  00                 [046] (26)
7027  00                 [047] (27)
7028  00                 [048] (27)
7029  0B                 [049] (27)
702A  00                 [050] (28)
702B  00                 [051] (28)
702C  00                 [052] (28)
702D  0B                 [053] (29)
702E  00                 [054] (29)
702F  00                 [055] (29)
7030  00                 [056] (30)
7031  0B                 [057] (30)
7032  00                 [058] (30)
7033  00                 [059] (31)
7034  00                 [060] (31)
7035  0C                 [061] (31)
7036  00                 [062] (32)
7037  00                 [063] (32)
7038  00                 [064] (32)
7039  0C                 [065] (33)
703A  00                 [066] (33)
703B  00                 [067] (33)
703C  00                 [068] (35)
703D  0C                 [069] (37)
703E  00                 [070] (37)
703F  00                 [071] (37)
7040  00                 [072] (38)
7041  0D                 [073] (38)
7042  00                 [074] (38)
7043  00                 [075] (39)
7044  00                 [076] (39)
7045  0D                 [077] (39)
7046  00                 [078] (40)
7047  00                 [079] (40)
7048  00                 [080] (40)
7049  0D                 [081] (41)
704A  00                 [082] (41)
704B  00                 [083] (41)
704C  00                 [084] (43)
704D  0E                 [085] (43)
704E  00                 [086] (43)
704F  00                 [087] (44)
7050  00                 [088] (44)
7051  0E                 [089] (44)
7052  00                 [090] (45)
7053  00                 [091] (45)
7054  00                 [092] (45)
7055  0E                 [093] (46)
7056  00                 [094] (46)
7057  00                 [095] (46)
7058  00                 [096] (48)
7059  0F                 [097] (49)
705A  00                 [098] (52)
705B  00                 [099] (53)
705C  00                 [100] (54)
705D  0F                 [101] (55)
705E  00                 [102] (56)
705F  00                 [103] (57)
7060  00                 [104] (58)
7061  0F                 [105] (59)
7062  00                 [106] (59)
7063  00                 [107] (59)
7064  00                 [108] (59)
7065  10                 [109] (59)
7066  00                 [110] (60)
7067  00                 [111] (61)
7068  00                 [112] (62)
7069  10                 [113] (62)
706A  00                 [114] (62)
706B  00                 [115] (62)
706C  00                 [116] (62)
706D  10                 [117] (62)
706E  00                 [118] (62)
706F  00                 [119] (63)
7070  00                 [120] (63)
7071  11                 [121] (63)
7072  00                 [122] (63)
7073  00                 [123] (64)
7074  00                 [124] (64)
7075  13                 [125] (64)
7076  00                 [126] (64)
7077  00                 [127] (65)
7078  00                 [128] (66)
7079  14                 [129] (67)
707A  00                 [130] (68)
707B  00                 [131] (69)
707C  00                 [132] (70)
707D  14                 [133] (71)
707E  00                 [134] (72)
707F  00                 [135] (73)
7080  00                 [136] (74)
7081  14                 [137] (75)
7082  00                 [138] (76)
7083  00                 [139] (77)
7084  00                 [140] (78)
7085  15                 [141] (80)
7086  00                 [142] (82)
7087  00                 [143] (82)
7088  00                 [144] (82)
7089  15                 [145] (83)
708A  00                 [146] (83)
708B  00                 [147] (83)
708C  00                 [148] (84)
708D  17                 [149] (84)
708E  00                 [150] (84)
708F  00                 [151] (85)
7090  00                 [152] (85)
7091  17                 [153] (85)
7092  00                 [154] (86)
7093  00                 [155] (87)
7094  00                 [156] (90)
7095  17                 [157] (91)
7096  00                 [158] (92)
7097  00                 [159] (92)
7098  00                 [160] (92)
7099  18                 [161] (92)
709A  00                 [162] (92)
709B  00                 [163] (92)
709C  00                 [164] (92)
709D  18                 [165] (92)
709E  00                 [166] (93)
709F  00                 [167] (93)
70A0  00                 [168] (93)
70A1  18                 [169] (93)
70A2  00                 [170] (93)
70A3  00                 [171] (93)
70A4  00                 [172] (93)
70A5  1A                 [173] (93)
70A6  00                 [174] (94)
70A7  00                 [175] (94)
70A8  00                 [176] (94)
70A9  1A                 [177] (94)
70AA  00                 [178] (94)
70AB  00                 [179] (94)
70AC  00                 [180] (94)
70AD  1A                 [181] (94)
70AE  00                 [182] (95)
70AF  00                 [183] (95)
70B0  00                 [184] (95)
70B1  1B                 [185] (95)
70B2  00                 [186] (95)
70B3  00                 [187] (95)
70B4  00                 [188] (95)
70B5  1B                 [189] (96)
70B6  00                 [190] (98)
70B7  00                 [191] (99)
70B8  00                 [192] (101)
70B9  1B                 [193] (101)
70BA  00                 [194] (101)
70BB  00                 [195] (102)
70BC  00                 [196] (103)
70BD  1C                 [197] (104)
70BE  00                 [198] (104)
70BF  00                 [199] (104)
70C0  00                 [200] (104)
70C1  1C                 [201] (104)
70C2  00                 [202] (104)
70C3  00                 [203] (104)
70C4  00                 [204] (104)
70C5  1C                 [205] (105)
70C6  00                 [206] (105)
70C7  00                 [207] (105)
70C8  00                 [208] (105)
70C9  1D                 [209] (105)
70CA  00                 [210] (105)
70CB  00                 [211] (105)
70CC  00                 [212] (106)
70CD  1D                 [213] (106)
70CE  00                 [214] (107)
70CF  00                 [215] (109)
70D0  00                 [216] (109)
70D1  1D                 [217] (109)
70D2  00                 [218] (110)
70D3  00                 [219] (111)
70D4  00                 [220] (112)
70D5  1E                 [221] (112)
70D6  00                 [222] (112)
70D7  00                 [223] (112)
70D8  00                 [224] (112)
70D9  1E                 [225] (112)
70DA  00                 [226] (112)
70DB  00                 [227] (112)
70DC  00                 [228] (113)
70DD  1E                 [229] (113)
70DE  00                 [230] (113)
70DF  00                 [231] (113)
70E0  00                 [232] (113)
70E1  1F                 [233] (113)
70E2  00                 [234] (113)
70E3  00                 [235] (114)
70E4  00                 [236] (114)
70E5  1F                 [237] (115)
70E6  00                 [238] (117)
70E7  00                 [239] (117)
70E8  00                 [240] (117)
70E9  1F                 [241] (118)
70EA  00                 [242] (119)
70EB  00                 [243] (120)
70EC  00                 [244] (120)
70ED  20                 [245] (120)
70EE  00                 [246] (120)
70EF  00                 [247] (120)
70F0  00                 [248] (120)
70F1  20                 [249] (120)
70F2  00                 [250] (120)
70F3  00                 [251] (121)
70F4  00                 [252] (121)
70F5  20                 [253] (121)
70F6  00                 [254] (121)
70F7  00                 [255] (121)
70F8  00                 [256] (121)
70F9  21                 [257] (121)
70FA  00                 [258] (122)
70FB  00                 [259] (122)
70FC  00                 [260] (123)
70FD  21                 [261] (125)
70FE  00                 [262] (125)
70FF  00                 [263] (125)
7100  00                 [264] (126)
7101  21                 [265] (127)
7102  00                 [266] (-128)
7103  00                 [267] (-128)
7104  00                 [268] (-128)
7105  23                 [269] (-128)
7106  00                 [270] (-128)
7107  00                 [271] (-128)
7108  00                 [272] (-128)
7109  25                 [273] (-128)
710A  00                 [274] (-127)
710B  00                 [275] (-127)
710C  00                 [276] (-127)
710D  25                 [277] (-127)
710E  00                 [278] (-127)
710F  00                 [279] (-127)
7110  00                 [280] (-127)
7111  25                 [281] (-126)
7112  00                 [282] (-126)
7113  00                 [283] (-124)
7114  00                 [284] (-122)
7115  26                 [285] (-122)
7116  00                 [286] (-122)
7117  00                 [287] (-122)
7118  00                 [288] (-122)
7119  26                 [289] (-122)
711A  00                 [290] (-122)
711B  00                 [291] (-122)
711C  00                 [292] (-122)
711D  26                 [293] (-122)
711E  00                 [294] (-89)
711F  00                 [295] (-69)
7120  00                 [296] (-69)
7121  27                 [297] (-14)
7122  00                 [298] (-14)
7123  00                 [299] (-14)
7124  00                 [300] (-14)
7125  27                 [301] (-66)
7126  00                 [302] (-4)
7127  00                 [303] (-4)
7128  00                 [304] (-4)
7129  27                 [305] (-4)
712A  00                 [306] (12)
712B  00                 [307] (12)
712C  00                 [308] (12)
712D  28                 [309] (12)
712E  00                 [310] (12)
712F  00                 [311] (12)
7130  00                 [312] (27)
7131  28                 [313] (27)
7132  00                 [314] (27)
7133  00                 [315] (54)
7134  00                 [316] (54)
7135  28                 [317] (54)
7136  00                 [318] (54)
7137  00                 [319] (84)
7138  00                 [320] (84)
7139  29                 [321] (84)
713A  00                 [322] (84)
713B  00                 [323] (84)
713C  00                 [324] (84)
713D  29                 [325] (84)
713E  00                 [326] (56)
713F  00                 [327] (88)
7140  00                 [328] (88)
7141  29                 [329] (88)
7142  00                 [330] (106)
7143  00                 [331] (106)
7144  00                 [332] (-102)
7145  2B                 [333] (-102)
7146  00                 [334] (-102)
7147  00                 [335] (-102)
7148  00                 [336] (-102)
7149  2B                 [337] (-102)
714A  00                 [338] (-102)
714B  00                 [339] (-102)
714C  00                 [340] (-102)
714D  2B                 [341] (-102)
714E  00                 [342] (-102)
714F  00                 [343] (108)
7150  00                 [344] (-81)
7151  2C                 [345] (-81)
7152  00                 [346] (-81)
7153  00                 [347] (-81)
7154  00                 [348] (-81)
7155  2C                 [349] (-81)
7156  00                 [350] (-81)
7157  00                 [351] (-81)
7158  00                 [352] (-100)
7159  2C                 [353] (-60)
715A  00                 [354] (-60)
715B  00                 [355] (-60)
715C  00                 [356] (32)
715D  2D                 [357] (32)
715E  00                 [358] (32)
715F  00                 [359] (32)
7160  00                 [360] (32)
7161  2D                 [361] (32)
7162  00                 [362] (32)
7163  00                 [363] (32)
7164  00                 [364] (32)
7165  2D                 [365] (32)
7166  00                 [366] (32)
7167  00                 [367] (32)
7168  00                 [368] (32)
7169  2E                 [369] (32)
716A  00                 [370] (32)
716B  00                 [371] (32)
716C  00                 [372] (32)
716D  2E                 [373] (32)
716E  00                 [374] (32)
716F  00                 [375] (32)
7170  00                 [376] (32)
7171  2E                 [377] (32)
7172  00                 [378] (32)
7173  00                 [379] (53)
7174  00                 [380] (53)
7175  30                 [381] (100)
7176  00                 [382] (100)
7177  00                 [383] (100)
7178  00                 [384] (100)
7179  31                 [385] (100)
717A  00                 [386] (100)
717B  00                 [387] (100)
717C  00                 [388] (100)
717D  34                 [389] (100)
717E  00                 [390] (100)
717F  00                 [391] (100)
7180  00                 [392] (100)
7181  35                 [393] (119)
7182  00                 [394] (119)
7183  00                 [395] (-107)
7184  00                 [396] (-107)
7185  36                 [397] (-107)
7186  00                 [398] (-107)
7187  00                 [399] (-39)
7188  00                 [400] (-39)
7189  37                 [401] (-39)
718A  00                 [402] (-39)
718B  00                 [403] (-39)
718C  00                 [404] (-39)
718D  38                 [405] (-39)
718E  00                 [406] (-39)
718F  00                 [407] (-39)
7190  00                 [408] (-39)
7191  39                 [409] (-35)
7192  00                 [410] (-35)
7193  00                 [411] (-37)
7194  00                 [412] (41)
7195  3A                 [413] (41)
7196  00                 [414] (41)
7197  00                 [415] (41)
7198  00                 [416] (41)
7199  3B                 [417] (41)
719A  00                 [418] (41)
719B  00                 [419] (41)
719C  00                 [420] (41)
719D  3B                 [421] (41)
719E  00                 [422] (41)
719F  00                 [423] (41)
71A0  00                 [424] (41)
71A1  3B                 [425] (41)
71A2  00                 [426] (41)
71A3  00                 [427] (57)
71A4  00                 [428] (57)
71A5  3B                 [429] (57)
71A6  00                 [430] (57)
71A7  00                 [431] (57)
71A8  00                 [432] (57)
71A9  3B                 [433] (57)
71AA  00                 [434] (57)
71AB  00                 [435] (57)
71AC  00                 [436] (57)
71AD  3C                 [437] (57)
71AE  00                 [438] (57)
71AF  00                 [439] (71)
71B0  00                 [440] (71)
71B1  3D                 [441] (80)
71B2  00                 [442] (80)
71B3  00                 [443] (12)
71B4  00                 [444] (12)
71B5  3E                 [445] (12)
71B6  00                 [446] (12)
71B7  00                 [447] (12)
71B8  00                 [448] (12)
71B9  3E                 [449] (12)
71BA  00                 [450] (12)
71BB  00                 [451] (12)
71BC  00                 [452] (12)
71BD  3E                 [453] (12)
71BE  00                 [454] (12)
71BF  00                 [455] (12)
71C0  00                 [456] (12)
71C1  3E                 [457] (12)
71C2  00                 [458] (12)
71C3  00                 [459] (12)
71C4  00                 [460] (12)
71C5  3E                 [461] (12)
71C6  00                 [462] (12)
71C7  00                 [463] (12)
71C8  00                 [464] (12)
71C9  3E                 [465] (12)
71CA  00                 [466] (12)
71CB  00                 [467] (12)
71CC  00                 [468] (12)
71CD  3E                 [469] (12)
71CE  00                 [470] (12)
71CF  00                 [471] (12)
71D0  00                 [472] (12)
71D1  3F                 [473] (12)
71D2  00                 [474] (12)
71D3  00                 [475] (12)
71D4  00                 [476] (12)
71D5  3F                 [477] (12)
71D6  00                 [478] (12)
71D7  00                 [479] (12)
71D8  00                 [480] (12)
71D9  3F                 [481] (12)
71DA  00                 [482] (12)
71DB  00                 [483] (82)
71DC  00                 [484] (22)
71DD  3F                 [485] (22)
71DE  00                 [486] (22)
71DF  00                 [487] (22)
71E0  00                 [488] (14)
71E1  40                 [489] (77)
71E2  00                 [490] (77)
71E3  00                 [491] (77)
71E4  00                 [492] (77)
71E5  40                 [493] (77)
71E6  00                 [494] (77)
71E7  00                 [495] (77)
71E8  00                 [496] (77)
71E9  40                 [497] (77)
71EA  00                 [498] (24)
71EB  00                 [499] (77)
                         * locals:
77C5  00                 sizelocvars (0)
                         * upvalues:
77C6  00                 sizeupvalues (0)
                         ** end of function **

77C7                     ** end of chunk **
