1	C:\wlua_dump\path\Lotus\Scripts\KuvaLichKuvaLichFinisher.lua
Pos   Hex Data           Description or Code
------------------------------------------------------------------------
0000                     ** source chunk: C:\wlua_dump\path\Lotus\Scripts\KuvaLichKuvaLichFinisher.lua
                         ** global header start **
0000  7F                 header signature: ""
0001  00                 version (major:minor hex digits)
0002  00                 format (0=official)
0003  00                 endianness (1=little endian)
0004  00                 size of int (bytes)
0005  00                 size of size_t (bytes)
0006  02                 size of Instruction (bytes)
0007  16                 size of number (bytes)
0008  60                 integral (1=integral)
496
                         * number type: single
                         * x86 standard (32-bit, little endian, doubles)
                         ** global header end **
EE.Interface.Utilities
Lotus.Scripts.Nemesis.NemesisGenerator
Lotus.Interface.LoadoutUtilities
/Lotus/Animations/Tenno/Menu/StandToKneel_anim.fbx
/Lotus/Fx/Enemies/Stalker/StalkerSpawnOut
/Lotus/Animations/Tenno/Melee/DataFinisher/GrineerSaveKuvaKneelIdle_anim.fbx
/Lotus/Fx/PowersuitAbilities/Kingpins/FriendlyTeleportSpawn
/Lotus/Types/Enemies/KuvaLich/KuvaLarvlingDamageController
NemesisHenchmenKills
NemesisHintProgress
OnPreDeathScript
OnPasscodeHint
DataKnifeStabComplete
OnVanquishOrConvertNemesis
FinalFinisher
KillConvertChoiceCinematicPrepare
LichFinisherThrow
LichRagdoll
DataKnifeStabImpact
TENNO
_T
DespawnNemesisAlly

cjson
Hint
math
gGameRules
/Lotus/Language/Game/KuvaMurmur
gGameRules
math
gRegion
KUVA_LICH_DEFEATED
gGameRules
mPlayer
choiceMovie
gFlashMgr
mTarget
/Lotus/Language/Kingpins/NemesisPopupRankupLabel
mRank
_G
NemesisPopup_Info
IsRankUp
Rank
Name
mName
Description
KUVA_LICH_ESCAPE
Engine
DT_ANY
ANY_PART
DHT_NONE
Lotus_Game
NE_NEMESIS
rankUpAnims
math
ATMM_ANIMATION_DRIVEN
PRT_ONCE
gRegion
gGameRules
mPlayer
_G
NemesisTauntCooldowns
InfluenceProgress
NemesisTaunt
_T
CreateKuvaLich
LastLarvlingDamageData
gGameRules
killCollection
gKuvaLichDamageControllerType
mFirstCodeCheck
mSecondCodeCheck
mThirdCodeCheck
killCollectionTwo
killCollectionThree
failCollection
failCollectionTwo
failCollectionThree
mPlayer
gRegion
mTarget
mManifest
gGameData
KUVA_LICH
Engine
PM_BLOCKING_ANIM
_T
LichCombination
gFlashMgr
finisherMovie
Close

EvaluateVictim returned false!!! Let's see if we can figure out why
Victim 
 is already doing a finisher.
gChallengeMgr
EXECUTION_END
Finisher animation failed for 
 on 
The host must have refused our request!
/Lotus/Animations/Tenno/Contextual/HackDeviceStart_anim.fbx
/Lotus/Animations/Tenno/Contextual/HackDeviceEnd_anim.fbx
/Lotus/Animations/Grineer/EhraRok/PreDeathStart_anim.fbx
ATMM_ANIMATION_DRIVEN
PRT_FREEZE
PRT_ONCE
/Lotus/Animations/Grineer/KuvaLich/MeleeSprintSwing02_anim.fbx
MeleeStart
TORSO
Game
PT_RAGDOLL
injuryType
RAGDOLL
Lotus_Game
NEMESIS_KILLED
_T
NemesisDestroyed
NEMESIS_CONVERTED
NemesisConverted
gGameData
mWeapon

NemesisStatArgs
Event
Target
mAgent
Item
Count
Pos
Text
mName
_G
NemesisEndBody
cjson
gGameStatsMgr
_T
NemesisStatArgs
Event
Target
Item
Count
Pos
Text
gGameRules
mPlayer
Don't show choice to this player'
mTarget
gGameData
No active Nemesis!
_G
NemesisPopup_Info
IsChoice
_T
NemesisPopup_Choice
gFlashMgr
choiceMovie
OnVanquishOrConvertNemesis
Lotus_Game
LotusHumanPlayer_NKC_KILL
LotusHumanPlayer_NKC_CONVERT
gRegion
Engine
SLOT_1
SLOT_2
SLOT_5
SLOT_6
Lotus_Game
LotusHumanPlayer_NKC_NONE
gRegion
cinematicType
_T
LichKillChoiceMade
LotusHumanPlayer_NKC_KILL
weakPointType
weakPoints
killAnims
finalKillCollections
convertAnims
saveCollections
GetUpFromPreDeath
Engine
SLOT_12
MAIN_HAND
InventoryControllerBase_ES_INSTANT_EQUIP
KUVA_LICH
PM_BLOCKING_ANIM
TENNO
KUVA_LICH_DEFEATED
EMPTY_SYMBOL
ATMM_ANIMATION_DRIVEN
PRT_ONCE
gGameRules
KillConvertPrevWeapon
LichKillConvertHiddenEnemies
_T
KillConvertPrevWeapon
Engine
MAIN_HAND
SLOT_12
InventoryControllerBase_ES_INSTANT_EQUIP
gRegion
gLotusNpcAvatarType
lichAvatarType
LichKillConvertHiddenEnemies
table
HIDE
Engine
baseAmount
Game
PT_RAGDOLL
RAGDOLL
FT_VELOCITY_CHANGE
Engine
Ragdoll_TORSO
gRegion
ragdollBurst
ZERO_ROTATION
gFlashMgr
finisherMovie
DataKnifeStabImpact

                         
0001                     ** function [0] definition (level 1)
                         ** start of function **
0001  00                 string size (0)
                         source name: (none)
0002  00                 line defined (0)
0003  00                 last line defined (0)
0004  00                 nups (0)
0005  00                 numparams (0)
0006  02                 is_vararg (2)
0007  16                 maxstacksize (22)
                         * code:
0008  60                 sizecode (96)
0009  5D000000           [01] getglobal  1   0        ; 849075268
000D  99400000           [02] loadk      2   1        ; "EE.Interface.Utilities"
0011  62800001           [03] call       1   2   2  
0015  9D000000           [04] getglobal  2   0        ; 849075268
0019  D9800000           [05] loadk      3   2        ; "Lotus.Scripts.Nemesis.NemesisGenerator"
001D  A2800001           [06] call       2   2   2  
0021  DD000000           [07] getglobal  3   0        ; 849075268
0025  19C10000           [08] loadk      4   3        ; "Lotus.Interface.LoadoutUtilities"
0029  E2800001           [09] call       3   2   2  
002D  1D010100           [10] getglobal  4   4        ; 2083004503
0031  59410100           [11] loadk      5   5        ; "/Lotus/Animations/Tenno/Menu/StandToKneel_anim.fbx"
0035  22810001           [12] call       4   2   2  
0039  5D810100           [13] getglobal  5   6        ; -895206725
003D  99C10100           [14] loadk      6   7        ; "/Lotus/Fx/Enemies/Stalker/StalkerSpawnOut"
0041  62810001           [15] call       5   2   2  
0045  9D010100           [16] getglobal  6   4        ; 2083004503
0049  D9010200           [17] loadk      7   8        ; "/Lotus/Animations/Tenno/Melee/DataFinisher/GrineerSaveKuvaKneelIdle_anim.fbx"
004D  A2810001           [18] call       6   2   2  
0051  DD010100           [19] getglobal  7   4        ; 2083004503
0055  19420200           [20] loadk      8   9        ; "/Lotus/Fx/PowersuitAbilities/Kingpins/FriendlyTeleportSpawn"
0059  E2810001           [21] call       7   2   2  
005D  1D820200           [22] getglobal  8   10       ; 738251817
0061  59C20200           [23] loadk      9   11       ; "/Lotus/Types/Enemies/KuvaLich/KuvaLarvlingDamageController"
0065  22820001           [24] call       8   2   2  
0069  5D020300           [25] getglobal  9   12       ; -332969190
006D  99420300           [26] loadk      10  13       ; "NemesisHenchmenKills"
0071  62820001           [27] call       9   2   2  
0075  9D020300           [28] getglobal  10  12       ; -332969190
0079  D9820300           [29] loadk      11  14       ; "NemesisHintProgress"
007D  A2820001           [30] call       10  2   2  
0081  C6028005           [31] loadnil    11  11     
0085  19C30300           [32] loadk      12  15       ; -51
0089  59030400           [33] loadk      13  16       ; 10
008D  A5030000           [34] closure    14  0      
0091  A0430400           [35] setglobal  14  17       ; OnPreDeathScript
0095  A0830400           [36] setglobal  14  18       ; -1566236178
0099  A5430000           [37] closure    14  1      
009D  A0C30400           [38] setglobal  14  19       ; OnPasscodeHint
00A1  A0030500           [39] setglobal  14  20       ; 634487409
00A5  A5830000           [40] closure    14  2      
00A9  12000005           [41] move       0   10     
00AD  E5C30000           [42] closure    15  3      
00B1  12000007           [43] move       0   14     
00B5  12000001           [44] move       0   2      
00B9  25040100           [45] closure    16  4      
00BD  12008004           [46] move       0   9      
00C1  12000006           [47] move       0   12     
00C5  12008006           [48] move       0   13     
00C9  12000007           [49] move       0   14     
00CD  65440100           [50] closure    17  5      
00D1  A5840100           [51] closure    18  6      
00D5  12008001           [52] move       0   3      
00D9  12008000           [53] move       0   1      
00DD  12008005           [54] move       0   11     
00E1  12008007           [55] move       0   15     
00E5  12000004           [56] move       0   8      
00E9  12008008           [57] move       0   17     
00ED  12000008           [58] move       0   16     
00F1  A0440500           [59] setglobal  18  21       ; DataKnifeStabComplete
00F5  A0840500           [60] setglobal  18  22       ; -1601474125
00F9  A5C40100           [61] closure    18  7      
00FD  12000000           [62] move       0   0      
0101  12000001           [63] move       0   2      
0105  12008000           [64] move       0   1      
0109  E5040200           [65] closure    19  8      
010D  E0C40500           [66] setglobal  19  23       ; OnVanquishOrConvertNemesis
0111  E0040600           [67] setglobal  19  24       ; 784246381
0115  E5440200           [68] closure    19  9      
0119  12000009           [69] move       0   18     
011D  12000001           [70] move       0   2      
0121  12000000           [71] move       0   0      
0125  12008000           [72] move       0   1      
0129  25850200           [73] closure    20  10     
012D  65C50200           [74] closure    21  11     
0131  12000000           [75] move       0   0      
0135  1200000A           [76] move       0   20     
0139  12008003           [77] move       0   7      
013D  12000003           [78] move       0   6      
0141  60450600           [79] setglobal  21  25       ; FinalFinisher
0145  60850600           [80] setglobal  21  26       ; 1508571689
0149  65050300           [81] closure    21  12     
014D  1200000A           [82] move       0   20     
0151  12008009           [83] move       0   19     
0155  60C50600           [84] setglobal  21  27       ; KillConvertChoiceCinematicPrepare
0159  60050700           [85] setglobal  21  28       ; 825848936
015D  65450300           [86] closure    21  13     
0161  60450700           [87] setglobal  21  29       ; LichFinisherThrow
0165  60850700           [88] setglobal  21  30       ; 811188703
0169  65850300           [89] closure    21  14     
016D  60C50700           [90] setglobal  21  31       ; LichRagdoll
0171  60050800           [91] setglobal  21  32       ; -103078935
0175  65C50300           [92] closure    21  15     
0179  12008005           [93] move       0   11     
017D  60450800           [94] setglobal  21  33       ; DataKnifeStabImpact
0181  60850800           [95] setglobal  21  34       ; -245053176
0185  1E008000           [96] return     0   1      
                         * constants:
0189  23                 sizek (35)
018A  01                 const type 3
018B  44DC9B32           const [0]: (849075268)
018F  04                 const type 4
0190  17                 string size (23)
0191  45452E496E746572+  "EE.Inter"
0199  666163652E557469+  "face.Uti"
01A1  6C697469657300     "lities\0"
                         const [1]: "EE.Interface.Utilities"
01A8  04                 const type 4
01A9  27                 string size (39)
01AA  4C6F7475732E5363+  "Lotus.Sc"
01B2  72697074732E4E65+  "ripts.Ne"
01BA  6D657369732E4E65+  "mesis.Ne"
01C2  6D6573697347656E+  "mesisGen"
01CA  657261746F7200     "erator\0"
                         const [2]: "Lotus.Scripts.Nemesis.NemesisGenerator"
01D1  04                 const type 4
01D2  21                 string size (33)
01D3  4C6F7475732E496E+  "Lotus.In"
01DB  746572666163652E+  "terface."
01E3  4C6F61646F757455+  "LoadoutU"
01EB  74696C6974696573+  "tilities"
01F3  00                 "\0"
                         const [3]: "Lotus.Interface.LoadoutUtilities"
01F4  01                 const type 3
01F5  5720287C           const [4]: (2083004503)
01F9  04                 const type 4
01FA  33                 string size (51)
01FB  2F4C6F7475732F41+  "/Lotus/A"
0203  6E696D6174696F6E+  "nimation"
020B  732F54656E6E6F2F+  "s/Tenno/"
0213  4D656E752F537461+  "Menu/Sta"
021B  6E64546F4B6E6565+  "ndToKnee"
0223  6C5F616E696D2E66+  "l_anim.f"
022B  627800             "bx\0"
                         const [5]: "/Lotus/Animations/Tenno/Menu/StandToKneel_anim.fbx"
022E  01                 const type 3
022F  BB3AA4CA           const [6]: (-895206725)
0233  04                 const type 4
0234  2A                 string size (42)
0235  2F4C6F7475732F46+  "/Lotus/F"
023D  782F456E656D6965+  "x/Enemie"
0245  732F5374616C6B65+  "s/Stalke"
024D  722F5374616C6B65+  "r/Stalke"
0255  72537061776E4F75+  "rSpawnOu"
025D  7400               "t\0"
                         const [7]: "/Lotus/Fx/Enemies/Stalker/StalkerSpawnOut"
025F  04                 const type 4
0260  4D                 string size (77)
0261  2F4C6F7475732F41+  "/Lotus/A"
0269  6E696D6174696F6E+  "nimation"
0271  732F54656E6E6F2F+  "s/Tenno/"
0279  4D656C65652F4461+  "Melee/Da"
0281  746146696E697368+  "taFinish"
0289  65722F4772696E65+  "er/Grine"
0291  6572536176654B75+  "erSaveKu"
0299  76614B6E65656C49+  "vaKneelI"
02A1  646C655F616E696D+  "dle_anim"
02A9  2E66627800         ".fbx\0"
                         const [8]: "/Lotus/Animations/Tenno/Melee/DataFinisher/GrineerSaveKuvaKneelIdle_anim.fbx"
02AE  04                 const type 4
02AF  3C                 string size (60)
02B0  2F4C6F7475732F46+  "/Lotus/F"
02B8  782F506F77657273+  "x/Powers"
02C0  7569744162696C69+  "uitAbili"
02C8  746965732F4B696E+  "ties/Kin"
02D0  6770696E732F4672+  "gpins/Fr"
02D8  69656E646C795465+  "iendlyTe"
02E0  6C65706F72745370+  "leportSp"
02E8  61776E00           "awn\0"
                         const [9]: "/Lotus/Fx/PowersuitAbilities/Kingpins/FriendlyTeleportSpawn"
02EC  01                 const type 3
02ED  29D4002C           const [10]: (738251817)
02F1  04                 const type 4
02F2  3B                 string size (59)
02F3  2F4C6F7475732F54+  "/Lotus/T"
02FB  797065732F456E65+  "ypes/Ene"
0303  6D6965732F4B7576+  "mies/Kuv"
030B  614C6963682F4B75+  "aLich/Ku"
0313  76614C6172766C69+  "vaLarvli"
031B  6E6744616D616765+  "ngDamage"
0323  436F6E74726F6C6C+  "Controll"
032B  657200             "er\0"
                         const [11]: "/Lotus/Types/Enemies/KuvaLich/KuvaLarvlingDamageController"
032E  01                 const type 3
032F  1A4B27EC           const [12]: (-332969190)
0333  04                 const type 4
0334  15                 string size (21)
0335  4E656D6573697348+  "NemesisH"
033D  656E63686D656E4B+  "enchmenK"
0345  696C6C7300         "ills\0"
                         const [13]: "NemesisHenchmenKills"
034A  04                 const type 4
034B  14                 string size (20)
034C  4E656D6573697348+  "NemesisH"
0354  696E7450726F6772+  "intProgr"
035C  65737300           "ess\0"
                         const [14]: "NemesisHintProgress"
0360  03                 const type 3
0361  CDCC4C3C           const [15]: (-51)
0365  03                 const type 3
0366  0AD7A33C           const [16]: (10)
036A  04                 const type 4
036B  11                 string size (17)
036C  4F6E507265446561+  "OnPreDea"
0374  7468536372697074+  "thScript"
037C  00                 "\0"
                         const [17]: "OnPreDeathScript"
037D  01                 const type 3
037E  EE21A5A2           const [18]: (-1566236178)
0382  04                 const type 4
0383  0F                 string size (15)
0384  4F6E50617373636F+  "OnPassco"
038C  646548696E7400     "deHint\0"
                         const [19]: "OnPasscodeHint"
0393  01                 const type 3
0394  7182D125           const [20]: (634487409)
0398  04                 const type 4
0399  16                 string size (22)
039A  446174614B6E6966+  "DataKnif"
03A2  6553746162436F6D+  "eStabCom"
03AA  706C65746500       "plete\0"
                         const [21]: "DataKnifeStabComplete"
03B0  01                 const type 3
03B1  B3718BA0           const [22]: (-1601474125)
03B5  04                 const type 4
03B6  1B                 string size (27)
03B7  4F6E56616E717569+  "OnVanqui"
03BF  73684F72436F6E76+  "shOrConv"
03C7  6572744E656D6573+  "ertNemes"
03CF  697300             "is\0"
                         const [23]: "OnVanquishOrConvertNemesis"
03D2  01                 const type 3
03D3  6DA6BE2E           const [24]: (784246381)
03D7  04                 const type 4
03D8  0E                 string size (14)
03D9  46696E616C46696E+  "FinalFin"
03E1  697368657200       "isher\0"
                         const [25]: "FinalFinisher"
03E7  01                 const type 3
03E8  29FAEA59           const [26]: (1508571689)
03EC  04                 const type 4
03ED  22                 string size (34)
03EE  4B696C6C436F6E76+  "KillConv"
03F6  65727443686F6963+  "ertChoic"
03FE  6543696E656D6174+  "eCinemat"
0406  6963507265706172+  "icPrepar"
040E  6500               "e\0"
                         const [27]: "KillConvertChoiceCinematicPrepare"
0410  01                 const type 3
0411  68743931           const [28]: (825848936)
0415  04                 const type 4
0416  12                 string size (18)
0417  4C69636846696E69+  "LichFini"
041F  736865725468726F+  "sherThro"
0427  7700               "w\0"
                         const [29]: "LichFinisherThrow"
0429  01                 const type 3
042A  DFC15930           const [30]: (811188703)
042E  04                 const type 4
042F  0C                 string size (12)
0430  4C69636852616764+  "LichRagd"
0438  6F6C6C00           "oll\0"
                         const [31]: "LichRagdoll"
043C  01                 const type 3
043D  E923DBF9           const [32]: (-103078935)
0441  04                 const type 4
0442  14                 string size (20)
0443  446174614B6E6966+  "DataKnif"
044B  6553746162496D70+  "eStabImp"
0453  61637400           "act\0"
                         const [33]: "DataKnifeStabImpact"
0457  01                 const type 3
0458  08C964F1           const [34]: (-245053176)
                         * functions:
045C  10                 sizep (16)
                         
045D                     ** function [0] definition (level 2)
                         ** start of function **
045D  00                 string size (0)
                         source name: (none)
045E  33                 line defined (51)
045F  3E                 last line defined (62)
0460  00                 nups (0)
0461  01                 numparams (1)
0462  00                 is_vararg (0)
0463  04                 maxstacksize (4)
                         * code:
0464  18                 sizecode (24)
0465  5D000000           [01] getglobal  1   0        ; 1074689893
0469  92000000           [02] move       2   0      
046D  62800001           [03] call       1   2   2  
0471  58400000           [04] test       1       1    ; to [6] if false
0475  1A400480           [05] jmp        18           ; to [24]
0479  64404000           [06] self       1   0   257  ; -2031737093
047D  62800001           [07] call       1   2   2  
0481  9D800000           [08] getglobal  2   2        ; -332969190
0485  D9C00000           [09] loadk      3   3        ; "TENNO"
0489  A2800001           [10] call       2   2   2  
fail op	35
048D  23808000           [11] close      0  
0491  1A800280           [12] jmp        11           ; to [24]
0495  5D000100           [13] getglobal  1   4        ; _T
0499  4E40C100           [14] gettable   1   1   261  ; "DespawnNemesisAlly"
049D  58000000           [15] test       1       0    ; to [17] if true
04A1  1A000180           [16] jmp        5            ; to [22]
04A5  5D000100           [17] getglobal  1   4        ; _T
04A9  4E80C100           [18] gettable   1   1   262  ; -809289664
04AD  97000000           [19] loadbool   2   0   0    ; false
04B1  62400001           [20] call       1   2   1  
04B5  1A400080           [21] jmp        2            ; to [24]
04B9  64C04100           [22] self       1   0   263  ; -725453761
04BD  62400001           [23] call       1   2   1  
04C1  1E008000           [24] return     0   1      
                         * constants:
04C5  08                 sizek (8)
04C6  01                 const type 3
04C7  65770E40           const [0]: (1074689893)
04CB  01                 const type 3
04CC  FB26E686           const [1]: (-2031737093)
04D0  01                 const type 3
04D1  1A4B27EC           const [2]: (-332969190)
04D5  04                 const type 4
04D6  06                 string size (6)
04D7  54454E4E4F00       "TENNO\0"
                         const [3]: "TENNO"
04DD  04                 const type 4
04DE  03                 string size (3)
04DF  5F5400             "_T\0"
                         const [4]: "_T"
04E2  04                 const type 4
04E3  13                 string size (19)
04E4  4465737061776E4E+  "DespawnN"
04EC  656D65736973416C+  "emesisAl"
04F4  6C7900             "ly\0"
                         const [5]: "DespawnNemesisAlly"
04F7  01                 const type 3
04F8  4038C3CF           const [6]: (-809289664)
04FC  01                 const type 3
04FD  3F74C2D4           const [7]: (-725453761)
                         * functions:
0501  00                 sizep (0)
                         * lines:
0502  18                 sizelineinfo (24)
                         [pc] (line)
0503  37                 [01] (55)
0504  00                 [02] (55)
0505  00                 [03] (55)
0506  00                 [04] (55)
0507  37                 [05] (55)
0508  00                 [06] (55)
0509  00                 [07] (55)
050A  00                 [08] (55)
050B  37                 [09] (55)
050C  00                 [10] (55)
050D  00                 [11] (55)
050E  00                 [12] (55)
050F  37                 [13] (56)
0510  00                 [14] (56)
0511  00                 [15] (56)
0512  00                 [16] (56)
0513  37                 [17] (57)
0514  00                 [18] (57)
0515  00                 [19] (57)
0516  00                 [20] (57)
0517  37                 [21] (57)
0518  00                 [22] (59)
0519  00                 [23] (59)
051A  00                 [24] (62)
                         * locals:
0563  00                 sizelocvars (0)
                         * upvalues:
0564  00                 sizeupvalues (0)
                         ** end of function **

                         
0565                     ** function [1] definition (level 2)
                         ** start of function **
0565  00                 string size (0)
                         source name: (none)
0566  40                 line defined (64)
0567  52                 last line defined (82)
0568  00                 nups (0)
0569  02                 numparams (2)
056A  00                 is_vararg (0)
056B  0C                 maxstacksize (12)
                         * code:
056C  2D                 sizecode (45)
056D  18000000           [01] test       0       0    ; to [3] if true
0571  1A400A80           [02] jmp        42           ; to [45]
fail op	35
0575  6300C000           [03] close      1  
0579  1AC00980           [04] jmp        40           ; to [45]
057D  9D400000           [05] getglobal  2   1        ; cjson
0581  8E804001           [06] gettable   2   2   258  ; -1976663275
0585  D2008000           [07] move       3   1      
0589  A2800001           [08] call       2   2   2  
058D  CEC04001           [09] gettable   3   2   259  ; "Hint"
fail op	35
0591  2300C101           [10] close      0  
0595  1A000080           [11] jmp        1            ; to [13]
0599  1AC00780           [12] jmp        32           ; to [45]
fail op	21
059D  1540C101           [13] concat     0   3   261
05A1  1A400480           [14] jmp        18           ; to [33]
05A5  1D810100           [15] getglobal  4   6        ; math
05A9  0EC14102           [16] gettable   4   4   263  ; -113279800
05AD  52018001           [17] move       5   3      
05B1  22810001           [18] call       4   2   2  
05B5  04014202           [19] mul        4   4   264  ; 0
05B9  03010184           [20] add        4   264 4    ; 0
05BD  5D410200           [21] getglobal  5   9        ; gGameRules
05C1  6481C202           [22] self       5   5   266  ; 311459921
05C5  DDC10200           [23] getglobal  7   11       ; -421772368
05C9  19020300           [24] loadk      8   12       ; "/Lotus/Language/Game/KuvaMurmur"
05CD  4B020000           [25] newtable   9   0   0    ; array=0, hash=0
05D1  E2818001           [26] call       7   3   2  
05D5  12020002           [27] move       8   4      
05D9  59420100           [28] loadk      9   5        ; 0
05DD  97020000           [29] loadbool   10  0   0    ; false
05E1  D9420300           [30] loadk      11  13       ; 0
05E5  62418003           [31] call       5   7   1  
05E9  1AC00280           [32] jmp        12           ; to [45]
05ED  5D410200           [33] getglobal  5   9        ; gGameRules
05F1  6481C202           [34] self       5   5   266  ; 311459921
05F5  DDC10200           [35] getglobal  7   11       ; -421772368
05F9  19020300           [36] loadk      8   12       ; "/Lotus/Language/Game/KuvaMurmur"
05FD  4B020000           [37] newtable   9   0   0    ; array=0, hash=0
0601  E2818001           [38] call       7   3   2  
0605  0382C301           [39] add        8   3   270  ; 0
0609  59420100           [40] loadk      9   5        ; 0
060D  97020000           [41] loadbool   10  0   0    ; false
0611  D9420300           [42] loadk      11  13       ; 0
0615  62418003           [43] call       5   7   1  
0619  1AC0FF7F           [44] jmp        0            ; to [45]
061D  1E008000           [45] return     0   1      
                         * constants:
0621  0F                 sizek (15)
0622  04                 const type 4
0623  01                 string size (0)
                         const [0]: ""
0625  04                 const type 4
0626  06                 string size (6)
0627  636A736F6E00       "cjson\0"
                         const [1]: "cjson"
062D  01                 const type 3
062E  15832E8A           const [2]: (-1976663275)
0632  04                 const type 4
0633  05                 string size (5)
0634  48696E7400         "Hint\0"
                         const [3]: "Hint"
0639  03                 const type 3
063A  000040C0           const [4]: (0)
063E  03                 const type 3
063F  00000000           const [5]: (0)
0643  04                 const type 4
0644  05                 string size (5)
0645  6D61746800         "math\0"
                         const [6]: "math"
064A  01                 const type 3
064B  C87C3FF9           const [7]: (-113279800)
064F  03                 const type 3
0650  0000C842           const [8]: (0)
0654  04                 const type 4
0655  0B                 string size (11)
0656  6747616D6552756C+  "gGameRul"
065E  657300             "es\0"
                         const [9]: "gGameRules"
0661  01                 const type 3
0662  51809012           const [10]: (311459921)
0666  01                 const type 3
0667  B043DCE6           const [11]: (-421772368)
066B  04                 const type 4
066C  20                 string size (32)
066D  2F4C6F7475732F4C+  "/Lotus/L"
0675  616E67756167652F+  "anguage/"
067D  47616D652F4B7576+  "Game/Kuv"
0685  614D75726D757200   "aMurmur\0"
                         const [12]: "/Lotus/Language/Game/KuvaMurmur"
068D  03                 const type 3
068E  00008040           const [13]: (0)
0692  03                 const type 3
0693  0000803F           const [14]: (0)
                         * functions:
0697  00                 sizep (0)
                         * lines:
0698  2D                 sizelineinfo (45)
                         [pc] (line)
0699  41                 [01] (65)
069A  00                 [02] (65)
069B  00                 [03] (65)
069C  00                 [04] (65)
069D  41                 [05] (66)
069E  00                 [06] (66)
069F  00                 [07] (66)
06A0  00                 [08] (66)
06A1  41                 [09] (67)
06A2  00                 [10] (69)
06A3  00                 [11] (69)
06A4  00                 [12] (69)
06A5  41                 [13] (71)
06A6  00                 [14] (71)
06A7  00                 [15] (72)
06A8  00                 [16] (72)
06A9  42                 [17] (72)
06AA  00                 [18] (72)
06AB  00                 [19] (72)
06AC  00                 [20] (72)
06AD  42                 [21] (73)
06AE  00                 [22] (73)
06AF  00                 [23] (73)
06B0  00                 [24] (73)
06B1  42                 [25] (73)
06B2  00                 [26] (73)
06B3  00                 [27] (73)
06B4  00                 [28] (73)
06B5  42                 [29] (73)
06B6  00                 [30] (73)
06B7  00                 [31] (73)
06B8  00                 [32] (73)
06B9  43                 [33] (76)
06BA  00                 [34] (76)
06BB  00                 [35] (76)
06BC  00                 [36] (76)
06BD  45                 [37] (76)
06BE  00                 [38] (76)
06BF  00                 [39] (76)
06C0  00                 [40] (76)
06C1  45                 [41] (76)
06C2  00                 [42] (76)
06C3  00                 [43] (76)
06C4  00                 [44] (77)
06C5  45                 [45] (82)
                         * locals:
074D  00                 sizelocvars (0)
                         * upvalues:
074E  00                 sizeupvalues (0)
                         ** end of function **

                         
074F                     ** function [2] definition (level 2)
                         ** start of function **
074F  00                 string size (0)
                         source name: (none)
0750  54                 line defined (84)
0751  64                 last line defined (100)
0752  01                 nups (1)
0753  02                 numparams (2)
0754  00                 is_vararg (0)
0755  08                 maxstacksize (8)
                         * code:
0756  21                 sizecode (33)
0757  93000000           [01] getupval   2   0      
075B  DD000000           [02] getglobal  3   0        ; 1074689893
075F  12018000           [03] move       4   1      
0763  E2800001           [04] call       3   2   2  
0767  D8400000           [05] test       3       1    ; to [7] if false
076B  1A000280           [06] jmp        9            ; to [16]
076F  DD400000           [07] getglobal  3   1        ; -332969190
0773  2481C000           [08] self       4   1   258  ; 340404473
0777  22810001           [09] call       4   2   2  
077B  5DC10000           [10] getglobal  5   3        ; -1615931716
077F  92010001           [11] move       6   2      
0783  62810001           [12] call       5   2   2  
0787  02410102           [13] concat     4   4   5  
078B  E2800001           [14] call       3   2   2  
078F  92008001           [15] move       2   3      
0793  DD000100           [16] getglobal  3   4        ; gGameRules
0797  E440C101           [17] self       3   3   261  ; -317790213
079B  52010001           [18] move       5   2      
079F  99810100           [19] loadk      6   6        ; 0
07A3  E2800002           [20] call       3   4   2  
07A7  1DC10100           [21] getglobal  4   7        ; math
07AB  0E014202           [22] gettable   4   4   264  ; -150971781
07AF  44414200           [23] mul        5   0   265  ; 0
07B3  43410185           [24] add        5   266 5    ; 0
07B7  22810001           [25] call       4   2   2  
07BB  12000002           [26] move       0   4      
07BF  C3008001           [27] add        3   3   0  
07C3  1D010100           [28] getglobal  4   4        ; gGameRules
07C7  24C14202           [29] self       4   4   267  ; -803877924
07CB  92010001           [30] move       6   2      
07CF  D2018001           [31] move       7   3      
07D3  22410002           [32] call       4   4   1  
07D7  1E008000           [33] return     0   1      
                         * constants:
07DB  0C                 sizek (12)
07DC  01                 const type 3
07DD  65770E40           const [0]: (1074689893)
07E1  01                 const type 3
07E2  1A4B27EC           const [1]: (-332969190)
07E6  01                 const type 3
07E7  F9284A14           const [2]: (340404473)
07EB  01                 const type 3
07EC  BCD6AE9F           const [3]: (-1615931716)
07F0  04                 const type 4
07F1  0B                 string size (11)
07F2  6747616D6552756C+  "gGameRul"
07FA  657300             "es\0"
                         const [4]: "gGameRules"
07FD  01                 const type 3
07FE  FBE70EED           const [5]: (-317790213)
0802  03                 const type 3
0803  00000000           const [6]: (0)
0807  04                 const type 4
0808  05                 string size (5)
0809  6D61746800         "math\0"
                         const [7]: "math"
080E  01                 const type 3
080F  7B5A00F7           const [8]: (-150971781)
0813  03                 const type 3
0814  0000C842           const [9]: (0)
0818  03                 const type 3
0819  0000003F           const [10]: (0)
081D  01                 const type 3
081E  DCCB15D0           const [11]: (-803877924)
                         * functions:
0822  00                 sizep (0)
                         * lines:
0823  21                 sizelineinfo (33)
                         [pc] (line)
0824  5A                 [01] (90)
0825  00                 [02] (92)
0826  00                 [03] (92)
0827  00                 [04] (92)
0828  5C                 [05] (92)
0829  00                 [06] (92)
082A  00                 [07] (93)
082B  00                 [08] (93)
082C  5C                 [09] (93)
082D  00                 [10] (93)
082E  00                 [11] (93)
082F  00                 [12] (93)
0830  5C                 [13] (93)
0831  00                 [14] (93)
0832  00                 [15] (93)
0833  00                 [16] (96)
0834  5C                 [17] (96)
0835  00                 [18] (96)
0836  00                 [19] (96)
0837  00                 [20] (96)
0838  5C                 [21] (97)
0839  00                 [22] (97)
083A  00                 [23] (97)
083B  00                 [24] (97)
083C  5D                 [25] (97)
083D  00                 [26] (97)
083E  00                 [27] (98)
083F  00                 [28] (99)
0840  5D                 [29] (99)
0841  00                 [30] (99)
0842  00                 [31] (99)
0843  00                 [32] (99)
0844  5D                 [33] (100)
                         * locals:
08A8  00                 sizelocvars (0)
                         * upvalues:
08A9  00                 sizeupvalues (0)
                         ** end of function **

                         
08AA                     ** function [3] definition (level 2)
                         ** start of function **
08AA  00                 string size (0)
                         source name: (none)
08AB  66                 line defined (102)
08AC  A5                 last line defined (165)
08AD  01                 nups (2)
08AE  02                 numparams (4)
08AF  04                 is_vararg (0)
08B0  00                 maxstacksize (19)
                         * code:
08B3  01                 sizecode (174)
08B4  1D010000           [001] getglobal  4   0        ; 1074689893
08B8  52010001           [002] move       5   2      
08BC  22810001           [003] call       4   2   2  
08C0  18010000           [004] test       4       0    ; to [6] if true
08C4  1A000080           [005] jmp        1            ; to [7]
08C8  1E008000           [006] return     0   1      
08CC  24414001           [007] self       4   2   257  ; -1544157541
08D0  22810001           [008] call       4   2   2  
08D4  D8000000           [009] test       3       0    ; to [11] if true
08D8  1A400680           [010] jmp        26           ; to [37]
08DC  5D810000           [011] getglobal  5   2        ; gRegion
08E0  64C1C002           [012] self       5   5   259  ; -1520831144
08E4  62810001           [013] call       5   2   2  
08E8  58010000           [014] test       5       0    ; to [16] if true
08EC  1A402780           [015] jmp        158          ; to [174]
08F0  64014102           [016] self       5   4   260  ; -645698121
08F4  62810001           [017] call       5   2   2  
fail op	35
08F8  2340C102           [018] close      0  
08FC  1A402680           [019] jmp        154          ; to [174]
0900  64814102           [020] self       5   4   262  ; 1004730815
0904  62410001           [021] call       5   2   1  
0908  5D010000           [022] getglobal  5   0        ; 1074689893
090C  A4C14101           [023] self       6   2   263  ; -1411785325
0910  A2010001           [024] call       6   2   0  
0914  62810000           [025] call       5   0   2  
0918  58410000           [026] test       5       1    ; to [28] if false
091C  1A402480           [027] jmp        146          ; to [174]
0920  64C14101           [028] self       5   2   263  ; -1411785325
0924  62810001           [029] call       5   2   2  
0928  6401C202           [030] self       5   5   264  ; 1038470555
092C  D7018000           [031] loadbool   7   1   0    ; true
0930  1D420200           [032] getglobal  8   9        ; -332969190
0934  59820200           [033] loadk      9   10       ; "KUVA_LICH_DEFEATED"
0938  22020001           [034] call       8   2   0  
093C  62410000           [035] call       5   0   1  
0940  1A002280           [036] jmp        137          ; to [174]
0944  5DC10200           [037] getglobal  5   11       ; gGameRules
0948  6401C302           [038] self       5   5   268  ; -2136864363
094C  62810001           [039] call       5   2   2  
0950  9D810000           [040] getglobal  6   2        ; gRegion
0954  A4C14003           [041] self       6   6   259  ; -1520831144
0958  A2810001           [042] call       6   2   2  
095C  98010000           [043] test       6       0    ; to [45] if true
0960  1AC00080           [044] jmp        4            ; to [49]
0964  93010000           [045] getupval   6   0      
0968  D9410300           [046] loadk      7   13       ; -51
096C  0E82C302           [047] gettable   8   5   270  ; "mPlayer"
0970  A2418001           [048] call       6   3   1  
0974  9D010000           [049] getglobal  6   0        ; 1074689893
0978  DDC10300           [050] getglobal  7   15       ; choiceMovie
097C  A2810001           [051] call       6   2   2  
0980  98410000           [052] test       6       1    ; to [54] if false
0984  1A800B80           [053] jmp        47           ; to [101]
0988  9D010000           [054] getglobal  6   0        ; 1074689893
098C  DD010400           [055] getglobal  7   16       ; gFlashMgr
0990  A2810001           [056] call       6   2   2  
0994  98410000           [057] test       6       1    ; to [59] if false
0998  1A400A80           [058] jmp        42           ; to [101]
099C  9D010000           [059] getglobal  6   0        ; 1074689893
09A0  DDC10200           [060] getglobal  7   11       ; gGameRules
09A4  A2810001           [061] call       6   2   2  
09A8  98410000           [062] test       6       1    ; to [64] if false
09AC  1A000980           [063] jmp        37           ; to [101]
09B0  9D810000           [064] getglobal  6   2        ; gRegion
09B4  A4414403           [065] self       6   6   273  ; 925677844
09B8  A2810001           [066] call       6   2   2  
09BC  CE81C302           [067] gettable   7   5   270  ; "mPlayer"
fail op	35
09C0  23C00103           [068] close      0  
09C4  1A800780           [069] jmp        31           ; to [101]
09C8  CE81C402           [070] gettable   7   5   274  ; "mTarget"
09CC  13028000           [071] getupval   8   1      
09D0  0EC24404           [072] gettable   8   8   275  ; -2079289879
09D4  52028003           [073] move       9   7      
09D8  22820001           [074] call       8   2   2  
09DC  5D020000           [075] getglobal  9   0        ; 1074689893
09E0  92020004           [076] move       10  8      
09E4  62820001           [077] call       9   2   2  
09E8  58420000           [078] test       9       1    ; to [80] if false
09EC  1A000580           [079] jmp        21           ; to [101]
09F0  5D020500           [080] getglobal  9   20       ; -421772368
09F4  99420500           [081] loadk      10  21       ; "/Lotus/Language/Kingpins/NemesisPopupRankupLabel"
09F8  D7020000           [082] loadbool   11  0   0    ; false
09FC  62828001           [083] call       9   3   2  
0A00  8E82C503           [084] gettable   10  7   278  ; "mRank"
fail op	21
0A04  15C04505           [085] concat     0   10  279
0A08  1A400380           [086] jmp        14           ; to [101]
0A0C  9D020600           [087] getglobal  10  24       ; _G
0A10  CB020100           [088] newtable   11  0   4    ; array=0, hash=4
0A14  CCC2468D           [089] settable   11  282 283  ; "IsRankUp" 1
0A18  0E83C503           [090] gettable   12  7   278  ; "mRank"
0A1C  03434706           [091] add        12  12  285  ; 0
0A20  CC02038E           [092] settable   11  284 12   ; "Rank"
0A24  0EC34704           [093] gettable   12  8   287  ; "mName"
0A28  CC02038F           [094] settable   11  286 12   ; "Name"
0A2C  CC420290           [095] settable   11  288 9    ; "Description"
0A30  8CC2828C           [096] settable   10  281 11   ; "NemesisPopup_Info"
0A34  9D020400           [097] getglobal  10  16       ; gFlashMgr
0A38  A4424805           [098] self       10  10  289  ; 38794118
0A3C  1DC30300           [099] getglobal  12  15       ; choiceMovie
0A40  A2828001           [100] call       10  3   2  
0A44  DD020000           [101] getglobal  11  0        ; 1074689893
0A48  12038000           [102] move       12  1      
0A4C  E2820001           [103] call       11  2   2  
0A50  D8420000           [104] test       11      1    ; to [106] if false
0A54  1A800180           [105] jmp        7            ; to [113]
0A58  DD820000           [106] getglobal  11  2        ; gRegion
0A5C  E4C2C005           [107] self       11  11  259  ; -1520831144
0A60  E2820001           [108] call       11  2   2  
0A64  D8020000           [109] test       11      0    ; to [111] if true
0A68  1A400080           [110] jmp        2            ; to [113]
0A6C  E482C800           [111] self       11  1   290  ; -1525609078
0A70  E2420001           [112] call       11  2   1  
0A74  E4C24801           [113] self       11  2   291  ; 1992436207
0A78  64034901           [114] self       13  2   292  ; 945541886
0A7C  62830001           [115] call       13  2   2  
0A80  97030000           [116] loadbool   14  0   0    ; false
0A84  E2420002           [117] call       11  4   1  
0A88  E4424902           [118] self       11  4   293  ; 808964080
0A8C  5D430200           [119] getglobal  13  9        ; -332969190
0A90  99830900           [120] loadk      14  38       ; "KUVA_LICH_ESCAPE"
0A94  62830001           [121] call       13  2   2  
0A98  9DC30900           [122] getglobal  14  39       ; Engine
0A9C  8E034A07           [123] gettable   14  14  296  ; "DT_ANY"
0AA0  DDC30900           [124] getglobal  15  39       ; Engine
0AA4  CE43CA07           [125] gettable   15  15  297  ; "ANY_PART"
0AA8  1DC40900           [126] getglobal  16  39       ; Engine
0AAC  0E844A08           [127] gettable   16  16  298  ; "DHT_NONE"
0AB0  59440100           [128] loadk      17  5        ; 0
0AB4  E2428003           [129] call       11  7   1  
0AB8  DDC20200           [130] getglobal  11  11       ; gGameRules
0ABC  E4C2CA05           [131] self       11  11  299  ; 440196053
0AC0  5D030B00           [132] getglobal  13  44       ; Lotus_Game
0AC4  4E43CB06           [133] gettable   13  13  301  ; "NE_NEMESIS"
0AC8  E2428001           [134] call       11  3   1  
0ACC  DD820B00           [135] getglobal  11  46       ; rankUpAnims
fail op	35
0AD0  63C0CB05           [136] close      1  
0AD4  1AC00480           [137] jmp        20           ; to [158]
0AD8  DD820B00           [138] getglobal  11  46       ; rankUpAnims
0ADC  CA028005           [139] len        11  11     
fail op	33
0AE0  21C00298           [140] tforloop   0       11   ; to [142] if exit
0AE4  1AC00380           [141] jmp        16           ; to [158]
0AE8  DD420C00           [142] getglobal  11  49       ; math
0AEC  CE82CC05           [143] gettable   11  11  306  ; -2040962569
0AF0  19030C00           [144] loadk      12  48       ; 0
0AF4  5D830B00           [145] getglobal  13  46       ; rankUpAnims
0AF8  4A038006           [146] len        13  13     
0AFC  E2828001           [147] call       11  3   2  
0B00  24C34C01           [148] self       12  2   307  ; -2037488534
0B04  9D830B00           [149] getglobal  14  46       ; rankUpAnims
0B08  8EC30207           [150] gettable   14  14  11 
0B0C  D7038000           [151] loadbool   15  1   0    ; true
0B10  1DC40900           [152] getglobal  16  39       ; Engine
0B14  0E044D08           [153] gettable   16  16  308  ; "ATMM_ANIMATION_DRIVEN"
0B18  5DC40900           [154] getglobal  17  39       ; Engine
0B1C  4E44CD08           [155] gettable   17  17  309  ; "PRT_ONCE"
0B20  97048000           [156] loadbool   18  1   0    ; true
0B24  22438003           [157] call       12  7   1  
0B28  1D030000           [158] getglobal  12  0        ; 1074689893
0B2C  52030001           [159] move       13  2      
0B30  22830001           [160] call       12  2   2  
0B34  18430000           [161] test       12      1    ; to [163] if false
0B38  1A400080           [162] jmp        2            ; to [165]
0B3C  24834D01           [163] self       12  2   310  ; -725453761
0B40  22430001           [164] call       12  2   1  
0B44  1DC30200           [165] getglobal  12  11       ; gGameRules
0B48  24C34D06           [166] self       12  12  311  ; 516385015
0B4C  22830001           [167] call       12  2   2  
0B50  64034E06           [168] self       13  12  312  ; -1105824
0B54  D7038000           [169] loadbool   15  1   0    ; true
0B58  62438001           [170] call       13  3   1  
0B5C  64434E06           [171] self       13  12  313  ; 2143938515
0B60  C6038007           [172] loadnil    15  15     
0B64  62438001           [173] call       13  3   1  
0B68  1E008000           [174] return     0   1      
                         * constants:
0B6C  3A                 sizek (58)
0B6D  01                 const type 3
0B6E  65770E40           const [0]: (1074689893)
0B72  01                 const type 3
0B73  9B06F6A3           const [1]: (-1544157541)
0B77  04                 const type 4
0B78  08                 string size (8)
0B79  67526567696F6E00   "gRegion\0"
                         const [2]: "gRegion"
0B81  01                 const type 3
0B82  58F559A5           const [3]: (-1520831144)
0B86  01                 const type 3
0B87  B76D83D9           const [4]: (-645698121)
0B8B  03                 const type 3
0B8C  00000000           const [5]: (0)
0B90  01                 const type 3
0B91  BFF9E23B           const [6]: (1004730815)
0B95  01                 const type 3
0B96  93DDD9AB           const [7]: (-1411785325)
0B9A  01                 const type 3
0B9B  9BCDE53D           const [8]: (1038470555)
0B9F  01                 const type 3
0BA0  1A4B27EC           const [9]: (-332969190)
0BA4  04                 const type 4
0BA5  13                 string size (19)
0BA6  4B5556415F4C4943+  "KUVA_LIC"
0BAE  485F444546454154+  "H_DEFEAT"
0BB6  454400             "ED\0"
                         const [10]: "KUVA_LICH_DEFEATED"
0BB9  04                 const type 4
0BBA  0B                 string size (11)
0BBB  6747616D6552756C+  "gGameRul"
0BC3  657300             "es\0"
                         const [11]: "gGameRules"
0BC6  01                 const type 3
0BC7  9509A280           const [12]: (-2136864363)
0BCB  03                 const type 3
0BCC  CDCCCC3D           const [13]: (-51)
0BD0  04                 const type 4
0BD1  08                 string size (8)
0BD2  6D506C6179657200   "mPlayer\0"
                         const [14]: "mPlayer"
0BDA  04                 const type 4
0BDB  0C                 string size (12)
0BDC  63686F6963654D6F+  "choiceMo"
0BE4  76696500           "vie\0"
                         const [15]: "choiceMovie"
0BE8  04                 const type 4
0BE9  0A                 string size (10)
0BEA  67466C6173684D67+  "gFlashMg"
0BF2  7200               "r\0"
                         const [16]: "gFlashMgr"
0BF4  01                 const type 3
0BF5  14B92C37           const [17]: (925677844)
0BF9  04                 const type 4
0BFA  08                 string size (8)
0BFB  6D54617267657400   "mTarget\0"
                         const [18]: "mTarget"
0C03  01                 const type 3
0C04  E98D1084           const [19]: (-2079289879)
0C08  01                 const type 3
0C09  B043DCE6           const [20]: (-421772368)
0C0D  04                 const type 4
0C0E  31                 string size (49)
0C0F  2F4C6F7475732F4C+  "/Lotus/L"
0C17  616E67756167652F+  "anguage/"
0C1F  4B696E6770696E73+  "Kingpins"
0C27  2F4E656D65736973+  "/Nemesis"
0C2F  506F70757052616E+  "PopupRan"
0C37  6B75704C6162656C+  "kupLabel"
0C3F  00                 "\0"
                         const [21]: "/Lotus/Language/Kingpins/NemesisPopupRankupLabel"
0C40  04                 const type 4
0C41  06                 string size (6)
0C42  6D52616E6B00       "mRank\0"
                         const [22]: "mRank"
0C48  03                 const type 3
0C49  00008040           const [23]: (0)
0C4D  04                 const type 4
0C4E  03                 string size (3)
0C4F  5F4700             "_G\0"
                         const [24]: "_G"
0C52  04                 const type 4
0C53  12                 string size (18)
0C54  4E656D6573697350+  "NemesisP"
0C5C  6F7075705F496E66+  "opup_Inf"
0C64  6F00               "o\0"
                         const [25]: "NemesisPopup_Info"
0C66  04                 const type 4
0C67  09                 string size (9)
0C68  497352616E6B5570+  "IsRankUp"
0C70  00                 "\0"
                         const [26]: "IsRankUp"
0C71  01                 const type 3
0C72  01000000           const [27]: (1)
0C76  04                 const type 4
0C77  05                 string size (5)
0C78  52616E6B00         "Rank\0"
                         const [28]: "Rank"
0C7D  03                 const type 3
0C7E  00000040           const [29]: (0)
0C82  04                 const type 4
0C83  05                 string size (5)
0C84  4E616D6500         "Name\0"
                         const [30]: "Name"
0C89  04                 const type 4
0C8A  06                 string size (6)
0C8B  6D4E616D6500       "mName\0"
                         const [31]: "mName"
0C91  04                 const type 4
0C92  0C                 string size (12)
0C93  4465736372697074+  "Descript"
0C9B  696F6E00           "ion\0"
                         const [32]: "Description"
0C9F  01                 const type 3
0CA0  86F34F02           const [33]: (38794118)
0CA4  01                 const type 3
0CA5  8A0D11A5           const [34]: (-1525609078)
0CA9  01                 const type 3
0CAA  EF29C276           const [35]: (1992436207)
0CAE  01                 const type 3
0CAF  FED25B38           const [36]: (945541886)
0CB3  01                 const type 3
0CB4  F0CF3730           const [37]: (808964080)
0CB8  04                 const type 4
0CB9  11                 string size (17)
0CBA  4B5556415F4C4943+  "KUVA_LIC"
0CC2  485F455343415045+  "H_ESCAPE"
0CCA  00                 "\0"
                         const [38]: "KUVA_LICH_ESCAPE"
0CCB  04                 const type 4
0CCC  07                 string size (7)
0CCD  456E67696E6500     "Engine\0"
                         const [39]: "Engine"
0CD4  04                 const type 4
0CD5  07                 string size (7)
0CD6  44545F414E5900     "DT_ANY\0"
                         const [40]: "DT_ANY"
0CDD  04                 const type 4
0CDE  09                 string size (9)
0CDF  414E595F50415254+  "ANY_PART"
0CE7  00                 "\0"
                         const [41]: "ANY_PART"
0CE8  04                 const type 4
0CE9  09                 string size (9)
0CEA  4448545F4E4F4E45+  "DHT_NONE"
0CF2  00                 "\0"
                         const [42]: "DHT_NONE"
0CF3  01                 const type 3
0CF4  D5DB3C1A           const [43]: (440196053)
0CF8  04                 const type 4
0CF9  0B                 string size (11)
0CFA  4C6F7475735F4761+  "Lotus_Ga"
0D02  6D6500             "me\0"
                         const [44]: "Lotus_Game"
0D05  04                 const type 4
0D06  0B                 string size (11)
0D07  4E455F4E454D4553+  "NE_NEMES"
0D0F  495300             "IS\0"
                         const [45]: "NE_NEMESIS"
0D12  04                 const type 4
0D13  0C                 string size (12)
0D14  72616E6B5570416E+  "rankUpAn"
0D1C  696D7300           "ims\0"
                         const [46]: "rankUpAnims"
0D20  00                 const type 0
                         const [47]: nil
0D21  03                 const type 3
0D22  0000803F           const [48]: (0)
0D26  04                 const type 4
0D27  05                 string size (5)
0D28  6D61746800         "math\0"
                         const [49]: "math"
0D2D  01                 const type 3
0D2E  F7615986           const [50]: (-2040962569)
0D32  01                 const type 3
0D33  6A648E86           const [51]: (-2037488534)
0D37  04                 const type 4
0D38  16                 string size (22)
0D39  41544D4D5F414E49+  "ATMM_ANI"
0D41  4D4154494F4E5F44+  "MATION_D"
0D49  524956454E00       "RIVEN\0"
                         const [52]: "ATMM_ANIMATION_DRIVEN"
0D4F  04                 const type 4
0D50  09                 string size (9)
0D51  5052545F4F4E4345+  "PRT_ONCE"
0D59  00                 "\0"
                         const [53]: "PRT_ONCE"
0D5A  01                 const type 3
0D5B  3F74C2D4           const [54]: (-725453761)
0D5F  01                 const type 3
0D60  F768C71E           const [55]: (516385015)
0D64  01                 const type 3
0D65  6020EFFF           const [56]: (-1105824)
0D69  01                 const type 3
0D6A  D3E7C97F           const [57]: (2143938515)
                         * functions:
0D6E  00                 sizep (0)
                         * lines:
0D70  01                 sizelineinfo (174)
                         [pc] (line)
0D71  67                 [001] (103)
0D72  00                 [002] (103)
0D73  00                 [003] (103)
0D74  00                 [004] (103)
0D75  67                 [005] (103)
0D76  00                 [006] (104)
0D77  00                 [007] (107)
0D78  00                 [008] (107)
0D79  67                 [009] (108)
0D7A  00                 [010] (108)
0D7B  00                 [011] (109)
0D7C  00                 [012] (109)
0D7D  67                 [013] (109)
0D7E  00                 [014] (109)
0D7F  00                 [015] (109)
0D80  00                 [016] (111)
0D81  67                 [017] (111)
0D82  00                 [018] (111)
0D83  00                 [019] (111)
0D84  00                 [020] (112)
0D85  68                 [021] (112)
0D86  00                 [022] (113)
0D87  00                 [023] (113)
0D88  00                 [024] (113)
0D89  6B                 [025] (113)
0D8A  00                 [026] (113)
0D8B  00                 [027] (113)
0D8C  00                 [028] (114)
0D8D  6B                 [029] (114)
0D8E  00                 [030] (114)
0D8F  00                 [031] (114)
0D90  00                 [032] (114)
0D91  6C                 [033] (114)
0D92  00                 [034] (114)
0D93  00                 [035] (114)
0D94  00                 [036] (117)
0D95  6C                 [037] (119)
0D96  00                 [038] (119)
0D97  00                 [039] (119)
0D98  00                 [040] (121)
0D99  6D                 [041] (121)
0D9A  00                 [042] (121)
0D9B  00                 [043] (121)
0D9C  00                 [044] (121)
0D9D  6D                 [045] (122)
0D9E  00                 [046] (122)
0D9F  00                 [047] (122)
0DA0  00                 [048] (122)
0DA1  6D                 [049] (125)
0DA2  00                 [050] (125)
0DA3  00                 [051] (125)
0DA4  00                 [052] (125)
0DA5  6D                 [053] (125)
0DA6  00                 [054] (125)
0DA7  00                 [055] (125)
0DA8  00                 [056] (125)
0DA9  6D                 [057] (125)
0DAA  00                 [058] (125)
0DAB  00                 [059] (125)
0DAC  00                 [060] (125)
0DAD  6F                 [061] (125)
0DAE  00                 [062] (125)
0DAF  00                 [063] (125)
0DB0  00                 [064] (126)
0DB1  6F                 [065] (126)
0DB2  00                 [066] (126)
0DB3  00                 [067] (127)
0DB4  00                 [068] (127)
0DB5  6F                 [069] (127)
0DB6  00                 [070] (-128)
0DB7  00                 [071] (-127)
0DB8  00                 [072] (-127)
0DB9  6F                 [073] (-127)
0DBA  00                 [074] (-127)
0DBB  00                 [075] (-126)
0DBC  00                 [076] (-126)
0DBD  70                 [077] (-126)
0DBE  00                 [078] (-126)
0DBF  00                 [079] (-126)
0DC0  00                 [080] (-125)
0DC1  70                 [081] (-125)
0DC2  00                 [082] (-125)
0DC3  00                 [083] (-125)
0DC4  00                 [084] (-122)
0DC5  71                 [085] (-122)
0DC6  00                 [086] (-122)
0DC7  00                 [087] (-120)
0DC8  00                 [088] (-120)
0DC9  71                 [089] (-120)
0DCA  00                 [090] (-120)
0DCB  00                 [091] (-120)
0DCC  00                 [092] (-120)
0DCD  71                 [093] (-120)
0DCE  00                 [094] (-120)
0DCF  00                 [095] (-120)
0DD0  00                 [096] (-120)
0DD1  71                 [097] (-119)
0DD2  00                 [098] (-119)
0DD3  00                 [099] (-119)
0DD4  00                 [100] (-119)
0DD5  71                 [101] (-113)
0DD6  00                 [102] (-113)
0DD7  00                 [103] (-113)
0DD8  00                 [104] (-113)
0DD9  71                 [105] (-113)
0DDA  00                 [106] (-113)
0DDB  00                 [107] (-113)
0DDC  00                 [108] (-113)
0DDD  72                 [109] (-113)
0DDE  00                 [110] (-113)
0DDF  00                 [111] (-112)
0DE0  00                 [112] (-112)
0DE1  72                 [113] (-109)
0DE2  00                 [114] (-109)
0DE3  00                 [115] (-109)
0DE4  00                 [116] (-109)
0DE5  72                 [117] (-109)
0DE6  00                 [118] (-108)
0DE7  00                 [119] (-108)
0DE8  00                 [120] (-108)
0DE9  72                 [121] (-108)
0DEA  00                 [122] (-108)
0DEB  00                 [123] (-108)
0DEC  00                 [124] (-108)
0DED  72                 [125] (-108)
0DEE  00                 [126] (-108)
0DEF  00                 [127] (-108)
0DF0  00                 [128] (-108)
0DF1  72                 [129] (-108)
0DF2  00                 [130] (-106)
0DF3  00                 [131] (-106)
0DF4  00                 [132] (-106)
0DF5  72                 [133] (-106)
0DF6  00                 [134] (-106)
0DF7  00                 [135] (-104)
0DF8  00                 [136] (-104)
0DF9  72                 [137] (-104)
0DFA  00                 [138] (-104)
0DFB  00                 [139] (-104)
0DFC  00                 [140] (-104)
0DFD  75                 [141] (-104)
0DFE  00                 [142] (-103)
0DFF  00                 [143] (-103)
0E00  00                 [144] (-103)
0E01  77                 [145] (-103)
0E02  00                 [146] (-103)
0E03  00                 [147] (-103)
0E04  00                 [148] (-102)
0E05  77                 [149] (-102)
0E06  00                 [150] (-102)
0E07  00                 [151] (-102)
0E08  00                 [152] (-102)
0E09  77                 [153] (-102)
0E0A  00                 [154] (-102)
0E0B  00                 [155] (-102)
0E0C  00                 [156] (-102)
0E0D  79                 [157] (-102)
0E0E  00                 [158] (-99)
0E0F  00                 [159] (-99)
0E10  00                 [160] (-99)
0E11  79                 [161] (-99)
0E12  00                 [162] (-99)
0E13  00                 [163] (-98)
0E14  00                 [164] (-98)
0E15  79                 [165] (-95)
0E16  00                 [166] (-95)
0E17  00                 [167] (-95)
0E18  00                 [168] (-94)
0E19  79                 [169] (-94)
0E1A  00                 [170] (-94)
0E1B  00                 [171] (-93)
0E1C  00                 [172] (-93)
0E1D  79                 [173] (-93)
0E1E  00                 [174] (-91)
                         * locals:
1029  00                 sizelocvars (0)
                         * upvalues:
102A  00                 sizeupvalues (0)
                         ** end of function **

                         
102B                     ** function [4] definition (level 2)
                         ** start of function **
102B  00                 string size (0)
                         source name: (none)
102D  01                 line defined (167)
102E  C1                 last line defined (193)
102F  01                 nups (4)
1030  04                 numparams (2)
1031  02                 is_vararg (0)
1032  00                 maxstacksize (9)
                         * code:
1034  50                 sizecode (80)
1035  9D000000           [01] getglobal  2   0        ; gRegion
1039  A4404001           [02] self       2   2   257  ; -1520831144
103D  A2800001           [03] call       2   2   2  
1041  98000000           [04] test       2       0    ; to [6] if true
1045  1A000680           [05] jmp        25           ; to [31]
1049  A4804000           [06] self       2   0   258  ; -1870903749
104D  A2800001           [07] call       2   2   2  
1051  E4C04000           [08] self       3   0   259  ; 766584623
1055  E2400001           [09] call       3   2   1  
1059  E4004101           [10] self       3   2   260  ; -1525609078
105D  E2400001           [11] call       3   2   1  
1061  DD400100           [12] getglobal  3   5        ; gGameRules
1065  E480C101           [13] self       3   3   262  ; -317790213
1069  53010000           [14] getupval   5   0      
106D  E2808001           [15] call       3   3   2  
1071  C3C0C101           [16] add        3   3   263  ; 0
1075  1D410100           [17] getglobal  4   5        ; gGameRules
1079  24014202           [18] self       4   4   264  ; -803877924
107D  93010000           [19] getupval   6   0      
1081  D2018001           [20] move       7   3      
1085  22410002           [21] call       4   4   1  
1089  1D410200           [22] getglobal  4   9        ; -1828500651
108D  53018000           [23] getupval   5   1      
1091  93010001           [24] getupval   6   2      
1095  DD810200           [25] getglobal  7   10       ; 1489265602
1099  E2018000           [26] call       7   1   0  
109D  22810000           [27] call       4   0   2  
10A1  53018001           [28] getupval   5   3      
10A5  92010002           [29] move       6   4      
10A9  62410001           [30] call       5   2   1  
10AD  64C1C200           [31] self       5   1   267  ; -1764426596
10B1  62810001           [32] call       5   2   2  
10B5  9D010300           [33] getglobal  6   12       ; 1074689893
10B9  D2018002           [34] move       7   5      
10BD  A2810001           [35] call       6   2   2  
10C1  98410000           [36] test       6       1    ; to [38] if false
10C5  1A400A80           [37] jmp        42           ; to [80]
10C9  A441C302           [38] self       6   5   269  ; -1888573514
10CD  A2810001           [39] call       6   2   2  
10D1  98010000           [40] test       6       0    ; to [42] if true
10D5  1A400980           [41] jmp        38           ; to [80]
10D9  9D410100           [42] getglobal  6   5        ; gGameRules
10DD  A4814303           [43] self       6   6   270  ; -2136864363
10E1  A2810001           [44] call       6   2   2  
10E5  8EC14303           [45] gettable   6   6   271  ; "mPlayer"
fail op	35
10E9  23808102           [46] close      0  
10ED  1AC00780           [47] jmp        32           ; to [80]
10F1  9D010400           [48] getglobal  6   16       ; _G
10F5  DD010400           [49] getglobal  7   16       ; _G
10F9  CE41C403           [50] gettable   7   7   273  ; "NemesisTauntCooldowns"
10FD  D8410000           [51] test       7       1    ; to [53] if false
1101  1A000080           [52] jmp        1            ; to [54]
1105  CB010000           [53] newtable   7   0   0    ; array=0, hash=0
1109  8CC18188           [54] settable   6   273 7    ; "NemesisTauntCooldowns"
110D  9D010400           [55] getglobal  6   16       ; _G
1111  8E414403           [56] gettable   6   6   273  ; "NemesisTauntCooldowns"
1115  8E814403           [57] gettable   6   6   274  ; "InfluenceProgress"
1119  98010000           [58] test       6       0    ; to [60] if true
111D  1A000280           [59] jmp        9            ; to [69]
1121  9D010400           [60] getglobal  6   16       ; _G
1125  8E414403           [61] gettable   6   6   273  ; "NemesisTauntCooldowns"
1129  8E814403           [62] gettable   6   6   274  ; "InfluenceProgress"
112D  83C14403           [63] add        6   6   275  ; 0
1131  DD410100           [64] getglobal  7   5        ; gGameRules
1135  E401C503           [65] self       7   7   276  ; 2064677581
1139  E2810001           [66] call       7   2   2  
fail op	21
113D  15C00103           [67] concat     0   6   7  
1141  1A800280           [68] jmp        11           ; to [80]
1145  9D010400           [69] getglobal  6   16       ; _G
1149  DD810500           [70] getglobal  7   22       ; -332969190
114D  19820400           [71] loadk      8   18       ; "InfluenceProgress"
1151  E2810001           [72] call       7   2   2  
1155  8CC1818A           [73] settable   6   277 7    ; "NemesisTaunt"
1159  9D010400           [74] getglobal  6   16       ; _G
115D  8E414403           [75] gettable   6   6   273  ; "NemesisTauntCooldowns"
1161  DD410100           [76] getglobal  7   5        ; gGameRules
1165  E401C503           [77] self       7   7   276  ; 2064677581
1169  E2810001           [78] call       7   2   2  
116D  8CC10189           [79] settable   6   274 7    ; "InfluenceProgress"
1171  1E008000           [80] return     0   1      
                         * constants:
1175  17                 sizek (23)
1176  04                 const type 4
1177  08                 string size (8)
1178  67526567696F6E00   "gRegion\0"
                         const [0]: "gRegion"
1180  01                 const type 3
1181  58F559A5           const [1]: (-1520831144)
1185  01                 const type 3
1186  3B467C90           const [2]: (-1870903749)
118A  01                 const type 3
118B  2F27B12D           const [3]: (766584623)
118F  01                 const type 3
1190  8A0D11A5           const [4]: (-1525609078)
1194  04                 const type 4
1195  0B                 string size (11)
1196  6747616D6552756C+  "gGameRul"
119E  657300             "es\0"
                         const [5]: "gGameRules"
11A1  01                 const type 3
11A2  FBE70EED           const [6]: (-317790213)
11A6  03                 const type 3
11A7  0000803F           const [7]: (0)
11AB  01                 const type 3
11AC  DCCB15D0           const [8]: (-803877924)
11B0  01                 const type 3
11B1  554B0393           const [9]: (-1828500651)
11B5  01                 const type 3
11B6  C263C458           const [10]: (1489265602)
11BA  01                 const type 3
11BB  9CFCD496           const [11]: (-1764426596)
11BF  01                 const type 3
11C0  65770E40           const [12]: (1074689893)
11C4  01                 const type 3
11C5  B6A76E8F           const [13]: (-1888573514)
11C9  01                 const type 3
11CA  9509A280           const [14]: (-2136864363)
11CE  04                 const type 4
11CF  08                 string size (8)
11D0  6D506C6179657200   "mPlayer\0"
                         const [15]: "mPlayer"
11D8  04                 const type 4
11D9  03                 string size (3)
11DA  5F4700             "_G\0"
                         const [16]: "_G"
11DD  04                 const type 4
11DE  16                 string size (22)
11DF  4E656D6573697354+  "NemesisT"
11E7  61756E74436F6F6C+  "auntCool"
11EF  646F776E7300       "downs\0"
                         const [17]: "NemesisTauntCooldowns"
11F5  04                 const type 4
11F6  12                 string size (18)
11F7  496E666C75656E63+  "Influenc"
11FF  6550726F67726573+  "eProgres"
1207  7300               "s\0"
                         const [18]: "InfluenceProgress"
1209  03                 const type 3
120A  00009644           const [19]: (0)
120E  01                 const type 3
120F  CD7A107B           const [20]: (2064677581)
1213  04                 const type 4
1214  0D                 string size (13)
1215  4E656D6573697354+  "NemesisT"
121D  61756E7400         "aunt\0"
                         const [21]: "NemesisTaunt"
1222  01                 const type 3
1223  1A4B27EC           const [22]: (-332969190)
                         * functions:
1227  00                 sizep (0)
                         * lines:
1228  50                 sizelineinfo (80)
                         [pc] (line)
1229  A9                 [01] (-87)
122A  00                 [02] (-87)
122B  00                 [03] (-87)
122C  00                 [04] (-87)
122D  A9                 [05] (-87)
122E  00                 [06] (-86)
122F  00                 [07] (-86)
1230  00                 [08] (-85)
1231  A9                 [09] (-85)
1232  00                 [10] (-83)
1233  00                 [11] (-83)
1234  00                 [12] (-81)
1235  A9                 [13] (-81)
1236  00                 [14] (-81)
1237  00                 [15] (-81)
1238  00                 [16] (-80)
1239  A9                 [17] (-79)
123A  00                 [18] (-79)
123B  00                 [19] (-79)
123C  00                 [20] (-79)
123D  AA                 [21] (-79)
123E  00                 [22] (-77)
123F  00                 [23] (-77)
1240  00                 [24] (-77)
1241  AA                 [25] (-77)
1242  00                 [26] (-77)
1243  00                 [27] (-77)
1244  00                 [28] (-76)
1245  AB                 [29] (-76)
1246  00                 [30] (-76)
1247  00                 [31] (-73)
1248  00                 [32] (-73)
1249  AB                 [33] (-72)
124A  00                 [34] (-72)
124B  00                 [35] (-72)
124C  00                 [36] (-72)
124D  AD                 [37] (-72)
124E  00                 [38] (-72)
124F  00                 [39] (-72)
1250  00                 [40] (-72)
1251  AD                 [41] (-72)
1252  00                 [42] (-72)
1253  00                 [43] (-72)
1254  00                 [44] (-72)
1255  AF                 [45] (-72)
1256  00                 [46] (-72)
1257  00                 [47] (-72)
1258  00                 [48] (-71)
1259  AF                 [49] (-71)
125A  00                 [50] (-71)
125B  00                 [51] (-71)
125C  00                 [52] (-71)
125D  AF                 [53] (-71)
125E  00                 [54] (-71)
125F  00                 [55] (-70)
1260  00                 [56] (-70)
1261  AF                 [57] (-70)
1262  00                 [58] (-70)
1263  00                 [59] (-70)
1264  00                 [60] (-70)
1265  B0                 [61] (-70)
1266  00                 [62] (-70)
1267  00                 [63] (-70)
1268  00                 [64] (-70)
1269  B1                 [65] (-70)
126A  00                 [66] (-70)
126B  00                 [67] (-70)
126C  00                 [68] (-70)
126D  B1                 [69] (-69)
126E  00                 [70] (-69)
126F  00                 [71] (-69)
1270  00                 [72] (-69)
1271  B1                 [73] (-69)
1272  00                 [74] (-68)
1273  00                 [75] (-68)
1274  00                 [76] (-68)
1275  B1                 [77] (-68)
1276  00                 [78] (-68)
1277  00                 [79] (-68)
1278  00                 [80] (-63)
                         * locals:
1369  00                 sizelocvars (0)
                         * upvalues:
136A  00                 sizeupvalues (0)
                         ** end of function **

                         
136B                     ** function [5] definition (level 2)
                         ** start of function **
136B  00                 string size (0)
                         source name: (none)
136D  01                 line defined (195)
136E  C7                 last line defined (199)
136F  01                 nups (0)
1370  00                 numparams (3)
1371  03                 is_vararg (0)
1372  00                 maxstacksize (6)
                         * code:
1374  0B                 sizecode (11)
1375  DD000000           [01] getglobal  3   0        ; _T
1379  CE40C001           [02] gettable   3   3   257  ; "CreateKuvaLich"
137D  D8000000           [03] test       3       0    ; to [5] if true
1381  1A400180           [04] jmp        6            ; to [11]
1385  DD000000           [05] getglobal  3   0        ; _T
1389  CE80C001           [06] gettable   3   3   258  ; 634219829
138D  12010001           [07] move       4   2      
1391  5D010000           [08] getglobal  5   0        ; _T
1395  4EC1C002           [09] gettable   5   5   259  ; "LastLarvlingDamageData"
1399  E2408001           [10] call       3   3   1  
139D  1E008000           [11] return     0   1      
                         * constants:
13A1  04                 sizek (4)
13A2  04                 const type 4
13A3  03                 string size (3)
13A4  5F5400             "_T\0"
                         const [0]: "_T"
13A7  04                 const type 4
13A8  0F                 string size (15)
13A9  4372656174654B75+  "CreateKu"
13B1  76614C69636800     "vaLich\0"
                         const [1]: "CreateKuvaLich"
13B8  01                 const type 3
13B9  356DCD25           const [2]: (634219829)
13BD  04                 const type 4
13BE  17                 string size (23)
13BF  4C6173744C617276+  "LastLarv"
13C7  6C696E6744616D61+  "lingDama"
13CF  67654461746100     "geData\0"
                         const [3]: "LastLarvlingDamageData"
                         * functions:
13D6  00                 sizep (0)
                         * lines:
13D7  0B                 sizelineinfo (11)
                         [pc] (line)
13D8  C4                 [01] (-60)
13D9  00                 [02] (-60)
13DA  00                 [03] (-60)
13DB  00                 [04] (-60)
13DC  C4                 [05] (-59)
13DD  00                 [06] (-59)
13DE  00                 [07] (-59)
13DF  00                 [08] (-59)
13E0  C4                 [09] (-59)
13E1  00                 [10] (-59)
13E2  00                 [11] (-57)
                         * locals:
1404  00                 sizelocvars (0)
                         * upvalues:
1405  00                 sizeupvalues (0)
                         ** end of function **

                         
1406                     ** function [6] definition (level 2)
                         ** start of function **
1406  00                 string size (0)
                         source name: (none)
1408  01                 line defined (201)
1409  F8                 last line defined (376)
140A  02                 nups (7)
140B  07                 numparams (2)
140C  02                 is_vararg (0)
140D  00                 maxstacksize (31)
                         * code:
1410  03                 sizecode (448)
1411  9D000000           [001] getglobal  2   0        ; 1074689893
1415  D2008000           [002] move       3   1      
1419  A2800001           [003] call       2   2   2  
141D  98400000           [004] test       2       1    ; to [6] if false
1421  1A800080           [005] jmp        3            ; to [9]
1425  A440C000           [006] self       2   1   257  ; 1309201817
1429  A2800001           [007] call       2   2   2  
142D  1A400080           [008] jmp        2            ; to [11]
1431  97400000           [009] loadbool   2   0   1    ; false, to [11]
1435  97008000           [010] loadbool   2   1   0    ; true
1439  E4804000           [011] self       3   0   258  ; -1870903749
143D  E2800001           [012] call       3   2   2  
1441  1D010000           [013] getglobal  4   0        ; 1074689893
1445  52018001           [014] move       5   3      
1449  22810001           [015] call       4   2   2  
144D  18410000           [016] test       4       1    ; to [18] if false
1451  1A406B80           [017] jmp        430          ; to [448]
1455  24C14000           [018] self       4   0   259  ; 766584623
1459  22410001           [019] call       4   2   1  
145D  1D010100           [020] getglobal  4   4        ; gGameRules
1461  24414102           [021] self       4   4   261  ; 992414443
1465  22810001           [022] call       4   2   2  
1469  5D010100           [023] getglobal  5   4        ; gGameRules
146D  6481C102           [024] self       5   5   262  ; 1861369943
1471  D7018000           [025] loadbool   7   1   0    ; true
1475  62418001           [026] call       5   3   1  
1479  57018000           [027] loadbool   5   1   0    ; true
147D  A4C1C101           [028] self       6   3   263  ; -1544157541
1481  A2810001           [029] call       6   2   2  
1485  DD010200           [030] getglobal  7   8        ; killCollection
1489  06028004           [031] loadnil    8   9      
148D  A4424203           [032] self       10  6   265  ; -1957065004
1491  1D830200           [033] getglobal  12  10       ; gKuvaLichDamageControllerType
1495  A2828001           [034] call       10  3   2  
1499  98020000           [035] test       10      0    ; to [37] if true
149D  1A001380           [036] jmp        77           ; to [114]
14A1  9D020100           [037] getglobal  10  4        ; gGameRules
14A5  A4C24205           [038] self       10  10  267  ; -2136864363
14A9  A2820001           [039] call       10  2   2  
14AD  52020005           [040] move       9   10     
14B1  A4024303           [041] self       10  6   268  ; -436676885
14B5  A2820001           [042] call       10  2   2  
14B9  12020005           [043] move       8   10     
fail op	21
14BD  15008286           [044] concat     0   269 8  
14C1  1A000080           [045] jmp        1            ; to [47]
14C5  19420300           [046] loadk      8   13       ; 0
14C9  9D020000           [047] getglobal  10  0        ; 1074689893
14CD  D2028004           [048] move       11  9      
14D1  A2820001           [049] call       10  2   2  
14D5  98420000           [050] test       10      1    ; to [52] if false
14D9  1AC00380           [051] jmp        16           ; to [68]
fail op	35
14DD  23804304           [052] close      0  
14E1  1A800080           [053] jmp        3            ; to [57]
14E5  8EC2C304           [054] gettable   10  9   271  ; "mFirstCodeCheck"
fail op	35
14E9  63004405           [055] close      1  
14ED  1A400280           [056] jmp        10           ; to [67]
fail op	35
14F1  23404404           [057] close      0  
14F5  1A800080           [058] jmp        3            ; to [62]
14F9  8E82C404           [059] gettable   10  9   274  ; "mSecondCodeCheck"
fail op	35
14FD  63004405           [060] close      1  
1501  1A000180           [061] jmp        5            ; to [67]
fail op	35
1505  23404304           [062] close      0  
1509  1AC00080           [063] jmp        4            ; to [68]
150D  8EC2C404           [064] gettable   10  9   275  ; "mThirdCodeCheck"
fail op	35
1511  23004405           [065] close      0  
1515  1A000080           [066] jmp        1            ; to [68]
1519  57010000           [067] loadbool   5   0   0    ; false
151D  58010000           [068] test       5       0    ; to [70] if true
1521  1AC00280           [069] jmp        12           ; to [82]
fail op	35
1525  23804304           [070] close      0  
1529  1A400080           [071] jmp        2            ; to [74]
152D  DD010200           [072] getglobal  7   8        ; killCollection
1531  1A800480           [073] jmp        19           ; to [93]
fail op	35
1535  23404404           [074] close      0  
1539  1A400080           [075] jmp        2            ; to [78]
153D  DD010500           [076] getglobal  7   20       ; killCollectionTwo
1541  1A800380           [077] jmp        15           ; to [93]
fail op	35
1545  23404304           [078] close      0  
1549  1A000380           [079] jmp        13           ; to [93]
154D  DD410500           [080] getglobal  7   21       ; killCollectionThree
1551  1A800280           [081] jmp        11           ; to [93]
fail op	35
1555  23804304           [082] close      0  
1559  1A400080           [083] jmp        2            ; to [86]
155D  DD810500           [084] getglobal  7   22       ; failCollection
1561  1A800180           [085] jmp        7            ; to [93]
fail op	35
1565  23404404           [086] close      0  
1569  1A400080           [087] jmp        2            ; to [90]
156D  DDC10500           [088] getglobal  7   23       ; failCollectionTwo
1571  1A800080           [089] jmp        3            ; to [93]
fail op	35
1575  23404304           [090] close      0  
1579  1A000080           [091] jmp        1            ; to [93]
157D  DD010600           [092] getglobal  7   24       ; failCollectionThree
1581  8E42C604           [093] gettable   10  9   281  ; "mPlayer"
1585  DD820600           [094] getglobal  11  26       ; gRegion
1589  E4C2C605           [095] self       11  11  283  ; 925677844
158D  E2820001           [096] call       11  2   2  
fail op	35
1591  23C00205           [097] close      0  
1595  1A800380           [098] jmp        15           ; to [114]
1599  93020000           [099] getupval   10  0      
159D  8E024705           [100] gettable   10  10  284  ; -124143215
15A1  A2828000           [101] call       10  1   2  
15A5  DD420700           [102] getglobal  11  29       ; 2083004503
15A9  0E83C704           [103] gettable   12  9   286  ; "mTarget"
15AD  0EC34706           [104] gettable   12  12  287  ; "mManifest"
15B1  E2820001           [105] call       11  2   2  
15B5  E402C805           [106] self       11  11  288  ; -350057302
15B9  52030005           [107] move       13  10     
15BD  E2828001           [108] call       11  3   2  
15C1  1D430800           [109] getglobal  12  33       ; gGameData
15C5  24834806           [110] self       12  12  290  ; -1599701663
15C9  8E038205           [111] gettable   14  11  8  
15CD  CD834304           [112] sub        15  8   270  ; 0
15D1  22430002           [113] call       12  4   1  
15D5  24434203           [114] self       12  6   265  ; -1957065004
15D9  9D830200           [115] getglobal  14  10       ; gKuvaLichDamageControllerType
15DD  22838001           [116] call       12  3   2  
15E1  18030000           [117] test       12      0    ; to [119] if true
15E5  1A400080           [118] jmp        2            ; to [121]
15E9  24C34803           [119] self       12  6   291  ; -1588737934
15ED  22430001           [120] call       12  2   1  
15F1  17030000           [121] loadbool   12  0   0    ; false
15F5  98000000           [122] test       2       0    ; to [124] if true
15F9  1A801C80           [123] jmp        115          ; to [239]
15FD  6403C900           [124] self       13  1   292  ; 1750428796
1601  DD430900           [125] getglobal  15  37       ; -332969190
1605  19840900           [126] loadk      16  38       ; "KUVA_LICH"
1609  E2830001           [127] call       15  2   2  
160D  12048003           [128] move       16  7      
1611  62430002           [129] call       13  4   1  
1615  5DC30900           [130] getglobal  13  39       ; 538022378
1619  99030A00           [131] loadk      14  40       ; 0
161D  62430001           [132] call       13  2   1  
1621  6443CA01           [133] self       13  3   297  ; -452063099
1625  DD830A00           [134] getglobal  15  42       ; Engine
1629  CEC3CA07           [135] gettable   15  15  299  ; "PM_BLOCKING_ANIM"
162D  17040000           [136] loadbool   16  0   0    ; false
1631  62430002           [137] call       13  4   1  
1635  6403CB00           [138] self       13  1   300  ; 913549167
1639  62830001           [139] call       13  2   2  
163D  9D030000           [140] getglobal  14  0        ; 1074689893
1641  D2038006           [141] move       15  13     
1645  A2830001           [142] call       14  2   2  
1649  98430000           [143] test       14      1    ; to [145] if false
164D  1A400280           [144] jmp        10           ; to [155]
1651  A443CB06           [145] self       14  13  301  ; 361511847
1655  12048000           [146] move       16  1      
1659  52048001           [147] move       17  3      
165D  A2830002           [148] call       14  4   2  
1661  98030000           [149] test       14      0    ; to [151] if true
1665  1A400180           [150] jmp        6            ; to [157]
1669  A483CB01           [151] self       14  3   302  ; -117614403
166D  A2830001           [152] call       14  2   2  
fail op	9
1671  89030007           [153] settable   14  14  0  
1675  1A400080           [154] jmp        2            ; to [157]
1679  97430000           [155] loadbool   14  0   1    ; false, to [157]
167D  97038000           [156] loadbool   14  1   0    ; true
1681  98030000           [157] test       14      0    ; to [159] if true
1685  1A401080           [158] jmp        66           ; to [225]
1689  E4434203           [159] self       15  6   265  ; -1957065004
168D  5D840200           [160] getglobal  17  10       ; gKuvaLichDamageControllerType
1691  E2838001           [161] call       15  3   2  
1695  D8030000           [162] test       15      0    ; to [164] if true
1699  1A000E80           [163] jmp        57           ; to [221]
169D  DDC30B00           [164] getglobal  15  47       ; _T
16A1  CE03CC07           [165] gettable   15  15  304  ; "LichCombination"
fail op	35
16A5  2340CC07           [166] close      0  
16A9  1A800780           [167] jmp        31           ; to [199]
16AD  DDC30B00           [168] getglobal  15  47       ; _T
16B1  0B040001           [169] newtable   16  2   0    ; array=2, hash=0
16B5  53048000           [170] getupval   17  1      
16B9  4E84CC08           [171] gettable   17  17  306  ; -132701534
fail op	33
16BD  61000287           [172] tforloop   1       8    ; to [174] if exit
16C1  1A000080           [173] jmp        1            ; to [175]
16C5  97440000           [174] loadbool   18  0   1    ; false, to [176]
16C9  97048000           [175] loadbool   18  1   0    ; true
16CD  CEC4C304           [176] gettable   19  9   271  ; "mFirstCodeCheck"
16D1  0605000A           [177] loadnil    20  20     
16D5  62840002           [178] call       17  4   2  
16D9  93048000           [179] getupval   18  1      
16DD  8E844C09           [180] gettable   18  18  306  ; -132701534
fail op	33
16E1  61008288           [181] tforloop   1       8    ; to [183] if exit
16E5  1A000080           [182] jmp        1            ; to [184]
16E9  D7440000           [183] loadbool   19  0   1    ; false, to [185]
16ED  D7048000           [184] loadbool   19  1   0    ; true
16F1  0E85C404           [185] gettable   20  9   274  ; "mSecondCodeCheck"
16F5  4605800A           [186] loadnil    21  21     
16F9  A2840002           [187] call       18  4   2  
16FD  D3048000           [188] getupval   19  1      
1701  CE84CC09           [189] gettable   19  19  306  ; -132701534
fail op	33
1705  61008286           [190] tforloop   1       8    ; to [192] if exit
1709  1A000080           [191] jmp        1            ; to [193]
170D  17450000           [192] loadbool   20  0   1    ; false, to [194]
1711  17058000           [193] loadbool   20  1   0    ; true
1715  4EC5C404           [194] gettable   21  9   275  ; "mThirdCodeCheck"
1719  8605000B           [195] loadnil    22  22     
171D  E2040002           [196] call       19  4   0  
1721  1B440000           [197] setlist    16  0   1    ; index 1 to top
1725  CC030498           [198] settable   15  304 16   ; "LichCombination"
1729  DDC30C00           [199] getglobal  15  51       ; gFlashMgr
172D  E403CD07           [200] self       15  15  308  ; 1634586770
1731  5D440D00           [201] getglobal  17  53       ; finisherMovie
1735  E2838001           [202] call       15  3   2  
fail op	8
1739  C8030001           [203] setupval   15  2      
173D  DD030000           [204] getglobal  15  0        ; 1074689893
1741  13040001           [205] getupval   16  2      
1745  E2830001           [206] call       15  2   2  
1749  D8430000           [207] test       15      1    ; to [209] if false
174D  1A000180           [208] jmp        5            ; to [214]
1751  D3030001           [209] getupval   15  2      
1755  E483CD07           [210] self       15  15  310  ; 1167009705
1759  59C40D00           [211] loadk      17  55       ; "Close"
175D  99040E00           [212] loadk      18  56       ; ""
1761  E2430002           [213] call       15  4   1  
1765  DDC30C00           [214] getglobal  15  51       ; gFlashMgr
1769  E443CE07           [215] self       15  15  313  ; 38794118
176D  5D440D00           [216] getglobal  17  53       ; finisherMovie
1771  E2838001           [217] call       15  3   2  
fail op	8
1775  C8030001           [218] setupval   15  2      
1779  DDC30B00           [219] getglobal  15  47       ; _T
177D  CC434C98           [220] settable   15  304 305  ; "LichCombination" nil
1781  E483CE00           [221] self       15  1   314  ; -705393237
1785  E2430001           [222] call       15  2   1  
1789  17038000           [223] loadbool   12  1   0    ; true
178D  1A400380           [224] jmp        14           ; to [239]
1791  DDC30E00           [225] getglobal  15  59       ; -1817107093
1795  19040F00           [226] loadk      16  60       ; "EvaluateVictim returned false!!! Let's see if we can figure out why"
1799  E2430001           [227] call       15  2   1  
179D  E483CB01           [228] self       15  3   302  ; -117614403
17A1  E2830001           [229] call       15  2   2  
17A5  D8030000           [230] test       15      0    ; to [232] if true
17A9  1A800180           [231] jmp        7            ; to [239]
17AD  DDC30E00           [232] getglobal  15  59       ; -1817107093
17B1  19440F00           [233] loadk      16  61       ; "Victim "
17B5  6484CF01           [234] self       17  3   318  ; 455421500
17B9  62840001           [235] call       17  2   2  
17BD  99C40F00           [236] loadk      18  63       ; " is already doing a finisher."
17C1  02840408           [237] concat     16  16  18 
17C5  E2430001           [238] call       15  2   1  
17C9  D7030000           [239] loadbool   15  0   0    ; false
17CD  19840300           [240] loadk      16  14       ; 0
17D1  5D040000           [241] getglobal  17  0        ; 1074689893
17D5  92048000           [242] move       18  1      
17D9  62840001           [243] call       17  2   2  
17DD  58440000           [244] test       17      1    ; to [246] if false
17E1  1A000380           [245] jmp        13           ; to [259]
17E5  6484CB00           [246] self       17  1   302  ; -117614403
17E9  62840001           [247] call       17  2   2  
17ED  58440000           [248] test       17      1    ; to [250] if false
17F1  1A000280           [249] jmp        9            ; to [259]
fail op	21
17F5  15000494           [250] concat     0   296 16 
17F9  1A800180           [251] jmp        7            ; to [259]
17FD  5DC40900           [252] getglobal  17  39       ; 538022378
1801  99040A00           [253] loadk      18  40       ; 0
1805  62440001           [254] call       17  2   1  
1809  5D041000           [255] getglobal  17  64       ; 1289681407
180D  62848000           [256] call       17  1   2  
1811  0D440408           [257] sub        16  16  17 
1815  1A40FB7F           [258] jmp        -18          ; to [241]
1819  5D040000           [259] getglobal  17  0        ; 1074689893
181D  92048000           [260] move       18  1      
1821  62840001           [261] call       17  2   2  
1825  58440000           [262] test       17      1    ; to [264] if false
1829  1A000280           [263] jmp        9            ; to [273]
182D  6484CB00           [264] self       17  1   302  ; -117614403
1831  62840001           [265] call       17  2   2  
1835  58040000           [266] test       17      0    ; to [268] if true
1839  1A000180           [267] jmp        5            ; to [273]
183D  D7038000           [268] loadbool   15  1   0    ; true
1841  5DC40900           [269] getglobal  17  39       ; 538022378
1845  99040A00           [270] loadk      18  40       ; 0
1849  62440001           [271] call       17  2   1  
184D  1A40FC7F           [272] jmp        -14          ; to [259]
1851  D8430000           [273] test       15      1    ; to [275] if false
1855  1A402080           [274] jmp        130          ; to [405]
1859  98000000           [275] test       2       0    ; to [277] if true
185D  1A000280           [276] jmp        9            ; to [286]
1861  5D441000           [277] getglobal  17  65       ; gChallengeMgr
1865  6484D008           [278] self       17  17  322  ; 137898418
1869  DD840600           [279] getglobal  19  26       ; gRegion
186D  E4C4C609           [280] self       19  19  283  ; 925677844
1871  E2840001           [281] call       19  2   2  
1875  1D450900           [282] getglobal  20  37       ; -332969190
1879  59C51000           [283] loadk      21  67       ; "EXECUTION_END"
187D  22050001           [284] call       20  2   0  
1881  62440000           [285] call       17  0   1  
1885  5D040000           [286] getglobal  17  0        ; 1074689893
1889  92048000           [287] move       18  1      
188D  62840001           [288] call       17  2   2  
1891  58440000           [289] test       17      1    ; to [291] if false
1895  1A400380           [290] jmp        14           ; to [305]
1899  5D040000           [291] getglobal  17  0        ; 1074689893
189D  92048001           [292] move       18  3      
18A1  62840001           [293] call       17  2   2  
18A5  58440000           [294] test       17      1    ; to [296] if false
18A9  1A000280           [295] jmp        9            ; to [305]
18AD  5DC40E00           [296] getglobal  17  59       ; -1817107093
18B1  99041100           [297] loadk      18  68       ; "Finisher animation failed for "
18B5  E444D100           [298] self       19  1   325  ; 880936306
18B9  E2840001           [299] call       19  2   2  
18BD  19851100           [300] loadk      20  70       ; " on "
18C1  6445D101           [301] self       21  3   325  ; 880936306
18C5  62850001           [302] call       21  2   2  
18C9  82440509           [303] concat     18  18  21 
18CD  62440001           [304] call       17  2   1  
18D1  18030000           [305] test       12      0    ; to [307] if true
18D5  1A800080           [306] jmp        3            ; to [310]
18D9  5DC40E00           [307] getglobal  17  59       ; -1817107093
18DD  99C41100           [308] loadk      18  71       ; "The host must have refused our request!"
18E1  62440001           [309] call       17  2   1  
18E5  58010000           [310] test       5       0    ; to [312] if true
18E9  1A400A80           [311] jmp        42           ; to [354]
18ED  5D440700           [312] getglobal  17  29       ; 2083004503
18F1  99041200           [313] loadk      18  72       ; "/Lotus/Animations/Tenno/Contextual/HackDeviceStart_anim.fbx"
18F5  62840001           [314] call       17  2   2  
18F9  9D440700           [315] getglobal  18  29       ; 2083004503
18FD  D9441200           [316] loadk      19  73       ; "/Lotus/Animations/Tenno/Contextual/HackDeviceEnd_anim.fbx"
1901  A2840001           [317] call       18  2   2  
1905  DD440700           [318] getglobal  19  29       ; 2083004503
1909  19851200           [319] loadk      20  74       ; "/Lotus/Animations/Grineer/EhraRok/PreDeathStart_anim.fbx"
190D  E2840001           [320] call       19  2   2  
1911  1D050000           [321] getglobal  20  0        ; 1074689893
1915  52058000           [322] move       21  1      
1919  22850001           [323] call       20  2   2  
191D  18450000           [324] test       20      1    ; to [326] if false
1921  1A801380           [325] jmp        79           ; to [405]
1925  24C5D200           [326] self       20  1   331  ; -2037488534
1929  92058008           [327] move       22  17     
192D  D7058000           [328] loadbool   23  1   0    ; true
1931  1D860A00           [329] getglobal  24  42       ; Engine
1935  0E06530C           [330] gettable   24  24  332  ; "ATMM_ANIMATION_DRIVEN"
1939  5D860A00           [331] getglobal  25  42       ; Engine
193D  4E46D30C           [332] gettable   25  25  333  ; "PRT_FREEZE"
1941  97068000           [333] loadbool   26  1   0    ; true
1945  22458003           [334] call       20  7   1  
1949  24C5D201           [335] self       20  3   331  ; -2037488534
194D  92058009           [336] move       22  19     
1951  D7050000           [337] loadbool   23  0   0    ; false
1955  1D860A00           [338] getglobal  24  42       ; Engine
1959  0E06530C           [339] gettable   24  24  332  ; "ATMM_ANIMATION_DRIVEN"
195D  5D860A00           [340] getglobal  25  42       ; Engine
1961  4E86D30C           [341] gettable   25  25  334  ; "PRT_ONCE"
1965  97068000           [342] loadbool   26  1   0    ; true
1969  22458003           [343] call       20  7   1  
196D  24C5D200           [344] self       20  1   331  ; -2037488534
1971  92050009           [345] move       22  18     
1975  D7058000           [346] loadbool   23  1   0    ; true
1979  1D860A00           [347] getglobal  24  42       ; Engine
197D  0E06530C           [348] gettable   24  24  332  ; "ATMM_ANIMATION_DRIVEN"
1981  5D860A00           [349] getglobal  25  42       ; Engine
1985  4E86D30C           [350] gettable   25  25  334  ; "PRT_ONCE"
1989  97068000           [351] loadbool   26  1   0    ; true
198D  22458003           [352] call       20  7   1  
1991  1A800C80           [353] jmp        51           ; to [405]
1995  1D450700           [354] getglobal  20  29       ; 2083004503
1999  59C51300           [355] loadk      21  79       ; "/Lotus/Animations/Grineer/KuvaLich/MeleeSprintSwing02_anim.fbx"
199D  22850001           [356] call       20  2   2  
19A1  6405D401           [357] self       21  3   336  ; -1925372830
19A5  D9451400           [358] loadk      23  81       ; "MeleeStart"
19A9  24C6D201           [359] self       24  3   331  ; -2037488534
19AD  9206000A           [360] move       26  20     
19B1  D7060000           [361] loadbool   27  0   0    ; false
19B5  1D870A00           [362] getglobal  28  42       ; Engine
19B9  0E07530E           [363] gettable   28  28  332  ; "ATMM_ANIMATION_DRIVEN"
19BD  5D870A00           [364] getglobal  29  42       ; Engine
19C1  4E87D30E           [365] gettable   29  29  334  ; "PRT_ONCE"
19C5  97078000           [366] loadbool   30  1   0    ; true
19C9  22068003           [367] call       24  7   0  
19CD  62450000           [368] call       21  0   1  
19D1  5D050000           [369] getglobal  21  0        ; 1074689893
19D5  92058000           [370] move       22  1      
19D9  62850001           [371] call       21  2   2  
19DD  58450000           [372] test       21      1    ; to [374] if false
19E1  1AC00680           [373] jmp        28           ; to [402]
19E5  98000000           [374] test       2       0    ; to [376] if true
19E9  1A400680           [375] jmp        26           ; to [402]
19ED  5D850A00           [376] getglobal  21  42       ; Engine
19F1  4E85D40A           [377] gettable   21  21  338  ; -98643418
19F5  62858000           [378] call       21  1   2  
19F9  A4C5D40A           [379] self       22  21  339  ; -420630141
19FD  12068001           [380] move       24  3      
1A01  A2458001           [381] call       22  3   1  
1A05  A405D50A           [382] self       22  21  340  ; -793712901
1A09  1D860A00           [383] getglobal  24  42       ; Engine
1A0D  0E46550C           [384] gettable   24  24  341  ; "TORSO"
1A11  A2458001           [385] call       22  3   1  
1A15  A485D50A           [386] self       22  21  342  ; 1398603399
1A19  1DC61500           [387] getglobal  24  87       ; Game
1A1D  0E06560C           [388] gettable   24  24  344  ; "PT_RAGDOLL"
1A21  57068000           [389] loadbool   25  1   0    ; true
1A25  A2450002           [390] call       22  4   1  
1A29  9D850A00           [391] getglobal  22  42       ; Engine
1A2D  8E85560B           [392] gettable   22  22  346  ; "RAGDOLL"
1A31  4C8585AC           [393] settable   21  345 22   ; "injuryType"
1A35  A4C5D60A           [394] self       22  21  347  ; 862075383
1A39  2406D701           [395] self       24  3   348  ; -365711519
1A3D  22860001           [396] call       24  2   2  
1A41  0446570C           [397] mul        24  24  349  ; 0
1A45  A2458001           [398] call       22  3   1  
1A49  A485D700           [399] self       22  1   350  ; 1193457265
1A4D  1206800A           [400] move       24  21     
1A51  A2458001           [401] call       22  3   1  
1A55  9DC50900           [402] getglobal  22  39       ; 538022378
1A59  D9850300           [403] loadk      23  14       ; 0
1A5D  A2450001           [404] call       22  2   1  
1A61  A4454203           [405] self       22  6   265  ; -1957065004
1A65  1D860200           [406] getglobal  24  10       ; gKuvaLichDamageControllerType
1A69  A2858001           [407] call       22  3   2  
1A6D  98050000           [408] test       22      0    ; to [410] if true
1A71  1A800180           [409] jmp        7            ; to [417]
1A75  93058001           [410] getupval   22  3      
1A79  D2050000           [411] move       23  0      
1A7D  12068000           [412] move       24  1      
1A81  52068001           [413] move       25  3      
1A85  92068002           [414] move       26  5      
1A89  A2458002           [415] call       22  5   1  
1A8D  1A800380           [416] jmp        15           ; to [432]
1A91  A4454203           [417] self       22  6   265  ; -1957065004
1A95  13060002           [418] getupval   24  4      
1A99  A2858001           [419] call       22  3   2  
1A9D  98050000           [420] test       22      0    ; to [422] if true
1AA1  1A400180           [421] jmp        6            ; to [428]
1AA5  93058002           [422] getupval   22  5      
1AA9  D2050000           [423] move       23  0      
1AAD  12068000           [424] move       24  1      
1AB1  52068001           [425] move       25  3      
1AB5  A2450002           [426] call       22  4   1  
1AB9  1AC00080           [427] jmp        4            ; to [432]
1ABD  93050003           [428] getupval   22  6      
1AC1  D2050000           [429] move       23  0      
1AC5  12068000           [430] move       24  1      
1AC9  A2458001           [431] call       22  3   1  
1ACD  9D050000           [432] getglobal  22  0        ; 1074689893
1AD1  D2058000           [433] move       23  1      
1AD5  A2850001           [434] call       22  2   2  
1AD9  98450000           [435] test       22      1    ; to [437] if false
1ADD  1A800180           [436] jmp        7            ; to [444]
1AE1  A405C900           [437] self       22  1   292  ; 1750428796
1AE5  1D460900           [438] getglobal  24  37       ; -332969190
1AE9  59860900           [439] loadk      25  38       ; "KUVA_LICH"
1AED  22860001           [440] call       24  2   2  
1AF1  4606800C           [441] loadnil    25  25     
1AF5  97060000           [442] loadbool   26  0   0    ; false
1AF9  A2458002           [443] call       22  5   1  
1AFD  9D050100           [444] getglobal  22  4        ; gGameRules
1B01  A485410B           [445] self       22  22  262  ; 1861369943
1B05  12060002           [446] move       24  4      
1B09  A2458001           [447] call       22  3   1  
1B0D  1E008000           [448] return     0   1      
                         * constants:
1B11  5F                 sizek (95)
1B12  01                 const type 3
1B13  65770E40           const [0]: (1074689893)
1B17  01                 const type 3
1B18  99D5084E           const [1]: (1309201817)
1B1C  01                 const type 3
1B1D  3B467C90           const [2]: (-1870903749)
1B21  01                 const type 3
1B22  2F27B12D           const [3]: (766584623)
1B26  04                 const type 4
1B27  0B                 string size (11)
1B28  6747616D6552756C+  "gGameRul"
1B30  657300             "es\0"
                         const [4]: "gGameRules"
1B33  01                 const type 3
1B34  EB0A273B           const [5]: (992414443)
1B38  01                 const type 3
1B39  5740F26E           const [6]: (1861369943)
1B3D  01                 const type 3
1B3E  9B06F6A3           const [7]: (-1544157541)
1B42  04                 const type 4
1B43  0F                 string size (15)
1B44  6B696C6C436F6C6C+  "killColl"
1B4C  656374696F6E00     "ection\0"
                         const [8]: "killCollection"
1B53  01                 const type 3
1B54  D48E598B           const [9]: (-1957065004)
1B58  04                 const type 4
1B59  1E                 string size (30)
1B5A  674B7576614C6963+  "gKuvaLic"
1B62  6844616D61676543+  "hDamageC"
1B6A  6F6E74726F6C6C65+  "ontrolle"
1B72  725479706500       "rType\0"
                         const [10]: "gKuvaLichDamageControllerType"
1B78  01                 const type 3
1B79  9509A280           const [11]: (-2136864363)
1B7D  01                 const type 3
1B7E  EBD6F8E5           const [12]: (-436676885)
1B82  03                 const type 3
1B83  00004040           const [13]: (0)
1B87  03                 const type 3
1B88  0000803F           const [14]: (0)
1B8C  04                 const type 4
1B8D  10                 string size (16)
1B8E  6D4669727374436F+  "mFirstCo"
1B96  6465436865636B00   "deCheck\0"
                         const [15]: "mFirstCodeCheck"
1B9E  01                 const type 3
1B9F  00000000           const [16]: (0)
1BA3  03                 const type 3
1BA4  00000040           const [17]: (0)
1BA8  04                 const type 4
1BA9  11                 string size (17)
1BAA  6D5365636F6E6443+  "mSecondC"
1BB2  6F6465436865636B+  "odeCheck"
1BBA  00                 "\0"
                         const [18]: "mSecondCodeCheck"
1BBB  04                 const type 4
1BBC  10                 string size (16)
1BBD  6D5468697264436F+  "mThirdCo"
1BC5  6465436865636B00   "deCheck\0"
                         const [19]: "mThirdCodeCheck"
1BCD  04                 const type 4
1BCE  12                 string size (18)
1BCF  6B696C6C436F6C6C+  "killColl"
1BD7  656374696F6E5477+  "ectionTw"
1BDF  6F00               "o\0"
                         const [20]: "killCollectionTwo"
1BE1  04                 const type 4
1BE2  14                 string size (20)
1BE3  6B696C6C436F6C6C+  "killColl"
1BEB  656374696F6E5468+  "ectionTh"
1BF3  72656500           "ree\0"
                         const [21]: "killCollectionThree"
1BF7  04                 const type 4
1BF8  0F                 string size (15)
1BF9  6661696C436F6C6C+  "failColl"
1C01  656374696F6E00     "ection\0"
                         const [22]: "failCollection"
1C08  04                 const type 4
1C09  12                 string size (18)
1C0A  6661696C436F6C6C+  "failColl"
1C12  656374696F6E5477+  "ectionTw"
1C1A  6F00               "o\0"
                         const [23]: "failCollectionTwo"
1C1C  04                 const type 4
1C1D  14                 string size (20)
1C1E  6661696C436F6C6C+  "failColl"
1C26  656374696F6E5468+  "ectionTh"
1C2E  72656500           "ree\0"
                         const [24]: "failCollectionThree"
1C32  04                 const type 4
1C33  08                 string size (8)
1C34  6D506C6179657200   "mPlayer\0"
                         const [25]: "mPlayer"
1C3C  04                 const type 4
1C3D  08                 string size (8)
1C3E  67526567696F6E00   "gRegion\0"
                         const [26]: "gRegion"
1C46  01                 const type 3
1C47  14B92C37           const [27]: (925677844)
1C4B  01                 const type 3
1C4C  91B999F8           const [28]: (-124143215)
1C50  01                 const type 3
1C51  5720287C           const [29]: (2083004503)
1C55  04                 const type 4
1C56  08                 string size (8)
1C57  6D54617267657400   "mTarget\0"
                         const [30]: "mTarget"
1C5F  04                 const type 4
1C60  0A                 string size (10)
1C61  6D4D616E69666573+  "mManifes"
1C69  7400               "t\0"
                         const [31]: "mManifest"
1C6B  01                 const type 3
1C6C  AA8C22EB           const [32]: (-350057302)
1C70  04                 const type 4
1C71  0A                 string size (10)
1C72  6747616D65446174+  "gGameDat"
1C7A  6100               "a\0"
                         const [33]: "gGameData"
1C7C  01                 const type 3
1C7D  617DA6A0           const [34]: (-1599701663)
1C81  01                 const type 3
1C82  72C84DA1           const [35]: (-1588737934)
1C86  01                 const type 3
1C87  7C6C5568           const [36]: (1750428796)
1C8B  01                 const type 3
1C8C  1A4B27EC           const [37]: (-332969190)
1C90  04                 const type 4
1C91  0A                 string size (10)
1C92  4B5556415F4C4943+  "KUVA_LIC"
1C9A  4800               "H\0"
                         const [38]: "KUVA_LICH"
1C9C  01                 const type 3
1C9D  EA911120           const [39]: (538022378)
1CA1  03                 const type 3
1CA2  00000000           const [40]: (0)
1CA6  01                 const type 3
1CA7  85100EE5           const [41]: (-452063099)
1CAB  04                 const type 4
1CAC  07                 string size (7)
1CAD  456E67696E6500     "Engine\0"
                         const [42]: "Engine"
1CB4  04                 const type 4
1CB5  11                 string size (17)
1CB6  504D5F424C4F434B+  "PM_BLOCK"
1CBE  494E475F414E494D+  "ING_ANIM"
1CC6  00                 "\0"
                         const [43]: "PM_BLOCKING_ANIM"
1CC7  01                 const type 3
1CC8  6FA77336           const [44]: (913549167)
1CCC  01                 const type 3
1CCD  A73B8C15           const [45]: (361511847)
1CD1  01                 const type 3
1CD2  BD58FDF8           const [46]: (-117614403)
1CD6  04                 const type 4
1CD7  03                 string size (3)
1CD8  5F5400             "_T\0"
                         const [47]: "_T"
1CDB  04                 const type 4
1CDC  10                 string size (16)
1CDD  4C696368436F6D62+  "LichComb"
1CE5  696E6174696F6E00   "ination\0"
                         const [48]: "LichCombination"
1CED  00                 const type 0
                         const [49]: nil
1CEE  01                 const type 3
1CEF  A22217F8           const [50]: (-132701534)
1CF3  04                 const type 4
1CF4  0A                 string size (10)
1CF5  67466C6173684D67+  "gFlashMg"
1CFD  7200               "r\0"
                         const [51]: "gFlashMgr"
1CFF  01                 const type 3
1D00  92D06D61           const [52]: (1634586770)
1D04  04                 const type 4
1D05  0E                 string size (14)
1D06  66696E6973686572+  "finisher"
1D0E  4D6F76696500       "Movie\0"
                         const [53]: "finisherMovie"
1D14  01                 const type 3
1D15  A9278F45           const [54]: (1167009705)
1D19  04                 const type 4
1D1A  06                 string size (6)
1D1B  436C6F736500       "Close\0"
                         const [55]: "Close"
1D21  04                 const type 4
1D22  01                 string size (0)
                         const [56]: ""
1D24  01                 const type 3
1D25  86F34F02           const [57]: (38794118)
1D29  01                 const type 3
1D2A  AB8DF4D5           const [58]: (-705393237)
1D2E  01                 const type 3
1D2F  6B25B193           const [59]: (-1817107093)
1D33  04                 const type 4
1D34  44                 string size (68)
1D35  4576616C75617465+  "Evaluate"
1D3D  56696374696D2072+  "Victim r"
1D45  657475726E656420+  "eturned "
1D4D  66616C7365212121+  "false!!!"
1D55  204C657427732073+  " Let's s"
1D5D  6565206966207765+  "ee if we"
1D65  2063616E20666967+  " can fig"
1D6D  757265206F757420+  "ure out "
1D75  77687900           "why\0"
                         const [60]: "EvaluateVictim returned false!!! Let's see if we can figure out why"
1D79  04                 const type 4
1D7A  08                 string size (8)
1D7B  56696374696D2000   "Victim \0"
                         const [61]: "Victim "
1D83  01                 const type 3
1D84  3C2E251B           const [62]: (455421500)
1D88  04                 const type 4
1D89  1E                 string size (30)
1D8A  20697320616C7265+  " is alre"
1D92  61647920646F696E+  "ady doin"
1D9A  6720612066696E69+  "g a fini"
1DA2  736865722E00       "sher.\0"
                         const [63]: " is already doing a finisher."
1DA8  01                 const type 3
1DA9  FFF9DE4C           const [64]: (1289681407)
1DAD  04                 const type 4
1DAE  0E                 string size (14)
1DAF  674368616C6C656E+  "gChallen"
1DB7  67654D677200       "geMgr\0"
                         const [65]: "gChallengeMgr"
1DBD  01                 const type 3
1DBE  B2293808           const [66]: (137898418)
1DC2  04                 const type 4
1DC3  0E                 string size (14)
1DC4  455845435554494F+  "EXECUTIO"
1DCC  4E5F454E4400       "N_END\0"
                         const [67]: "EXECUTION_END"
1DD2  04                 const type 4
1DD3  1F                 string size (31)
1DD4  46696E6973686572+  "Finisher"
1DDC  20616E696D617469+  " animati"
1DE4  6F6E206661696C65+  "on faile"
1DEC  6420666F722000     "d for \0"
                         const [68]: "Finisher animation failed for "
1DF3  01                 const type 3
1DF4  72058234           const [69]: (880936306)
1DF8  04                 const type 4
1DF9  05                 string size (5)
1DFA  206F6E2000         " on \0"
                         const [70]: " on "
1DFF  04                 const type 4
1E00  28                 string size (40)
1E01  54686520686F7374+  "The host"
1E09  206D757374206861+  " must ha"
1E11  7665207265667573+  "ve refus"
1E19  6564206F75722072+  "ed our r"
1E21  6571756573742100   "equest!\0"
                         const [71]: "The host must have refused our request!"
1E29  04                 const type 4
1E2A  3C                 string size (60)
1E2B  2F4C6F7475732F41+  "/Lotus/A"
1E33  6E696D6174696F6E+  "nimation"
1E3B  732F54656E6E6F2F+  "s/Tenno/"
1E43  436F6E7465787475+  "Contextu"
1E4B  616C2F4861636B44+  "al/HackD"
1E53  6576696365537461+  "eviceSta"
1E5B  72745F616E696D2E+  "rt_anim."
1E63  66627800           "fbx\0"
                         const [72]: "/Lotus/Animations/Tenno/Contextual/HackDeviceStart_anim.fbx"
1E67  04                 const type 4
1E68  3A                 string size (58)
1E69  2F4C6F7475732F41+  "/Lotus/A"
1E71  6E696D6174696F6E+  "nimation"
1E79  732F54656E6E6F2F+  "s/Tenno/"
1E81  436F6E7465787475+  "Contextu"
1E89  616C2F4861636B44+  "al/HackD"
1E91  6576696365456E64+  "eviceEnd"
1E99  5F616E696D2E6662+  "_anim.fb"
1EA1  7800               "x\0"
                         const [73]: "/Lotus/Animations/Tenno/Contextual/HackDeviceEnd_anim.fbx"
1EA3  04                 const type 4
1EA4  39                 string size (57)
1EA5  2F4C6F7475732F41+  "/Lotus/A"
1EAD  6E696D6174696F6E+  "nimation"
1EB5  732F4772696E6565+  "s/Grinee"
1EBD  722F45687261526F+  "r/EhraRo"
1EC5  6B2F507265446561+  "k/PreDea"
1ECD  746853746172745F+  "thStart_"
1ED5  616E696D2E666278+  "anim.fbx"
1EDD  00                 "\0"
                         const [74]: "/Lotus/Animations/Grineer/EhraRok/PreDeathStart_anim.fbx"
1EDE  01                 const type 3
1EDF  6A648E86           const [75]: (-2037488534)
1EE3  04                 const type 4
1EE4  16                 string size (22)
1EE5  41544D4D5F414E49+  "ATMM_ANI"
1EED  4D4154494F4E5F44+  "MATION_D"
1EF5  524956454E00       "RIVEN\0"
                         const [76]: "ATMM_ANIMATION_DRIVEN"
1EFB  04                 const type 4
1EFC  0B                 string size (11)
1EFD  5052545F46524545+  "PRT_FREE"
1F05  5A4500             "ZE\0"
                         const [77]: "PRT_FREEZE"
1F08  04                 const type 4
1F09  09                 string size (9)
1F0A  5052545F4F4E4345+  "PRT_ONCE"
1F12  00                 "\0"
                         const [78]: "PRT_ONCE"
1F13  04                 const type 4
1F14  3F                 string size (63)
1F15  2F4C6F7475732F41+  "/Lotus/A"
1F1D  6E696D6174696F6E+  "nimation"
1F25  732F4772696E6565+  "s/Grinee"
1F2D  722F4B7576614C69+  "r/KuvaLi"
1F35  63682F4D656C6565+  "ch/Melee"
1F3D  537072696E745377+  "SprintSw"
1F45  696E6730325F616E+  "ing02_an"
1F4D  696D2E66627800     "im.fbx\0"
                         const [79]: "/Lotus/Animations/Grineer/KuvaLich/MeleeSprintSwing02_anim.fbx"
1F54  01                 const type 3
1F55  62243D8D           const [80]: (-1925372830)
1F59  04                 const type 4
1F5A  0B                 string size (11)
1F5B  4D656C6565537461+  "MeleeSta"
1F63  727400             "rt\0"
                         const [81]: "MeleeStart"
1F66  01                 const type 3
1F67  26D21EFA           const [82]: (-98643418)
1F6B  01                 const type 3
1F6C  83B1EDE6           const [83]: (-420630141)
1F70  01                 const type 3
1F71  FBE6B0D0           const [84]: (-793712901)
1F75  04                 const type 4
1F76  06                 string size (6)
1F77  544F52534F00       "TORSO\0"
                         const [85]: "TORSO"
1F7D  01                 const type 3
1F7E  87FE5C53           const [86]: (1398603399)
1F82  04                 const type 4
1F83  05                 string size (5)
1F84  47616D6500         "Game\0"
                         const [87]: "Game"
1F89  04                 const type 4
1F8A  0B                 string size (11)
1F8B  50545F524147444F+  "PT_RAGDO"
1F93  4C4C00             "LL\0"
                         const [88]: "PT_RAGDOLL"
1F96  04                 const type 4
1F97  0B                 string size (11)
1F98  696E6A7572795479+  "injuryTy"
1FA0  706500             "pe\0"
                         const [89]: "injuryType"
1FA3  04                 const type 4
1FA4  08                 string size (8)
1FA5  524147444F4C4C00   "RAGDOLL\0"
                         const [90]: "RAGDOLL"
1FAD  01                 const type 3
1FAE  F7396233           const [91]: (862075383)
1FB2  01                 const type 3
1FB3  61AF33EA           const [92]: (-365711519)
1FB7  03                 const type 3
1FB8  00007A44           const [93]: (0)
1FBC  01                 const type 3
1FBD  71B62247           const [94]: (1193457265)
                         * functions:
1FC1  00                 sizep (0)
                         * lines:
1FC3  03                 sizelineinfo (448)
                         [pc] (line)
1FC4  CB                 [001] (-53)
1FC5  00                 [002] (-53)
1FC6  00                 [003] (-53)
1FC7  00                 [004] (-53)
1FC8  CB                 [005] (-53)
1FC9  00                 [006] (-53)
1FCA  00                 [007] (-53)
1FCB  00                 [008] (-53)
1FCC  CB                 [009] (-53)
1FCD  00                 [010] (-53)
1FCE  00                 [011] (-52)
1FCF  00                 [012] (-52)
1FD0  CB                 [013] (-51)
1FD1  00                 [014] (-51)
1FD2  00                 [015] (-51)
1FD3  00                 [016] (-51)
1FD4  CB                 [017] (-51)
1FD5  00                 [018] (-50)
1FD6  00                 [019] (-50)
1FD7  00                 [020] (-48)
1FD8  CB                 [021] (-48)
1FD9  00                 [022] (-48)
1FDA  00                 [023] (-47)
1FDB  00                 [024] (-47)
1FDC  CB                 [025] (-47)
1FDD  00                 [026] (-47)
1FDE  00                 [027] (-45)
1FDF  00                 [028] (-44)
1FE0  CB                 [029] (-44)
1FE1  00                 [030] (-42)
1FE2  00                 [031] (-41)
1FE3  00                 [032] (-39)
1FE4  CB                 [033] (-39)
1FE5  00                 [034] (-39)
1FE6  00                 [035] (-39)
1FE7  00                 [036] (-39)
1FE8  CB                 [037] (-38)
1FE9  00                 [038] (-38)
1FEA  00                 [039] (-38)
1FEB  00                 [040] (-38)
1FEC  CC                 [041] (-37)
1FED  00                 [042] (-37)
1FEE  00                 [043] (-37)
1FEF  00                 [044] (-35)
1FF0  CC                 [045] (-35)
1FF1  00                 [046] (-34)
1FF2  00                 [047] (-31)
1FF3  00                 [048] (-31)
1FF4  CD                 [049] (-31)
1FF5  00                 [050] (-31)
1FF6  00                 [051] (-31)
1FF7  00                 [052] (-29)
1FF8  CD                 [053] (-29)
1FF9  00                 [054] (-29)
1FFA  00                 [055] (-29)
1FFB  00                 [056] (-29)
1FFC  CD                 [057] (-28)
1FFD  00                 [058] (-28)
1FFE  00                 [059] (-28)
1FFF  00                 [060] (-28)
2000  CD                 [061] (-28)
2001  00                 [062] (-27)
2002  00                 [063] (-27)
2003  00                 [064] (-27)
2004  CD                 [065] (-27)
2005  00                 [066] (-27)
2006  00                 [067] (-25)
2007  00                 [068] (-21)
2008  CE                 [069] (-21)
2009  00                 [070] (-20)
200A  00                 [071] (-20)
200B  00                 [072] (-19)
200C  CE                 [073] (-19)
200D  00                 [074] (-18)
200E  00                 [075] (-18)
200F  00                 [076] (-17)
2010  D0                 [077] (-17)
2011  00                 [078] (-16)
2012  00                 [079] (-16)
2013  00                 [080] (-15)
2014  D0                 [081] (-14)
2015  00                 [082] (-12)
2016  00                 [083] (-12)
2017  00                 [084] (-11)
2018  D0                 [085] (-11)
2019  00                 [086] (-10)
201A  00                 [087] (-10)
201B  00                 [088] (-9)
201C  D1                 [089] (-9)
201D  00                 [090] (-8)
201E  00                 [091] (-8)
201F  00                 [092] (-7)
2020  D1                 [093] (-3)
2021  00                 [094] (-3)
2022  00                 [095] (-3)
2023  00                 [096] (-3)
2024  D1                 [097] (-3)
2025  00                 [098] (-3)
2026  00                 [099] (-2)
2027  00                 [100] (-2)
2028  D1                 [101] (-2)
2029  00                 [102] (-1)
202A  00                 [103] (-1)
202B  00                 [104] (-1)
202C  D3                 [105] (-1)
202D  00                 [106] (-1)
202E  00                 [107] (-1)
202F  00                 [108] (-1)
2030  D4                 [109] (0)
2031  00                 [110] (0)
2032  00                 [111] (0)
2033  00                 [112] (0)
2034  D4                 [113] (0)
2035  00                 [114] (4)
2036  00                 [115] (4)
2037  00                 [116] (4)
2038  D6                 [117] (4)
2039  00                 [118] (4)
203A  00                 [119] (5)
203B  00                 [120] (5)
203C  D7                 [121] (8)
203D  00                 [122] (10)
203E  00                 [123] (10)
203F  00                 [124] (11)
2040  D9                 [125] (11)
2041  00                 [126] (11)
2042  00                 [127] (11)
2043  00                 [128] (11)
2044  D9                 [129] (11)
2045  00                 [130] (12)
2046  00                 [131] (12)
2047  00                 [132] (12)
2048  D9                 [133] (14)
2049  00                 [134] (14)
204A  00                 [135] (14)
204B  00                 [136] (14)
204C  D9                 [137] (14)
204D  00                 [138] (15)
204E  00                 [139] (15)
204F  00                 [140] (16)
2050  D9                 [141] (16)
2051  00                 [142] (16)
2052  00                 [143] (16)
2053  00                 [144] (16)
2054  DA                 [145] (16)
2055  00                 [146] (16)
2056  00                 [147] (16)
2057  00                 [148] (16)
2058  DA                 [149] (16)
2059  00                 [150] (16)
205A  00                 [151] (16)
205B  00                 [152] (16)
205C  DA                 [153] (16)
205D  00                 [154] (16)
205E  00                 [155] (16)
205F  00                 [156] (16)
2060  DA                 [157] (18)
2061  00                 [158] (18)
2062  00                 [159] (19)
2063  00                 [160] (19)
2064  DB                 [161] (19)
2065  00                 [162] (19)
2066  00                 [163] (19)
2067  00                 [164] (21)
2068  DB                 [165] (21)
2069  00                 [166] (21)
206A  00                 [167] (21)
206B  00                 [168] (23)
206C  DB                 [169] (23)
206D  00                 [170] (24)
206E  00                 [171] (24)
206F  00                 [172] (24)
2070  DD                 [173] (24)
2071  00                 [174] (24)
2072  00                 [175] (24)
2073  00                 [176] (24)
2074  DD                 [177] (24)
2075  00                 [178] (24)
2076  00                 [179] (25)
2077  00                 [180] (25)
2078  DE                 [181] (25)
2079  00                 [182] (25)
207A  00                 [183] (25)
207B  00                 [184] (25)
207C  E1                 [185] (25)
207D  00                 [186] (25)
207E  00                 [187] (25)
207F  00                 [188] (26)
2080  E1                 [189] (26)
2081  00                 [190] (26)
2082  00                 [191] (26)
2083  00                 [192] (26)
2084  E1                 [193] (26)
2085  00                 [194] (26)
2086  00                 [195] (26)
2087  00                 [196] (26)
2088  E1                 [197] (27)
2089  00                 [198] (27)
208A  00                 [199] (29)
208B  00                 [200] (29)
208C  E1                 [201] (29)
208D  00                 [202] (29)
208E  00                 [203] (29)
208F  00                 [204] (30)
2090  E3                 [205] (30)
2091  00                 [206] (30)
2092  00                 [207] (30)
2093  00                 [208] (30)
2094  E3                 [209] (34)
2095  00                 [210] (34)
2096  00                 [211] (34)
2097  00                 [212] (34)
2098  E3                 [213] (34)
2099  00                 [214] (36)
209A  00                 [215] (36)
209B  00                 [216] (36)
209C  E3                 [217] (36)
209D  00                 [218] (36)
209E  00                 [219] (37)
209F  00                 [220] (37)
20A0  E3                 [221] (40)
20A1  00                 [222] (40)
20A2  00                 [223] (41)
20A3  00                 [224] (41)
20A4  E4                 [225] (43)
20A5  00                 [226] (43)
20A6  00                 [227] (43)
20A7  00                 [228] (44)
20A8  E4                 [229] (44)
20A9  00                 [230] (44)
20AA  00                 [231] (44)
20AB  00                 [232] (45)
20AC  E4                 [233] (45)
20AD  00                 [234] (45)
20AE  00                 [235] (45)
20AF  00                 [236] (45)
20B0  E4                 [237] (45)
20B1  00                 [238] (45)
20B2  00                 [239] (50)
20B3  00                 [240] (51)
20B4  E4                 [241] (52)
20B5  00                 [242] (52)
20B6  00                 [243] (52)
20B7  00                 [244] (52)
20B8  E5                 [245] (52)
20B9  00                 [246] (52)
20BA  00                 [247] (52)
20BB  00                 [248] (52)
20BC  E5                 [249] (52)
20BD  00                 [250] (52)
20BE  00                 [251] (52)
20BF  00                 [252] (53)
20C0  E5                 [253] (53)
20C1  00                 [254] (53)
20C2  00                 [255] (54)
20C3  00                 [256] (54)
20C4  E5                 [257] (54)
20C5  00                 [258] (54)
20C6  00                 [259] (57)
20C7  00                 [260] (57)
20C8  E5                 [261] (57)
20C9  00                 [262] (57)
20CA  00                 [263] (57)
20CB  00                 [264] (57)
20CC  E7                 [265] (57)
20CD  00                 [266] (57)
20CE  00                 [267] (57)
20CF  00                 [268] (58)
20D0  EB                 [269] (59)
20D1  00                 [270] (59)
20D2  00                 [271] (59)
20D3  00                 [272] (59)
20D4  EB                 [273] (62)
20D5  00                 [274] (62)
20D6  00                 [275] (63)
20D7  00                 [276] (63)
20D8  EC                 [277] (64)
20D9  00                 [278] (64)
20DA  00                 [279] (64)
20DB  00                 [280] (64)
20DC  EC                 [281] (64)
20DD  00                 [282] (64)
20DE  00                 [283] (64)
20DF  00                 [284] (64)
20E0  ED                 [285] (64)
20E1  00                 [286] (67)
20E2  00                 [287] (67)
20E3  00                 [288] (67)
20E4  ED                 [289] (67)
20E5  00                 [290] (67)
20E6  00                 [291] (67)
20E7  00                 [292] (67)
20E8  EE                 [293] (67)
20E9  00                 [294] (67)
20EA  00                 [295] (67)
20EB  00                 [296] (68)
20EC  EE                 [297] (68)
20ED  00                 [298] (68)
20EE  00                 [299] (68)
20EF  00                 [300] (68)
20F0  EF                 [301] (68)
20F1  00                 [302] (68)
20F2  00                 [303] (68)
20F3  00                 [304] (68)
20F4  EF                 [305] (71)
20F5  00                 [306] (71)
20F6  00                 [307] (72)
20F7  00                 [308] (72)
20F8  F0                 [309] (72)
20F9  00                 [310] (76)
20FA  00                 [311] (76)
20FB  00                 [312] (77)
20FC  F0                 [313] (77)
20FD  00                 [314] (77)
20FE  00                 [315] (78)
20FF  00                 [316] (78)
2100  F1                 [317] (78)
2101  00                 [318] (79)
2102  00                 [319] (79)
2103  00                 [320] (79)
2104  F2                 [321] (81)
2105  00                 [322] (81)
2106  00                 [323] (81)
2107  00                 [324] (81)
2108  F4                 [325] (81)
2109  00                 [326] (82)
210A  00                 [327] (82)
210B  00                 [328] (82)
210C  F4                 [329] (82)
210D  00                 [330] (82)
210E  00                 [331] (82)
210F  00                 [332] (82)
2110  F5                 [333] (82)
2111  00                 [334] (82)
2112  00                 [335] (83)
2113  00                 [336] (83)
2114  F5                 [337] (83)
2115  00                 [338] (83)
2116  00                 [339] (83)
2117  00                 [340] (83)
2118  F6                 [341] (83)
2119  00                 [342] (83)
211A  00                 [343] (83)
211B  00                 [344] (84)
211C  F6                 [345] (84)
211D  00                 [346] (84)
211E  00                 [347] (84)
211F  00                 [348] (84)
2120  F7                 [349] (84)
2121  00                 [350] (84)
2122  00                 [351] (84)
2123  00                 [352] (84)
2124  F7                 [353] (85)
2125  00                 [354] (87)
2126  00                 [355] (87)
2127  00                 [356] (87)
2128  F8                 [357] (89)
2129  00                 [358] (89)
212A  00                 [359] (89)
212B  00                 [360] (89)
212C  F8                 [361] (89)
212D  00                 [362] (89)
212E  00                 [363] (89)
212F  00                 [364] (89)
2130  F9                 [365] (89)
2131  00                 [366] (89)
2132  00                 [367] (89)
2133  00                 [368] (89)
2134  FD                 [369] (91)
2135  00                 [370] (91)
2136  00                 [371] (91)
2137  00                 [372] (91)
2138  FD                 [373] (91)
2139  00                 [374] (91)
213A  00                 [375] (91)
213B  00                 [376] (92)
213C  FD                 [377] (92)
213D  00                 [378] (92)
213E  00                 [379] (93)
213F  00                 [380] (93)
2140  FD                 [381] (93)
2141  00                 [382] (94)
2142  00                 [383] (94)
2143  00                 [384] (94)
2144  FD                 [385] (94)
2145  00                 [386] (95)
2146  00                 [387] (95)
2147  00                 [388] (95)
2148  FD                 [389] (95)
2149  00                 [390] (95)
214A  00                 [391] (96)
214B  00                 [392] (96)
214C  FE                 [393] (96)
214D  00                 [394] (97)
214E  00                 [395] (97)
214F  00                 [396] (97)
2150  FE                 [397] (97)
2151  00                 [398] (97)
2152  00                 [399] (99)
2153  00                 [400] (99)
2154  FE                 [401] (99)
2155  00                 [402] (102)
2156  00                 [403] (102)
2157  00                 [404] (102)
2158  FF                 [405] (106)
2159  00                 [406] (106)
215A  00                 [407] (106)
215B  00                 [408] (106)
215C  FF                 [409] (106)
215D  00                 [410] (107)
215E  00                 [411] (107)
215F  00                 [412] (107)
2160  FF                 [413] (107)
2161  00                 [414] (107)
2162  00                 [415] (107)
2163  00                 [416] (107)
2164  FF                 [417] (108)
2165  00                 [418] (108)
2166  00                 [419] (108)
2167  00                 [420] (108)
2168  FF                 [421] (108)
2169  00                 [422] (109)
216A  00                 [423] (109)
216B  00                 [424] (109)
216C  FF                 [425] (109)
216D  00                 [426] (109)
216E  00                 [427] (109)
216F  00                 [428] (111)
2170  FF                 [429] (111)
2171  00                 [430] (111)
2172  00                 [431] (111)
2173  00                 [432] (114)
2174  00                 [433] (114)
2175  01                 [434] (114)
2176  00                 [435] (114)
2177  00                 [436] (114)
2178  00                 [437] (115)
2179  01                 [438] (115)
217A  00                 [439] (115)
217B  00                 [440] (115)
217C  00                 [441] (115)
217D  01                 [442] (115)
217E  00                 [443] (115)
217F  00                 [444] (118)
2180  00                 [445] (118)
2181  01                 [446] (118)
2182  00                 [447] (118)
2183  00                 [448] (120)
                         * locals:
26C4  00                 sizelocvars (0)
                         * upvalues:
26C5  00                 sizeupvalues (0)
                         ** end of function **

                         
26C6                     ** function [7] definition (level 2)
                         ** start of function **
26C6  00                 string size (0)
                         source name: (none)
26C8  02                 line defined (378)
26C9  8B                 last line defined (395)
26CA  03                 nups (3)
26CB  03                 numparams (1)
26CC  01                 is_vararg (0)
26CD  00                 maxstacksize (9)
                         * code:
26CF  2E                 sizecode (46)
26D0  5D000000           [01] getglobal  1   0        ; Lotus_Game
26D4  4E40C000           [02] gettable   1   1   257  ; "NEMESIS_KILLED"
26D8  18000000           [03] test       0       0    ; to [5] if true
26DC  1A000180           [04] jmp        5            ; to [10]
26E0  97008000           [05] loadbool   2   1   0    ; true
fail op	8
26E4  88000000           [06] setupval   2   0      
26E8  9D800000           [07] getglobal  2   2        ; _T
26EC  8C00C181           [08] settable   2   259 260  ; "NemesisDestroyed" 1
26F0  1A400180           [09] jmp        6            ; to [16]
26F4  97000000           [10] loadbool   2   0   0    ; false
fail op	8
26F8  88000000           [11] setupval   2   0      
26FC  9D000000           [12] getglobal  2   0        ; Lotus_Game
2700  4E404101           [13] gettable   1   2   261  ; "NEMESIS_CONVERTED"
2704  9D800000           [14] getglobal  2   2        ; _T
2708  8C004183           [15] settable   2   262 260  ; "NemesisConverted" 1
270C  9DC00100           [16] getglobal  2   7        ; gGameData
2710  A4004201           [17] self       2   2   264  ; 389385621
2714  A2800001           [18] call       2   2   2  
2718  D3008000           [19] getupval   3   1      
271C  CE40C201           [20] gettable   3   3   265  ; -2079289879
2720  12010001           [21] move       4   2      
2724  E2800001           [22] call       3   2   2  
2728  13010001           [23] getupval   4   2      
272C  0E814202           [24] gettable   4   4   266  ; -132701534
2730  53010000           [25] getupval   5   0      
2734  8EC1C201           [26] gettable   6   3   267  ; "mWeapon"
2738  A4014303           [27] self       6   6   268  ; 455421500
273C  A2810001           [28] call       6   2   2  
2740  D9410300           [29] loadk      7   13       ; ""
2744  22810002           [30] call       4   4   2  
2748  5D810000           [31] getglobal  5   2        ; _T
274C  8B810100           [32] newtable   6   0   6    ; array=0, hash=6
2750  8C418087           [33] settable   6   271 1    ; "Event"
2754  CE41C401           [34] gettable   7   3   273  ; "mAgent"
2758  E401C303           [35] self       7   7   268  ; 455421500
275C  E2810001           [36] call       7   2   2  
2760  8CC10188           [37] settable   6   272 7    ; "Target"
2764  8C010189           [38] settable   6   274 4    ; "Item"
2768  8C01C589           [39] settable   6   275 276  ; "Count" 0
276C  DD810500           [40] getglobal  7   22       ; 572299008
2770  E2818000           [41] call       7   1   2  
2774  8CC1818A           [42] settable   6   277 7    ; "Pos"
2778  CE01C601           [43] gettable   7   3   280  ; "mName"
277C  8CC1818B           [44] settable   6   279 7    ; "Text"
2780  4C810187           [45] settable   5   270 6    ; "NemesisStatArgs"
2784  1E008000           [46] return     0   1      
                         * constants:
2788  19                 sizek (25)
2789  04                 const type 4
278A  0B                 string size (11)
278B  4C6F7475735F4761+  "Lotus_Ga"
2793  6D6500             "me\0"
                         const [0]: "Lotus_Game"
2796  04                 const type 4
2797  0F                 string size (15)
2798  4E454D455349535F+  "NEMESIS_"
27A0  4B494C4C454400     "KILLED\0"
                         const [1]: "NEMESIS_KILLED"
27A7  04                 const type 4
27A8  03                 string size (3)
27A9  5F5400             "_T\0"
                         const [2]: "_T"
27AC  04                 const type 4
27AD  11                 string size (17)
27AE  4E656D6573697344+  "NemesisD"
27B6  657374726F796564+  "estroyed"
27BE  00                 "\0"
                         const [3]: "NemesisDestroyed"
27BF  01                 const type 3
27C0  01000000           const [4]: (1)
27C4  04                 const type 4
27C5  12                 string size (18)
27C6  4E454D455349535F+  "NEMESIS_"
27CE  434F4E5645525445+  "CONVERTE"
27D6  4400               "D\0"
                         const [5]: "NEMESIS_CONVERTED"
27D8  04                 const type 4
27D9  11                 string size (17)
27DA  4E656D6573697343+  "NemesisC"
27E2  6F6E766572746564+  "onverted"
27EA  00                 "\0"
                         const [6]: "NemesisConverted"
27EB  04                 const type 4
27EC  0A                 string size (10)
27ED  6747616D65446174+  "gGameDat"
27F5  6100               "a\0"
                         const [7]: "gGameData"
27F7  01                 const type 3
27F8  958D3517           const [8]: (389385621)
27FC  01                 const type 3
27FD  E98D1084           const [9]: (-2079289879)
2801  01                 const type 3
2802  A22217F8           const [10]: (-132701534)
2806  04                 const type 4
2807  08                 string size (8)
2808  6D576561706F6E00   "mWeapon\0"
                         const [11]: "mWeapon"
2810  01                 const type 3
2811  3C2E251B           const [12]: (455421500)
2815  04                 const type 4
2816  01                 string size (0)
                         const [13]: ""
2818  04                 const type 4
2819  10                 string size (16)
281A  4E656D6573697353+  "NemesisS"
2822  7461744172677300   "tatArgs\0"
                         const [14]: "NemesisStatArgs"
282A  04                 const type 4
282B  06                 string size (6)
282C  4576656E7400       "Event\0"
                         const [15]: "Event"
2832  04                 const type 4
2833  07                 string size (7)
2834  54617267657400     "Target\0"
                         const [16]: "Target"
283B  04                 const type 4
283C  07                 string size (7)
283D  6D4167656E7400     "mAgent\0"
                         const [17]: "mAgent"
2844  04                 const type 4
2845  05                 string size (5)
2846  4974656D00         "Item\0"
                         const [18]: "Item"
284B  04                 const type 4
284C  06                 string size (6)
284D  436F756E7400       "Count\0"
                         const [19]: "Count"
2853  03                 const type 3
2854  0000803F           const [20]: (0)
2858  04                 const type 4
2859  04                 string size (4)
285A  506F7300           "Pos\0"
                         const [21]: "Pos"
285E  01                 const type 3
285F  00971C22           const [22]: (572299008)
2863  04                 const type 4
2864  05                 string size (5)
2865  5465787400         "Text\0"
                         const [23]: "Text"
286A  04                 const type 4
286B  06                 string size (6)
286C  6D4E616D6500       "mName\0"
                         const [24]: "mName"
                         * functions:
2872  00                 sizep (0)
                         * lines:
2873  2E                 sizelineinfo (46)
                         [pc] (line)
2874  7B                 [01] (123)
2875  01                 [02] (123)
2876  00                 [03] (124)
2877  00                 [04] (124)
2878  7B                 [05] (125)
2879  01                 [06] (125)
287A  00                 [07] (126)
287B  00                 [08] (126)
287C  7C                 [09] (126)
287D  01                 [10] (-128)
287E  00                 [11] (-128)
287F  00                 [12] (-127)
2880  7C                 [13] (-127)
2881  01                 [14] (-126)
2882  00                 [15] (-126)
2883  00                 [16] (-123)
2884  7D                 [17] (-123)
2885  01                 [18] (-123)
2886  00                 [19] (-122)
2887  00                 [20] (-122)
2888  7D                 [21] (-122)
2889  01                 [22] (-122)
288A  00                 [23] (-120)
288B  00                 [24] (-120)
288C  7E                 [25] (-120)
288D  01                 [26] (-120)
288E  00                 [27] (-120)
288F  00                 [28] (-120)
2890  7E                 [29] (-120)
2891  01                 [30] (-120)
2892  00                 [31] (-118)
2893  00                 [32] (-118)
2894  7E                 [33] (-118)
2895  01                 [34] (-118)
2896  00                 [35] (-118)
2897  00                 [36] (-118)
2898  80                 [37] (-118)
2899  01                 [38] (-118)
289A  00                 [39] (-118)
289B  00                 [40] (-118)
289C  80                 [41] (-118)
289D  01                 [42] (-118)
289E  00                 [43] (-118)
289F  00                 [44] (-118)
28A0  81                 [45] (-118)
28A1  01                 [46] (-117)
                         * locals:
292C  00                 sizelocvars (0)
                         * upvalues:
292D  00                 sizeupvalues (0)
                         ** end of function **

                         
292E                     ** function [8] definition (level 2)
                         ** start of function **
292E  00                 string size (0)
                         source name: (none)
2930  03                 line defined (397)
2931  96                 last line defined (406)
2932  03                 nups (0)
2933  00                 numparams (2)
2934  02                 is_vararg (0)
2935  00                 maxstacksize (10)
                         * code:
2937  27                 sizecode (39)
2938  18000000           [01] test       0       0    ; to [3] if true
293C  1AC00880           [02] jmp        36           ; to [39]
2940  9D000000           [03] getglobal  2   0        ; _G
2944  DD800000           [04] getglobal  3   2        ; cjson
2948  CEC0C001           [05] gettable   3   3   259  ; -1976663275
294C  12018000           [06] move       4   1      
2950  E2800001           [07] call       3   2   2  
2954  8CC08080           [08] settable   2   257 3    ; "NemesisEndBody"
2958  9D000100           [09] getglobal  2   4        ; 1074689893
295C  DD400100           [10] getglobal  3   5        ; gGameStatsMgr
2960  A2800001           [11] call       2   2   2  
2964  98400000           [12] test       2       1    ; to [14] if false
2968  1A000680           [13] jmp        25           ; to [39]
296C  9D800100           [14] getglobal  2   6        ; _T
2970  8EC04101           [15] gettable   2   2   263  ; "NemesisStatArgs"
fail op	35
2974  63004201           [16] close      1  
2978  1A000580           [17] jmp        21           ; to [39]
297C  9D400100           [18] getglobal  2   5        ; gGameStatsMgr
2980  A4404201           [19] self       2   2   265  ; 838339401
2984  1D810100           [20] getglobal  4   6        ; _T
2988  0EC14102           [21] gettable   4   4   263  ; "NemesisStatArgs"
298C  0E814202           [22] gettable   4   4   266  ; "Event"
2990  5D810100           [23] getglobal  5   6        ; _T
2994  4EC1C102           [24] gettable   5   5   263  ; "NemesisStatArgs"
2998  4EC1C202           [25] gettable   5   5   267  ; "Target"
299C  9D810100           [26] getglobal  6   6        ; _T
29A0  8EC14103           [27] gettable   6   6   263  ; "NemesisStatArgs"
29A4  8E014303           [28] gettable   6   6   268  ; "Item"
29A8  DD810100           [29] getglobal  7   6        ; _T
29AC  CEC1C103           [30] gettable   7   7   263  ; "NemesisStatArgs"
29B0  CE41C303           [31] gettable   7   7   269  ; "Count"
29B4  1D820100           [32] getglobal  8   6        ; _T
29B8  0EC24104           [33] gettable   8   8   263  ; "NemesisStatArgs"
29BC  0E824304           [34] gettable   8   8   270  ; "Pos"
29C0  5D820100           [35] getglobal  9   6        ; _T
29C4  4EC2C104           [36] gettable   9   9   263  ; "NemesisStatArgs"
29C8  4EC2C304           [37] gettable   9   9   271  ; "Text"
29CC  A2400004           [38] call       2   8   1  
29D0  1E008000           [39] return     0   1      
                         * constants:
29D4  10                 sizek (16)
29D5  04                 const type 4
29D6  03                 string size (3)
29D7  5F4700             "_G\0"
                         const [0]: "_G"
29DA  04                 const type 4
29DB  0F                 string size (15)
29DC  4E656D6573697345+  "NemesisE"
29E4  6E64426F647900     "ndBody\0"
                         const [1]: "NemesisEndBody"
29EB  04                 const type 4
29EC  06                 string size (6)
29ED  636A736F6E00       "cjson\0"
                         const [2]: "cjson"
29F3  01                 const type 3
29F4  15832E8A           const [3]: (-1976663275)
29F8  01                 const type 3
29F9  65770E40           const [4]: (1074689893)
29FD  04                 const type 4
29FE  0E                 string size (14)
29FF  6747616D65537461+  "gGameSta"
2A07  74734D677200       "tsMgr\0"
                         const [5]: "gGameStatsMgr"
2A0D  04                 const type 4
2A0E  03                 string size (3)
2A0F  5F5400             "_T\0"
                         const [6]: "_T"
2A12  04                 const type 4
2A13  10                 string size (16)
2A14  4E656D6573697353+  "NemesisS"
2A1C  7461744172677300   "tatArgs\0"
                         const [7]: "NemesisStatArgs"
2A24  00                 const type 0
                         const [8]: nil
2A25  01                 const type 3
2A26  490BF831           const [9]: (838339401)
2A2A  04                 const type 4
2A2B  06                 string size (6)
2A2C  4576656E7400       "Event\0"
                         const [10]: "Event"
2A32  04                 const type 4
2A33  07                 string size (7)
2A34  54617267657400     "Target\0"
                         const [11]: "Target"
2A3B  04                 const type 4
2A3C  05                 string size (5)
2A3D  4974656D00         "Item\0"
                         const [12]: "Item"
2A42  04                 const type 4
2A43  06                 string size (6)
2A44  436F756E7400       "Count\0"
                         const [13]: "Count"
2A4A  04                 const type 4
2A4B  04                 string size (4)
2A4C  506F7300           "Pos\0"
                         const [14]: "Pos"
2A50  04                 const type 4
2A51  05                 string size (5)
2A52  5465787400         "Text\0"
                         const [15]: "Text"
                         * functions:
2A57  00                 sizep (0)
                         * lines:
2A58  27                 sizelineinfo (39)
                         [pc] (line)
2A59  8E                 [01] (-114)
2A5A  01                 [02] (-114)
2A5B  00                 [03] (-112)
2A5C  00                 [04] (-112)
2A5D  8E                 [05] (-112)
2A5E  01                 [06] (-112)
2A5F  00                 [07] (-112)
2A60  00                 [08] (-112)
2A61  90                 [09] (-110)
2A62  01                 [10] (-110)
2A63  00                 [11] (-110)
2A64  00                 [12] (-110)
2A65  90                 [13] (-110)
2A66  01                 [14] (-110)
2A67  00                 [15] (-110)
2A68  00                 [16] (-110)
2A69  90                 [17] (-110)
2A6A  01                 [18] (-109)
2A6B  00                 [19] (-109)
2A6C  00                 [20] (-109)
2A6D  90                 [21] (-109)
2A6E  01                 [22] (-109)
2A6F  00                 [23] (-109)
2A70  00                 [24] (-109)
2A71  90                 [25] (-109)
2A72  01                 [26] (-109)
2A73  00                 [27] (-109)
2A74  00                 [28] (-109)
2A75  90                 [29] (-109)
2A76  01                 [30] (-109)
2A77  00                 [31] (-109)
2A78  00                 [32] (-109)
2A79  92                 [33] (-109)
2A7A  01                 [34] (-109)
2A7B  00                 [35] (-109)
2A7C  00                 [36] (-109)
2A7D  92                 [37] (-109)
2A7E  01                 [38] (-109)
2A7F  00                 [39] (-106)
                         * locals:
2AF5  00                 sizelocvars (0)
                         * upvalues:
2AF6  00                 sizeupvalues (0)
                         ** end of function **

                         
2AF7                     ** function [9] definition (level 2)
                         ** start of function **
2AF7  00                 string size (0)
                         source name: (none)
2AF9  03                 line defined (408)
2AFA  CB                 last line defined (459)
2AFB  03                 nups (4)
2AFC  04                 numparams (1)
2AFD  01                 is_vararg (0)
2AFE  00                 maxstacksize (13)
                         * code:
2B00  61                 sizecode (97)
2B01  64004000           [01] self       1   0   256  ; -1764426596
2B05  62800001           [02] call       1   2   2  
2B09  A440C000           [03] self       2   1   257  ; -1888573514
2B0D  A2800001           [04] call       2   2   2  
2B11  98400000           [05] test       2       1    ; to [7] if false
2B15  1A000080           [06] jmp        1            ; to [8]
2B19  1E008000           [07] return     0   1      
2B1D  9D800000           [08] getglobal  2   2        ; gGameRules
2B21  A4C04001           [09] self       2   2   259  ; -2136864363
2B25  A2800001           [10] call       2   2   2  
2B29  D7000000           [11] loadbool   3   0   0    ; false
2B2D  D8400000           [12] test       3       1    ; to [14] if false
2B31  1A800180           [13] jmp        7            ; to [21]
2B35  0E014101           [14] gettable   4   2   260  ; "mPlayer"
fail op	35
2B39  63008100           [15] close      1  
2B3D  1AC00080           [16] jmp        4            ; to [21]
2B41  1D410100           [17] getglobal  4   5        ; -1817107093
2B45  59810100           [18] loadk      5   6        ; "Don't show choice to this player'"
2B49  22410001           [19] call       4   2   1  
2B4D  1E008000           [20] return     0   1      
2B51  06010002           [21] loadnil    4   4      
2B55  4EC14101           [22] gettable   5   2   263  ; "mTarget"
2B59  6401C202           [23] self       5   5   264  ; 188678183
2B5D  62810001           [24] call       5   2   2  
2B61  58010000           [25] test       5       0    ; to [27] if true
2B65  1A400080           [26] jmp        2            ; to [29]
2B69  0EC14101           [27] gettable   4   2   263  ; "mTarget"
2B6D  1A400180           [28] jmp        6            ; to [35]
2B71  D8000000           [29] test       3       0    ; to [31] if true
2B75  1AC00080           [30] jmp        4            ; to [35]
2B79  5D410200           [31] getglobal  5   9        ; gGameData
2B7D  6481C202           [32] self       5   5   266  ; 389385621
2B81  62810001           [33] call       5   2   2  
2B85  12018002           [34] move       4   5      
2B89  64014202           [35] self       5   4   264  ; 188678183
2B8D  62810001           [36] call       5   2   2  
2B91  58410000           [37] test       5       1    ; to [39] if false
2B95  1AC00080           [38] jmp        4            ; to [43]
2B99  5D410100           [39] getglobal  5   5        ; -1817107093
2B9D  99C10200           [40] loadk      6   11       ; "No active Nemesis!"
2BA1  62410001           [41] call       5   2   1  
2BA5  1E008000           [42] return     0   1      
2BA9  5D010300           [43] getglobal  5   12       ; _G
2BAD  8B410000           [44] newtable   6   0   1    ; array=0, hash=1
2BB1  8CC14387           [45] settable   6   270 271  ; "IsChoice" 1
2BB5  4C818186           [46] settable   5   269 6    ; "NemesisPopup_Info"
2BB9  5D010400           [47] getglobal  5   16       ; _T
2BBD  4C81C488           [48] settable   5   273 274  ; "NemesisPopup_Choice" nil
2BC1  5DC10400           [49] getglobal  5   19       ; gFlashMgr
2BC5  6401C502           [50] self       5   5   276  ; 38794118
2BC9  DD410500           [51] getglobal  7   21       ; choiceMovie
2BCD  62818001           [52] call       5   3   2  
2BD1  9D010400           [53] getglobal  6   16       ; _T
2BD5  8E414403           [54] gettable   6   6   273  ; "NemesisPopup_Choice"
fail op	35
2BD9  23804403           [55] close      0  
2BDD  1AC00080           [56] jmp        4            ; to [61]
2BE1  9D810500           [57] getglobal  6   22       ; 538022378
2BE5  D9C10500           [58] loadk      7   23       ; 0
2BE9  A2410001           [59] call       6   2   1  
2BED  1AC0FD7F           [60] jmp        -8           ; to [53]
2BF1  93010000           [61] getupval   6   0      
2BF5  DD010400           [62] getglobal  7   16       ; _T
2BF9  CE41C403           [63] gettable   7   7   273  ; "NemesisPopup_Choice"
2BFD  A2410001           [64] call       6   2   1  
2C01  9D010400           [65] getglobal  6   16       ; _T
2C05  8C81C488           [66] settable   6   273 274  ; "NemesisPopup_Choice" nil
2C09  93018000           [67] getupval   6   1      
2C0D  8E014603           [68] gettable   6   6   280  ; -2079289879
2C11  D2010002           [69] move       7   4      
2C15  A2810001           [70] call       6   2   2  
2C19  D3018000           [71] getupval   7   1      
2C1D  CE41C603           [72] gettable   7   7   281  ; -1504505097
2C21  12020003           [73] move       8   6      
2C25  E2810001           [74] call       7   2   2  
2C29  1D420200           [75] getglobal  8   9        ; gGameData
2C2D  24824604           [76] self       8   8   282  ; -1881745731
2C31  93020001           [77] getupval   10  2      
2C35  D2028003           [78] move       11  7      
2C39  19C30600           [79] loadk      12  27       ; "OnVanquishOrConvertNemesis"
2C3D  22428002           [80] call       8   5   1  
2C41  13028001           [81] getupval   8   3      
2C45  0E024704           [82] gettable   8   8   284  ; -132701534
2C49  53020001           [83] getupval   9   2      
2C4D  9D420700           [84] getglobal  10  29       ; Lotus_Game
2C51  8E824705           [85] gettable   10  10  286  ; "LotusHumanPlayer_NKC_KILL"
2C55  DD420700           [86] getglobal  11  29       ; Lotus_Game
2C59  CEC2C705           [87] gettable   11  11  287  ; "LotusHumanPlayer_NKC_CONVERT"
2C5D  22820002           [88] call       8   4   2  
2C61  5D020800           [89] getglobal  9   32       ; 1074689893
2C65  92028000           [90] move       10  1      
2C69  62820001           [91] call       9   2   2  
2C6D  58420000           [92] test       9       1    ; to [94] if false
2C71  1A800080           [93] jmp        3            ; to [97]
2C75  6442C800           [94] self       9   1   289  ; -382175781
2C79  D2020004           [95] move       11  8      
2C7D  62428001           [96] call       9   3   1  
2C81  1E008000           [97] return     0   1      
                         * constants:
2C85  22                 sizek (34)
2C86  01                 const type 3
2C87  9CFCD496           const [0]: (-1764426596)
2C8B  01                 const type 3
2C8C  B6A76E8F           const [1]: (-1888573514)
2C90  04                 const type 4
2C91  0B                 string size (11)
2C92  6747616D6552756C+  "gGameRul"
2C9A  657300             "es\0"
                         const [2]: "gGameRules"
2C9D  01                 const type 3
2C9E  9509A280           const [3]: (-2136864363)
2CA2  04                 const type 4
2CA3  08                 string size (8)
2CA4  6D506C6179657200   "mPlayer\0"
                         const [4]: "mPlayer"
2CAC  01                 const type 3
2CAD  6B25B193           const [5]: (-1817107093)
2CB1  04                 const type 4
2CB2  22                 string size (34)
2CB3  446F6E2774207368+  "Don't sh"
2CBB  6F772063686F6963+  "ow choic"
2CC3  6520746F20746869+  "e to thi"
2CCB  7320706C61796572+  "s player"
2CD3  2700               "'\0"
                         const [6]: "Don't show choice to this player'"
2CD5  04                 const type 4
2CD6  08                 string size (8)
2CD7  6D54617267657400   "mTarget\0"
                         const [7]: "mTarget"
2CDF  01                 const type 3
2CE0  27003F0B           const [8]: (188678183)
2CE4  04                 const type 4
2CE5  0A                 string size (10)
2CE6  6747616D65446174+  "gGameDat"
2CEE  6100               "a\0"
                         const [9]: "gGameData"
2CF0  01                 const type 3
2CF1  958D3517           const [10]: (389385621)
2CF5  04                 const type 4
2CF6  13                 string size (19)
2CF7  4E6F206163746976+  "No activ"
2CFF  65204E656D657369+  "e Nemesi"
2D07  732100             "s!\0"
                         const [11]: "No active Nemesis!"
2D0A  04                 const type 4
2D0B  03                 string size (3)
2D0C  5F4700             "_G\0"
                         const [12]: "_G"
2D0F  04                 const type 4
2D10  12                 string size (18)
2D11  4E656D6573697350+  "NemesisP"
2D19  6F7075705F496E66+  "opup_Inf"
2D21  6F00               "o\0"
                         const [13]: "NemesisPopup_Info"
2D23  04                 const type 4
2D24  09                 string size (9)
2D25  497343686F696365+  "IsChoice"
2D2D  00                 "\0"
                         const [14]: "IsChoice"
2D2E  01                 const type 3
2D2F  01000000           const [15]: (1)
2D33  04                 const type 4
2D34  03                 string size (3)
2D35  5F5400             "_T\0"
                         const [16]: "_T"
2D38  04                 const type 4
2D39  14                 string size (20)
2D3A  4E656D6573697350+  "NemesisP"
2D42  6F7075705F43686F+  "opup_Cho"
2D4A  69636500           "ice\0"
                         const [17]: "NemesisPopup_Choice"
2D4E  00                 const type 0
                         const [18]: nil
2D4F  04                 const type 4
2D50  0A                 string size (10)
2D51  67466C6173684D67+  "gFlashMg"
2D59  7200               "r\0"
                         const [19]: "gFlashMgr"
2D5B  01                 const type 3
2D5C  86F34F02           const [20]: (38794118)
2D60  04                 const type 4
2D61  0C                 string size (12)
2D62  63686F6963654D6F+  "choiceMo"
2D6A  76696500           "vie\0"
                         const [21]: "choiceMovie"
2D6E  01                 const type 3
2D6F  EA911120           const [22]: (538022378)
2D73  03                 const type 3
2D74  00000000           const [23]: (0)
2D78  01                 const type 3
2D79  E98D1084           const [24]: (-2079289879)
2D7D  01                 const type 3
2D7E  F71253A6           const [25]: (-1504505097)
2D82  01                 const type 3
2D83  BDD6D68F           const [26]: (-1881745731)
2D87  04                 const type 4
2D88  1B                 string size (27)
2D89  4F6E56616E717569+  "OnVanqui"
2D91  73684F72436F6E76+  "shOrConv"
2D99  6572744E656D6573+  "ertNemes"
2DA1  697300             "is\0"
                         const [27]: "OnVanquishOrConvertNemesis"
2DA4  01                 const type 3
2DA5  A22217F8           const [28]: (-132701534)
2DA9  04                 const type 4
2DAA  0B                 string size (11)
2DAB  4C6F7475735F4761+  "Lotus_Ga"
2DB3  6D6500             "me\0"
                         const [29]: "Lotus_Game"
2DB6  04                 const type 4
2DB7  1A                 string size (26)
2DB8  4C6F74757348756D+  "LotusHum"
2DC0  616E506C61796572+  "anPlayer"
2DC8  5F4E4B435F4B494C+  "_NKC_KIL"
2DD0  4C00               "L\0"
                         const [30]: "LotusHumanPlayer_NKC_KILL"
2DD2  04                 const type 4
2DD3  1D                 string size (29)
2DD4  4C6F74757348756D+  "LotusHum"
2DDC  616E506C61796572+  "anPlayer"
2DE4  5F4E4B435F434F4E+  "_NKC_CON"
2DEC  5645525400         "VERT\0"
                         const [31]: "LotusHumanPlayer_NKC_CONVERT"
2DF1  01                 const type 3
2DF2  65770E40           const [32]: (1074689893)
2DF6  01                 const type 3
2DF7  DB7538E9           const [33]: (-382175781)
                         * functions:
2DFB  00                 sizep (0)
                         * lines:
2DFC  61                 sizelineinfo (97)
                         [pc] (line)
2DFD  99                 [01] (-103)
2DFE  01                 [02] (-103)
2DFF  00                 [03] (-101)
2E00  00                 [04] (-101)
2E01  99                 [05] (-101)
2E02  01                 [06] (-101)
2E03  00                 [07] (-100)
2E04  00                 [08] (-96)
2E05  9B                 [09] (-96)
2E06  01                 [10] (-96)
2E07  00                 [11] (-94)
2E08  00                 [12] (-92)
2E09  9B                 [13] (-92)
2E0A  01                 [14] (-92)
2E0B  00                 [15] (-92)
2E0C  00                 [16] (-92)
2E0D  9B                 [17] (-91)
2E0E  01                 [18] (-91)
2E0F  00                 [19] (-91)
2E10  00                 [20] (-90)
2E11  9B                 [21] (-87)
2E12  01                 [22] (-86)
2E13  00                 [23] (-86)
2E14  00                 [24] (-86)
2E15  9C                 [25] (-86)
2E16  01                 [26] (-86)
2E17  00                 [27] (-85)
2E18  00                 [28] (-85)
2E19  A0                 [29] (-84)
2E1A  01                 [30] (-84)
2E1B  00                 [31] (-83)
2E1C  00                 [32] (-83)
2E1D  A0                 [33] (-83)
2E1E  01                 [34] (-83)
2E1F  00                 [35] (-80)
2E20  00                 [36] (-80)
2E21  A0                 [37] (-80)
2E22  01                 [38] (-80)
2E23  00                 [39] (-79)
2E24  00                 [40] (-79)
2E25  A2                 [41] (-79)
2E26  01                 [42] (-78)
2E27  00                 [43] (-75)
2E28  00                 [44] (-75)
2E29  A4                 [45] (-75)
2E2A  01                 [46] (-75)
2E2B  00                 [47] (-74)
2E2C  00                 [48] (-74)
2E2D  A4                 [49] (-73)
2E2E  01                 [50] (-73)
2E2F  00                 [51] (-73)
2E30  00                 [52] (-73)
2E31  A4                 [53] (-70)
2E32  01                 [54] (-70)
2E33  00                 [55] (-70)
2E34  00                 [56] (-70)
2E35  A4                 [57] (-69)
2E36  01                 [58] (-69)
2E37  00                 [59] (-69)
2E38  00                 [60] (-69)
2E39  A4                 [61] (-66)
2E3A  01                 [62] (-66)
2E3B  00                 [63] (-66)
2E3C  00                 [64] (-66)
2E3D  A5                 [65] (-65)
2E3E  01                 [66] (-65)
2E3F  00                 [67] (-63)
2E40  00                 [68] (-63)
2E41  A5                 [69] (-63)
2E42  01                 [70] (-63)
2E43  00                 [71] (-62)
2E44  00                 [72] (-62)
2E45  A5                 [73] (-62)
2E46  01                 [74] (-62)
2E47  00                 [75] (-60)
2E48  00                 [76] (-60)
2E49  A6                 [77] (-60)
2E4A  01                 [78] (-60)
2E4B  00                 [79] (-60)
2E4C  00                 [80] (-60)
2E4D  A9                 [81] (-58)
2E4E  01                 [82] (-58)
2E4F  00                 [83] (-58)
2E50  00                 [84] (-58)
2E51  AA                 [85] (-58)
2E52  01                 [86] (-58)
2E53  00                 [87] (-58)
2E54  00                 [88] (-58)
2E55  AA                 [89] (-56)
2E56  01                 [90] (-56)
2E57  00                 [91] (-56)
2E58  00                 [92] (-56)
2E59  AA                 [93] (-56)
2E5A  01                 [94] (-55)
2E5B  00                 [95] (-55)
2E5C  00                 [96] (-55)
2E5D  AA                 [97] (-53)
                         * locals:
2F81  00                 sizelocvars (0)
                         * upvalues:
2F82  00                 sizeupvalues (0)
                         ** end of function **

                         
2F83                     ** function [10] definition (level 2)
                         ** start of function **
2F83  00                 string size (0)
                         source name: (none)
2F85  03                 line defined (461)
2F86  DA                 last line defined (474)
2F87  03                 nups (0)
2F88  00                 numparams (2)
2F89  02                 is_vararg (0)
2F8A  00                 maxstacksize (10)
                         * code:
2F8C  1F                 sizecode (31)
2F8D  9D000000           [01] getglobal  2   0        ; gRegion
2F91  A4404001           [02] self       2   2   257  ; -1520831144
2F95  A2800001           [03] call       2   2   2  
2F99  98400000           [04] test       2       1    ; to [6] if false
2F9D  1A000080           [05] jmp        1            ; to [7]
2FA1  1E008000           [06] return     0   1      
2FA5  8B000002           [07] newtable   2   4   0    ; array=4, hash=0
2FA9  DD800000           [08] getglobal  3   2        ; Engine
2FAD  CEC0C001           [09] gettable   3   3   259  ; "SLOT_1"
2FB1  1D810000           [10] getglobal  4   2        ; Engine
2FB5  0E014102           [11] gettable   4   4   260  ; "SLOT_2"
2FB9  5D810000           [12] getglobal  5   2        ; Engine
2FBD  4E41C102           [13] gettable   5   5   261  ; "SLOT_5"
2FC1  9D810000           [14] getglobal  6   2        ; Engine
2FC5  8E814103           [15] gettable   6   6   262  ; "SLOT_6"
2FC9  9B400002           [16] setlist    2   4   1    ; index 1 to 4
2FCD  D9C00100           [17] loadk      3   7        ; 0
2FD1  0A010001           [18] len        4   2      
2FD5  59C10100           [19] loadk      5   7        ; 0
2FD9  D0000280           [20] forprep    3   9        ; to [30]
2FDD  58000000           [21] test       1       0    ; to [23] if true
2FE1  1AC00080           [22] jmp        4            ; to [27]
2FE5  E4014200           [23] self       7   0   264  ; -1895507148
2FE9  4E820101           [24] gettable   9   2   6  
2FED  E2418001           [25] call       7   3   1  
2FF1  1A800080           [26] jmp        3            ; to [30]
2FF5  E4414200           [27] self       7   0   265  ; -1572901801
2FF9  4E820101           [28] gettable   9   2   6  
2FFD  E2418001           [29] call       7   3   1  
3001  D440FD7F           [30] forloop    3   -10      ; to [21] if loop
3005  1E008000           [31] return     0   1      
                         * constants:
3009  0A                 sizek (10)
300A  04                 const type 4
300B  08                 string size (8)
300C  67526567696F6E00   "gRegion\0"
                         const [0]: "gRegion"
3014  01                 const type 3
3015  58F559A5           const [1]: (-1520831144)
3019  04                 const type 4
301A  07                 string size (7)
301B  456E67696E6500     "Engine\0"
                         const [2]: "Engine"
3022  04                 const type 4
3023  07                 string size (7)
3024  534C4F545F3100     "SLOT_1\0"
                         const [3]: "SLOT_1"
302B  04                 const type 4
302C  07                 string size (7)
302D  534C4F545F3200     "SLOT_2\0"
                         const [4]: "SLOT_2"
3034  04                 const type 4
3035  07                 string size (7)
3036  534C4F545F3500     "SLOT_5\0"
                         const [5]: "SLOT_5"
303D  04                 const type 4
303E  07                 string size (7)
303F  534C4F545F3600     "SLOT_6\0"
                         const [6]: "SLOT_6"
3046  03                 const type 3
3047  0000803F           const [7]: (0)
304B  01                 const type 3
304C  34DB048F           const [8]: (-1895507148)
3050  01                 const type 3
3051  576C3FA2           const [9]: (-1572901801)
                         * functions:
3055  00                 sizep (0)
                         * lines:
3056  1F                 sizelineinfo (31)
                         [pc] (line)
3057  CE                 [01] (-50)
3058  01                 [02] (-50)
3059  00                 [03] (-50)
305A  00                 [04] (-50)
305B  CE                 [05] (-50)
305C  01                 [06] (-49)
305D  00                 [07] (-46)
305E  00                 [08] (-46)
305F  CE                 [09] (-46)
3060  01                 [10] (-46)
3061  00                 [11] (-46)
3062  00                 [12] (-46)
3063  CE                 [13] (-46)
3064  01                 [14] (-46)
3065  00                 [15] (-46)
3066  00                 [16] (-46)
3067  CE                 [17] (-45)
3068  01                 [18] (-45)
3069  00                 [19] (-45)
306A  00                 [20] (-45)
306B  CF                 [21] (-44)
306C  01                 [22] (-44)
306D  00                 [23] (-43)
306E  00                 [24] (-43)
306F  D2                 [25] (-43)
3070  01                 [26] (-43)
3071  00                 [27] (-41)
3072  00                 [28] (-41)
3073  D2                 [29] (-41)
3074  01                 [30] (-45)
3075  00                 [31] (-38)
                         * locals:
30D3  00                 sizelocvars (0)
                         * upvalues:
30D4  00                 sizeupvalues (0)
                         ** end of function **

                         
30D5                     ** function [11] definition (level 2)
                         ** start of function **
30D5  00                 string size (0)
                         source name: (none)
30D7  03                 line defined (476)
30D8  87                 last line defined (647)
30D9  05                 nups (4)
30DA  04                 numparams (2)
30DB  02                 is_vararg (0)
30DC  00                 maxstacksize (37)
                         * code:
30DF  02                 sizecode (378)
30E0  A400C000           [001] self       2   1   256  ; -1764426596
30E4  A2800001           [002] call       2   2   2  
30E8  E440C000           [003] self       3   1   257  ; 1309201817
30EC  E2800001           [004] call       3   2   2  
30F0  1D810000           [005] getglobal  4   2        ; 1074689893
30F4  52010001           [006] move       5   2      
30F8  22810001           [007] call       4   2   2  
30FC  18010000           [008] test       4       0    ; to [10] if true
3100  1A000080           [009] jmp        1            ; to [11]
3104  1E008000           [010] return     0   1      
3108  1DC10000           [011] getglobal  4   3        ; Lotus_Game
310C  0E014102           [012] gettable   4   4   260  ; "LotusHumanPlayer_NKC_NONE"
3110  5DC10000           [013] getglobal  5   3        ; Lotus_Game
3114  4E01C102           [014] gettable   5   5   260  ; "LotusHumanPlayer_NKC_NONE"
fail op	35
3118  23400102           [015] close      0  
311C  1A800180           [016] jmp        7            ; to [24]
3120  64414101           [017] self       5   2   261  ; 625015708
3124  62810001           [018] call       5   2   2  
3128  12018002           [019] move       4   5      
312C  5D810100           [020] getglobal  5   6        ; 538022378
3130  99C10100           [021] loadk      6   7        ; 0
3134  62410001           [022] call       5   2   1  
3138  1A00FD7F           [023] jmp        -11          ; to [13]
313C  5D010200           [024] getglobal  5   8        ; gRegion
3140  6441C202           [025] self       5   5   265  ; -1084394954
3144  DD810200           [026] getglobal  7   10       ; cinematicType
3148  24C24200           [027] self       8   0   267  ; 196800914
314C  22820001           [028] call       8   2   2  
3150  59020300           [029] loadk      9   12       ; 0
3154  62818002           [030] call       5   5   2  
3158  9D810000           [031] getglobal  6   2        ; 1074689893
315C  D2018002           [032] move       7   5      
3160  A2810001           [033] call       6   2   2  
3164  98410000           [034] test       6       1    ; to [36] if false
3168  1AC00180           [035] jmp        8            ; to [44]
316C  A441C302           [036] self       6   5   269  ; 1438910546
3170  A2810001           [037] call       6   2   2  
3174  98010000           [038] test       6       0    ; to [40] if true
3178  1AC00080           [039] jmp        4            ; to [44]
317C  9D810100           [040] getglobal  6   6        ; 538022378
3180  D9C10100           [041] loadk      7   7        ; 0
3184  A2410001           [042] call       6   2   1  
3188  1AC0FD7F           [043] jmp        -8           ; to [36]
318C  9D810300           [044] getglobal  6   14       ; _T
3190  8C01C487           [045] settable   6   271 272  ; "LichKillChoiceMade" 1
3194  9DC10000           [046] getglobal  6   3        ; Lotus_Game
3198  8E414403           [047] gettable   6   6   273  ; "LotusHumanPlayer_NKC_KILL"
fail op	35
319C  63800102           [048] close      1  
31A0  1A000080           [049] jmp        1            ; to [51]
31A4  97410000           [050] loadbool   6   0   1    ; false, to [52]
31A8  97018000           [051] loadbool   6   1   0    ; true
fail op	8
31AC  88010000           [052] setupval   6   0      
31B0  93018000           [053] getupval   6   1      
31B4  E481C400           [054] self       7   1   274  ; -1917464545
31B8  E2810001           [055] call       7   2   2  
31BC  17028000           [056] loadbool   8   1   0    ; true
31C0  A2418001           [057] call       6   3   1  
31C4  97018000           [058] loadbool   6   1   0    ; true
31C8  D7010000           [059] loadbool   7   0   0    ; false
31CC  98410000           [060] test       6       1    ; to [62] if false
31D0  1A800080           [061] jmp        3            ; to [65]
31D4  D8410000           [062] test       7       1    ; to [64] if false
31D8  1A000080           [063] jmp        1            ; to [65]
31DC  1E008000           [064] return     0   1      
31E0  06028004           [065] loadnil    8   9      
31E4  A4C24400           [066] self       10  0   275  ; -1870903749
31E8  A2820001           [067] call       10  2   2  
31EC  DD820000           [068] getglobal  11  2        ; 1074689893
31F0  12030005           [069] move       12  10     
31F4  E2820001           [070] call       11  2   2  
31F8  D8420000           [071] test       11      1    ; to [73] if false
31FC  1A800B80           [072] jmp        47           ; to [120]
3200  E4024505           [073] self       11  10  276  ; -1625438872
3204  5D430500           [074] getglobal  13  21       ; weakPointType
3208  E2828001           [075] call       11  3   2  
320C  19C30100           [076] loadk      12  7        ; 0
3210  5D830000           [077] getglobal  13  2        ; 1074689893
3214  92038005           [078] move       14  11     
3218  62830001           [079] call       13  2   2  
321C  58430000           [080] test       13      1    ; to [82] if false
3220  1A400380           [081] jmp        14           ; to [96]
3224  59030300           [082] loadk      13  12       ; 0
3228  9D830500           [083] getglobal  14  22       ; weakPoints
322C  8A030007           [084] len        14  14     
3230  D9030300           [085] loadk      15  12       ; 0
3234  50C30180           [086] forprep    13  8        ; to [95]
3238  64C4C505           [087] self       17  11  279  ; -1957065004
323C  DD840500           [088] getglobal  19  22       ; weakPoints
3240  CE048409           [089] gettable   19  19  16 
3244  62848001           [090] call       17  3   2  
3248  58040000           [091] test       17      0    ; to [93] if true
324C  1A400080           [092] jmp        2            ; to [95]
3250  12030008           [093] move       12  16     
3254  1A000080           [094] jmp        1            ; to [96]
3258  5483FD7F           [095] forloop    13  -9       ; to [87] if loop
325C  46040009           [096] loadnil    17  18     
3260  D3040000           [097] getupval   19  0      
3264  D8040000           [098] test       19      0    ; to [100] if true
3268  1A800080           [099] jmp        3            ; to [103]
326C  5D040600           [100] getglobal  17  24       ; killAnims
3270  9D440600           [101] getglobal  18  25       ; finalKillCollections
3274  1A400080           [102] jmp        2            ; to [105]
3278  5D840600           [103] getglobal  17  26       ; convertAnims
327C  9DC40600           [104] getglobal  18  27       ; saveCollections
fail op	21
3280  15008383           [105] concat     0   263 12 
3284  1A800080           [106] jmp        3            ; to [110]
3288  0E028308           [107] gettable   8   17  12 
328C  4E020309           [108] gettable   9   18  12 
3290  1A400280           [109] jmp        10           ; to [120]
3294  DD040700           [110] getglobal  19  28       ; 2144646525
3298  19050300           [111] loadk      20  12       ; 0
329C  4A058008           [112] len        21  17     
32A0  E2848001           [113] call       19  3   2  
32A4  0EC28408           [114] gettable   8   17  19 
32A8  DD040700           [115] getglobal  19  28       ; 2144646525
32AC  19050300           [116] loadk      20  12       ; 0
32B0  4A050009           [117] len        21  18     
32B4  E2848001           [118] call       19  3   2  
32B8  4EC20409           [119] gettable   9   18  19 
32BC  E4444705           [120] self       19  10  285  ; 677420169
32C0  5D850700           [121] getglobal  21  30       ; -332969190
32C4  99C50700           [122] loadk      22  31       ; "GetUpFromPreDeath"
32C8  62050001           [123] call       21  2   0  
32CC  E2440000           [124] call       19  0   1  
32D0  E4044800           [125] self       19  0   288  ; 766584623
32D4  E2440001           [126] call       19  2   1  
32D8  98010000           [127] test       6       0    ; to [129] if true
32DC  1AC03980           [128] jmp        232          ; to [361]
32E0  D8400000           [129] test       3       1    ; to [131] if false
32E4  1AC00080           [130] jmp        4            ; to [135]
32E8  E444C800           [131] self       19  1   289  ; -1520831144
32EC  E2840001           [132] call       19  2   2  
32F0  D8040000           [133] test       19      0    ; to [135] if true
32F4  1A400280           [134] jmp        10           ; to [145]
32F8  E484C400           [135] self       19  1   274  ; -1917464545
32FC  E2840001           [136] call       19  2   2  
3300  E484C809           [137] self       19  19  290  ; 688774453
3304  5DC50800           [138] getglobal  21  35       ; Engine
3308  4E05C90A           [139] gettable   21  21  292  ; "SLOT_12"
330C  9DC50800           [140] getglobal  22  35       ; Engine
3310  8E45490B           [141] gettable   22  22  293  ; "MAIN_HAND"
3314  DDC50800           [142] getglobal  23  35       ; Engine
3318  CE85C90B           [143] gettable   23  23  294  ; "InventoryControllerBase_ES_INSTANT_EQUIP"
331C  E2448002           [144] call       19  5   1  
3320  DD840100           [145] getglobal  19  6        ; 538022378
3324  19C50100           [146] loadk      20  7        ; 0
3328  E2440001           [147] call       19  2   1  
332C  E484C400           [148] self       19  1   274  ; -1917464545
3330  E2840001           [149] call       19  2   2  
3334  E4C4C909           [150] self       19  19  295  ; 1885503231
3338  E2840001           [151] call       19  2   2  
333C  1D850000           [152] getglobal  20  2        ; 1074689893
3340  52058009           [153] move       21  19     
3344  22850001           [154] call       20  2   2  
3348  18450000           [155] test       20      1    ; to [157] if false
334C  1AC00080           [156] jmp        4            ; to [161]
3350  2405CA09           [157] self       20  19  296  ; 1750428796
3354  92058004           [158] move       22  9      
3358  22458001           [159] call       20  3   1  
335C  1A400180           [160] jmp        6            ; to [167]
3360  2405CA00           [161] self       20  1   296  ; 1750428796
3364  9D850700           [162] getglobal  22  30       ; -332969190
3368  D9450A00           [163] loadk      23  41       ; "KUVA_LICH"
336C  A2850001           [164] call       22  2   2  
3370  D2058004           [165] move       23  9      
3374  22450002           [166] call       20  4   1  
3378  24854A05           [167] self       20  10  298  ; -452063099
337C  9DC50800           [168] getglobal  22  35       ; Engine
3380  8EC54A0B           [169] gettable   22  22  299  ; "PM_BLOCKING_ANIM"
3384  D7050000           [170] loadbool   23  0   0    ; false
3388  22450002           [171] call       20  4   1  
338C  2405CB00           [172] self       20  1   300  ; 913549167
3390  22850001           [173] call       20  2   2  
3394  5D850000           [174] getglobal  21  2        ; 1074689893
3398  9205000A           [175] move       22  20     
339C  62850001           [176] call       21  2   2  
33A0  58450000           [177] test       21      1    ; to [179] if false
33A4  1A400280           [178] jmp        10           ; to [189]
33A8  64454B0A           [179] self       21  20  301  ; 361511847
33AC  D2058000           [180] move       23  1      
33B0  12060005           [181] move       24  10     
33B4  62850002           [182] call       21  4   2  
33B8  58050000           [183] test       21      0    ; to [185] if true
33BC  1A400180           [184] jmp        6            ; to [191]
33C0  64854B05           [185] self       21  10  302  ; -117614403
33C4  62850001           [186] call       21  2   2  
fail op	9
33C8  4905800A           [187] settable   21  21  0  
33CC  1A400080           [188] jmp        2            ; to [191]
33D0  57450000           [189] loadbool   21  0   1    ; false, to [191]
33D4  57058000           [190] loadbool   21  1   0    ; true
33D8  58050000           [191] test       21      0    ; to [193] if true
33DC  1AC00680           [192] jmp        28           ; to [221]
33E0  A445C000           [193] self       22  1   257  ; 1309201817
33E4  A2850001           [194] call       22  2   2  
33E8  98050000           [195] test       22      0    ; to [197] if true
33EC  1A400080           [196] jmp        2            ; to [199]
33F0  A4C5CB00           [197] self       22  1   303  ; -705393237
33F4  A2450001           [198] call       22  2   1  
33F8  99050C00           [199] loadk      22  48       ; 0
33FC  E485CB00           [200] self       23  1   302  ; -117614403
3400  E2850001           [201] call       23  2   2  
3404  D8450000           [202] test       23      1    ; to [204] if false
3408  1A000280           [203] jmp        9            ; to [213]
fail op	21
340C  15808583           [204] concat     0   263 22 
3410  1A800180           [205] jmp        7            ; to [213]
3414  DD850100           [206] getglobal  23  6        ; 538022378
3418  19C60100           [207] loadk      24  7        ; 0
341C  E2450001           [208] call       23  2   1  
3420  DD450C00           [209] getglobal  23  49       ; 1289681407
3424  E2858000           [210] call       23  1   2  
3428  8DC5050B           [211] sub        22  22  23 
342C  1A80FC7F           [212] jmp        -13          ; to [200]
3430  E485CB00           [213] self       23  1   302  ; -117614403
3434  E2850001           [214] call       23  2   2  
3438  D8050000           [215] test       23      0    ; to [217] if true
343C  1AC00080           [216] jmp        4            ; to [221]
3440  DD850100           [217] getglobal  23  6        ; 538022378
3444  19C60100           [218] loadk      24  7        ; 0
3448  E2450001           [219] call       23  2   1  
344C  1AC0FD7F           [220] jmp        -8           ; to [213]
3450  D3050000           [221] getupval   23  0      
fail op	35
3454  2300C40B           [222] close      0  
3458  1A800280           [223] jmp        11           ; to [235]
345C  DD850100           [224] getglobal  23  6        ; 538022378
3460  19C60100           [225] loadk      24  7        ; 0
3464  E2450001           [226] call       23  2   1  
3468  DD050200           [227] getglobal  23  8        ; gRegion
346C  E445C80B           [228] self       23  23  289  ; -1520831144
3470  E2850001           [229] call       23  2   2  
3474  D8050000           [230] test       23      0    ; to [232] if true
3478  1A801180           [231] jmp        71           ; to [303]
347C  E4854C05           [232] self       23  10  306  ; -1525609078
3480  E2450001           [233] call       23  2   1  
3484  1AC01080           [234] jmp        68           ; to [303]
3488  E4C54C05           [235] self       23  10  307  ; -1338608417
348C  5D860700           [236] getglobal  25  30       ; -332969190
3490  99060D00           [237] loadk      26  52       ; "TENNO"
3494  62060001           [238] call       25  2   0  
3498  E2450000           [239] call       23  0   1  
349C  E4454D05           [240] self       23  10  309  ; 155743781
34A0  59860D00           [241] loadk      25  54       ; 0
34A4  E2458001           [242] call       23  3   1  
34A8  E4C54D05           [243] self       23  10  311  ; -1329333704
34AC  57060000           [244] loadbool   25  0   0    ; false
34B0  E2458001           [245] call       23  3   1  
34B4  E4054E05           [246] self       23  10  312  ; -1411785325
34B8  E2850001           [247] call       23  2   2  
34BC  1D860000           [248] getglobal  24  2        ; 1074689893
34C0  5206800B           [249] move       25  23     
34C4  22860001           [250] call       24  2   2  
34C8  18460000           [251] test       24      1    ; to [253] if false
34CC  1A400180           [252] jmp        6            ; to [259]
34D0  2446CE0B           [253] self       24  23  313  ; 1038470555
34D4  97060000           [254] loadbool   26  0   0    ; false
34D8  DD860700           [255] getglobal  27  30       ; -332969190
34DC  19870E00           [256] loadk      28  58       ; "KUVA_LICH_DEFEATED"
34E0  E2060001           [257] call       27  2   0  
34E4  22460000           [258] call       24  0   1  
34E8  24C64E05           [259] self       24  10  315  ; -703571861
34EC  99C60100           [260] loadk      26  7        ; 0
34F0  22468001           [261] call       24  3   1  
34F4  24064F05           [262] self       24  10  316  ; -1421644046
34F8  93060001           [263] getupval   26  2      
34FC  DD460F00           [264] getglobal  27  61       ; EMPTY_SYMBOL
3500  22460002           [265] call       24  4   1  
3504  24864F05           [266] self       24  10  318  ; 2056776437
3508  93068001           [267] getupval   26  3      
350C  D7060000           [268] loadbool   27  0   0    ; false
3510  1DC70800           [269] getglobal  28  35       ; Engine
3514  0EC74F0E           [270] gettable   28  28  319  ; "ATMM_ANIMATION_DRIVEN"
3518  5DC70800           [271] getglobal  29  35       ; Engine
351C  4E07D00E           [272] gettable   29  29  320  ; "PRT_ONCE"
3520  97078000           [273] loadbool   30  1   0    ; true
3524  22468003           [274] call       24  7   1  
3528  19C60100           [275] loadk      24  7        ; 0
fail op	33
352C  2100430C           [276] tforloop   0       268  ; to [278] if exit
3530  1A400380           [277] jmp        14           ; to [292]
3534  64C64E05           [278] self       25  10  315  ; -703571861
3538  DD461000           [279] getglobal  27  65       ; -1828500651
353C  19C70100           [280] loadk      28  7        ; 0
3540  59070300           [281] loadk      29  12       ; 0
3544  9207000C           [282] move       30  24     
3548  E2060002           [283] call       27  4   0  
354C  62460000           [284] call       25  0   1  
3550  5D460C00           [285] getglobal  25  49       ; 1289681407
3554  62868000           [286] call       25  1   2  
3558  0346060C           [287] add        24  24  25 
355C  5D860100           [288] getglobal  25  6        ; 538022378
3560  99C60100           [289] loadk      26  7        ; 0
3564  62460001           [290] call       25  2   1  
3568  1AC0FB7F           [291] jmp        -16          ; to [276]
356C  64865005           [292] self       25  10  322  ; -725453761
3570  62460001           [293] call       25  2   1  
3574  5DC61000           [294] getglobal  25  67       ; gGameRules
3578  6406D10C           [295] self       25  25  324  ; 516385015
357C  62860001           [296] call       25  2   2  
3580  A446D10C           [297] self       26  25  325  ; -1105824
3584  17078000           [298] loadbool   28  1   0    ; true
3588  A2468001           [299] call       26  3   1  
358C  A486D10C           [300] self       26  25  326  ; 2143938515
3590  0607000E           [301] loadnil    28  28     
3594  A2468001           [302] call       26  3   1  
3598  9D860000           [303] getglobal  26  2        ; 1074689893
359C  D2068009           [304] move       27  19     
35A0  A2860001           [305] call       26  2   2  
35A4  98460000           [306] test       26      1    ; to [308] if false
35A8  1AC00080           [307] jmp        4            ; to [312]
35AC  A406CA09           [308] self       26  19  296  ; 1750428796
35B0  0607000E           [309] loadnil    28  28     
35B4  A2468001           [310] call       26  3   1  
35B8  1A400180           [311] jmp        6            ; to [318]
35BC  A406CA00           [312] self       26  1   296  ; 1750428796
35C0  1D870700           [313] getglobal  28  30       ; -332969190
35C4  59470A00           [314] loadk      29  41       ; "KUVA_LICH"
35C8  22870001           [315] call       28  2   2  
35CC  4607800E           [316] loadnil    29  29     
35D0  A2460002           [317] call       26  4   1  
35D4  D8000000           [318] test       3       0    ; to [320] if true
35D8  1AC00D80           [319] jmp        56           ; to [376]
35DC  9D860000           [320] getglobal  26  2        ; 1074689893
35E0  DD860300           [321] getglobal  27  14       ; _T
35E4  CEC6D10D           [322] gettable   27  27  327  ; "KillConvertPrevWeapon"
35E8  A2860001           [323] call       26  2   2  
35EC  98460000           [324] test       26      1    ; to [326] if false
35F0  1A000380           [325] jmp        13           ; to [339]
35F4  A486C400           [326] self       26  1   274  ; -1917464545
35F8  A2860001           [327] call       26  2   2  
35FC  A486480D           [328] self       26  26  290  ; 688774453
3600  1D870300           [329] getglobal  28  14       ; _T
3604  0EC7510E           [330] gettable   28  28  327  ; "KillConvertPrevWeapon"
3608  2407520E           [331] self       28  28  328  ; -1057537912
360C  22870001           [332] call       28  2   2  
3610  5DC70800           [333] getglobal  29  35       ; Engine
3614  4E47C90E           [334] gettable   29  29  293  ; "MAIN_HAND"
3618  9DC70800           [335] getglobal  30  35       ; Engine
361C  8E87490F           [336] gettable   30  30  294  ; "InventoryControllerBase_ES_INSTANT_EQUIP"
3620  A2468002           [337] call       26  5   1  
3624  1AC00080           [338] jmp        4            ; to [343]
3628  A486C400           [339] self       26  1   274  ; -1917464545
362C  A2860001           [340] call       26  2   2  
3630  A446520D           [341] self       26  26  329  ; -340238
3634  A2460001           [342] call       26  2   1  
3638  9D860300           [343] getglobal  26  14       ; _T
363C  8E86520D           [344] gettable   26  26  330  ; "LichKillConvertHiddenEnemies"
fail op	35
3640  63C0520D           [345] close      1  
3644  1A000780           [346] jmp        29           ; to [376]
3648  99060300           [347] loadk      26  12       ; 0
364C  DD860300           [348] getglobal  27  14       ; _T
3650  CE86D20D           [349] gettable   27  27  330  ; "LichKillConvertHiddenEnemies"
3654  CA06800D           [350] len        27  27     
3658  19070300           [351] loadk      28  12       ; 0
365C  90460180           [352] forprep    26  6        ; to [359]
3660  9D870300           [353] getglobal  30  14       ; _T
3664  8E87520F           [354] gettable   30  30  330  ; "LichKillConvertHiddenEnemies"
3668  8E47070F           [355] gettable   30  30  29 
366C  A407530F           [356] self       30  30  332  ; -458552994
3670  17088000           [357] loadbool   32  1   0    ; true
3674  A2478001           [358] call       30  3   1  
3678  9406FE7F           [359] forloop    26  -7       ; to [353] if loop
367C  1A800380           [360] jmp        15           ; to [376]
3680  D8010000           [361] test       7       0    ; to [363] if true
3684  1A000380           [362] jmp        13           ; to [376]
3688  9D870000           [363] getglobal  30  2        ; 1074689893
368C  D2070004           [364] move       31  8      
3690  A2870001           [365] call       30  2   2  
3694  98470000           [366] test       30      1    ; to [368] if false
3698  1AC00180           [367] jmp        8            ; to [376]
369C  A447D300           [368] self       30  1   333  ; 1536498398
36A0  12080005           [369] move       32  10     
36A4  52080004           [370] move       33  8      
36A8  9DC80800           [371] getglobal  34  35       ; Engine
36AC  8EC84F11           [372] gettable   34  34  319  ; "ATMM_ANIMATION_DRIVEN"
36B0  D7088000           [373] loadbool   35  1   0    ; true
36B4  17098000           [374] loadbool   36  1   0    ; true
36B8  A2478003           [375] call       30  7   1  
36BC  A4074800           [376] self       30  0   288  ; 766584623
36C0  A2470001           [377] call       30  2   1  
36C4  1E008000           [378] return     0   1      
                         * constants:
36C8  4E                 sizek (78)
36C9  01                 const type 3
36CA  9CFCD496           const [0]: (-1764426596)
36CE  01                 const type 3
36CF  99D5084E           const [1]: (1309201817)
36D3  01                 const type 3
36D4  65770E40           const [2]: (1074689893)
36D8  04                 const type 4
36D9  0B                 string size (11)
36DA  4C6F7475735F4761+  "Lotus_Ga"
36E2  6D6500             "me\0"
                         const [3]: "Lotus_Game"
36E5  04                 const type 4
36E6  1A                 string size (26)
36E7  4C6F74757348756D+  "LotusHum"
36EF  616E506C61796572+  "anPlayer"
36F7  5F4E4B435F4E4F4E+  "_NKC_NON"
36FF  4500               "E\0"
                         const [4]: "LotusHumanPlayer_NKC_NONE"
3701  01                 const type 3
3702  9CFB4025           const [5]: (625015708)
3706  01                 const type 3
3707  EA911120           const [6]: (538022378)
370B  03                 const type 3
370C  00000000           const [7]: (0)
3710  04                 const type 4
3711  08                 string size (8)
3712  67526567696F6E00   "gRegion\0"
                         const [8]: "gRegion"
371A  01                 const type 3
371B  36725DBF           const [9]: (-1084394954)
371F  04                 const type 4
3720  0E                 string size (14)
3721  63696E656D617469+  "cinemati"
3729  635479706500       "cType\0"
                         const [10]: "cinematicType"
372F  01                 const type 3
3730  92F1BA0B           const [11]: (196800914)
3734  03                 const type 3
3735  0000803F           const [12]: (0)
3739  01                 const type 3
373A  5208C455           const [13]: (1438910546)
373E  04                 const type 4
373F  03                 string size (3)
3740  5F5400             "_T\0"
                         const [14]: "_T"
3743  04                 const type 4
3744  13                 string size (19)
3745  4C6963684B696C6C+  "LichKill"
374D  43686F6963654D61+  "ChoiceMa"
3755  646500             "de\0"
                         const [15]: "LichKillChoiceMade"
3758  01                 const type 3
3759  01000000           const [16]: (1)
375D  04                 const type 4
375E  1A                 string size (26)
375F  4C6F74757348756D+  "LotusHum"
3767  616E506C61796572+  "anPlayer"
376F  5F4E4B435F4B494C+  "_NKC_KIL"
3777  4C00               "L\0"
                         const [17]: "LotusHumanPlayer_NKC_KILL"
3779  01                 const type 3
377A  1FD0B58D           const [18]: (-1917464545)
377E  01                 const type 3
377F  3B467C90           const [19]: (-1870903749)
3783  01                 const type 3
3784  68C51D9F           const [20]: (-1625438872)
3788  04                 const type 4
3789  0E                 string size (14)
378A  7765616B506F696E+  "weakPoin"
3792  745479706500       "tType\0"
                         const [21]: "weakPointType"
3798  04                 const type 4
3799  0B                 string size (11)
379A  7765616B506F696E+  "weakPoin"
37A2  747300             "ts\0"
                         const [22]: "weakPoints"
37A5  01                 const type 3
37A6  D48E598B           const [23]: (-1957065004)
37AA  04                 const type 4
37AB  0A                 string size (10)
37AC  6B696C6C416E696D+  "killAnim"
37B4  7300               "s\0"
                         const [24]: "killAnims"
37B6  04                 const type 4
37B7  15                 string size (21)
37B8  66696E616C4B696C+  "finalKil"
37C0  6C436F6C6C656374+  "lCollect"
37C8  696F6E7300         "ions\0"
                         const [25]: "finalKillCollections"
37CD  04                 const type 4
37CE  0D                 string size (13)
37CF  636F6E7665727441+  "convertA"
37D7  6E696D7300         "nims\0"
                         const [26]: "convertAnims"
37DC  04                 const type 4
37DD  10                 string size (16)
37DE  73617665436F6C6C+  "saveColl"
37E6  656374696F6E7300   "ections\0"
                         const [27]: "saveCollections"
37EE  01                 const type 3
37EF  7DB5D47F           const [28]: (2144646525)
37F3  01                 const type 3
37F4  899C6028           const [29]: (677420169)
37F8  01                 const type 3
37F9  1A4B27EC           const [30]: (-332969190)
37FD  04                 const type 4
37FE  12                 string size (18)
37FF  476574557046726F+  "GetUpFro"
3807  6D50726544656174+  "mPreDeat"
380F  6800               "h\0"
                         const [31]: "GetUpFromPreDeath"
3811  01                 const type 3
3812  2F27B12D           const [32]: (766584623)
3816  01                 const type 3
3817  58F559A5           const [33]: (-1520831144)
381B  01                 const type 3
381C  35DD0D29           const [34]: (688774453)
3820  04                 const type 4
3821  07                 string size (7)
3822  456E67696E6500     "Engine\0"
                         const [35]: "Engine"
3829  04                 const type 4
382A  08                 string size (8)
382B  534C4F545F313200   "SLOT_12\0"
                         const [36]: "SLOT_12"
3833  04                 const type 4
3834  0A                 string size (10)
3835  4D41494E5F48414E+  "MAIN_HAN"
383D  4400               "D\0"
                         const [37]: "MAIN_HAND"
383F  04                 const type 4
3840  29                 string size (41)
3841  496E76656E746F72+  "Inventor"
3849  79436F6E74726F6C+  "yControl"
3851  6C6572426173655F+  "lerBase_"
3859  45535F494E535441+  "ES_INSTA"
3861  4E545F4551554950+  "NT_EQUIP"
3869  00                 "\0"
                         const [38]: "InventoryControllerBase_ES_INSTANT_EQUIP"
386A  01                 const type 3
386B  FF7E6270           const [39]: (1885503231)
386F  01                 const type 3
3870  7C6C5568           const [40]: (1750428796)
3874  04                 const type 4
3875  0A                 string size (10)
3876  4B5556415F4C4943+  "KUVA_LIC"
387E  4800               "H\0"
                         const [41]: "KUVA_LICH"
3880  01                 const type 3
3881  85100EE5           const [42]: (-452063099)
3885  04                 const type 4
3886  11                 string size (17)
3887  504D5F424C4F434B+  "PM_BLOCK"
388F  494E475F414E494D+  "ING_ANIM"
3897  00                 "\0"
                         const [43]: "PM_BLOCKING_ANIM"
3898  01                 const type 3
3899  6FA77336           const [44]: (913549167)
389D  01                 const type 3
389E  A73B8C15           const [45]: (361511847)
38A2  01                 const type 3
38A3  BD58FDF8           const [46]: (-117614403)
38A7  01                 const type 3
38A8  AB8DF4D5           const [47]: (-705393237)
38AC  03                 const type 3
38AD  00000040           const [48]: (0)
38B1  01                 const type 3
38B2  FFF9DE4C           const [49]: (1289681407)
38B6  01                 const type 3
38B7  8A0D11A5           const [50]: (-1525609078)
38BB  01                 const type 3
38BC  DF7436B0           const [51]: (-1338608417)
38C0  04                 const type 4
38C1  06                 string size (6)
38C2  54454E4E4F00       "TENNO\0"
                         const [52]: "TENNO"
38C8  01                 const type 3
38C9  25764809           const [53]: (155743781)
38CD  03                 const type 3
38CE  0000A0C0           const [54]: (0)
38D2  01                 const type 3
38D3  38FAC3B0           const [55]: (-1329333704)
38D7  01                 const type 3
38D8  93DDD9AB           const [56]: (-1411785325)
38DC  01                 const type 3
38DD  9BCDE53D           const [57]: (1038470555)
38E1  04                 const type 4
38E2  13                 string size (19)
38E3  4B5556415F4C4943+  "KUVA_LIC"
38EB  485F444546454154+  "H_DEFEAT"
38F3  454400             "ED\0"
                         const [58]: "KUVA_LICH_DEFEATED"
38F6  01                 const type 3
38F7  6B5810D6           const [59]: (-703571861)
38FB  01                 const type 3
38FC  F26E43AB           const [60]: (-1421644046)
3900  04                 const type 4
3901  0D                 string size (13)
3902  454D5054595F5359+  "EMPTY_SY"
390A  4D424F4C00         "MBOL\0"
                         const [61]: "EMPTY_SYMBOL"
390F  01                 const type 3
3910  F5EA977A           const [62]: (2056776437)
3914  04                 const type 4
3915  16                 string size (22)
3916  41544D4D5F414E49+  "ATMM_ANI"
391E  4D4154494F4E5F44+  "MATION_D"
3926  524956454E00       "RIVEN\0"
                         const [63]: "ATMM_ANIMATION_DRIVEN"
392C  04                 const type 4
392D  09                 string size (9)
392E  5052545F4F4E4345+  "PRT_ONCE"
3936  00                 "\0"
                         const [64]: "PRT_ONCE"
3937  01                 const type 3
3938  554B0393           const [65]: (-1828500651)
393C  01                 const type 3
393D  3F74C2D4           const [66]: (-725453761)
3941  04                 const type 4
3942  0B                 string size (11)
3943  6747616D6552756C+  "gGameRul"
394B  657300             "es\0"
                         const [67]: "gGameRules"
394E  01                 const type 3
394F  F768C71E           const [68]: (516385015)
3953  01                 const type 3
3954  6020EFFF           const [69]: (-1105824)
3958  01                 const type 3
3959  D3E7C97F           const [70]: (2143938515)
395D  04                 const type 4
395E  16                 string size (22)
395F  4B696C6C436F6E76+  "KillConv"
3967  6572745072657657+  "ertPrevW"
396F  6561706F6E00       "eapon\0"
                         const [71]: "KillConvertPrevWeapon"
3975  01                 const type 3
3976  8840F7C0           const [72]: (-1057537912)
397A  01                 const type 3
397B  F2CEFAFF           const [73]: (-340238)
397F  04                 const type 4
3980  1D                 string size (29)
3981  4C6963684B696C6C+  "LichKill"
3989  436F6E7665727448+  "ConvertH"
3991  696464656E456E65+  "iddenEne"
3999  6D69657300         "mies\0"
                         const [74]: "LichKillConvertHiddenEnemies"
399E  00                 const type 0
                         const [75]: nil
399F  01                 const type 3
39A0  5E09ABE4           const [76]: (-458552994)
39A4  01                 const type 3
39A5  DE1A955B           const [77]: (1536498398)
                         * functions:
39A9  00                 sizep (0)
                         * lines:
39AB  02                 sizelineinfo (378)
                         [pc] (line)
39AC  DE                 [001] (-34)
39AD  01                 [002] (-34)
39AE  00                 [003] (-33)
39AF  00                 [004] (-33)
39B0  DE                 [005] (-31)
39B1  01                 [006] (-31)
39B2  00                 [007] (-31)
39B3  00                 [008] (-31)
39B4  DF                 [009] (-31)
39B5  01                 [010] (-30)
39B6  00                 [011] (-27)
39B7  00                 [012] (-27)
39B8  DF                 [013] (-25)
39B9  01                 [014] (-25)
39BA  00                 [015] (-25)
39BB  00                 [016] (-25)
39BC  E1                 [017] (-24)
39BD  01                 [018] (-24)
39BE  00                 [019] (-24)
39BF  00                 [020] (-23)
39C0  E1                 [021] (-23)
39C1  01                 [022] (-23)
39C2  00                 [023] (-23)
39C3  00                 [024] (-20)
39C4  E1                 [025] (-20)
39C5  01                 [026] (-20)
39C6  00                 [027] (-20)
39C7  00                 [028] (-20)
39C8  E1                 [029] (-20)
39C9  01                 [030] (-20)
39CA  00                 [031] (-19)
39CB  00                 [032] (-19)
39CC  E1                 [033] (-19)
39CD  01                 [034] (-19)
39CE  00                 [035] (-19)
39CF  00                 [036] (-18)
39D0  E2                 [037] (-18)
39D1  01                 [038] (-18)
39D2  00                 [039] (-18)
39D3  00                 [040] (-17)
39D4  E5                 [041] (-17)
39D5  01                 [042] (-17)
39D6  00                 [043] (-17)
39D7  00                 [044] (-13)
39D8  E5                 [045] (-13)
39D9  01                 [046] (-11)
39DA  00                 [047] (-11)
39DB  00                 [048] (-11)
39DC  E7                 [049] (-11)
39DD  01                 [050] (-11)
39DE  00                 [051] (-11)
39DF  00                 [052] (-11)
39E0  E7                 [053] (-9)
39E1  01                 [054] (-9)
39E2  00                 [055] (-9)
39E3  00                 [056] (-9)
39E4  E7                 [057] (-9)
39E5  01                 [058] (-7)
39E6  00                 [059] (-6)
39E7  00                 [060] (-4)
39E8  E7                 [061] (-4)
39E9  01                 [062] (-4)
39EA  00                 [063] (-4)
39EB  00                 [064] (-3)
39EC  E8                 [065] (0)
39ED  01                 [066] (2)
39EE  00                 [067] (2)
39EF  00                 [068] (3)
39F0  E8                 [069] (3)
39F1  01                 [070] (3)
39F2  00                 [071] (3)
39F3  00                 [072] (3)
39F4  E8                 [073] (4)
39F5  01                 [074] (4)
39F6  00                 [075] (4)
39F7  00                 [076] (5)
39F8  E9                 [077] (6)
39F9  01                 [078] (6)
39FA  00                 [079] (6)
39FB  00                 [080] (6)
39FC  E9                 [081] (6)
39FD  01                 [082] (7)
39FE  00                 [083] (7)
39FF  00                 [084] (7)
3A00  E9                 [085] (7)
3A01  01                 [086] (7)
3A02  00                 [087] (8)
3A03  00                 [088] (8)
3A04  E9                 [089] (8)
3A05  01                 [090] (8)
3A06  00                 [091] (8)
3A07  00                 [092] (8)
3A08  EC                 [093] (9)
3A09  01                 [094] (10)
3A0A  00                 [095] (7)
3A0B  00                 [096] (15)
3A0C  EC                 [097] (17)
3A0D  01                 [098] (17)
3A0E  00                 [099] (17)
3A0F  00                 [100] (18)
3A10  EC                 [101] (19)
3A11  01                 [102] (19)
3A12  00                 [103] (21)
3A13  00                 [104] (22)
3A14  EC                 [105] (25)
3A15  01                 [106] (25)
3A16  00                 [107] (26)
3A17  00                 [108] (27)
3A18  EC                 [109] (27)
3A19  01                 [110] (29)
3A1A  00                 [111] (29)
3A1B  00                 [112] (29)
3A1C  EC                 [113] (29)
3A1D  01                 [114] (29)
3A1E  00                 [115] (30)
3A1F  00                 [116] (30)
3A20  EC                 [117] (30)
3A21  01                 [118] (30)
3A22  00                 [119] (30)
3A23  00                 [120] (36)
3A24  ED                 [121] (36)
3A25  01                 [122] (36)
3A26  00                 [123] (36)
3A27  00                 [124] (36)
3A28  ED                 [125] (38)
3A29  01                 [126] (38)
3A2A  00                 [127] (40)
3A2B  00                 [128] (40)
3A2C  ED                 [129] (41)
3A2D  01                 [130] (41)
3A2E  00                 [131] (41)
3A2F  00                 [132] (41)
3A30  ED                 [133] (41)
3A31  01                 [134] (41)
3A32  00                 [135] (42)
3A33  00                 [136] (42)
3A34  ED                 [137] (42)
3A35  01                 [138] (42)
3A36  00                 [139] (42)
3A37  00                 [140] (42)
3A38  EE                 [141] (42)
3A39  01                 [142] (42)
3A3A  00                 [143] (42)
3A3B  00                 [144] (42)
3A3C  EE                 [145] (45)
3A3D  01                 [146] (45)
3A3E  00                 [147] (45)
3A3F  00                 [148] (47)
3A40  EE                 [149] (47)
3A41  01                 [150] (47)
3A42  00                 [151] (47)
3A43  00                 [152] (48)
3A44  EE                 [153] (48)
3A45  01                 [154] (48)
3A46  00                 [155] (48)
3A47  00                 [156] (48)
3A48  EF                 [157] (49)
3A49  01                 [158] (49)
3A4A  00                 [159] (49)
3A4B  00                 [160] (49)
3A4C  EF                 [161] (51)
3A4D  01                 [162] (51)
3A4E  00                 [163] (51)
3A4F  00                 [164] (51)
3A50  EF                 [165] (51)
3A51  01                 [166] (51)
3A52  00                 [167] (53)
3A53  00                 [168] (53)
3A54  EF                 [169] (53)
3A55  01                 [170] (53)
3A56  00                 [171] (53)
3A57  00                 [172] (55)
3A58  F3                 [173] (55)
3A59  01                 [174] (56)
3A5A  00                 [175] (56)
3A5B  00                 [176] (56)
3A5C  F3                 [177] (56)
3A5D  01                 [178] (56)
3A5E  00                 [179] (56)
3A5F  00                 [180] (56)
3A60  F5                 [181] (56)
3A61  01                 [182] (56)
3A62  00                 [183] (56)
3A63  00                 [184] (56)
3A64  F5                 [185] (56)
3A65  01                 [186] (56)
3A66  00                 [187] (56)
3A67  00                 [188] (56)
3A68  F5                 [189] (56)
3A69  01                 [190] (56)
3A6A  00                 [191] (57)
3A6B  00                 [192] (57)
3A6C  F5                 [193] (59)
3A6D  01                 [194] (59)
3A6E  00                 [195] (59)
3A6F  00                 [196] (59)
3A70  F5                 [197] (60)
3A71  01                 [198] (60)
3A72  00                 [199] (63)
3A73  00                 [200] (64)
3A74  F5                 [201] (64)
3A75  01                 [202] (64)
3A76  00                 [203] (64)
3A77  00                 [204] (64)
3A78  F5                 [205] (64)
3A79  01                 [206] (65)
3A7A  00                 [207] (65)
3A7B  00                 [208] (65)
3A7C  F7                 [209] (66)
3A7D  01                 [210] (66)
3A7E  00                 [211] (66)
3A7F  00                 [212] (66)
3A80  F7                 [213] (69)
3A81  01                 [214] (69)
3A82  00                 [215] (69)
3A83  00                 [216] (69)
3A84  F7                 [217] (70)
3A85  01                 [218] (70)
3A86  00                 [219] (70)
3A87  00                 [220] (70)
3A88  F7                 [221] (74)
3A89  01                 [222] (74)
3A8A  00                 [223] (74)
3A8B  00                 [224] (75)
3A8C  F7                 [225] (75)
3A8D  01                 [226] (75)
3A8E  00                 [227] (77)
3A8F  00                 [228] (77)
3A90  F9                 [229] (77)
3A91  01                 [230] (77)
3A92  00                 [231] (77)
3A93  00                 [232] (78)
3A94  FA                 [233] (78)
3A95  01                 [234] (79)
3A96  00                 [235] (82)
3A97  00                 [236] (82)
3A98  FC                 [237] (82)
3A99  01                 [238] (82)
3A9A  00                 [239] (82)
3A9B  00                 [240] (83)
3A9C  FC                 [241] (83)
3A9D  01                 [242] (83)
3A9E  00                 [243] (84)
3A9F  00                 [244] (84)
3AA0  FC                 [245] (84)
3AA1  01                 [246] (85)
3AA2  00                 [247] (85)
3AA3  00                 [248] (86)
3AA4  FC                 [249] (86)
3AA5  01                 [250] (86)
3AA6  00                 [251] (86)
3AA7  00                 [252] (86)
3AA8  FD                 [253] (87)
3AA9  01                 [254] (87)
3AAA  00                 [255] (87)
3AAB  00                 [256] (87)
3AAC  00                 [257] (87)
3AAD  02                 [258] (87)
3AAE  00                 [259] (91)
3AAF  00                 [260] (91)
3AB0  02                 [261] (91)
3AB1  02                 [262] (92)
3AB2  00                 [263] (92)
3AB3  00                 [264] (92)
3AB4  02                 [265] (92)
3AB5  02                 [266] (93)
3AB6  00                 [267] (93)
3AB7  00                 [268] (93)
3AB8  03                 [269] (93)
3AB9  02                 [270] (93)
3ABA  00                 [271] (93)
3ABB  00                 [272] (93)
3ABC  03                 [273] (93)
3ABD  02                 [274] (93)
3ABE  00                 [275] (94)
3ABF  00                 [276] (95)
3AC0  03                 [277] (95)
3AC1  02                 [278] (96)
3AC2  00                 [279] (96)
3AC3  00                 [280] (96)
3AC4  03                 [281] (96)
3AC5  02                 [282] (96)
3AC6  00                 [283] (96)
3AC7  00                 [284] (96)
3AC8  03                 [285] (97)
3AC9  02                 [286] (97)
3ACA  00                 [287] (97)
3ACB  00                 [288] (98)
3ACC  04                 [289] (98)
3ACD  02                 [290] (98)
3ACE  00                 [291] (98)
3ACF  00                 [292] (101)
3AD0  04                 [293] (101)
3AD1  02                 [294] (103)
3AD2  00                 [295] (103)
3AD3  00                 [296] (103)
3AD4  04                 [297] (104)
3AD5  02                 [298] (104)
3AD6  00                 [299] (104)
3AD7  00                 [300] (105)
3AD8  05                 [301] (105)
3AD9  02                 [302] (105)
3ADA  00                 [303] (109)
3ADB  00                 [304] (109)
3ADC  06                 [305] (109)
3ADD  02                 [306] (109)
3ADE  00                 [307] (109)
3ADF  00                 [308] (110)
3AE0  06                 [309] (110)
3AE1  02                 [310] (110)
3AE2  00                 [311] (110)
3AE3  00                 [312] (112)
3AE4  06                 [313] (112)
3AE5  02                 [314] (112)
3AE6  00                 [315] (112)
3AE7  00                 [316] (112)
3AE8  06                 [317] (112)
3AE9  02                 [318] (115)
3AEA  00                 [319] (115)
3AEB  00                 [320] (116)
3AEC  06                 [321] (116)
3AED  02                 [322] (116)
3AEE  00                 [323] (116)
3AEF  00                 [324] (116)
3AF0  07                 [325] (116)
3AF1  02                 [326] (117)
3AF2  00                 [327] (117)
3AF3  00                 [328] (117)
3AF4  07                 [329] (117)
3AF5  02                 [330] (117)
3AF6  00                 [331] (117)
3AF7  00                 [332] (117)
3AF8  07                 [333] (117)
3AF9  02                 [334] (117)
3AFA  00                 [335] (117)
3AFB  00                 [336] (117)
3AFC  07                 [337] (117)
3AFD  02                 [338] (117)
3AFE  00                 [339] (119)
3AFF  00                 [340] (119)
3B00  07                 [341] (119)
3B01  02                 [342] (119)
3B02  00                 [343] (122)
3B03  00                 [344] (122)
3B04  08                 [345] (122)
3B05  02                 [346] (122)
3B06  00                 [347] (123)
3B07  00                 [348] (123)
3B08  08                 [349] (123)
3B09  02                 [350] (123)
3B0A  00                 [351] (123)
3B0B  00                 [352] (123)
3B0C  08                 [353] (124)
3B0D  02                 [354] (124)
3B0E  00                 [355] (124)
3B0F  00                 [356] (124)
3B10  08                 [357] (124)
3B11  02                 [358] (124)
3B12  00                 [359] (123)
3B13  00                 [360] (127)
3B14  08                 [361] (-128)
3B15  02                 [362] (-128)
3B16  00                 [363] (-127)
3B17  00                 [364] (-127)
3B18  08                 [365] (-127)
3B19  02                 [366] (-127)
3B1A  00                 [367] (-127)
3B1B  00                 [368] (-126)
3B1C  09                 [369] (-126)
3B1D  02                 [370] (-126)
3B1E  00                 [371] (-126)
3B1F  00                 [372] (-126)
3B20  0A                 [373] (-126)
3B21  02                 [374] (-126)
3B22  00                 [375] (-126)
3B23  00                 [376] (-122)
3B24  07                 [377] (-122)
3B25  02                 [378] (-121)
                         * locals:
3F94  00                 sizelocvars (0)
                         * upvalues:
3F95  00                 sizeupvalues (0)
                         ** end of function **

                         
3F96                     ** function [12] definition (level 2)
                         ** start of function **
3F96  00                 string size (0)
                         source name: (none)
3F98  05                 line defined (649)
3F99  B5                 last line defined (693)
3F9A  05                 nups (2)
3F9B  02                 numparams (1)
3F9C  01                 is_vararg (0)
3F9D  00                 maxstacksize (14)
                         * code:
3F9F  77                 sizecode (119)
3FA0  64004000           [001] self       1   0   256  ; -1779001696
3FA4  62800001           [002] call       1   2   2  
3FA8  58000000           [003] test       1       0    ; to [5] if true
3FAC  1AC00080           [004] jmp        4            ; to [9]
3FB0  5D400000           [005] getglobal  1   1        ; 538022378
3FB4  99800000           [006] loadk      2   2        ; 0
3FB8  62400001           [007] call       1   2   1  
3FBC  1AC0FD7F           [008] jmp        -8           ; to [1]
3FC0  64C04000           [009] self       1   0   259  ; 1097269861
3FC4  62800001           [010] call       1   2   2  
3FC8  9D000100           [011] getglobal  2   4        ; 1074689893
3FCC  D2008000           [012] move       3   1      
3FD0  A2800001           [013] call       2   2   2  
3FD4  98400000           [014] test       2       1    ; to [16] if false
3FD8  1A801980           [015] jmp        103          ; to [119]
3FDC  A440C100           [016] self       2   1   261  ; -1917464545
3FE0  A2800001           [017] call       2   2   2  
3FE4  E480C100           [018] self       3   1   262  ; 1309201817
3FE8  E2800001           [019] call       3   2   2  
3FEC  D8000000           [020] test       3       0    ; to [22] if true
3FF0  1A000D80           [021] jmp        53           ; to [75]
3FF4  DDC00100           [022] getglobal  3   7        ; _T
3FF8  24414201           [023] self       4   2   265  ; 1856017039
3FFC  9D810200           [024] getglobal  6   10       ; Engine
4000  8EC14203           [025] gettable   6   6   267  ; "MAIN_HAND"
4004  22818001           [026] call       4   3   2  
4008  CC000184           [027] settable   3   264 4    ; "KillConvertPrevWeapon"
400C  E4004301           [028] self       3   2   268  ; 688774453
4010  5D810200           [029] getglobal  5   10       ; Engine
4014  4E41C302           [030] gettable   5   5   269  ; "SLOT_12"
4018  9D810200           [031] getglobal  6   10       ; Engine
401C  8EC14203           [032] gettable   6   6   267  ; "MAIN_HAND"
4020  DD810200           [033] getglobal  7   10       ; Engine
4024  CE81C303           [034] gettable   7   7   270  ; "InventoryControllerBase_ES_INSTANT_EQUIP"
4028  E2408002           [035] call       3   5   1  
402C  DDC00300           [036] getglobal  3   15       ; gRegion
4030  E400C401           [037] self       3   3   272  ; 152279552
4034  5D410400           [038] getglobal  5   17       ; gLotusNpcAvatarType
4038  A481C400           [039] self       6   1   274  ; 196800914
403C  A2810001           [040] call       6   2   2  
4040  D9810000           [041] loadk      7   2        ; 0
4044  19C20400           [042] loadk      8   19       ; 0
4048  E2800003           [043] call       3   6   2  
404C  19010500           [044] loadk      4   20       ; 0
4050  4A018001           [045] len        5   3      
4054  99010500           [046] loadk      6   20       ; 0
4058  10410680           [047] forprep    4   26       ; to [74]
405C  0EC28101           [048] gettable   8   3   7  
4060  64424504           [049] self       9   8   277  ; -1957065004
4064  DD820500           [050] getglobal  11  22       ; lichAvatarType
4068  62828001           [051] call       9   3   2  
406C  58420000           [052] test       9       1    ; to [54] if false
4070  1AC00480           [053] jmp        20           ; to [74]
4074  64C24504           [054] self       9   8   279  ; -1944400657
4078  62820001           [055] call       9   2   2  
407C  58020000           [056] test       9       0    ; to [58] if true
4080  1AC00380           [057] jmp        16           ; to [74]
4084  5DC20100           [058] getglobal  9   7        ; _T
4088  4E02C604           [059] gettable   9   9   280  ; "LichKillConvertHiddenEnemies"
fail op	35
408C  2340C604           [060] close      0  
4090  1A800080           [061] jmp        3            ; to [65]
4094  5DC20100           [062] getglobal  9   7        ; _T
4098  8B020000           [063] newtable   10  0   0    ; array=0, hash=0
409C  4C82028C           [064] settable   9   280 10   ; "LichKillConvertHiddenEnemies"
40A0  64824604           [065] self       9   8   282  ; -458552994
40A4  D7020000           [066] loadbool   11  0   0    ; false
40A8  62428001           [067] call       9   3   1  
40AC  5DC20600           [068] getglobal  9   27       ; table
40B0  4E02C704           [069] gettable   9   9   284  ; -431682403
40B4  9DC20100           [070] getglobal  10  7        ; _T
40B8  8E024605           [071] gettable   10  10  280  ; "LichKillConvertHiddenEnemies"
40BC  D2020004           [072] move       11  8      
40C0  62428001           [073] call       9   3   1  
40C4  1401F97F           [074] forloop    4   -27      ; to [48] if loop
40C8  53020000           [075] getupval   9   0      
40CC  92020001           [076] move       10  2      
40D0  D7020000           [077] loadbool   11  0   0    ; false
40D4  62428001           [078] call       9   3   1  
40D8  5DC20300           [079] getglobal  9   15       ; gRegion
40DC  6442C704           [080] self       9   9   285  ; -1084394954
40E0  DD820500           [081] getglobal  11  22       ; lichAvatarType
40E4  2483C400           [082] self       12  1   274  ; 196800914
40E8  22030001           [083] call       12  2   0  
40EC  62820000           [084] call       9   0   2  
40F0  9D020100           [085] getglobal  10  4        ; 1074689893
40F4  D2028004           [086] move       11  9      
40F8  A2820001           [087] call       10  2   2  
40FC  98420000           [088] test       10      1    ; to [90] if false
4100  1AC00180           [089] jmp        8            ; to [98]
4104  A442C104           [090] self       10  9   261  ; -1917464545
4108  A2820001           [091] call       10  2   2  
410C  A4824705           [092] self       10  10  286  ; 664005256
4110  1D830200           [093] getglobal  12  10       ; Engine
4114  0EC34206           [094] gettable   12  12  267  ; "MAIN_HAND"
4118  5D830200           [095] getglobal  13  10       ; Engine
411C  4EC3C706           [096] gettable   13  13  287  ; "HIDE"
4120  A2420002           [097] call       10  4   1  
4124  A482C100           [098] self       10  1   262  ; 1309201817
4128  A2820001           [099] call       10  2   2  
412C  98020000           [100] test       10      0    ; to [102] if true
4130  1A000480           [101] jmp        17           ; to [119]
4134  9D020100           [102] getglobal  10  4        ; 1074689893
4138  D2020000           [103] move       11  0      
413C  A2820001           [104] call       10  2   2  
4140  98420000           [105] test       10      1    ; to [107] if false
4144  1AC00280           [106] jmp        12           ; to [119]
4148  9D420000           [107] getglobal  10  1        ; 538022378
414C  D9820000           [108] loadk      11  2        ; 0
4150  A2420001           [109] call       10  2   1  
4154  A4024800           [110] self       10  0   288  ; -1374209738
4158  A2820001           [111] call       10  2   2  
fail op	35
415C  23004505           [112] close      0  
4160  1AC0FC7F           [113] jmp        -12          ; to [102]
4164  93028000           [114] getupval   10  1      
4168  D2028000           [115] move       11  1      
416C  A2420001           [116] call       10  2   1  
4170  1A000080           [117] jmp        1            ; to [119]
4174  1A80FB7F           [118] jmp        -17          ; to [102]
4178  1E008000           [119] return     0   1      
                         * constants:
417C  21                 sizek (33)
417D  01                 const type 3
417E  A096F695           const [0]: (-1779001696)
4182  01                 const type 3
4183  EA911120           const [1]: (538022378)
4187  03                 const type 3
4188  00000000           const [2]: (0)
418C  01                 const type 3
418D  65026741           const [3]: (1097269861)
4191  01                 const type 3
4192  65770E40           const [4]: (1074689893)
4196  01                 const type 3
4197  1FD0B58D           const [5]: (-1917464545)
419B  01                 const type 3
419C  99D5084E           const [6]: (1309201817)
41A0  04                 const type 4
41A1  03                 string size (3)
41A2  5F5400             "_T\0"
                         const [7]: "_T"
41A5  04                 const type 4
41A6  16                 string size (22)
41A7  4B696C6C436F6E76+  "KillConv"
41AF  6572745072657657+  "ertPrevW"
41B7  6561706F6E00       "eapon\0"
                         const [8]: "KillConvertPrevWeapon"
41BD  01                 const type 3
41BE  8F92A06E           const [9]: (1856017039)
41C2  04                 const type 4
41C3  07                 string size (7)
41C4  456E67696E6500     "Engine\0"
                         const [10]: "Engine"
41CB  04                 const type 4
41CC  0A                 string size (10)
41CD  4D41494E5F48414E+  "MAIN_HAN"
41D5  4400               "D\0"
                         const [11]: "MAIN_HAND"
41D7  01                 const type 3
41D8  35DD0D29           const [12]: (688774453)
41DC  04                 const type 4
41DD  08                 string size (8)
41DE  534C4F545F313200   "SLOT_12\0"
                         const [13]: "SLOT_12"
41E6  04                 const type 4
41E7  29                 string size (41)
41E8  496E76656E746F72+  "Inventor"
41F0  79436F6E74726F6C+  "yControl"
41F8  6C6572426173655F+  "lerBase_"
4200  45535F494E535441+  "ES_INSTA"
4208  4E545F4551554950+  "NT_EQUIP"
4210  00                 "\0"
                         const [14]: "InventoryControllerBase_ES_INSTANT_EQUIP"
4211  04                 const type 4
4212  08                 string size (8)
4213  67526567696F6E00   "gRegion\0"
                         const [15]: "gRegion"
421B  01                 const type 3
421C  009A1309           const [16]: (152279552)
4220  04                 const type 4
4221  14                 string size (20)
4222  674C6F7475734E70+  "gLotusNp"
422A  6341766174617254+  "cAvatarT"
4232  79706500           "ype\0"
                         const [17]: "gLotusNpcAvatarType"
4236  01                 const type 3
4237  92F1BA0B           const [18]: (196800914)
423B  03                 const type 3
423C  00007041           const [19]: (0)
4240  03                 const type 3
4241  0000803F           const [20]: (0)
4245  01                 const type 3
4246  D48E598B           const [21]: (-1957065004)
424A  04                 const type 4
424B  0F                 string size (15)
424C  6C69636841766174+  "lichAvat"
4254  61725479706500     "arType\0"
                         const [22]: "lichAvatarType"
425B  01                 const type 3
425C  EFCC1A8C           const [23]: (-1944400657)
4260  04                 const type 4
4261  1D                 string size (29)
4262  4C6963684B696C6C+  "LichKill"
426A  436F6E7665727448+  "ConvertH"
4272  696464656E456E65+  "iddenEne"
427A  6D69657300         "mies\0"
                         const [24]: "LichKillConvertHiddenEnemies"
427F  00                 const type 0
                         const [25]: nil
4280  01                 const type 3
4281  5E09ABE4           const [26]: (-458552994)
4285  04                 const type 4
4286  06                 string size (6)
4287  7461626C6500       "table\0"
                         const [27]: "table"
428D  01                 const type 3
428E  9D0C45E6           const [28]: (-431682403)
4292  01                 const type 3
4293  36725DBF           const [29]: (-1084394954)
4297  01                 const type 3
4298  88EA9327           const [30]: (664005256)
429C  04                 const type 4
429D  05                 string size (5)
429E  4849444500         "HIDE\0"
                         const [31]: "HIDE"
42A3  01                 const type 3
42A4  363917AE           const [32]: (-1374209738)
                         * functions:
42A8  00                 sizep (0)
                         * lines:
42A9  77                 sizelineinfo (119)
                         [pc] (line)
42AA  8A                 [001] (-118)
42AB  02                 [002] (-118)
42AC  00                 [003] (-118)
42AD  00                 [004] (-118)
42AE  8A                 [005] (-117)
42AF  02                 [006] (-117)
42B0  00                 [007] (-117)
42B1  00                 [008] (-117)
42B2  8A                 [009] (-114)
42B3  02                 [010] (-114)
42B4  00                 [011] (-113)
42B5  00                 [012] (-113)
42B6  8A                 [013] (-113)
42B7  02                 [014] (-113)
42B8  00                 [015] (-113)
42B9  00                 [016] (-112)
42BA  8B                 [017] (-112)
42BB  02                 [018] (-110)
42BC  00                 [019] (-110)
42BD  00                 [020] (-110)
42BE  8B                 [021] (-110)
42BF  02                 [022] (-109)
42C0  00                 [023] (-109)
42C1  00                 [024] (-109)
42C2  8B                 [025] (-109)
42C3  02                 [026] (-109)
42C4  00                 [027] (-109)
42C5  00                 [028] (-108)
42C6  8B                 [029] (-108)
42C7  02                 [030] (-108)
42C8  00                 [031] (-108)
42C9  00                 [032] (-108)
42CA  8E                 [033] (-108)
42CB  02                 [034] (-108)
42CC  00                 [035] (-108)
42CD  00                 [036] (-106)
42CE  8E                 [037] (-106)
42CF  02                 [038] (-106)
42D0  00                 [039] (-106)
42D1  00                 [040] (-106)
42D2  8F                 [041] (-106)
42D3  02                 [042] (-106)
42D4  00                 [043] (-106)
42D5  00                 [044] (-105)
42D6  8F                 [045] (-105)
42D7  02                 [046] (-105)
42D8  00                 [047] (-105)
42D9  00                 [048] (-104)
42DA  8F                 [049] (-103)
42DB  02                 [050] (-103)
42DC  00                 [051] (-103)
42DD  00                 [052] (-103)
42DE  8F                 [053] (-103)
42DF  02                 [054] (-103)
42E0  00                 [055] (-103)
42E1  00                 [056] (-103)
42E2  8F                 [057] (-103)
42E3  02                 [058] (-102)
42E4  00                 [059] (-102)
42E5  00                 [060] (-102)
42E6  90                 [061] (-102)
42E7  02                 [062] (-101)
42E8  00                 [063] (-101)
42E9  00                 [064] (-101)
42EA  90                 [065] (-98)
42EB  02                 [066] (-98)
42EC  00                 [067] (-98)
42ED  00                 [068] (-97)
42EE  92                 [069] (-97)
42EF  02                 [070] (-97)
42F0  00                 [071] (-97)
42F1  00                 [072] (-97)
42F2  92                 [073] (-97)
42F3  02                 [074] (-105)
42F4  00                 [075] (-92)
42F5  00                 [076] (-92)
42F6  92                 [077] (-92)
42F7  02                 [078] (-92)
42F8  00                 [079] (-90)
42F9  00                 [080] (-90)
42FA  92                 [081] (-90)
42FB  02                 [082] (-90)
42FC  00                 [083] (-90)
42FD  00                 [084] (-90)
42FE  93                 [085] (-89)
42FF  02                 [086] (-89)
4300  00                 [087] (-89)
4301  00                 [088] (-89)
4302  93                 [089] (-89)
4303  02                 [090] (-88)
4304  00                 [091] (-88)
4305  00                 [092] (-88)
4306  93                 [093] (-88)
4307  02                 [094] (-88)
4308  00                 [095] (-88)
4309  00                 [096] (-88)
430A  93                 [097] (-88)
430B  02                 [098] (-85)
430C  00                 [099] (-85)
430D  00                 [100] (-85)
430E  93                 [101] (-85)
430F  02                 [102] (-84)
4310  00                 [103] (-84)
4311  00                 [104] (-84)
4312  93                 [105] (-84)
4313  02                 [106] (-84)
4314  00                 [107] (-83)
4315  00                 [108] (-83)
4316  94                 [109] (-83)
4317  02                 [110] (-82)
4318  00                 [111] (-82)
4319  00                 [112] (-82)
431A  94                 [113] (-82)
431B  02                 [114] (-81)
431C  00                 [115] (-81)
431D  00                 [116] (-81)
431E  94                 [117] (-80)
431F  02                 [118] (-79)
4320  00                 [119] (-75)
                         * locals:
4486  00                 sizelocvars (0)
                         * upvalues:
4487  00                 sizeupvalues (0)
                         ** end of function **

                         
4488                     ** function [13] definition (level 2)
                         ** start of function **
4488  00                 string size (0)
                         source name: (none)
448A  05                 line defined (695)
448B  CE                 last line defined (718)
448C  05                 nups (0)
448D  00                 numparams (2)
448E  02                 is_vararg (0)
448F  00                 maxstacksize (11)
                         * code:
4491  3B                 sizecode (59)
4492  9D000000           [01] getglobal  2   0        ; 1074689893
4496  D2008000           [02] move       3   1      
449A  A2800001           [03] call       2   2   2  
449E  98000000           [04] test       2       0    ; to [6] if true
44A2  1A000080           [05] jmp        1            ; to [7]
44A6  1E008000           [06] return     0   1      
44AA  A440C000           [07] self       2   1   257  ; 381598094
44AE  17018000           [08] loadbool   4   1   0    ; true
44B2  A2408001           [09] call       2   3   1  
44B6  9D800000           [10] getglobal  2   2        ; Engine
44BA  8EC04001           [11] gettable   2   2   259  ; -98643418
44BE  A2808000           [12] call       2   1   2  
44C2  8C404182           [13] settable   2   260 261  ; "baseAmount" 0
44C6  E4804101           [14] self       3   2   262  ; 1398603399
44CA  5DC10100           [15] getglobal  5   7        ; Game
44CE  4E01C202           [16] gettable   5   5   264  ; "PT_RAGDOLL"
44D2  97018000           [17] loadbool   6   1   0    ; true
44D6  E2400002           [18] call       3   4   1  
44DA  E4404201           [19] self       3   2   265  ; -420630141
44DE  52010000           [20] move       5   0      
44E2  E2408001           [21] call       3   3   1  
44E6  E4804201           [22] self       3   2   266  ; -1954390470
44EA  5D810000           [23] getglobal  5   2        ; Engine
44EE  4EC1C202           [24] gettable   5   5   267  ; "RAGDOLL"
44F2  E2408001           [25] call       3   3   1  
44F6  E400C300           [26] self       3   1   268  ; 1193457265
44FA  52010001           [27] move       5   2      
44FE  E2408001           [28] call       3   3   1  
4502  DD400300           [29] getglobal  3   13       ; 538022378
4506  19410100           [30] loadk      4   5        ; 0
450A  E2400001           [31] call       3   2   1  
450E  E480C300           [32] self       3   1   270  ; -242235676
4512  E2800001           [33] call       3   2   2  
4516  1D010000           [34] getglobal  4   0        ; 1074689893
451A  52018001           [35] move       5   3      
451E  22810001           [36] call       4   2   2  
4522  18410000           [37] test       4       1    ; to [39] if false
4526  1AC00480           [38] jmp        20           ; to [59]
452A  24C1C300           [39] self       4   1   271  ; 196800914
452E  22810001           [40] call       4   2   2  
4532  64C14300           [41] self       5   0   271  ; 196800914
4536  62810001           [42] call       5   2   2  
453A  0D410102           [43] sub        4   4   5  
453E  5D010400           [44] getglobal  5   16       ; 1166235580
4542  92010002           [45] move       6   4      
4546  62410001           [46] call       5   2   1  
454A  5D410400           [47] getglobal  5   17       ; 572299008
454E  99410100           [48] loadk      6   5        ; 0
4552  D9810400           [49] loadk      7   18       ; -51
4556  19420100           [50] loadk      8   5        ; 0
455A  62810002           [51] call       5   4   2  
455E  83410102           [52] add        6   4   5  
4562  84C14403           [53] mul        6   6   275  ; 0
4566  E401C501           [54] self       7   3   276  ; -1108156281
456A  52020003           [55] move       9   6      
456E  9D820000           [56] getglobal  10  2        ; Engine
4572  8E424505           [57] gettable   10  10  277  ; "FT_VELOCITY_CHANGE"
4576  E2410002           [58] call       7   4   1  
457A  1E008000           [59] return     0   1      
                         * constants:
457E  16                 sizek (22)
457F  01                 const type 3
4580  65770E40           const [0]: (1074689893)
4584  01                 const type 3
4585  8EB9BE16           const [1]: (381598094)
4589  04                 const type 4
458A  07                 string size (7)
458B  456E67696E6500     "Engine\0"
                         const [2]: "Engine"
4592  01                 const type 3
4593  26D21EFA           const [3]: (-98643418)
4597  04                 const type 4
4598  0B                 string size (11)
4599  62617365416D6F75+  "baseAmou"
45A1  6E7400             "nt\0"
                         const [4]: "baseAmount"
45A4  03                 const type 3
45A5  00000000           const [5]: (0)
45A9  01                 const type 3
45AA  87FE5C53           const [6]: (1398603399)
45AE  04                 const type 4
45AF  05                 string size (5)
45B0  47616D6500         "Game\0"
                         const [7]: "Game"
45B5  04                 const type 4
45B6  0B                 string size (11)
45B7  50545F524147444F+  "PT_RAGDO"
45BF  4C4C00             "LL\0"
                         const [8]: "PT_RAGDOLL"
45C2  01                 const type 3
45C3  83B1EDE6           const [9]: (-420630141)
45C7  01                 const type 3
45C8  3A5E828B           const [10]: (-1954390470)
45CC  04                 const type 4
45CD  08                 string size (8)
45CE  524147444F4C4C00   "RAGDOLL\0"
                         const [11]: "RAGDOLL"
45D6  01                 const type 3
45D7  71B62247           const [12]: (1193457265)
45DB  01                 const type 3
45DC  EA911120           const [13]: (538022378)
45E0  01                 const type 3
45E1  E4C68FF1           const [14]: (-242235676)
45E5  01                 const type 3
45E6  92F1BA0B           const [15]: (196800914)
45EA  01                 const type 3
45EB  BC578345           const [16]: (1166235580)
45EF  01                 const type 3
45F0  00971C22           const [17]: (572299008)
45F4  03                 const type 3
45F5  CDCCCC3E           const [18]: (-51)
45F9  03                 const type 3
45FA  00002041           const [19]: (0)
45FE  01                 const type 3
45FF  87E0F2BD           const [20]: (-1108156281)
4603  04                 const type 4
4604  13                 string size (19)
4605  46545F56454C4F43+  "FT_VELOC"
460D  4954595F4348414E+  "ITY_CHAN"
4615  474500             "GE\0"
                         const [21]: "FT_VELOCITY_CHANGE"
                         * functions:
4618  00                 sizep (0)
                         * lines:
4619  3B                 sizelineinfo (59)
                         [pc] (line)
461A  B8                 [01] (-72)
461B  02                 [02] (-72)
461C  00                 [03] (-72)
461D  00                 [04] (-72)
461E  B8                 [05] (-72)
461F  02                 [06] (-71)
4620  00                 [07] (-68)
4621  00                 [08] (-68)
4622  B8                 [09] (-68)
4623  02                 [10] (-66)
4624  00                 [11] (-66)
4625  00                 [12] (-66)
4626  B8                 [13] (-65)
4627  02                 [14] (-64)
4628  00                 [15] (-64)
4629  00                 [16] (-64)
462A  B8                 [17] (-64)
462B  02                 [18] (-64)
462C  00                 [19] (-63)
462D  00                 [20] (-63)
462E  B9                 [21] (-63)
462F  02                 [22] (-62)
4630  00                 [23] (-62)
4631  00                 [24] (-62)
4632  BC                 [25] (-62)
4633  02                 [26] (-61)
4634  00                 [27] (-61)
4635  00                 [28] (-61)
4636  BC                 [29] (-59)
4637  02                 [30] (-59)
4638  00                 [31] (-59)
4639  00                 [32] (-58)
463A  BC                 [33] (-58)
463B  02                 [34] (-57)
463C  00                 [35] (-57)
463D  00                 [36] (-57)
463E  BE                 [37] (-57)
463F  02                 [38] (-57)
4640  00                 [39] (-56)
4641  00                 [40] (-56)
4642  BE                 [41] (-56)
4643  02                 [42] (-56)
4644  00                 [43] (-56)
4645  00                 [44] (-55)
4646  BE                 [45] (-55)
4647  02                 [46] (-55)
4648  00                 [47] (-54)
4649  00                 [48] (-54)
464A  BF                 [49] (-54)
464B  02                 [50] (-54)
464C  00                 [51] (-54)
464D  00                 [52] (-53)
464E  C0                 [53] (-53)
464F  02                 [54] (-52)
4650  00                 [55] (-52)
4651  00                 [56] (-52)
4652  C0                 [57] (-52)
4653  02                 [58] (-52)
4654  00                 [59] (-50)
                         * locals:
4706  00                 sizelocvars (0)
                         * upvalues:
4707  00                 sizeupvalues (0)
                         ** end of function **

                         
4708                     ** function [14] definition (level 2)
                         ** start of function **
4708  00                 string size (0)
                         source name: (none)
470A  05                 line defined (720)
470B  EB                 last line defined (747)
470C  05                 nups (0)
470D  00                 numparams (1)
470E  01                 is_vararg (0)
470F  00                 maxstacksize (11)
                         * code:
4711  57                 sizecode (87)
4712  5D000000           [01] getglobal  1   0        ; 1074689893
4716  92000000           [02] move       2   0      
471A  62800001           [03] call       1   2   2  
471E  58000000           [04] test       1       0    ; to [6] if true
4722  1A000080           [05] jmp        1            ; to [7]
4726  1E008000           [06] return     0   1      
472A  64404000           [07] self       1   0   257  ; 332067969
472E  62800001           [08] call       1   2   2  
4732  A4804000           [09] self       2   0   258  ; -701325909
4736  A2400001           [10] call       2   2   1  
473A  A4C04000           [11] self       2   0   259  ; -2113194289
473E  17018000           [12] loadbool   4   1   0    ; true
4742  A2408001           [13] call       2   3   1  
4746  A4004100           [14] self       2   0   260  ; -2135033564
474A  1D410100           [15] getglobal  4   5        ; Engine
474E  0E814102           [16] gettable   4   4   262  ; "Ragdoll_TORSO"
4752  A2808001           [17] call       2   3   2  
4756  D9C00100           [18] loadk      3   7        ; 0
475A  1D010200           [19] getglobal  4   8        ; 572299008
475E  59C10100           [20] loadk      5   7        ; 0
4762  9D410200           [21] getglobal  6   9        ; -1941280958
4766  D9810200           [22] loadk      7   10       ; -51
476A  19C20200           [23] loadk      8   11       ; -102
476E  A2818001           [24] call       6   3   2  
4772  D9C10100           [25] loadk      7   7        ; 0
4776  22810002           [26] call       4   4   2  
fail op	21
477A  1500C301           [27] concat     0   3   268
477E  1A000780           [28] jmp        29           ; to [58]
4782  5D010000           [29] getglobal  5   0        ; 1074689893
4786  92010000           [30] move       6   0      
478A  62810001           [31] call       5   2   2  
478E  58410000           [32] test       5       1    ; to [34] if false
4792  1AC00580           [33] jmp        24           ; to [58]
4796  64414300           [34] self       5   0   269  ; -861475145
479A  C481C201           [35] mul        7   3   266  ; -51
479E  0482C201           [36] mul        8   3   266  ; -51
47A2  57028000           [37] loadbool   9   1   0    ; true
47A6  62418002           [38] call       5   5   1  
47AA  5D010000           [39] getglobal  5   0        ; 1074689893
47AE  92010001           [40] move       6   2      
47B2  62810001           [41] call       5   2   2  
47B6  58410000           [42] test       5       1    ; to [44] if false
47BA  1A400180           [43] jmp        6            ; to [50]
47BE  4DC10086           [44] sub        5   268 3    ; 0
47C2  44C18002           [45] mul        5   5   3  
47C6  4481C302           [46] mul        5   5   270  ; 0
47CA  A4C14301           [47] self       6   2   271  ; -1352804973
47CE  04420102           [48] mul        8   4   5  
47D2  A2418001           [49] call       6   3   1  
47D6  9D010400           [50] getglobal  6   16       ; 1289681407
47DA  A2818000           [51] call       6   1   2  
47DE  84414403           [52] mul        6   6   273  ; 0
47E2  C3808101           [53] add        3   3   6  
47E6  9D810400           [54] getglobal  6   18       ; 538022378
47EA  D9C10100           [55] loadk      7   7        ; 0
47EE  A2410001           [56] call       6   2   1  
47F2  1A00F87F           [57] jmp        -31          ; to [27]
47F6  9DC10400           [58] getglobal  6   19       ; gRegion
47FA  A4014503           [59] self       6   6   276  ; -1110225722
47FE  1D420500           [60] getglobal  8   21       ; ragdollBurst
4802  64824500           [61] self       9   0   278  ; -427739093
4806  62820001           [62] call       9   2   2  
480A  9DC20500           [63] getglobal  10  23       ; ZERO_ROTATION
480E  A2418002           [64] call       6   5   1  
4812  D9C00100           [65] loadk      3   7        ; 0
4816  A4C14000           [66] self       6   0   259  ; -2113194289
481A  17020000           [67] loadbool   8   0   0    ; false
481E  A2418001           [68] call       6   3   1  
fail op	21
4822  1500C301           [69] concat     0   3   268
4826  1AC00380           [70] jmp        16           ; to [87]
482A  9D010000           [71] getglobal  6   0        ; 1074689893
482E  D2010000           [72] move       7   0      
4832  A2810001           [73] call       6   2   2  
4836  98410000           [74] test       6       1    ; to [76] if false
483A  1A800280           [75] jmp        11           ; to [87]
483E  A4014600           [76] self       6   0   280  ; -703571861
4842  12028001           [77] move       8   3      
4846  A2418001           [78] call       6   3   1  
484A  9D010400           [79] getglobal  6   16       ; 1289681407
484E  A2818000           [80] call       6   1   2  
4852  84814303           [81] mul        6   6   270  ; 0
4856  C3808101           [82] add        3   3   6  
485A  9D810400           [83] getglobal  6   18       ; 538022378
485E  D9C10100           [84] loadk      7   7        ; 0
4862  A2410001           [85] call       6   2   1  
4866  1A40FB7F           [86] jmp        -18          ; to [69]
486A  1E008000           [87] return     0   1      
                         * constants:
486E  19                 sizek (25)
486F  01                 const type 3
4870  65770E40           const [0]: (1074689893)
4874  01                 const type 3
4875  81F4CA13           const [1]: (332067969)
4879  01                 const type 3
487A  AB9D32D6           const [2]: (-701325909)
487E  01                 const type 3
487F  CF360B82           const [3]: (-2113194289)
4883  01                 const type 3
4884  24F9BD80           const [4]: (-2135033564)
4888  04                 const type 4
4889  07                 string size (7)
488A  456E67696E6500     "Engine\0"
                         const [5]: "Engine"
4891  04                 const type 4
4892  0E                 string size (14)
4893  526167646F6C6C5F+  "Ragdoll_"
489B  544F52534F00       "TORSO\0"
                         const [6]: "Ragdoll_TORSO"
48A1  03                 const type 3
48A2  00000000           const [7]: (0)
48A6  01                 const type 3
48A7  00971C22           const [8]: (572299008)
48AB  01                 const type 3
48AC  42674A8C           const [9]: (-1941280958)
48B0  03                 const type 3
48B1  CDCC4C3E           const [10]: (-51)
48B5  03                 const type 3
48B6  9A99193F           const [11]: (-102)
48BA  03                 const type 3
48BB  0000803F           const [12]: (0)
48BF  01                 const type 3
48C0  B7EEA6CC           const [13]: (-861475145)
48C4  03                 const type 3
48C5  00008040           const [14]: (0)
48C9  01                 const type 3
48CA  93D55DAF           const [15]: (-1352804973)
48CE  01                 const type 3
48CF  FFF9DE4C           const [16]: (1289681407)
48D3  03                 const type 3
48D4  0000803E           const [17]: (0)
48D8  01                 const type 3
48D9  EA911120           const [18]: (538022378)
48DD  04                 const type 4
48DE  08                 string size (8)
48DF  67526567696F6E00   "gRegion\0"
                         const [19]: "gRegion"
48E7  01                 const type 3
48E8  C64CD3BD           const [20]: (-1110225722)
48EC  04                 const type 4
48ED  0D                 string size (13)
48EE  726167646F6C6C42+  "ragdollB"
48F6  7572737400         "urst\0"
                         const [21]: "ragdollBurst"
48FB  01                 const type 3
48FC  2B3881E6           const [22]: (-427739093)
4900  04                 const type 4
4901  0E                 string size (14)
4902  5A45524F5F524F54+  "ZERO_ROT"
490A  4154494F4E00       "ATION\0"
                         const [23]: "ZERO_ROTATION"
4910  01                 const type 3
4911  6B5810D6           const [24]: (-703571861)
                         * functions:
4915  00                 sizep (0)
                         * lines:
4916  57                 sizelineinfo (87)
                         [pc] (line)
4917  D1                 [01] (-47)
4918  02                 [02] (-47)
4919  00                 [03] (-47)
491A  00                 [04] (-47)
491B  D1                 [05] (-47)
491C  02                 [06] (-46)
491D  00                 [07] (-44)
491E  00                 [08] (-44)
491F  D1                 [09] (-43)
4920  02                 [10] (-43)
4921  00                 [11] (-42)
4922  00                 [12] (-42)
4923  D1                 [13] (-42)
4924  02                 [14] (-41)
4925  00                 [15] (-41)
4926  00                 [16] (-41)
4927  D1                 [17] (-41)
4928  02                 [18] (-40)
4929  00                 [19] (-39)
492A  00                 [20] (-39)
492B  D2                 [21] (-39)
492C  02                 [22] (-39)
492D  00                 [23] (-39)
492E  00                 [24] (-39)
492F  D4                 [25] (-39)
4930  02                 [26] (-39)
4931  00                 [27] (-38)
4932  00                 [28] (-38)
4933  D4                 [29] (-38)
4934  02                 [30] (-38)
4935  00                 [31] (-38)
4936  00                 [32] (-38)
4937  D5                 [33] (-38)
4938  02                 [34] (-37)
4939  00                 [35] (-37)
493A  00                 [36] (-37)
493B  D5                 [37] (-37)
493C  02                 [38] (-37)
493D  00                 [39] (-36)
493E  00                 [40] (-36)
493F  D6                 [41] (-36)
4940  02                 [42] (-36)
4941  00                 [43] (-36)
4942  00                 [44] (-35)
4943  D6                 [45] (-35)
4944  02                 [46] (-35)
4945  00                 [47] (-34)
4946  00                 [48] (-34)
4947  D6                 [49] (-34)
4948  02                 [50] (-32)
4949  00                 [51] (-32)
494A  00                 [52] (-32)
494B  D7                 [53] (-32)
494C  02                 [54] (-31)
494D  00                 [55] (-31)
494E  00                 [56] (-31)
494F  D7                 [57] (-31)
4950  02                 [58] (-29)
4951  00                 [59] (-29)
4952  00                 [60] (-29)
4953  D7                 [61] (-29)
4954  02                 [62] (-29)
4955  00                 [63] (-29)
4956  00                 [64] (-29)
4957  D7                 [65] (-28)
4958  02                 [66] (-27)
4959  00                 [67] (-27)
495A  00                 [68] (-27)
495B  D8                 [69] (-26)
495C  02                 [70] (-26)
495D  00                 [71] (-26)
495E  00                 [72] (-26)
495F  D9                 [73] (-26)
4960  02                 [74] (-26)
4961  00                 [75] (-26)
4962  00                 [76] (-25)
4963  D9                 [77] (-25)
4964  02                 [78] (-25)
4965  00                 [79] (-24)
4966  00                 [80] (-24)
4967  D9                 [81] (-24)
4968  02                 [82] (-24)
4969  00                 [83] (-23)
496A  00                 [84] (-23)
496B  D9                 [85] (-23)
496C  02                 [86] (-23)
496D  00                 [87] (-21)
                         * locals:
4A73  00                 sizelocvars (0)
                         * upvalues:
4A74  00                 sizeupvalues (0)
                         ** end of function **

                         
4A75                     ** function [15] definition (level 2)
                         ** start of function **
4A75  00                 string size (0)
                         source name: (none)
4A77  05                 line defined (749)
4A78  F2                 last line defined (754)
4A79  05                 nups (1)
4A7A  01                 numparams (0)
4A7B  00                 is_vararg (0)
4A7C  00                 maxstacksize (4)
                         * code:
4A7E  10                 sizecode (16)
4A7F  1D000000           [01] getglobal  0   0        ; gFlashMgr
4A83  24404000           [02] self       0   0   257  ; 1634586770
4A87  9D800000           [03] getglobal  2   2        ; finisherMovie
4A8B  22808001           [04] call       0   3   2  
fail op	8
4A8F  08000000           [05] setupval   0   0      
4A93  1DC00000           [06] getglobal  0   3        ; 1074689893
4A97  53000000           [07] getupval   1   0      
4A9B  22800001           [08] call       0   2   2  
4A9F  18400000           [09] test       0       1    ; to [11] if false
4AA3  1A000180           [10] jmp        5            ; to [16]
4AA7  13000000           [11] getupval   0   0      
4AAB  24004100           [12] self       0   0   260  ; 1167009705
4AAF  99400100           [13] loadk      2   5        ; "DataKnifeStabImpact"
4AB3  D9800100           [14] loadk      3   6        ; ""
4AB7  22400002           [15] call       0   4   1  
4ABB  1E008000           [16] return     0   1      
                         * constants:
4ABF  07                 sizek (7)
4AC0  04                 const type 4
4AC1  0A                 string size (10)
4AC2  67466C6173684D67+  "gFlashMg"
4ACA  7200               "r\0"
                         const [0]: "gFlashMgr"
4ACC  01                 const type 3
4ACD  92D06D61           const [1]: (1634586770)
4AD1  04                 const type 4
4AD2  0E                 string size (14)
4AD3  66696E6973686572+  "finisher"
4ADB  4D6F76696500       "Movie\0"
                         const [2]: "finisherMovie"
4AE1  01                 const type 3
4AE2  65770E40           const [3]: (1074689893)
4AE6  01                 const type 3
4AE7  A9278F45           const [4]: (1167009705)
4AEB  04                 const type 4
4AEC  14                 string size (20)
4AED  446174614B6E6966+  "DataKnif"
4AF5  6553746162496D70+  "eStabImp"
4AFD  61637400           "act\0"
                         const [5]: "DataKnifeStabImpact"
4B01  04                 const type 4
4B02  01                 string size (0)
                         const [6]: ""
                         * functions:
4B04  00                 sizep (0)
                         * lines:
4B05  10                 sizelineinfo (16)
                         [pc] (line)
4B06  EE                 [01] (-18)
4B07  02                 [02] (-18)
4B08  00                 [03] (-18)
4B09  00                 [04] (-18)
4B0A  EE                 [05] (-18)
4B0B  02                 [06] (-17)
4B0C  00                 [07] (-17)
4B0D  00                 [08] (-17)
4B0E  EE                 [09] (-17)
4B0F  02                 [10] (-17)
4B10  00                 [11] (-16)
4B11  00                 [12] (-16)
4B12  EE                 [13] (-16)
4B13  02                 [14] (-16)
4B14  00                 [15] (-16)
4B15  00                 [16] (-14)
                         * locals:
4B46  00                 sizelocvars (0)
                         * upvalues:
4B47  00                 sizeupvalues (0)
                         ** end of function **

                         * lines:
4B48  60                 sizelineinfo (96)
                         [pc] (line)
4B49  1E                 [01] (30)
4B4A  00                 [02] (30)
4B4B  00                 [03] (30)
4B4C  00                 [04] (31)
4B4D  1E                 [05] (31)
4B4E  00                 [06] (31)
4B4F  00                 [07] (32)
4B50  00                 [08] (32)
4B51  1E                 [09] (32)
4B52  00                 [10] (34)
4B53  00                 [11] (34)
4B54  00                 [12] (34)
4B55  1F                 [13] (35)
4B56  00                 [14] (35)
4B57  00                 [15] (35)
4B58  00                 [16] (37)
4B59  1F                 [17] (37)
4B5A  00                 [18] (37)
4B5B  00                 [19] (38)
4B5C  00                 [20] (38)
4B5D  1F                 [21] (38)
4B5E  00                 [22] (40)
4B5F  00                 [23] (40)
4B60  00                 [24] (40)
4B61  20                 [25] (42)
4B62  00                 [26] (42)
4B63  00                 [27] (42)
4B64  00                 [28] (43)
4B65  20                 [29] (43)
4B66  00                 [30] (43)
4B67  00                 [31] (45)
4B68  00                 [32] (48)
4B69  20                 [33] (49)
4B6A  00                 [34] (62)
4B6B  00                 [35] (62)
4B6C  00                 [36] (51)
4B6D  22                 [37] (82)
4B6E  00                 [38] (82)
4B6F  00                 [39] (64)
4B70  00                 [40] (100)
4B71  22                 [41] (100)
4B72  00                 [42] (-91)
4B73  00                 [43] (-91)
4B74  00                 [44] (-91)
4B75  22                 [45] (-63)
4B76  00                 [46] (-63)
4B77  00                 [47] (-63)
4B78  00                 [48] (-63)
4B79  23                 [49] (-63)
4B7A  00                 [50] (-57)
4B7B  00                 [51] (120)
4B7C  00                 [52] (120)
4B7D  23                 [53] (120)
4B7E  00                 [54] (120)
4B7F  00                 [55] (120)
4B80  00                 [56] (120)
4B81  23                 [57] (120)
4B82  00                 [58] (120)
4B83  00                 [59] (120)
4B84  00                 [60] (-55)
4B85  25                 [61] (-117)
4B86  00                 [62] (-117)
4B87  00                 [63] (-117)
4B88  00                 [64] (-117)
4B89  25                 [65] (-106)
4B8A  00                 [66] (-106)
4B8B  00                 [67] (-115)
4B8C  00                 [68] (-53)
4B8D  25                 [69] (-53)
4B8E  00                 [70] (-53)
4B8F  00                 [71] (-53)
4B90  00                 [72] (-53)
4B91  26                 [73] (-38)
4B92  00                 [74] (-121)
4B93  00                 [75] (-121)
4B94  00                 [76] (-121)
4B95  26                 [77] (-121)
4B96  00                 [78] (-121)
4B97  00                 [79] (-121)
4B98  00                 [80] (-36)
4B99  26                 [81] (-75)
4B9A  00                 [82] (-75)
4B9B  00                 [83] (-75)
4B9C  00                 [84] (-75)
4B9D  28                 [85] (-119)
4B9E  00                 [86] (-50)
4B9F  00                 [87] (-50)
4BA0  00                 [88] (-73)
4BA1  28                 [89] (-21)
4BA2  00                 [90] (-21)
4BA3  00                 [91] (-48)
4BA4  00                 [92] (-14)
4BA5  28                 [93] (-14)
4BA6  00                 [94] (-14)
4BA7  00                 [95] (-19)
4BA8  00                 [96] (-14)
                         * locals:
4CC9  00                 sizelocvars (0)
                         * upvalues:
4CCA  00                 sizeupvalues (0)
                         ** end of function **

4CCB                     ** end of chunk **
