1	C:\wlua_dump\path\Lotus\Scripts\LibsEncounterLib.lua
Pos   Hex Data           Description or Code
------------------------------------------------------------------------
0000                     ** source chunk: C:\wlua_dump\path\Lotus\Scripts\LibsEncounterLib.lua
                         ** global header start **
0000  7F                 header signature: ""
0001  00                 version (major:minor hex digits)
0002  00                 format (0=official)
0003  00                 endianness (1=little endian)
0004  00                 size of int (bytes)
0005  00                 size of size_t (bytes)
0006  02                 size of Instruction (bytes)
0007  0F                 size of number (bytes)
0008  62                 integral (1=integral)
498
                         * number type: single
                         * x86 standard (32-bit, little endian, doubles)
                         ** global header end **
DoNotUse
DroneSpawn
BipedSpecialSpawn
GroupSpawn
TurretSpawn
CameraSpawn
FixedCameraSpawn
dSpawn
hSpawn
DefenseAgentSpawn
Objective
Exit
_T
EncounterTargetPlayer
gEncounterActive
MONITOR_EVENTS
ENEMY_KILLED
ENEMY_FLEE
ENEMY_BORED
PLAYER_KILLED
StalkerFlicker
PersistentEnemyFlicker
FactionHunterFlicker
SpawnEnemy
MonitorEnemy
EncountersAllowed
RequestEncounter
ReleaseEncounter
Reset
_T
StalkerTargetPlayer
gRegion
teaseAvatar
teaseEffect
teaseAvatarAttachAll
EMPTY_SYMBOL
teaseSpawn
gNpcSpawnPointType
ZERO_ROTATION
Engine
SLOT_1
SLOT_8
math
gGameRules
EMPTY_SYMBOL
gRegion
player at: 
  enemy at: 
gRegion
gNpcSpawnPointType
gGameRules
Lotus_Game
MT_RESCUE
MT_INTEL
table
teaseEffect
teaseSpawn
teaseEffect
teaseAvatar
teaseAvatarAttachAll
Encounter: No agent specified!
_T
StalkerTargetPlayer
Encounter: No target player!
gRegion
faction
Encounter: Trying to spawn at null spawn point, spawning nearby player instead
Engine
EXIMUS
persistent enemy was killed!
MONITOR_EVENTS
ENEMY_KILLED
persistent enemy avatar is gone!
persistent enemy took enough damage to flee
ENEMY_FLEE
persistent enemy time up. leaving.
ENEMY_BORED
_T
StalkerTargetPlayer
entity
visible
gRegion
persistent enemy wins! leaving.
TARGET_GONE
Lotus_Game
MT_MASTERY
MT_ARENA
MT_LANDSCAPE
string
Dojo
Harvester
archwingRequired
syndicateId

maxPlayersOverride
table
id
table
id
                         
0001                     ** function [0] definition (level 1)
                         ** start of function **
0001  00                 string size (0)
                         source name: (none)
0002  00                 line defined (0)
0003  00                 last line defined (0)
0004  00                 nups (0)
0005  00                 numparams (0)
0006  02                 is_vararg (2)
0007  0F                 maxstacksize (15)
                         * code:
0008  62                 sizecode (98)
0009  0B008004           [01] newtable   0   9   0    ; array=9, hash=0
000D  5D000000           [02] getglobal  1   0        ; -332969190
0011  99400000           [03] loadk      2   1        ; "DoNotUse"
0015  62800001           [04] call       1   2   2  
0019  9D000000           [05] getglobal  2   0        ; -332969190
001D  D9800000           [06] loadk      3   2        ; "DroneSpawn"
0021  A2800001           [07] call       2   2   2  
0025  DD000000           [08] getglobal  3   0        ; -332969190
0029  19C10000           [09] loadk      4   3        ; "BipedSpecialSpawn"
002D  E2800001           [10] call       3   2   2  
0031  1D010000           [11] getglobal  4   0        ; -332969190
0035  59010100           [12] loadk      5   4        ; "GroupSpawn"
0039  22810001           [13] call       4   2   2  
003D  5D010000           [14] getglobal  5   0        ; -332969190
0041  99410100           [15] loadk      6   5        ; "TurretSpawn"
0045  62810001           [16] call       5   2   2  
0049  9D010000           [17] getglobal  6   0        ; -332969190
004D  D9810100           [18] loadk      7   6        ; "CameraSpawn"
0051  A2810001           [19] call       6   2   2  
0055  DD010000           [20] getglobal  7   0        ; -332969190
0059  19C20100           [21] loadk      8   7        ; "FixedCameraSpawn"
005D  E2810001           [22] call       7   2   2  
0061  1D020000           [23] getglobal  8   0        ; -332969190
0065  59020200           [24] loadk      9   8        ; "dSpawn"
0069  22820001           [25] call       8   2   2  
006D  5D020000           [26] getglobal  9   0        ; -332969190
0071  99420200           [27] loadk      10  9        ; "hSpawn"
0075  62820001           [28] call       9   2   2  
0079  9D020000           [29] getglobal  10  0        ; -332969190
007D  D9820200           [30] loadk      11  10       ; "DefenseAgentSpawn"
0081  A2020001           [31] call       10  2   0  
0085  1B400000           [32] setlist    0   0   1    ; index 1 to top
0089  5D000000           [33] getglobal  1   0        ; -332969190
008D  99C00200           [34] loadk      2   11       ; "Objective"
0091  62800001           [35] call       1   2   2  
0095  9D000000           [36] getglobal  2   0        ; -332969190
0099  D9000300           [37] loadk      3   12       ; "Exit"
009D  A2800001           [38] call       2   2   2  
00A1  D9400300           [39] loadk      3   13       ; 0
00A5  17010000           [40] loadbool   4   0   0    ; false
00A9  65010000           [41] closure    5   0      
00AD  A5410000           [42] closure    6   1      
00B1  E5810000           [43] closure    7   2      
00B5  12008001           [44] move       0   3      
00B9  25C20000           [45] closure    8   3      
00BD  65020100           [46] closure    9   4      
00C1  12000002           [47] move       0   4      
00C5  12008002           [48] move       0   5      
00C9  A5420100           [49] closure    10  5      
00CD  12000000           [50] move       0   0      
00D1  12000001           [51] move       0   2      
00D5  12008000           [52] move       0   1      
00D9  DD820300           [53] getglobal  11  14       ; _T
00DD  CC02C487           [54] settable   11  271 272  ; "EncounterTargetPlayer" nil
00E1  DD820300           [55] getglobal  11  14       ; _T
00E5  CC82C488           [56] settable   11  273 274  ; "gEncounterActive" 0
00E9  CB020000           [57] newtable   11  0   0    ; array=0, hash=0
00ED  0B030000           [58] newtable   12  0   0    ; array=0, hash=0
00F1  4B830200           [59] newtable   13  0   10   ; array=0, hash=10
00F5  8B030100           [60] newtable   14  0   4    ; array=0, hash=4
00F9  8C43438A           [61] settable   14  276 269  ; "ENEMY_KILLED" 0
00FD  8C83C58A           [62] settable   14  277 278  ; "ENEMY_FLEE" 0
0101  8C03C68B           [63] settable   14  279 280  ; "ENEMY_BORED" 0
0105  8C83C68C           [64] settable   14  281 282  ; "PLAYER_KILLED" 0
0109  4C838389           [65] settable   13  275 14   ; "MONITOR_EVENTS"
010D  A5830100           [66] closure    14  6      
0111  12000003           [67] move       0   6      
0115  4C83838D           [68] settable   13  283 14   ; "StalkerFlicker"
0119  A5C30100           [69] closure    14  7      
011D  12000003           [70] move       0   6      
0121  4C83038E           [71] settable   13  284 14   ; "PersistentEnemyFlicker"
0125  A5030200           [72] closure    14  8      
0129  12000003           [73] move       0   6      
012D  4C83838E           [74] settable   13  285 14   ; "FactionHunterFlicker"
0131  A5430200           [75] closure    14  9      
0135  12008002           [76] move       0   5      
0139  12008003           [77] move       0   7      
013D  12000004           [78] move       0   8      
0141  4C83038F           [79] settable   13  286 14   ; "SpawnEnemy"
0145  A5830200           [80] closure    14  10     
0149  12008002           [81] move       0   5      
014D  4C83838F           [82] settable   13  287 14   ; "MonitorEnemy"
0151  A5C30200           [83] closure    14  11     
0155  4C830390           [84] settable   13  288 14   ; "EncountersAllowed"
0159  A5030300           [85] closure    14  12     
015D  12008005           [86] move       0   11     
0161  12000006           [87] move       0   12     
0165  4C838390           [88] settable   13  289 14   ; "RequestEncounter"
0169  A5430300           [89] closure    14  13     
016D  12008005           [90] move       0   11     
0171  12000006           [91] move       0   12     
0175  4C830391           [92] settable   13  290 14   ; "ReleaseEncounter"
0179  A5830300           [93] closure    14  14     
017D  12000006           [94] move       0   12     
0181  12008005           [95] move       0   11     
0185  4C838391           [96] settable   13  291 14   ; "Reset"
0189  5E030001           [97] return     13  2      
018D  1E008000           [98] return     0   1      
                         * constants:
0191  24                 sizek (36)
0192  01                 const type 3
0193  1A4B27EC           const [0]: (-332969190)
0197  04                 const type 4
0198  09                 string size (9)
0199  446F4E6F74557365+  "DoNotUse"
01A1  00                 "\0"
                         const [1]: "DoNotUse"
01A2  04                 const type 4
01A3  0B                 string size (11)
01A4  44726F6E65537061+  "DroneSpa"
01AC  776E00             "wn\0"
                         const [2]: "DroneSpawn"
01AF  04                 const type 4
01B0  12                 string size (18)
01B1  4269706564537065+  "BipedSpe"
01B9  6369616C53706177+  "cialSpaw"
01C1  6E00               "n\0"
                         const [3]: "BipedSpecialSpawn"
01C3  04                 const type 4
01C4  0B                 string size (11)
01C5  47726F7570537061+  "GroupSpa"
01CD  776E00             "wn\0"
                         const [4]: "GroupSpawn"
01D0  04                 const type 4
01D1  0C                 string size (12)
01D2  5475727265745370+  "TurretSp"
01DA  61776E00           "awn\0"
                         const [5]: "TurretSpawn"
01DE  04                 const type 4
01DF  0C                 string size (12)
01E0  43616D6572615370+  "CameraSp"
01E8  61776E00           "awn\0"
                         const [6]: "CameraSpawn"
01EC  04                 const type 4
01ED  11                 string size (17)
01EE  466978656443616D+  "FixedCam"
01F6  657261537061776E+  "eraSpawn"
01FE  00                 "\0"
                         const [7]: "FixedCameraSpawn"
01FF  04                 const type 4
0200  07                 string size (7)
0201  64537061776E00     "dSpawn\0"
                         const [8]: "dSpawn"
0208  04                 const type 4
0209  07                 string size (7)
020A  68537061776E00     "hSpawn\0"
                         const [9]: "hSpawn"
0211  04                 const type 4
0212  12                 string size (18)
0213  446566656E736541+  "DefenseA"
021B  67656E7453706177+  "gentSpaw"
0223  6E00               "n\0"
                         const [10]: "DefenseAgentSpawn"
0225  04                 const type 4
0226  0A                 string size (10)
0227  4F626A6563746976+  "Objectiv"
022F  6500               "e\0"
                         const [11]: "Objective"
0231  04                 const type 4
0232  05                 string size (5)
0233  4578697400         "Exit\0"
                         const [12]: "Exit"
0238  03                 const type 3
0239  00000000           const [13]: (0)
023D  04                 const type 4
023E  03                 string size (3)
023F  5F5400             "_T\0"
                         const [14]: "_T"
0242  04                 const type 4
0243  16                 string size (22)
0244  456E636F756E7465+  "Encounte"
024C  7254617267657450+  "rTargetP"
0254  6C6179657200       "layer\0"
                         const [15]: "EncounterTargetPlayer"
025A  00                 const type 0
                         const [16]: nil
025B  04                 const type 4
025C  11                 string size (17)
025D  67456E636F756E74+  "gEncount"
0265  6572416374697665+  "erActive"
026D  00                 "\0"
                         const [17]: "gEncounterActive"
026E  01                 const type 3
026F  00000000           const [18]: (0)
0273  04                 const type 4
0274  0F                 string size (15)
0275  4D4F4E49544F525F+  "MONITOR_"
027D  4556454E545300     "EVENTS\0"
                         const [19]: "MONITOR_EVENTS"
0284  04                 const type 4
0285  0D                 string size (13)
0286  454E454D595F4B49+  "ENEMY_KI"
028E  4C4C454400         "LLED\0"
                         const [20]: "ENEMY_KILLED"
0293  04                 const type 4
0294  0B                 string size (11)
0295  454E454D595F464C+  "ENEMY_FL"
029D  454500             "EE\0"
                         const [21]: "ENEMY_FLEE"
02A0  03                 const type 3
02A1  0000803F           const [22]: (0)
02A5  04                 const type 4
02A6  0C                 string size (12)
02A7  454E454D595F424F+  "ENEMY_BO"
02AF  52454400           "RED\0"
                         const [23]: "ENEMY_BORED"
02B3  03                 const type 3
02B4  00000040           const [24]: (0)
02B8  04                 const type 4
02B9  0E                 string size (14)
02BA  504C415945525F4B+  "PLAYER_K"
02C2  494C4C454400       "ILLED\0"
                         const [25]: "PLAYER_KILLED"
02C8  03                 const type 3
02C9  00004040           const [26]: (0)
02CD  04                 const type 4
02CE  0F                 string size (15)
02CF  5374616C6B657246+  "StalkerF"
02D7  6C69636B657200     "licker\0"
                         const [27]: "StalkerFlicker"
02DE  04                 const type 4
02DF  17                 string size (23)
02E0  5065727369737465+  "Persiste"
02E8  6E74456E656D7946+  "ntEnemyF"
02F0  6C69636B657200     "licker\0"
                         const [28]: "PersistentEnemyFlicker"
02F7  04                 const type 4
02F8  15                 string size (21)
02F9  46616374696F6E48+  "FactionH"
0301  756E746572466C69+  "unterFli"
0309  636B657200         "cker\0"
                         const [29]: "FactionHunterFlicker"
030E  04                 const type 4
030F  0B                 string size (11)
0310  537061776E456E65+  "SpawnEne"
0318  6D7900             "my\0"
                         const [30]: "SpawnEnemy"
031B  04                 const type 4
031C  0D                 string size (13)
031D  4D6F6E69746F7245+  "MonitorE"
0325  6E656D7900         "nemy\0"
                         const [31]: "MonitorEnemy"
032A  04                 const type 4
032B  12                 string size (18)
032C  456E636F756E7465+  "Encounte"
0334  7273416C6C6F7765+  "rsAllowe"
033C  6400               "d\0"
                         const [32]: "EncountersAllowed"
033E  04                 const type 4
033F  11                 string size (17)
0340  5265717565737445+  "RequestE"
0348  6E636F756E746572+  "ncounter"
0350  00                 "\0"
                         const [33]: "RequestEncounter"
0351  04                 const type 4
0352  11                 string size (17)
0353  52656C6561736545+  "ReleaseE"
035B  6E636F756E746572+  "ncounter"
0363  00                 "\0"
                         const [34]: "ReleaseEncounter"
0364  04                 const type 4
0365  06                 string size (6)
0366  526573657400       "Reset\0"
                         const [35]: "Reset"
                         * functions:
036C  0F                 sizep (15)
                         
036D                     ** function [0] definition (level 2)
                         ** start of function **
036D  00                 string size (0)
                         source name: (none)
036E  07                 line defined (7)
036F  0B                 last line defined (11)
0370  00                 nups (0)
0371  01                 numparams (1)
0372  00                 is_vararg (0)
0373  03                 maxstacksize (3)
                         * code:
0374  07                 sizecode (7)
0375  57000000           [1] loadbool   1   0   0    ; false
0379  58000000           [2] test       1       0    ; to [4] if true
037D  1A800080           [3] jmp        3            ; to [7]
0381  5D000000           [4] getglobal  1   0        ; -1817107093
0385  92000000           [5] move       2   0      
0389  62400001           [6] call       1   2   1  
038D  1E008000           [7] return     0   1      
                         * constants:
0391  01                 sizek (1)
0392  01                 const type 3
0393  6B25B193           const [0]: (-1817107093)
                         * functions:
0397  00                 sizep (0)
                         * lines:
0398  07                 sizelineinfo (7)
                         [pc] (line)
0399  08                 [1] (8)
039A  00                 [2] (8)
039B  00                 [3] (8)
039C  00                 [4] (9)
039D  08                 [5] (9)
039E  00                 [6] (9)
039F  00                 [7] (11)
                         * locals:
03B5  00                 sizelocvars (0)
                         * upvalues:
03B6  00                 sizeupvalues (0)
                         ** end of function **

                         
03B7                     ** function [1] definition (level 2)
                         ** start of function **
03B7  00                 string size (0)
                         source name: (none)
03B8  0D                 line defined (13)
03B9  47                 last line defined (71)
03BA  00                 nups (0)
03BB  07                 numparams (7)
03BC  00                 is_vararg (0)
03BD  19                 maxstacksize (25)
                         * code:
03BF  01                 sizecode (158)
03C0  18000000           [001] test       0       0    ; to [3] if true
03C4  1A800180           [002] jmp        7            ; to [10]
03C8  DD010000           [003] getglobal  7   0        ; 1074689893
03CC  1D420000           [004] getglobal  8   1        ; _T
03D0  0E824004           [005] gettable   8   8   258  ; "StalkerTargetPlayer"
03D4  E2810001           [006] call       7   2   2  
03D8  D8010000           [007] test       7       0    ; to [9] if true
03DC  1A000080           [008] jmp        1            ; to [10]
03E0  1E008000           [009] return     0   1      
03E4  D9C10000           [010] loadk      7   3        ; 0
03E8  1D020100           [011] getglobal  8   4        ; gRegion
03EC  24424104           [012] self       8   8   261  ; 1224466847
03F0  22820001           [013] call       8   2   2  
03F4  59820100           [014] loadk      9   6        ; 0
03F8  8A020004           [015] len        10  8      
03FC  D9820100           [016] loadk      11  6        ; 0
0400  50421380           [017] forprep    9   78       ; to [96]
0404  4E030304           [018] gettable   13  8   12 
0408  9D430000           [019] getglobal  14  1        ; _T
040C  8E834007           [020] gettable   14  14  258  ; "StalkerTargetPlayer"
fail op	35
0410  63808306           [021] close      1  
0414  1A000080           [022] jmp        1            ; to [24]
0418  57430000           [023] loadbool   13  0   1    ; false, to [25]
041C  57038000           [024] loadbool   13  1   0    ; true
0420  58400000           [025] test       1       1    ; to [27] if false
0424  1A400080           [026] jmp        2            ; to [29]
0428  58030000           [027] test       13      0    ; to [29] if true
042C  1AC00080           [028] jmp        4            ; to [33]
0430  8E030304           [029] gettable   14  8   12 
0434  A4C34107           [030] self       14  14  263  ; -1191956569
0438  12048003           [031] move       16  7      
043C  A2438001           [032] call       14  3   1  
0440  9D030000           [033] getglobal  14  0        ; 1074689893
0444  D2038001           [034] move       15  3      
0448  A2830001           [035] call       14  2   2  
044C  98430000           [036] test       14      1    ; to [38] if false
0450  1A400080           [037] jmp        2            ; to [40]
0454  18410000           [038] test       4       1    ; to [40] if false
0458  1A400080           [039] jmp        2            ; to [42]
045C  58030000           [040] test       13      0    ; to [42] if true
0460  1A800680           [041] jmp        27           ; to [69]
0464  8E030304           [042] gettable   14  8   12 
0468  A4034207           [043] self       14  14  264  ; -2135866365
046C  A2830001           [044] call       14  2   2  
0470  DD030000           [045] getglobal  15  0        ; 1074689893
0474  12040007           [046] move       16  14     
0478  E2830001           [047] call       15  2   2  
047C  D8430000           [048] test       15      1    ; to [50] if false
0480  1A800480           [049] jmp        19           ; to [69]
0484  E4434207           [050] self       15  14  265  ; 1525877273
0488  E2830001           [051] call       15  2   2  
048C  1D040000           [052] getglobal  16  0        ; 1074689893
0490  52048007           [053] move       17  15     
0494  22840001           [054] call       16  2   2  
0498  18440000           [055] test       16      1    ; to [57] if false
049C  1AC00280           [056] jmp        12           ; to [69]
04A0  2484C207           [057] self       16  15  266  ; -847416010
04A4  92048001           [058] move       18  3      
04A8  D9C40200           [059] loadk      19  11       ; -51
04AC  19050300           [060] loadk      20  12       ; 0
04B0  59050300           [061] loadk      21  12       ; 0
04B4  22440003           [062] call       16  6   1  
04B8  2444C307           [063] self       16  15  269  ; 167589562
04BC  99040300           [064] loadk      18  12       ; 0
04C0  D9840300           [065] loadk      19  14       ; -51
04C4  19850300           [066] loadk      20  14       ; -51
04C8  59C50300           [067] loadk      21  15       ; 0
04CC  22440003           [068] call       16  6   1  
fail op	35
04D0  6300C402           [069] close      1  
04D4  1A000680           [070] jmp        25           ; to [96]
04D8  0E44C402           [071] gettable   16  5   273  ; "teaseAvatar"
04DC  18040000           [072] test       16      0    ; to [74] if true
04E0  1A400580           [073] jmp        22           ; to [96]
04E4  1D040000           [074] getglobal  16  0        ; 1074689893
04E8  4E84C402           [075] gettable   17  5   274  ; "teaseEffect"
04EC  22840001           [076] call       16  2   2  
04F0  18440000           [077] test       16      1    ; to [79] if false
04F4  1A000480           [078] jmp        17           ; to [96]
04F8  58430000           [079] test       13      1    ; to [81] if false
04FC  1A800080           [080] jmp        3            ; to [84]
0500  0EC4C402           [081] gettable   16  5   275  ; "teaseAvatarAttachAll"
0504  18040000           [082] test       16      0    ; to [84] if true
0508  1AC00280           [083] jmp        12           ; to [96]
050C  0E040304           [084] gettable   16  8   12 
0510  24044208           [085] self       16  16  264  ; -2135866365
0514  22840001           [086] call       16  2   2  
0518  5D040000           [087] getglobal  17  0        ; 1074689893
051C  92040008           [088] move       18  16     
0520  62840001           [089] call       17  2   2  
0524  58440000           [090] test       17      1    ; to [92] if false
0528  1AC00080           [091] jmp        4            ; to [96]
052C  64044508           [092] self       17  16  276  ; -1421644046
0530  CE84C402           [093] gettable   19  5   274  ; "teaseEffect"
0534  1D450500           [094] getglobal  20  21       ; EMPTY_SYMBOL
0538  62440002           [095] call       17  4   1  
053C  5402EC7F           [096] forloop    9   -79      ; to [18] if loop
0540  5D040000           [097] getglobal  17  0        ; 1074689893
0544  92040001           [098] move       18  2      
0548  62840001           [099] call       17  2   2  
054C  58440000           [100] test       17      1    ; to [102] if false
0550  1AC00180           [101] jmp        8            ; to [110]
0554  5D040100           [102] getglobal  17  4        ; gRegion
0558  6484C508           [103] self       17  17  278  ; 630793108
055C  D2040001           [104] move       19  2      
0560  1DC50500           [105] getglobal  20  23       ; 572299008
0564  22858000           [106] call       20  1   2  
0568  57050000           [107] loadbool   21  0   0    ; false
056C  99050600           [108] loadk      22  24       ; 0
0570  62440003           [109] call       17  6   1  
fail op	35
0574  63404603           [110] close      1  
0578  1A800080           [111] jmp        3            ; to [115]
057C  5D840600           [112] getglobal  17  26       ; 538022378
0580  92048003           [113] move       18  7      
0584  62440001           [114] call       17  2   1  
fail op	35
0588  6300C402           [115] close      1  
058C  1A000A80           [116] jmp        41           ; to [158]
0590  4EC4C602           [117] gettable   17  5   283  ; "teaseSpawn"
0594  58040000           [118] test       17      0    ; to [120] if true
0598  1A400980           [119] jmp        38           ; to [158]
059C  5D040000           [120] getglobal  17  0        ; 1074689893
05A0  8E84C402           [121] gettable   18  5   274  ; "teaseEffect"
05A4  62840001           [122] call       17  2   2  
05A8  58440000           [123] test       17      1    ; to [125] if false
05AC  1A000880           [124] jmp        33           ; to [158]
05B0  5D440000           [125] getglobal  17  1        ; _T
05B4  4E84C008           [126] gettable   17  17  258  ; "StalkerTargetPlayer"
05B8  9D040000           [127] getglobal  18  0        ; 1074689893
05BC  D2048008           [128] move       19  17     
05C0  A2840001           [129] call       18  2   2  
05C4  98440000           [130] test       18      1    ; to [132] if false
05C8  1A400680           [131] jmp        26           ; to [158]
05CC  A404C208           [132] self       18  17  264  ; -2135866365
05D0  A2840001           [133] call       18  2   2  
05D4  DD040000           [134] getglobal  19  0        ; 1074689893
05D8  12050009           [135] move       20  18     
05DC  E2840001           [136] call       19  2   2  
05E0  D8440000           [137] test       19      1    ; to [139] if false
05E4  1A800480           [138] jmp        19           ; to [158]
05E8  DD040100           [139] getglobal  19  4        ; gRegion
05EC  E404C709           [140] self       19  19  284  ; -1084394954
05F0  5D450700           [141] getglobal  21  29       ; gNpcSpawnPointType
05F4  A4854709           [142] self       22  18  286  ; 1839670529
05F8  A2850001           [143] call       22  2   2  
05FC  D9C50700           [144] loadk      23  31       ; 0
0600  E2848002           [145] call       19  5   2  
0604  1D050000           [146] getglobal  20  0        ; 1074689893
0608  52058009           [147] move       21  19     
060C  22850001           [148] call       20  2   2  
0610  18450000           [149] test       20      1    ; to [151] if false
0614  1A800180           [150] jmp        7            ; to [158]
0618  1D050100           [151] getglobal  20  4        ; gRegion
061C  2405480A           [152] self       20  20  288  ; -1110225722
0620  8E85C402           [153] gettable   22  5   274  ; "teaseEffect"
0624  E485C709           [154] self       23  19  286  ; 1839670529
0628  E2850001           [155] call       23  2   2  
062C  1D460800           [156] getglobal  24  33       ; ZERO_ROTATION
0630  22458002           [157] call       20  5   1  
0634  1E008000           [158] return     0   1      
                         * constants:
0638  22                 sizek (34)
0639  01                 const type 3
063A  65770E40           const [0]: (1074689893)
063E  04                 const type 4
063F  03                 string size (3)
0640  5F5400             "_T\0"
                         const [1]: "_T"
0643  04                 const type 4
0644  14                 string size (20)
0645  5374616C6B657254+  "StalkerT"
064D  6172676574506C61+  "argetPla"
0655  79657200           "yer\0"
                         const [2]: "StalkerTargetPlayer"
0659  03                 const type 3
065A  0000003F           const [3]: (0)
065E  04                 const type 4
065F  08                 string size (8)
0660  67526567696F6E00   "gRegion\0"
                         const [4]: "gRegion"
0668  01                 const type 3
0669  9FE1FB48           const [5]: (1224466847)
066D  03                 const type 3
066E  0000803F           const [6]: (0)
0672  01                 const type 3
0673  A72FF4B8           const [7]: (-1191956569)
0677  01                 const type 3
0678  0344B180           const [8]: (-2135866365)
067C  01                 const type 3
067D  190AF35A           const [9]: (1525877273)
0681  01                 const type 3
0682  36757DCD           const [10]: (-847416010)
0686  03                 const type 3
0687  CDCC4C3E           const [11]: (-51)
068B  03                 const type 3
068C  00000040           const [12]: (0)
0690  01                 const type 3
0691  BA36FD09           const [13]: (167589562)
0695  03                 const type 3
0696  CDCC8C3F           const [14]: (-51)
069A  03                 const type 3
069B  00004040           const [15]: (0)
069F  00                 const type 0
                         const [16]: nil
06A0  04                 const type 4
06A1  0C                 string size (12)
06A2  7465617365417661+  "teaseAva"
06AA  74617200           "tar\0"
                         const [17]: "teaseAvatar"
06AE  04                 const type 4
06AF  0C                 string size (12)
06B0  7465617365456666+  "teaseEff"
06B8  65637400           "ect\0"
                         const [18]: "teaseEffect"
06BC  04                 const type 4
06BD  15                 string size (21)
06BE  7465617365417661+  "teaseAva"
06C6  7461724174746163+  "tarAttac"
06CE  68416C6C00         "hAll\0"
                         const [19]: "teaseAvatarAttachAll"
06D3  01                 const type 3
06D4  F26E43AB           const [20]: (-1421644046)
06D8  04                 const type 4
06D9  0D                 string size (13)
06DA  454D5054595F5359+  "EMPTY_SY"
06E2  4D424F4C00         "MBOL\0"
                         const [21]: "EMPTY_SYMBOL"
06E7  01                 const type 3
06E8  94239925           const [22]: (630793108)
06EC  01                 const type 3
06ED  00971C22           const [23]: (572299008)
06F1  03                 const type 3
06F2  00000000           const [24]: (0)
06F6  01                 const type 3
06F7  01000000           const [25]: (1)
06FB  01                 const type 3
06FC  EA911120           const [26]: (538022378)
0700  04                 const type 4
0701  0B                 string size (11)
0702  7465617365537061+  "teaseSpa"
070A  776E00             "wn\0"
                         const [27]: "teaseSpawn"
070D  01                 const type 3
070E  36725DBF           const [28]: (-1084394954)
0712  04                 const type 4
0713  13                 string size (19)
0714  674E706353706177+  "gNpcSpaw"
071C  6E506F696E745479+  "nPointTy"
0724  706500             "pe\0"
                         const [29]: "gNpcSpawnPointType"
0727  01                 const type 3
0728  0125A76D           const [30]: (1839670529)
072C  03                 const type 3
072D  00007041           const [31]: (0)
0731  01                 const type 3
0732  C64CD3BD           const [32]: (-1110225722)
0736  04                 const type 4
0737  0E                 string size (14)
0738  5A45524F5F524F54+  "ZERO_ROT"
0740  4154494F4E00       "ATION\0"
                         const [33]: "ZERO_ROTATION"
                         * functions:
0746  00                 sizep (0)
                         * lines:
0748  01                 sizelineinfo (158)
                         [pc] (line)
0749  10                 [001] (16)
074A  00                 [002] (16)
074B  00                 [003] (16)
074C  00                 [004] (16)
074D  10                 [005] (16)
074E  00                 [006] (16)
074F  00                 [007] (16)
0750  00                 [008] (16)
0751  10                 [009] (17)
0752  00                 [010] (20)
0753  00                 [011] (22)
0754  00                 [012] (22)
0755  10                 [013] (22)
0756  00                 [014] (23)
0757  00                 [015] (23)
0758  00                 [016] (23)
0759  10                 [017] (23)
075A  00                 [018] (24)
075B  00                 [019] (24)
075C  00                 [020] (24)
075D  10                 [021] (24)
075E  00                 [022] (24)
075F  00                 [023] (24)
0760  00                 [024] (24)
0761  10                 [025] (26)
0762  00                 [026] (26)
0763  00                 [027] (26)
0764  00                 [028] (26)
0765  10                 [029] (27)
0766  00                 [030] (27)
0767  00                 [031] (27)
0768  00                 [032] (27)
0769  11                 [033] (30)
076A  00                 [034] (30)
076B  00                 [035] (30)
076C  00                 [036] (30)
076D  14                 [037] (30)
076E  00                 [038] (30)
076F  00                 [039] (30)
0770  00                 [040] (30)
0771  16                 [041] (30)
0772  00                 [042] (31)
0773  00                 [043] (31)
0774  00                 [044] (31)
0775  16                 [045] (32)
0776  00                 [046] (32)
0777  00                 [047] (32)
0778  00                 [048] (32)
0779  16                 [049] (32)
077A  00                 [050] (33)
077B  00                 [051] (33)
077C  00                 [052] (34)
077D  17                 [053] (34)
077E  00                 [054] (34)
077F  00                 [055] (34)
0780  00                 [056] (34)
0781  17                 [057] (35)
0782  00                 [058] (35)
0783  00                 [059] (35)
0784  00                 [060] (35)
0785  17                 [061] (35)
0786  00                 [062] (35)
0787  00                 [063] (36)
0788  00                 [064] (36)
0789  17                 [065] (36)
078A  00                 [066] (36)
078B  00                 [067] (36)
078C  00                 [068] (36)
078D  18                 [069] (41)
078E  00                 [070] (41)
078F  00                 [071] (42)
0790  00                 [072] (42)
0791  18                 [073] (42)
0792  00                 [074] (42)
0793  00                 [075] (42)
0794  00                 [076] (42)
0795  18                 [077] (42)
0796  00                 [078] (42)
0797  00                 [079] (42)
0798  00                 [080] (42)
0799  18                 [081] (42)
079A  00                 [082] (42)
079B  00                 [083] (42)
079C  00                 [084] (43)
079D  18                 [085] (43)
079E  00                 [086] (43)
079F  00                 [087] (44)
07A0  00                 [088] (44)
07A1  18                 [089] (44)
07A2  00                 [090] (44)
07A3  00                 [091] (44)
07A4  00                 [092] (45)
07A5  18                 [093] (45)
07A6  00                 [094] (45)
07A7  00                 [095] (45)
07A8  00                 [096] (23)
07A9  1A                 [097] (51)
07AA  00                 [098] (51)
07AB  00                 [099] (51)
07AC  00                 [100] (51)
07AD  1A                 [101] (51)
07AE  00                 [102] (52)
07AF  00                 [103] (52)
07B0  00                 [104] (52)
07B1  1A                 [105] (52)
07B2  00                 [106] (52)
07B3  00                 [107] (52)
07B4  00                 [108] (52)
07B5  1A                 [109] (52)
07B6  00                 [110] (55)
07B7  00                 [111] (55)
07B8  00                 [112] (56)
07B9  1B                 [113] (56)
07BA  00                 [114] (56)
07BB  00                 [115] (59)
07BC  00                 [116] (59)
07BD  1B                 [117] (59)
07BE  00                 [118] (59)
07BF  00                 [119] (59)
07C0  00                 [120] (59)
07C1  1B                 [121] (59)
07C2  00                 [122] (59)
07C3  00                 [123] (59)
07C4  00                 [124] (59)
07C5  1B                 [125] (60)
07C6  00                 [126] (60)
07C7  00                 [127] (61)
07C8  00                 [128] (61)
07C9  1E                 [129] (61)
07CA  00                 [130] (61)
07CB  00                 [131] (61)
07CC  00                 [132] (62)
07CD  1E                 [133] (62)
07CE  00                 [134] (63)
07CF  00                 [135] (63)
07D0  00                 [136] (63)
07D1  1E                 [137] (63)
07D2  00                 [138] (63)
07D3  00                 [139] (64)
07D4  00                 [140] (64)
07D5  1E                 [141] (64)
07D6  00                 [142] (64)
07D7  00                 [143] (64)
07D8  00                 [144] (64)
07D9  1E                 [145] (64)
07DA  00                 [146] (65)
07DB  00                 [147] (65)
07DC  00                 [148] (65)
07DD  1E                 [149] (65)
07DE  00                 [150] (65)
07DF  00                 [151] (66)
07E0  00                 [152] (66)
07E1  1E                 [153] (66)
07E2  00                 [154] (66)
07E3  00                 [155] (66)
07E4  00                 [156] (66)
07E5  1E                 [157] (66)
07E6  00                 [158] (71)
                         * locals:
09C1  00                 sizelocvars (0)
                         * upvalues:
09C2  00                 sizeupvalues (0)
                         ** end of function **

                         
09C3                     ** function [2] definition (level 2)
                         ** start of function **
09C3  00                 string size (0)
                         source name: (none)
09C4  49                 line defined (73)
09C5  60                 last line defined (96)
09C6  01                 nups (1)
09C7  02                 numparams (2)
09C8  00                 is_vararg (0)
09C9  0C                 maxstacksize (12)
                         * code:
09CA  38                 sizecode (56)
09CB  99000000           [01] loadk      2   0        ; 0
09CF  DD400000           [02] getglobal  3   1        ; 1074689893
09D3  12010000           [03] move       4   0      
09D7  E2800001           [04] call       3   2   2  
09DB  D8400000           [05] test       3       1    ; to [7] if false
09DF  1AC00780           [06] jmp        32           ; to [39]
09E3  DD400000           [07] getglobal  3   1        ; 1074689893
09E7  24814000           [08] self       4   0   258  ; -2135866365
09EB  22010001           [09] call       4   2   0  
09EF  E2800000           [10] call       3   0   2  
09F3  D8400000           [11] test       3       1    ; to [13] if false
09F7  1A400680           [12] jmp        26           ; to [39]
09FB  DDC00000           [13] getglobal  3   3        ; Engine
09FF  CE00C101           [14] gettable   3   3   260  ; "SLOT_1"
0A03  1DC10000           [15] getglobal  4   3        ; Engine
0A07  0E414102           [16] gettable   4   4   261  ; "SLOT_8"
0A0B  59010000           [17] loadk      5   0        ; 0
0A0F  D0800480           [18] forprep    3   19       ; to [38]
0A13  E4814000           [19] self       7   0   258  ; -2135866365
0A17  E2810001           [20] call       7   2   2  
0A1B  E481C103           [21] self       7   7   262  ; -1917464545
0A1F  E2810001           [22] call       7   2   2  
0A23  E4C1C103           [23] self       7   7   263  ; 1674984496
0A27  52020003           [24] move       9   6      
0A2B  E2818001           [25] call       7   3   2  
0A2F  1D420000           [26] getglobal  8   1        ; 1074689893
0A33  52028003           [27] move       9   7      
0A37  22820001           [28] call       8   2   2  
0A3B  18420000           [29] test       8       1    ; to [31] if false
0A3F  1A800180           [30] jmp        7            ; to [38]
0A43  1D020200           [31] getglobal  8   8        ; math
0A47  0E424204           [32] gettable   8   8   265  ; -1962864584
0A4B  52020001           [33] move       9   2      
0A4F  A482C203           [34] self       10  7   266  ; 1250786858
0A53  A2020001           [35] call       10  2   0  
0A57  22820000           [36] call       8   0   2  
0A5B  92000004           [37] move       2   8      
0A5F  D4C0FA7F           [38] forloop    3   -20      ; to [19] if loop
0A63  1D420000           [39] getglobal  8   1        ; 1074689893
0A67  52028000           [40] move       9   1      
0A6B  22820001           [41] call       8   2   2  
0A6F  18420000           [42] test       8       1    ; to [44] if false
0A73  1A000280           [43] jmp        9            ; to [53]
0A77  24C2C200           [44] self       8   1   267  ; -472735398
0A7B  22820001           [45] call       8   2   2  
0A7F  03024304           [46] add        8   8   268  ; 0
0A83  5D020200           [47] getglobal  9   8        ; math
0A87  4E42C204           [48] gettable   9   9   265  ; -1962864584
0A8B  92020001           [49] move       10  2      
0A8F  D2020004           [50] move       11  8      
0A93  62828001           [51] call       9   3   2  
0A97  92008004           [52] move       2   9      
0A9B  53020000           [53] getupval   9   0      
0A9F  83400201           [54] add        2   2   9  
0AA3  9E000001           [55] return     2   2      
0AA7  1E008000           [56] return     0   1      
                         * constants:
0AAB  0D                 sizek (13)
0AAC  03                 const type 3
0AAD  0000803F           const [0]: (0)
0AB1  01                 const type 3
0AB2  65770E40           const [1]: (1074689893)
0AB6  01                 const type 3
0AB7  0344B180           const [2]: (-2135866365)
0ABB  04                 const type 4
0ABC  07                 string size (7)
0ABD  456E67696E6500     "Engine\0"
                         const [3]: "Engine"
0AC4  04                 const type 4
0AC5  07                 string size (7)
0AC6  534C4F545F3100     "SLOT_1\0"
                         const [4]: "SLOT_1"
0ACD  04                 const type 4
0ACE  07                 string size (7)
0ACF  534C4F545F3800     "SLOT_8\0"
                         const [5]: "SLOT_8"
0AD6  01                 const type 3
0AD7  1FD0B58D           const [6]: (-1917464545)
0ADB  01                 const type 3
0ADC  303CD663           const [7]: (1674984496)
0AE0  04                 const type 4
0AE1  05                 string size (5)
0AE2  6D61746800         "math\0"
                         const [8]: "math"
0AE7  01                 const type 3
0AE8  3810018B           const [9]: (-1962864584)
0AEC  01                 const type 3
0AED  2A7E8D4A           const [10]: (1250786858)
0AF1  01                 const type 3
0AF2  5AA1D2E3           const [11]: (-472735398)
0AF6  03                 const type 3
0AF7  0000A040           const [12]: (0)
                         * functions:
0AFB  00                 sizep (0)
                         * lines:
0AFC  38                 sizelineinfo (56)
                         [pc] (line)
0AFD  4C                 [01] (76)
0AFE  00                 [02] (77)
0AFF  00                 [03] (77)
0B00  00                 [04] (77)
0B01  4D                 [05] (77)
0B02  00                 [06] (77)
0B03  00                 [07] (77)
0B04  00                 [08] (77)
0B05  4D                 [09] (77)
0B06  00                 [10] (77)
0B07  00                 [11] (77)
0B08  00                 [12] (77)
0B09  4D                 [13] (78)
0B0A  00                 [14] (78)
0B0B  00                 [15] (78)
0B0C  00                 [16] (78)
0B0D  4D                 [17] (78)
0B0E  00                 [18] (78)
0B0F  00                 [19] (79)
0B10  00                 [20] (79)
0B11  4D                 [21] (79)
0B12  00                 [22] (79)
0B13  00                 [23] (79)
0B14  00                 [24] (79)
0B15  4D                 [25] (79)
0B16  00                 [26] (80)
0B17  00                 [27] (80)
0B18  00                 [28] (80)
0B19  4D                 [29] (80)
0B1A  00                 [30] (80)
0B1B  00                 [31] (81)
0B1C  00                 [32] (81)
0B1D  4D                 [33] (81)
0B1E  00                 [34] (81)
0B1F  00                 [35] (81)
0B20  00                 [36] (81)
0B21  4D                 [37] (81)
0B22  00                 [38] (78)
0B23  00                 [39] (87)
0B24  00                 [40] (87)
0B25  4D                 [41] (87)
0B26  00                 [42] (87)
0B27  00                 [43] (87)
0B28  00                 [44] (88)
0B29  4D                 [45] (88)
0B2A  00                 [46] (88)
0B2B  00                 [47] (89)
0B2C  00                 [48] (89)
0B2D  4E                 [49] (89)
0B2E  00                 [50] (89)
0B2F  00                 [51] (89)
0B30  00                 [52] (89)
0B31  4E                 [53] (93)
0B32  00                 [54] (93)
0B33  00                 [55] (95)
0B34  00                 [56] (96)
                         * locals:
0BDD  00                 sizelocvars (0)
                         * upvalues:
0BDE  00                 sizeupvalues (0)
                         ** end of function **

                         
0BDF                     ** function [3] definition (level 2)
                         ** start of function **
0BDF  00                 string size (0)
                         source name: (none)
0BE0  62                 line defined (98)
0BE1  71                 last line defined (113)
0BE2  00                 nups (0)
0BE3  02                 numparams (2)
0BE4  00                 is_vararg (0)
0BE5  07                 maxstacksize (7)
                         * code:
0BE6  1E                 sizecode (30)
0BE7  9D000000           [01] getglobal  2   0        ; 1074689893
0BEB  D2000000           [02] move       3   0      
0BEF  A2800001           [03] call       2   2   2  
0BF3  98000000           [04] test       2       0    ; to [6] if true
0BF7  1A000080           [05] jmp        1            ; to [7]
0BFB  1E008000           [06] return     0   1      
0BFF  9D400000           [07] getglobal  2   1        ; gGameRules
0C03  E4804001           [08] self       3   2   258  ; 516385015
0C07  E2800001           [09] call       3   2   2  
0C0B  1D010000           [10] getglobal  4   0        ; 1074689893
0C0F  52018001           [11] move       5   3      
0C13  22810001           [12] call       4   2   2  
0C17  18410000           [13] test       4       1    ; to [15] if false
0C1B  1A800380           [14] jmp        15           ; to [30]
fail op	35
0C1F  63C0C000           [15] close      1  
0C23  1A800080           [16] jmp        3            ; to [20]
0C27  1D010100           [17] getglobal  4   4        ; EMPTY_SYMBOL
fail op	35
0C2B  23008100           [18] close      0  
0C2F  1AC00080           [19] jmp        4            ; to [24]
0C33  2441C101           [20] self       4   3   261  ; 2143938515
0C37  92010000           [21] move       6   0      
0C3B  22418001           [22] call       4   3   1  
0C3F  1A400180           [23] jmp        6            ; to [30]
0C43  2481C101           [24] self       4   3   262  ; 1520803588
0C47  92018000           [25] move       6   1      
0C4B  22418001           [26] call       4   3   1  
0C4F  24C1C101           [27] self       4   3   263  ; -1105824
0C53  97010000           [28] loadbool   6   0   0    ; false
0C57  22418001           [29] call       4   3   1  
0C5B  1E008000           [30] return     0   1      
                         * constants:
0C5F  08                 sizek (8)
0C60  01                 const type 3
0C61  65770E40           const [0]: (1074689893)
0C65  04                 const type 4
0C66  0B                 string size (11)
0C67  6747616D6552756C+  "gGameRul"
0C6F  657300             "es\0"
                         const [1]: "gGameRules"
0C72  01                 const type 3
0C73  F768C71E           const [2]: (516385015)
0C77  00                 const type 0
                         const [3]: nil
0C78  04                 const type 4
0C79  0D                 string size (13)
0C7A  454D5054595F5359+  "EMPTY_SY"
0C82  4D424F4C00         "MBOL\0"
                         const [4]: "EMPTY_SYMBOL"
0C87  01                 const type 3
0C88  D3E7C97F           const [5]: (2143938515)
0C8C  01                 const type 3
0C8D  049FA55A           const [6]: (1520803588)
0C91  01                 const type 3
0C92  6020EFFF           const [7]: (-1105824)
                         * functions:
0C96  00                 sizep (0)
                         * lines:
0C97  1E                 sizelineinfo (30)
                         [pc] (line)
0C98  63                 [01] (99)
0C99  00                 [02] (99)
0C9A  00                 [03] (99)
0C9B  00                 [04] (99)
0C9C  63                 [05] (99)
0C9D  00                 [06] (100)
0C9E  00                 [07] (103)
0C9F  00                 [08] (104)
0CA0  63                 [09] (104)
0CA1  00                 [10] (105)
0CA2  00                 [11] (105)
0CA3  00                 [12] (105)
0CA4  63                 [13] (105)
0CA5  00                 [14] (105)
0CA6  00                 [15] (106)
0CA7  00                 [16] (106)
0CA8  63                 [17] (106)
0CA9  00                 [18] (106)
0CAA  00                 [19] (106)
0CAB  00                 [20] (107)
0CAC  64                 [21] (107)
0CAD  00                 [22] (107)
0CAE  00                 [23] (107)
0CAF  00                 [24] (109)
0CB0  67                 [25] (109)
0CB1  00                 [26] (109)
0CB2  00                 [27] (110)
0CB3  00                 [28] (110)
0CB4  68                 [29] (110)
0CB5  00                 [30] (113)
                         * locals:
0D10  00                 sizelocvars (0)
                         * upvalues:
0D11  00                 sizeupvalues (0)
                         ** end of function **

                         
0D12                     ** function [4] definition (level 2)
                         ** start of function **
0D12  00                 string size (0)
                         source name: (none)
0D13  73                 line defined (115)
0D14  89                 last line defined (137)
0D15  01                 nups (2)
0D16  02                 numparams (1)
0D17  01                 is_vararg (0)
0D18  00                 maxstacksize (16)
                         * code:
0D1A  33                 sizecode (51)
0D1B  64004000           [01] self       1   0   256  ; 1927666530
0D1F  62800001           [02] call       1   2   2  
0D23  6440C000           [03] self       1   1   257  ; -524133869
0D27  62800001           [04] call       1   2   2  
0D2B  97000000           [05] loadbool   2   0   0    ; false
0D2F  98400000           [06] test       2       1    ; to [8] if false
0D33  1A800A80           [07] jmp        43           ; to [51]
0D37  DD800000           [08] getglobal  3   2        ; gRegion
0D3B  E4C0C001           [09] self       3   3   259  ; -2071158816
0D3F  E2800001           [10] call       3   2   2  
0D43  06010002           [11] loadnil    4   4      
0D47  5D010100           [12] getglobal  5   4        ; 248503575
0D4B  92018001           [13] move       6   3      
0D4F  62010101           [14] call       5   2   4  
0D53  1A000780           [15] jmp        29           ; to [45]
0D57  A402C004           [16] self       10  9   256  ; 1927666530
0D5B  A2820001           [17] call       10  2   2  
0D5F  12010005           [18] move       4   10     
0D63  9D420100           [19] getglobal  10  5        ; 1074689893
0D67  D2020002           [20] move       11  4      
0D6B  A2820001           [21] call       10  2   2  
0D6F  98420000           [22] test       10      1    ; to [24] if false
0D73  1A000580           [23] jmp        21           ; to [45]
0D77  A4424002           [24] self       10  4   257  ; -524133869
0D7B  A2820001           [25] call       10  2   2  
0D7F  12010005           [26] move       4   10     
0D83  93020000           [27] getupval   10  0      
0D87  98020000           [28] test       10      0    ; to [30] if true
0D8B  1A800280           [29] jmp        11           ; to [41]
0D8F  93028000           [30] getupval   10  1      
0D93  D9820100           [31] loadk      11  6        ; "player at: "
0D97  1DC30100           [32] getglobal  12  7        ; -1615931716
0D9B  52030002           [33] move       13  4      
0D9F  22830001           [34] call       12  2   2  
0DA3  59030200           [35] loadk      13  8        ; "  enemy at: "
0DA7  9DC30100           [36] getglobal  14  7        ; -1615931716
0DAB  D2038000           [37] move       15  1      
0DAF  A2830001           [38] call       14  2   2  
0DB3  C2828305           [39] concat     11  11  14 
0DB7  A2420001           [40] call       10  2   1  
fail op	35
0DBB  23400002           [41] close      0  
0DBF  1A400080           [42] jmp        2            ; to [45]
0DC3  97008000           [43] loadbool   2   1   0    ; true
0DC7  1A400080           [44] jmp        2            ; to [47]
0DCB  56810000           [45] tforloop   5       2    ; to [47] if exit
0DCF  1A00F87F           [46] jmp        -31          ; to [16]
0DD3  9D420200           [47] getglobal  10  9        ; 538022378
0DD7  D9820200           [48] loadk      11  10       ; 0
0DDB  A2420001           [49] call       10  2   1  
0DDF  1A80F47F           [50] jmp        -45          ; to [6]
0DE3  1E008000           [51] return     0   1      
                         * constants:
0DE7  0B                 sizek (11)
0DE8  01                 const type 3
0DE9  62DBE572           const [0]: (1927666530)
0DED  01                 const type 3
0DEE  135AC2E0           const [1]: (-524133869)
0DF2  04                 const type 4
0DF3  08                 string size (8)
0DF4  67526567696F6E00   "gRegion\0"
                         const [2]: "gRegion"
0DFC  01                 const type 3
0DFD  E09F8C84           const [3]: (-2071158816)
0E01  01                 const type 3
0E02  17DDCF0E           const [4]: (248503575)
0E06  01                 const type 3
0E07  65770E40           const [5]: (1074689893)
0E0B  04                 const type 4
0E0C  0C                 string size (12)
0E0D  706C617965722061+  "player a"
0E15  743A2000           "t: \0"
                         const [6]: "player at: "
0E19  01                 const type 3
0E1A  BCD6AE9F           const [7]: (-1615931716)
0E1E  04                 const type 4
0E1F  0D                 string size (13)
0E20  2020656E656D7920+  "  enemy "
0E28  61743A2000         "at: \0"
                         const [8]: "  enemy at: "
0E2D  01                 const type 3
0E2E  EA911120           const [9]: (538022378)
0E32  03                 const type 3
0E33  0000803F           const [10]: (0)
                         * functions:
0E37  00                 sizep (0)
                         * lines:
0E38  33                 sizelineinfo (51)
                         [pc] (line)
0E39  75                 [01] (117)
0E3A  00                 [02] (117)
0E3B  00                 [03] (117)
0E3C  00                 [04] (117)
0E3D  75                 [05] (118)
0E3E  00                 [06] (119)
0E3F  00                 [07] (119)
0E40  00                 [08] (120)
0E41  75                 [09] (120)
0E42  00                 [10] (120)
0E43  00                 [11] (121)
0E44  00                 [12] (122)
0E45  75                 [13] (122)
0E46  00                 [14] (122)
0E47  00                 [15] (122)
0E48  00                 [16] (123)
0E49  76                 [17] (123)
0E4A  00                 [18] (123)
0E4B  00                 [19] (124)
0E4C  00                 [20] (124)
0E4D  77                 [21] (124)
0E4E  00                 [22] (124)
0E4F  00                 [23] (124)
0E50  00                 [24] (125)
0E51  77                 [25] (125)
0E52  00                 [26] (125)
0E53  00                 [27] (126)
0E54  00                 [28] (126)
0E55  78                 [29] (126)
0E56  00                 [30] (127)
0E57  00                 [31] (127)
0E58  00                 [32] (127)
0E59  78                 [33] (127)
0E5A  00                 [34] (127)
0E5B  00                 [35] (127)
0E5C  00                 [36] (127)
0E5D  78                 [37] (127)
0E5E  00                 [38] (127)
0E5F  00                 [39] (127)
0E60  00                 [40] (127)
0E61  79                 [41] (-127)
0E62  00                 [42] (-127)
0E63  00                 [43] (-126)
0E64  00                 [44] (-125)
0E65  7A                 [45] (122)
0E66  00                 [46] (-123)
0E67  00                 [47] (-121)
0E68  00                 [48] (-121)
0E69  7A                 [49] (-121)
0E6A  00                 [50] (-121)
0E6B  00                 [51] (-119)
                         * locals:
0F05  00                 sizelocvars (0)
                         * upvalues:
0F06  00                 sizeupvalues (0)
                         ** end of function **

                         
0F07                     ** function [5] definition (level 2)
                         ** start of function **
0F07  00                 string size (0)
                         source name: (none)
0F09  01                 line defined (139)
0F0A  B1                 last line defined (177)
0F0B  01                 nups (3)
0F0C  03                 numparams (0)
0F0D  00                 is_vararg (0)
0F0E  00                 maxstacksize (16)
                         * code:
0F10  4F                 sizecode (79)
0F11  1D000000           [01] getglobal  0   0        ; gRegion
0F15  24404000           [02] self       0   0   257  ; 152279552
0F19  9D800000           [03] getglobal  2   2        ; gNpcSpawnPointType
0F1D  DDC00000           [04] getglobal  3   3        ; 572299008
0F21  E2808000           [05] call       3   1   2  
0F25  19010100           [06] loadk      4   4        ; 0
0F29  59410100           [07] loadk      5   5        ; 0
0F2D  22800003           [08] call       0   6   2  
0F31  46008000           [09] loadnil    1   1      
0F35  9D800100           [10] getglobal  2   6        ; gGameRules
0F39  A4C04101           [11] self       2   2   263  ; -502414055
0F3D  A2800001           [12] call       2   2   2  
0F41  DD000200           [13] getglobal  3   8        ; 1074689893
0F45  12010000           [14] move       4   0      
0F49  E2800001           [15] call       3   2   2  
0F4D  D8400000           [16] test       3       1    ; to [18] if false
0F51  1AC00E80           [17] jmp        60           ; to [78]
0F55  CA000000           [18] len        3   0      
fail op	21
0F59  15C08084           [19] concat     0   265 3  
0F5D  1A000E80           [20] jmp        57           ; to [78]
0F61  DD800200           [21] getglobal  3   10       ; 2144646525
0F65  19C10200           [22] loadk      4   11       ; 0
0F69  4A010000           [23] len        5   0      
0F6D  E2808001           [24] call       3   3   2  
0F71  0EC10000           [25] gettable   4   0   3  
0F75  64014302           [26] self       5   4   268  ; -1318948062
0F79  62810001           [27] call       5   2   2  
0F7D  58010000           [28] test       5       0    ; to [30] if true
0F81  1A400A80           [29] jmp        42           ; to [72]
0F85  57018000           [30] loadbool   5   1   0    ; true
0F89  A4414302           [31] self       6   4   269  ; -830264577
0F8D  A2810001           [32] call       6   2   2  
0F91  D9C10200           [33] loadk      7   11       ; 0
0F95  13020000           [34] getupval   8   0      
0F99  0A020004           [35] len        8   8      
0F9D  59C20200           [36] loadk      9   11       ; 0
0FA1  D0410180           [37] forprep    7   6        ; to [44]
0FA5  D3020000           [38] getupval   11  0      
0FA9  CE828205           [39] gettable   11  11  10 
fail op	35
0FAD  23C00203           [40] close      0  
0FB1  1A400080           [41] jmp        2            ; to [44]
0FB5  57010000           [42] loadbool   5   0   0    ; false
0FB9  1A000080           [43] jmp        1            ; to [45]
0FBD  D401FE7F           [44] forloop    7   -7       ; to [38] if loop
0FC1  58010000           [45] test       5       0    ; to [47] if true
0FC5  1A000680           [46] jmp        25           ; to [72]
0FC9  E4824302           [47] self       11  4   270  ; 1927666530
0FCD  E2820001           [48] call       11  2   2  
0FD1  1D030200           [49] getglobal  12  8        ; 1074689893
0FD5  52038005           [50] move       13  11     
0FD9  22830001           [51] call       12  2   2  
0FDD  18430000           [52] test       12      1    ; to [54] if false
0FE1  1A400480           [53] jmp        18           ; to [72]
0FE5  2443C305           [54] self       12  11  269  ; -830264577
0FE9  22830001           [55] call       12  2   2  
0FED  53038000           [56] getupval   13  1      
fail op	35
0FF1  63400306           [57] close      1  
0FF5  1A000380           [58] jmp        13           ; to [72]
0FF9  5DC30300           [59] getglobal  13  15       ; Lotus_Game
0FFD  4E03C406           [60] gettable   13  13  272  ; "MT_RESCUE"
fail op	35
1001  63400301           [61] close      1  
1005  1AC00080           [62] jmp        4            ; to [67]
1009  5DC30300           [63] getglobal  13  15       ; Lotus_Game
100D  4E43C406           [64] gettable   13  13  273  ; "MT_INTEL"
fail op	35
1011  23400301           [65] close      0  
1015  1A800080           [66] jmp        3            ; to [70]
1019  53030001           [67] getupval   13  2      
fail op	35
101D  63400306           [68] close      1  
1021  1A400080           [69] jmp        2            ; to [72]
1025  52000002           [70] move       1   4      
1029  1A400180           [71] jmp        6            ; to [78]
102D  5D830400           [72] getglobal  13  18       ; table
1031  4EC3C406           [73] gettable   13  13  275  ; -843973282
1035  92030000           [74] move       14  0      
1039  D2038001           [75] move       15  3      
103D  62438001           [76] call       13  3   1  
1041  1A80EF7F           [77] jmp        -65          ; to [13]
1045  5E000001           [78] return     1   2      
1049  1E008000           [79] return     0   1      
                         * constants:
104D  14                 sizek (20)
104E  04                 const type 4
104F  08                 string size (8)
1050  67526567696F6E00   "gRegion\0"
                         const [0]: "gRegion"
1058  01                 const type 3
1059  009A1309           const [1]: (152279552)
105D  04                 const type 4
105E  13                 string size (19)
105F  674E706353706177+  "gNpcSpaw"
1067  6E506F696E745479+  "nPointTy"
106F  706500             "pe\0"
                         const [2]: "gNpcSpawnPointType"
1072  01                 const type 3
1073  00971C22           const [3]: (572299008)
1077  03                 const type 3
1078  00004842           const [4]: (0)
107C  03                 const type 3
107D  00009643           const [5]: (0)
1081  04                 const type 4
1082  0B                 string size (11)
1083  6747616D6552756C+  "gGameRul"
108B  657300             "es\0"
                         const [6]: "gGameRules"
108E  01                 const type 3
108F  19C50DE2           const [7]: (-502414055)
1093  01                 const type 3
1094  65770E40           const [8]: (1074689893)
1098  03                 const type 3
1099  00000000           const [9]: (0)
109D  01                 const type 3
109E  7DB5D47F           const [10]: (2144646525)
10A2  03                 const type 3
10A3  0000803F           const [11]: (0)
10A7  01                 const type 3
10A8  227362B1           const [12]: (-1318948062)
10AC  01                 const type 3
10AD  FF2A83CE           const [13]: (-830264577)
10B1  01                 const type 3
10B2  62DBE572           const [14]: (1927666530)
10B6  04                 const type 4
10B7  0B                 string size (11)
10B8  4C6F7475735F4761+  "Lotus_Ga"
10C0  6D6500             "me\0"
                         const [15]: "Lotus_Game"
10C3  04                 const type 4
10C4  0A                 string size (10)
10C5  4D545F5245534355+  "MT_RESCU"
10CD  4500               "E\0"
                         const [16]: "MT_RESCUE"
10CF  04                 const type 4
10D0  09                 string size (9)
10D1  4D545F494E54454C+  "MT_INTEL"
10D9  00                 "\0"
                         const [17]: "MT_INTEL"
10DA  04                 const type 4
10DB  06                 string size (6)
10DC  7461626C6500       "table\0"
                         const [18]: "table"
10E2  01                 const type 3
10E3  5EFDB1CD           const [19]: (-843973282)
                         * functions:
10E7  00                 sizep (0)
                         * lines:
10E8  4F                 sizelineinfo (79)
                         [pc] (line)
10E9  8D                 [01] (-115)
10EA  00                 [02] (-115)
10EB  00                 [03] (-115)
10EC  00                 [04] (-115)
10ED  8D                 [05] (-115)
10EE  00                 [06] (-115)
10EF  00                 [07] (-115)
10F0  00                 [08] (-115)
10F1  8D                 [09] (-114)
10F2  00                 [10] (-113)
10F3  00                 [11] (-113)
10F4  00                 [12] (-113)
10F5  8D                 [13] (-111)
10F6  00                 [14] (-111)
10F7  00                 [15] (-111)
10F8  00                 [16] (-111)
10F9  8D                 [17] (-111)
10FA  00                 [18] (-111)
10FB  00                 [19] (-111)
10FC  00                 [20] (-111)
10FD  8D                 [21] (-109)
10FE  00                 [22] (-109)
10FF  00                 [23] (-109)
1100  00                 [24] (-109)
1101  8D                 [25] (-108)
1102  00                 [26] (-106)
1103  00                 [27] (-106)
1104  00                 [28] (-106)
1105  8D                 [29] (-106)
1106  00                 [30] (-105)
1107  00                 [31] (-104)
1108  00                 [32] (-104)
1109  8E                 [33] (-103)
110A  00                 [34] (-103)
110B  00                 [35] (-103)
110C  00                 [36] (-103)
110D  8F                 [37] (-103)
110E  00                 [38] (-102)
110F  00                 [39] (-102)
1110  00                 [40] (-102)
1111  8F                 [41] (-102)
1112  00                 [42] (-101)
1113  00                 [43] (-100)
1114  00                 [44] (-103)
1115  8F                 [45] (-96)
1116  00                 [46] (-96)
1117  00                 [47] (-95)
1118  00                 [48] (-95)
1119  91                 [49] (-94)
111A  00                 [50] (-94)
111B  00                 [51] (-94)
111C  00                 [52] (-94)
111D  91                 [53] (-94)
111E  00                 [54] (-93)
111F  00                 [55] (-93)
1120  00                 [56] (-91)
1121  91                 [57] (-91)
1122  00                 [58] (-91)
1123  00                 [59] (-91)
1124  00                 [60] (-91)
1125  91                 [61] (-91)
1126  00                 [62] (-91)
1127  00                 [63] (-91)
1128  00                 [64] (-91)
1129  91                 [65] (-91)
112A  00                 [66] (-91)
112B  00                 [67] (-91)
112C  00                 [68] (-91)
112D  91                 [69] (-91)
112E  00                 [70] (-90)
112F  00                 [71] (-89)
1130  00                 [72] (-83)
1131  91                 [73] (-83)
1132  00                 [74] (-83)
1133  00                 [75] (-83)
1134  00                 [76] (-83)
1135  91                 [77] (-83)
1136  00                 [78] (-80)
1137  00                 [79] (-79)
                         * locals:
1225  00                 sizelocvars (0)
                         * upvalues:
1226  00                 sizeupvalues (0)
                         ** end of function **

                         
1227                     ** function [6] definition (level 2)
                         ** start of function **
1227  00                 string size (0)
                         source name: (none)
1229  01                 line defined (195)
122A  C6                 last line defined (198)
122B  01                 nups (1)
122C  01                 numparams (5)
122D  05                 is_vararg (0)
122E  00                 maxstacksize (14)
                         * code:
1230  0D                 sizecode (13)
1231  4B810000           [01] newtable   5   0   2    ; array=0, hash=2
1235  4C010080           [02] settable   5   256 0    ; "teaseEffect"
1239  4C81C080           [03] settable   5   257 258  ; "teaseSpawn" 1
123D  93010000           [04] getupval   6   0      
1241  D7018000           [05] loadbool   7   1   0    ; true
1245  12028001           [06] move       8   3      
1249  52028000           [07] move       9   1      
124D  92020001           [08] move       10  2      
1251  D7020000           [09] loadbool   11  0   0    ; false
1255  12038002           [10] move       12  5      
1259  52030002           [11] move       13  4      
125D  A2410004           [12] call       6   8   1  
1261  1E008000           [13] return     0   1      
                         * constants:
1265  03                 sizek (3)
1266  04                 const type 4
1267  0C                 string size (12)
1268  7465617365456666+  "teaseEff"
1270  65637400           "ect\0"
                         const [0]: "teaseEffect"
1274  04                 const type 4
1275  0B                 string size (11)
1276  7465617365537061+  "teaseSpa"
127E  776E00             "wn\0"
                         const [1]: "teaseSpawn"
1281  01                 const type 3
1282  01000000           const [2]: (1)
                         * functions:
1286  00                 sizep (0)
                         * lines:
1287  0D                 sizelineinfo (13)
                         [pc] (line)
1288  C4                 [01] (-60)
1289  00                 [02] (-60)
128A  00                 [03] (-60)
128B  00                 [04] (-59)
128C  C4                 [05] (-59)
128D  00                 [06] (-59)
128E  00                 [07] (-59)
128F  00                 [08] (-59)
1290  C4                 [09] (-59)
1291  00                 [10] (-59)
1292  00                 [11] (-59)
1293  00                 [12] (-59)
1294  C5                 [13] (-58)
                         * locals:
12BC  00                 sizelocvars (0)
                         * upvalues:
12BD  00                 sizeupvalues (0)
                         ** end of function **

                         
12BE                     ** function [7] definition (level 2)
                         ** start of function **
12BE  00                 string size (0)
                         source name: (none)
12C0  01                 line defined (200)
12C1  CA                 last line defined (202)
12C2  01                 nups (1)
12C3  01                 numparams (2)
12C4  02                 is_vararg (0)
12C5  00                 maxstacksize (9)
                         * code:
12C7  09                 sizecode (9)
12C8  93000000           [1] getupval   2   0      
12CC  D7000000           [2] loadbool   3   0   0    ; false
12D0  17018000           [3] loadbool   4   1   0    ; true
12D4  52018000           [4] move       5   1      
12D8  92010000           [5] move       6   0      
12DC  C6018003           [6] loadnil    7   7      
12E0  17020000           [7] loadbool   8   0   0    ; false
12E4  A2408003           [8] call       2   7   1  
12E8  1E008000           [9] return     0   1      
                         * constants:
12EC  00                 sizek (0)
                         * functions:
12ED  00                 sizep (0)
                         * lines:
12EE  09                 sizelineinfo (9)
                         [pc] (line)
12EF  C9                 [1] (-55)
12F0  00                 [2] (-55)
12F1  00                 [3] (-55)
12F2  00                 [4] (-55)
12F3  C9                 [5] (-55)
12F4  00                 [6] (-55)
12F5  00                 [7] (-55)
12F6  00                 [8] (-55)
12F7  C9                 [9] (-54)
                         * locals:
1313  00                 sizelocvars (0)
                         * upvalues:
1314  00                 sizeupvalues (0)
                         ** end of function **

                         
1315                     ** function [8] definition (level 2)
                         ** start of function **
1315  00                 string size (0)
                         source name: (none)
1317  01                 line defined (204)
1318  CF                 last line defined (207)
1319  01                 nups (1)
131A  01                 numparams (6)
131B  06                 is_vararg (0)
131C  00                 maxstacksize (15)
                         * code:
131E  0E                 sizecode (14)
131F  8BC10000           [01] newtable   6   0   3    ; array=0, hash=3
1323  8C410080           [02] settable   6   256 1    ; "teaseEffect"
1327  8C81C080           [03] settable   6   257 258  ; "teaseAvatar" 1
132B  8CC18081           [04] settable   6   259 3    ; "teaseAvatarAttachAll"
132F  D3010000           [05] getupval   7   0      
1333  17028000           [06] loadbool   8   1   0    ; true
1337  52020001           [07] move       9   2      
133B  86020005           [08] loadnil    10  10     
133F  D2020000           [09] move       11  0      
1343  12030002           [10] move       12  4      
1347  52030003           [11] move       13  6      
134B  92038002           [12] move       14  5      
134F  E2410004           [13] call       7   8   1  
1353  1E008000           [14] return     0   1      
                         * constants:
1357  04                 sizek (4)
1358  04                 const type 4
1359  0C                 string size (12)
135A  7465617365456666+  "teaseEff"
1362  65637400           "ect\0"
                         const [0]: "teaseEffect"
1366  04                 const type 4
1367  0C                 string size (12)
1368  7465617365417661+  "teaseAva"
1370  74617200           "tar\0"
                         const [1]: "teaseAvatar"
1374  01                 const type 3
1375  01000000           const [2]: (1)
1379  04                 const type 4
137A  15                 string size (21)
137B  7465617365417661+  "teaseAva"
1383  7461724174746163+  "tarAttac"
138B  68416C6C00         "hAll\0"
                         const [3]: "teaseAvatarAttachAll"
                         * functions:
1390  00                 sizep (0)
                         * lines:
1391  0E                 sizelineinfo (14)
                         [pc] (line)
1392  CD                 [01] (-51)
1393  00                 [02] (-51)
1394  00                 [03] (-51)
1395  00                 [04] (-51)
1396  CD                 [05] (-50)
1397  00                 [06] (-50)
1398  00                 [07] (-50)
1399  00                 [08] (-50)
139A  CD                 [09] (-50)
139B  00                 [10] (-50)
139C  00                 [11] (-50)
139D  00                 [12] (-50)
139E  CD                 [13] (-50)
139F  00                 [14] (-49)
                         * locals:
13CA  00                 sizelocvars (0)
                         * upvalues:
13CB  00                 sizeupvalues (0)
                         ** end of function **

                         
13CC                     ** function [9] definition (level 2)
                         ** start of function **
13CC  00                 string size (0)
                         source name: (none)
13CE  01                 line defined (209)
13CF  A2                 last line defined (290)
13D0  02                 nups (3)
13D1  03                 numparams (9)
13D2  09                 is_vararg (0)
13D3  00                 maxstacksize (28)
                         * code:
13D6  01                 sizecode (180)
13D7  5D020000           [001] getglobal  9   0        ; 1074689893
13DB  92020000           [002] move       10  0      
13DF  62820001           [003] call       9   2   2  
13E3  58020000           [004] test       9       0    ; to [6] if true
13E7  1AC00080           [005] jmp        4            ; to [10]
13EB  53020000           [006] getupval   9   0      
13EF  99420000           [007] loadk      10  1        ; "Encounter: No agent specified!"
13F3  62420001           [008] call       9   2   1  
13F7  1E008000           [009] return     0   1      
13FB  5D820000           [010] getglobal  9   2        ; _T
13FF  4EC2C004           [011] gettable   9   9   259  ; "StalkerTargetPlayer"
1403  9D020000           [012] getglobal  10  0        ; 1074689893
1407  D2028004           [013] move       11  9      
140B  A2820001           [014] call       10  2   2  
140F  98020000           [015] test       10      0    ; to [17] if true
1413  1AC00080           [016] jmp        4            ; to [21]
1417  93020000           [017] getupval   10  0      
141B  D9020100           [018] loadk      11  4        ; "Encounter: No target player!"
141F  A2420001           [019] call       10  2   1  
1423  1E008000           [020] return     0   1      
1427  A442C104           [021] self       10  9   261  ; -2135866365
142B  A2820001           [022] call       10  2   2  
142F  DD020000           [023] getglobal  11  0        ; 1074689893
1433  12030005           [024] move       12  10     
1437  E2820001           [025] call       11  2   2  
143B  D8020000           [026] test       11      0    ; to [28] if true
143F  1A000080           [027] jmp        1            ; to [29]
1443  1E008000           [028] return     0   1      
1447  DD820100           [029] getglobal  11  6        ; gRegion
144B  E4C2C105           [030] self       11  11  263  ; -774964848
144F  E2820001           [031] call       11  2   2  
1453  2403C205           [032] self       12  11  264  ; 537471347
1457  22830001           [033] call       12  2   2  
fail op	35
145B  23404201           [034] close      0  
145F  1AC00180           [035] jmp        8            ; to [44]
1463  5D830000           [036] getglobal  13  2        ; _T
1467  8E80C206           [037] gettable   2   13  266  ; "faction"
fail op	35
146B  23404201           [038] close      0  
146F  1AC00080           [039] jmp        4            ; to [44]
1473  64C34206           [040] self       13  12  267  ; -2031737093
1477  D9030300           [041] loadk      15  12       ; 0
147B  62838001           [042] call       13  3   2  
147F  92008006           [043] move       2   13     
fail op	35
1483  2340C201           [044] close      0  
1487  1A000180           [045] jmp        5            ; to [51]
148B  53038000           [046] getupval   13  1      
148F  92038004           [047] move       14  9      
1493  D2030006           [048] move       15  12     
1497  62838001           [049] call       13  3   2  
149B  D2008006           [050] move       3   13     
fail op	35
149F  6340C202           [051] close      1  
14A3  1AC00080           [052] jmp        4            ; to [57]
14A7  53030001           [053] getupval   13  2      
14AB  92038002           [054] move       14  5      
14AF  D2030003           [055] move       15  6      
14B3  62438001           [056] call       13  3   1  
fail op	35
14B7  63404202           [057] close      1  
14BB  1A400080           [058] jmp        2            ; to [61]
fail op	35
14BF  23404302           [059] close      0  
14C3  1A000080           [060] jmp        1            ; to [62]
14C7  57430000           [061] loadbool   13  0   1    ; false, to [63]
14CB  57038000           [062] loadbool   13  1   0    ; true
14CF  86030007           [063] loadnil    14  14     
14D3  D8010000           [064] test       7       0    ; to [66] if true
14D7  1A001680           [065] jmp        89           ; to [155]
14DB  C6038007           [066] loadnil    15  15     
14DF  1D040000           [067] getglobal  16  0        ; 1074689893
14E3  52048000           [068] move       17  1      
14E7  22840001           [069] call       16  2   2  
14EB  18040000           [070] test       16      0    ; to [72] if true
14EF  1AC00480           [071] jmp        20           ; to [92]
14F3  13040000           [072] getupval   16  0      
14F7  59840300           [073] loadk      17  14       ; "Encounter: Trying to spawn at null spawn point, spawning nearby player instead"
14FB  22440001           [074] call       16  2   1  
14FF  24C44305           [075] self       16  10  271  ; 1839670529
1503  22840001           [076] call       16  2   2  
1507  5D040400           [077] getglobal  17  16       ; 1287559689
150B  9D440400           [078] getglobal  18  17       ; 572299008
150F  D9040300           [079] loadk      19  12       ; 0
1513  19050300           [080] loadk      20  12       ; 0
1517  59850400           [081] loadk      21  18       ; 0
151B  A2840002           [082] call       18  4   2  
151F  E4C44405           [083] self       19  10  275  ; -231049143
1523  E2040001           [084] call       19  2   0  
1527  62840000           [085] call       17  0   2  
152B  03440408           [086] add        16  16  17 
152F  64044506           [087] self       17  12  276  ; 1085792015
1533  D2040008           [088] move       19  16     
1537  62848001           [089] call       17  3   2  
153B  D2038008           [090] move       15  17     
153F  1A800080           [091] jmp        3            ; to [95]
1543  64C4C300           [092] self       17  1   271  ; 1839670529
1547  62840001           [093] call       17  2   2  
154B  D2038008           [094] move       15  17     
fail op	35
154F  63404204           [095] close      1  
1553  1A800080           [096] jmp        3            ; to [100]
1557  52040004           [097] move       17  8      
155B  92048007           [098] move       18  15     
155F  62440001           [099] call       17  2   1  
1563  46048008           [100] loadnil    17  17     
1567  9D040000           [101] getglobal  18  0        ; 1074689893
156B  D2048000           [102] move       19  1      
156F  A2840001           [103] call       18  2   2  
1573  98040000           [104] test       18      0    ; to [106] if true
1577  1A800680           [105] jmp        27           ; to [133]
157B  58030000           [106] test       13      0    ; to [108] if true
157F  1A400380           [107] jmp        14           ; to [122]
1583  A444C505           [108] self       18  11  277  ; 436282865
1587  12050000           [109] move       20  0      
158B  52058007           [110] move       21  15     
158F  9D850500           [111] getglobal  22  22       ; 508519041
1593  A2858000           [112] call       22  1   2  
1597  D2050001           [113] move       23  2      
159B  12068001           [114] move       24  3      
159F  57060000           [115] loadbool   25  0   0    ; false
15A3  9DC60500           [116] getglobal  26  23       ; Engine
15A7  8E06460D           [117] gettable   26  26  280  ; "EXIMUS"
15AB  D2060002           [118] move       27  4      
15AF  A2840005           [119] call       18  10  2  
15B3  52040009           [120] move       17  18     
15B7  1A800780           [121] jmp        31           ; to [153]
15BB  A444C505           [122] self       18  11  277  ; 436282865
15BF  12050000           [123] move       20  0      
15C3  52058007           [124] move       21  15     
15C7  9D850500           [125] getglobal  22  22       ; 508519041
15CB  A2858000           [126] call       22  1   2  
15CF  D2050001           [127] move       23  2      
15D3  12068001           [128] move       24  3      
15D7  57060000           [129] loadbool   25  0   0    ; false
15DB  A2840004           [130] call       18  8   2  
15DF  52040009           [131] move       17  18     
15E3  1AC00480           [132] jmp        20           ; to [153]
15E7  58030000           [133] test       13      0    ; to [135] if true
15EB  1A800280           [134] jmp        11           ; to [146]
15EF  A444C605           [135] self       18  11  281  ; -1642488687
15F3  12050000           [136] move       20  0      
15F7  52058000           [137] move       21  1      
15FB  92050001           [138] move       22  2      
15FF  D2058001           [139] move       23  3      
1603  1DC60500           [140] getglobal  24  23       ; Engine
1607  0E06460C           [141] gettable   24  24  280  ; "EXIMUS"
160B  52060002           [142] move       25  4      
160F  A2840004           [143] call       18  8   2  
1613  52040009           [144] move       17  18     
1617  1A800180           [145] jmp        7            ; to [153]
161B  A444C605           [146] self       18  11  281  ; -1642488687
161F  12050000           [147] move       20  0      
1623  52058000           [148] move       21  1      
1627  92050001           [149] move       22  2      
162B  D2058001           [150] move       23  3      
162F  A2840003           [151] call       18  6   2  
1633  52040009           [152] move       17  18     
1637  5E040001           [153] return     17  2      
163B  1AC00580           [154] jmp        24           ; to [179]
163F  9D040000           [155] getglobal  18  0        ; 1074689893
1643  D2048000           [156] move       19  1      
1647  A2840001           [157] call       18  2   2  
164B  98040000           [158] test       18      0    ; to [160] if true
164F  1AC00280           [159] jmp        12           ; to [172]
1653  93040000           [160] getupval   18  0      
1657  D9840300           [161] loadk      19  14       ; "Encounter: Trying to spawn at null spawn point, spawning nearby player instead"
165B  A2440001           [162] call       18  2   1  
165F  A4844606           [163] self       18  12  282  ; -2120903900
1663  12050000           [164] move       20  0      
1667  52050005           [165] move       21  10     
166B  99850400           [166] loadk      22  18       ; 0
166F  D2050001           [167] move       23  2      
1673  12068001           [168] move       24  3      
1677  A2848003           [169] call       18  7   2  
167B  92030009           [170] move       14  18     
167F  1A800180           [171] jmp        7            ; to [179]
1683  A444C605           [172] self       18  11  281  ; -1642488687
1687  12050000           [173] move       20  0      
168B  52058000           [174] move       21  1      
168F  92050001           [175] move       22  2      
1693  D2058001           [176] move       23  3      
1697  A2840003           [177] call       18  6   2  
169B  92030009           [178] move       14  18     
169F  9E030001           [179] return     14  2      
16A3  1E008000           [180] return     0   1      
                         * constants:
16A7  1B                 sizek (27)
16A8  01                 const type 3
16A9  65770E40           const [0]: (1074689893)
16AD  04                 const type 4
16AE  1F                 string size (31)
16AF  456E636F756E7465+  "Encounte"
16B7  723A204E6F206167+  "r: No ag"
16BF  656E742073706563+  "ent spec"
16C7  69666965642100     "ified!\0"
                         const [1]: "Encounter: No agent specified!"
16CE  04                 const type 4
16CF  03                 string size (3)
16D0  5F5400             "_T\0"
                         const [2]: "_T"
16D3  04                 const type 4
16D4  14                 string size (20)
16D5  5374616C6B657254+  "StalkerT"
16DD  6172676574506C61+  "argetPla"
16E5  79657200           "yer\0"
                         const [3]: "StalkerTargetPlayer"
16E9  04                 const type 4
16EA  1D                 string size (29)
16EB  456E636F756E7465+  "Encounte"
16F3  723A204E6F207461+  "r: No ta"
16FB  7267657420706C61+  "rget pla"
1703  7965722100         "yer!\0"
                         const [4]: "Encounter: No target player!"
1708  01                 const type 3
1709  0344B180           const [5]: (-2135866365)
170D  04                 const type 4
170E  08                 string size (8)
170F  67526567696F6E00   "gRegion\0"
                         const [6]: "gRegion"
1717  01                 const type 3
1718  90F9CED1           const [7]: (-774964848)
171C  01                 const type 3
171D  73290920           const [8]: (537471347)
1721  00                 const type 0
                         const [9]: nil
1722  04                 const type 4
1723  08                 string size (8)
1724  66616374696F6E00   "faction\0"
                         const [10]: "faction"
172C  01                 const type 3
172D  FB26E686           const [11]: (-2031737093)
1731  03                 const type 3
1732  00000000           const [12]: (0)
1736  03                 const type 3
1737  00FF7F47           const [13]: (0)
173B  04                 const type 4
173C  4F                 string size (79)
173D  456E636F756E7465+  "Encounte"
1745  723A20547279696E+  "r: Tryin"
174D  6720746F20737061+  "g to spa"
1755  776E206174206E75+  "wn at nu"
175D  6C6C20737061776E+  "ll spawn"
1765  20706F696E742C20+  " point, "
176D  737061776E696E67+  "spawning"
1775  206E656172627920+  " nearby "
177D  706C617965722069+  "player i"
1785  6E737465616400     "nstead\0"
                         const [14]: "Encounter: Trying to spawn at null spawn point, spawning nearby player instead"
178C  01                 const type 3
178D  0125A76D           const [15]: (1839670529)
1791  01                 const type 3
1792  099ABE4C           const [16]: (1287559689)
1796  01                 const type 3
1797  00971C22           const [17]: (572299008)
179B  03                 const type 3
179C  0000A040           const [18]: (0)
17A0  01                 const type 3
17A1  49783AF2           const [19]: (-231049143)
17A5  01                 const type 3
17A6  0FDFB740           const [20]: (1085792015)
17AA  01                 const type 3
17AB  F125011A           const [21]: (436282865)
17AF  01                 const type 3
17B0  81624F1E           const [22]: (508519041)
17B4  04                 const type 4
17B5  07                 string size (7)
17B6  456E67696E6500     "Engine\0"
                         const [23]: "Engine"
17BD  04                 const type 4
17BE  07                 string size (7)
17BF  4558494D555300     "EXIMUS\0"
                         const [24]: "EXIMUS"
17C6  01                 const type 3
17C7  919C199E           const [25]: (-1642488687)
17CB  01                 const type 3
17CC  24939581           const [26]: (-2120903900)
                         * functions:
17D0  00                 sizep (0)
                         * lines:
17D2  01                 sizelineinfo (180)
                         [pc] (line)
17D3  D2                 [001] (-46)
17D4  00                 [002] (-46)
17D5  00                 [003] (-46)
17D6  00                 [004] (-46)
17D7  D2                 [005] (-46)
17D8  00                 [006] (-45)
17D9  00                 [007] (-45)
17DA  00                 [008] (-45)
17DB  D2                 [009] (-44)
17DC  00                 [010] (-41)
17DD  00                 [011] (-41)
17DE  00                 [012] (-40)
17DF  D2                 [013] (-40)
17E0  00                 [014] (-40)
17E1  00                 [015] (-40)
17E2  00                 [016] (-40)
17E3  D2                 [017] (-38)
17E4  00                 [018] (-38)
17E5  00                 [019] (-38)
17E6  00                 [020] (-37)
17E7  D3                 [021] (-34)
17E8  00                 [022] (-34)
17E9  00                 [023] (-33)
17EA  00                 [024] (-33)
17EB  D3                 [025] (-33)
17EC  00                 [026] (-33)
17ED  00                 [027] (-33)
17EE  00                 [028] (-32)
17EF  D3                 [029] (-29)
17F0  00                 [030] (-29)
17F1  00                 [031] (-29)
17F2  00                 [032] (-28)
17F3  D4                 [033] (-28)
17F4  00                 [034] (-26)
17F5  00                 [035] (-26)
17F6  00                 [036] (-25)
17F7  D7                 [037] (-25)
17F8  00                 [038] (-24)
17F9  00                 [039] (-24)
17FA  00                 [040] (-23)
17FB  D7                 [041] (-23)
17FC  00                 [042] (-23)
17FD  00                 [043] (-23)
17FE  00                 [044] (-19)
17FF  D8                 [045] (-19)
1800  00                 [046] (-18)
1801  00                 [047] (-18)
1802  00                 [048] (-18)
1803  D8                 [049] (-18)
1804  00                 [050] (-18)
1805  00                 [051] (-15)
1806  00                 [052] (-15)
1807  D8                 [053] (-14)
1808  00                 [054] (-14)
1809  00                 [055] (-14)
180A  00                 [056] (-14)
180B  D8                 [057] (-11)
180C  00                 [058] (-11)
180D  00                 [059] (-11)
180E  00                 [060] (-11)
180F  D8                 [061] (-11)
1810  00                 [062] (-11)
1811  00                 [063] (-9)
1812  00                 [064] (-7)
1813  DA                 [065] (-7)
1814  00                 [066] (-6)
1815  00                 [067] (-5)
1816  00                 [068] (-5)
1817  DA                 [069] (-5)
1818  00                 [070] (-5)
1819  00                 [071] (-5)
181A  00                 [072] (-4)
181B  DA                 [073] (-4)
181C  00                 [074] (-4)
181D  00                 [075] (-3)
181E  00                 [076] (-3)
181F  DB                 [077] (-2)
1820  00                 [078] (-2)
1821  00                 [079] (-2)
1822  00                 [080] (-2)
1823  DE                 [081] (-2)
1824  00                 [082] (-2)
1825  00                 [083] (-2)
1826  00                 [084] (-2)
1827  DE                 [085] (-2)
1828  00                 [086] (-2)
1829  00                 [087] (-1)
182A  00                 [088] (-1)
182B  DF                 [089] (-1)
182C  00                 [090] (-1)
182D  00                 [091] (-1)
182E  00                 [092] (1)
182F  DF                 [093] (1)
1830  00                 [094] (1)
1831  00                 [095] (4)
1832  00                 [096] (4)
1833  DF                 [097] (5)
1834  00                 [098] (5)
1835  00                 [099] (5)
1836  00                 [100] (8)
1837  DF                 [101] (9)
1838  00                 [102] (9)
1839  00                 [103] (9)
183A  00                 [104] (9)
183B  DF                 [105] (9)
183C  00                 [106] (10)
183D  00                 [107] (10)
183E  00                 [108] (11)
183F  E0                 [109] (11)
1840  00                 [110] (11)
1841  00                 [111] (11)
1842  00                 [112] (11)
1843  E3                 [113] (11)
1844  00                 [114] (11)
1845  00                 [115] (11)
1846  00                 [116] (11)
1847  E3                 [117] (11)
1848  00                 [118] (11)
1849  00                 [119] (11)
184A  00                 [120] (11)
184B  E3                 [121] (11)
184C  00                 [122] (13)
184D  00                 [123] (13)
184E  00                 [124] (13)
184F  E4                 [125] (13)
1850  00                 [126] (13)
1851  00                 [127] (13)
1852  00                 [128] (13)
1853  E4                 [129] (13)
1854  00                 [130] (13)
1855  00                 [131] (13)
1856  00                 [132] (14)
1857  E6                 [133] (16)
1858  00                 [134] (16)
1859  00                 [135] (17)
185A  00                 [136] (17)
185B  E6                 [137] (17)
185C  00                 [138] (17)
185D  00                 [139] (17)
185E  00                 [140] (17)
185F  E7                 [141] (17)
1860  00                 [142] (17)
1861  00                 [143] (17)
1862  00                 [144] (17)
1863  E7                 [145] (17)
1864  00                 [146] (19)
1865  00                 [147] (19)
1866  00                 [148] (19)
1867  E8                 [149] (19)
1868  00                 [150] (19)
1869  00                 [151] (19)
186A  00                 [152] (19)
186B  E8                 [153] (23)
186C  00                 [154] (23)
186D  00                 [155] (25)
186E  00                 [156] (25)
186F  E9                 [157] (25)
1870  00                 [158] (25)
1871  00                 [159] (25)
1872  00                 [160] (26)
1873  E9                 [161] (26)
1874  00                 [162] (26)
1875  00                 [163] (27)
1876  00                 [164] (27)
1877  E9                 [165] (27)
1878  00                 [166] (27)
1879  00                 [167] (27)
187A  00                 [168] (27)
187B  E9                 [169] (27)
187C  00                 [170] (27)
187D  00                 [171] (27)
187E  00                 [172] (29)
187F  ED                 [173] (29)
1880  00                 [174] (29)
1881  00                 [175] (29)
1882  00                 [176] (29)
1883  ED                 [177] (29)
1884  00                 [178] (29)
1885  00                 [179] (33)
1886  00                 [180] (34)
                         * locals:
1AA3  00                 sizelocvars (0)
                         * upvalues:
1AA4  00                 sizeupvalues (0)
                         ** end of function **

                         
1AA5                     ** function [10] definition (level 2)
                         ** start of function **
1AA5  00                 string size (0)
                         source name: (none)
1AA7  02                 line defined (292)
1AA8  93                 last line defined (403)
1AA9  03                 nups (1)
1AAA  01                 numparams (6)
1AAB  06                 is_vararg (0)
1AAC  00                 maxstacksize (28)
                         * code:
1AAF  01                 sizecode (197)
1AB0  9D010000           [001] getglobal  6   0        ; 1074689893
1AB4  D2010002           [002] move       7   4      
1AB8  A2810001           [003] call       6   2   2  
fail op	9
1ABC  89010003           [004] settable   6   6   0  
1AC0  D9410000           [005] loadk      7   1        ; 0
1AC4  17028000           [006] loadbool   8   1   0    ; true
1AC8  59820000           [007] loadk      9   2        ; 0
1ACC  86020005           [008] loadnil    10  10     
1AD0  DD020000           [009] getglobal  11  0        ; 1074689893
1AD4  12038000           [010] move       12  1      
1AD8  E2820001           [011] call       11  2   2  
1ADC  D8420000           [012] test       11      1    ; to [14] if false
1AE0  1A400180           [013] jmp        6            ; to [20]
1AE4  E4C2C000           [014] self       11  1   259  ; -2135866365
1AE8  E2820001           [015] call       11  2   2  
1AEC  E402C105           [016] self       11  11  260  ; 1511086594
1AF0  E2820001           [017] call       11  2   2  
1AF4  D8020000           [018] test       11      0    ; to [20] if true
1AF8  1A000280           [019] jmp        9            ; to [29]
1AFC  D3020000           [020] getupval   11  0      
1B00  19430100           [021] loadk      12  5        ; "persistent enemy was killed!"
1B04  E2420001           [022] call       11  2   1  
1B08  D2028002           [023] move       11  5      
1B0C  12038000           [024] move       12  1      
1B10  4E834100           [025] gettable   13  0   262  ; "MONITOR_EVENTS"
1B14  4EC3C106           [026] gettable   13  13  263  ; "ENEMY_KILLED"
1B18  E2428001           [027] call       11  3   1  
1B1C  1E008000           [028] return     0   1      
1B20  E4C2C000           [029] self       11  1   259  ; -2135866365
1B24  E2820001           [030] call       11  2   2  
1B28  1D030000           [031] getglobal  12  0        ; 1074689893
1B2C  52038005           [032] move       13  11     
1B30  22830001           [033] call       12  2   2  
1B34  18030000           [034] test       12      0    ; to [36] if true
1B38  1AC00080           [035] jmp        4            ; to [40]
1B3C  13030000           [036] getupval   12  0      
1B40  59030200           [037] loadk      13  8        ; "persistent enemy avatar is gone!"
1B44  22430001           [038] call       12  2   1  
1B48  1E008000           [039] return     0   1      
1B4C  2443C205           [040] self       12  11  265  ; 796523475
1B50  22830001           [041] call       12  2   2  
fail op	33
1B54  21C00006           [042] tforloop   0       3    ; to [44] if exit
1B58  1A000280           [043] jmp        9            ; to [53]
1B5C  53030000           [044] getupval   13  0      
1B60  99830200           [045] loadk      14  10       ; "persistent enemy took enough damage to flee"
1B64  62430001           [046] call       13  2   1  
1B68  52038002           [047] move       13  5      
1B6C  92038000           [048] move       14  1      
1B70  CE834100           [049] gettable   15  0   262  ; "MONITOR_EVENTS"
1B74  CEC3C207           [050] gettable   15  15  267  ; "ENEMY_FLEE"
1B78  62438001           [051] call       13  3   1  
1B7C  1E008000           [052] return     0   1      
fail op	35
1B80  63004301           [053] close      1  
1B84  1A400380           [054] jmp        14           ; to [69]
1B88  5D430300           [055] getglobal  13  13       ; 1289681407
1B8C  62838000           [056] call       13  1   2  
1B90  8D400301           [057] sub        2   2   13 
fail op	33
1B94  21804301           [058] tforloop   0       270  ; to [60] if exit
1B98  1A000280           [059] jmp        9            ; to [69]
1B9C  53030000           [060] getupval   13  0      
1BA0  99C30300           [061] loadk      14  15       ; "persistent enemy time up. leaving."
1BA4  62430001           [062] call       13  2   1  
1BA8  52038002           [063] move       13  5      
1BAC  92038000           [064] move       14  1      
1BB0  CE834100           [065] gettable   15  0   262  ; "MONITOR_EVENTS"
1BB4  CE03C407           [066] gettable   15  15  272  ; "ENEMY_BORED"
1BB8  62438001           [067] call       13  3   1  
1BBC  1E008000           [068] return     0   1      
1BC0  86020005           [069] loadnil    10  10     
1BC4  5D030000           [070] getglobal  13  0        ; 1074689893
1BC8  9D430400           [071] getglobal  14  17       ; _T
1BCC  8E834407           [072] gettable   14  14  274  ; "StalkerTargetPlayer"
1BD0  62830001           [073] call       13  2   2  
1BD4  58430000           [074] test       13      1    ; to [76] if false
1BD8  1A000180           [075] jmp        5            ; to [81]
1BDC  5D430400           [076] getglobal  13  17       ; _T
1BE0  4E83C406           [077] gettable   13  13  274  ; "StalkerTargetPlayer"
1BE4  64C3C006           [078] self       13  13  259  ; -2135866365
1BE8  62830001           [079] call       13  2   2  
1BEC  92028006           [080] move       10  13     
1BF0  64C3C405           [081] self       13  11  275  ; -1411785325
1BF4  62830001           [082] call       13  2   2  
1BF8  6403C506           [083] self       13  13  276  ; 276435261
1BFC  62830001           [084] call       13  2   2  
1C00  9D030000           [085] getglobal  14  0        ; 1074689893
1C04  CE43C506           [086] gettable   15  13  277  ; "entity"
1C08  A2830001           [087] call       14  2   2  
1C0C  98430000           [088] test       14      1    ; to [90] if false
1C10  1A400080           [089] jmp        2            ; to [92]
1C14  8E83C506           [090] gettable   14  13  278  ; "visible"
1C18  1A400080           [091] jmp        2            ; to [94]
1C1C  97430000           [092] loadbool   14  0   1    ; false, to [94]
1C20  97038000           [093] loadbool   14  1   0    ; true
1C24  98430000           [094] test       14      1    ; to [96] if false
1C28  1A800080           [095] jmp        3            ; to [99]
1C2C  18020000           [096] test       8       0    ; to [98] if true
1C30  1A000080           [097] jmp        1            ; to [99]
1C34  59C20500           [098] loadk      9   23       ; 0
fail op	21
1C38  15400287           [099] concat     0   270 9  
1C3C  1A800080           [100] jmp        3            ; to [104]
1C40  DD430300           [101] getglobal  15  13       ; 1289681407
1C44  E2838000           [102] call       15  1   2  
1C48  4DC28304           [103] sub        9   9   15 
1C4C  12020007           [104] move       8   14     
1C50  98430000           [105] test       14      1    ; to [107] if false
1C54  1A400080           [106] jmp        2            ; to [109]
fail op	21
1C58  5580C304           [107] concat     1   9   270
1C5C  1A000380           [108] jmp        13           ; to [122]
1C60  DD030000           [109] getglobal  15  0        ; 1074689893
1C64  12040005           [110] move       16  10     
1C68  E2830001           [111] call       15  2   2  
1C6C  D8430000           [112] test       15      1    ; to [114] if false
1C70  1AC00180           [113] jmp        8            ; to [122]
1C74  E4034105           [114] self       15  10  260  ; 1511086594
1C78  E2830001           [115] call       15  2   2  
1C7C  D8430000           [116] test       15      1    ; to [118] if false
1C80  1AC00080           [117] jmp        4            ; to [122]
1C84  E4034605           [118] self       15  10  280  ; -1519595333
1C88  E2830001           [119] call       15  2   2  
1C8C  D8030000           [120] test       15      0    ; to [122] if true
1C90  1A800E80           [121] jmp        59           ; to [181]
1C94  D7030000           [122] loadbool   15  0   0    ; false
1C98  1D440600           [123] getglobal  16  25       ; gRegion
1C9C  24844608           [124] self       16  16  282  ; 1224466847
1CA0  22840001           [125] call       16  2   2  
1CA4  4A040008           [126] len        17  16     
1CA8  9DC40600           [127] getglobal  18  27       ; 2144646525
1CAC  D9040700           [128] loadk      19  28       ; 0
1CB0  12058008           [129] move       20  17     
1CB4  A2848001           [130] call       18  3   2  
1CB8  D9040700           [131] loadk      19  28       ; 0
1CBC  0A050008           [132] len        20  16     
1CC0  59050700           [133] loadk      21  28       ; 0
1CC4  D0040680           [134] forprep    19  25       ; to [160]
1CC8  CE850408           [135] gettable   23  16  18 
1CCC  24C6C00B           [136] self       24  23  259  ; -2135866365
1CD0  22860001           [137] call       24  2   2  
1CD4  5D060000           [138] getglobal  25  0        ; 1074689893
1CD8  9206000C           [139] move       26  24     
1CDC  62860001           [140] call       25  2   2  
1CE0  58460000           [141] test       25      1    ; to [143] if false
1CE4  1A800380           [142] jmp        15           ; to [158]
1CE8  6406410C           [143] self       25  24  260  ; 1511086594
1CEC  62860001           [144] call       25  2   2  
1CF0  58460000           [145] test       25      1    ; to [147] if false
1CF4  1A800280           [146] jmp        11           ; to [158]
1CF8  6406460C           [147] self       25  24  280  ; -1519595333
1CFC  62860001           [148] call       25  2   2  
1D00  58460000           [149] test       25      1    ; to [151] if false
1D04  1A800180           [150] jmp        7            ; to [158]
1D08  4E46C506           [151] gettable   25  13  277  ; "entity"
fail op	35
1D0C  6340060C           [152] close      1  
1D10  1AC00080           [153] jmp        4            ; to [158]
1D14  5D460400           [154] getglobal  25  17       ; _T
1D18  4CC60589           [155] settable   25  274 23   ; "StalkerTargetPlayer"
1D1C  D7038000           [156] loadbool   15  1   0    ; true
1D20  1A800080           [157] jmp        3            ; to [161]
1D24  5F460409           [158] mod        25  18  17 
1D28  8304C70C           [159] add        18  25  284  ; 0
1D2C  D444F97F           [160] forloop    19  -26      ; to [135] if loop
1D30  D8430000           [161] test       15      1    ; to [163] if false
1D34  1A400480           [162] jmp        18           ; to [181]
1D38  5D060000           [163] getglobal  25  0        ; 1074689893
1D3C  8E46C506           [164] gettable   26  13  277  ; "entity"
1D40  62860001           [165] call       25  2   2  
1D44  58460000           [166] test       25      1    ; to [168] if false
1D48  1AC00080           [167] jmp        4            ; to [172]
1D4C  4E86C506           [168] gettable   25  13  278  ; "visible"
1D50  58460000           [169] test       25      1    ; to [171] if false
1D54  1A000080           [170] jmp        1            ; to [172]
1D58  1A000280           [171] jmp        9            ; to [181]
1D5C  53060000           [172] getupval   25  0      
1D60  99460700           [173] loadk      26  29       ; "persistent enemy wins! leaving."
1D64  62460001           [174] call       25  2   1  
1D68  52068002           [175] move       25  5      
1D6C  92068000           [176] move       26  1      
1D70  CE864100           [177] gettable   27  0   262  ; "MONITOR_EVENTS"
1D74  CE86C70D           [178] gettable   27  27  286  ; "TARGET_GONE"
1D78  62468001           [179] call       25  3   1  
1D7C  1E008000           [180] return     0   1      
1D80  98010000           [181] test       6       0    ; to [183] if true
1D84  1A400280           [182] jmp        10           ; to [193]
fail op	33
1D88  2180C303           [183] tforloop   0       270  ; to [185] if exit
1D8C  1A000180           [184] jmp        5            ; to [190]
1D90  5DC60700           [185] getglobal  25  31       ; -1941280958
1D94  99060800           [186] loadk      26  32       ; 0
1D98  D9460800           [187] loadk      27  33       ; 0
1D9C  62868001           [188] call       25  3   2  
1DA0  D201800C           [189] move       7   25     
1DA4  5D460300           [190] getglobal  25  13       ; 1289681407
1DA8  62868000           [191] call       25  1   2  
1DAC  CD418603           [192] sub        7   7   25 
1DB0  5D860800           [193] getglobal  25  34       ; 538022378
1DB4  99860300           [194] loadk      26  14       ; 0
1DB8  62460001           [195] call       25  2   1  
1DBC  1AC0D07F           [196] jmp        -188         ; to [9]
1DC0  1E008000           [197] return     0   1      
                         * constants:
1DC4  23                 sizek (35)
1DC5  01                 const type 3
1DC6  65770E40           const [0]: (1074689893)
1DCA  03                 const type 3
1DCB  0000F041           const [1]: (0)
1DCF  03                 const type 3
1DD0  000080BF           const [2]: (0)
1DD4  01                 const type 3
1DD5  0344B180           const [3]: (-2135866365)
1DD9  01                 const type 3
1DDA  025A115A           const [4]: (1511086594)
1DDE  04                 const type 4
1DDF  1D                 string size (29)
1DE0  7065727369737465+  "persiste"
1DE8  6E7420656E656D79+  "nt enemy"
1DF0  20776173206B696C+  " was kil"
1DF8  6C65642100         "led!\0"
                         const [5]: "persistent enemy was killed!"
1DFD  04                 const type 4
1DFE  0F                 string size (15)
1DFF  4D4F4E49544F525F+  "MONITOR_"
1E07  4556454E545300     "EVENTS\0"
                         const [6]: "MONITOR_EVENTS"
1E0E  04                 const type 4
1E0F  0D                 string size (13)
1E10  454E454D595F4B49+  "ENEMY_KI"
1E18  4C4C454400         "LLED\0"
                         const [7]: "ENEMY_KILLED"
1E1D  04                 const type 4
1E1E  21                 string size (33)
1E1F  7065727369737465+  "persiste"
1E27  6E7420656E656D79+  "nt enemy"
1E2F  2061766174617220+  " avatar "
1E37  697320676F6E6521+  "is gone!"
1E3F  00                 "\0"
                         const [8]: "persistent enemy avatar is gone!"
1E40  01                 const type 3
1E41  D3FB792F           const [9]: (796523475)
1E45  04                 const type 4
1E46  2C                 string size (44)
1E47  7065727369737465+  "persiste"
1E4F  6E7420656E656D79+  "nt enemy"
1E57  20746F6F6B20656E+  " took en"
1E5F  6F7567682064616D+  "ough dam"
1E67  61676520746F2066+  "age to f"
1E6F  6C656500           "lee\0"
                         const [10]: "persistent enemy took enough damage to flee"
1E73  04                 const type 4
1E74  0B                 string size (11)
1E75  454E454D595F464C+  "ENEMY_FL"
1E7D  454500             "EE\0"
                         const [11]: "ENEMY_FLEE"
1E80  00                 const type 0
                         const [12]: nil
1E81  01                 const type 3
1E82  FFF9DE4C           const [13]: (1289681407)
1E86  03                 const type 3
1E87  00000000           const [14]: (0)
1E8B  04                 const type 4
1E8C  23                 string size (35)
1E8D  7065727369737465+  "persiste"
1E95  6E7420656E656D79+  "nt enemy"
1E9D  2074696D65207570+  " time up"
1EA5  2E206C656176696E+  ". leavin"
1EAD  672E00             "g.\0"
                         const [15]: "persistent enemy time up. leaving."
1EB0  04                 const type 4
1EB1  0C                 string size (12)
1EB2  454E454D595F424F+  "ENEMY_BO"
1EBA  52454400           "RED\0"
                         const [16]: "ENEMY_BORED"
1EBE  04                 const type 4
1EBF  03                 string size (3)
1EC0  5F5400             "_T\0"
                         const [17]: "_T"
1EC3  04                 const type 4
1EC4  14                 string size (20)
1EC5  5374616C6B657254+  "StalkerT"
1ECD  6172676574506C61+  "argetPla"
1ED5  79657200           "yer\0"
                         const [18]: "StalkerTargetPlayer"
1ED9  01                 const type 3
1EDA  93DDD9AB           const [19]: (-1411785325)
1EDE  01                 const type 3
1EDF  3D117A10           const [20]: (276435261)
1EE3  04                 const type 4
1EE4  07                 string size (7)
1EE5  656E7469747900     "entity\0"
                         const [21]: "entity"
1EEC  04                 const type 4
1EED  08                 string size (8)
1EEE  76697369626C6500   "visible\0"
                         const [22]: "visible"
1EF6  03                 const type 3
1EF7  00004040           const [23]: (0)
1EFB  01                 const type 3
1EFC  BBD06CA5           const [24]: (-1519595333)
1F00  04                 const type 4
1F01  08                 string size (8)
1F02  67526567696F6E00   "gRegion\0"
                         const [25]: "gRegion"
1F0A  01                 const type 3
1F0B  9FE1FB48           const [26]: (1224466847)
1F0F  01                 const type 3
1F10  7DB5D47F           const [27]: (2144646525)
1F14  03                 const type 3
1F15  0000803F           const [28]: (0)
1F19  04                 const type 4
1F1A  20                 string size (32)
1F1B  7065727369737465+  "persiste"
1F23  6E7420656E656D79+  "nt enemy"
1F2B  2077696E7321206C+  " wins! l"
1F33  656176696E672E00   "eaving.\0"
                         const [29]: "persistent enemy wins! leaving."
1F3B  04                 const type 4
1F3C  0C                 string size (12)
1F3D  5441524745545F47+  "TARGET_G"
1F45  4F4E4500           "ONE\0"
                         const [30]: "TARGET_GONE"
1F49  01                 const type 3
1F4A  42674A8C           const [31]: (-1941280958)
1F4E  03                 const type 3
1F4F  00002042           const [32]: (0)
1F53  03                 const type 3
1F54  00007042           const [33]: (0)
1F58  01                 const type 3
1F59  EA911120           const [34]: (538022378)
                         * functions:
1F5D  00                 sizep (0)
                         * lines:
1F5F  01                 sizelineinfo (197)
                         [pc] (line)
1F60  26                 [001] (38)
1F61  01                 [002] (38)
1F62  00                 [003] (38)
1F63  00                 [004] (38)
1F64  26                 [005] (39)
1F65  01                 [006] (40)
1F66  00                 [007] (41)
1F67  00                 [008] (43)
1F68  26                 [009] (46)
1F69  01                 [010] (46)
1F6A  00                 [011] (46)
1F6B  00                 [012] (46)
1F6C  26                 [013] (46)
1F6D  01                 [014] (46)
1F6E  00                 [015] (46)
1F6F  00                 [016] (46)
1F70  27                 [017] (46)
1F71  01                 [018] (46)
1F72  00                 [019] (46)
1F73  00                 [020] (47)
1F74  28                 [021] (47)
1F75  01                 [022] (47)
1F76  00                 [023] (57)
1F77  00                 [024] (57)
1F78  29                 [025] (57)
1F79  01                 [026] (57)
1F7A  00                 [027] (57)
1F7B  00                 [028] (58)
1F7C  2B                 [029] (61)
1F7D  01                 [030] (61)
1F7E  00                 [031] (62)
1F7F  00                 [032] (62)
1F80  2E                 [033] (62)
1F81  01                 [034] (62)
1F82  00                 [035] (62)
1F83  00                 [036] (63)
1F84  2E                 [037] (63)
1F85  01                 [038] (63)
1F86  00                 [039] (64)
1F87  00                 [040] (67)
1F88  2E                 [041] (67)
1F89  01                 [042] (68)
1F8A  00                 [043] (68)
1F8B  00                 [044] (70)
1F8C  2E                 [045] (70)
1F8D  01                 [046] (70)
1F8E  00                 [047] (71)
1F8F  00                 [048] (71)
1F90  2E                 [049] (71)
1F91  01                 [050] (71)
1F92  00                 [051] (71)
1F93  00                 [052] (73)
1F94  2E                 [053] (76)
1F95  01                 [054] (76)
1F96  00                 [055] (77)
1F97  00                 [056] (77)
1F98  2E                 [057] (77)
1F99  01                 [058] (78)
1F9A  00                 [059] (78)
1F9B  00                 [060] (80)
1F9C  2E                 [061] (80)
1F9D  01                 [062] (80)
1F9E  00                 [063] (82)
1F9F  00                 [064] (82)
1FA0  2E                 [065] (82)
1FA1  01                 [066] (82)
1FA2  00                 [067] (82)
1FA3  00                 [068] (83)
1FA4  2E                 [069] (88)
1FA5  01                 [070] (89)
1FA6  00                 [071] (89)
1FA7  00                 [072] (89)
1FA8  2E                 [073] (89)
1FA9  01                 [074] (89)
1FAA  00                 [075] (89)
1FAB  00                 [076] (90)
1FAC  2F                 [077] (90)
1FAD  01                 [078] (90)
1FAE  00                 [079] (90)
1FAF  00                 [080] (90)
1FB0  2F                 [081] (93)
1FB1  01                 [082] (93)
1FB2  00                 [083] (93)
1FB3  00                 [084] (93)
1FB4  2F                 [085] (94)
1FB5  01                 [086] (94)
1FB6  00                 [087] (94)
1FB7  00                 [088] (94)
1FB8  39                 [089] (94)
1FB9  01                 [090] (94)
1FBA  00                 [091] (94)
1FBB  00                 [092] (94)
1FBC  39                 [093] (94)
1FBD  01                 [094] (95)
1FBE  00                 [095] (95)
1FBF  00                 [096] (95)
1FC0  39                 [097] (95)
1FC1  01                 [098] (96)
1FC2  00                 [099] (99)
1FC3  00                 [100] (99)
1FC4  39                 [101] (100)
1FC5  01                 [102] (100)
1FC6  00                 [103] (100)
1FC7  00                 [104] (103)
1FC8  39                 [105] (105)
1FC9  01                 [106] (105)
1FCA  00                 [107] (105)
1FCB  00                 [108] (105)
1FCC  3A                 [109] (105)
1FCD  01                 [110] (105)
1FCE  00                 [111] (105)
1FCF  00                 [112] (105)
1FD0  3D                 [113] (105)
1FD1  01                 [114] (105)
1FD2  00                 [115] (105)
1FD3  00                 [116] (105)
1FD4  3D                 [117] (105)
1FD5  01                 [118] (105)
1FD6  00                 [119] (105)
1FD7  00                 [120] (105)
1FD8  3E                 [121] (105)
1FD9  01                 [122] (107)
1FDA  00                 [123] (108)
1FDB  00                 [124] (108)
1FDC  3E                 [125] (108)
1FDD  01                 [126] (109)
1FDE  00                 [127] (110)
1FDF  00                 [128] (110)
1FE0  3E                 [129] (110)
1FE1  01                 [130] (110)
1FE2  00                 [131] (111)
1FE3  00                 [132] (111)
1FE4  3E                 [133] (111)
1FE5  01                 [134] (111)
1FE6  00                 [135] (112)
1FE7  00                 [136] (113)
1FE8  3E                 [137] (113)
1FE9  01                 [138] (114)
1FEA  00                 [139] (114)
1FEB  00                 [140] (114)
1FEC  3F                 [141] (114)
1FED  01                 [142] (114)
1FEE  00                 [143] (114)
1FEF  00                 [144] (114)
1FF0  3F                 [145] (114)
1FF1  01                 [146] (114)
1FF2  00                 [147] (114)
1FF3  00                 [148] (114)
1FF4  3F                 [149] (114)
1FF5  01                 [150] (114)
1FF6  00                 [151] (114)
1FF7  00                 [152] (114)
1FF8  40                 [153] (114)
1FF9  01                 [154] (115)
1FFA  00                 [155] (115)
1FFB  00                 [156] (116)
1FFC  43                 [157] (118)
1FFD  01                 [158] (120)
1FFE  00                 [159] (120)
1FFF  00                 [160] (111)
2000  43                 [161] (123)
2001  01                 [162] (123)
2002  00                 [163] (125)
2003  00                 [164] (125)
2004  44                 [165] (125)
2005  01                 [166] (125)
2006  00                 [167] (125)
2007  00                 [168] (125)
2008  44                 [169] (125)
2009  01                 [170] (125)
200A  00                 [171] (125)
200B  00                 [172] (-128)
200C  46                 [173] (-128)
200D  01                 [174] (-128)
200E  00                 [175] (-126)
200F  00                 [176] (-126)
2010  46                 [177] (-126)
2011  01                 [178] (-126)
2012  00                 [179] (-126)
2013  00                 [180] (-125)
2014  46                 [181] (-120)
2015  01                 [182] (-120)
2016  00                 [183] (-119)
2017  00                 [184] (-119)
2018  47                 [185] (-117)
2019  01                 [186] (-117)
201A  00                 [187] (-117)
201B  00                 [188] (-117)
201C  47                 [189] (-117)
201D  01                 [190] (-114)
201E  00                 [191] (-114)
201F  00                 [192] (-114)
2020  47                 [193] (-111)
2021  01                 [194] (-111)
2022  00                 [195] (-111)
2023  00                 [196] (-111)
2024  47                 [197] (-109)
                         * locals:
2274  00                 sizelocvars (0)
                         * upvalues:
2275  00                 sizeupvalues (0)
                         ** end of function **

                         
2276                     ** function [11] definition (level 2)
                         ** start of function **
2276  00                 string size (0)
                         source name: (none)
2278  03                 line defined (405)
2279  9B                 last line defined (411)
227A  03                 nups (0)
227B  00                 numparams (3)
227C  03                 is_vararg (0)
227D  00                 maxstacksize (6)
                         * code:
227F  2F                 sizecode (47)
2280  DD000000           [01] getglobal  3   0        ; 1074689893
2284  12010000           [02] move       4   0      
2288  E2800001           [03] call       3   2   2  
228C  D8400000           [04] test       3       1    ; to [6] if false
2290  1A800980           [05] jmp        39           ; to [45]
2294  DD400000           [06] getglobal  3   1        ; Lotus_Game
2298  CE80C001           [07] gettable   3   3   258  ; "MT_MASTERY"
fail op	35
229C  63C00001           [08] close      1  
22A0  1A000880           [09] jmp        33           ; to [43]
22A4  DD400000           [10] getglobal  3   1        ; Lotus_Game
22A8  CEC0C001           [11] gettable   3   3   259  ; "MT_ARENA"
fail op	35
22AC  63C00001           [12] close      1  
22B0  1A000780           [13] jmp        29           ; to [43]
22B4  DD400000           [14] getglobal  3   1        ; Lotus_Game
22B8  CE00C101           [15] gettable   3   3   260  ; "MT_LANDSCAPE"
fail op	35
22BC  63C00001           [16] close      1  
22C0  1A000680           [17] jmp        25           ; to [43]
22C4  DD400100           [18] getglobal  3   5        ; string
22C8  CE80C101           [19] gettable   3   3   262  ; -565905820
22CC  24C14100           [20] self       4   0   263  ; 455421500
22D0  22810001           [21] call       4   2   2  
22D4  59010200           [22] loadk      5   8        ; "Dojo"
22D8  E2808001           [23] call       3   3   2  
fail op	35
22DC  2340C201           [24] close      0  
22E0  1A000480           [25] jmp        17           ; to [43]
22E4  DD400100           [26] getglobal  3   5        ; string
22E8  CE80C101           [27] gettable   3   3   262  ; -565905820
22EC  24C14100           [28] self       4   0   263  ; 455421500
22F0  22810001           [29] call       4   2   2  
22F4  59810200           [30] loadk      5   10       ; "Harvester"
22F8  E2808001           [31] call       3   3   2  
fail op	35
22FC  2340C201           [32] close      0  
2300  1A000280           [33] jmp        9            ; to [43]
2304  CEC0C200           [34] gettable   3   1   267  ; "archwingRequired"
2308  D8400000           [35] test       3       1    ; to [37] if false
230C  1A400180           [36] jmp        6            ; to [43]
2310  CE00C300           [37] gettable   3   1   268  ; "syndicateId"
fail op	35
2314  2340C301           [38] close      0  
2318  1A800080           [39] jmp        3            ; to [43]
231C  CE80C300           [40] gettable   3   1   270  ; "maxPlayersOverride"
fail op	21
2320  15C08087           [41] concat     0   271 3  
2324  1A400080           [42] jmp        2            ; to [45]
2328  D7000000           [43] loadbool   3   0   0    ; false
232C  DE000001           [44] return     3   2      
2330  D7008000           [45] loadbool   3   1   0    ; true
2334  DE000001           [46] return     3   2      
2338  1E008000           [47] return     0   1      
                         * constants:
233C  10                 sizek (16)
233D  01                 const type 3
233E  65770E40           const [0]: (1074689893)
2342  04                 const type 4
2343  0B                 string size (11)
2344  4C6F7475735F4761+  "Lotus_Ga"
234C  6D6500             "me\0"
                         const [1]: "Lotus_Game"
234F  04                 const type 4
2350  0B                 string size (11)
2351  4D545F4D41535445+  "MT_MASTE"
2359  525900             "RY\0"
                         const [2]: "MT_MASTERY"
235C  04                 const type 4
235D  09                 string size (9)
235E  4D545F4152454E41+  "MT_ARENA"
2366  00                 "\0"
                         const [3]: "MT_ARENA"
2367  04                 const type 4
2368  0D                 string size (13)
2369  4D545F4C414E4453+  "MT_LANDS"
2371  4341504500         "CAPE\0"
                         const [4]: "MT_LANDSCAPE"
2376  04                 const type 4
2377  07                 string size (7)
2378  737472696E6700     "string\0"
                         const [5]: "string"
237F  01                 const type 3
2380  64F644DE           const [6]: (-565905820)
2384  01                 const type 3
2385  3C2E251B           const [7]: (455421500)
2389  04                 const type 4
238A  05                 string size (5)
238B  446F6A6F00         "Dojo\0"
                         const [8]: "Dojo"
2390  00                 const type 0
                         const [9]: nil
2391  04                 const type 4
2392  0A                 string size (10)
2393  4861727665737465+  "Harveste"
239B  7200               "r\0"
                         const [10]: "Harvester"
239D  04                 const type 4
239E  11                 string size (17)
239F  6172636877696E67+  "archwing"
23A7  5265717569726564+  "Required"
23AF  00                 "\0"
                         const [11]: "archwingRequired"
23B0  04                 const type 4
23B1  0C                 string size (12)
23B2  73796E6469636174+  "syndicat"
23BA  65496400           "eId\0"
                         const [12]: "syndicateId"
23BE  04                 const type 4
23BF  01                 string size (0)
                         const [13]: ""
23C1  04                 const type 4
23C2  13                 string size (19)
23C3  6D6178506C617965+  "maxPlaye"
23CB  72734F7665727269+  "rsOverri"
23D3  646500             "de\0"
                         const [14]: "maxPlayersOverride"
23D6  03                 const type 3
23D7  00008040           const [15]: (0)
                         * functions:
23DB  00                 sizep (0)
                         * lines:
23DC  2F                 sizelineinfo (47)
                         [pc] (line)
23DD  96                 [01] (-106)
23DE  01                 [02] (-106)
23DF  00                 [03] (-106)
23E0  00                 [04] (-106)
23E1  96                 [05] (-106)
23E2  01                 [06] (-106)
23E3  00                 [07] (-106)
23E4  00                 [08] (-106)
23E5  96                 [09] (-106)
23E6  01                 [10] (-106)
23E7  00                 [11] (-106)
23E8  00                 [12] (-106)
23E9  96                 [13] (-106)
23EA  01                 [14] (-106)
23EB  00                 [15] (-106)
23EC  00                 [16] (-106)
23ED  96                 [17] (-106)
23EE  01                 [18] (-106)
23EF  00                 [19] (-106)
23F0  00                 [20] (-106)
23F1  96                 [21] (-106)
23F2  01                 [22] (-106)
23F3  00                 [23] (-106)
23F4  00                 [24] (-106)
23F5  96                 [25] (-106)
23F6  01                 [26] (-106)
23F7  00                 [27] (-106)
23F8  00                 [28] (-106)
23F9  96                 [29] (-106)
23FA  01                 [30] (-106)
23FB  00                 [31] (-106)
23FC  00                 [32] (-106)
23FD  96                 [33] (-106)
23FE  01                 [34] (-106)
23FF  00                 [35] (-106)
2400  00                 [36] (-106)
2401  96                 [37] (-106)
2402  01                 [38] (-106)
2403  00                 [39] (-106)
2404  00                 [40] (-106)
2405  96                 [41] (-106)
2406  01                 [42] (-106)
2407  00                 [43] (-104)
2408  00                 [44] (-104)
2409  96                 [45] (-102)
240A  01                 [46] (-102)
240B  00                 [47] (-101)
                         * locals:
2499  00                 sizelocvars (0)
                         * upvalues:
249A  00                 sizeupvalues (0)
                         ** end of function **

                         
249B                     ** function [12] definition (level 2)
                         ** start of function **
249B  00                 string size (0)
                         source name: (none)
249D  03                 line defined (413)
249E  AF                 last line defined (431)
249F  03                 nups (2)
24A0  02                 numparams (1)
24A1  01                 is_vararg (0)
24A2  00                 maxstacksize (6)
                         * code:
24A4  25                 sizecode (37)
24A5  5D000000           [01] getglobal  1   0        ; -1442191459
24A9  93000000           [02] getupval   2   0      
24AD  62800001           [03] call       1   2   2  
fail op	35
24B1  6340C000           [04] close      1  
24B5  1A000080           [05] jmp        1            ; to [7]
24B9  57400000           [06] loadbool   1   0   1    ; false, to [8]
24BD  57008000           [07] loadbool   1   1   0    ; true
24C1  99800000           [08] loadk      2   2        ; 0
24C5  D3000000           [09] getupval   3   0      
24C9  CE808001           [10] gettable   3   3   2  
fail op	35
24CD  6340C001           [11] close      1  
24D1  1A400080           [12] jmp        2            ; to [15]
24D5  83804001           [13] add        2   2   258  ; 0
24D9  1A40FE7F           [14] jmp        -6           ; to [9]
24DD  DDC00000           [15] getglobal  3   3        ; table
24E1  CE00C101           [16] gettable   3   3   260  ; -431682403
24E5  13010000           [17] getupval   4   0      
24E9  4B410000           [18] newtable   5   0   1    ; array=0, hash=1
24ED  4C818082           [19] settable   5   261 2    ; "id"
24F1  E2408001           [20] call       3   3   1  
24F5  58400000           [21] test       1       1    ; to [23] if false
24F9  1AC00280           [22] jmp        12           ; to [35]
24FD  D3008000           [23] getupval   3   1      
2501  CC804101           [24] settable   3   2   262  ; 1
2505  D3008000           [25] getupval   3   1      
2509  CE808001           [26] gettable   3   3   2  
250D  D8000000           [27] test       3       0    ; to [29] if true
2511  1AC00080           [28] jmp        4            ; to [33]
2515  DDC00100           [29] getglobal  3   7        ; 538022378
2519  19810000           [30] loadk      4   2        ; 0
251D  E2400001           [31] call       3   2   1  
2521  1AC0FD7F           [32] jmp        -8           ; to [25]
2525  D3008000           [33] getupval   3   1      
2529  CC404001           [34] settable   3   2   257  ; nil
252D  D7008000           [35] loadbool   3   1   0    ; true
2531  DE000001           [36] return     3   2      
2535  1E008000           [37] return     0   1      
                         * constants:
2539  08                 sizek (8)
253A  01                 const type 3
253B  9DE709AA           const [0]: (-1442191459)
253F  00                 const type 0
                         const [1]: nil
2540  03                 const type 3
2541  0000803F           const [2]: (0)
2545  04                 const type 4
2546  06                 string size (6)
2547  7461626C6500       "table\0"
                         const [3]: "table"
254D  01                 const type 3
254E  9D0C45E6           const [4]: (-431682403)
2552  04                 const type 4
2553  03                 string size (3)
2554  696400             "id\0"
                         const [5]: "id"
2557  01                 const type 3
2558  01000000           const [6]: (1)
255C  01                 const type 3
255D  EA911120           const [7]: (538022378)
                         * functions:
2561  00                 sizep (0)
                         * lines:
2562  25                 sizelineinfo (37)
                         [pc] (line)
2563  9E                 [01] (-98)
2564  01                 [02] (-98)
2565  00                 [03] (-98)
2566  00                 [04] (-98)
2567  9E                 [05] (-98)
2568  01                 [06] (-98)
2569  00                 [07] (-98)
256A  00                 [08] (-96)
256B  9E                 [09] (-95)
256C  01                 [10] (-95)
256D  00                 [11] (-95)
256E  00                 [12] (-95)
256F  9E                 [13] (-94)
2570  01                 [14] (-94)
2571  00                 [15] (-91)
2572  00                 [16] (-91)
2573  9E                 [17] (-91)
2574  01                 [18] (-91)
2575  00                 [19] (-91)
2576  00                 [20] (-91)
2577  9E                 [21] (-89)
2578  01                 [22] (-89)
2579  00                 [23] (-88)
257A  00                 [24] (-88)
257B  9E                 [25] (-87)
257C  01                 [26] (-87)
257D  00                 [27] (-87)
257E  00                 [28] (-87)
257F  A0                 [29] (-86)
2580  01                 [30] (-86)
2581  00                 [31] (-86)
2582  00                 [32] (-86)
2583  A1                 [33] (-84)
2584  01                 [34] (-84)
2585  00                 [35] (-82)
2586  00                 [36] (-82)
2587  A1                 [37] (-81)
                         * locals:
25F7  00                 sizelocvars (0)
                         * upvalues:
25F8  00                 sizeupvalues (0)
                         ** end of function **

                         
25F9                     ** function [13] definition (level 2)
                         ** start of function **
25F9  00                 string size (0)
                         source name: (none)
25FB  03                 line defined (433)
25FC  B7                 last line defined (439)
25FD  03                 nups (2)
25FE  02                 numparams (0)
25FF  00                 is_vararg (0)
2600  00                 maxstacksize (4)
                         * code:
2602  0E                 sizecode (14)
2603  1D000000           [01] getglobal  0   0        ; table
2607  0E404000           [02] gettable   0   0   257  ; -843973282
260B  53000000           [03] getupval   1   0      
260F  99800000           [04] loadk      2   2        ; 0
2613  22408001           [05] call       0   3   1  
2617  1DC00000           [06] getglobal  0   3        ; -1442191459
261B  53000000           [07] getupval   1   0      
261F  22C00001           [08] call       0   2   3  
2623  18000000           [09] test       0       0    ; to [11] if true
2627  1A800080           [10] jmp        3            ; to [14]
262B  93008000           [11] getupval   2   1      
262F  CE00C100           [12] gettable   3   1   260  ; "id"
2633  8C40C101           [13] settable   2   3   261  ; 0
2637  1E008000           [14] return     0   1      
                         * constants:
263B  06                 sizek (6)
263C  04                 const type 4
263D  06                 string size (6)
263E  7461626C6500       "table\0"
                         const [0]: "table"
2644  01                 const type 3
2645  5EFDB1CD           const [1]: (-843973282)
2649  03                 const type 3
264A  0000803F           const [2]: (0)
264E  01                 const type 3
264F  9DE709AA           const [3]: (-1442191459)
2653  04                 const type 4
2654  03                 string size (3)
2655  696400             "id\0"
                         const [4]: "id"
2658  01                 const type 3
2659  00000000           const [5]: (0)
                         * functions:
265D  00                 sizep (0)
                         * lines:
265E  0E                 sizelineinfo (14)
                         [pc] (line)
265F  B2                 [01] (-78)
2660  01                 [02] (-78)
2661  00                 [03] (-78)
2662  00                 [04] (-78)
2663  B2                 [05] (-78)
2664  01                 [06] (-77)
2665  00                 [07] (-77)
2666  00                 [08] (-77)
2667  B2                 [09] (-76)
2668  01                 [10] (-76)
2669  00                 [11] (-75)
266A  00                 [12] (-75)
266B  B2                 [13] (-75)
266C  01                 [14] (-73)
                         * locals:
2697  00                 sizelocvars (0)
                         * upvalues:
2698  00                 sizeupvalues (0)
                         ** end of function **

                         
2699                     ** function [14] definition (level 2)
                         ** start of function **
2699  00                 string size (0)
                         source name: (none)
269B  03                 line defined (441)
269C  BC                 last line defined (444)
269D  03                 nups (2)
269E  02                 numparams (0)
269F  00                 is_vararg (0)
26A0  00                 maxstacksize (2)
                         * code:
26A2  05                 sizecode (5)
26A3  0B000000           [1] newtable   0   0   0    ; array=0, hash=0
fail op	8
26A7  08000000           [2] setupval   0   0      
26AB  0B000000           [3] newtable   0   0   0    ; array=0, hash=0
fail op	8
26AF  08008000           [4] setupval   0   1      
26B3  1E008000           [5] return     0   1      
                         * constants:
26B7  00                 sizek (0)
                         * functions:
26B8  00                 sizep (0)
                         * lines:
26B9  05                 sizelineinfo (5)
                         [pc] (line)
26BA  BA                 [1] (-70)
26BB  01                 [2] (-70)
26BC  00                 [3] (-69)
26BD  00                 [4] (-69)
26BE  BA                 [5] (-68)
                         * locals:
26CE  00                 sizelocvars (0)
                         * upvalues:
26CF  00                 sizeupvalues (0)
                         ** end of function **

                         * lines:
26D0  62                 sizelineinfo (98)
                         [pc] (line)
26D1  01                 [01] (1)
26D2  00                 [02] (1)
26D3  00                 [03] (1)
26D4  00                 [04] (1)
26D5  01                 [05] (1)
26D6  00                 [06] (1)
26D7  00                 [07] (1)
26D8  00                 [08] (1)
26D9  01                 [09] (1)
26DA  00                 [10] (1)
26DB  00                 [11] (1)
26DC  00                 [12] (1)
26DD  01                 [13] (1)
26DE  00                 [14] (1)
26DF  00                 [15] (1)
26E0  00                 [16] (1)
26E1  01                 [17] (1)
26E2  00                 [18] (1)
26E3  00                 [19] (1)
26E4  00                 [20] (1)
26E5  01                 [21] (1)
26E6  00                 [22] (1)
26E7  00                 [23] (1)
26E8  00                 [24] (1)
26E9  01                 [25] (1)
26EA  00                 [26] (1)
26EB  00                 [27] (1)
26EC  00                 [28] (1)
26ED  01                 [29] (1)
26EE  00                 [30] (1)
26EF  00                 [31] (1)
26F0  00                 [32] (1)
26F1  01                 [33] (2)
26F2  00                 [34] (2)
26F3  00                 [35] (2)
26F4  00                 [36] (3)
26F5  01                 [37] (3)
26F6  00                 [38] (3)
26F7  00                 [39] (4)
26F8  00                 [40] (5)
26F9  01                 [41] (11)
26FA  00                 [42] (71)
26FB  00                 [43] (96)
26FC  00                 [44] (96)
26FD  01                 [45] (113)
26FE  00                 [46] (-119)
26FF  00                 [47] (-119)
2700  00                 [48] (-119)
2701  01                 [49] (-79)
2702  00                 [50] (-79)
2703  00                 [51] (-79)
2704  00                 [52] (-79)
2705  01                 [53] (-76)
2706  00                 [54] (-76)
2707  00                 [55] (-75)
2708  00                 [56] (-75)
2709  01                 [57] (-73)
270A  00                 [58] (-72)
270B  00                 [59] (-70)
270C  00                 [60] (-68)
270D  01                 [61] (-67)
270E  00                 [62] (-66)
270F  00                 [63] (-65)
2710  00                 [64] (-64)
2711  01                 [65] (-63)
2712  00                 [66] (-58)
2713  00                 [67] (-58)
2714  00                 [68] (-58)
2715  01                 [69] (-54)
2716  00                 [70] (-54)
2717  00                 [71] (-54)
2718  00                 [72] (-49)
2719  01                 [73] (-49)
271A  00                 [74] (-49)
271B  00                 [75] (34)
271C  00                 [76] (34)
271D  01                 [77] (34)
271E  00                 [78] (34)
271F  00                 [79] (34)
2720  00                 [80] (-109)
2721  01                 [81] (-109)
2722  00                 [82] (-109)
2723  00                 [83] (-101)
2724  00                 [84] (-101)
2725  01                 [85] (-81)
2726  00                 [86] (-81)
2727  00                 [87] (-81)
2728  00                 [88] (-81)
2729  01                 [89] (-73)
272A  00                 [90] (-73)
272B  00                 [91] (-73)
272C  00                 [92] (-73)
272D  01                 [93] (-68)
272E  00                 [94] (-68)
272F  00                 [95] (-68)
2730  00                 [96] (-68)
2731  01                 [97] (-30)
2732  00                 [98] (-30)
                         * locals:
2859  00                 sizelocvars (0)
                         * upvalues:
285A  00                 sizeupvalues (0)
                         ** end of function **

285B                     ** end of chunk **
