1	C:\wlua_dump\path\Lotus\Scripts\LibsPlacementUILib.lua
Pos   Hex Data           Description or Code
------------------------------------------------------------------------
0000                     ** source chunk: C:\wlua_dump\path\Lotus\Scripts\LibsPlacementUILib.lua
                         ** global header start **
0000  7F                 header signature: ""
0001  00                 version (major:minor hex digits)
0002  00                 format (0=official)
0003  00                 endianness (1=little endian)
0004  00                 size of int (bytes)
0005  00                 size of size_t (bytes)
0006  02                 size of Instruction (bytes)
0007  07                 size of number (bytes)
0008  28                 integral (1=integral)
440
                         * number type: single
                         * x86 standard (32-bit, little endian, doubles)
                         ** global header end **
package
seeall
SandBoxInv
/Lotus/Levels/ClanDojo/ClanDojoProcLevel
MakeAvatarInvincible
CameraToggleControl
CreateFreeCam
_T
EnvRadiationGlowActive
gRegion
postProcess
saturation
math
pi
desaturateColor
fogColor
distanceFogDensity
lightMapTint
Engine
STUN
KNOCKDOWN
STAGGER
DT_ANY
ANY_PART
DHT_NONE
gFlashMgr
ToggleControl

mCameraInputFilter
mDefaultCamSpeed
mMinCameraStartDistance
mIsDojo
mEnterFreeCameraSound
mExitFreeCameraSound
mCameraSequencerType
mPlayer
mOperatorSet
mControlsMovie
mCameraAvatar
mCameraSpot
mAfkTimer
InitCamera
ActivateFreeCam
DeactivateFreeCam
OnUpdate
mIsDojo
mCameraSpot
gRegion
_T
PhotoBoothCameraSpot
ZERO_VECTOR
ZERO_ROTATION
freeCamActive
mPlayer
y
mCameraAvatar
TENNO
initialized photobooth camera avatar
mControlsMovie
gFlashMgr
gContextActionType
Arsenal
gGameRules
ConsoleActive
gFinisherActionType
gZipLineActionType
gLotusGameRulesType
Infested
_T
DisableMiniMap
mIsDojo
mCameraSequencerType
EMPTY_SYMBOL
mCameraInputFilter
/EE/Types/Input/FreeCamInputFilter
gGameStatsMgr
gGameRules
gClient
DojoMgr
mJsonProcLevelHelper
DECO_TIME.OBST
DECORATE_COURSE
DECO_TIME.DOJO
DECORATE_DOJO
DECO_TIME.SHIP
DECORATE_SHIP
freeCamActive
mPlayer
mDefaultCamSpeed
gPlayerProfileMgr
freeCamControlsVis
mCameraSpot
Engine
PM_AIM
gRegion
mCameraAvatar
mEnterFreeCameraSound
SP_VERY_LOW
mMinCameraStartDistance
gFlashMgr
_T
DisableMiniMap
mCameraSequencerType
mCameraInputFilter
mIsDojo
mPlayer
freeCamActive
gGameRules
mCameraAvatar
Engine
PM_AIM
mExitFreeCameraSound
SP_VERY_LOW
gGameStatsMgr
gClient
DojoMgr
mJsonProcLevelHelper
DECO_TIME.OBST
DECORATE_COURSE
DECO_TIME.DOJO
DECORATE_DOJO
DECO_TIME.SHIP
DECORATE_SHIP
mPlayer
mAfkTimer
mIsInDojo
mOperatorSet
mAvatarInputFilter
gRegion
_T
freeCamActive
detachCamera
gGameRules
gLotusPhotoBoothGameRulesType
editingCameraPos
cancelCameraEdit
freeCamControlsVis
mCameraAvatar
playingCamera
x
y
z
gHitProxyType
                         
0001                     ** function [0] definition (level 1)
                         ** start of function **
0001  00                 string size (0)
                         source name: (none)
0002  00                 line defined (0)
0003  00                 last line defined (0)
0004  00                 nups (0)
0005  00                 numparams (0)
0006  02                 is_vararg (2)
0007  07                 maxstacksize (7)
                         * code:
0008  28                 sizecode (40)
0009  1D000000           [01] getglobal  0   0        ; 954442511
000D  41000001           [02] vararg     1   2      
0011  9D400000           [03] getglobal  2   1        ; package
0015  8E804001           [04] gettable   2   2   258  ; "seeall"
0019  22408001           [05] call       0   3   1  
001D  1DC00000           [06] getglobal  0   3        ; -332969190
0021  59000100           [07] loadk      1   4        ; "SandBoxInv"
0025  22800001           [08] call       0   2   2  
0029  5D400100           [09] getglobal  1   5        ; -1247440829
002D  99800100           [10] loadk      2   6        ; 0
0031  D9C00100           [11] loadk      3   7        ; 0
0035  19010200           [12] loadk      4   8        ; 0
0039  62800002           [13] call       1   4   2  
003D  9D400100           [14] getglobal  2   5        ; -1247440829
0041  D9400200           [15] loadk      3   9        ; 0
0045  19810200           [16] loadk      4   10       ; 0
0049  59410200           [17] loadk      5   9        ; 0
004D  A2800002           [18] call       2   4   2  
0051  DDC00200           [19] getglobal  3   11       ; 738251817
0055  19010300           [20] loadk      4   12       ; "/Lotus/Levels/ClanDojo/ClanDojoProcLevel"
0059  E2800001           [21] call       3   2   2  
005D  25010000           [22] closure    4   0      
0061  12000001           [23] move       0   2      
0065  12008000           [24] move       0   1      
0069  65410000           [25] closure    5   1      
006D  12000000           [26] move       0   0      
0071  A5810000           [27] closure    6   2      
0075  12008002           [28] move       0   5      
0079  A0410300           [29] setglobal  6   13       ; MakeAvatarInvincible
007D  A0810300           [30] setglobal  6   14       ; -84373869
0081  A5C10000           [31] closure    6   3      
0085  A0C10300           [32] setglobal  6   15       ; CameraToggleControl
0089  A0010400           [33] setglobal  6   16       ; 1435386186
008D  A5010100           [34] closure    6   4      
0091  12008002           [35] move       0   5      
0095  12008001           [36] move       0   3      
0099  12000002           [37] move       0   4      
009D  A0410400           [38] setglobal  6   17       ; CreateFreeCam
00A1  A0810400           [39] setglobal  6   18       ; 2055137443
00A5  1E008000           [40] return     0   1      
                         * constants:
00A9  13                 sizek (19)
00AA  01                 const type 3
00AB  0FA3E338           const [0]: (954442511)
00AF  04                 const type 4
00B0  08                 string size (8)
00B1  7061636B61676500   "package\0"
                         const [1]: "package"
00B9  04                 const type 4
00BA  07                 string size (7)
00BB  736565616C6C00     "seeall\0"
                         const [2]: "seeall"
00C2  01                 const type 3
00C3  1A4B27EC           const [3]: (-332969190)
00C7  04                 const type 4
00C8  0B                 string size (11)
00C9  53616E64426F7849+  "SandBoxI"
00D1  6E7600             "nv\0"
                         const [4]: "SandBoxInv"
00D4  01                 const type 3
00D5  4390A5B5           const [5]: (-1247440829)
00D9  03                 const type 3
00DA  00003543           const [6]: (0)
00DE  03                 const type 3
00DF  00005C43           const [7]: (0)
00E3  03                 const type 3
00E4  0000A042           const [8]: (0)
00E8  03                 const type 3
00E9  00004443           const [9]: (0)
00ED  03                 const type 3
00EE  00007F43           const [10]: (0)
00F2  01                 const type 3
00F3  29D4002C           const [11]: (738251817)
00F7  04                 const type 4
00F8  29                 string size (41)
00F9  2F4C6F7475732F4C+  "/Lotus/L"
0101  6576656C732F436C+  "evels/Cl"
0109  616E446F6A6F2F43+  "anDojo/C"
0111  6C616E446F6A6F50+  "lanDojoP"
0119  726F634C6576656C+  "rocLevel"
0121  00                 "\0"
                         const [12]: "/Lotus/Levels/ClanDojo/ClanDojoProcLevel"
0122  04                 const type 4
0123  15                 string size (21)
0124  4D616B6541766174+  "MakeAvat"
012C  6172496E76696E63+  "arInvinc"
0134  69626C6500         "ible\0"
                         const [13]: "MakeAvatarInvincible"
0139  01                 const type 3
013A  938EF8FA           const [14]: (-84373869)
013E  04                 const type 4
013F  14                 string size (20)
0140  43616D657261546F+  "CameraTo"
0148  67676C65436F6E74+  "ggleCont"
0150  726F6C00           "rol\0"
                         const [15]: "CameraToggleControl"
0154  01                 const type 3
0155  4A418E55           const [16]: (1435386186)
0159  04                 const type 4
015A  0E                 string size (14)
015B  4372656174654672+  "CreateFr"
0163  656543616D00       "eeCam\0"
                         const [17]: "CreateFreeCam"
0169  01                 const type 3
016A  A3E87E7A           const [18]: (2055137443)
                         * functions:
016E  05                 sizep (5)
                         
016F                     ** function [0] definition (level 2)
                         ** start of function **
016F  00                 string size (0)
                         source name: (none)
0170  08                 line defined (8)
0171  11                 last line defined (17)
0172  02                 nups (2)
0173  00                 numparams (0)
0174  00                 is_vararg (0)
0175  05                 maxstacksize (5)
                         * code:
0176  22                 sizecode (34)
0177  1D000000           [01] getglobal  0   0        ; _T
017B  0E404000           [02] gettable   0   0   257  ; "EnvRadiationGlowActive"
017F  18000000           [03] test       0       0    ; to [5] if true
0183  1A000780           [04] jmp        29           ; to [34]
0187  1D800000           [05] getglobal  0   2        ; gRegion
018B  24C04000           [06] self       0   0   259  ; -1456226250
018F  22800001           [07] call       0   2   2  
0193  0E004100           [08] gettable   0   0   260  ; "postProcess"
0197  5D800100           [09] getglobal  1   6        ; math
019B  4EC0C100           [10] gettable   1   1   263  ; -113279800
019F  9D800100           [11] getglobal  2   6        ; math
01A3  8E004201           [12] gettable   2   2   264  ; -1153493898
01A7  DD400200           [13] getglobal  3   9        ; -1577254049
01AB  1D810200           [14] getglobal  4   10       ; 1491452635
01AF  22818000           [15] call       4   1   2  
01B3  04C14202           [16] mul        4   4   267  ; -51
01B7  E2800001           [17] call       3   2   2  
01BB  1D810100           [18] getglobal  4   6        ; math
01BF  0E014302           [19] gettable   4   4   268  ; "pi"
01C3  C4008101           [20] mul        3   3   4  
01C7  C440C301           [21] mul        3   3   269  ; 0
01CB  A2000001           [22] call       2   2   0  
01CF  62800000           [23] call       1   0   2  
01D3  4480C300           [24] mul        1   1   270  ; 0
01D7  43408087           [25] add        1   271 1    ; 0
01DB  0C408082           [26] settable   0   261 1    ; "saturation"
01DF  53000000           [27] getupval   1   0      
01E3  0C400088           [28] settable   0   272 1    ; "desaturateColor"
01E7  53008000           [29] getupval   1   1      
01EB  0C408088           [30] settable   0   273 1    ; "fogColor"
01EF  0CC04389           [31] settable   0   274 271  ; "distanceFogDensity" 0
01F3  53008000           [32] getupval   1   1      
01F7  0C408089           [33] settable   0   275 1    ; "lightMapTint"
01FB  1E008000           [34] return     0   1      
                         * constants:
01FF  14                 sizek (20)
0200  04                 const type 4
0201  03                 string size (3)
0202  5F5400             "_T\0"
                         const [0]: "_T"
0205  04                 const type 4
0206  17                 string size (23)
0207  456E765261646961+  "EnvRadia"
020F  74696F6E476C6F77+  "tionGlow"
0217  41637469766500     "Active\0"
                         const [1]: "EnvRadiationGlowActive"
021E  04                 const type 4
021F  08                 string size (8)
0220  67526567696F6E00   "gRegion\0"
                         const [2]: "gRegion"
0228  01                 const type 3
0229  36C033A9           const [3]: (-1456226250)
022D  04                 const type 4
022E  0C                 string size (12)
022F  706F737450726F63+  "postProc"
0237  65737300           "ess\0"
                         const [4]: "postProcess"
023B  04                 const type 4
023C  0B                 string size (11)
023D  7361747572617469+  "saturati"
0245  6F6E00             "on\0"
                         const [5]: "saturation"
0248  04                 const type 4
0249  05                 string size (5)
024A  6D61746800         "math\0"
                         const [6]: "math"
024F  01                 const type 3
0250  C87C3FF9           const [7]: (-113279800)
0254  01                 const type 3
0255  76143FBB           const [8]: (-1153493898)
0259  01                 const type 3
025A  5F03FDA1           const [9]: (-1577254049)
025E  01                 const type 3
025F  DBC2E558           const [10]: (1491452635)
0263  03                 const type 3
0264  CDCCCC3D           const [11]: (-51)
0268  04                 const type 4
0269  03                 string size (3)
026A  706900             "pi\0"
                         const [12]: "pi"
026D  03                 const type 3
026E  00000040           const [13]: (0)
0272  03                 const type 3
0273  0000403F           const [14]: (0)
0277  03                 const type 3
0278  0000803E           const [15]: (0)
027C  04                 const type 4
027D  10                 string size (16)
027E  6465736174757261+  "desatura"
0286  7465436F6C6F7200   "teColor\0"
                         const [16]: "desaturateColor"
028E  04                 const type 4
028F  09                 string size (9)
0290  666F67436F6C6F72+  "fogColor"
0298  00                 "\0"
                         const [17]: "fogColor"
0299  04                 const type 4
029A  13                 string size (19)
029B  64697374616E6365+  "distance"
02A3  466F6744656E7369+  "FogDensi"
02AB  747900             "ty\0"
                         const [18]: "distanceFogDensity"
02AE  04                 const type 4
02AF  0D                 string size (13)
02B0  6C696768744D6170+  "lightMap"
02B8  54696E7400         "Tint\0"
                         const [19]: "lightMapTint"
                         * functions:
02BD  00                 sizep (0)
                         * lines:
02BE  22                 sizelineinfo (34)
                         [pc] (line)
02BF  09                 [01] (9)
02C0  00                 [02] (9)
02C1  00                 [03] (9)
02C2  00                 [04] (9)
02C3  09                 [05] (10)
02C4  00                 [06] (10)
02C5  00                 [07] (10)
02C6  00                 [08] (10)
02C7  09                 [09] (11)
02C8  00                 [10] (11)
02C9  00                 [11] (11)
02CA  00                 [12] (11)
02CB  09                 [13] (11)
02CC  00                 [14] (11)
02CD  00                 [15] (11)
02CE  00                 [16] (11)
02CF  0A                 [17] (11)
02D0  00                 [18] (11)
02D1  00                 [19] (11)
02D2  00                 [20] (11)
02D3  0A                 [21] (11)
02D4  00                 [22] (11)
02D5  00                 [23] (11)
02D6  00                 [24] (11)
02D7  0A                 [25] (11)
02D8  00                 [26] (11)
02D9  00                 [27] (12)
02DA  00                 [28] (12)
02DB  0A                 [29] (13)
02DC  00                 [30] (13)
02DD  00                 [31] (14)
02DE  00                 [32] (15)
02DF  0B                 [33] (15)
02E0  00                 [34] (17)
                         * locals:
0347  00                 sizelocvars (0)
                         * upvalues:
0348  00                 sizeupvalues (0)
                         ** end of function **

                         
0349                     ** function [1] definition (level 2)
                         ** start of function **
0349  00                 string size (0)
                         source name: (none)
034A  13                 line defined (19)
034B  1A                 last line defined (26)
034C  01                 nups (1)
034D  01                 numparams (1)
034E  00                 is_vararg (0)
034F  09                 maxstacksize (9)
                         * code:
0350  1F                 sizecode (31)
0351  64004000           [01] self       1   0   256  ; -1544157541
0355  62800001           [02] call       1   2   2  
0359  A440C000           [03] self       2   1   257  ; 1685228074
035D  1D810000           [04] getglobal  4   2        ; Engine
0361  0EC14002           [05] gettable   4   4   259  ; "STUN"
0365  53010000           [06] getupval   5   0      
0369  A2400002           [07] call       2   4   1  
036D  A440C000           [08] self       2   1   257  ; 1685228074
0371  1D810000           [09] getglobal  4   2        ; Engine
0375  0E014102           [10] gettable   4   4   260  ; "KNOCKDOWN"
0379  53010000           [11] getupval   5   0      
037D  A2400002           [12] call       2   4   1  
0381  A440C000           [13] self       2   1   257  ; 1685228074
0385  1D810000           [14] getglobal  4   2        ; Engine
0389  0E414102           [15] gettable   4   4   261  ; "STAGGER"
038D  53010000           [16] getupval   5   0      
0391  A2400002           [17] call       2   4   1  
0395  A480C100           [18] self       2   1   262  ; 17344149
0399  13010000           [19] getupval   4   0      
039D  A2408001           [20] call       2   3   1  
03A1  A4C0C100           [21] self       2   1   263  ; 808964080
03A5  13010000           [22] getupval   4   0      
03A9  5D810000           [23] getglobal  5   2        ; Engine
03AD  4E01C202           [24] gettable   5   5   264  ; "DT_ANY"
03B1  9D810000           [25] getglobal  6   2        ; Engine
03B5  8E414203           [26] gettable   6   6   265  ; "ANY_PART"
03B9  DD810000           [27] getglobal  7   2        ; Engine
03BD  CE81C203           [28] gettable   7   7   266  ; "DHT_NONE"
03C1  19C20200           [29] loadk      8   11       ; 0
03C5  A2408003           [30] call       2   7   1  
03C9  1E008000           [31] return     0   1      
                         * constants:
03CD  0C                 sizek (12)
03CE  01                 const type 3
03CF  9B06F6A3           const [0]: (-1544157541)
03D3  01                 const type 3
03D4  2A8A7264           const [1]: (1685228074)
03D8  04                 const type 4
03D9  07                 string size (7)
03DA  456E67696E6500     "Engine\0"
                         const [2]: "Engine"
03E1  04                 const type 4
03E2  05                 string size (5)
03E3  5354554E00         "STUN\0"
                         const [3]: "STUN"
03E8  04                 const type 4
03E9  0A                 string size (10)
03EA  4B4E4F434B444F57+  "KNOCKDOW"
03F2  4E00               "N\0"
                         const [4]: "KNOCKDOWN"
03F4  04                 const type 4
03F5  08                 string size (8)
03F6  5354414747455200   "STAGGER\0"
                         const [5]: "STAGGER"
03FE  01                 const type 3
03FF  95A60801           const [6]: (17344149)
0403  01                 const type 3
0404  F0CF3730           const [7]: (808964080)
0408  04                 const type 4
0409  07                 string size (7)
040A  44545F414E5900     "DT_ANY\0"
                         const [8]: "DT_ANY"
0411  04                 const type 4
0412  09                 string size (9)
0413  414E595F50415254+  "ANY_PART"
041B  00                 "\0"
                         const [9]: "ANY_PART"
041C  04                 const type 4
041D  09                 string size (9)
041E  4448545F4E4F4E45+  "DHT_NONE"
0426  00                 "\0"
                         const [10]: "DHT_NONE"
0427  03                 const type 3
0428  00000000           const [11]: (0)
                         * functions:
042C  00                 sizep (0)
                         * lines:
042D  1F                 sizelineinfo (31)
                         [pc] (line)
042E  14                 [01] (20)
042F  00                 [02] (20)
0430  00                 [03] (21)
0431  00                 [04] (21)
0432  14                 [05] (21)
0433  00                 [06] (21)
0434  00                 [07] (21)
0435  00                 [08] (22)
0436  15                 [09] (22)
0437  00                 [10] (22)
0438  00                 [11] (22)
0439  00                 [12] (22)
043A  15                 [13] (23)
043B  00                 [14] (23)
043C  00                 [15] (23)
043D  00                 [16] (23)
043E  15                 [17] (23)
043F  00                 [18] (24)
0440  00                 [19] (24)
0441  00                 [20] (24)
0442  15                 [21] (25)
0443  00                 [22] (25)
0444  00                 [23] (25)
0445  00                 [24] (25)
0446  15                 [25] (25)
0447  00                 [26] (25)
0448  00                 [27] (25)
0449  00                 [28] (25)
044A  16                 [29] (25)
044B  00                 [30] (25)
044C  00                 [31] (26)
                         * locals:
04AA  00                 sizelocvars (0)
                         * upvalues:
04AB  00                 sizeupvalues (0)
                         ** end of function **

                         
04AC                     ** function [2] definition (level 2)
                         ** start of function **
04AC  00                 string size (0)
                         source name: (none)
04AD  1C                 line defined (28)
04AE  1E                 last line defined (30)
04AF  01                 nups (1)
04B0  01                 numparams (1)
04B1  00                 is_vararg (0)
04B2  03                 maxstacksize (3)
                         * code:
04B3  04                 sizecode (4)
04B4  53000000           [1] getupval   1   0      
04B8  92000000           [2] move       2   0      
04BC  62400001           [3] call       1   2   1  
04C0  1E008000           [4] return     0   1      
                         * constants:
04C4  00                 sizek (0)
                         * functions:
04C5  00                 sizep (0)
                         * lines:
04C6  04                 sizelineinfo (4)
                         [pc] (line)
04C7  1D                 [1] (29)
04C8  00                 [2] (29)
04C9  00                 [3] (29)
04CA  00                 [4] (30)
                         * locals:
04D7  00                 sizelocvars (0)
                         * upvalues:
04D8  00                 sizeupvalues (0)
                         ** end of function **

                         
04D9                     ** function [3] definition (level 2)
                         ** start of function **
04D9  00                 string size (0)
                         source name: (none)
04DA  20                 line defined (32)
04DB  27                 last line defined (39)
04DC  00                 nups (0)
04DD  01                 numparams (1)
04DE  00                 is_vararg (0)
04DF  06                 maxstacksize (6)
                         * code:
04E0  18                 sizecode (24)
04E1  5D000000           [01] getglobal  1   0        ; 1074689893
04E5  9D400000           [02] getglobal  2   1        ; gFlashMgr
04E9  62800001           [03] call       1   2   2  
04ED  58400000           [04] test       1       1    ; to [6] if false
04F1  1A400480           [05] jmp        18           ; to [24]
04F5  5D000000           [06] getglobal  1   0        ; 1074689893
04F9  92000000           [07] move       2   0      
04FD  62800001           [08] call       1   2   2  
0501  58400000           [09] test       1       1    ; to [11] if false
0505  1A000380           [10] jmp        13           ; to [24]
0509  5D400000           [11] getglobal  1   1        ; gFlashMgr
050D  6480C000           [12] self       1   1   258  ; 1634586770
0511  D2000000           [13] move       3   0      
0515  62808001           [14] call       1   3   2  
0519  9D000000           [15] getglobal  2   0        ; 1074689893
051D  D2008000           [16] move       3   1      
0521  A2800001           [17] call       2   2   2  
0525  98400000           [18] test       2       1    ; to [20] if false
0529  1AC00080           [19] jmp        4            ; to [24]
052D  A4C0C000           [20] self       2   1   259  ; 1167009705
0531  19010100           [21] loadk      4   4        ; "ToggleControl"
0535  59410100           [22] loadk      5   5        ; ""
0539  A2400002           [23] call       2   4   1  
053D  1E008000           [24] return     0   1      
                         * constants:
0541  06                 sizek (6)
0542  01                 const type 3
0543  65770E40           const [0]: (1074689893)
0547  04                 const type 4
0548  0A                 string size (10)
0549  67466C6173684D67+  "gFlashMg"
0551  7200               "r\0"
                         const [1]: "gFlashMgr"
0553  01                 const type 3
0554  92D06D61           const [2]: (1634586770)
0558  01                 const type 3
0559  A9278F45           const [3]: (1167009705)
055D  04                 const type 4
055E  0E                 string size (14)
055F  546F67676C65436F+  "ToggleCo"
0567  6E74726F6C00       "ntrol\0"
                         const [4]: "ToggleControl"
056D  04                 const type 4
056E  01                 string size (0)
                         const [5]: ""
                         * functions:
0570  00                 sizep (0)
                         * lines:
0571  18                 sizelineinfo (24)
                         [pc] (line)
0572  21                 [01] (33)
0573  00                 [02] (33)
0574  00                 [03] (33)
0575  00                 [04] (33)
0576  21                 [05] (33)
0577  00                 [06] (33)
0578  00                 [07] (33)
0579  00                 [08] (33)
057A  21                 [09] (33)
057B  00                 [10] (33)
057C  00                 [11] (34)
057D  00                 [12] (34)
057E  21                 [13] (34)
057F  00                 [14] (34)
0580  00                 [15] (35)
0581  00                 [16] (35)
0582  21                 [17] (35)
0583  00                 [18] (35)
0584  00                 [19] (35)
0585  00                 [20] (36)
0586  21                 [21] (36)
0587  00                 [22] (36)
0588  00                 [23] (36)
0589  00                 [24] (39)
                         * locals:
05D2  00                 sizelocvars (0)
                         * upvalues:
05D3  00                 sizeupvalues (0)
                         ** end of function **

                         
05D4                     ** function [4] definition (level 2)
                         ** start of function **
05D4  00                 string size (0)
                         source name: (none)
05D5  29                 line defined (41)
05D6  FE                 last line defined (382)
05D7  02                 nups (3)
05D8  03                 numparams (7)
05D9  07                 is_vararg (0)
05DA  00                 maxstacksize (9)
                         * code:
05DC  1C                 sizecode (28)
05DD  CB410400           [01] newtable   7   0   17   ; array=0, hash=18
05E1  CC010080           [02] settable   7   256 0    ; "mCameraInputFilter"
05E5  CC418080           [03] settable   7   257 1    ; "mDefaultCamSpeed"
05E9  CC810081           [04] settable   7   258 2    ; "mMinCameraStartDistance"
05ED  CCC18081           [05] settable   7   259 3    ; "mIsDojo"
05F1  CC010182           [06] settable   7   260 4    ; "mEnterFreeCameraSound"
05F5  CC418182           [07] settable   7   261 5    ; "mExitFreeCameraSound"
05F9  CC810183           [08] settable   7   262 6    ; "mCameraSequencerType"
05FD  CC01C283           [09] settable   7   263 264  ; "mPlayer" nil
0601  CC81C284           [10] settable   7   265 266  ; "mOperatorSet" 0
0605  CC01C285           [11] settable   7   267 264  ; "mControlsMovie" nil
0609  CC014286           [12] settable   7   268 264  ; "mCameraAvatar" nil
060D  CC01C286           [13] settable   7   269 264  ; "mCameraSpot" nil
0611  CCC14387           [14] settable   7   270 271  ; "mAfkTimer" 0
0615  25020000           [15] closure    8   0      
0619  13000000           [16] getupval   0   0      
061D  CC010288           [17] settable   7   272 8    ; "InitCamera"
0621  25420000           [18] closure    8   1      
0625  13008000           [19] getupval   0   1      
0629  CC018288           [20] settable   7   273 8    ; "ActivateFreeCam"
062D  25820000           [21] closure    8   2      
0631  13008000           [22] getupval   0   1      
0635  CC010289           [23] settable   7   274 8    ; "DeactivateFreeCam"
0639  25C20000           [24] closure    8   3      
063D  13000001           [25] getupval   0   2      
0641  CC018289           [26] settable   7   275 8    ; "OnUpdate"
0645  DE010001           [27] return     7   2      
0649  1E008000           [28] return     0   1      
                         * constants:
064D  14                 sizek (20)
064E  04                 const type 4
064F  13                 string size (19)
0650  6D43616D65726149+  "mCameraI"
0658  6E70757446696C74+  "nputFilt"
0660  657200             "er\0"
                         const [0]: "mCameraInputFilter"
0663  04                 const type 4
0664  11                 string size (17)
0665  6D44656661756C74+  "mDefault"
066D  43616D5370656564+  "CamSpeed"
0675  00                 "\0"
                         const [1]: "mDefaultCamSpeed"
0676  04                 const type 4
0677  18                 string size (24)
0678  6D4D696E43616D65+  "mMinCame"
0680  7261537461727444+  "raStartD"
0688  697374616E636500   "istance\0"
                         const [2]: "mMinCameraStartDistance"
0690  04                 const type 4
0691  08                 string size (8)
0692  6D4973446F6A6F00   "mIsDojo\0"
                         const [3]: "mIsDojo"
069A  04                 const type 4
069B  16                 string size (22)
069C  6D456E7465724672+  "mEnterFr"
06A4  656543616D657261+  "eeCamera"
06AC  536F756E6400       "Sound\0"
                         const [4]: "mEnterFreeCameraSound"
06B2  04                 const type 4
06B3  15                 string size (21)
06B4  6D45786974467265+  "mExitFre"
06BC  6543616D65726153+  "eCameraS"
06C4  6F756E6400         "ound\0"
                         const [5]: "mExitFreeCameraSound"
06C9  04                 const type 4
06CA  15                 string size (21)
06CB  6D43616D65726153+  "mCameraS"
06D3  657175656E636572+  "equencer"
06DB  5479706500         "Type\0"
                         const [6]: "mCameraSequencerType"
06E0  04                 const type 4
06E1  08                 string size (8)
06E2  6D506C6179657200   "mPlayer\0"
                         const [7]: "mPlayer"
06EA  00                 const type 0
                         const [8]: nil
06EB  04                 const type 4
06EC  0D                 string size (13)
06ED  6D4F70657261746F+  "mOperato"
06F5  7253657400         "rSet\0"
                         const [9]: "mOperatorSet"
06FA  01                 const type 3
06FB  00000000           const [10]: (0)
06FF  04                 const type 4
0700  0F                 string size (15)
0701  6D436F6E74726F6C+  "mControl"
0709  734D6F76696500     "sMovie\0"
                         const [11]: "mControlsMovie"
0710  04                 const type 4
0711  0E                 string size (14)
0712  6D43616D65726141+  "mCameraA"
071A  766174617200       "vatar\0"
                         const [12]: "mCameraAvatar"
0720  04                 const type 4
0721  0C                 string size (12)
0722  6D43616D65726153+  "mCameraS"
072A  706F7400           "pot\0"
                         const [13]: "mCameraSpot"
072E  04                 const type 4
072F  0A                 string size (10)
0730  6D41666B54696D65+  "mAfkTime"
0738  7200               "r\0"
                         const [14]: "mAfkTimer"
073A  03                 const type 3
073B  00000000           const [15]: (0)
073F  04                 const type 4
0740  0B                 string size (11)
0741  496E697443616D65+  "InitCame"
0749  726100             "ra\0"
                         const [16]: "InitCamera"
074C  04                 const type 4
074D  10                 string size (16)
074E  4163746976617465+  "Activate"
0756  4672656543616D00   "FreeCam\0"
                         const [17]: "ActivateFreeCam"
075E  04                 const type 4
075F  12                 string size (18)
0760  4465616374697661+  "Deactiva"
0768  7465467265654361+  "teFreeCa"
0770  6D00               "m\0"
                         const [18]: "DeactivateFreeCam"
0772  04                 const type 4
0773  09                 string size (9)
0774  4F6E557064617465+  "OnUpdate"
077C  00                 "\0"
                         const [19]: "OnUpdate"
                         * functions:
077D  04                 sizep (4)
                         
077E                     ** function [0] definition (level 3)
                         ** start of function **
077E  00                 string size (0)
                         source name: (none)
077F  3A                 line defined (58)
0780  93                 last line defined (147)
0781  01                 nups (1)
0782  01                 numparams (7)
0783  07                 is_vararg (0)
0784  00                 maxstacksize (29)
                         * code:
0787  02                 sizecode (289)
0788  CE014000           [001] gettable   7   0   256  ; "mIsDojo"
078C  D8010000           [002] test       7       0    ; to [4] if true
0790  1AC00580           [003] jmp        24           ; to [28]
0794  DD410000           [004] getglobal  7   1        ; 1074689893
0798  12028001           [005] move       8   3      
079C  E2810001           [006] call       7   2   2  
07A0  D8410000           [007] test       7       1    ; to [9] if false
07A4  1A400880           [008] jmp        34           ; to [43]
07A8  DDC10000           [009] getglobal  7   3        ; gRegion
07AC  E401C103           [010] self       7   7   260  ; -1110225722
07B0  52028001           [011] move       9   3      
07B4  A442C100           [012] self       10  1   261  ; 196800914
07B8  A2820001           [013] call       10  2   2  
07BC  DD820100           [014] getglobal  11  6        ; 572299008
07C0  19C30100           [015] loadk      12  7        ; 0
07C4  59030200           [016] loadk      13  8        ; 0
07C8  99C30100           [017] loadk      14  7        ; 0
07CC  E2820002           [018] call       11  4   2  
07D0  83C20205           [019] add        10  10  11 
07D4  DD420200           [020] getglobal  11  9        ; 508519041
07D8  E2028000           [021] call       11  1   0  
07DC  E2810000           [022] call       7   0   2  
07E0  0CC00181           [023] settable   0   258 7    ; "mCameraSpot"
07E4  DD810200           [024] getglobal  7   10       ; _T
07E8  0E824000           [025] gettable   8   0   258  ; "mCameraSpot"
07EC  CC018285           [026] settable   7   267 8    ; "PhotoBoothCameraSpot"
07F0  1A800380           [027] jmp        15           ; to [43]
07F4  DD410000           [028] getglobal  7   1        ; 1074689893
07F8  12028001           [029] move       8   3      
07FC  E2810001           [030] call       7   2   2  
0800  D8410000           [031] test       7       1    ; to [33] if false
0804  1A400280           [032] jmp        10           ; to [43]
0808  DDC10000           [033] getglobal  7   3        ; gRegion
080C  E401C103           [034] self       7   7   260  ; -1110225722
0810  52028001           [035] move       9   3      
0814  9D020300           [036] getglobal  10  12       ; ZERO_VECTOR
0818  DD420300           [037] getglobal  11  13       ; ZERO_ROTATION
081C  E2818002           [038] call       7   5   2  
0820  0CC00181           [039] settable   0   258 7    ; "mCameraSpot"
0824  DD810200           [040] getglobal  7   10       ; _T
0828  0E824000           [041] gettable   8   0   258  ; "mCameraSpot"
082C  CC018285           [042] settable   7   267 8    ; "PhotoBoothCameraSpot"
0830  E481C300           [043] self       7   1   270  ; -564624675
0834  E2810001           [044] call       7   2   2  
0838  1D420000           [045] getglobal  8   1        ; 1074689893
083C  52028003           [046] move       9   7      
0840  22820001           [047] call       8   2   2  
0844  18420000           [048] test       8       1    ; to [50] if false
0848  1A000180           [049] jmp        5            ; to [55]
084C  1D820200           [050] getglobal  8   10       ; _T
0850  6402C403           [051] self       9   7   272  ; 574539743
0854  62820001           [052] call       9   2   2  
0858  0C428287           [053] settable   8   271 9    ; "freeCamActive"
085C  0CC08188           [054] settable   0   273 7    ; "mPlayer"
0860  1D820400           [055] getglobal  8   18       ; 538022378
0864  59C20100           [056] loadk      9   7        ; 0
0868  22420001           [057] call       8   2   1  
086C  1D420000           [058] getglobal  8   1        ; 1074689893
0870  52028000           [059] move       9   1      
0874  22820001           [060] call       8   2   2  
0878  18020000           [061] test       8       0    ; to [63] if true
087C  1A000080           [062] jmp        1            ; to [64]
0880  1E008000           [063] return     0   1      
0884  24C2C400           [064] self       8   1   275  ; 1839670529
0888  22820001           [065] call       8   2   2  
088C  4E024504           [066] gettable   9   8   276  ; "y"
0890  4342C504           [067] add        9   9   277  ; 0
0894  0C42028A           [068] settable   8   276 9    ; "y"
0898  5DC20000           [069] getglobal  9   3        ; gRegion
089C  6402C104           [070] self       9   9   260  ; -1110225722
08A0  D2020001           [071] move       11  2      
08A4  12030004           [072] move       12  8      
08A8  64C3C500           [073] self       13  1   279  ; -231049143
08AC  62030001           [074] call       13  2   0  
08B0  62820000           [075] call       9   0   2  
08B4  0C40028B           [076] settable   0   278 9    ; "mCameraAvatar"
08B8  5D420000           [077] getglobal  9   1        ; 1074689893
08BC  8E824500           [078] gettable   10  0   278  ; "mCameraAvatar"
08C0  62820001           [079] call       9   2   2  
08C4  58420000           [080] test       9       1    ; to [82] if false
08C8  1A800980           [081] jmp        39           ; to [121]
08CC  4E824500           [082] gettable   9   0   278  ; "mCameraAvatar"
08D0  6402C604           [083] self       9   9   280  ; 115701976
08D4  62420001           [084] call       9   2   1  
08D8  4E824500           [085] gettable   9   0   278  ; "mCameraAvatar"
08DC  6442C604           [086] self       9   9   281  ; 2109594123
08E0  D7020000           [087] loadbool   11  0   0    ; false
08E4  62428001           [088] call       9   3   1  
08E8  4E824500           [089] gettable   9   0   278  ; "mCameraAvatar"
08EC  6482C604           [090] self       9   9   282  ; -1338608417
08F0  DDC20600           [091] getglobal  11  27       ; -332969190
08F4  19030700           [092] loadk      12  28       ; "TENNO"
08F8  E2020001           [093] call       11  2   0  
08FC  62420000           [094] call       9   0   1  
0900  4E824500           [095] gettable   9   0   278  ; "mCameraAvatar"
0904  6442C704           [096] self       9   9   285  ; 163993427
0908  D9C20100           [097] loadk      11  7        ; 0
090C  62428001           [098] call       9   3   1  
0910  4E824500           [099] gettable   9   0   278  ; "mCameraAvatar"
0914  6482C704           [100] self       9   9   286  ; -2113194289
0918  D7028000           [101] loadbool   11  1   0    ; true
091C  62428001           [102] call       9   3   1  
0920  4E824500           [103] gettable   9   0   278  ; "mCameraAvatar"
0924  64C2C704           [104] self       9   9   287  ; 606226066
0928  D7020000           [105] loadbool   11  0   0    ; false
092C  62428001           [106] call       9   3   1  
0930  4E824500           [107] gettable   9   0   278  ; "mCameraAvatar"
0934  6402C804           [108] self       9   9   288  ; -2013261060
0938  D7020000           [109] loadbool   11  0   0    ; false
093C  62428001           [110] call       9   3   1  
0940  4E824500           [111] gettable   9   0   278  ; "mCameraAvatar"
0944  6442C804           [112] self       9   9   289  ; 646691440
0948  D7020000           [113] loadbool   11  0   0    ; false
094C  62428001           [114] call       9   3   1  
0950  53020000           [115] getupval   9   0      
0954  8E824500           [116] gettable   10  0   278  ; "mCameraAvatar"
0958  62420001           [117] call       9   2   1  
095C  5D820800           [118] getglobal  9   34       ; -1817107093
0960  99C20800           [119] loadk      10  35       ; "initialized photobooth camera avatar"
0964  62420001           [120] call       9   2   1  
0968  5DC20000           [121] getglobal  9   3        ; gRegion
096C  6402C904           [122] self       9   9   292  ; 1433119162
0970  D2028000           [123] move       11  1      
0974  62428001           [124] call       9   3   1  
0978  5DC20000           [125] getglobal  9   3        ; gRegion
097C  6402C904           [126] self       9   9   292  ; 1433119162
0980  CE824500           [127] gettable   11  0   278  ; "mCameraAvatar"
0984  62428001           [128] call       9   3   1  
0988  5DC20000           [129] getglobal  9   3        ; gRegion
098C  6442C904           [130] self       9   9   293  ; -1520831144
0990  62820001           [131] call       9   2   2  
0994  58020000           [132] test       9       0    ; to [134] if true
0998  1AC00480           [133] jmp        20           ; to [154]
099C  53020000           [134] getupval   9   0      
09A0  92028000           [135] move       10  1      
09A4  62420001           [136] call       9   2   1  
09A8  6482C900           [137] self       9   1   294  ; -1917464545
09AC  62820001           [138] call       9   2   2  
09B0  9D420000           [139] getglobal  10  1        ; 1074689893
09B4  D2028004           [140] move       11  9      
09B8  A2820001           [141] call       10  2   2  
09BC  98420000           [142] test       10      1    ; to [144] if false
09C0  1A400280           [143] jmp        10           ; to [154]
09C4  A4C2C904           [144] self       10  9   295  ; 819640984
09C8  A2820001           [145] call       10  2   2  
09CC  DD420000           [146] getglobal  11  1        ; 1074689893
09D0  12030005           [147] move       12  10     
09D4  E2820001           [148] call       11  2   2  
09D8  D8420000           [149] test       11      1    ; to [151] if false
09DC  1A800080           [150] jmp        3            ; to [154]
09E0  D3020000           [151] getupval   11  0      
09E4  12030005           [152] move       12  10     
09E8  E2420001           [153] call       11  2   1  
09EC  CE024000           [154] gettable   11  0   256  ; "mIsDojo"
09F0  D8420000           [155] test       11      1    ; to [157] if false
09F4  1AC02080           [156] jmp        132          ; to [289]
09F8  DD420000           [157] getglobal  11  1        ; 1074689893
09FC  0E034A00           [158] gettable   12  0   296  ; "mControlsMovie"
0A00  E2820001           [159] call       11  2   2  
0A04  D8020000           [160] test       11      0    ; to [162] if true
0A08  1A800380           [161] jmp        15           ; to [177]
0A0C  DD420000           [162] getglobal  11  1        ; 1074689893
0A10  1D430A00           [163] getglobal  12  41       ; gFlashMgr
0A14  E2820001           [164] call       11  2   2  
0A18  D8420000           [165] test       11      1    ; to [167] if false
0A1C  1A400280           [166] jmp        10           ; to [177]
0A20  DD420000           [167] getglobal  11  1        ; 1074689893
0A24  12030002           [168] move       12  4      
0A28  E2820001           [169] call       11  2   2  
0A2C  D8420000           [170] test       11      1    ; to [172] if false
0A30  1A000180           [171] jmp        5            ; to [177]
0A34  DD420A00           [172] getglobal  11  41       ; gFlashMgr
0A38  E482CA05           [173] self       11  11  298  ; 1967690300
0A3C  52030002           [174] move       13  4      
0A40  E2828001           [175] call       11  3   2  
0A44  0CC00294           [176] settable   0   296 11   ; "mControlsMovie"
0A48  DDC20000           [177] getglobal  11  3        ; gRegion
0A4C  E4C2CA05           [178] self       11  11  299  ; 152279552
0A50  5D030B00           [179] getglobal  13  44       ; gContextActionType
0A54  E2828001           [180] call       11  3   2  
0A58  19430B00           [181] loadk      12  45       ; 0
0A5C  4A038005           [182] len        13  11     
0A60  99430B00           [183] loadk      14  45       ; 0
0A64  10430A80           [184] forprep    12  42       ; to [227]
0A68  0EC48305           [185] gettable   16  11  15 
0A6C  24844B08           [186] self       16  16  302  ; -830264577
0A70  22840001           [187] call       16  2   2  
0A74  5DC40600           [188] getglobal  17  27       ; -332969190
0A78  99C40B00           [189] loadk      18  47       ; "Arsenal"
0A7C  62840001           [190] call       17  2   2  
fail op	35
0A80  23400408           [191] close      0  
0A84  1A000280           [192] jmp        9            ; to [202]
0A88  0EC48305           [193] gettable   16  11  15 
0A8C  24044C08           [194] self       16  16  304  ; 952992497
0A90  97048000           [195] loadbool   18  1   0    ; true
0A94  22448001           [196] call       16  3   1  
0A98  1D440C00           [197] getglobal  16  49       ; gGameRules
0A9C  24844C08           [198] self       16  16  306  ; -429290000
0AA0  8EC48305           [199] gettable   18  11  15 
0AA4  22448001           [200] call       16  3   1  
0AA8  1A000680           [201] jmp        25           ; to [227]
0AAC  0EC48305           [202] gettable   16  11  15 
0AB0  24844B08           [203] self       16  16  302  ; -830264577
0AB4  22840001           [204] call       16  2   2  
0AB8  5DC40600           [205] getglobal  17  27       ; -332969190
0ABC  99C40C00           [206] loadk      18  51       ; "ConsoleActive"
0AC0  62840001           [207] call       17  2   2  
fail op	35
0AC4  63400408           [208] close      1  
0AC8  1A000480           [209] jmp        17           ; to [227]
0ACC  0EC48305           [210] gettable   16  11  15 
0AD0  24044D08           [211] self       16  16  308  ; -1957065004
0AD4  9D440D00           [212] getglobal  18  53       ; gFinisherActionType
0AD8  22848001           [213] call       16  3   2  
0ADC  18440000           [214] test       16      1    ; to [216] if false
0AE0  1A800280           [215] jmp        11           ; to [227]
0AE4  0EC48305           [216] gettable   16  11  15 
0AE8  24044D08           [217] self       16  16  308  ; -1957065004
0AEC  9D840D00           [218] getglobal  18  54       ; gZipLineActionType
0AF0  22848001           [219] call       16  3   2  
0AF4  18440000           [220] test       16      1    ; to [222] if false
0AF8  1A000180           [221] jmp        5            ; to [227]
0AFC  0EC48305           [222] gettable   16  11  15 
0B00  24C44D08           [223] self       16  16  311  ; -846300631
0B04  97040000           [224] loadbool   18  0   0    ; false
0B08  D7040000           [225] loadbool   19  0   0    ; false
0B0C  22440002           [226] call       16  4   1  
0B10  1403F57F           [227] forloop    12  -43      ; to [185] if loop
0B14  1D440C00           [228] getglobal  16  49       ; gGameRules
0B18  24044D08           [229] self       16  16  308  ; -1957065004
0B1C  9D040E00           [230] getglobal  18  56       ; gLotusGameRulesType
0B20  22848001           [231] call       16  3   2  
0B24  18040000           [232] test       16      0    ; to [234] if true
0B28  1AC00080           [233] jmp        4            ; to [238]
0B2C  1D440C00           [234] getglobal  16  49       ; gGameRules
0B30  24444E08           [235] self       16  16  313  ; -1168769871
0B34  97048000           [236] loadbool   18  1   0    ; true
0B38  22448001           [237] call       16  3   1  
0B3C  1DC40000           [238] getglobal  16  3        ; gRegion
0B40  24444908           [239] self       16  16  293  ; -1520831144
0B44  22840001           [240] call       16  2   2  
0B48  18440000           [241] test       16      1    ; to [243] if false
0B4C  1A800380           [242] jmp        15           ; to [258]
0B50  1DC40000           [243] getglobal  16  3        ; gRegion
0B54  24844E08           [244] self       16  16  314  ; -1485896174
0B58  9DC40600           [245] getglobal  18  27       ; -332969190
0B5C  D9C40E00           [246] loadk      19  59       ; "Infested"
0B60  A2040001           [247] call       18  2   0  
0B64  22840000           [248] call       16  0   2  
0B68  59440B00           [249] loadk      17  45       ; 0
0B6C  8A040008           [250] len        18  16     
0B70  D9440B00           [251] loadk      19  45       ; 0
0B74  50C40080           [252] forprep    17  4        ; to [257]
0B78  5DC50000           [253] getglobal  21  3        ; gRegion
0B7C  6405CF0A           [254] self       21  21  316  ; -1693828985
0B80  CE050508           [255] gettable   23  16  20 
0B84  62458001           [256] call       21  3   1  
0B88  5484FE7F           [257] forloop    17  -5       ; to [253] if loop
0B8C  5DC50000           [258] getglobal  21  3        ; gRegion
0B90  6445C90A           [259] self       21  21  293  ; -1520831144
0B94  62850001           [260] call       21  2   2  
0B98  58050000           [261] test       21      0    ; to [263] if true
0B9C  1A400680           [262] jmp        26           ; to [289]
0BA0  5D850400           [263] getglobal  21  18       ; 538022378
0BA4  99C50100           [264] loadk      22  7        ; 0
0BA8  62450001           [265] call       21  2   1  
0BAC  64C5C400           [266] self       21  1   275  ; 1839670529
0BB0  62850001           [267] call       21  2   2  
0BB4  A445CF00           [268] self       22  1   317  ; -365711519
0BB8  A2850001           [269] call       22  2   2  
0BBC  84854F0B           [270] mul        22  22  318  ; -102
0BC0  4385850A           [271] add        21  21  22 
0BC4  8E05C50A           [272] gettable   22  21  276  ; "y"
0BC8  83C54F0B           [273] add        22  22  319  ; -51
0BCC  4C85058A           [274] settable   21  276 22   ; "y"
0BD0  9DC50000           [275] getglobal  22  3        ; gRegion
0BD4  A405410B           [276] self       22  22  260  ; -1110225722
0BD8  12068002           [277] move       24  5      
0BDC  5206800A           [278] move       25  21     
0BE0  9D460300           [279] getglobal  26  13       ; ZERO_ROTATION
0BE4  C606000E           [280] loadnil    27  28     
0BE8  A2458003           [281] call       22  7   1  
0BEC  9DC50000           [282] getglobal  22  3        ; gRegion
0BF0  A405410B           [283] self       22  22  260  ; -1110225722
0BF4  12060003           [284] move       24  6      
0BF8  5206800A           [285] move       25  21     
0BFC  9D460300           [286] getglobal  26  13       ; ZERO_ROTATION
0C00  C606000E           [287] loadnil    27  28     
0C04  A2458003           [288] call       22  7   1  
0C08  1E008000           [289] return     0   1      
                         * constants:
0C0C  40                 sizek (64)
0C0D  04                 const type 4
0C0E  08                 string size (8)
0C0F  6D4973446F6A6F00   "mIsDojo\0"
                         const [0]: "mIsDojo"
0C17  01                 const type 3
0C18  65770E40           const [1]: (1074689893)
0C1C  04                 const type 4
0C1D  0C                 string size (12)
0C1E  6D43616D65726153+  "mCameraS"
0C26  706F7400           "pot\0"
                         const [2]: "mCameraSpot"
0C2A  04                 const type 4
0C2B  08                 string size (8)
0C2C  67526567696F6E00   "gRegion\0"
                         const [3]: "gRegion"
0C34  01                 const type 3
0C35  C64CD3BD           const [4]: (-1110225722)
0C39  01                 const type 3
0C3A  92F1BA0B           const [5]: (196800914)
0C3E  01                 const type 3
0C3F  00971C22           const [6]: (572299008)
0C43  03                 const type 3
0C44  00000000           const [7]: (0)
0C48  03                 const type 3
0C49  0000C03F           const [8]: (0)
0C4D  01                 const type 3
0C4E  81624F1E           const [9]: (508519041)
0C52  04                 const type 4
0C53  03                 string size (3)
0C54  5F5400             "_T\0"
                         const [10]: "_T"
0C57  04                 const type 4
0C58  15                 string size (21)
0C59  50686F746F426F6F+  "PhotoBoo"
0C61  746843616D657261+  "thCamera"
0C69  53706F7400         "Spot\0"
                         const [11]: "PhotoBoothCameraSpot"
0C6E  04                 const type 4
0C6F  0C                 string size (12)
0C70  5A45524F5F564543+  "ZERO_VEC"
0C78  544F5200           "TOR\0"
                         const [12]: "ZERO_VECTOR"
0C7C  04                 const type 4
0C7D  0E                 string size (14)
0C7E  5A45524F5F524F54+  "ZERO_ROT"
0C86  4154494F4E00       "ATION\0"
                         const [13]: "ZERO_ROTATION"
0C8C  01                 const type 3
0C8D  DD8258DE           const [14]: (-564624675)
0C91  04                 const type 4
0C92  0E                 string size (14)
0C93  6672656543616D41+  "freeCamA"
0C9B  637469766500       "ctive\0"
                         const [15]: "freeCamActive"
0CA1  01                 const type 3
0CA2  DFC73E22           const [16]: (574539743)
0CA6  04                 const type 4
0CA7  08                 string size (8)
0CA8  6D506C6179657200   "mPlayer\0"
                         const [17]: "mPlayer"
0CB0  01                 const type 3
0CB1  EA911120           const [18]: (538022378)
0CB5  01                 const type 3
0CB6  0125A76D           const [19]: (1839670529)
0CBA  04                 const type 4
0CBB  02                 string size (2)
0CBC  7900               "y\0"
                         const [20]: "y"
0CBE  03                 const type 3
0CBF  00000040           const [21]: (0)
0CC3  04                 const type 4
0CC4  0E                 string size (14)
0CC5  6D43616D65726141+  "mCameraA"
0CCD  766174617200       "vatar\0"
                         const [22]: "mCameraAvatar"
0CD3  01                 const type 3
0CD4  49783AF2           const [23]: (-231049143)
0CD8  01                 const type 3
0CD9  D878E506           const [24]: (115701976)
0CDD  01                 const type 3
0CDE  0BDABD7D           const [25]: (2109594123)
0CE2  01                 const type 3
0CE3  DF7436B0           const [26]: (-1338608417)
0CE7  01                 const type 3
0CE8  1A4B27EC           const [27]: (-332969190)
0CEC  04                 const type 4
0CED  06                 string size (6)
0CEE  54454E4E4F00       "TENNO\0"
                         const [28]: "TENNO"
0CF4  01                 const type 3
0CF5  5357C609           const [29]: (163993427)
0CF9  01                 const type 3
0CFA  CF360B82           const [30]: (-2113194289)
0CFE  01                 const type 3
0CFF  92462224           const [31]: (606226066)
0D03  01                 const type 3
0D04  FC120088           const [32]: (-2013261060)
0D08  01                 const type 3
0D09  70BA8B26           const [33]: (646691440)
0D0D  01                 const type 3
0D0E  6B25B193           const [34]: (-1817107093)
0D12  04                 const type 4
0D13  25                 string size (37)
0D14  696E697469616C69+  "initiali"
0D1C  7A65642070686F74+  "zed phot"
0D24  6F626F6F74682063+  "obooth c"
0D2C  616D657261206176+  "amera av"
0D34  6174617200         "atar\0"
                         const [35]: "initialized photobooth camera avatar"
0D39  01                 const type 3
0D3A  BAA96B55           const [36]: (1433119162)
0D3E  01                 const type 3
0D3F  58F559A5           const [37]: (-1520831144)
0D43  01                 const type 3
0D44  1FD0B58D           const [38]: (-1917464545)
0D48  01                 const type 3
0D49  98BADA30           const [39]: (819640984)
0D4D  04                 const type 4
0D4E  0F                 string size (15)
0D4F  6D436F6E74726F6C+  "mControl"
0D57  734D6F76696500     "sMovie\0"
                         const [40]: "mControlsMovie"
0D5E  04                 const type 4
0D5F  0A                 string size (10)
0D60  67466C6173684D67+  "gFlashMg"
0D68  7200               "r\0"
                         const [41]: "gFlashMgr"
0D6A  01                 const type 3
0D6B  3C924875           const [42]: (1967690300)
0D6F  01                 const type 3
0D70  009A1309           const [43]: (152279552)
0D74  04                 const type 4
0D75  13                 string size (19)
0D76  67436F6E74657874+  "gContext"
0D7E  416374696F6E5479+  "ActionTy"
0D86  706500             "pe\0"
                         const [44]: "gContextActionType"
0D89  03                 const type 3
0D8A  0000803F           const [45]: (0)
0D8E  01                 const type 3
0D8F  FF2A83CE           const [46]: (-830264577)
0D93  04                 const type 4
0D94  08                 string size (8)
0D95  417273656E616C00   "Arsenal\0"
                         const [47]: "Arsenal"
0D9D  01                 const type 3
0D9E  F182CD38           const [48]: (952992497)
0DA2  04                 const type 4
0DA3  0B                 string size (11)
0DA4  6747616D6552756C+  "gGameRul"
0DAC  657300             "es\0"
                         const [49]: "gGameRules"
0DAF  01                 const type 3
0DB0  F08D69E6           const [50]: (-429290000)
0DB4  04                 const type 4
0DB5  0E                 string size (14)
0DB6  436F6E736F6C6541+  "ConsoleA"
0DBE  637469766500       "ctive\0"
                         const [51]: "ConsoleActive"
0DC4  01                 const type 3
0DC5  D48E598B           const [52]: (-1957065004)
0DC9  04                 const type 4
0DCA  14                 string size (20)
0DCB  6746696E69736865+  "gFinishe"
0DD3  72416374696F6E54+  "rActionT"
0DDB  79706500           "ype\0"
                         const [53]: "gFinisherActionType"
0DDF  04                 const type 4
0DE0  13                 string size (19)
0DE1  675A69704C696E65+  "gZipLine"
0DE9  416374696F6E5479+  "ActionTy"
0DF1  706500             "pe\0"
                         const [54]: "gZipLineActionType"
0DF4  01                 const type 3
0DF5  297A8ECD           const [55]: (-846300631)
0DF9  04                 const type 4
0DFA  14                 string size (20)
0DFB  674C6F7475734761+  "gLotusGa"
0E03  6D6552756C657354+  "meRulesT"
0E0B  79706500           "ype\0"
                         const [56]: "gLotusGameRulesType"
0E0F  01                 const type 3
0E10  B1FC55BA           const [57]: (-1168769871)
0E14  01                 const type 3
0E15  12066FA7           const [58]: (-1485896174)
0E19  04                 const type 4
0E1A  09                 string size (9)
0E1B  496E666573746564+  "Infested"
0E23  00                 "\0"
                         const [59]: "Infested"
0E24  01                 const type 3
0E25  87380A9B           const [60]: (-1693828985)
0E29  01                 const type 3
0E2A  61AF33EA           const [61]: (-365711519)
0E2E  03                 const type 3
0E2F  9A99193F           const [62]: (-102)
0E33  03                 const type 3
0E34  CDCC8C3F           const [63]: (-51)
                         * functions:
0E38  00                 sizep (0)
                         * lines:
0E3A  02                 sizelineinfo (289)
                         [pc] (line)
0E3B  3B                 [001] (59)
0E3C  00                 [002] (59)
0E3D  00                 [003] (59)
0E3E  00                 [004] (60)
0E3F  3B                 [005] (60)
0E40  00                 [006] (60)
0E41  00                 [007] (60)
0E42  00                 [008] (60)
0E43  3B                 [009] (61)
0E44  00                 [010] (61)
0E45  00                 [011] (61)
0E46  00                 [012] (61)
0E47  3C                 [013] (61)
0E48  00                 [014] (61)
0E49  00                 [015] (61)
0E4A  00                 [016] (61)
0E4B  3C                 [017] (61)
0E4C  00                 [018] (61)
0E4D  00                 [019] (61)
0E4E  00                 [020] (61)
0E4F  3C                 [021] (61)
0E50  00                 [022] (61)
0E51  00                 [023] (61)
0E52  00                 [024] (62)
0E53  3C                 [025] (62)
0E54  00                 [026] (62)
0E55  00                 [027] (63)
0E56  00                 [028] (65)
0E57  3C                 [029] (65)
0E58  00                 [030] (65)
0E59  00                 [031] (65)
0E5A  00                 [032] (65)
0E5B  3D                 [033] (66)
0E5C  00                 [034] (66)
0E5D  00                 [035] (66)
0E5E  00                 [036] (66)
0E5F  3D                 [037] (66)
0E60  00                 [038] (66)
0E61  00                 [039] (66)
0E62  00                 [040] (67)
0E63  3D                 [041] (67)
0E64  00                 [042] (67)
0E65  00                 [043] (71)
0E66  00                 [044] (71)
0E67  3D                 [045] (72)
0E68  00                 [046] (72)
0E69  00                 [047] (72)
0E6A  00                 [048] (72)
0E6B  3D                 [049] (72)
0E6C  00                 [050] (73)
0E6D  00                 [051] (73)
0E6E  00                 [052] (73)
0E6F  3D                 [053] (73)
0E70  00                 [054] (74)
0E71  00                 [055] (77)
0E72  00                 [056] (77)
0E73  3D                 [057] (77)
0E74  00                 [058] (79)
0E75  00                 [059] (79)
0E76  00                 [060] (79)
0E77  3D                 [061] (79)
0E78  00                 [062] (79)
0E79  00                 [063] (80)
0E7A  00                 [064] (83)
0E7B  3D                 [065] (83)
0E7C  00                 [066] (84)
0E7D  00                 [067] (84)
0E7E  00                 [068] (84)
0E7F  3D                 [069] (85)
0E80  00                 [070] (85)
0E81  00                 [071] (85)
0E82  00                 [072] (85)
0E83  3D                 [073] (85)
0E84  00                 [074] (85)
0E85  00                 [075] (85)
0E86  00                 [076] (85)
0E87  3D                 [077] (86)
0E88  00                 [078] (86)
0E89  00                 [079] (86)
0E8A  00                 [080] (86)
0E8B  3D                 [081] (86)
0E8C  00                 [082] (87)
0E8D  00                 [083] (87)
0E8E  00                 [084] (87)
0E8F  3D                 [085] (88)
0E90  00                 [086] (88)
0E91  00                 [087] (88)
0E92  00                 [088] (88)
0E93  3D                 [089] (89)
0E94  00                 [090] (89)
0E95  00                 [091] (89)
0E96  00                 [092] (89)
0E97  3E                 [093] (89)
0E98  00                 [094] (89)
0E99  00                 [095] (90)
0E9A  00                 [096] (90)
0E9B  3E                 [097] (90)
0E9C  00                 [098] (90)
0E9D  00                 [099] (91)
0E9E  00                 [100] (91)
0E9F  3E                 [101] (91)
0EA0  00                 [102] (91)
0EA1  00                 [103] (92)
0EA2  00                 [104] (92)
0EA3  3F                 [105] (92)
0EA4  00                 [106] (92)
0EA5  00                 [107] (93)
0EA6  00                 [108] (93)
0EA7  41                 [109] (93)
0EA8  00                 [110] (93)
0EA9  00                 [111] (94)
0EAA  00                 [112] (94)
0EAB  41                 [113] (94)
0EAC  00                 [114] (94)
0EAD  00                 [115] (95)
0EAE  00                 [116] (95)
0EAF  41                 [117] (95)
0EB0  00                 [118] (96)
0EB1  00                 [119] (96)
0EB2  00                 [120] (96)
0EB3  41                 [121] (99)
0EB4  00                 [122] (99)
0EB5  00                 [123] (99)
0EB6  00                 [124] (99)
0EB7  41                 [125] (100)
0EB8  00                 [126] (100)
0EB9  00                 [127] (100)
0EBA  00                 [128] (100)
0EBB  42                 [129] (102)
0EBC  00                 [130] (102)
0EBD  00                 [131] (102)
0EBE  00                 [132] (102)
0EBF  42                 [133] (102)
0EC0  00                 [134] (103)
0EC1  00                 [135] (103)
0EC2  00                 [136] (103)
0EC3  42                 [137] (104)
0EC4  00                 [138] (104)
0EC5  00                 [139] (105)
0EC6  00                 [140] (105)
0EC7  42                 [141] (105)
0EC8  00                 [142] (105)
0EC9  00                 [143] (105)
0ECA  00                 [144] (106)
0ECB  42                 [145] (106)
0ECC  00                 [146] (107)
0ECD  00                 [147] (107)
0ECE  00                 [148] (107)
0ECF  42                 [149] (107)
0ED0  00                 [150] (107)
0ED1  00                 [151] (108)
0ED2  00                 [152] (108)
0ED3  42                 [153] (108)
0ED4  00                 [154] (113)
0ED5  00                 [155] (113)
0ED6  00                 [156] (113)
0ED7  43                 [157] (114)
0ED8  00                 [158] (114)
0ED9  00                 [159] (114)
0EDA  00                 [160] (114)
0EDB  43                 [161] (114)
0EDC  00                 [162] (114)
0EDD  00                 [163] (114)
0EDE  00                 [164] (114)
0EDF  43                 [165] (114)
0EE0  00                 [166] (114)
0EE1  00                 [167] (114)
0EE2  00                 [168] (114)
0EE3  47                 [169] (114)
0EE4  00                 [170] (114)
0EE5  00                 [171] (114)
0EE6  00                 [172] (115)
0EE7  47                 [173] (115)
0EE8  00                 [174] (115)
0EE9  00                 [175] (115)
0EEA  00                 [176] (115)
0EEB  48                 [177] (118)
0EEC  00                 [178] (118)
0EED  00                 [179] (118)
0EEE  00                 [180] (118)
0EEF  48                 [181] (119)
0EF0  00                 [182] (119)
0EF1  00                 [183] (119)
0EF2  00                 [184] (119)
0EF3  48                 [185] (120)
0EF4  00                 [186] (120)
0EF5  00                 [187] (120)
0EF6  00                 [188] (120)
0EF7  48                 [189] (120)
0EF8  00                 [190] (120)
0EF9  00                 [191] (120)
0EFA  00                 [192] (120)
0EFB  48                 [193] (121)
0EFC  00                 [194] (121)
0EFD  00                 [195] (121)
0EFE  00                 [196] (121)
0EFF  49                 [197] (122)
0F00  00                 [198] (122)
0F01  00                 [199] (122)
0F02  00                 [200] (122)
0F03  49                 [201] (122)
0F04  00                 [202] (123)
0F05  00                 [203] (123)
0F06  00                 [204] (123)
0F07  49                 [205] (123)
0F08  00                 [206] (123)
0F09  00                 [207] (123)
0F0A  00                 [208] (123)
0F0B  49                 [209] (123)
0F0C  00                 [210] (123)
0F0D  00                 [211] (123)
0F0E  00                 [212] (123)
0F0F  4A                 [213] (123)
0F10  00                 [214] (123)
0F11  00                 [215] (123)
0F12  00                 [216] (123)
0F13  4D                 [217] (123)
0F14  00                 [218] (123)
0F15  00                 [219] (123)
0F16  00                 [220] (123)
0F17  4D                 [221] (123)
0F18  00                 [222] (124)
0F19  00                 [223] (124)
0F1A  00                 [224] (124)
0F1B  4D                 [225] (124)
0F1C  00                 [226] (124)
0F1D  00                 [227] (119)
0F1E  00                 [228] (-128)
0F1F  4F                 [229] (-128)
0F20  00                 [230] (-128)
0F21  00                 [231] (-128)
0F22  00                 [232] (-128)
0F23  4F                 [233] (-128)
0F24  00                 [234] (-127)
0F25  00                 [235] (-127)
0F26  00                 [236] (-127)
0F27  4F                 [237] (-127)
0F28  00                 [238] (-124)
0F29  00                 [239] (-124)
0F2A  00                 [240] (-124)
0F2B  4F                 [241] (-124)
0F2C  00                 [242] (-124)
0F2D  00                 [243] (-123)
0F2E  00                 [244] (-123)
0F2F  4F                 [245] (-123)
0F30  00                 [246] (-123)
0F31  00                 [247] (-123)
0F32  00                 [248] (-123)
0F33  50                 [249] (-122)
0F34  00                 [250] (-122)
0F35  00                 [251] (-122)
0F36  00                 [252] (-122)
0F37  53                 [253] (-121)
0F38  00                 [254] (-121)
0F39  00                 [255] (-121)
0F3A  00                 [256] (-121)
0F3B  53                 [257] (-122)
0F3C  00                 [258] (-117)
0F3D  00                 [259] (-117)
0F3E  00                 [260] (-117)
0F3F  54                 [261] (-117)
0F40  00                 [262] (-117)
0F41  00                 [263] (-116)
0F42  00                 [264] (-116)
0F43  54                 [265] (-116)
0F44  00                 [266] (-115)
0F45  00                 [267] (-115)
0F46  00                 [268] (-115)
0F47  54                 [269] (-115)
0F48  00                 [270] (-115)
0F49  00                 [271] (-115)
0F4A  00                 [272] (-114)
0F4B  55                 [273] (-114)
0F4C  00                 [274] (-114)
0F4D  00                 [275] (-113)
0F4E  00                 [276] (-113)
0F4F  55                 [277] (-113)
0F50  00                 [278] (-113)
0F51  00                 [279] (-113)
0F52  00                 [280] (-113)
0F53  55                 [281] (-113)
0F54  00                 [282] (-112)
0F55  00                 [283] (-112)
0F56  00                 [284] (-112)
0F57  55                 [285] (-112)
0F58  00                 [286] (-112)
0F59  00                 [287] (-112)
0F5A  00                 [288] (-112)
0F5B  55                 [289] (-109)
                         * locals:
12BF  00                 sizelocvars (0)
                         * upvalues:
12C0  00                 sizeupvalues (0)
                         ** end of function **

                         
12C1                     ** function [1] definition (level 3)
                         ** start of function **
12C1  00                 string size (0)
                         source name: (none)
12C3  01                 line defined (149)
12C4  F0                 last line defined (240)
12C5  01                 nups (1)
12C6  01                 numparams (2)
12C7  02                 is_vararg (0)
12C8  00                 maxstacksize (21)
                         * code:
12CB  02                 sizecode (282)
12CC  9D000000           [001] getglobal  2   0        ; _T
12D0  8C80C080           [002] settable   2   257 258  ; "DisableMiniMap" 1
12D4  8EC04000           [003] gettable   2   0   259  ; "mIsDojo"
12D8  98400000           [004] test       2       1    ; to [6] if false
12DC  1A400380           [005] jmp        14           ; to [20]
12E0  A400C100           [006] self       2   1   260  ; -1421644046
12E4  0E414100           [007] gettable   4   0   261  ; "mCameraSequencerType"
12E8  5D810100           [008] getglobal  5   6        ; EMPTY_SYMBOL
12EC  A2400002           [009] call       2   4   1  
12F0  A4C0C100           [010] self       2   1   263  ; 1129512439
12F4  0E014200           [011] gettable   4   0   264  ; "mCameraInputFilter"
12F8  A2408001           [012] call       2   3   1  
12FC  9D400200           [013] getglobal  2   9        ; 2083004503
1300  D9800200           [014] loadk      3   10       ; "/EE/Types/Input/FreeCamInputFilter"
1304  A2800001           [015] call       2   2   2  
1308  E4C0C200           [016] self       3   1   267  ; 1265388858
130C  52010001           [017] move       5   2      
1310  E2408001           [018] call       3   3   1  
1314  1A401480           [019] jmp        82           ; to [102]
1318  DD000300           [020] getglobal  3   12       ; 1074689893
131C  1D410300           [021] getglobal  4   13       ; gGameStatsMgr
1320  E2800001           [022] call       3   2   2  
1324  D8400000           [023] test       3       1    ; to [25] if false
1328  1A001380           [024] jmp        77           ; to [102]
132C  DD000300           [025] getglobal  3   12       ; 1074689893
1330  1D810300           [026] getglobal  4   14       ; gGameRules
1334  E2800001           [027] call       3   2   2  
1338  D8400000           [028] test       3       1    ; to [30] if false
133C  1AC01180           [029] jmp        72           ; to [102]
1340  DD800300           [030] getglobal  3   14       ; gGameRules
1344  E4C0C301           [031] self       3   3   271  ; 2081656303
1348  E2800001           [032] call       3   2   2  
134C  1D010300           [033] getglobal  4   12       ; 1074689893
1350  5D010400           [034] getglobal  5   16       ; gClient
1354  22810001           [035] call       4   2   2  
1358  18410000           [036] test       4       1    ; to [38] if false
135C  1A800180           [037] jmp        7            ; to [45]
1360  1D810300           [038] getglobal  4   14       ; gGameRules
1364  24414402           [039] self       4   4   273  ; -1957065004
1368  9D010400           [040] getglobal  6   16       ; gClient
136C  A4814403           [041] self       6   6   274  ; -1435778573
1370  A2010001           [042] call       6   2   0  
1374  22810000           [043] call       4   0   2  
1378  1A400080           [044] jmp        2            ; to [47]
137C  17410000           [045] loadbool   4   0   1    ; false, to [47]
1380  17018000           [046] loadbool   4   1   0    ; true
1384  D8000000           [047] test       3       0    ; to [49] if true
1388  1AC00A80           [048] jmp        44           ; to [93]
138C  57010000           [049] loadbool   5   0   0    ; false
1390  9D010300           [050] getglobal  6   12       ; 1074689893
1394  DD010000           [051] getglobal  7   0        ; _T
1398  CEC1C403           [052] gettable   7   7   275  ; "DojoMgr"
139C  A2810001           [053] call       6   2   2  
13A0  98410000           [054] test       6       1    ; to [56] if false
13A4  1A800480           [055] jmp        19           ; to [75]
13A8  9D010300           [056] getglobal  6   12       ; 1074689893
13AC  DD010000           [057] getglobal  7   0        ; _T
13B0  CEC1C403           [058] gettable   7   7   275  ; "DojoMgr"
13B4  CE01C503           [059] gettable   7   7   276  ; "mJsonProcLevelHelper"
13B8  A2810001           [060] call       6   2   2  
13BC  98410000           [061] test       6       1    ; to [63] if false
13C0  1AC00280           [062] jmp        12           ; to [75]
13C4  9D010000           [063] getglobal  6   0        ; _T
13C8  8EC14403           [064] gettable   6   6   275  ; "DojoMgr"
13CC  8E014503           [065] gettable   6   6   276  ; "mJsonProcLevelHelper"
13D0  A4414503           [066] self       6   6   277  ; -2006670496
13D4  A2810001           [067] call       6   2   2  
13D8  A4814503           [068] self       6   6   278  ; -491574171
13DC  A2810001           [069] call       6   2   2  
13E0  D3010000           [070] getupval   7   0      
fail op	35
13E4  63C00103           [071] close      1  
13E8  1A000080           [072] jmp        1            ; to [74]
13EC  57410000           [073] loadbool   5   0   1    ; false, to [75]
13F0  57018000           [074] loadbool   5   1   0    ; true
13F4  58010000           [075] test       5       0    ; to [77] if true
13F8  1AC00180           [076] jmp        8            ; to [85]
13FC  DD410300           [077] getglobal  7   13       ; gGameStatsMgr
1400  E4C1C503           [078] self       7   7   279  ; -805743707
1404  5D020600           [079] getglobal  9   24       ; -332969190
1408  99420600           [080] loadk      10  25       ; "DECO_TIME.OBST"
140C  62820001           [081] call       9   2   2  
1410  99820600           [082] loadk      10  26       ; "DECORATE_COURSE"
1414  E2410002           [083] call       7   4   1  
1418  1A000480           [084] jmp        17           ; to [102]
141C  DD410300           [085] getglobal  7   13       ; gGameStatsMgr
1420  E4C1C503           [086] self       7   7   279  ; -805743707
1424  5D020600           [087] getglobal  9   24       ; -332969190
1428  99C20600           [088] loadk      10  27       ; "DECO_TIME.DOJO"
142C  62820001           [089] call       9   2   2  
1430  99020700           [090] loadk      10  28       ; "DECORATE_DOJO"
1434  E2410002           [091] call       7   4   1  
1438  1A000280           [092] jmp        9            ; to [102]
143C  18010000           [093] test       4       0    ; to [95] if true
1440  1A800180           [094] jmp        7            ; to [102]
1444  DD410300           [095] getglobal  7   13       ; gGameStatsMgr
1448  E4C1C503           [096] self       7   7   279  ; -805743707
144C  5D020600           [097] getglobal  9   24       ; -332969190
1450  99420700           [098] loadk      10  29       ; "DECO_TIME.SHIP"
1454  62820001           [099] call       9   2   2  
1458  99820700           [100] loadk      10  30       ; "DECORATE_SHIP"
145C  E2410002           [101] call       7   4   1  
1460  DD010000           [102] getglobal  7   0        ; _T
1464  CC81C08F           [103] settable   7   287 258  ; "freeCamActive" 1
1468  CE014800           [104] gettable   7   0   288  ; "mPlayer"
146C  E441C803           [105] self       7   7   289  ; -1936482629
1470  E2810001           [106] call       7   2   2  
1474  0E824800           [107] gettable   8   0   290  ; "mDefaultCamSpeed"
1478  5DC20800           [108] getglobal  9   35       ; gPlayerProfileMgr
147C  6402C904           [109] self       9   9   292  ; 569342746
1480  D9420900           [110] loadk      11  37       ; 0
1484  62828001           [111] call       9   3   2  
1488  9D020300           [112] getglobal  10  12       ; 1074689893
148C  D2028004           [113] move       11  9      
1490  A2820001           [114] call       10  2   2  
1494  98420000           [115] test       10      1    ; to [117] if false
1498  1A800480           [116] jmp        19           ; to [136]
149C  A482C904           [117] self       10  9   294  ; 1055613230
14A0  A2820001           [118] call       10  2   2  
14A4  DD020300           [119] getglobal  11  12       ; 1074689893
14A8  12030005           [120] move       12  10     
14AC  E2820001           [121] call       11  2   2  
14B0  D8420000           [122] test       11      1    ; to [124] if false
14B4  1AC00280           [123] jmp        12           ; to [136]
14B8  DD820300           [124] getglobal  11  14       ; gGameRules
14BC  E4C2C305           [125] self       11  11  271  ; 2081656303
14C0  E2820001           [126] call       11  2   2  
14C4  D8020000           [127] test       11      0    ; to [129] if true
14C8  1AC00080           [128] jmp        4            ; to [133]
14CC  24C34905           [129] self       12  10  295  ; 1651384550
14D0  22830001           [130] call       12  2   2  
14D4  12020006           [131] move       8   12     
14D8  1A800080           [132] jmp        3            ; to [136]
14DC  24034A05           [133] self       12  10  296  ; -727034352
14E0  22830001           [134] call       12  2   2  
14E4  12020006           [135] move       8   12     
14E8  2443CA03           [136] self       12  7   297  ; 1024045969
14EC  92030004           [137] move       14  8      
14F0  22438001           [138] call       12  3   1  
14F4  1D030000           [139] getglobal  12  0        ; _T
14F8  4E034800           [140] gettable   13  0   288  ; "mPlayer"
14FC  64C3CA06           [141] self       13  13  299  ; -72146227
1500  62830001           [142] call       13  2   2  
1504  0C430395           [143] settable   12  298 13   ; "freeCamControlsVis"
1508  2403CB00           [144] self       12  1   300  ; 1525877273
150C  22830001           [145] call       12  2   2  
1510  5D030300           [146] getglobal  13  12       ; 1074689893
1514  92030006           [147] move       14  12     
1518  62830001           [148] call       13  2   2  
151C  58430000           [149] test       13      1    ; to [151] if false
1520  1A000280           [150] jmp        9            ; to [160]
1524  5D030300           [151] getglobal  13  12       ; 1074689893
1528  8E434B00           [152] gettable   14  0   301  ; "mCameraSpot"
152C  62830001           [153] call       13  2   2  
1530  58430000           [154] test       13      1    ; to [156] if false
1534  1AC00080           [155] jmp        4            ; to [160]
1538  64834B06           [156] self       13  12  302  ; 1362416700
153C  CE434B00           [157] gettable   15  0   301  ; "mCameraSpot"
1540  19C40B00           [158] loadk      16  47       ; 10
1544  62430002           [159] call       13  4   1  
1548  6403CC00           [160] self       13  1   304  ; -214694299
154C  DD430C00           [161] getglobal  15  49       ; Engine
1550  CE83CC07           [162] gettable   15  15  306  ; "PM_AIM"
1554  62838001           [163] call       13  3   2  
1558  58030000           [164] test       13      0    ; to [166] if true
155C  1A400480           [165] jmp        18           ; to [184]
1560  4E034800           [166] gettable   13  0   288  ; "mPlayer"
1564  64C3CC06           [167] self       13  13  307  ; -1704783487
1568  62830001           [168] call       13  2   2  
156C  9D030300           [169] getglobal  14  12       ; 1074689893
1570  D2038006           [170] move       15  13     
1574  A2830001           [171] call       14  2   2  
1578  98430000           [172] test       14      1    ; to [174] if false
157C  1A400280           [173] jmp        10           ; to [184]
1580  A403CD06           [174] self       14  13  308  ; 941878546
1584  A2830001           [175] call       14  2   2  
1588  DD030300           [176] getglobal  15  12       ; 1074689893
158C  12040007           [177] move       16  14     
1590  E2830001           [178] call       15  2   2  
1594  D8430000           [179] test       15      1    ; to [181] if false
1598  1A800080           [180] jmp        3            ; to [184]
159C  E4434D07           [181] self       15  14  309  ; 1649906088
15A0  57040000           [182] loadbool   17  0   0    ; false
15A4  E2438001           [183] call       15  3   1  
15A8  CEC34000           [184] gettable   15  0   259  ; "mIsDojo"
15AC  D8430000           [185] test       15      1    ; to [187] if false
15B0  1A000380           [186] jmp        13           ; to [200]
15B4  DD030300           [187] getglobal  15  12       ; 1074689893
15B8  1D840300           [188] getglobal  16  14       ; gGameRules
15BC  E2830001           [189] call       15  2   2  
15C0  D8430000           [190] test       15      1    ; to [192] if false
15C4  1AC00180           [191] jmp        8            ; to [200]
15C8  DD830D00           [192] getglobal  15  54       ; gRegion
15CC  E4C3CD07           [193] self       15  15  311  ; -1520831144
15D0  E2830001           [194] call       15  2   2  
15D4  D8030000           [195] test       15      0    ; to [197] if true
15D8  1A800080           [196] jmp        3            ; to [200]
15DC  DD830300           [197] getglobal  15  14       ; gGameRules
15E0  E403CE07           [198] self       15  15  312  ; -1192670676
15E4  E2430001           [199] call       15  2   1  
15E8  DD030300           [200] getglobal  15  12       ; 1074689893
15EC  0E444E00           [201] gettable   16  0   313  ; "mCameraAvatar"
15F0  E2830001           [202] call       15  2   2  
15F4  D8430000           [203] test       15      1    ; to [205] if false
15F8  1AC00280           [204] jmp        12           ; to [217]
15FC  CE434E00           [205] gettable   15  0   313  ; "mCameraAvatar"
1600  E483CE07           [206] self       15  15  314  ; 606226066
1604  57048000           [207] loadbool   17  1   0    ; true
1608  E2438001           [208] call       15  3   1  
160C  CE434E00           [209] gettable   15  0   313  ; "mCameraAvatar"
1610  E4C3CE07           [210] self       15  15  315  ; -2013261060
1614  57048000           [211] loadbool   17  1   0    ; true
1618  E2438001           [212] call       15  3   1  
161C  CE434E00           [213] gettable   15  0   313  ; "mCameraAvatar"
1620  E403CF07           [214] self       15  15  316  ; 646691440
1624  57048000           [215] loadbool   17  1   0    ; true
1628  E2438001           [216] call       15  3   1  
162C  E443CF00           [217] self       15  1   317  ; 630793108
1630  4E844F00           [218] gettable   17  0   318  ; "mEnterFreeCameraSound"
1634  97040000           [219] loadbool   18  0   0    ; false
1638  DD440C00           [220] getglobal  19  49       ; Engine
163C  CEC4CF09           [221] gettable   19  19  319  ; "SP_VERY_LOW"
1640  17050000           [222] loadbool   20  0   0    ; false
1644  E2430003           [223] call       15  6   1  
1648  DD030300           [224] getglobal  15  12       ; 1074689893
164C  0E444E00           [225] gettable   16  0   313  ; "mCameraAvatar"
1650  E2830001           [226] call       15  2   2  
1654  D8430000           [227] test       15      1    ; to [229] if false
1658  1A000480           [228] jmp        17           ; to [246]
165C  CE434E00           [229] gettable   15  0   313  ; "mCameraAvatar"
1660  E403D007           [230] self       15  15  320  ; 196800914
1664  E2830001           [231] call       15  2   2  
1668  2404D000           [232] self       16  1   320  ; 196800914
166C  22840001           [233] call       16  2   2  
1670  CD038407           [234] sub        15  15  16 
1674  1D441000           [235] getglobal  16  65       ; 562846818
1678  52048007           [236] move       17  15     
167C  22840001           [237] call       16  2   2  
1680  4E845000           [238] gettable   17  0   322  ; "mMinCameraStartDistance"
fail op	21
1684  15008408           [239] concat     0   17  16 
1688  1A000180           [240] jmp        5            ; to [246]
168C  0E444E00           [241] gettable   16  0   313  ; "mCameraAvatar"
1690  24C45008           [242] self       16  16  323  ; 970454089
1694  A404D003           [243] self       18  7   320  ; 196800914
1698  A2040001           [244] call       18  2   0  
169C  22440000           [245] call       16  0   1  
16A0  2404D100           [246] self       16  1   324  ; 1408791382
16A4  22840001           [247] call       16  2   2  
16A8  24445108           [248] self       16  16  325  ; 518340870
16AC  9D841100           [249] getglobal  18  70       ; 572299008
16B0  A2048000           [250] call       18  1   0  
16B4  22440000           [251] call       16  0   1  
16B8  0EC44000           [252] gettable   16  0   259  ; "mIsDojo"
16BC  18440000           [253] test       16      1    ; to [255] if false
16C0  1A800680           [254] jmp        27           ; to [282]
16C4  24C4D100           [255] self       16  1   327  ; -1917464545
16C8  22840001           [256] call       16  2   2  
16CC  24045208           [257] self       16  16  328  ; 1769516121
16D0  22840001           [258] call       16  2   2  
16D4  5D040300           [259] getglobal  17  12       ; 1074689893
16D8  92040008           [260] move       18  16     
16DC  62840001           [261] call       17  2   2  
16E0  58440000           [262] test       17      1    ; to [264] if false
16E4  1A400480           [263] jmp        18           ; to [282]
16E8  64445208           [264] self       17  16  329  ; 459148904
16EC  62840001           [265] call       17  2   2  
16F0  9D040300           [266] getglobal  18  12       ; 1074689893
16F4  D2048008           [267] move       19  17     
16F8  A2840001           [268] call       18  2   2  
16FC  98440000           [269] test       18      1    ; to [271] if false
1700  1A800280           [270] jmp        11           ; to [282]
1704  9D841200           [271] getglobal  18  74       ; gFlashMgr
1708  A4C45209           [272] self       18  18  331  ; 1634586770
170C  12058008           [273] move       20  17     
1710  A2848001           [274] call       18  3   2  
1714  DD040300           [275] getglobal  19  12       ; 1074689893
1718  12050009           [276] move       20  18     
171C  E2840001           [277] call       19  2   2  
1720  D8440000           [278] test       19      1    ; to [280] if false
1724  1A400080           [279] jmp        2            ; to [282]
1728  E4045309           [280] self       19  18  332  ; -1517569684
172C  E2440001           [281] call       19  2   1  
1730  1E008000           [282] return     0   1      
                         * constants:
1734  4D                 sizek (77)
1735  04                 const type 4
1736  03                 string size (3)
1737  5F5400             "_T\0"
                         const [0]: "_T"
173A  04                 const type 4
173B  0F                 string size (15)
173C  44697361626C654D+  "DisableM"
1744  696E694D617000     "iniMap\0"
                         const [1]: "DisableMiniMap"
174B  01                 const type 3
174C  01000000           const [2]: (1)
1750  04                 const type 4
1751  08                 string size (8)
1752  6D4973446F6A6F00   "mIsDojo\0"
                         const [3]: "mIsDojo"
175A  01                 const type 3
175B  F26E43AB           const [4]: (-1421644046)
175F  04                 const type 4
1760  15                 string size (21)
1761  6D43616D65726153+  "mCameraS"
1769  657175656E636572+  "equencer"
1771  5479706500         "Type\0"
                         const [5]: "mCameraSequencerType"
1776  04                 const type 4
1777  0D                 string size (13)
1778  454D5054595F5359+  "EMPTY_SY"
1780  4D424F4C00         "MBOL\0"
                         const [6]: "EMPTY_SYMBOL"
1785  01                 const type 3
1786  F7FD5243           const [7]: (1129512439)
178A  04                 const type 4
178B  13                 string size (19)
178C  6D43616D65726149+  "mCameraI"
1794  6E70757446696C74+  "nputFilt"
179C  657200             "er\0"
                         const [8]: "mCameraInputFilter"
179F  01                 const type 3
17A0  5720287C           const [9]: (2083004503)
17A4  04                 const type 4
17A5  23                 string size (35)
17A6  2F45452F54797065+  "/EE/Type"
17AE  732F496E7075742F+  "s/Input/"
17B6  4672656543616D49+  "FreeCamI"
17BE  6E70757446696C74+  "nputFilt"
17C6  657200             "er\0"
                         const [10]: "/EE/Types/Input/FreeCamInputFilter"
17C9  01                 const type 3
17CA  3A4D6C4B           const [11]: (1265388858)
17CE  01                 const type 3
17CF  65770E40           const [12]: (1074689893)
17D3  04                 const type 4
17D4  0E                 string size (14)
17D5  6747616D65537461+  "gGameSta"
17DD  74734D677200       "tsMgr\0"
                         const [13]: "gGameStatsMgr"
17E3  04                 const type 4
17E4  0B                 string size (11)
17E5  6747616D6552756C+  "gGameRul"
17ED  657300             "es\0"
                         const [14]: "gGameRules"
17F0  01                 const type 3
17F1  EF8D137C           const [15]: (2081656303)
17F5  04                 const type 4
17F6  08                 string size (8)
17F7  67436C69656E7400   "gClient\0"
                         const [16]: "gClient"
17FF  01                 const type 3
1800  D48E598B           const [17]: (-1957065004)
1804  01                 const type 3
1805  F3C16BAA           const [18]: (-1435778573)
1809  04                 const type 4
180A  08                 string size (8)
180B  446F6A6F4D677200   "DojoMgr\0"
                         const [19]: "DojoMgr"
1813  04                 const type 4
1814  15                 string size (21)
1815  6D4A736F6E50726F+  "mJsonPro"
181D  634C6576656C4865+  "cLevelHe"
1825  6C70657200         "lper\0"
                         const [20]: "mJsonProcLevelHelper"
182A  01                 const type 3
182B  60A36488           const [21]: (-2006670496)
182F  01                 const type 3
1830  652CB3E2           const [22]: (-491574171)
1834  01                 const type 3
1835  A553F9CF           const [23]: (-805743707)
1839  01                 const type 3
183A  1A4B27EC           const [24]: (-332969190)
183E  04                 const type 4
183F  0F                 string size (15)
1840  4445434F5F54494D+  "DECO_TIM"
1848  452E4F42535400     "E.OBST\0"
                         const [25]: "DECO_TIME.OBST"
184F  04                 const type 4
1850  10                 string size (16)
1851  4445434F52415445+  "DECORATE"
1859  5F434F5552534500   "_COURSE\0"
                         const [26]: "DECORATE_COURSE"
1861  04                 const type 4
1862  0F                 string size (15)
1863  4445434F5F54494D+  "DECO_TIM"
186B  452E444F4A4F00     "E.DOJO\0"
                         const [27]: "DECO_TIME.DOJO"
1872  04                 const type 4
1873  0E                 string size (14)
1874  4445434F52415445+  "DECORATE"
187C  5F444F4A4F00       "_DOJO\0"
                         const [28]: "DECORATE_DOJO"
1882  04                 const type 4
1883  0F                 string size (15)
1884  4445434F5F54494D+  "DECO_TIM"
188C  452E5348495000     "E.SHIP\0"
                         const [29]: "DECO_TIME.SHIP"
1893  04                 const type 4
1894  0E                 string size (14)
1895  4445434F52415445+  "DECORATE"
189D  5F5348495000       "_SHIP\0"
                         const [30]: "DECORATE_SHIP"
18A3  04                 const type 4
18A4  0E                 string size (14)
18A5  6672656543616D41+  "freeCamA"
18AD  637469766500       "ctive\0"
                         const [31]: "freeCamActive"
18B3  04                 const type 4
18B4  08                 string size (8)
18B5  6D506C6179657200   "mPlayer\0"
                         const [32]: "mPlayer"
18BD  01                 const type 3
18BE  BB9E938C           const [33]: (-1936482629)
18C2  04                 const type 4
18C3  11                 string size (17)
18C4  6D44656661756C74+  "mDefault"
18CC  43616D5370656564+  "CamSpeed"
18D4  00                 "\0"
                         const [34]: "mDefaultCamSpeed"
18D5  04                 const type 4
18D6  12                 string size (18)
18D7  67506C6179657250+  "gPlayerP"
18DF  726F66696C654D67+  "rofileMg"
18E7  7200               "r\0"
                         const [35]: "gPlayerProfileMgr"
18E9  01                 const type 3
18EA  1A7BEF21           const [36]: (569342746)
18EE  03                 const type 3
18EF  00000000           const [37]: (0)
18F3  01                 const type 3
18F4  2E61EB3E           const [38]: (1055613230)
18F8  01                 const type 3
18F9  E6206E62           const [39]: (1651384550)
18FD  01                 const type 3
18FE  1056AAD4           const [40]: (-727034352)
1902  01                 const type 3
1903  91B3093D           const [41]: (1024045969)
1907  04                 const type 4
1908  13                 string size (19)
1909  6672656543616D43+  "freeCamC"
1911  6F6E74726F6C7356+  "ontrolsV"
1919  697300             "is\0"
                         const [42]: "freeCamControlsVis"
191C  01                 const type 3
191D  CD22B3FB           const [43]: (-72146227)
1921  01                 const type 3
1922  190AF35A           const [44]: (1525877273)
1926  04                 const type 4
1927  0C                 string size (12)
1928  6D43616D65726153+  "mCameraS"
1930  706F7400           "pot\0"
                         const [45]: "mCameraSpot"
1934  01                 const type 3
1935  3CD43451           const [46]: (1362416700)
1939  03                 const type 3
193A  0AD7233C           const [47]: (10)
193E  01                 const type 3
193F  650634F3           const [48]: (-214694299)
1943  04                 const type 4
1944  07                 string size (7)
1945  456E67696E6500     "Engine\0"
                         const [49]: "Engine"
194C  04                 const type 4
194D  07                 string size (7)
194E  504D5F41494D00     "PM_AIM\0"
                         const [50]: "PM_AIM"
1955  01                 const type 3
1956  8111639A           const [51]: (-1704783487)
195A  01                 const type 3
195B  12ED2338           const [52]: (941878546)
195F  01                 const type 3
1960  A8915762           const [53]: (1649906088)
1964  04                 const type 4
1965  08                 string size (8)
1966  67526567696F6E00   "gRegion\0"
                         const [54]: "gRegion"
196E  01                 const type 3
196F  58F559A5           const [55]: (-1520831144)
1973  01                 const type 3
1974  2C4AE9B8           const [56]: (-1192670676)
1978  04                 const type 4
1979  0E                 string size (14)
197A  6D43616D65726141+  "mCameraA"
1982  766174617200       "vatar\0"
                         const [57]: "mCameraAvatar"
1988  01                 const type 3
1989  92462224           const [58]: (606226066)
198D  01                 const type 3
198E  FC120088           const [59]: (-2013261060)
1992  01                 const type 3
1993  70BA8B26           const [60]: (646691440)
1997  01                 const type 3
1998  94239925           const [61]: (630793108)
199C  04                 const type 4
199D  16                 string size (22)
199E  6D456E7465724672+  "mEnterFr"
19A6  656543616D657261+  "eeCamera"
19AE  536F756E6400       "Sound\0"
                         const [62]: "mEnterFreeCameraSound"
19B4  04                 const type 4
19B5  0C                 string size (12)
19B6  53505F564552595F+  "SP_VERY_"
19BE  4C4F5700           "LOW\0"
                         const [63]: "SP_VERY_LOW"
19C2  01                 const type 3
19C3  92F1BA0B           const [64]: (196800914)
19C7  01                 const type 3
19C8  625C8C21           const [65]: (562846818)
19CC  04                 const type 4
19CD  18                 string size (24)
19CE  6D4D696E43616D65+  "mMinCame"
19D6  7261537461727444+  "raStartD"
19DE  697374616E636500   "istance\0"
                         const [66]: "mMinCameraStartDistance"
19E6  01                 const type 3
19E7  49F4D739           const [67]: (970454089)
19EB  01                 const type 3
19EC  5673F853           const [68]: (1408791382)
19F0  01                 const type 3
19F1  0641E51E           const [69]: (518340870)
19F5  01                 const type 3
19F6  00971C22           const [70]: (572299008)
19FA  01                 const type 3
19FB  1FD0B58D           const [71]: (-1917464545)
19FF  01                 const type 3
1A00  59AC7869           const [72]: (1769516121)
1A04  01                 const type 3
1A05  680E5E1B           const [73]: (459148904)
1A09  04                 const type 4
1A0A  0A                 string size (10)
1A0B  67466C6173684D67+  "gFlashMg"
1A13  7200               "r\0"
                         const [74]: "gFlashMgr"
1A15  01                 const type 3
1A16  92D06D61           const [75]: (1634586770)
1A1A  01                 const type 3
1A1B  6CB98BA5           const [76]: (-1517569684)
                         * functions:
1A1F  00                 sizep (0)
                         * lines:
1A21  02                 sizelineinfo (282)
                         [pc] (line)
1A22  96                 [001] (-106)
1A23  00                 [002] (-106)
1A24  00                 [003] (-105)
1A25  00                 [004] (-105)
1A26  96                 [005] (-105)
1A27  00                 [006] (-104)
1A28  00                 [007] (-104)
1A29  00                 [008] (-104)
1A2A  97                 [009] (-104)
1A2B  00                 [010] (-103)
1A2C  00                 [011] (-103)
1A2D  00                 [012] (-103)
1A2E  97                 [013] (-102)
1A2F  00                 [014] (-102)
1A30  00                 [015] (-102)
1A31  00                 [016] (-101)
1A32  97                 [017] (-101)
1A33  00                 [018] (-101)
1A34  00                 [019] (-101)
1A35  00                 [020] (-100)
1A36  98                 [021] (-100)
1A37  00                 [022] (-100)
1A38  00                 [023] (-100)
1A39  00                 [024] (-100)
1A3A  98                 [025] (-100)
1A3B  00                 [026] (-100)
1A3C  00                 [027] (-100)
1A3D  00                 [028] (-100)
1A3E  98                 [029] (-100)
1A3F  00                 [030] (-98)
1A40  00                 [031] (-98)
1A41  00                 [032] (-98)
1A42  98                 [033] (-97)
1A43  00                 [034] (-97)
1A44  00                 [035] (-97)
1A45  00                 [036] (-97)
1A46  99                 [037] (-97)
1A47  00                 [038] (-97)
1A48  00                 [039] (-97)
1A49  00                 [040] (-97)
1A4A  99                 [041] (-97)
1A4B  00                 [042] (-97)
1A4C  00                 [043] (-97)
1A4D  00                 [044] (-97)
1A4E  99                 [045] (-97)
1A4F  00                 [046] (-97)
1A50  00                 [047] (-96)
1A51  00                 [048] (-96)
1A52  9A                 [049] (-95)
1A53  00                 [050] (-94)
1A54  00                 [051] (-94)
1A55  00                 [052] (-94)
1A56  9A                 [053] (-94)
1A57  00                 [054] (-94)
1A58  00                 [055] (-94)
1A59  00                 [056] (-94)
1A5A  9A                 [057] (-94)
1A5B  00                 [058] (-94)
1A5C  00                 [059] (-94)
1A5D  00                 [060] (-94)
1A5E  9B                 [061] (-94)
1A5F  00                 [062] (-94)
1A60  00                 [063] (-93)
1A61  00                 [064] (-93)
1A62  9B                 [065] (-93)
1A63  00                 [066] (-93)
1A64  00                 [067] (-93)
1A65  00                 [068] (-93)
1A66  9B                 [069] (-93)
1A67  00                 [070] (-92)
1A68  00                 [071] (-92)
1A69  00                 [072] (-92)
1A6A  9B                 [073] (-92)
1A6B  00                 [074] (-92)
1A6C  00                 [075] (-90)
1A6D  00                 [076] (-90)
1A6E  9C                 [077] (-89)
1A6F  00                 [078] (-89)
1A70  00                 [079] (-89)
1A71  00                 [080] (-89)
1A72  9C                 [081] (-89)
1A73  00                 [082] (-89)
1A74  00                 [083] (-89)
1A75  00                 [084] (-89)
1A76  9C                 [085] (-87)
1A77  00                 [086] (-87)
1A78  00                 [087] (-87)
1A79  00                 [088] (-87)
1A7A  9C                 [089] (-87)
1A7B  00                 [090] (-87)
1A7C  00                 [091] (-87)
1A7D  00                 [092] (-86)
1A7E  9C                 [093] (-85)
1A7F  00                 [094] (-85)
1A80  00                 [095] (-84)
1A81  00                 [096] (-84)
1A82  9C                 [097] (-84)
1A83  00                 [098] (-84)
1A84  00                 [099] (-84)
1A85  00                 [100] (-84)
1A86  9C                 [101] (-84)
1A87  00                 [102] (-81)
1A88  00                 [103] (-81)
1A89  00                 [104] (-80)
1A8A  9C                 [105] (-80)
1A8B  00                 [106] (-80)
1A8C  00                 [107] (-79)
1A8D  00                 [108] (-78)
1A8E  9C                 [109] (-78)
1A8F  00                 [110] (-78)
1A90  00                 [111] (-78)
1A91  00                 [112] (-77)
1A92  9C                 [113] (-77)
1A93  00                 [114] (-77)
1A94  00                 [115] (-77)
1A95  00                 [116] (-77)
1A96  9E                 [117] (-76)
1A97  00                 [118] (-76)
1A98  00                 [119] (-75)
1A99  00                 [120] (-75)
1A9A  9E                 [121] (-75)
1A9B  00                 [122] (-75)
1A9C  00                 [123] (-75)
1A9D  00                 [124] (-74)
1A9E  9E                 [125] (-74)
1A9F  00                 [126] (-74)
1AA0  00                 [127] (-73)
1AA1  00                 [128] (-73)
1AA2  9F                 [129] (-72)
1AA3  00                 [130] (-72)
1AA4  00                 [131] (-72)
1AA5  00                 [132] (-72)
1AA6  9F                 [133] (-70)
1AA7  00                 [134] (-70)
1AA8  00                 [135] (-70)
1AA9  00                 [136] (-65)
1AAA  9F                 [137] (-65)
1AAB  00                 [138] (-65)
1AAC  00                 [139] (-63)
1AAD  00                 [140] (-63)
1AAE  9F                 [141] (-63)
1AAF  00                 [142] (-63)
1AB0  00                 [143] (-63)
1AB1  00                 [144] (-62)
1AB2  9F                 [145] (-62)
1AB3  00                 [146] (-61)
1AB4  00                 [147] (-61)
1AB5  00                 [148] (-61)
1AB6  9F                 [149] (-61)
1AB7  00                 [150] (-61)
1AB8  00                 [151] (-61)
1AB9  00                 [152] (-61)
1ABA  9F                 [153] (-61)
1ABB  00                 [154] (-61)
1ABC  00                 [155] (-61)
1ABD  00                 [156] (-60)
1ABE  9F                 [157] (-60)
1ABF  00                 [158] (-60)
1AC0  00                 [159] (-60)
1AC1  00                 [160] (-57)
1AC2  9F                 [161] (-57)
1AC3  00                 [162] (-57)
1AC4  00                 [163] (-57)
1AC5  00                 [164] (-57)
1AC6  9F                 [165] (-57)
1AC7  00                 [166] (-56)
1AC8  00                 [167] (-56)
1AC9  00                 [168] (-56)
1ACA  9F                 [169] (-55)
1ACB  00                 [170] (-55)
1ACC  00                 [171] (-55)
1ACD  00                 [172] (-55)
1ACE  9F                 [173] (-55)
1ACF  00                 [174] (-54)
1AD0  00                 [175] (-54)
1AD1  00                 [176] (-53)
1AD2  9F                 [177] (-53)
1AD3  00                 [178] (-53)
1AD4  00                 [179] (-53)
1AD5  00                 [180] (-53)
1AD6  9F                 [181] (-52)
1AD7  00                 [182] (-52)
1AD8  00                 [183] (-52)
1AD9  00                 [184] (-47)
1ADA  A0                 [185] (-47)
1ADB  00                 [186] (-47)
1ADC  00                 [187] (-47)
1ADD  00                 [188] (-47)
1ADE  A0                 [189] (-47)
1ADF  00                 [190] (-47)
1AE0  00                 [191] (-47)
1AE1  00                 [192] (-47)
1AE2  A1                 [193] (-47)
1AE3  00                 [194] (-47)
1AE4  00                 [195] (-47)
1AE5  00                 [196] (-47)
1AE6  A2                 [197] (-46)
1AE7  00                 [198] (-46)
1AE8  00                 [199] (-46)
1AE9  00                 [200] (-44)
1AEA  A2                 [201] (-44)
1AEB  00                 [202] (-44)
1AEC  00                 [203] (-44)
1AED  00                 [204] (-44)
1AEE  A2                 [205] (-43)
1AEF  00                 [206] (-43)
1AF0  00                 [207] (-43)
1AF1  00                 [208] (-43)
1AF2  A2                 [209] (-42)
1AF3  00                 [210] (-42)
1AF4  00                 [211] (-42)
1AF5  00                 [212] (-42)
1AF6  A2                 [213] (-41)
1AF7  00                 [214] (-41)
1AF8  00                 [215] (-41)
1AF9  00                 [216] (-41)
1AFA  A2                 [217] (-38)
1AFB  00                 [218] (-38)
1AFC  00                 [219] (-38)
1AFD  00                 [220] (-38)
1AFE  A2                 [221] (-38)
1AFF  00                 [222] (-38)
1B00  00                 [223] (-38)
1B01  00                 [224] (-36)
1B02  A2                 [225] (-36)
1B03  00                 [226] (-36)
1B04  00                 [227] (-36)
1B05  00                 [228] (-36)
1B06  A2                 [229] (-35)
1B07  00                 [230] (-35)
1B08  00                 [231] (-35)
1B09  00                 [232] (-35)
1B0A  A2                 [233] (-35)
1B0B  00                 [234] (-35)
1B0C  00                 [235] (-34)
1B0D  00                 [236] (-34)
1B0E  A2                 [237] (-34)
1B0F  00                 [238] (-34)
1B10  00                 [239] (-34)
1B11  00                 [240] (-34)
1B12  A2                 [241] (-33)
1B13  00                 [242] (-33)
1B14  00                 [243] (-33)
1B15  00                 [244] (-33)
1B16  A2                 [245] (-33)
1B17  00                 [246] (-29)
1B18  00                 [247] (-29)
1B19  00                 [248] (-29)
1B1A  A3                 [249] (-29)
1B1B  00                 [250] (-29)
1B1C  00                 [251] (-29)
1B1D  00                 [252] (-28)
1B1E  A3                 [253] (-28)
1B1F  00                 [254] (-28)
1B20  00                 [255] (-27)
1B21  00                 [256] (-27)
1B22  A3                 [257] (-27)
1B23  00                 [258] (-27)
1B24  00                 [259] (-26)
1B25  00                 [260] (-26)
1B26  A3                 [261] (-26)
1B27  00                 [262] (-26)
1B28  00                 [263] (-26)
1B29  00                 [264] (-25)
1B2A  A3                 [265] (-25)
1B2B  00                 [266] (-24)
1B2C  00                 [267] (-24)
1B2D  00                 [268] (-24)
1B2E  A3                 [269] (-24)
1B2F  00                 [270] (-24)
1B30  00                 [271] (-23)
1B31  00                 [272] (-23)
1B32  A3                 [273] (-23)
1B33  00                 [274] (-23)
1B34  00                 [275] (-22)
1B35  00                 [276] (-22)
1B36  A4                 [277] (-22)
1B37  00                 [278] (-22)
1B38  00                 [279] (-22)
1B39  00                 [280] (-21)
1B3A  A4                 [281] (-21)
1B3B  00                 [282] (-16)
                         * locals:
1E8A  00                 sizelocvars (0)
                         * upvalues:
1E8B  00                 sizeupvalues (0)
                         ** end of function **

                         
1E8C                     ** function [2] definition (level 3)
                         ** start of function **
1E8C  00                 string size (0)
                         source name: (none)
1E8E  01                 line defined (242)
1E8F  B0                 last line defined (304)
1E90  02                 nups (1)
1E91  01                 numparams (2)
1E92  02                 is_vararg (0)
1E93  00                 maxstacksize (14)
                         * code:
1E96  01                 sizecode (196)
1E97  9D000000           [001] getglobal  2   0        ; _T
1E9B  8C80C080           [002] settable   2   257 258  ; "DisableMiniMap" 0
1E9F  A4C0C000           [003] self       2   1   259  ; -1625438872
1EA3  0E014100           [004] gettable   4   0   260  ; "mCameraSequencerType"
1EA7  A2808001           [005] call       2   3   2  
1EAB  DD400100           [006] getglobal  3   5        ; 1074689893
1EAF  12010001           [007] move       4   2      
1EB3  E2800001           [008] call       3   2   2  
1EB7  D8400000           [009] test       3       1    ; to [11] if false
1EBB  1A400080           [010] jmp        2            ; to [13]
1EBF  E4804101           [011] self       3   2   262  ; -725453761
1EC3  E2400001           [012] call       3   2   1  
1EC7  E4C0C100           [013] self       3   1   263  ; 1265388858
1ECB  4E014200           [014] gettable   5   0   264  ; "mCameraInputFilter"
1ECF  E2408001           [015] call       3   3   1  
1ED3  CE404200           [016] gettable   3   0   265  ; "mIsDojo"
1ED7  D8000000           [017] test       3       0    ; to [19] if true
1EDB  1AC00380           [018] jmp        16           ; to [35]
1EDF  CE804200           [019] gettable   3   0   266  ; "mPlayer"
1EE3  E4C0C201           [020] self       3   3   267  ; 628443509
1EE7  57010000           [021] loadbool   5   0   0    ; false
1EEB  E2408001           [022] call       3   3   1  
1EEF  CE804200           [023] gettable   3   0   266  ; "mPlayer"
1EF3  E400C301           [024] self       3   3   268  ; -430812952
1EF7  57010000           [025] loadbool   5   0   0    ; false
1EFB  E2408001           [026] call       3   3   1  
1EFF  CE804200           [027] gettable   3   0   266  ; "mPlayer"
1F03  E440C301           [028] self       3   3   269  ; 574539743
1F07  E2800001           [029] call       3   2   2  
1F0B  D8000000           [030] test       3       0    ; to [32] if true
1F0F  1A800080           [031] jmp        3            ; to [35]
1F13  CE804200           [032] gettable   3   0   266  ; "mPlayer"
1F17  E480C301           [033] self       3   3   270  ; 1803785026
1F1B  E2400001           [034] call       3   2   1  
1F1F  DD000000           [035] getglobal  3   0        ; _T
1F23  CC80C087           [036] settable   3   271 258  ; "freeCamActive" 0
1F27  E400C400           [037] self       3   1   272  ; 1525877273
1F2B  E2800001           [038] call       3   2   2  
1F2F  1D410100           [039] getglobal  4   5        ; 1074689893
1F33  52018001           [040] move       5   3      
1F37  22810001           [041] call       4   2   2  
1F3B  18410000           [042] test       4       1    ; to [44] if false
1F3F  1AC00080           [043] jmp        4            ; to [48]
1F43  2441C401           [044] self       4   3   273  ; 1362416700
1F47  86010003           [045] loadnil    6   6      
1F4B  D9810400           [046] loadk      7   18       ; 0
1F4F  22410002           [047] call       4   4   1  
1F53  0E414200           [048] gettable   4   0   265  ; "mIsDojo"
1F57  18410000           [049] test       4       1    ; to [51] if false
1F5B  1AC00180           [050] jmp        8            ; to [59]
1F5F  1D410100           [051] getglobal  4   5        ; 1074689893
1F63  5DC10400           [052] getglobal  5   19       ; gGameRules
1F67  22810001           [053] call       4   2   2  
1F6B  18410000           [054] test       4       1    ; to [56] if false
1F6F  1A800080           [055] jmp        3            ; to [59]
1F73  1DC10400           [056] getglobal  4   19       ; gGameRules
1F77  24014502           [057] self       4   4   276  ; -1198706765
1F7B  22410001           [058] call       4   2   1  
1F7F  1D410100           [059] getglobal  4   5        ; 1074689893
1F83  4E414500           [060] gettable   5   0   277  ; "mCameraAvatar"
1F87  22810001           [061] call       4   2   2  
1F8B  18410000           [062] test       4       1    ; to [64] if false
1F8F  1A800480           [063] jmp        19           ; to [83]
1F93  0E414500           [064] gettable   4   0   277  ; "mCameraAvatar"
1F97  24814502           [065] self       4   4   278  ; 606226066
1F9B  97010000           [066] loadbool   6   0   0    ; false
1F9F  22418001           [067] call       4   3   1  
1FA3  0E414500           [068] gettable   4   0   277  ; "mCameraAvatar"
1FA7  24C14502           [069] self       4   4   279  ; -2013261060
1FAB  97010000           [070] loadbool   6   0   0    ; false
1FAF  22418001           [071] call       4   3   1  
1FB3  0E414500           [072] gettable   4   0   277  ; "mCameraAvatar"
1FB7  24014602           [073] self       4   4   280  ; 646691440
1FBB  97010000           [074] loadbool   6   0   0    ; false
1FBF  22418001           [075] call       4   3   1  
1FC3  0E414200           [076] gettable   4   0   265  ; "mIsDojo"
1FC7  18010000           [077] test       4       0    ; to [79] if true
1FCB  1AC00080           [078] jmp        4            ; to [83]
1FCF  0E414500           [079] gettable   4   0   277  ; "mCameraAvatar"
1FD3  24814102           [080] self       4   4   262  ; -725453761
1FD7  22410001           [081] call       4   2   1  
1FDB  0C40C68A           [082] settable   0   277 281  ; "mCameraAvatar" nil
1FDF  2481C600           [083] self       4   1   282  ; -214694299
1FE3  9DC10600           [084] getglobal  6   27       ; Engine
1FE7  8E014703           [085] gettable   6   6   284  ; "PM_AIM"
1FEB  22818001           [086] call       4   3   2  
1FEF  18010000           [087] test       4       0    ; to [89] if true
1FF3  1A400480           [088] jmp        18           ; to [107]
1FF7  0E814200           [089] gettable   4   0   266  ; "mPlayer"
1FFB  24414702           [090] self       4   4   285  ; -1704783487
1FFF  22810001           [091] call       4   2   2  
2003  5D410100           [092] getglobal  5   5        ; 1074689893
2007  92010002           [093] move       6   4      
200B  62810001           [094] call       5   2   2  
200F  58410000           [095] test       5       1    ; to [97] if false
2013  1A400280           [096] jmp        10           ; to [107]
2017  64814702           [097] self       5   4   286  ; 941878546
201B  62810001           [098] call       5   2   2  
201F  9D410100           [099] getglobal  6   5        ; 1074689893
2023  D2018002           [100] move       7   5      
2027  A2810001           [101] call       6   2   2  
202B  98410000           [102] test       6       1    ; to [104] if false
202F  1A800080           [103] jmp        3            ; to [107]
2033  A4C1C702           [104] self       6   5   287  ; 1649906088
2037  17028000           [105] loadbool   8   1   0    ; true
203B  A2418001           [106] call       6   3   1  
203F  A401C800           [107] self       6   1   288  ; 630793108
2043  0E424800           [108] gettable   8   0   289  ; "mExitFreeCameraSound"
2047  57020000           [109] loadbool   9   0   0    ; false
204B  9DC20600           [110] getglobal  10  27       ; Engine
204F  8E824805           [111] gettable   10  10  290  ; "SP_VERY_LOW"
2053  D7020000           [112] loadbool   11  0   0    ; false
2057  A2410003           [113] call       6   6   1  
205B  9D410100           [114] getglobal  6   5        ; 1074689893
205F  DDC10800           [115] getglobal  7   35       ; gGameStatsMgr
2063  A2810001           [116] call       6   2   2  
2067  98410000           [117] test       6       1    ; to [119] if false
206B  1A001380           [118] jmp        77           ; to [196]
206F  9D410100           [119] getglobal  6   5        ; 1074689893
2073  DDC10400           [120] getglobal  7   19       ; gGameRules
2077  A2810001           [121] call       6   2   2  
207B  98410000           [122] test       6       1    ; to [124] if false
207F  1AC01180           [123] jmp        72           ; to [196]
2083  9DC10400           [124] getglobal  6   19       ; gGameRules
2087  A4014903           [125] self       6   6   292  ; 2081656303
208B  A2810001           [126] call       6   2   2  
208F  DD410100           [127] getglobal  7   5        ; 1074689893
2093  1D420900           [128] getglobal  8   37       ; gClient
2097  E2810001           [129] call       7   2   2  
209B  D8410000           [130] test       7       1    ; to [132] if false
209F  1A800180           [131] jmp        7            ; to [139]
20A3  DDC10400           [132] getglobal  7   19       ; gGameRules
20A7  E481C903           [133] self       7   7   294  ; -1957065004
20AB  5D420900           [134] getglobal  9   37       ; gClient
20AF  64C2C904           [135] self       9   9   295  ; -1435778573
20B3  62020001           [136] call       9   2   0  
20B7  E2810000           [137] call       7   0   2  
20BB  1A400080           [138] jmp        2            ; to [141]
20BF  D7410000           [139] loadbool   7   0   1    ; false, to [141]
20C3  D7018000           [140] loadbool   7   1   0    ; true
20C7  98010000           [141] test       6       0    ; to [143] if true
20CB  1AC00A80           [142] jmp        44           ; to [187]
20CF  17020000           [143] loadbool   8   0   0    ; false
20D3  5D420100           [144] getglobal  9   5        ; 1074689893
20D7  9D020000           [145] getglobal  10  0        ; _T
20DB  8E024A05           [146] gettable   10  10  296  ; "DojoMgr"
20DF  62820001           [147] call       9   2   2  
20E3  58420000           [148] test       9       1    ; to [150] if false
20E7  1A800480           [149] jmp        19           ; to [169]
20EB  5D420100           [150] getglobal  9   5        ; 1074689893
20EF  9D020000           [151] getglobal  10  0        ; _T
20F3  8E024A05           [152] gettable   10  10  296  ; "DojoMgr"
20F7  8E424A05           [153] gettable   10  10  297  ; "mJsonProcLevelHelper"
20FB  62820001           [154] call       9   2   2  
20FF  58420000           [155] test       9       1    ; to [157] if false
2103  1AC00280           [156] jmp        12           ; to [169]
2107  5D020000           [157] getglobal  9   0        ; _T
210B  4E02CA04           [158] gettable   9   9   296  ; "DojoMgr"
210F  4E42CA04           [159] gettable   9   9   297  ; "mJsonProcLevelHelper"
2113  6482CA04           [160] self       9   9   298  ; -2006670496
2117  62820001           [161] call       9   2   2  
211B  64C2CA04           [162] self       9   9   299  ; -491574171
211F  62820001           [163] call       9   2   2  
2123  93020000           [164] getupval   10  0      
fail op	35
2127  63808204           [165] close      1  
212B  1A000080           [166] jmp        1            ; to [168]
212F  17420000           [167] loadbool   8   0   1    ; false, to [169]
2133  17028000           [168] loadbool   8   1   0    ; true
2137  18020000           [169] test       8       0    ; to [171] if true
213B  1AC00180           [170] jmp        8            ; to [179]
213F  9DC20800           [171] getglobal  10  35       ; gGameStatsMgr
2143  A4024B05           [172] self       10  10  300  ; 1203270242
2147  1D430B00           [173] getglobal  12  45       ; -332969190
214B  59830B00           [174] loadk      13  46       ; "DECO_TIME.OBST"
214F  22830001           [175] call       12  2   2  
2153  59C30B00           [176] loadk      13  47       ; "DECORATE_COURSE"
2157  A2420002           [177] call       10  4   1  
215B  1A000480           [178] jmp        17           ; to [196]
215F  9DC20800           [179] getglobal  10  35       ; gGameStatsMgr
2163  A4024B05           [180] self       10  10  300  ; 1203270242
2167  1D430B00           [181] getglobal  12  45       ; -332969190
216B  59030C00           [182] loadk      13  48       ; "DECO_TIME.DOJO"
216F  22830001           [183] call       12  2   2  
2173  59430C00           [184] loadk      13  49       ; "DECORATE_DOJO"
2177  A2420002           [185] call       10  4   1  
217B  1A000280           [186] jmp        9            ; to [196]
217F  D8010000           [187] test       7       0    ; to [189] if true
2183  1A800180           [188] jmp        7            ; to [196]
2187  9DC20800           [189] getglobal  10  35       ; gGameStatsMgr
218B  A4024B05           [190] self       10  10  300  ; 1203270242
218F  1D430B00           [191] getglobal  12  45       ; -332969190
2193  59830C00           [192] loadk      13  50       ; "DECO_TIME.SHIP"
2197  22830001           [193] call       12  2   2  
219B  59C30C00           [194] loadk      13  51       ; "DECORATE_SHIP"
219F  A2420002           [195] call       10  4   1  
21A3  1E008000           [196] return     0   1      
                         * constants:
21A7  34                 sizek (52)
21A8  04                 const type 4
21A9  03                 string size (3)
21AA  5F5400             "_T\0"
                         const [0]: "_T"
21AD  04                 const type 4
21AE  0F                 string size (15)
21AF  44697361626C654D+  "DisableM"
21B7  696E694D617000     "iniMap\0"
                         const [1]: "DisableMiniMap"
21BE  01                 const type 3
21BF  00000000           const [2]: (0)
21C3  01                 const type 3
21C4  68C51D9F           const [3]: (-1625438872)
21C8  04                 const type 4
21C9  15                 string size (21)
21CA  6D43616D65726153+  "mCameraS"
21D2  657175656E636572+  "equencer"
21DA  5479706500         "Type\0"
                         const [4]: "mCameraSequencerType"
21DF  01                 const type 3
21E0  65770E40           const [5]: (1074689893)
21E4  01                 const type 3
21E5  3F74C2D4           const [6]: (-725453761)
21E9  01                 const type 3
21EA  3A4D6C4B           const [7]: (1265388858)
21EE  04                 const type 4
21EF  13                 string size (19)
21F0  6D43616D65726149+  "mCameraI"
21F8  6E70757446696C74+  "nputFilt"
2200  657200             "er\0"
                         const [8]: "mCameraInputFilter"
2203  04                 const type 4
2204  08                 string size (8)
2205  6D4973446F6A6F00   "mIsDojo\0"
                         const [9]: "mIsDojo"
220D  04                 const type 4
220E  08                 string size (8)
220F  6D506C6179657200   "mPlayer\0"
                         const [10]: "mPlayer"
2217  01                 const type 3
2218  75497525           const [11]: (628443509)
221C  01                 const type 3
221D  E85052E6           const [12]: (-430812952)
2221  01                 const type 3
2222  DFC73E22           const [13]: (574539743)
2226  01                 const type 3
2227  4293836B           const [14]: (1803785026)
222B  04                 const type 4
222C  0E                 string size (14)
222D  6672656543616D41+  "freeCamA"
2235  637469766500       "ctive\0"
                         const [15]: "freeCamActive"
223B  01                 const type 3
223C  190AF35A           const [16]: (1525877273)
2240  01                 const type 3
2241  3CD43451           const [17]: (1362416700)
2245  03                 const type 3
2246  00000000           const [18]: (0)
224A  04                 const type 4
224B  0B                 string size (11)
224C  6747616D6552756C+  "gGameRul"
2254  657300             "es\0"
                         const [19]: "gGameRules"
2257  01                 const type 3
2258  B32F8DB8           const [20]: (-1198706765)
225C  04                 const type 4
225D  0E                 string size (14)
225E  6D43616D65726141+  "mCameraA"
2266  766174617200       "vatar\0"
                         const [21]: "mCameraAvatar"
226C  01                 const type 3
226D  92462224           const [22]: (606226066)
2271  01                 const type 3
2272  FC120088           const [23]: (-2013261060)
2276  01                 const type 3
2277  70BA8B26           const [24]: (646691440)
227B  00                 const type 0
                         const [25]: nil
227C  01                 const type 3
227D  650634F3           const [26]: (-214694299)
2281  04                 const type 4
2282  07                 string size (7)
2283  456E67696E6500     "Engine\0"
                         const [27]: "Engine"
228A  04                 const type 4
228B  07                 string size (7)
228C  504D5F41494D00     "PM_AIM\0"
                         const [28]: "PM_AIM"
2293  01                 const type 3
2294  8111639A           const [29]: (-1704783487)
2298  01                 const type 3
2299  12ED2338           const [30]: (941878546)
229D  01                 const type 3
229E  A8915762           const [31]: (1649906088)
22A2  01                 const type 3
22A3  94239925           const [32]: (630793108)
22A7  04                 const type 4
22A8  15                 string size (21)
22A9  6D45786974467265+  "mExitFre"
22B1  6543616D65726153+  "eCameraS"
22B9  6F756E6400         "ound\0"
                         const [33]: "mExitFreeCameraSound"
22BE  04                 const type 4
22BF  0C                 string size (12)
22C0  53505F564552595F+  "SP_VERY_"
22C8  4C4F5700           "LOW\0"
                         const [34]: "SP_VERY_LOW"
22CC  04                 const type 4
22CD  0E                 string size (14)
22CE  6747616D65537461+  "gGameSta"
22D6  74734D677200       "tsMgr\0"
                         const [35]: "gGameStatsMgr"
22DC  01                 const type 3
22DD  EF8D137C           const [36]: (2081656303)
22E1  04                 const type 4
22E2  08                 string size (8)
22E3  67436C69656E7400   "gClient\0"
                         const [37]: "gClient"
22EB  01                 const type 3
22EC  D48E598B           const [38]: (-1957065004)
22F0  01                 const type 3
22F1  F3C16BAA           const [39]: (-1435778573)
22F5  04                 const type 4
22F6  08                 string size (8)
22F7  446F6A6F4D677200   "DojoMgr\0"
                         const [40]: "DojoMgr"
22FF  04                 const type 4
2300  15                 string size (21)
2301  6D4A736F6E50726F+  "mJsonPro"
2309  634C6576656C4865+  "cLevelHe"
2311  6C70657200         "lper\0"
                         const [41]: "mJsonProcLevelHelper"
2316  01                 const type 3
2317  60A36488           const [42]: (-2006670496)
231B  01                 const type 3
231C  652CB3E2           const [43]: (-491574171)
2320  01                 const type 3
2321  6272B847           const [44]: (1203270242)
2325  01                 const type 3
2326  1A4B27EC           const [45]: (-332969190)
232A  04                 const type 4
232B  0F                 string size (15)
232C  4445434F5F54494D+  "DECO_TIM"
2334  452E4F42535400     "E.OBST\0"
                         const [46]: "DECO_TIME.OBST"
233B  04                 const type 4
233C  10                 string size (16)
233D  4445434F52415445+  "DECORATE"
2345  5F434F5552534500   "_COURSE\0"
                         const [47]: "DECORATE_COURSE"
234D  04                 const type 4
234E  0F                 string size (15)
234F  4445434F5F54494D+  "DECO_TIM"
2357  452E444F4A4F00     "E.DOJO\0"
                         const [48]: "DECO_TIME.DOJO"
235E  04                 const type 4
235F  0E                 string size (14)
2360  4445434F52415445+  "DECORATE"
2368  5F444F4A4F00       "_DOJO\0"
                         const [49]: "DECORATE_DOJO"
236E  04                 const type 4
236F  0F                 string size (15)
2370  4445434F5F54494D+  "DECO_TIM"
2378  452E5348495000     "E.SHIP\0"
                         const [50]: "DECO_TIME.SHIP"
237F  04                 const type 4
2380  0E                 string size (14)
2381  4445434F52415445+  "DECORATE"
2389  5F5348495000       "_SHIP\0"
                         const [51]: "DECORATE_SHIP"
                         * functions:
238F  00                 sizep (0)
                         * lines:
2391  01                 sizelineinfo (196)
                         [pc] (line)
2392  F3                 [001] (-13)
2393  00                 [002] (-13)
2394  00                 [003] (-12)
2395  00                 [004] (-12)
2396  F3                 [005] (-12)
2397  00                 [006] (-11)
2398  00                 [007] (-11)
2399  00                 [008] (-11)
239A  F4                 [009] (-11)
239B  00                 [010] (-11)
239C  00                 [011] (-10)
239D  00                 [012] (-10)
239E  F4                 [013] (-7)
239F  00                 [014] (-7)
23A0  00                 [015] (-7)
23A1  00                 [016] (-6)
23A2  F4                 [017] (-6)
23A3  00                 [018] (-6)
23A4  00                 [019] (-5)
23A5  00                 [020] (-5)
23A6  F5                 [021] (-5)
23A7  00                 [022] (-5)
23A8  00                 [023] (-4)
23A9  00                 [024] (-4)
23AA  F5                 [025] (-4)
23AB  00                 [026] (-4)
23AC  00                 [027] (-3)
23AD  00                 [028] (-3)
23AE  F5                 [029] (-3)
23AF  00                 [030] (-3)
23B0  00                 [031] (-3)
23B1  00                 [032] (-2)
23B2  F5                 [033] (-2)
23B3  00                 [034] (-2)
23B4  00                 [035] (1)
23B5  00                 [036] (1)
23B6  F5                 [037] (3)
23B7  00                 [038] (3)
23B8  00                 [039] (4)
23B9  00                 [040] (4)
23BA  F6                 [041] (4)
23BB  00                 [042] (4)
23BC  00                 [043] (4)
23BD  00                 [044] (5)
23BE  F6                 [045] (5)
23BF  00                 [046] (5)
23C0  00                 [047] (5)
23C1  00                 [048] (7)
23C2  F9                 [049] (7)
23C3  00                 [050] (7)
23C4  00                 [051] (7)
23C5  00                 [052] (7)
23C6  F9                 [053] (7)
23C7  00                 [054] (7)
23C8  00                 [055] (7)
23C9  00                 [056] (8)
23CA  F9                 [057] (8)
23CB  00                 [058] (8)
23CC  00                 [059] (10)
23CD  00                 [060] (10)
23CE  FA                 [061] (10)
23CF  00                 [062] (10)
23D0  00                 [063] (10)
23D1  00                 [064] (11)
23D2  FA                 [065] (11)
23D3  00                 [066] (11)
23D4  00                 [067] (11)
23D5  00                 [068] (12)
23D6  FA                 [069] (12)
23D7  00                 [070] (12)
23D8  00                 [071] (12)
23D9  00                 [072] (13)
23DA  FB                 [073] (13)
23DB  00                 [074] (13)
23DC  00                 [075] (13)
23DD  00                 [076] (14)
23DE  FB                 [077] (14)
23DF  00                 [078] (14)
23E0  00                 [079] (15)
23E1  00                 [080] (15)
23E2  FB                 [081] (15)
23E3  00                 [082] (16)
23E4  00                 [083] (20)
23E5  00                 [084] (20)
23E6  FB                 [085] (20)
23E7  00                 [086] (20)
23E8  00                 [087] (20)
23E9  00                 [088] (20)
23EA  FC                 [089] (21)
23EB  00                 [090] (21)
23EC  00                 [091] (21)
23ED  00                 [092] (22)
23EE  FC                 [093] (22)
23EF  00                 [094] (22)
23F0  00                 [095] (22)
23F1  00                 [096] (22)
23F2  FC                 [097] (23)
23F3  00                 [098] (23)
23F4  00                 [099] (24)
23F5  00                 [100] (24)
23F6  FC                 [101] (24)
23F7  00                 [102] (24)
23F8  00                 [103] (24)
23F9  00                 [104] (25)
23FA  FD                 [105] (25)
23FB  00                 [106] (25)
23FC  00                 [107] (29)
23FD  00                 [108] (29)
23FE  FD                 [109] (29)
23FF  00                 [110] (29)
2400  00                 [111] (29)
2401  00                 [112] (29)
2402  FD                 [113] (29)
2403  00                 [114] (30)
2404  00                 [115] (30)
2405  00                 [116] (30)
2406  FD                 [117] (30)
2407  00                 [118] (30)
2408  00                 [119] (30)
2409  00                 [120] (30)
240A  FD                 [121] (30)
240B  00                 [122] (30)
240C  00                 [123] (30)
240D  00                 [124] (31)
240E  FE                 [125] (31)
240F  00                 [126] (31)
2410  00                 [127] (32)
2411  00                 [128] (32)
2412  FE                 [129] (32)
2413  00                 [130] (32)
2414  00                 [131] (32)
2415  00                 [132] (32)
2416  FE                 [133] (32)
2417  00                 [134] (32)
2418  00                 [135] (32)
2419  00                 [136] (32)
241A  01                 [137] (32)
241B  01                 [138] (32)
241C  00                 [139] (32)
241D  00                 [140] (32)
241E  01                 [141] (33)
241F  01                 [142] (33)
2420  00                 [143] (34)
2421  00                 [144] (35)
2422  03                 [145] (35)
2423  01                 [146] (35)
2424  00                 [147] (35)
2425  00                 [148] (35)
2426  03                 [149] (35)
2427  01                 [150] (35)
2428  00                 [151] (35)
2429  00                 [152] (35)
242A  04                 [153] (35)
242B  01                 [154] (35)
242C  00                 [155] (35)
242D  00                 [156] (35)
242E  04                 [157] (36)
242F  01                 [158] (36)
2430  00                 [159] (36)
2431  00                 [160] (36)
2432  04                 [161] (36)
2433  01                 [162] (36)
2434  00                 [163] (36)
2435  00                 [164] (37)
2436  04                 [165] (37)
2437  01                 [166] (37)
2438  00                 [167] (37)
2439  00                 [168] (37)
243A  04                 [169] (39)
243B  01                 [170] (39)
243C  00                 [171] (40)
243D  00                 [172] (40)
243E  05                 [173] (40)
243F  01                 [174] (40)
2440  00                 [175] (40)
2441  00                 [176] (40)
2442  05                 [177] (40)
2443  01                 [178] (40)
2444  00                 [179] (42)
2445  00                 [180] (42)
2446  05                 [181] (42)
2447  01                 [182] (42)
2448  00                 [183] (42)
2449  00                 [184] (42)
244A  05                 [185] (42)
244B  01                 [186] (43)
244C  00                 [187] (44)
244D  00                 [188] (44)
244E  07                 [189] (45)
244F  01                 [190] (45)
2450  00                 [191] (45)
2451  00                 [192] (45)
2452  07                 [193] (45)
2453  01                 [194] (45)
2454  00                 [195] (45)
2455  00                 [196] (48)
                         * locals:
26A2  00                 sizelocvars (0)
                         * upvalues:
26A3  00                 sizeupvalues (0)
                         ** end of function **

                         
26A4                     ** function [3] definition (level 3)
                         ** start of function **
26A4  00                 string size (0)
                         source name: (none)
26A6  02                 line defined (306)
26A7  FC                 last line defined (380)
26A8  02                 nups (1)
26A9  01                 numparams (1)
26AA  01                 is_vararg (0)
26AB  00                 maxstacksize (20)
                         * code:
26AE  01                 sizecode (241)
26AF  53000000           [001] getupval   1   0      
26B3  62408000           [002] call       1   1   1  
26B7  5D000000           [003] getglobal  1   0        ; 1074689893
26BB  8E404000           [004] gettable   2   0   257  ; "mPlayer"
26BF  62800001           [005] call       1   2   2  
26C3  58400000           [006] test       1       1    ; to [8] if false
26C7  1A003A80           [007] jmp        233          ; to [241]
26CB  4E804000           [008] gettable   1   0   258  ; "mAfkTimer"
26CF  9DC00000           [009] getglobal  2   3        ; 1661359502
26D3  A2808000           [010] call       2   1   2  
26D7  43808000           [011] add        1   1   2  
26DB  0C400081           [012] settable   0   258 1    ; "mAfkTimer"
26DF  4E804000           [013] gettable   1   0   258  ; "mAfkTimer"
fail op	21
26E3  15400082           [014] concat     0   260 1  
26E7  1AC00080           [015] jmp        4            ; to [20]
26EB  0C404181           [016] settable   0   258 261  ; "mAfkTimer" 0
26EF  4E404000           [017] gettable   1   0   257  ; "mPlayer"
26F3  6480C100           [018] self       1   1   262  ; 809094805
26F7  62400001           [019] call       1   2   1  
26FB  4E404000           [020] gettable   1   0   257  ; "mPlayer"
26FF  64C0C100           [021] self       1   1   263  ; -2135866365
2703  62800001           [022] call       1   2   2  
2707  9D000000           [023] getglobal  2   0        ; 1074689893
270B  D2008000           [024] move       3   1      
270F  A2800001           [025] call       2   2   2  
2713  98000000           [026] test       2       0    ; to [28] if true
2717  1A000080           [027] jmp        1            ; to [29]
271B  1E008000           [028] return     0   1      
271F  8E004200           [029] gettable   2   0   264  ; "mIsInDojo"
2723  98400000           [030] test       2       1    ; to [32] if false
2727  1AC00380           [031] jmp        16           ; to [48]
272B  8E404200           [032] gettable   2   0   265  ; "mOperatorSet"
272F  98400000           [033] test       2       1    ; to [35] if false
2733  1A000380           [034] jmp        13           ; to [48]
2737  8E404000           [035] gettable   2   0   257  ; "mPlayer"
273B  A4804201           [036] self       2   2   266  ; -1888201767
273F  A2800001           [037] call       2   2   2  
fail op	35
2743  23808000           [038] close      0  
2747  1AC00180           [039] jmp        8            ; to [48]
274B  A4C0C200           [040] self       2   1   267  ; 1129512439
274F  0E014300           [041] gettable   4   0   268  ; "mAvatarInputFilter"
2753  A2408001           [042] call       2   3   1  
2757  9D400300           [043] getglobal  2   13       ; gRegion
275B  A4804301           [044] self       2   2   270  ; 1433119162
275F  12018000           [045] move       4   1      
2763  A2408001           [046] call       2   3   1  
2767  0CC0C384           [047] settable   0   265 271  ; "mOperatorSet" 1
276B  9D000000           [048] getglobal  2   0        ; 1074689893
276F  DD000400           [049] getglobal  3   16       ; _T
2773  CE40C401           [050] gettable   3   3   273  ; "freeCamActive"
2777  A2800001           [051] call       2   2   2  
277B  98400000           [052] test       2       1    ; to [54] if false
277F  1A802E80           [053] jmp        187          ; to [241]
2783  9D000400           [054] getglobal  2   16       ; _T
2787  8E404401           [055] gettable   2   2   273  ; "freeCamActive"
278B  98000000           [056] test       2       0    ; to [58] if true
278F  1A402580           [057] jmp        150          ; to [208]
2793  8E404000           [058] gettable   2   0   257  ; "mPlayer"
2797  A4804401           [059] self       2   2   274  ; 574539743
279B  A2800001           [060] call       2   2   2  
279F  98400000           [061] test       2       1    ; to [63] if false
27A3  1A000880           [062] jmp        33           ; to [96]
27A7  A4C04400           [063] self       2   0   275  ; 1451670953
27AB  12018000           [064] move       4   1      
27AF  A2408001           [065] call       2   3   1  
27B3  9D000000           [066] getglobal  2   0        ; 1074689893
27B7  DD000400           [067] getglobal  3   16       ; _T
27BB  CE00C501           [068] gettable   3   3   276  ; "detachCamera"
27BF  A2800001           [069] call       2   2   2  
27C3  98400000           [070] test       2       1    ; to [72] if false
27C7  1AC00180           [071] jmp        8            ; to [80]
27CB  9D400300           [072] getglobal  2   13       ; gRegion
27CF  A4404501           [073] self       2   2   277  ; 65205951
27D3  A2800001           [074] call       2   2   2  
27D7  A4804501           [075] self       2   2   278  ; 1363385574
27DB  1D010400           [076] getglobal  4   16       ; _T
27DF  0E014502           [077] gettable   4   4   276  ; "detachCamera"
fail op	9
27E3  09010002           [078] settable   4   4   0  
27E7  A2408001           [079] call       2   3   1  
27EB  9D000000           [080] getglobal  2   0        ; 1074689893
27EF  DDC00500           [081] getglobal  3   23       ; gGameRules
27F3  A2800001           [082] call       2   2   2  
27F7  98400000           [083] test       2       1    ; to [85] if false
27FB  1AC02680           [084] jmp        156          ; to [241]
27FF  9DC00500           [085] getglobal  2   23       ; gGameRules
2803  A4004601           [086] self       2   2   280  ; -1957065004
2807  1D410600           [087] getglobal  4   25       ; gLotusPhotoBoothGameRulesType
280B  A2808001           [088] call       2   3   2  
280F  98000000           [089] test       2       0    ; to [91] if true
2813  1A402580           [090] jmp        150          ; to [241]
2817  9D000400           [091] getglobal  2   16       ; _T
281B  8CC0468D           [092] settable   2   282 283  ; "editingCameraPos" nil
281F  9D000400           [093] getglobal  2   16       ; _T
2823  8CC0438E           [094] settable   2   284 271  ; "cancelCameraEdit" 1
2827  1A002480           [095] jmp        145          ; to [241]
282B  9D000400           [096] getglobal  2   16       ; _T
282F  CE404000           [097] gettable   3   0   257  ; "mPlayer"
2833  E480C701           [098] self       3   3   286  ; -72146227
2837  E2800001           [099] call       3   2   2  
283B  8CC0808E           [100] settable   2   285 3    ; "freeCamControlsVis"
283F  8E404000           [101] gettable   2   0   257  ; "mPlayer"
2843  A4C04701           [102] self       2   2   287  ; -1936482629
2847  A2800001           [103] call       2   2   2  
284B  DD000000           [104] getglobal  3   0        ; 1074689893
284F  0E014800           [105] gettable   4   0   288  ; "mCameraAvatar"
2853  E2800001           [106] call       3   2   2  
2857  D8400000           [107] test       3       1    ; to [109] if false
285B  1AC02080           [108] jmp        132          ; to [241]
285F  DD000400           [109] getglobal  3   16       ; _T
2863  CE40C801           [110] gettable   3   3   289  ; "playingCamera"
2867  D8400000           [111] test       3       1    ; to [113] if false
286B  1AC01F80           [112] jmp        128          ; to [241]
286F  DD000000           [113] getglobal  3   0        ; 1074689893
2873  1D010400           [114] getglobal  4   16       ; _T
2877  0E814602           [115] gettable   4   4   282  ; "editingCameraPos"
287B  E2800001           [116] call       3   2   2  
287F  D8400000           [117] test       3       1    ; to [119] if false
2883  1A000480           [118] jmp        17           ; to [136]
2887  CE004800           [119] gettable   3   0   288  ; "mCameraAvatar"
288B  E480C801           [120] self       3   3   290  ; 970454089
288F  64C14801           [121] self       5   2   291  ; 196800914
2893  62010001           [122] call       5   2   0  
2897  E2400000           [123] call       3   0   1  
289B  DD000400           [124] getglobal  3   16       ; _T
289F  1D010400           [125] getglobal  4   16       ; _T
28A3  0E814602           [126] gettable   4   4   282  ; "editingCameraPos"
28A7  0D014902           [127] sub        4   4   292  ; 0
28AB  CC00018D           [128] settable   3   282 4    ; "editingCameraPos"
28AF  DD000400           [129] getglobal  3   16       ; _T
28B3  CE80C601           [130] gettable   3   3   282  ; "editingCameraPos"
fail op	33
28B7  2140C101           [131] tforloop   0       261  ; to [133] if exit
28BB  1AC01A80           [132] jmp        108          ; to [241]
28BF  DD000400           [133] getglobal  3   16       ; _T
28C3  CCC0468D           [134] settable   3   282 283  ; "editingCameraPos" nil
28C7  1A001A80           [135] jmp        105          ; to [241]
28CB  E4404901           [136] self       3   2   293  ; -1525387325
28CF  E2800001           [137] call       3   2   2  
28D3  0E81C901           [138] gettable   4   3   294  ; "x"
fail op	35
28D7  23404102           [139] close      0  
28DB  1A400180           [140] jmp        6            ; to [147]
28DF  0EC1C901           [141] gettable   4   3   295  ; "y"
fail op	35
28E3  23404102           [142] close      0  
28E7  1A800080           [143] jmp        3            ; to [147]
28EB  0E01CA01           [144] gettable   4   3   296  ; "z"
fail op	35
28EF  63404102           [145] close      1  
28F3  1A800D80           [146] jmp        55           ; to [202]
28F7  0E014800           [147] gettable   4   0   288  ; "mCameraAvatar"
28FB  24414A02           [148] self       4   4   297  ; 1839670529
28FF  22810001           [149] call       4   2   2  
2903  5D810A00           [150] getglobal  5   42       ; 572299008
2907  8E81C901           [151] gettable   6   3   294  ; "x"
290B  CEC1C901           [152] gettable   7   3   295  ; "y"
290F  0E02CA01           [153] gettable   8   3   296  ; "z"
2913  62810002           [154] call       5   4   2  
2917  9DC10A00           [155] getglobal  6   43       ; 1166235580
291B  D2018002           [156] move       7   5      
291F  A2410001           [157] call       6   2   1  
2923  4401CB02           [158] mul        5   5   300  ; -102
2927  83410102           [159] add        6   4   5  
292B  E4414B01           [160] self       7   2   301  ; 529277182
292F  E2810001           [161] call       7   2   2  
2933  C4C18101           [162] mul        7   3   7  
2937  C3C10102           [163] add        7   4   7  
293B  1D820B00           [164] getglobal  8   46       ; -1662520301
293F  52020002           [165] move       9   4      
2943  92028003           [166] move       10  7      
2947  22828001           [167] call       8   3   2  
294B  5D820B00           [168] getglobal  9   46       ; -1662520301
294F  92020002           [169] move       10  4      
2953  D2020003           [170] move       11  6      
2957  62828001           [171] call       9   3   2  
fail op	21
295B  15008204           [172] concat     0   9   8  
295F  1A000080           [173] jmp        1            ; to [175]
2963  92018003           [174] move       6   7      
2967  0B028000           [175] newtable   8   1   0    ; array=1, hash=0
296B  5DC20B00           [176] getglobal  9   47       ; gHitProxyType
296F  8E024800           [177] gettable   10  0   288  ; "mCameraAvatar"
2973  A4024C05           [178] self       10  10  304  ; -491574171
2977  A2020001           [179] call       10  2   0  
297B  1B420000           [180] setlist    8   0   1    ; index 1 to top
297F  4B020000           [181] newtable   9   0   0    ; array=0, hash=0
2983  9D820A00           [182] getglobal  10  42       ; 572299008
2987  A2828000           [183] call       10  1   2  
298B  DD420300           [184] getglobal  11  13       ; gRegion
298F  E442CC05           [185] self       11  11  305  ; -1652169016
2993  52030002           [186] move       13  4      
2997  92030003           [187] move       14  6      
299B  D2030004           [188] move       15  8      
299F  12048004           [189] move       16  9      
29A3  57048000           [190] loadbool   17  1   0    ; true
29A7  86040009           [191] loadnil    18  18     
29AB  D2040005           [192] move       19  10     
29AF  E2828004           [193] call       11  9   2  
29B3  D8420000           [194] test       11      1    ; to [196] if false
29B7  1A400180           [195] jmp        6            ; to [202]
29BB  CE024800           [196] gettable   11  0   288  ; "mCameraAvatar"
29BF  E482CC05           [197] self       11  11  306  ; 1292478819
29C3  E2820001           [198] call       11  2   2  
29C7  E4C2CC05           [199] self       11  11  307  ; -145151193
29CB  52038003           [200] move       13  7      
29CF  E2428001           [201] call       11  3   1  
29D3  E4024D01           [202] self       11  2   308  ; -333955620
29D7  4E034800           [203] gettable   13  0   288  ; "mCameraAvatar"
29DB  6443CA06           [204] self       13  13  297  ; 1839670529
29DF  62030001           [205] call       13  2   0  
29E3  E2420000           [206] call       11  0   1  
29E7  1A000880           [207] jmp        33           ; to [241]
29EB  CE424000           [208] gettable   11  0   257  ; "mPlayer"
29EF  E482C405           [209] self       11  11  274  ; 574539743
29F3  E2820001           [210] call       11  2   2  
29F7  D8020000           [211] test       11      0    ; to [213] if true
29FB  1AC00080           [212] jmp        4            ; to [217]
29FF  E4424D00           [213] self       11  0   309  ; -66127295
2A03  52038000           [214] move       13  1      
2A07  E2428001           [215] call       11  3   1  
2A0B  1AC00580           [216] jmp        24           ; to [241]
2A0F  CE424000           [217] gettable   11  0   257  ; "mPlayer"
2A13  E4C2C705           [218] self       11  11  287  ; -1936482629
2A17  E2820001           [219] call       11  2   2  
2A1B  1D030000           [220] getglobal  12  0        ; 1074689893
2A1F  4E034800           [221] gettable   13  0   288  ; "mCameraAvatar"
2A23  22830001           [222] call       12  2   2  
2A27  18430000           [223] test       12      1    ; to [225] if false
2A2B  1AC00380           [224] jmp        16           ; to [241]
2A2F  1D030000           [225] getglobal  12  0        ; 1074689893
2A33  52038005           [226] move       13  11     
2A37  22830001           [227] call       12  2   2  
2A3B  18430000           [228] test       12      1    ; to [230] if false
2A3F  1A800280           [229] jmp        11           ; to [241]
2A43  1D030400           [230] getglobal  12  16       ; _T
2A47  0E434806           [231] gettable   12  12  289  ; "playingCamera"
2A4B  18430000           [232] test       12      1    ; to [234] if false
2A4F  1A800180           [233] jmp        7            ; to [241]
2A53  0E034800           [234] gettable   12  0   288  ; "mCameraAvatar"
2A57  24834C06           [235] self       12  12  306  ; 1292478819
2A5B  22830001           [236] call       12  2   2  
2A5F  24C34C06           [237] self       12  12  307  ; -145151193
2A63  A4C3C805           [238] self       14  11  291  ; 196800914
2A67  A2030001           [239] call       14  2   0  
2A6B  22430000           [240] call       12  0   1  
2A6F  1E008000           [241] return     0   1      
                         * constants:
2A73  36                 sizek (54)
2A74  01                 const type 3
2A75  65770E40           const [0]: (1074689893)
2A79  04                 const type 4
2A7A  08                 string size (8)
2A7B  6D506C6179657200   "mPlayer\0"
                         const [1]: "mPlayer"
2A83  04                 const type 4
2A84  0A                 string size (10)
2A85  6D41666B54696D65+  "mAfkTime"
2A8D  7200               "r\0"
                         const [2]: "mAfkTimer"
2A8F  01                 const type 3
2A90  8E550663           const [3]: (1661359502)
2A94  03                 const type 3
2A95  0000F041           const [4]: (0)
2A99  03                 const type 3
2A9A  00000000           const [5]: (0)
2A9E  01                 const type 3
2A9F  95CE3930           const [6]: (809094805)
2AA3  01                 const type 3
2AA4  0344B180           const [7]: (-2135866365)
2AA8  04                 const type 4
2AA9  0A                 string size (10)
2AAA  6D4973496E446F6A+  "mIsInDoj"
2AB2  6F00               "o\0"
                         const [8]: "mIsInDojo"
2AB4  04                 const type 4
2AB5  0D                 string size (13)
2AB6  6D4F70657261746F+  "mOperato"
2ABE  7253657400         "rSet\0"
                         const [9]: "mOperatorSet"
2AC3  01                 const type 3
2AC4  D953748F           const [10]: (-1888201767)
2AC8  01                 const type 3
2AC9  F7FD5243           const [11]: (1129512439)
2ACD  04                 const type 4
2ACE  13                 string size (19)
2ACF  6D41766174617249+  "mAvatarI"
2AD7  6E70757446696C74+  "nputFilt"
2ADF  657200             "er\0"
                         const [12]: "mAvatarInputFilter"
2AE2  04                 const type 4
2AE3  08                 string size (8)
2AE4  67526567696F6E00   "gRegion\0"
                         const [13]: "gRegion"
2AEC  01                 const type 3
2AED  BAA96B55           const [14]: (1433119162)
2AF1  01                 const type 3
2AF2  01000000           const [15]: (1)
2AF6  04                 const type 4
2AF7  03                 string size (3)
2AF8  5F5400             "_T\0"
                         const [16]: "_T"
2AFB  04                 const type 4
2AFC  0E                 string size (14)
2AFD  6672656543616D41+  "freeCamA"
2B05  637469766500       "ctive\0"
                         const [17]: "freeCamActive"
2B0B  01                 const type 3
2B0C  DFC73E22           const [18]: (574539743)
2B10  01                 const type 3
2B11  A9BD8656           const [19]: (1451670953)
2B15  04                 const type 4
2B16  0D                 string size (13)
2B17  6465746163684361+  "detachCa"
2B1F  6D65726100         "mera\0"
                         const [20]: "detachCamera"
2B24  01                 const type 3
2B25  BFF6E203           const [21]: (65205951)
2B29  01                 const type 3
2B2A  E69C4351           const [22]: (1363385574)
2B2E  04                 const type 4
2B2F  0B                 string size (11)
2B30  6747616D6552756C+  "gGameRul"
2B38  657300             "es\0"
                         const [23]: "gGameRules"
2B3B  01                 const type 3
2B3C  D48E598B           const [24]: (-1957065004)
2B40  04                 const type 4
2B41  1E                 string size (30)
2B42  674C6F7475735068+  "gLotusPh"
2B4A  6F746F426F6F7468+  "otoBooth"
2B52  47616D6552756C65+  "GameRule"
2B5A  735479706500       "sType\0"
                         const [25]: "gLotusPhotoBoothGameRulesType"
2B60  04                 const type 4
2B61  11                 string size (17)
2B62  65646974696E6743+  "editingC"
2B6A  616D657261506F73+  "ameraPos"
2B72  00                 "\0"
                         const [26]: "editingCameraPos"
2B73  00                 const type 0
                         const [27]: nil
2B74  04                 const type 4
2B75  11                 string size (17)
2B76  63616E63656C4361+  "cancelCa"
2B7E  6D65726145646974+  "meraEdit"
2B86  00                 "\0"
                         const [28]: "cancelCameraEdit"
2B87  04                 const type 4
2B88  13                 string size (19)
2B89  6672656543616D43+  "freeCamC"
2B91  6F6E74726F6C7356+  "ontrolsV"
2B99  697300             "is\0"
                         const [29]: "freeCamControlsVis"
2B9C  01                 const type 3
2B9D  CD22B3FB           const [30]: (-72146227)
2BA1  01                 const type 3
2BA2  BB9E938C           const [31]: (-1936482629)
2BA6  04                 const type 4
2BA7  0E                 string size (14)
2BA8  6D43616D65726141+  "mCameraA"
2BB0  766174617200       "vatar\0"
                         const [32]: "mCameraAvatar"
2BB6  04                 const type 4
2BB7  0E                 string size (14)
2BB8  706C6179696E6743+  "playingC"
2BC0  616D65726100       "amera\0"
                         const [33]: "playingCamera"
2BC6  01                 const type 3
2BC7  49F4D739           const [34]: (970454089)
2BCB  01                 const type 3
2BCC  92F1BA0B           const [35]: (196800914)
2BD0  03                 const type 3
2BD1  0000803F           const [36]: (0)
2BD5  01                 const type 3
2BD6  C36F14A5           const [37]: (-1525387325)
2BDA  04                 const type 4
2BDB  02                 string size (2)
2BDC  7800               "x\0"
                         const [38]: "x"
2BDE  04                 const type 4
2BDF  02                 string size (2)
2BE0  7900               "y\0"
                         const [39]: "y"
2BE2  04                 const type 4
2BE3  02                 string size (2)
2BE4  7A00               "z\0"
                         const [40]: "z"
2BE6  01                 const type 3
2BE7  0125A76D           const [41]: (1839670529)
2BEB  01                 const type 3
2BEC  00971C22           const [42]: (572299008)
2BF0  01                 const type 3
2BF1  BC578345           const [43]: (1166235580)
2BF5  03                 const type 3
2BF6  9A99993E           const [44]: (-102)
2BFA  01                 const type 3
2BFB  FE208C1F           const [45]: (529277182)
2BFF  01                 const type 3
2C00  13F4E79C           const [46]: (-1662520301)
2C04  04                 const type 4
2C05  0E                 string size (14)
2C06  6748697450726F78+  "gHitProx"
2C0E  795479706500       "yType\0"
                         const [47]: "gHitProxyType"
2C14  01                 const type 3
2C15  652CB3E2           const [48]: (-491574171)
2C19  01                 const type 3
2C1A  C8E6859D           const [49]: (-1652169016)
2C1E  01                 const type 3
2C1F  63A9094D           const [50]: (1292478819)
2C23  01                 const type 3
2C24  272B59F7           const [51]: (-145151193)
2C28  01                 const type 3
2C29  DC3D18EC           const [52]: (-333955620)
2C2D  01                 const type 3
2C2E  41FA0EFC           const [53]: (-66127295)
                         * functions:
2C32  00                 sizep (0)
                         * lines:
2C34  01                 sizelineinfo (241)
                         [pc] (line)
2C35  33                 [001] (51)
2C36  01                 [002] (51)
2C37  00                 [003] (52)
2C38  00                 [004] (52)
2C39  33                 [005] (52)
2C3A  01                 [006] (52)
2C3B  00                 [007] (52)
2C3C  00                 [008] (53)
2C3D  34                 [009] (53)
2C3E  01                 [010] (53)
2C3F  00                 [011] (53)
2C40  00                 [012] (53)
2C41  34                 [013] (54)
2C42  01                 [014] (54)
2C43  00                 [015] (54)
2C44  00                 [016] (55)
2C45  34                 [017] (56)
2C46  01                 [018] (56)
2C47  00                 [019] (56)
2C48  00                 [020] (59)
2C49  34                 [021] (59)
2C4A  01                 [022] (59)
2C4B  00                 [023] (60)
2C4C  00                 [024] (60)
2C4D  34                 [025] (60)
2C4E  01                 [026] (60)
2C4F  00                 [027] (60)
2C50  00                 [028] (61)
2C51  35                 [029] (63)
2C52  01                 [030] (63)
2C53  00                 [031] (63)
2C54  00                 [032] (63)
2C55  35                 [033] (63)
2C56  01                 [034] (63)
2C57  00                 [035] (63)
2C58  00                 [036] (63)
2C59  35                 [037] (63)
2C5A  01                 [038] (63)
2C5B  00                 [039] (63)
2C5C  00                 [040] (64)
2C5D  35                 [041] (64)
2C5E  01                 [042] (64)
2C5F  00                 [043] (65)
2C60  00                 [044] (65)
2C61  35                 [045] (65)
2C62  01                 [046] (65)
2C63  00                 [047] (66)
2C64  00                 [048] (68)
2C65  36                 [049] (68)
2C66  01                 [050] (68)
2C67  00                 [051] (68)
2C68  00                 [052] (68)
2C69  36                 [053] (68)
2C6A  01                 [054] (69)
2C6B  00                 [055] (69)
2C6C  00                 [056] (69)
2C6D  36                 [057] (69)
2C6E  01                 [058] (70)
2C6F  00                 [059] (70)
2C70  00                 [060] (70)
2C71  37                 [061] (70)
2C72  01                 [062] (70)
2C73  00                 [063] (71)
2C74  00                 [064] (71)
2C75  38                 [065] (71)
2C76  01                 [066] (72)
2C77  00                 [067] (72)
2C78  00                 [068] (72)
2C79  38                 [069] (72)
2C7A  01                 [070] (72)
2C7B  00                 [071] (72)
2C7C  00                 [072] (73)
2C7D  38                 [073] (73)
2C7E  01                 [074] (73)
2C7F  00                 [075] (73)
2C80  00                 [076] (73)
2C81  3B                 [077] (73)
2C82  01                 [078] (73)
2C83  00                 [079] (73)
2C84  00                 [080] (75)
2C85  3B                 [081] (75)
2C86  01                 [082] (75)
2C87  00                 [083] (75)
2C88  00                 [084] (75)
2C89  3B                 [085] (75)
2C8A  01                 [086] (75)
2C8B  00                 [087] (75)
2C8C  00                 [088] (75)
2C8D  3C                 [089] (75)
2C8E  01                 [090] (75)
2C8F  00                 [091] (76)
2C90  00                 [092] (76)
2C91  3C                 [093] (77)
2C92  01                 [094] (77)
2C93  00                 [095] (78)
2C94  00                 [096] (80)
2C95  3C                 [097] (80)
2C96  01                 [098] (80)
2C97  00                 [099] (80)
2C98  00                 [100] (80)
2C99  3C                 [101] (81)
2C9A  01                 [102] (81)
2C9B  00                 [103] (81)
2C9C  00                 [104] (82)
2C9D  3C                 [105] (82)
2C9E  01                 [106] (82)
2C9F  00                 [107] (82)
2CA0  00                 [108] (82)
2CA1  3D                 [109] (82)
2CA2  01                 [110] (82)
2CA3  00                 [111] (82)
2CA4  00                 [112] (82)
2CA5  3F                 [113] (83)
2CA6  01                 [114] (83)
2CA7  00                 [115] (83)
2CA8  00                 [116] (83)
2CA9  3F                 [117] (83)
2CAA  01                 [118] (83)
2CAB  00                 [119] (84)
2CAC  00                 [120] (84)
2CAD  3F                 [121] (84)
2CAE  01                 [122] (84)
2CAF  00                 [123] (84)
2CB0  00                 [124] (85)
2CB1  3F                 [125] (85)
2CB2  01                 [126] (85)
2CB3  00                 [127] (85)
2CB4  00                 [128] (85)
2CB5  3F                 [129] (86)
2CB6  01                 [130] (86)
2CB7  00                 [131] (86)
2CB8  00                 [132] (86)
2CB9  3F                 [133] (87)
2CBA  01                 [134] (87)
2CBB  00                 [135] (88)
2CBC  00                 [136] (90)
2CBD  3F                 [137] (90)
2CBE  01                 [138] (91)
2CBF  00                 [139] (91)
2CC0  00                 [140] (91)
2CC1  3F                 [141] (91)
2CC2  01                 [142] (91)
2CC3  00                 [143] (91)
2CC4  00                 [144] (91)
2CC5  3F                 [145] (91)
2CC6  01                 [146] (91)
2CC7  00                 [147] (92)
2CC8  00                 [148] (92)
2CC9  3F                 [149] (92)
2CCA  01                 [150] (93)
2CCB  00                 [151] (93)
2CCC  00                 [152] (93)
2CCD  3F                 [153] (93)
2CCE  01                 [154] (93)
2CCF  00                 [155] (94)
2CD0  00                 [156] (94)
2CD1  40                 [157] (94)
2CD2  01                 [158] (95)
2CD3  00                 [159] (96)
2CD4  00                 [160] (97)
2CD5  40                 [161] (97)
2CD6  01                 [162] (97)
2CD7  00                 [163] (97)
2CD8  00                 [164] (98)
2CD9  40                 [165] (98)
2CDA  01                 [166] (98)
2CDB  00                 [167] (98)
2CDC  00                 [168] (98)
2CDD  41                 [169] (98)
2CDE  01                 [170] (98)
2CDF  00                 [171] (98)
2CE0  00                 [172] (98)
2CE1  41                 [173] (98)
2CE2  01                 [174] (99)
2CE3  00                 [175] (101)
2CE4  00                 [176] (101)
2CE5  41                 [177] (101)
2CE6  01                 [178] (101)
2CE7  00                 [179] (101)
2CE8  00                 [180] (101)
2CE9  41                 [181] (102)
2CEA  01                 [182] (103)
2CEB  00                 [183] (103)
2CEC  00                 [184] (104)
2CED  42                 [185] (104)
2CEE  01                 [186] (104)
2CEF  00                 [187] (104)
2CF0  00                 [188] (104)
2CF1  44                 [189] (104)
2CF2  01                 [190] (104)
2CF3  00                 [191] (104)
2CF4  00                 [192] (104)
2CF5  44                 [193] (104)
2CF6  01                 [194] (104)
2CF7  00                 [195] (104)
2CF8  00                 [196] (105)
2CF9  44                 [197] (105)
2CFA  01                 [198] (105)
2CFB  00                 [199] (105)
2CFC  00                 [200] (105)
2CFD  44                 [201] (105)
2CFE  01                 [202] (108)
2CFF  00                 [203] (108)
2D00  00                 [204] (108)
2D01  44                 [205] (108)
2D02  01                 [206] (108)
2D03  00                 [207] (111)
2D04  00                 [208] (113)
2D05  44                 [209] (113)
2D06  01                 [210] (113)
2D07  00                 [211] (113)
2D08  00                 [212] (113)
2D09  45                 [213] (114)
2D0A  01                 [214] (114)
2D0B  00                 [215] (114)
2D0C  00                 [216] (114)
2D0D  45                 [217] (116)
2D0E  01                 [218] (116)
2D0F  00                 [219] (116)
2D10  00                 [220] (117)
2D11  45                 [221] (117)
2D12  01                 [222] (117)
2D13  00                 [223] (117)
2D14  00                 [224] (117)
2D15  45                 [225] (117)
2D16  01                 [226] (117)
2D17  00                 [227] (117)
2D18  00                 [228] (117)
2D19  46                 [229] (117)
2D1A  01                 [230] (117)
2D1B  00                 [231] (117)
2D1C  00                 [232] (117)
2D1D  46                 [233] (117)
2D1E  01                 [234] (118)
2D1F  00                 [235] (118)
2D20  00                 [236] (118)
2D21  46                 [237] (118)
2D22  01                 [238] (118)
2D23  00                 [239] (118)
2D24  00                 [240] (118)
2D25  46                 [241] (124)
                         * locals:
2FF9  00                 sizelocvars (0)
                         * upvalues:
2FFA  00                 sizeupvalues (0)
                         ** end of function **

                         * lines:
2FFB  1C                 sizelineinfo (28)
                         [pc] (line)
2FFC  2A                 [01] (42)
2FFD  00                 [02] (44)
2FFE  00                 [03] (45)
2FFF  00                 [04] (46)
3000  2C                 [05] (47)
3001  00                 [06] (48)
3002  00                 [07] (49)
3003  00                 [08] (50)
3004  2D                 [09] (51)
3005  00                 [10] (52)
3006  00                 [11] (53)
3007  00                 [12] (54)
3008  2E                 [13] (55)
3009  00                 [14] (56)
300A  00                 [15] (-109)
300B  00                 [16] (-109)
300C  2F                 [17] (-109)
300D  00                 [18] (-16)
300E  00                 [19] (-16)
300F  00                 [20] (-16)
3010  30                 [21] (48)
3011  00                 [22] (48)
3012  00                 [23] (48)
3013  00                 [24] (124)
3014  31                 [25] (124)
3015  00                 [26] (124)
3016  00                 [27] (125)
3017  00                 [28] (126)
                         * locals:
306C  00                 sizelocvars (0)
                         * upvalues:
306D  00                 sizeupvalues (0)
                         ** end of function **

                         * lines:
306E  28                 sizelineinfo (40)
                         [pc] (line)
306F  01                 [01] (1)
3070  00                 [02] (1)
3071  00                 [03] (1)
3072  00                 [04] (1)
3073  01                 [05] (1)
3074  00                 [06] (3)
3075  00                 [07] (3)
3076  00                 [08] (3)
3077  01                 [09] (4)
3078  00                 [10] (4)
3079  00                 [11] (4)
307A  00                 [12] (4)
307B  01                 [13] (4)
307C  00                 [14] (5)
307D  00                 [15] (5)
307E  00                 [16] (5)
307F  01                 [17] (5)
3080  00                 [18] (5)
3081  00                 [19] (6)
3082  00                 [20] (6)
3083  03                 [21] (6)
3084  00                 [22] (17)
3085  00                 [23] (17)
3086  00                 [24] (17)
3087  03                 [25] (26)
3088  00                 [26] (26)
3089  00                 [27] (30)
308A  00                 [28] (30)
308B  03                 [29] (30)
308C  00                 [30] (28)
308D  00                 [31] (39)
308E  00                 [32] (39)
308F  04                 [33] (32)
3090  00                 [34] (126)
3091  00                 [35] (126)
3092  00                 [36] (126)
3093  04                 [37] (126)
3094  00                 [38] (126)
3095  00                 [39] (41)
3096  00                 [40] (126)
                         * locals:
310F  00                 sizelocvars (0)
                         * upvalues:
3110  00                 sizeupvalues (0)
                         ** end of function **

3111                     ** end of chunk **
