1	C:\wlua_dump\path\Lotus\Scripts\LibsSpawnLib.lua
Pos   Hex Data           Description or Code
------------------------------------------------------------------------
0000                     ** source chunk: C:\wlua_dump\path\Lotus\Scripts\LibsSpawnLib.lua
                         ** global header start **
0000  7F                 header signature: ""
0001  00                 version (major:minor hex digits)
0002  00                 format (0=official)
0003  00                 endianness (1=little endian)
0004  00                 size of int (bytes)
0005  00                 size of size_t (bytes)
0006  02                 size of Instruction (bytes)
0007  31                 size of number (bytes)
0008  8F                 integral (1=integral)
4143
                         * number type: single
                         * x86 standard (32-bit, little endian, doubles)
                         ** global header end **
package
seeall
EE.Interface.Utilities
Lotus.Scripts.Libs.TableLib
StormTarget
DoNotUse
Grineer
SetMaxAi
SetMaxSourceAi
SetMaxAiSpawn
SetSpawnDelay
SetMinSpawnDistance
SetMaxTotalAi
EnableSpawning
Update
Initialize
AddSource
RemoveSource
SetPrioritySource
SetSource
QueueAgentDestruction
KillAllAgents
KillAgentsAtSource
AddCustomAgentSpawn
SetFaction
IsCurrentSource
RegisterOnKilledCallback
RunOnAgent
GetAgentCount
GetAgents
Lotus_Game
gGameRules
 agents
 players near
true
false
 source type
priority
current
dormant
 spawnpoints
 custom spawnpoints
gRegion
agentType
tag
gNpcSpawnPointType
math
table
TEAM
table
OnKilled
FLT_MAX
table
gRegion
FLT_MAX
table
gRegion
table
table
math
table
Ending spawn script because IsNull(aiDir) or #currentSources == 0
Ending spawn script because mMaxTotalAi > 0 and totalSpawned >= mMaxTotalAi
math
Lotus.Interface.Libs.TimerMgr
gRegion
gPromotedToHost
gLotusNpcAvatarType
/Lotus/Types/Game/Waypoints/SpawnSource
table
gNpcSpawnPointType
table
table
table
agentType
tag
table
OnKilled
table
                         
0001                     ** function [0] definition (level 1)
                         ** start of function **
0001  00                 string size (0)
                         source name: (none)
0002  00                 line defined (0)
0003  00                 last line defined (0)
0004  00                 nups (0)
0005  00                 numparams (0)
0006  02                 is_vararg (2)
0007  31                 maxstacksize (49)
                         * code:
0009  02                 sizecode (271)
000A  1D000000           [001] getglobal  0   0        ; 954442511
000E  41000001           [002] vararg     1   2      
0012  9D400000           [003] getglobal  2   1        ; package
0016  8E804001           [004] gettable   2   2   258  ; "seeall"
001A  22408001           [005] call       0   3   1  
001E  06000000           [006] loadnil    0   0      
0022  5DC00000           [007] getglobal  1   3        ; 849075268
0026  99000100           [008] loadk      2   4        ; "EE.Interface.Utilities"
002A  62800001           [009] call       1   2   2  
002E  9DC00000           [010] getglobal  2   3        ; 849075268
0032  D9400100           [011] loadk      3   5        ; "Lotus.Scripts.Libs.TableLib"
0036  A2800001           [012] call       2   2   2  
003A  D7000000           [013] loadbool   3   0   0    ; false
003E  1D810100           [014] getglobal  4   6        ; -332969190
0042  59C10100           [015] loadk      5   7        ; "StormTarget"
0046  22810001           [016] call       4   2   2  
004A  5D810100           [017] getglobal  5   6        ; -332969190
004E  99010200           [018] loadk      6   8        ; "DoNotUse"
0052  62810001           [019] call       5   2   2  
0056  9D810100           [020] getglobal  6   6        ; -332969190
005A  A2818000           [021] call       6   1   2  
005E  D9410200           [022] loadk      7   9        ; 0
0062  19420200           [023] loadk      8   9        ; 0
0066  59820200           [024] loadk      9   10       ; 0
006A  99C20200           [025] loadk      10  11       ; 0
006E  D9420200           [026] loadk      11  9        ; 0
0072  1D830100           [027] getglobal  12  6        ; -332969190
0076  59030300           [028] loadk      13  12       ; "Grineer"
007A  22830001           [029] call       12  2   2  
007E  59430300           [030] loadk      13  13       ; 0
0082  99430300           [031] loadk      14  13       ; 0
0086  D7030000           [032] loadbool   15  0   0    ; false
008A  17048000           [033] loadbool   16  1   0    ; true
008E  4B040000           [034] newtable   17  0   0    ; array=0, hash=0
0092  8B040000           [035] newtable   18  0   0    ; array=0, hash=0
0096  CB040000           [036] newtable   19  0   0    ; array=0, hash=0
009A  0B050000           [037] newtable   20  0   0    ; array=0, hash=0
009E  4B050000           [038] newtable   21  0   0    ; array=0, hash=0
00A2  8B050000           [039] newtable   22  0   0    ; array=0, hash=0
00A6  CB050000           [040] newtable   23  0   0    ; array=0, hash=0
00AA  0B060000           [041] newtable   24  0   0    ; array=0, hash=0
00AE  4B060000           [042] newtable   25  0   0    ; array=0, hash=0
00B2  8B060000           [043] newtable   26  0   0    ; array=0, hash=0
00B6  CB060000           [044] newtable   27  0   0    ; array=0, hash=0
00BA  0607000E           [045] loadnil    28  28     
00BE  57070000           [046] loadbool   29  0   0    ; false
00C2  97070000           [047] loadbool   30  0   0    ; false
00C6  C6070010           [048] loadnil    31  32     
00CA  65080000           [049] closure    33  0      
00CE  12008003           [050] move       0   7      
00D2  60880300           [051] setglobal  33  14       ; SetMaxAi
00D6  60C80300           [052] setglobal  33  15       ; 1789315621
00DA  65480000           [053] closure    33  1      
00DE  12000004           [054] move       0   8      
00E2  60080400           [055] setglobal  33  16       ; SetMaxSourceAi
00E6  60480400           [056] setglobal  33  17       ; -775349893
00EA  65880000           [057] closure    33  2      
00EE  12008004           [058] move       0   9      
00F2  60880400           [059] setglobal  33  18       ; SetMaxAiSpawn
00F6  60C80400           [060] setglobal  33  19       ; 1734969248
00FA  65C80000           [061] closure    33  3      
00FE  12000005           [062] move       0   10     
0102  60080500           [063] setglobal  33  20       ; SetSpawnDelay
0106  60480500           [064] setglobal  33  21       ; 557165915
010A  65080100           [065] closure    33  4      
010E  12008005           [066] move       0   11     
0112  60880500           [067] setglobal  33  22       ; SetMinSpawnDistance
0116  60C80500           [068] setglobal  33  23       ; -1218469494
011A  65480100           [069] closure    33  5      
011E  12008006           [070] move       0   13     
0122  60080600           [071] setglobal  33  24       ; SetMaxTotalAi
0126  60480600           [072] setglobal  33  25       ; 326157707
012A  65880100           [073] closure    33  6      
012E  12000008           [074] move       0   16     
0132  A5C80100           [075] closure    34  7      
0136  12000001           [076] move       0   2      
013A  1200800D           [077] move       0   27     
013E  E5080200           [078] closure    35  8      
0142  12000011           [079] move       0   34     
0146  25490200           [080] closure    36  9      
014A  1200000D           [081] move       0   26     
014E  12008008           [082] move       0   17     
0152  12008000           [083] move       0   1      
0156  1200000A           [084] move       0   20     
015A  1200000E           [085] move       0   28     
015E  12008011           [086] move       0   35     
0162  12000009           [087] move       0   18     
0166  12008009           [088] move       0   19     
016A  65890200           [089] closure    37  10     
016E  12000001           [090] move       0   2      
0172  1200800C           [091] move       0   25     
0176  12008005           [092] move       0   11     
017A  A5C90200           [093] closure    38  11     
017E  1200000B           [094] move       0   22     
0182  E5090300           [095] closure    39  12     
0186  12000013           [096] move       0   38     
018A  1200000A           [097] move       0   20     
018E  12000003           [098] move       0   6      
0192  12000009           [099] move       0   18     
0196  12008009           [100] move       0   19     
019A  12000000           [101] move       0   0      
019E  12008005           [102] move       0   11     
01A2  12008012           [103] move       0   37     
01A6  12000001           [104] move       0   2      
01AA  254A0300           [105] closure    40  13     
01AE  12000000           [106] move       0   0      
01B2  12000006           [107] move       0   12     
01B6  12008013           [108] move       0   39     
01BA  1200800C           [109] move       0   25     
01BE  1200000F           [110] move       0   30     
01C2  1200800F           [111] move       0   31     
01C6  12008008           [112] move       0   17     
01CA  12000007           [113] move       0   14     
01CE  658A0300           [114] closure    41  14     
01D2  1200000D           [115] move       0   26     
01D6  1200000C           [116] move       0   24     
01DA  12000003           [117] move       0   6      
01DE  12000009           [118] move       0   18     
01E2  12008002           [119] move       0   5      
01E6  12008009           [120] move       0   19     
01EA  A5CA0300           [121] closure    42  15     
01EE  1200000D           [122] move       0   26     
01F2  1200000C           [123] move       0   24     
01F6  1200000A           [124] move       0   20     
01FA  1200800A           [125] move       0   21     
01FE  12008008           [126] move       0   17     
0202  12000002           [127] move       0   4      
0206  E50A0400           [128] closure    43  16     
020A  1200000D           [129] move       0   26     
020E  12000001           [130] move       0   2      
0212  12008008           [131] move       0   17     
0216  254B0400           [132] closure    44  17     
021A  12008005           [133] move       0   11     
021E  658B0400           [134] closure    45  18     
0222  1200000D           [135] move       0   26     
0226  12008008           [136] move       0   17     
022A  12008011           [137] move       0   35     
022E  1200000E           [138] move       0   28     
0232  1200000C           [139] move       0   24     
0236  1200000A           [140] move       0   20     
023A  12000016           [141] move       0   44     
023E  12000013           [142] move       0   38     
0242  12000003           [143] move       0   6      
0246  A5CB0400           [144] closure    46  19     
024A  12008013           [145] move       0   39     
024E  12000013           [146] move       0   38     
0252  12000003           [147] move       0   6      
0256  12008015           [148] move       0   43     
025A  12008008           [149] move       0   17     
025E  E50B0500           [150] closure    47  20     
0262  12008008           [151] move       0   17     
0266  254C0500           [152] closure    48  21     
026A  1200800E           [153] move       0   29     
026E  208C0600           [154] setglobal  48  26       ; EnableSpawning
0272  20CC0600           [155] setglobal  48  27       ; 466286795
0276  258C0500           [156] closure    48  22     
027A  12000000           [157] move       0   0      
027E  1200800D           [158] move       0   27     
0282  12000010           [159] move       0   32     
0286  12000015           [160] move       0   42     
028A  12008001           [161] move       0   3      
028E  12000012           [162] move       0   36     
0292  12008006           [163] move       0   13     
0296  12000007           [164] move       0   14     
029A  1200800E           [165] move       0   29     
029E  12000008           [166] move       0   16     
02A2  12008007           [167] move       0   15     
02A6  1200800C           [168] move       0   25     
02AA  12008003           [169] move       0   7      
02AE  12008016           [170] move       0   45     
02B2  1200000E           [171] move       0   28     
02B6  12008000           [172] move       0   1      
02BA  1200000A           [173] move       0   20     
02BE  12000004           [174] move       0   8      
02C2  12008008           [175] move       0   17     
02C6  12008004           [176] move       0   9      
02CA  12000017           [177] move       0   46     
02CE  12000014           [178] move       0   40     
02D2  1200800B           [179] move       0   23     
02D6  200C0700           [180] setglobal  48  28       ; Update
02DA  204C0700           [181] setglobal  48  29       ; -1938777623
02DE  25CC0500           [182] closure    48  23     
02E2  12000010           [183] move       0   32     
02E6  12000000           [184] move       0   0      
02EA  1200000D           [185] move       0   26     
02EE  1200800D           [186] move       0   27     
02F2  12000007           [187] move       0   14     
02F6  12008008           [188] move       0   17     
02FA  12000009           [189] move       0   18     
02FE  12008009           [190] move       0   19     
0302  1200800B           [191] move       0   23     
0306  1200000A           [192] move       0   20     
030A  1200800A           [193] move       0   21     
030E  1200000C           [194] move       0   24     
0312  12000006           [195] move       0   12     
0316  12008014           [196] move       0   41     
031A  12000005           [197] move       0   10     
031E  12008010           [198] move       0   33     
0322  208C0700           [199] setglobal  48  30       ; Initialize
0326  20CC0700           [200] setglobal  48  31       ; 1650753590
032A  250C0600           [201] closure    48  24     
032E  12008011           [202] move       0   35     
0332  1200800D           [203] move       0   27     
0336  12008007           [204] move       0   15     
033A  200C0800           [205] setglobal  48  32       ; AddSource
033E  204C0800           [206] setglobal  48  33       ; 131862303
0342  254C0600           [207] closure    48  25     
0346  12000001           [208] move       0   2      
034A  1200800D           [209] move       0   27     
034E  12008007           [210] move       0   15     
0352  208C0800           [211] setglobal  48  34       ; RemoveSource
0356  20CC0800           [212] setglobal  48  35       ; 549026819
035A  258C0600           [213] closure    48  26     
035E  12000000           [214] move       0   0      
0362  12008007           [215] move       0   15     
0366  1200000E           [216] move       0   28     
036A  200C0900           [217] setglobal  48  36       ; SetPrioritySource
036E  204C0900           [218] setglobal  48  37       ; -1792056833
0372  25CC0600           [219] closure    48  27     
0376  1200800D           [220] move       0   27     
037A  12008007           [221] move       0   15     
037E  208C0900           [222] setglobal  48  38       ; SetSource
0382  20CC0900           [223] setglobal  48  39       ; -420630141
0386  250C0700           [224] closure    48  28     
038A  1200000D           [225] move       0   26     
038E  12008008           [226] move       0   17     
0392  12000016           [227] move       0   44     
0396  200C0A00           [228] setglobal  48  40       ; QueueAgentDestruction
039A  204C0A00           [229] setglobal  48  41       ; 280907345
039E  254C0700           [230] closure    48  29     
03A2  1200000D           [231] move       0   26     
03A6  12008017           [232] move       0   47     
03AA  208C0A00           [233] setglobal  48  42       ; KillAllAgents
03AE  20CC0A00           [234] setglobal  48  43       ; 663212890
03B2  258C0700           [235] closure    48  30     
03B6  12008017           [236] move       0   47     
03BA  200C0B00           [237] setglobal  48  44       ; KillAgentsAtSource
03BE  204C0B00           [238] setglobal  48  45       ; 349381740
03C2  25CC0700           [239] closure    48  31     
03C6  1200000B           [240] move       0   22     
03CA  208C0B00           [241] setglobal  48  46       ; AddCustomAgentSpawn
03CE  20CC0B00           [242] setglobal  48  47       ; -1623627072
03D2  250C0800           [243] closure    48  32     
03D6  12000006           [244] move       0   12     
03DA  200C0C00           [245] setglobal  48  48       ; SetFaction
03DE  204C0C00           [246] setglobal  48  49       ; -1338608417
03E2  254C0800           [247] closure    48  33     
03E6  12008011           [248] move       0   35     
03EA  208C0C00           [249] setglobal  48  50       ; IsCurrentSource
03EE  20CC0C00           [250] setglobal  48  51       ; -984900969
03F2  258C0800           [251] closure    48  34     
03F6  1200000F           [252] move       0   30     
03FA  1200000D           [253] move       0   26     
03FE  12008008           [254] move       0   17     
0402  200C0D00           [255] setglobal  48  52       ; RegisterOnKilledCallback
0406  204C0D00           [256] setglobal  48  53       ; -1439886944
040A  25CC0800           [257] closure    48  35     
040E  1200800F           [258] move       0   31     
0412  208C0D00           [259] setglobal  48  54       ; RunOnAgent
0416  20CC0D00           [260] setglobal  48  55       ; -506040082
041A  250C0900           [261] closure    48  36     
041E  1200000D           [262] move       0   26     
0422  12008008           [263] move       0   17     
0426  200C0E00           [264] setglobal  48  56       ; GetAgentCount
042A  204C0E00           [265] setglobal  48  57       ; -655347591
042E  254C0900           [266] closure    48  37     
0432  1200000D           [267] move       0   26     
0436  12008008           [268] move       0   17     
043A  208C0E00           [269] setglobal  48  58       ; GetAgents
043E  20CC0E00           [270] setglobal  48  59       ; -61032981
0442  1E008000           [271] return     0   1      
                         * constants:
0446  3C                 sizek (60)
0447  01                 const type 3
0448  0FA3E338           const [0]: (954442511)
044C  04                 const type 4
044D  08                 string size (8)
044E  7061636B61676500   "package\0"
                         const [1]: "package"
0456  04                 const type 4
0457  07                 string size (7)
0458  736565616C6C00     "seeall\0"
                         const [2]: "seeall"
045F  01                 const type 3
0460  44DC9B32           const [3]: (849075268)
0464  04                 const type 4
0465  17                 string size (23)
0466  45452E496E746572+  "EE.Inter"
046E  666163652E557469+  "face.Uti"
0476  6C697469657300     "lities\0"
                         const [4]: "EE.Interface.Utilities"
047D  04                 const type 4
047E  1C                 string size (28)
047F  4C6F7475732E5363+  "Lotus.Sc"
0487  72697074732E4C69+  "ripts.Li"
048F  62732E5461626C65+  "bs.Table"
0497  4C696200           "Lib\0"
                         const [5]: "Lotus.Scripts.Libs.TableLib"
049B  01                 const type 3
049C  1A4B27EC           const [6]: (-332969190)
04A0  04                 const type 4
04A1  0C                 string size (12)
04A2  53746F726D546172+  "StormTar"
04AA  67657400           "get\0"
                         const [7]: "StormTarget"
04AE  04                 const type 4
04AF  09                 string size (9)
04B0  446F4E6F74557365+  "DoNotUse"
04B8  00                 "\0"
                         const [8]: "DoNotUse"
04B9  03                 const type 3
04BA  0000A041           const [9]: (0)
04BE  03                 const type 3
04BF  0000A040           const [10]: (0)
04C3  03                 const type 3
04C4  00008040           const [11]: (0)
04C8  04                 const type 4
04C9  08                 string size (8)
04CA  4772696E65657200   "Grineer\0"
                         const [12]: "Grineer"
04D2  03                 const type 3
04D3  00000000           const [13]: (0)
04D7  04                 const type 4
04D8  09                 string size (9)
04D9  5365744D61784169+  "SetMaxAi"
04E1  00                 "\0"
                         const [14]: "SetMaxAi"
04E2  01                 const type 3
04E3  25CAA66A           const [15]: (1789315621)
04E7  04                 const type 4
04E8  0F                 string size (15)
04E9  5365744D6178536F+  "SetMaxSo"
04F1  75726365416900     "urceAi\0"
                         const [16]: "SetMaxSourceAi"
04F8  01                 const type 3
04F9  7B19C9D1           const [17]: (-775349893)
04FD  04                 const type 4
04FE  0E                 string size (14)
04FF  5365744D61784169+  "SetMaxAi"
0507  537061776E00       "Spawn\0"
                         const [18]: "SetMaxAiSpawn"
050D  01                 const type 3
050E  A0876967           const [19]: (1734969248)
0512  04                 const type 4
0513  0E                 string size (14)
0514  536574537061776E+  "SetSpawn"
051C  44656C617900       "Delay\0"
                         const [20]: "SetSpawnDelay"
0522  01                 const type 3
0523  5BAD3521           const [21]: (557165915)
0527  04                 const type 4
0528  14                 string size (20)
0529  5365744D696E5370+  "SetMinSp"
0531  61776E4469737461+  "awnDista"
0539  6E636500           "nce\0"
                         const [22]: "SetMinSpawnDistance"
053D  01                 const type 3
053E  8AA15FB7           const [23]: (-1218469494)
0542  04                 const type 4
0543  0E                 string size (14)
0544  5365744D6178546F+  "SetMaxTo"
054C  74616C416900       "talAi\0"
                         const [24]: "SetMaxTotalAi"
0552  01                 const type 3
0553  8BC57013           const [25]: (326157707)
0557  04                 const type 4
0558  0F                 string size (15)
0559  456E61626C655370+  "EnableSp"
0561  61776E696E6700     "awning\0"
                         const [26]: "EnableSpawning"
0568  01                 const type 3
0569  CBF8CA1B           const [27]: (466286795)
056D  04                 const type 4
056E  07                 string size (7)
056F  55706461746500     "Update\0"
                         const [28]: "Update"
0576  01                 const type 3
0577  E999708C           const [29]: (-1938777623)
057B  04                 const type 4
057C  0B                 string size (11)
057D  496E697469616C69+  "Initiali"
0585  7A6500             "ze\0"
                         const [30]: "Initialize"
0588  01                 const type 3
0589  36806462           const [31]: (1650753590)
058D  04                 const type 4
058E  0A                 string size (10)
058F  416464536F757263+  "AddSourc"
0597  6500               "e\0"
                         const [32]: "AddSource"
0599  01                 const type 3
059A  1F0FDC07           const [33]: (131862303)
059E  04                 const type 4
059F  0D                 string size (13)
05A0  52656D6F7665536F+  "RemoveSo"
05A8  7572636500         "urce\0"
                         const [34]: "RemoveSource"
05AD  01                 const type 3
05AE  037CB920           const [35]: (549026819)
05B2  04                 const type 4
05B3  12                 string size (18)
05B4  5365745072696F72+  "SetPrior"
05BC  697479536F757263+  "itySourc"
05C4  6500               "e\0"
                         const [36]: "SetPrioritySource"
05C6  01                 const type 3
05C7  FF612F95           const [37]: (-1792056833)
05CB  04                 const type 4
05CC  0A                 string size (10)
05CD  536574536F757263+  "SetSourc"
05D5  6500               "e\0"
                         const [38]: "SetSource"
05D7  01                 const type 3
05D8  83B1EDE6           const [39]: (-420630141)
05DC  04                 const type 4
05DD  16                 string size (22)
05DE  5175657565416765+  "QueueAge"
05E6  6E74446573747275+  "ntDestru"
05EE  6374696F6E00       "ction\0"
                         const [40]: "QueueAgentDestruction"
05F4  01                 const type 3
05F5  514EBE10           const [41]: (280907345)
05F9  04                 const type 4
05FA  0E                 string size (14)
05FB  4B696C6C416C6C41+  "KillAllA"
0603  67656E747300       "gents\0"
                         const [42]: "KillAllAgents"
0609  01                 const type 3
060A  5AD38727           const [43]: (663212890)
060E  04                 const type 4
060F  13                 string size (19)
0610  4B696C6C4167656E+  "KillAgen"
0618  74734174536F7572+  "tsAtSour"
0620  636500             "ce\0"
                         const [44]: "KillAgentsAtSource"
0623  01                 const type 3
0624  6C24D314           const [45]: (349381740)
0628  04                 const type 4
0629  14                 string size (20)
062A  416464437573746F+  "AddCusto"
0632  6D4167656E745370+  "mAgentSp"
063A  61776E00           "awn\0"
                         const [46]: "AddCustomAgentSpawn"
063E  01                 const type 3
063F  C06A399F           const [47]: (-1623627072)
0643  04                 const type 4
0644  0B                 string size (11)
0645  5365744661637469+  "SetFacti"
064D  6F6E00             "on\0"
                         const [48]: "SetFaction"
0650  01                 const type 3
0651  DF7436B0           const [49]: (-1338608417)
0655  04                 const type 4
0656  10                 string size (16)
0657  497343757272656E+  "IsCurren"
065F  74536F7572636500   "tSource\0"
                         const [50]: "IsCurrentSource"
0667  01                 const type 3
0668  979A4BC5           const [51]: (-984900969)
066C  04                 const type 4
066D  19                 string size (25)
066E  5265676973746572+  "Register"
0676  4F6E4B696C6C6564+  "OnKilled"
067E  43616C6C6261636B+  "Callback"
0686  00                 "\0"
                         const [52]: "RegisterOnKilledCallback"
0687  01                 const type 3
0688  A0112DAA           const [53]: (-1439886944)
068C  04                 const type 4
068D  0B                 string size (11)
068E  52756E4F6E416765+  "RunOnAge"
0696  6E7400             "nt\0"
                         const [54]: "RunOnAgent"
0699  01                 const type 3
069A  EE70D6E1           const [55]: (-506040082)
069E  04                 const type 4
069F  0E                 string size (14)
06A0  4765744167656E74+  "GetAgent"
06A8  436F756E7400       "Count\0"
                         const [56]: "GetAgentCount"
06AE  01                 const type 3
06AF  7930F0D8           const [57]: (-655347591)
06B3  04                 const type 4
06B4  0A                 string size (10)
06B5  4765744167656E74+  "GetAgent"
06BD  7300               "s\0"
                         const [58]: "GetAgents"
06BF  01                 const type 3
06C0  EBB55CFC           const [59]: (-61032981)
                         * functions:
06C4  26                 sizep (38)
                         
06C5                     ** function [0] definition (level 2)
                         ** start of function **
06C5  00                 string size (0)
                         source name: (none)
06C6  2B                 line defined (43)
06C7  2B                 last line defined (43)
06C8  01                 nups (1)
06C9  01                 numparams (1)
06CA  00                 is_vararg (0)
06CB  02                 maxstacksize (2)
                         * code:
06CC  02                 sizecode (2)
fail op	8
06CD  08000000           [1] setupval   0   0      
06D1  1E008000           [2] return     0   1      
                         * constants:
06D5  00                 sizek (0)
                         * functions:
06D6  00                 sizep (0)
                         * lines:
06D7  02                 sizelineinfo (2)
                         [pc] (line)
06D8  2B                 [1] (43)
06D9  00                 [2] (43)
                         * locals:
06E0  00                 sizelocvars (0)
                         * upvalues:
06E1  00                 sizeupvalues (0)
                         ** end of function **

                         
06E2                     ** function [1] definition (level 2)
                         ** start of function **
06E2  00                 string size (0)
                         source name: (none)
06E3  2C                 line defined (44)
06E4  2C                 last line defined (44)
06E5  01                 nups (1)
06E6  01                 numparams (1)
06E7  00                 is_vararg (0)
06E8  02                 maxstacksize (2)
                         * code:
06E9  02                 sizecode (2)
fail op	8
06EA  08000000           [1] setupval   0   0      
06EE  1E008000           [2] return     0   1      
                         * constants:
06F2  00                 sizek (0)
                         * functions:
06F3  00                 sizep (0)
                         * lines:
06F4  02                 sizelineinfo (2)
                         [pc] (line)
06F5  2C                 [1] (44)
06F6  00                 [2] (44)
                         * locals:
06FD  00                 sizelocvars (0)
                         * upvalues:
06FE  00                 sizeupvalues (0)
                         ** end of function **

                         
06FF                     ** function [2] definition (level 2)
                         ** start of function **
06FF  00                 string size (0)
                         source name: (none)
0700  2D                 line defined (45)
0701  2D                 last line defined (45)
0702  01                 nups (1)
0703  01                 numparams (1)
0704  00                 is_vararg (0)
0705  02                 maxstacksize (2)
                         * code:
0706  02                 sizecode (2)
fail op	8
0707  08000000           [1] setupval   0   0      
070B  1E008000           [2] return     0   1      
                         * constants:
070F  00                 sizek (0)
                         * functions:
0710  00                 sizep (0)
                         * lines:
0711  02                 sizelineinfo (2)
                         [pc] (line)
0712  2D                 [1] (45)
0713  00                 [2] (45)
                         * locals:
071A  00                 sizelocvars (0)
                         * upvalues:
071B  00                 sizeupvalues (0)
                         ** end of function **

                         
071C                     ** function [3] definition (level 2)
                         ** start of function **
071C  00                 string size (0)
                         source name: (none)
071D  2E                 line defined (46)
071E  2E                 last line defined (46)
071F  01                 nups (1)
0720  01                 numparams (1)
0721  00                 is_vararg (0)
0722  02                 maxstacksize (2)
                         * code:
0723  02                 sizecode (2)
fail op	8
0724  08000000           [1] setupval   0   0      
0728  1E008000           [2] return     0   1      
                         * constants:
072C  00                 sizek (0)
                         * functions:
072D  00                 sizep (0)
                         * lines:
072E  02                 sizelineinfo (2)
                         [pc] (line)
072F  2E                 [1] (46)
0730  00                 [2] (46)
                         * locals:
0737  00                 sizelocvars (0)
                         * upvalues:
0738  00                 sizeupvalues (0)
                         ** end of function **

                         
0739                     ** function [4] definition (level 2)
                         ** start of function **
0739  00                 string size (0)
                         source name: (none)
073A  2F                 line defined (47)
073B  2F                 last line defined (47)
073C  01                 nups (1)
073D  01                 numparams (1)
073E  00                 is_vararg (0)
073F  02                 maxstacksize (2)
                         * code:
0740  02                 sizecode (2)
fail op	8
0741  08000000           [1] setupval   0   0      
0745  1E008000           [2] return     0   1      
                         * constants:
0749  00                 sizek (0)
                         * functions:
074A  00                 sizep (0)
                         * lines:
074B  02                 sizelineinfo (2)
                         [pc] (line)
074C  2F                 [1] (47)
074D  00                 [2] (47)
                         * locals:
0754  00                 sizelocvars (0)
                         * upvalues:
0755  00                 sizeupvalues (0)
                         ** end of function **

                         
0756                     ** function [5] definition (level 2)
                         ** start of function **
0756  00                 string size (0)
                         source name: (none)
0757  30                 line defined (48)
0758  30                 last line defined (48)
0759  01                 nups (1)
075A  01                 numparams (1)
075B  00                 is_vararg (0)
075C  02                 maxstacksize (2)
                         * code:
075D  02                 sizecode (2)
fail op	8
075E  08000000           [1] setupval   0   0      
0762  1E008000           [2] return     0   1      
                         * constants:
0766  00                 sizek (0)
                         * functions:
0767  00                 sizep (0)
                         * lines:
0768  02                 sizelineinfo (2)
                         [pc] (line)
0769  30                 [1] (48)
076A  00                 [2] (48)
                         * locals:
0771  00                 sizelocvars (0)
                         * upvalues:
0772  00                 sizeupvalues (0)
                         ** end of function **

                         
0773                     ** function [6] definition (level 2)
                         ** start of function **
0773  00                 string size (0)
                         source name: (none)
0774  32                 line defined (50)
0775  34                 last line defined (52)
0776  01                 nups (1)
0777  01                 numparams (1)
0778  00                 is_vararg (0)
0779  02                 maxstacksize (2)
                         * code:
077A  03                 sizecode (3)
077B  57008000           [1] loadbool   1   1   0    ; true
fail op	8
077F  48000000           [2] setupval   1   0      
0783  1E008000           [3] return     0   1      
                         * constants:
0787  00                 sizek (0)
                         * functions:
0788  00                 sizep (0)
                         * lines:
0789  03                 sizelineinfo (3)
                         [pc] (line)
078A  33                 [1] (51)
078B  00                 [2] (51)
078C  00                 [3] (52)
                         * locals:
0796  00                 sizelocvars (0)
                         * upvalues:
0797  00                 sizeupvalues (0)
                         ** end of function **

                         
0798                     ** function [7] definition (level 2)
                         ** start of function **
0798  00                 string size (0)
                         source name: (none)
0799  36                 line defined (54)
079A  38                 last line defined (56)
079B  02                 nups (2)
079C  01                 numparams (1)
079D  00                 is_vararg (0)
079E  04                 maxstacksize (4)
                         * code:
079F  07                 sizecode (7)
07A0  53000000           [1] getupval   1   0      
07A4  4E00C000           [2] gettable   1   1   256  ; 439703155
07A8  93008000           [3] getupval   2   1      
07AC  D2000000           [4] move       3   0      
07B0  47008001           [5] tailcall   1   3   0  
07B4  5E000000           [6] return     1   0      
07B8  1E008000           [7] return     0   1      
                         * constants:
07BC  01                 sizek (1)
07BD  01                 const type 3
07BE  7356351A           const [0]: (439703155)
                         * functions:
07C2  00                 sizep (0)
                         * lines:
07C3  07                 sizelineinfo (7)
                         [pc] (line)
07C4  37                 [1] (55)
07C5  00                 [2] (55)
07C6  00                 [3] (55)
07C7  00                 [4] (55)
07C8  37                 [5] (55)
07C9  00                 [6] (55)
07CA  00                 [7] (56)
                         * locals:
07E0  00                 sizelocvars (0)
                         * upvalues:
07E1  00                 sizeupvalues (0)
                         ** end of function **

                         
07E2                     ** function [8] definition (level 2)
                         ** start of function **
07E2  00                 string size (0)
                         source name: (none)
07E3  3A                 line defined (58)
07E4  3C                 last line defined (60)
07E5  01                 nups (1)
07E6  01                 numparams (1)
07E7  00                 is_vararg (0)
07E8  03                 maxstacksize (3)
                         * code:
07E9  09                 sizecode (9)
07EA  53000000           [1] getupval   1   0      
07EE  92000000           [2] move       2   0      
07F2  62800001           [3] call       1   2   2  
fail op	21
07F6  55400080           [4] concat     1   256 1  
07FA  1A000080           [5] jmp        1            ; to [7]
07FE  57400000           [6] loadbool   1   0   1    ; false, to [8]
0802  57008000           [7] loadbool   1   1   0    ; true
0806  5E000001           [8] return     1   2      
080A  1E008000           [9] return     0   1      
                         * constants:
080E  01                 sizek (1)
080F  03                 const type 3
0810  00000000           const [0]: (0)
                         * functions:
0814  00                 sizep (0)
                         * lines:
0815  09                 sizelineinfo (9)
                         [pc] (line)
0816  3B                 [1] (59)
0817  00                 [2] (59)
0818  00                 [3] (59)
0819  00                 [4] (59)
081A  3B                 [5] (59)
081B  00                 [6] (59)
081C  00                 [7] (59)
081D  00                 [8] (59)
081E  3B                 [9] (60)
                         * locals:
083A  00                 sizelocvars (0)
                         * upvalues:
083B  00                 sizeupvalues (0)
                         ** end of function **

                         
083C                     ** function [9] definition (level 2)
                         ** start of function **
083C  00                 string size (0)
                         source name: (none)
083D  3E                 line defined (62)
083E  53                 last line defined (83)
083F  08                 nups (8)
0840  00                 numparams (0)
0841  00                 is_vararg (0)
0842  0E                 maxstacksize (14)
                         * code:
0843  64                 sizecode (100)
0844  1D000000           [001] getglobal  0   0        ; Lotus_Game
0848  0E404000           [002] gettable   0   0   257  ; -1873890401
084C  22808000           [003] call       0   1   2  
0850  18400000           [004] test       0       1    ; to [6] if false
0854  1A000080           [005] jmp        1            ; to [7]
0858  1E008000           [006] return     0   1      
085C  1D800000           [007] getglobal  0   2        ; gGameRules
0860  5DC00000           [008] getglobal  1   3        ; 1672515847
0864  93000000           [009] getupval   2   0      
0868  62000101           [010] call       1   2   4  
086C  1A401580           [011] jmp        86           ; to [98]
0870  A401C102           [012] self       6   5   260  ; 455421500
0874  A2810001           [013] call       6   2   2  
0878  E4414100           [014] self       7   0   261  ; 513273109
087C  5D820100           [015] getglobal  9   6        ; -332969190
0880  92020003           [016] move       10  6      
0884  D9C20100           [017] loadk      11  7        ; " agents"
0888  82C20205           [018] concat     10  10  11 
088C  62820001           [019] call       9   2   2  
0890  9D020200           [020] getglobal  10  8        ; -1615931716
0894  D3028000           [021] getupval   11  1      
0898  CE828105           [022] gettable   11  11  6  
089C  CA028005           [023] len        11  11     
08A0  A2020001           [024] call       10  2   0  
08A4  E2410000           [025] call       7   0   1  
08A8  E4414100           [026] self       7   0   261  ; 513273109
08AC  5D820100           [027] getglobal  9   6        ; -332969190
08B0  92020003           [028] move       10  6      
08B4  D9420200           [029] loadk      11  9        ; " players near"
08B8  82C20205           [030] concat     10  10  11 
08BC  62820001           [031] call       9   2   2  
08C0  93020001           [032] getupval   10  2      
08C4  8E824205           [033] gettable   10  10  266  ; -132701534
08C8  D3028001           [034] getupval   11  3      
08CC  CE828105           [035] gettable   11  11  6  
08D0  19C30200           [036] loadk      12  11       ; "true"
08D4  59030300           [037] loadk      13  12       ; "false"
08D8  A2020002           [038] call       10  4   0  
08DC  E2410000           [039] call       7   0   1  
08E0  D3010002           [040] getupval   7   4      
fail op	35
08E4  23C08102           [041] close      0  
08E8  1A000280           [042] jmp        9            ; to [52]
08EC  E4414100           [043] self       7   0   261  ; 513273109
08F0  5D820100           [044] getglobal  9   6        ; -332969190
08F4  92020003           [045] move       10  6      
08F8  D9420300           [046] loadk      11  13       ; " source type"
08FC  82C20205           [047] concat     10  10  11 
0900  62820001           [048] call       9   2   2  
0904  99820300           [049] loadk      10  14       ; "priority"
0908  E2410002           [050] call       7   4   1  
090C  1A400580           [051] jmp        22           ; to [74]
0910  D3018002           [052] getupval   7   5      
0914  12028002           [053] move       8   5      
0918  E2810001           [054] call       7   2   2  
091C  D8010000           [055] test       7       0    ; to [57] if true
0920  1A000280           [056] jmp        9            ; to [66]
0924  E4414100           [057] self       7   0   261  ; 513273109
0928  5D820100           [058] getglobal  9   6        ; -332969190
092C  92020003           [059] move       10  6      
0930  D9420300           [060] loadk      11  13       ; " source type"
0934  82C20205           [061] concat     10  10  11 
0938  62820001           [062] call       9   2   2  
093C  99C20300           [063] loadk      10  15       ; "current"
0940  E2410002           [064] call       7   4   1  
0944  1AC00180           [065] jmp        8            ; to [74]
0948  E4414100           [066] self       7   0   261  ; 513273109
094C  5D820100           [067] getglobal  9   6        ; -332969190
0950  92020003           [068] move       10  6      
0954  D9420300           [069] loadk      11  13       ; " source type"
0958  82C20205           [070] concat     10  10  11 
095C  62820001           [071] call       9   2   2  
0960  99020400           [072] loadk      10  16       ; "dormant"
0964  E2410002           [073] call       7   4   1  
0968  E4414100           [074] self       7   0   261  ; 513273109
096C  5D820100           [075] getglobal  9   6        ; -332969190
0970  92020003           [076] move       10  6      
0974  D9420400           [077] loadk      11  17       ; " spawnpoints"
0978  82C20205           [078] concat     10  10  11 
097C  62820001           [079] call       9   2   2  
0980  9D020200           [080] getglobal  10  8        ; -1615931716
0984  D3020003           [081] getupval   11  6      
0988  CE828105           [082] gettable   11  11  6  
098C  CA028005           [083] len        11  11     
0990  A2020001           [084] call       10  2   0  
0994  E2410000           [085] call       7   0   1  
0998  E4414100           [086] self       7   0   261  ; 513273109
099C  5D820100           [087] getglobal  9   6        ; -332969190
09A0  92020003           [088] move       10  6      
09A4  D9820400           [089] loadk      11  18       ; " custom spawnpoints"
09A8  82C20205           [090] concat     10  10  11 
09AC  62820001           [091] call       9   2   2  
09B0  9D020200           [092] getglobal  10  8        ; -1615931716
09B4  D3028003           [093] getupval   11  7      
09B8  CE828105           [094] gettable   11  11  6  
09BC  CA028005           [095] len        11  11     
09C0  A2020001           [096] call       10  2   0  
09C4  E2410000           [097] call       7   0   1  
09C8  56800000           [098] tforloop   1       2    ; to [100] if exit
09CC  1AC0E97F           [099] jmp        -88          ; to [12]
09D0  1E008000           [100] return     0   1      
                         * constants:
09D4  13                 sizek (19)
09D5  04                 const type 4
09D6  0B                 string size (11)
09D7  4C6F7475735F4761+  "Lotus_Ga"
09DF  6D6500             "me\0"
                         const [0]: "Lotus_Game"
09E2  01                 const type 3
09E3  9FB34E90           const [1]: (-1873890401)
09E7  04                 const type 4
09E8  0B                 string size (11)
09E9  6747616D6552756C+  "gGameRul"
09F1  657300             "es\0"
                         const [2]: "gGameRules"
09F4  01                 const type 3
09F5  0791B063           const [3]: (1672515847)
09F9  01                 const type 3
09FA  3C2E251B           const [4]: (455421500)
09FE  01                 const type 3
09FF  15ED971E           const [5]: (513273109)
0A03  01                 const type 3
0A04  1A4B27EC           const [6]: (-332969190)
0A08  04                 const type 4
0A09  08                 string size (8)
0A0A  206167656E747300   " agents\0"
                         const [7]: " agents"
0A12  01                 const type 3
0A13  BCD6AE9F           const [8]: (-1615931716)
0A17  04                 const type 4
0A18  0E                 string size (14)
0A19  20706C6179657273+  " players"
0A21  206E65617200       " near\0"
                         const [9]: " players near"
0A27  01                 const type 3
0A28  A22217F8           const [10]: (-132701534)
0A2C  04                 const type 4
0A2D  05                 string size (5)
0A2E  7472756500         "true\0"
                         const [11]: "true"
0A33  04                 const type 4
0A34  06                 string size (6)
0A35  66616C736500       "false\0"
                         const [12]: "false"
0A3B  04                 const type 4
0A3C  0D                 string size (13)
0A3D  20736F7572636520+  " source "
0A45  7479706500         "type\0"
                         const [13]: " source type"
0A4A  04                 const type 4
0A4B  09                 string size (9)
0A4C  7072696F72697479+  "priority"
0A54  00                 "\0"
                         const [14]: "priority"
0A55  04                 const type 4
0A56  08                 string size (8)
0A57  63757272656E7400   "current\0"
                         const [15]: "current"
0A5F  04                 const type 4
0A60  08                 string size (8)
0A61  646F726D616E7400   "dormant\0"
                         const [16]: "dormant"
0A69  04                 const type 4
0A6A  0D                 string size (13)
0A6B  20737061776E706F+  " spawnpo"
0A73  696E747300         "ints\0"
                         const [17]: " spawnpoints"
0A78  04                 const type 4
0A79  14                 string size (20)
0A7A  20637573746F6D20+  " custom "
0A82  737061776E706F69+  "spawnpoi"
0A8A  6E747300           "nts\0"
                         const [18]: " custom spawnpoints"
                         * functions:
0A8E  00                 sizep (0)
                         * lines:
0A8F  64                 sizelineinfo (100)
                         [pc] (line)
0A90  3F                 [001] (63)
0A91  00                 [002] (63)
0A92  00                 [003] (63)
0A93  00                 [004] (63)
0A94  3F                 [005] (63)
0A95  00                 [006] (64)
0A96  00                 [007] (67)
0A97  00                 [008] (69)
0A98  3F                 [009] (69)
0A99  00                 [010] (69)
0A9A  00                 [011] (69)
0A9B  00                 [012] (70)
0A9C  3F                 [013] (70)
0A9D  00                 [014] (71)
0A9E  00                 [015] (71)
0A9F  00                 [016] (71)
0AA0  3F                 [017] (71)
0AA1  00                 [018] (71)
0AA2  00                 [019] (71)
0AA3  00                 [020] (71)
0AA4  40                 [021] (71)
0AA5  00                 [022] (71)
0AA6  00                 [023] (71)
0AA7  00                 [024] (71)
0AA8  43                 [025] (71)
0AA9  00                 [026] (72)
0AAA  00                 [027] (72)
0AAB  00                 [028] (72)
0AAC  45                 [029] (72)
0AAD  00                 [030] (72)
0AAE  00                 [031] (72)
0AAF  00                 [032] (72)
0AB0  45                 [033] (72)
0AB1  00                 [034] (72)
0AB2  00                 [035] (72)
0AB3  00                 [036] (72)
0AB4  45                 [037] (72)
0AB5  00                 [038] (72)
0AB6  00                 [039] (72)
0AB7  00                 [040] (73)
0AB8  45                 [041] (73)
0AB9  00                 [042] (73)
0ABA  00                 [043] (74)
0ABB  00                 [044] (74)
0ABC  46                 [045] (74)
0ABD  00                 [046] (74)
0ABE  00                 [047] (74)
0ABF  00                 [048] (74)
0AC0  46                 [049] (74)
0AC1  00                 [050] (74)
0AC2  00                 [051] (74)
0AC3  00                 [052] (75)
0AC4  47                 [053] (75)
0AC5  00                 [054] (75)
0AC6  00                 [055] (75)
0AC7  00                 [056] (75)
0AC8  47                 [057] (76)
0AC9  00                 [058] (76)
0ACA  00                 [059] (76)
0ACB  00                 [060] (76)
0ACC  47                 [061] (76)
0ACD  00                 [062] (76)
0ACE  00                 [063] (76)
0ACF  00                 [064] (76)
0AD0  47                 [065] (76)
0AD1  00                 [066] (78)
0AD2  00                 [067] (78)
0AD3  00                 [068] (78)
0AD4  47                 [069] (78)
0AD5  00                 [070] (78)
0AD6  00                 [071] (78)
0AD7  00                 [072] (78)
0AD8  47                 [073] (78)
0AD9  00                 [074] (80)
0ADA  00                 [075] (80)
0ADB  00                 [076] (80)
0ADC  47                 [077] (80)
0ADD  00                 [078] (80)
0ADE  00                 [079] (80)
0ADF  00                 [080] (80)
0AE0  47                 [081] (80)
0AE1  00                 [082] (80)
0AE2  00                 [083] (80)
0AE3  00                 [084] (80)
0AE4  47                 [085] (80)
0AE5  00                 [086] (81)
0AE6  00                 [087] (81)
0AE7  00                 [088] (81)
0AE8  47                 [089] (81)
0AE9  00                 [090] (81)
0AEA  00                 [091] (81)
0AEB  00                 [092] (81)
0AEC  47                 [093] (81)
0AED  00                 [094] (81)
0AEE  00                 [095] (81)
0AEF  00                 [096] (81)
0AF0  47                 [097] (81)
0AF1  00                 [098] (69)
0AF2  00                 [099] (81)
0AF3  00                 [100] (83)
                         * locals:
0C20  00                 sizelocvars (0)
                         * upvalues:
0C21  00                 sizeupvalues (0)
                         ** end of function **

                         
0C22                     ** function [10] definition (level 2)
                         ** start of function **
0C22  00                 string size (0)
                         source name: (none)
0C23  55                 line defined (85)
0C24  72                 last line defined (114)
0C25  03                 nups (3)
0C26  02                 numparams (2)
0C27  00                 is_vararg (0)
0C28  0B                 maxstacksize (11)
                         * code:
0C29  38                 sizecode (56)
0C2A  9D000000           [01] getglobal  2   0        ; 1074689893
0C2E  D2000000           [02] move       3   0      
0C32  A2800001           [03] call       2   2   2  
0C36  98000000           [04] test       2       0    ; to [6] if true
0C3A  1A400080           [05] jmp        2            ; to [8]
0C3E  97000000           [06] loadbool   2   0   0    ; false
0C42  9E000001           [07] return     2   2      
0C46  A4404000           [08] self       2   0   257  ; -1318948062
0C4A  A2800001           [09] call       2   2   2  
0C4E  98400000           [10] test       2       1    ; to [12] if false
0C52  1A400080           [11] jmp        2            ; to [14]
0C56  97000000           [12] loadbool   2   0   0    ; false
0C5A  9E000001           [13] return     2   2      
0C5E  A4804000           [14] self       2   0   258  ; -830264577
0C62  A2800001           [15] call       2   2   2  
fail op	35
0C66  63400001           [16] close      1  
0C6A  1A400080           [17] jmp        2            ; to [20]
0C6E  97000000           [18] loadbool   2   0   0    ; false
0C72  9E000001           [19] return     2   2      
0C76  9DC00000           [20] getglobal  2   3        ; gRegion
0C7A  A4004101           [21] self       2   2   260  ; -1555526991
0C7E  12010000           [22] move       4   0      
0C82  A2808001           [23] call       2   3   2  
0C86  98000000           [24] test       2       0    ; to [26] if true
0C8A  1A400080           [25] jmp        2            ; to [28]
0C8E  97000000           [26] loadbool   2   0   0    ; false
0C92  9E000001           [27] return     2   2      
0C96  93000000           [28] getupval   2   0      
0C9A  8E404101           [29] gettable   2   2   261  ; 439703155
0C9E  D3008000           [30] getupval   3   1      
0CA2  12010000           [31] move       4   0      
0CA6  A2808001           [32] call       2   3   2  
fail op	21
0CAA  15800083           [33] concat     0   262 2  
0CAE  1A400080           [34] jmp        2            ; to [37]
0CB2  97000000           [35] loadbool   2   0   0    ; false
0CB6  9E000001           [36] return     2   2      
0CBA  9DC00000           [37] getglobal  2   3        ; gRegion
0CBE  A4C04101           [38] self       2   2   263  ; -2071158816
0CC2  A2800001           [39] call       2   2   2  
0CC6  DD000200           [40] getglobal  3   8        ; 1672515847
0CCA  12010001           [41] move       4   2      
0CCE  E2000101           [42] call       3   2   4  
0CD2  1AC00180           [43] jmp        8            ; to [52]
0CD6  24424200           [44] self       8   0   265  ; -2082918326
0CDA  92028003           [45] move       10  7      
0CDE  22828001           [46] call       8   3   2  
0CE2  53020001           [47] getupval   9   2      
fail op	21
0CE6  15400204           [48] concat     0   8   9  
0CEA  1A400080           [49] jmp        2            ; to [52]
0CEE  17020000           [50] loadbool   8   0   0    ; false
0CF2  1E020001           [51] return     8   2      
0CF6  D6800000           [52] tforloop   3       2    ; to [54] if exit
0CFA  1A40FD7F           [53] jmp        -10          ; to [44]
0CFE  17028000           [54] loadbool   8   1   0    ; true
0D02  1E020001           [55] return     8   2      
0D06  1E008000           [56] return     0   1      
                         * constants:
0D0A  0A                 sizek (10)
0D0B  01                 const type 3
0D0C  65770E40           const [0]: (1074689893)
0D10  01                 const type 3
0D11  227362B1           const [1]: (-1318948062)
0D15  01                 const type 3
0D16  FF2A83CE           const [2]: (-830264577)
0D1A  04                 const type 4
0D1B  08                 string size (8)
0D1C  67526567696F6E00   "gRegion\0"
                         const [3]: "gRegion"
0D24  01                 const type 3
0D25  B18A48A3           const [4]: (-1555526991)
0D29  01                 const type 3
0D2A  7356351A           const [5]: (439703155)
0D2E  03                 const type 3
0D2F  00000000           const [6]: (0)
0D33  01                 const type 3
0D34  E09F8C84           const [7]: (-2071158816)
0D38  01                 const type 3
0D39  0791B063           const [8]: (1672515847)
0D3D  01                 const type 3
0D3E  4A30D983           const [9]: (-2082918326)
                         * functions:
0D42  00                 sizep (0)
                         * lines:
0D43  38                 sizelineinfo (56)
                         [pc] (line)
0D44  56                 [01] (86)
0D45  00                 [02] (86)
0D46  00                 [03] (86)
0D47  00                 [04] (86)
0D48  56                 [05] (86)
0D49  00                 [06] (87)
0D4A  00                 [07] (87)
0D4B  00                 [08] (90)
0D4C  56                 [09] (90)
0D4D  00                 [10] (90)
0D4E  00                 [11] (90)
0D4F  00                 [12] (91)
0D50  56                 [13] (91)
0D51  00                 [14] (94)
0D52  00                 [15] (94)
0D53  00                 [16] (94)
0D54  56                 [17] (94)
0D55  00                 [18] (95)
0D56  00                 [19] (95)
0D57  00                 [20] (98)
0D58  57                 [21] (98)
0D59  00                 [22] (98)
0D5A  00                 [23] (98)
0D5B  00                 [24] (98)
0D5C  57                 [25] (98)
0D5D  00                 [26] (99)
0D5E  00                 [27] (99)
0D5F  00                 [28] (102)
0D60  5A                 [29] (102)
0D61  00                 [30] (102)
0D62  00                 [31] (102)
0D63  00                 [32] (102)
0D64  5A                 [33] (102)
0D65  00                 [34] (102)
0D66  00                 [35] (103)
0D67  00                 [36] (103)
0D68  5A                 [37] (106)
0D69  00                 [38] (106)
0D6A  00                 [39] (106)
0D6B  00                 [40] (107)
0D6C  5A                 [41] (107)
0D6D  00                 [42] (107)
0D6E  00                 [43] (107)
0D6F  00                 [44] (108)
0D70  5B                 [45] (108)
0D71  00                 [46] (108)
0D72  00                 [47] (108)
0D73  00                 [48] (108)
0D74  5B                 [49] (108)
0D75  00                 [50] (109)
0D76  00                 [51] (109)
0D77  00                 [52] (107)
0D78  5E                 [53] (110)
0D79  00                 [54] (113)
0D7A  00                 [55] (113)
0D7B  00                 [56] (114)
                         * locals:
0E24  00                 sizelocvars (0)
                         * upvalues:
0E25  00                 sizeupvalues (0)
                         ** end of function **

                         
0E26                     ** function [11] definition (level 2)
                         ** start of function **
0E26  00                 string size (0)
                         source name: (none)
0E27  74                 line defined (116)
0E28  7D                 last line defined (125)
0E29  01                 nups (1)
0E2A  01                 numparams (1)
0E2B  00                 is_vararg (0)
0E2C  07                 maxstacksize (7)
                         * code:
0E2D  14                 sizecode (20)
0E2E  5D000000           [01] getglobal  1   0        ; 1074689893
0E32  92000000           [02] move       2   0      
0E36  62800001           [03] call       1   2   2  
0E3A  58400000           [04] test       1       1    ; to [6] if false
0E3E  1A800280           [05] jmp        11           ; to [17]
0E42  5D400000           [06] getglobal  1   1        ; 1672515847
0E46  93000000           [07] getupval   2   0      
0E4A  62000101           [08] call       1   2   4  
0E4E  1A000180           [09] jmp        5            ; to [15]
0E52  8E81C002           [10] gettable   6   5   258  ; "agentType"
fail op	35
0E56  23000003           [11] close      0  
0E5A  1A400080           [12] jmp        2            ; to [15]
0E5E  8EC1C002           [13] gettable   6   5   259  ; "tag"
0E62  9E010001           [14] return     6   2      
0E66  56800000           [15] tforloop   1       2    ; to [17] if exit
0E6A  1A00FE7F           [16] jmp        -7           ; to [10]
0E6E  9D010100           [17] getglobal  6   4        ; -332969190
0E72  87018000           [18] tailcall   6   1   0  
0E76  9E010000           [19] return     6   0      
0E7A  1E008000           [20] return     0   1      
                         * constants:
0E7E  05                 sizek (5)
0E7F  01                 const type 3
0E80  65770E40           const [0]: (1074689893)
0E84  01                 const type 3
0E85  0791B063           const [1]: (1672515847)
0E89  04                 const type 4
0E8A  0A                 string size (10)
0E8B  6167656E74547970+  "agentTyp"
0E93  6500               "e\0"
                         const [2]: "agentType"
0E95  04                 const type 4
0E96  04                 string size (4)
0E97  74616700           "tag\0"
                         const [3]: "tag"
0E9B  01                 const type 3
0E9C  1A4B27EC           const [4]: (-332969190)
                         * functions:
0EA0  00                 sizep (0)
                         * lines:
0EA1  14                 sizelineinfo (20)
                         [pc] (line)
0EA2  75                 [01] (117)
0EA3  00                 [02] (117)
0EA4  00                 [03] (117)
0EA5  00                 [04] (117)
0EA6  75                 [05] (117)
0EA7  00                 [06] (118)
0EA8  00                 [07] (118)
0EA9  00                 [08] (118)
0EAA  75                 [09] (118)
0EAB  00                 [10] (119)
0EAC  00                 [11] (119)
0EAD  00                 [12] (119)
0EAE  75                 [13] (120)
0EAF  00                 [14] (120)
0EB0  00                 [15] (118)
0EB1  00                 [16] (121)
0EB2  75                 [17] (124)
0EB3  00                 [18] (124)
0EB4  00                 [19] (124)
0EB5  00                 [20] (125)
                         * locals:
0EF2  00                 sizelocvars (0)
                         * upvalues:
0EF3  00                 sizeupvalues (0)
                         ** end of function **

                         
0EF4                     ** function [12] definition (level 2)
                         ** start of function **
0EF4  00                 string size (0)
                         source name: (none)
0EF5  7F                 line defined (127)
0EF6  A4                 last line defined (164)
0EF7  01                 nups (9)
0EF8  09                 numparams (3)
0EF9  03                 is_vararg (0)
0EFA  00                 maxstacksize (16)
                         * code:
0EFC  57                 sizecode (87)
fail op	35
0EFD  23004000           [01] close      0  
0F01  1A400080           [02] jmp        2            ; to [5]
0F05  CB000000           [03] newtable   3   0   0    ; array=0, hash=0
0F09  DE000001           [04] return     3   2      
0F0D  D3000000           [05] getupval   3   0      
0F11  12010001           [06] move       4   2      
0F15  E2800001           [07] call       3   2   2  
0F19  0B010000           [08] newtable   4   0   0    ; array=0, hash=0
0F1D  53018000           [09] getupval   5   1      
0F21  A441C000           [10] self       6   1   257  ; 455421500
0F25  A2810001           [11] call       6   2   2  
0F29  4E818102           [12] gettable   5   5   6  
0F2D  58010000           [13] test       5       0    ; to [15] if true
0F31  1A000380           [14] jmp        13           ; to [28]
0F35  53010001           [15] getupval   5   2      
fail op	35
0F39  23408101           [16] close      0  
0F3D  1A000180           [17] jmp        5            ; to [23]
0F41  53018001           [18] getupval   5   3      
0F45  A441C000           [19] self       6   1   257  ; 455421500
0F49  A2810001           [20] call       6   2   2  
0F4D  0E818102           [21] gettable   4   5   6  
0F51  1A000680           [22] jmp        25           ; to [48]
0F55  53010002           [23] getupval   5   4      
0F59  A441C000           [24] self       6   1   257  ; 455421500
0F5D  A2810001           [25] call       6   2   2  
0F61  0E818102           [26] gettable   4   5   6  
0F65  1AC00480           [27] jmp        20           ; to [48]
0F69  53010001           [28] getupval   5   2      
fail op	35
0F6D  23408101           [29] close      0  
0F71  1A000280           [30] jmp        9            ; to [40]
0F75  53018002           [31] getupval   5   5      
0F79  6481C002           [32] self       5   5   258  ; 2054760934
0F7D  DDC10000           [33] getglobal  7   3        ; gNpcSpawnPointType
0F81  13020003           [34] getupval   8   6      
0F85  59020100           [35] loadk      9   4        ; 0
0F89  97020000           [36] loadbool   10  0   0    ; false
0F8D  62810003           [37] call       5   6   2  
0F91  12018002           [38] move       4   5      
0F95  1AC00180           [39] jmp        8            ; to [48]
0F99  53018002           [40] getupval   5   5      
0F9D  6441C102           [41] self       5   5   261  ; -1508854893
0FA1  D2018001           [42] move       7   3      
0FA5  13020003           [43] getupval   8   6      
0FA9  59020100           [44] loadk      9   4        ; 0
0FAD  97020000           [45] loadbool   10  0   0    ; false
0FB1  62810003           [46] call       5   6   2  
0FB5  12018002           [47] move       4   5      
0FB9  4A010002           [48] len        5   4      
fail op	35
0FBD  2300C002           [49] close      0  
0FC1  1A000080           [50] jmp        1            ; to [52]
0FC5  1E008000           [51] return     0   1      
0FC9  4B010000           [52] newtable   5   0   0    ; array=0, hash=0
0FCD  9D810100           [53] getglobal  6   6        ; math
0FD1  8EC14103           [54] gettable   6   6   263  ; 1710846250
0FD5  D9010200           [55] loadk      7   8        ; 0
0FD9  12020000           [56] move       8   0      
0FDD  A2818001           [57] call       6   3   2  
0FE1  D9410200           [58] loadk      7   9        ; 0
0FE5  12020003           [59] move       8   6      
0FE9  59420200           [60] loadk      9   9        ; 0
0FED  D0810580           [61] forprep    7   23       ; to [85]
0FF1  DD820200           [62] getglobal  11  10       ; 2144646525
0FF5  19430200           [63] loadk      12  9        ; 0
0FF9  4A030002           [64] len        13  4      
0FFD  E2828001           [65] call       11  3   2  
1001  0EC30202           [66] gettable   12  4   11 
1005  53038003           [67] getupval   13  7      
1009  92030006           [68] move       14  12     
100D  D2038001           [69] move       15  3      
1011  62838001           [70] call       13  3   2  
1015  58030000           [71] test       13      0    ; to [73] if true
1019  1AC00280           [72] jmp        12           ; to [85]
101D  53030004           [73] getupval   13  8      
1021  4EC3C206           [74] gettable   13  13  267  ; 439703155
1025  92038002           [75] move       14  5      
1029  D2030006           [76] move       15  12     
102D  62838001           [77] call       13  3   2  
fail op	33
1031  2100C006           [78] tforloop   0       256  ; to [80] if exit
1035  1A000180           [79] jmp        5            ; to [85]
1039  5D030300           [80] getglobal  13  12       ; table
103D  4E43C306           [81] gettable   13  13  269  ; -431682403
1041  92038002           [82] move       14  5      
1045  D2030006           [83] move       15  12     
1049  62438001           [84] call       13  3   1  
104D  D4C1F97F           [85] forloop    7   -24      ; to [62] if loop
1051  5E010001           [86] return     5   2      
1055  1E008000           [87] return     0   1      
                         * constants:
1059  0E                 sizek (14)
105A  03                 const type 3
105B  00000000           const [0]: (0)
105F  01                 const type 3
1060  3C2E251B           const [1]: (455421500)
1064  01                 const type 3
1065  E629797A           const [2]: (2054760934)
1069  04                 const type 4
106A  13                 string size (19)
106B  674E706353706177+  "gNpcSpaw"
1073  6E506F696E745479+  "nPointTy"
107B  706500             "pe\0"
                         const [3]: "gNpcSpawnPointType"
107E  03                 const type 3
107F  00004842           const [4]: (0)
1083  01                 const type 3
1084  93B310A6           const [5]: (-1508854893)
1088  04                 const type 4
1089  05                 string size (5)
108A  6D61746800         "math\0"
                         const [6]: "math"
108F  01                 const type 3
1090  2A71F965           const [7]: (1710846250)
1094  03                 const type 3
1095  00002041           const [8]: (0)
1099  03                 const type 3
109A  0000803F           const [9]: (0)
109E  01                 const type 3
109F  7DB5D47F           const [10]: (2144646525)
10A3  01                 const type 3
10A4  7356351A           const [11]: (439703155)
10A8  04                 const type 4
10A9  06                 string size (6)
10AA  7461626C6500       "table\0"
                         const [12]: "table"
10B0  01                 const type 3
10B1  9D0C45E6           const [13]: (-431682403)
                         * functions:
10B5  00                 sizep (0)
                         * lines:
10B6  57                 sizelineinfo (87)
                         [pc] (line)
10B7  80                 [01] (-128)
10B8  00                 [02] (-128)
10B9  00                 [03] (-127)
10BA  00                 [04] (-127)
10BB  80                 [05] (-124)
10BC  00                 [06] (-124)
10BD  00                 [07] (-124)
10BE  00                 [08] (-122)
10BF  81                 [09] (-121)
10C0  00                 [10] (-121)
10C1  00                 [11] (-121)
10C2  00                 [12] (-121)
10C3  81                 [13] (-121)
10C4  00                 [14] (-121)
10C5  00                 [15] (-120)
10C6  00                 [16] (-120)
10C7  84                 [17] (-120)
10C8  00                 [18] (-119)
10C9  00                 [19] (-119)
10CA  00                 [20] (-119)
10CB  84                 [21] (-119)
10CC  00                 [22] (-119)
10CD  00                 [23] (-117)
10CE  00                 [24] (-117)
10CF  84                 [25] (-117)
10D0  00                 [26] (-117)
10D1  00                 [27] (-116)
10D2  00                 [28] (-114)
10D3  86                 [29] (-114)
10D4  00                 [30] (-114)
10D5  00                 [31] (-113)
10D6  00                 [32] (-113)
10D7  87                 [33] (-113)
10D8  00                 [34] (-113)
10D9  00                 [35] (-113)
10DA  00                 [36] (-113)
10DB  87                 [37] (-113)
10DC  00                 [38] (-113)
10DD  00                 [39] (-113)
10DE  00                 [40] (-111)
10DF  87                 [41] (-111)
10E0  00                 [42] (-111)
10E1  00                 [43] (-111)
10E2  00                 [44] (-111)
10E3  87                 [45] (-111)
10E4  00                 [46] (-111)
10E5  00                 [47] (-111)
10E6  00                 [48] (-107)
10E7  87                 [49] (-107)
10E8  00                 [50] (-107)
10E9  00                 [51] (-106)
10EA  00                 [52] (-103)
10EB  87                 [53] (-102)
10EC  00                 [54] (-102)
10ED  00                 [55] (-102)
10EE  00                 [56] (-102)
10EF  88                 [57] (-102)
10F0  00                 [58] (-101)
10F1  00                 [59] (-101)
10F2  00                 [60] (-101)
10F3  88                 [61] (-101)
10F4  00                 [62] (-100)
10F5  00                 [63] (-100)
10F6  00                 [64] (-100)
10F7  88                 [65] (-100)
10F8  00                 [66] (-99)
10F9  00                 [67] (-98)
10FA  00                 [68] (-98)
10FB  89                 [69] (-98)
10FC  00                 [70] (-98)
10FD  00                 [71] (-98)
10FE  00                 [72] (-98)
10FF  89                 [73] (-98)
1100  00                 [74] (-98)
1101  00                 [75] (-98)
1102  00                 [76] (-98)
1103  89                 [77] (-98)
1104  00                 [78] (-98)
1105  00                 [79] (-98)
1106  00                 [80] (-97)
1107  89                 [81] (-97)
1108  00                 [82] (-97)
1109  00                 [83] (-97)
110A  00                 [84] (-97)
110B  89                 [85] (-101)
110C  00                 [86] (-93)
110D  00                 [87] (-92)
                         * locals:
1213  00                 sizelocvars (0)
                         * upvalues:
1214  00                 sizeupvalues (0)
                         ** end of function **

                         
1215                     ** function [13] definition (level 2)
                         ** start of function **
1215  00                 string size (0)
                         source name: (none)
1217  01                 line defined (166)
1218  C6                 last line defined (198)
1219  01                 nups (8)
121A  08                 numparams (2)
121B  02                 is_vararg (0)
121C  00                 maxstacksize (12)
                         * code:
121E  4C                 sizecode (76)
121F  A400C000           [01] self       2   1   256  ; 455421500
1223  A2800001           [02] call       2   2   2  
1227  C6008002           [03] loadnil    3   5      
122B  93010000           [04] getupval   6   0      
122F  A4414003           [05] self       6   6   257  ; 1842573415
1233  13028000           [06] getupval   8   1      
1237  59820000           [07] loadk      9   2        ; 0
123B  97028000           [08] loadbool   10  1   0    ; true
123F  A2818002           [09] call       6   5   2  
1243  D2000003           [10] move       3   6      
1247  9DC10000           [11] getglobal  6   3        ; 1074689893
124B  D2018001           [12] move       7   3      
124F  A2810001           [13] call       6   2   2  
1253  98410000           [14] test       6       1    ; to [16] if false
1257  1A000380           [15] jmp        13           ; to [29]
125B  93010001           [16] getupval   6   2      
125F  D9010100           [17] loadk      7   4        ; 0
1263  12028000           [18] move       8   1      
1267  52028001           [19] move       9   3      
126B  A2810002           [20] call       6   4   2  
126F  12010003           [21] move       4   6      
1273  8A010002           [22] len        6   4      
fail op	35
1277  23804003           [23] close      0  
127B  1A800080           [24] jmp        3            ; to [28]
127F  99810000           [25] loadk      6   2        ; 0
1283  9E010001           [26] return     6   2      
1287  1A000080           [27] jmp        1            ; to [29]
128B  4E014102           [28] gettable   5   4   260  ; 0
128F  93010000           [29] getupval   6   0      
1293  A4414103           [30] self       6   6   261  ; -1642488687
1297  12028001           [31] move       8   3      
129B  52028002           [32] move       9   5      
129F  9D820100           [33] getglobal  10  6        ; -332969190
12A3  D9C20100           [34] loadk      11  7        ; "TEAM"
12A7  A2020001           [35] call       10  2   0  
12AB  A2810000           [36] call       6   0   2  
12AF  DD010200           [37] getglobal  7   8        ; table
12B3  CE41C203           [38] gettable   7   7   265  ; -431682403
12B7  13028001           [39] getupval   8   3      
12BB  52028002           [40] move       9   5      
12BF  E2418001           [41] call       7   3   1  
12C3  DDC10000           [42] getglobal  7   3        ; 1074689893
12C7  12020003           [43] move       8   6      
12CB  E2810001           [44] call       7   2   2  
12CF  D8410000           [45] test       7       1    ; to [47] if false
12D3  1A800680           [46] jmp        27           ; to [74]
12D7  D3010002           [47] getupval   7   4      
12DB  D8010000           [48] test       7       0    ; to [50] if true
12DF  1A000180           [49] jmp        5            ; to [55]
12E3  DD810200           [50] getglobal  7   10       ; -1799570112
12E7  24C24203           [51] self       8   6   267  ; -2135866365
12EB  22820001           [52] call       8   2   2  
12EF  59020300           [53] loadk      9   12       ; "OnKilled"
12F3  E2418001           [54] call       7   3   1  
12F7  DDC10000           [55] getglobal  7   3        ; 1074689893
12FB  13028002           [56] getupval   8   5      
12FF  E2810001           [57] call       7   2   2  
1303  D8410000           [58] test       7       1    ; to [60] if false
1307  1A800080           [59] jmp        3            ; to [63]
130B  D3018002           [60] getupval   7   5      
130F  12020003           [61] move       8   6      
1313  E2410001           [62] call       7   2   1  
1317  DD010200           [63] getglobal  7   8        ; table
131B  CE41C203           [64] gettable   7   7   265  ; -431682403
131F  13020003           [65] getupval   8   6      
1323  0E820004           [66] gettable   8   8   2  
1327  52020003           [67] move       9   6      
132B  E2418001           [68] call       7   3   1  
132F  D3018003           [69] getupval   7   7      
1333  C301C103           [70] add        7   7   260  ; 0
fail op	8
1337  C8018003           [71] setupval   7   7      
133B  D9010100           [72] loadk      7   4        ; 0
133F  DE010001           [73] return     7   2      
1343  D9810000           [74] loadk      7   2        ; 0
1347  DE010001           [75] return     7   2      
134B  1E008000           [76] return     0   1      
                         * constants:
134F  0D                 sizek (13)
1350  01                 const type 3
1351  3C2E251B           const [0]: (455421500)
1355  01                 const type 3
1356  6770D36D           const [1]: (1842573415)
135A  03                 const type 3
135B  00000000           const [2]: (0)
135F  01                 const type 3
1360  65770E40           const [3]: (1074689893)
1364  03                 const type 3
1365  0000803F           const [4]: (0)
1369  01                 const type 3
136A  919C199E           const [5]: (-1642488687)
136E  01                 const type 3
136F  1A4B27EC           const [6]: (-332969190)
1373  04                 const type 4
1374  05                 string size (5)
1375  5445414D00         "TEAM\0"
                         const [7]: "TEAM"
137A  04                 const type 4
137B  06                 string size (6)
137C  7461626C6500       "table\0"
                         const [8]: "table"
1382  01                 const type 3
1383  9D0C45E6           const [9]: (-431682403)
1387  01                 const type 3
1388  40BDBC94           const [10]: (-1799570112)
138C  01                 const type 3
138D  0344B180           const [11]: (-2135866365)
1391  04                 const type 4
1392  09                 string size (9)
1393  4F6E4B696C6C6564+  "OnKilled"
139B  00                 "\0"
                         const [12]: "OnKilled"
                         * functions:
139C  00                 sizep (0)
                         * lines:
139D  4C                 sizelineinfo (76)
                         [pc] (line)
139E  A7                 [01] (-89)
139F  00                 [02] (-89)
13A0  00                 [03] (-88)
13A1  00                 [04] (-84)
13A2  A7                 [05] (-84)
13A3  00                 [06] (-84)
13A4  00                 [07] (-84)
13A5  00                 [08] (-84)
13A6  A8                 [09] (-84)
13A7  00                 [10] (-84)
13A8  00                 [11] (-83)
13A9  00                 [12] (-83)
13AA  AC                 [13] (-83)
13AB  00                 [14] (-83)
13AC  00                 [15] (-83)
13AD  00                 [16] (-82)
13AE  AC                 [17] (-82)
13AF  00                 [18] (-82)
13B0  00                 [19] (-82)
13B1  00                 [20] (-82)
13B2  AC                 [21] (-82)
13B3  00                 [22] (-81)
13B4  00                 [23] (-81)
13B5  00                 [24] (-81)
13B6  AC                 [25] (-80)
13B7  00                 [26] (-80)
13B8  00                 [27] (-80)
13B9  00                 [28] (-78)
13BA  AC                 [29] (-74)
13BB  00                 [30] (-74)
13BC  00                 [31] (-74)
13BD  00                 [32] (-74)
13BE  AC                 [33] (-74)
13BF  00                 [34] (-74)
13C0  00                 [35] (-74)
13C1  00                 [36] (-74)
13C2  AC                 [37] (-73)
13C3  00                 [38] (-73)
13C4  00                 [39] (-73)
13C5  00                 [40] (-73)
13C6  AD                 [41] (-73)
13C7  00                 [42] (-71)
13C8  00                 [43] (-71)
13C9  00                 [44] (-71)
13CA  AD                 [45] (-71)
13CB  00                 [46] (-71)
13CC  00                 [47] (-70)
13CD  00                 [48] (-70)
13CE  AD                 [49] (-70)
13CF  00                 [50] (-69)
13D0  00                 [51] (-69)
13D1  00                 [52] (-69)
13D2  AD                 [53] (-69)
13D3  00                 [54] (-69)
13D4  00                 [55] (-67)
13D5  00                 [56] (-67)
13D6  AD                 [57] (-67)
13D7  00                 [58] (-67)
13D8  00                 [59] (-67)
13D9  00                 [60] (-66)
13DA  AE                 [61] (-66)
13DB  00                 [62] (-66)
13DC  00                 [63] (-64)
13DD  00                 [64] (-64)
13DE  AE                 [65] (-64)
13DF  00                 [66] (-64)
13E0  00                 [67] (-64)
13E1  00                 [68] (-64)
13E2  AE                 [69] (-63)
13E3  00                 [70] (-63)
13E4  00                 [71] (-63)
13E5  00                 [72] (-62)
13E6  AE                 [73] (-62)
13E7  00                 [74] (-59)
13E8  00                 [75] (-59)
13E9  00                 [76] (-58)
                         * locals:
14CE  00                 sizelocvars (0)
                         * upvalues:
14CF  00                 sizeupvalues (0)
                         ** end of function **

                         
14D0                     ** function [14] definition (level 2)
                         ** start of function **
14D0  00                 string size (0)
                         source name: (none)
14D2  01                 line defined (200)
14D3  DC                 last line defined (220)
14D4  01                 nups (6)
14D5  06                 numparams (1)
14D6  01                 is_vararg (0)
14D7  00                 maxstacksize (19)
                         * code:
14D9  3A                 sizecode (58)
14DA  5D000000           [01] getglobal  1   0        ; 1672515847
14DE  92000000           [02] move       2   0      
14E2  62000101           [03] call       1   2   4  
14E6  1A800C80           [04] jmp        51           ; to [56]
14EA  86010003           [05] loadnil    6   6      
14EE  DD410000           [06] getglobal  7   1        ; FLT_MAX
14F2  1D020000           [07] getglobal  8   0        ; 1672515847
14F6  53020000           [08] getupval   9   0      
14FA  22020101           [09] call       8   2   4  
14FE  1AC00280           [10] jmp        12           ; to [23]
1502  64834006           [11] self       13  12  258  ; -2082918326
1506  D2038002           [12] move       15  5      
150A  62838001           [13] call       13  3   2  
150E  9DC30000           [14] getglobal  14  3        ; 1074689893
1512  D2030003           [15] move       15  6      
1516  A2830001           [16] call       14  2   2  
151A  98430000           [17] test       14      1    ; to [19] if false
151E  1A400080           [18] jmp        2            ; to [21]
fail op	21
1522  15C08106           [19] concat     0   13  7  
1526  1A400080           [20] jmp        2            ; to [23]
152A  92010006           [21] move       6   12     
152E  D2018006           [22] move       7   13     
1532  16820000           [23] tforloop   8       2    ; to [25] if exit
1536  1A40FC7F           [24] jmp        -14          ; to [11]
153A  93038000           [25] getupval   14  1      
153E  E4034103           [26] self       15  6   260  ; 455421500
1542  E2830001           [27] call       15  2   2  
1546  8EC30307           [28] gettable   14  14  15 
fail op	21
154A  15808303           [29] concat     0   7   14 
154E  1A000680           [30] jmp        25           ; to [56]
1552  A443C102           [31] self       14  5   261  ; -830264577
1556  A2830001           [32] call       14  2   2  
155A  D3030001           [33] getupval   15  2      
fail op	35
155E  23C00307           [34] close      0  
1562  1A000280           [35] jmp        9            ; to [45]
1566  DD830100           [36] getglobal  15  6        ; table
156A  CEC3C107           [37] gettable   15  15  263  ; -431682403
156E  13048001           [38] getupval   16  3      
1572  64044103           [39] self       17  6   260  ; 455421500
1576  62840001           [40] call       17  2   2  
157A  0E440408           [41] gettable   16  16  17 
157E  52048002           [42] move       17  5      
1582  E2438001           [43] call       15  3   1  
1586  1A800280           [44] jmp        11           ; to [56]
158A  D3030002           [45] getupval   15  4      
fail op	35
158E  63C00307           [46] close      1  
1592  1AC00180           [47] jmp        8            ; to [56]
1596  DD830100           [48] getglobal  15  6        ; table
159A  CEC3C107           [49] gettable   15  15  263  ; -431682403
159E  13048002           [50] getupval   16  5      
15A2  64044103           [51] self       17  6   260  ; 455421500
15A6  62840001           [52] call       17  2   2  
15AA  0E440408           [53] gettable   16  16  17 
15AE  52048002           [54] move       17  5      
15B2  E2438001           [55] call       15  3   1  
15B6  56800000           [56] tforloop   1       2    ; to [58] if exit
15BA  1A80F27F           [57] jmp        -53          ; to [5]
15BE  1E008000           [58] return     0   1      
                         * constants:
15C2  08                 sizek (8)
15C3  01                 const type 3
15C4  0791B063           const [0]: (1672515847)
15C8  04                 const type 4
15C9  08                 string size (8)
15CA  464C545F4D415800   "FLT_MAX\0"
                         const [1]: "FLT_MAX"
15D2  01                 const type 3
15D3  4A30D983           const [2]: (-2082918326)
15D7  01                 const type 3
15D8  65770E40           const [3]: (1074689893)
15DC  01                 const type 3
15DD  3C2E251B           const [4]: (455421500)
15E1  01                 const type 3
15E2  FF2A83CE           const [5]: (-830264577)
15E6  04                 const type 4
15E7  06                 string size (6)
15E8  7461626C6500       "table\0"
                         const [6]: "table"
15EE  01                 const type 3
15EF  9D0C45E6           const [7]: (-431682403)
                         * functions:
15F3  00                 sizep (0)
                         * lines:
15F4  3A                 sizelineinfo (58)
                         [pc] (line)
15F5  C9                 [01] (-55)
15F6  00                 [02] (-55)
15F7  00                 [03] (-55)
15F8  00                 [04] (-55)
15F9  C9                 [05] (-54)
15FA  00                 [06] (-53)
15FB  00                 [07] (-52)
15FC  00                 [08] (-52)
15FD  C9                 [09] (-52)
15FE  00                 [10] (-52)
15FF  00                 [11] (-51)
1600  00                 [12] (-51)
1601  C9                 [13] (-51)
1602  00                 [14] (-50)
1603  00                 [15] (-50)
1604  00                 [16] (-50)
1605  CA                 [17] (-50)
1606  00                 [18] (-50)
1607  00                 [19] (-50)
1608  00                 [20] (-50)
1609  CB                 [21] (-49)
160A  00                 [22] (-48)
160B  00                 [23] (-52)
160C  00                 [24] (-47)
160D  CC                 [25] (-45)
160E  00                 [26] (-45)
160F  00                 [27] (-45)
1610  00                 [28] (-45)
1611  CC                 [29] (-45)
1612  00                 [30] (-45)
1613  00                 [31] (-44)
1614  00                 [32] (-44)
1615  CC                 [33] (-43)
1616  00                 [34] (-43)
1617  00                 [35] (-43)
1618  00                 [36] (-42)
1619  CC                 [37] (-42)
161A  00                 [38] (-42)
161B  00                 [39] (-42)
161C  00                 [40] (-42)
161D  CD                 [41] (-42)
161E  00                 [42] (-42)
161F  00                 [43] (-42)
1620  00                 [44] (-42)
1621  CD                 [45] (-41)
1622  00                 [46] (-41)
1623  00                 [47] (-41)
1624  00                 [48] (-40)
1625  CD                 [49] (-40)
1626  00                 [50] (-40)
1627  00                 [51] (-40)
1628  00                 [52] (-40)
1629  CE                 [53] (-40)
162A  00                 [54] (-40)
162B  00                 [55] (-40)
162C  00                 [56] (-55)
162D  CE                 [57] (-38)
162E  00                 [58] (-36)
                         * locals:
16DD  00                 sizelocvars (0)
                         * upvalues:
16DE  00                 sizeupvalues (0)
                         ** end of function **

                         
16DF                     ** function [15] definition (level 2)
                         ** start of function **
16DF  00                 string size (0)
                         source name: (none)
16E1  01                 line defined (222)
16E2  F8                 last line defined (248)
16E3  01                 nups (6)
16E4  06                 numparams (0)
16E5  00                 is_vararg (0)
16E6  00                 maxstacksize (19)
                         * code:
16E8  46                 sizecode (70)
16E9  1D000000           [01] getglobal  0   0        ; 1672515847
16ED  53000000           [02] getupval   1   0      
16F1  22000101           [03] call       0   2   4  
16F5  1A800F80           [04] jmp        63           ; to [68]
16F9  5D410000           [05] getglobal  5   1        ; gRegion
16FD  6481C002           [06] self       5   5   258  ; -644730217
1701  E4C14002           [07] self       7   4   259  ; 1839670529
1705  E2810001           [08] call       7   2   2  
1709  1D020100           [09] getglobal  8   4        ; FLT_MAX
170D  62810002           [10] call       5   4   2  
1711  A4414102           [11] self       6   4   261  ; 455421500
1715  A2810001           [12] call       6   2   2  
1719  DD810100           [13] getglobal  7   6        ; 1074689893
171D  12028002           [14] move       8   5      
1721  E2810001           [15] call       7   2   2  
1725  D8410000           [16] test       7       1    ; to [18] if false
1729  1A400280           [17] jmp        10           ; to [28]
172D  E4C1C102           [18] self       7   5   263  ; -2082918326
1731  52020002           [19] move       9   4      
1735  E2818001           [20] call       7   3   2  
1739  13028000           [21] getupval   8   1      
173D  0E820104           [22] gettable   8   8   6  
fail op	21
1741  15008203           [23] concat     0   7   8  
1745  1A800080           [24] jmp        3            ; to [28]
1749  D3010001           [25] getupval   7   2      
174D  CC014203           [26] settable   7   6   264  ; 1
1751  1A400080           [27] jmp        2            ; to [30]
1755  D3010001           [28] getupval   7   2      
1759  CC414203           [29] settable   7   6   265  ; 0
175D  D3018001           [30] getupval   7   3      
1761  CC410103           [31] settable   7   6   5  
1765  D3010002           [32] getupval   7   4      
1769  24424102           [33] self       8   4   261  ; 455421500
176D  22820001           [34] call       8   2   2  
1771  CE018203           [35] gettable   7   7   8  
1775  0A028003           [36] len        8   7      
1779  59820200           [37] loadk      9   10       ; 0
177D  99C20200           [38] loadk      10  11       ; 0
1781  10820680           [39] forprep    8   27       ; to [67]
1785  0EC38203           [40] gettable   12  7   11 
1789  5D830100           [41] getglobal  13  6        ; 1074689893
178D  92030006           [42] move       14  12     
1791  62830001           [43] call       13  2   2  
1795  58030000           [44] test       13      0    ; to [46] if true
1799  1A400180           [45] jmp        6            ; to [52]
179D  5D030300           [46] getglobal  13  12       ; table
17A1  4E43C306           [47] gettable   13  13  269  ; -843973282
17A5  92038003           [48] move       14  7      
17A9  D2038005           [49] move       15  11     
17AD  62438001           [50] call       13  3   1  
17B1  1A800380           [51] jmp        15           ; to [67]
17B5  64834306           [52] self       13  12  270  ; 1569762139
17B9  62830001           [53] call       13  2   2  
17BD  93038001           [54] getupval   14  3      
17C1  8E830107           [55] gettable   14  14  6  
fail op	35
17C5  63808306           [56] close      1  
17C9  1A000280           [57] jmp        9            ; to [67]
17CD  A4C34306           [58] self       14  12  271  ; -346092253
17D1  13048002           [59] getupval   16  5      
17D5  A2438001           [60] call       14  3   1  
17D9  A4034406           [61] self       14  12  272  ; -800154281
17DD  13048002           [62] getupval   16  5      
17E1  53048001           [63] getupval   17  3      
17E5  4E848108           [64] gettable   17  17  6  
17E9  99440400           [65] loadk      18  17       ; 0
17ED  A2438002           [66] call       14  5   1  
17F1  14C2F87F           [67] forloop    8   -28      ; to [40] if loop
17F5  16800000           [68] tforloop   0       2    ; to [70] if exit
17F9  1A80EF7F           [69] jmp        -65          ; to [5]
17FD  1E008000           [70] return     0   1      
                         * constants:
1801  12                 sizek (18)
1802  01                 const type 3
1803  0791B063           const [0]: (1672515847)
1807  04                 const type 4
1808  08                 string size (8)
1809  67526567696F6E00   "gRegion\0"
                         const [1]: "gRegion"
1811  01                 const type 3
1812  973292D9           const [2]: (-644730217)
1816  01                 const type 3
1817  0125A76D           const [3]: (1839670529)
181B  04                 const type 4
181C  08                 string size (8)
181D  464C545F4D415800   "FLT_MAX\0"
                         const [4]: "FLT_MAX"
1825  01                 const type 3
1826  3C2E251B           const [5]: (455421500)
182A  01                 const type 3
182B  65770E40           const [6]: (1074689893)
182F  01                 const type 3
1830  4A30D983           const [7]: (-2082918326)
1834  01                 const type 3
1835  01000000           const [8]: (1)
1839  01                 const type 3
183A  00000000           const [9]: (0)
183E  03                 const type 3
183F  0000803F           const [10]: (0)
1843  03                 const type 3
1844  000080BF           const [11]: (0)
1848  04                 const type 4
1849  06                 string size (6)
184A  7461626C6500       "table\0"
                         const [12]: "table"
1850  01                 const type 3
1851  5EFDB1CD           const [13]: (-843973282)
1855  01                 const type 3
1856  5BAB905D           const [14]: (1569762139)
185A  01                 const type 3
185B  230D5FEB           const [15]: (-346092253)
185F  01                 const type 3
1860  579D4ED0           const [16]: (-800154281)
1864  03                 const type 3
1865  0000F041           const [17]: (0)
                         * functions:
1869  00                 sizep (0)
                         * lines:
186A  46                 sizelineinfo (70)
                         [pc] (line)
186B  DF                 [01] (-33)
186C  00                 [02] (-33)
186D  00                 [03] (-33)
186E  00                 [04] (-33)
186F  DF                 [05] (-32)
1870  00                 [06] (-32)
1871  00                 [07] (-32)
1872  00                 [08] (-32)
1873  DF                 [09] (-32)
1874  00                 [10] (-32)
1875  00                 [11] (-31)
1876  00                 [12] (-31)
1877  DF                 [13] (-29)
1878  00                 [14] (-29)
1879  00                 [15] (-29)
187A  00                 [16] (-29)
187B  E0                 [17] (-29)
187C  00                 [18] (-29)
187D  00                 [19] (-29)
187E  00                 [20] (-29)
187F  E0                 [21] (-29)
1880  00                 [22] (-29)
1881  00                 [23] (-29)
1882  00                 [24] (-29)
1883  E0                 [25] (-28)
1884  00                 [26] (-28)
1885  00                 [27] (-28)
1886  00                 [28] (-26)
1887  E0                 [29] (-26)
1888  00                 [30] (-24)
1889  00                 [31] (-24)
188A  00                 [32] (-22)
188B  E0                 [33] (-22)
188C  00                 [34] (-22)
188D  00                 [35] (-22)
188E  00                 [36] (-21)
188F  E0                 [37] (-21)
1890  00                 [38] (-21)
1891  00                 [39] (-21)
1892  00                 [40] (-20)
1893  E1                 [41] (-19)
1894  00                 [42] (-19)
1895  00                 [43] (-19)
1896  00                 [44] (-19)
1897  E1                 [45] (-19)
1898  00                 [46] (-18)
1899  00                 [47] (-18)
189A  00                 [48] (-18)
189B  E3                 [49] (-18)
189C  00                 [50] (-18)
189D  00                 [51] (-18)
189E  00                 [52] (-16)
189F  E3                 [53] (-16)
18A0  00                 [54] (-15)
18A1  00                 [55] (-15)
18A2  00                 [56] (-15)
18A3  E3                 [57] (-15)
18A4  00                 [58] (-14)
18A5  00                 [59] (-14)
18A6  00                 [60] (-14)
18A7  E3                 [61] (-13)
18A8  00                 [62] (-13)
18A9  00                 [63] (-13)
18AA  00                 [64] (-13)
18AB  E3                 [65] (-13)
18AC  00                 [66] (-13)
18AD  00                 [67] (-21)
18AE  00                 [68] (-33)
18AF  E3                 [69] (-10)
18B0  00                 [70] (-8)
                         * locals:
1983  00                 sizelocvars (0)
                         * upvalues:
1984  00                 sizeupvalues (0)
                         ** end of function **

                         
1985                     ** function [16] definition (level 2)
                         ** start of function **
1985  00                 string size (0)
                         source name: (none)
1987  01                 line defined (250)
1988  84                 last line defined (260)
1989  02                 nups (3)
198A  03                 numparams (1)
198B  01                 is_vararg (0)
198C  00                 maxstacksize (10)
                         * code:
198E  17                 sizecode (23)
198F  5D000000           [01] getglobal  1   0        ; 1672515847
1993  93000000           [02] getupval   2   0      
1997  62000101           [03] call       1   2   4  
199B  1A000380           [04] jmp        13           ; to [18]
199F  A441C002           [05] self       6   5   257  ; 455421500
19A3  A2810001           [06] call       6   2   2  
19A7  D3018000           [07] getupval   7   1      
19AB  CE81C003           [08] gettable   7   7   258  ; 439703155
19AF  13020001           [09] getupval   8   2      
19B3  0E820104           [10] gettable   8   8   6  
19B7  52020000           [11] move       9   0      
19BB  E2818001           [12] call       7   3   2  
fail op	21
19BF  15C08181           [13] concat     0   259 7  
19C3  1A800080           [14] jmp        3            ; to [18]
19C7  12028002           [15] move       8   5      
19CB  52028003           [16] move       9   7      
19CF  1E028001           [17] return     8   3      
19D3  56800000           [18] tforloop   1       2    ; to [20] if exit
19D7  1A00FC7F           [19] jmp        -15          ; to [5]
19DB  06020004           [20] loadnil    8   8      
19DF  59C20000           [21] loadk      9   3        ; 0
19E3  1E028001           [22] return     8   3      
19E7  1E008000           [23] return     0   1      
                         * constants:
19EB  04                 sizek (4)
19EC  01                 const type 3
19ED  0791B063           const [0]: (1672515847)
19F1  01                 const type 3
19F2  3C2E251B           const [1]: (455421500)
19F6  01                 const type 3
19F7  7356351A           const [2]: (439703155)
19FB  03                 const type 3
19FC  00000000           const [3]: (0)
                         * functions:
1A00  00                 sizep (0)
                         * lines:
1A01  17                 sizelineinfo (23)
                         [pc] (line)
1A02  FB                 [01] (-5)
1A03  00                 [02] (-5)
1A04  00                 [03] (-5)
1A05  00                 [04] (-5)
1A06  FB                 [05] (-4)
1A07  00                 [06] (-4)
1A08  00                 [07] (-3)
1A09  00                 [08] (-3)
1A0A  FB                 [09] (-3)
1A0B  00                 [10] (-3)
1A0C  00                 [11] (-3)
1A0D  00                 [12] (-3)
1A0E  FB                 [13] (-2)
1A0F  00                 [14] (-2)
1A10  00                 [15] (-1)
1A11  00                 [16] (-1)
1A12  FC                 [17] (-1)
1A13  00                 [18] (-5)
1A14  00                 [19] (0)
1A15  00                 [20] (3)
1A16  FC                 [21] (3)
1A17  00                 [22] (3)
1A18  00                 [23] (4)
                         * locals:
1A5E  00                 sizelocvars (0)
                         * upvalues:
1A5F  00                 sizeupvalues (0)
                         ** end of function **

                         
1A60                     ** function [17] definition (level 2)
                         ** start of function **
1A60  00                 string size (0)
                         source name: (none)
1A62  02                 line defined (262)
1A63  96                 last line defined (278)
1A64  02                 nups (1)
1A65  01                 numparams (1)
1A66  01                 is_vararg (0)
1A67  00                 maxstacksize (11)
                         * code:
1A69  24                 sizecode (36)
1A6A  64004000           [01] self       1   0   256  ; -2135866365
1A6E  62800001           [02] call       1   2   2  
1A72  A4404000           [03] self       2   0   257  ; 1687731437
1A76  A2800001           [04] call       2   2   2  
1A7A  98000000           [05] test       2       0    ; to [7] if true
1A7E  1A400080           [06] jmp        2            ; to [9]
1A82  97008000           [07] loadbool   2   1   0    ; true
1A86  9E000001           [08] return     2   2      
1A8A  9D800000           [09] getglobal  2   2        ; gRegion
1A8E  A4C04001           [10] self       2   2   259  ; -2071158816
1A92  A2800001           [11] call       2   2   2  
1A96  DD000100           [12] getglobal  3   4        ; 1672515847
1A9A  12010001           [13] move       4   2      
1A9E  E2000101           [14] call       3   2   4  
1AA2  1AC00380           [15] jmp        16           ; to [32]
1AA6  2442C103           [16] self       8   7   261  ; -338649721
1AAA  92028000           [17] move       10  1      
1AAE  22828001           [18] call       8   3   2  
fail op	21
1AB2  15000283           [19] concat     0   262 8  
1AB6  1A800080           [20] jmp        3            ; to [24]
1ABA  17020000           [21] loadbool   8   0   0    ; false
1ABE  1E020001           [22] return     8   2      
1AC2  1AC00180           [23] jmp        8            ; to [32]
1AC6  24C2C103           [24] self       8   7   263  ; -2082918326
1ACA  92028000           [25] move       10  1      
1ACE  22828001           [26] call       8   3   2  
1AD2  53020000           [27] getupval   9   0      
fail op	21
1AD6  15400204           [28] concat     0   8   9  
1ADA  1A400080           [29] jmp        2            ; to [32]
1ADE  17020000           [30] loadbool   8   0   0    ; false
1AE2  1E020001           [31] return     8   2      
1AE6  D6800000           [32] tforloop   3       2    ; to [34] if exit
1AEA  1A40FB7F           [33] jmp        -18          ; to [16]
1AEE  17028000           [34] loadbool   8   1   0    ; true
1AF2  1E020001           [35] return     8   2      
1AF6  1E008000           [36] return     0   1      
                         * constants:
1AFA  08                 sizek (8)
1AFB  01                 const type 3
1AFC  0344B180           const [0]: (-2135866365)
1B00  01                 const type 3
1B01  EDBC9864           const [1]: (1687731437)
1B05  04                 const type 4
1B06  08                 string size (8)
1B07  67526567696F6E00   "gRegion\0"
                         const [2]: "gRegion"
1B0F  01                 const type 3
1B10  E09F8C84           const [3]: (-2071158816)
1B14  01                 const type 3
1B15  0791B063           const [4]: (1672515847)
1B19  01                 const type 3
1B1A  879DD0EB           const [5]: (-338649721)
1B1E  03                 const type 3
1B1F  CDCCCC3D           const [6]: (-51)
1B23  01                 const type 3
1B24  4A30D983           const [7]: (-2082918326)
                         * functions:
1B28  00                 sizep (0)
                         * lines:
1B29  24                 sizelineinfo (36)
                         [pc] (line)
1B2A  07                 [01] (7)
1B2B  01                 [02] (7)
1B2C  00                 [03] (8)
1B2D  00                 [04] (8)
1B2E  07                 [05] (8)
1B2F  01                 [06] (8)
1B30  00                 [07] (9)
1B31  00                 [08] (9)
1B32  08                 [09] (12)
1B33  01                 [10] (12)
1B34  00                 [11] (12)
1B35  00                 [12] (13)
1B36  08                 [13] (13)
1B37  01                 [14] (13)
1B38  00                 [15] (13)
1B39  00                 [16] (14)
1B3A  08                 [17] (14)
1B3B  01                 [18] (14)
1B3C  00                 [19] (14)
1B3D  00                 [20] (14)
1B3E  08                 [21] (15)
1B3F  01                 [22] (15)
1B40  00                 [23] (15)
1B41  00                 [24] (16)
1B42  09                 [25] (16)
1B43  01                 [26] (16)
1B44  00                 [27] (16)
1B45  00                 [28] (16)
1B46  09                 [29] (16)
1B47  01                 [30] (17)
1B48  00                 [31] (17)
1B49  00                 [32] (13)
1B4A  0C                 [33] (18)
1B4B  01                 [34] (21)
1B4C  00                 [35] (21)
1B4D  00                 [36] (22)
                         * locals:
1BBA  00                 sizelocvars (0)
                         * upvalues:
1BBB  00                 sizeupvalues (0)
                         ** end of function **

                         
1BBC                     ** function [18] definition (level 2)
                         ** start of function **
1BBC  00                 string size (0)
                         source name: (none)
1BBE  02                 line defined (280)
1BBF  B5                 last line defined (309)
1BC0  02                 nups (9)
1BC1  09                 numparams (0)
1BC2  00                 is_vararg (0)
1BC3  00                 maxstacksize (17)
                         * code:
1BC5  4F                 sizecode (79)
1BC6  0B000000           [01] newtable   0   0   0    ; array=0, hash=0
1BCA  5D000000           [02] getglobal  1   0        ; 1672515847
1BCE  93000000           [03] getupval   2   0      
1BD2  62000101           [04] call       1   2   4  
1BD6  1A401180           [05] jmp        70           ; to [76]
1BDA  A441C002           [06] self       6   5   257  ; 455421500
1BDE  A2810001           [07] call       6   2   2  
1BE2  DD010000           [08] getglobal  7   0        ; 1672515847
1BE6  13028000           [09] getupval   8   1      
1BEA  0E820104           [10] gettable   8   8   6  
1BEE  E2010101           [11] call       7   2   4  
1BF2  1A000F80           [12] jmp        61           ; to [74]
1BF6  17030000           [13] loadbool   12  0   0    ; false
1BFA  6483C005           [14] self       13  11  258  ; 1687731437
1BFE  62830001           [15] call       13  2   2  
1C02  58030000           [16] test       13      0    ; to [18] if true
1C06  1A000080           [17] jmp        1            ; to [19]
1C0A  17038000           [18] loadbool   12  1   0    ; true
1C0E  53030001           [19] getupval   13  2      
1C12  92038002           [20] move       14  5      
1C16  62830001           [21] call       13  2   2  
1C1A  58030000           [22] test       13      0    ; to [24] if true
1C1E  1AC00180           [23] jmp        8            ; to [32]
1C22  5DC30000           [24] getglobal  13  3        ; 1074689893
1C26  93038001           [25] getupval   14  3      
1C2A  62830001           [26] call       13  2   2  
1C2E  58430000           [27] test       13      1    ; to [29] if false
1C32  1AC00080           [28] jmp        4            ; to [33]
1C36  53038001           [29] getupval   13  3      
fail op	35
1C3A  63408302           [30] close      1  
1C3E  1A000080           [31] jmp        1            ; to [33]
1C42  17038000           [32] loadbool   12  1   0    ; true
1C46  5D030100           [33] getglobal  13  4        ; -1331746705
1C4A  A443C105           [34] self       14  11  261  ; -2135866365
1C4E  A2830001           [35] call       14  2   2  
1C52  A4834107           [36] self       14  14  262  ; 1839670529
1C56  A2830001           [37] call       14  2   2  
1C5A  E483C102           [38] self       15  5   262  ; 1839670529
1C5E  E2030001           [39] call       15  2   0  
1C62  62830000           [40] call       13  0   2  
1C66  93030002           [41] getupval   14  4      
1C6A  8E830107           [42] gettable   14  14  6  
fail op	21
1C6E  15400307           [43] concat     0   14  13 
1C72  1A000180           [44] jmp        5            ; to [50]
1C76  53038002           [45] getupval   13  5      
1C7A  4E838106           [46] gettable   13  13  6  
1C7E  58030000           [47] test       13      0    ; to [49] if true
1C82  1A000080           [48] jmp        1            ; to [50]
1C86  17038000           [49] loadbool   12  1   0    ; true
1C8A  18030000           [50] test       12      0    ; to [52] if true
1C8E  1A400580           [51] jmp        22           ; to [74]
1C92  53030003           [52] getupval   13  6      
1C96  92038005           [53] move       14  11     
1C9A  62830001           [54] call       13  2   2  
1C9E  58030000           [55] test       13      0    ; to [57] if true
1CA2  1A000480           [56] jmp        17           ; to [74]
1CA6  53038003           [57] getupval   13  7      
1CAA  A4C3C105           [58] self       14  11  263  ; -491574171
1CAE  A2030001           [59] call       14  2   0  
1CB2  62830000           [60] call       13  0   2  
1CB6  93030004           [61] getupval   14  8      
fail op	35
1CBA  23808306           [62] close      0  
1CBE  1A400180           [63] jmp        6            ; to [70]
1CC2  9D030200           [64] getglobal  14  8        ; table
1CC6  8E434207           [65] gettable   14  14  265  ; -431682403
1CCA  D2030000           [66] move       15  0      
1CCE  12048005           [67] move       16  11     
1CD2  A2438001           [68] call       14  3   1  
1CD6  1AC00080           [69] jmp        4            ; to [74]
1CDA  A443C105           [70] self       14  11  261  ; -2135866365
1CDE  A2830001           [71] call       14  2   2  
1CE2  A4834207           [72] self       14  14  266  ; -725453761
1CE6  A2430001           [73] call       14  2   1  
1CEA  D6810000           [74] tforloop   7       2    ; to [76] if exit
1CEE  1A00F07F           [75] jmp        -63          ; to [13]
1CF2  56800000           [76] tforloop   1       2    ; to [78] if exit
1CF6  1AC0ED7F           [77] jmp        -72          ; to [6]
1CFA  1E000001           [78] return     0   2      
1CFE  1E008000           [79] return     0   1      
                         * constants:
1D02  0B                 sizek (11)
1D03  01                 const type 3
1D04  0791B063           const [0]: (1672515847)
1D08  01                 const type 3
1D09  3C2E251B           const [1]: (455421500)
1D0D  01                 const type 3
1D0E  EDBC9864           const [2]: (1687731437)
1D12  01                 const type 3
1D13  65770E40           const [3]: (1074689893)
1D17  01                 const type 3
1D18  6F289FB0           const [4]: (-1331746705)
1D1C  01                 const type 3
1D1D  0344B180           const [5]: (-2135866365)
1D21  01                 const type 3
1D22  0125A76D           const [6]: (1839670529)
1D26  01                 const type 3
1D27  652CB3E2           const [7]: (-491574171)
1D2B  04                 const type 4
1D2C  06                 string size (6)
1D2D  7461626C6500       "table\0"
                         const [8]: "table"
1D33  01                 const type 3
1D34  9D0C45E6           const [9]: (-431682403)
1D38  01                 const type 3
1D39  3F74C2D4           const [10]: (-725453761)
                         * functions:
1D3D  00                 sizep (0)
                         * lines:
1D3E  4F                 sizelineinfo (79)
                         [pc] (line)
1D3F  19                 [01] (25)
1D40  01                 [02] (26)
1D41  00                 [03] (26)
1D42  00                 [04] (26)
1D43  1A                 [05] (26)
1D44  01                 [06] (27)
1D45  00                 [07] (27)
1D46  00                 [08] (28)
1D47  1A                 [09] (28)
1D48  01                 [10] (28)
1D49  00                 [11] (28)
1D4A  00                 [12] (28)
1D4B  1A                 [13] (29)
1D4C  01                 [14] (30)
1D4D  00                 [15] (30)
1D4E  00                 [16] (30)
1D4F  1A                 [17] (30)
1D50  01                 [18] (31)
1D51  00                 [19] (34)
1D52  00                 [20] (34)
1D53  1B                 [21] (34)
1D54  01                 [22] (34)
1D55  00                 [23] (34)
1D56  00                 [24] (34)
1D57  1B                 [25] (34)
1D58  01                 [26] (34)
1D59  00                 [27] (34)
1D5A  00                 [28] (34)
1D5B  1C                 [29] (34)
1D5C  01                 [30] (34)
1D5D  00                 [31] (34)
1D5E  00                 [32] (35)
1D5F  1C                 [33] (38)
1D60  01                 [34] (38)
1D61  00                 [35] (38)
1D62  00                 [36] (38)
1D63  1C                 [37] (38)
1D64  01                 [38] (38)
1D65  00                 [39] (38)
1D66  00                 [40] (38)
1D67  1C                 [41] (38)
1D68  01                 [42] (38)
1D69  00                 [43] (38)
1D6A  00                 [44] (38)
1D6B  1C                 [45] (38)
1D6C  01                 [46] (38)
1D6D  00                 [47] (38)
1D6E  00                 [48] (38)
1D6F  1D                 [49] (39)
1D70  01                 [50] (42)
1D71  00                 [51] (42)
1D72  00                 [52] (42)
1D73  1E                 [53] (42)
1D74  01                 [54] (42)
1D75  00                 [55] (42)
1D76  00                 [56] (42)
1D77  1E                 [57] (43)
1D78  01                 [58] (43)
1D79  00                 [59] (43)
1D7A  00                 [60] (43)
1D7B  1E                 [61] (44)
1D7C  01                 [62] (44)
1D7D  00                 [63] (44)
1D7E  00                 [64] (45)
1D7F  1E                 [65] (45)
1D80  01                 [66] (45)
1D81  00                 [67] (45)
1D82  00                 [68] (45)
1D83  1F                 [69] (45)
1D84  01                 [70] (47)
1D85  00                 [71] (47)
1D86  00                 [72] (47)
1D87  22                 [73] (47)
1D88  01                 [74] (28)
1D89  00                 [75] (49)
1D8A  00                 [76] (26)
1D8B  22                 [77] (50)
1D8C  01                 [78] (52)
1D8D  00                 [79] (53)
                         * locals:
1E7B  00                 sizelocvars (0)
                         * upvalues:
1E7C  00                 sizeupvalues (0)
                         ** end of function **

                         
1E7D                     ** function [19] definition (level 2)
                         ** start of function **
1E7D  00                 string size (0)
                         source name: (none)
1E7F  02                 line defined (311)
1E80  CC                 last line defined (332)
1E81  02                 nups (5)
1E82  05                 numparams (3)
1E83  03                 is_vararg (0)
1E84  00                 maxstacksize (16)
                         * code:
1E86  41                 sizecode (65)
1E87  D3000000           [01] getupval   3   0      
1E8B  12018000           [02] move       4   1      
1E8F  52010001           [03] move       5   2      
1E93  E2808001           [04] call       3   3   2  
1E97  24014001           [05] self       4   2   256  ; 455421500
1E9B  22810001           [06] call       4   2   2  
1E9F  5D410000           [07] getglobal  5   1        ; 1672515847
1EA3  92010000           [08] move       6   0      
1EA7  62010101           [09] call       5   2   4  
1EAB  1A400B80           [10] jmp        46           ; to [57]
1EAF  8A028001           [11] len        10  3      
fail op	21
1EB3  15000205           [12] concat     0   10  8  
1EB7  1A000080           [13] jmp        1            ; to [15]
1EBB  1AC00A80           [14] jmp        44           ; to [59]
1EBF  A482C004           [15] self       10  9   258  ; -2135866365
1EC3  A2820001           [16] call       10  2   2  
1EC7  E4C24005           [17] self       11  10  259  ; 1511086594
1ECB  E2820001           [18] call       11  2   2  
1ECF  D8420000           [19] test       11      1    ; to [21] if false
1ED3  1A800780           [20] jmp        31           ; to [52]
1ED7  D3028000           [21] getupval   11  1      
1EDB  2403C104           [22] self       12  9   260  ; -491574171
1EDF  22030001           [23] call       12  2   0  
1EE3  E2820000           [24] call       11  0   2  
1EE7  13030001           [25] getupval   12  2      
fail op	35
1EEB  23008305           [26] close      0  
1EEF  1AC00580           [27] jmp        24           ; to [52]
1EF3  E4424105           [28] self       11  10  261  ; 970454089
1EF7  4E038201           [29] gettable   13  3   8  
1EFB  6483C106           [30] self       13  13  262  ; 1839670529
1EFF  62830001           [31] call       13  2   2  
1F03  97030000           [32] loadbool   14  0   0    ; false
1F07  E2420002           [33] call       11  4   1  
1F0B  E4C24105           [34] self       11  10  263  ; 1992436207
1F0F  64034205           [35] self       13  10  264  ; 945541886
1F13  62030001           [36] call       13  2   0  
1F17  E2420000           [37] call       11  0   1  
1F1B  D3028001           [38] getupval   11  3      
1F1F  12038004           [39] move       12  9      
1F23  E2C20001           [40] call       11  2   3  
1F27  53030002           [41] getupval   13  4      
1F2B  A403C005           [42] self       14  11  256  ; 455421500
1F2F  A2830001           [43] call       14  2   2  
1F33  4E838306           [44] gettable   13  13  14 
1F37  4C434206           [45] settable   13  12  265  ; nil
1F3B  5D830200           [46] getglobal  13  10       ; table
1F3F  4EC3C206           [47] gettable   13  13  267  ; -431682403
1F43  93030002           [48] getupval   14  4      
1F47  8E030107           [49] gettable   14  14  4  
1F4B  D2038004           [50] move       15  9      
1F4F  62438001           [51] call       13  3   1  
1F53  5D830200           [52] getglobal  13  10       ; table
1F57  4E03C306           [53] gettable   13  13  268  ; -843973282
1F5B  92030000           [54] move       14  0      
1F5F  D2030004           [55] move       15  8      
1F63  62438001           [56] call       13  3   1  
1F67  56810000           [57] tforloop   5       2    ; to [59] if exit
1F6B  1AC0F37F           [58] jmp        -48          ; to [11]
1F6F  5D430300           [59] getglobal  13  13       ; math
1F73  4E83C306           [60] gettable   13  13  270  ; 1710846250
1F77  8A038001           [61] len        14  3      
1F7B  CA030000           [62] len        15  0      
1F7F  47038001           [63] tailcall   13  3   0  
1F83  5E030000           [64] return     13  0      
1F87  1E008000           [65] return     0   1      
                         * constants:
1F8B  0F                 sizek (15)
1F8C  01                 const type 3
1F8D  3C2E251B           const [0]: (455421500)
1F91  01                 const type 3
1F92  0791B063           const [1]: (1672515847)
1F96  01                 const type 3
1F97  0344B180           const [2]: (-2135866365)
1F9B  01                 const type 3
1F9C  025A115A           const [3]: (1511086594)
1FA0  01                 const type 3
1FA1  652CB3E2           const [4]: (-491574171)
1FA5  01                 const type 3
1FA6  49F4D739           const [5]: (970454089)
1FAA  01                 const type 3
1FAB  0125A76D           const [6]: (1839670529)
1FAF  01                 const type 3
1FB0  EF29C276           const [7]: (1992436207)
1FB4  01                 const type 3
1FB5  FED25B38           const [8]: (945541886)
1FB9  00                 const type 0
                         const [9]: nil
1FBA  04                 const type 4
1FBB  06                 string size (6)
1FBC  7461626C6500       "table\0"
                         const [10]: "table"
1FC2  01                 const type 3
1FC3  9D0C45E6           const [11]: (-431682403)
1FC7  01                 const type 3
1FC8  5EFDB1CD           const [12]: (-843973282)
1FCC  04                 const type 4
1FCD  05                 string size (5)
1FCE  6D61746800         "math\0"
                         const [13]: "math"
1FD3  01                 const type 3
1FD4  2A71F965           const [14]: (1710846250)
                         * functions:
1FD8  00                 sizep (0)
                         * lines:
1FD9  41                 sizelineinfo (65)
                         [pc] (line)
1FDA  38                 [01] (56)
1FDB  01                 [02] (56)
1FDC  00                 [03] (56)
1FDD  00                 [04] (56)
1FDE  38                 [05] (57)
1FDF  01                 [06] (57)
1FE0  00                 [07] (59)
1FE1  00                 [08] (59)
1FE2  38                 [09] (59)
1FE3  01                 [10] (59)
1FE4  00                 [11] (60)
1FE5  00                 [12] (60)
1FE6  38                 [13] (60)
1FE7  01                 [14] (61)
1FE8  00                 [15] (64)
1FE9  00                 [16] (64)
1FEA  39                 [17] (65)
1FEB  01                 [18] (65)
1FEC  00                 [19] (65)
1FED  00                 [20] (65)
1FEE  39                 [21] (65)
1FEF  01                 [22] (65)
1FF0  00                 [23] (65)
1FF1  00                 [24] (65)
1FF2  3B                 [25] (65)
1FF3  01                 [26] (65)
1FF4  00                 [27] (65)
1FF5  00                 [28] (66)
1FF6  3B                 [29] (66)
1FF7  01                 [30] (66)
1FF8  00                 [31] (66)
1FF9  00                 [32] (66)
1FFA  3B                 [33] (66)
1FFB  01                 [34] (67)
1FFC  00                 [35] (67)
1FFD  00                 [36] (67)
1FFE  3B                 [37] (67)
1FFF  01                 [38] (69)
2000  00                 [39] (69)
2001  00                 [40] (69)
2002  3C                 [41] (70)
2003  01                 [42] (70)
2004  00                 [43] (70)
2005  00                 [44] (70)
2006  3C                 [45] (70)
2007  01                 [46] (71)
2008  00                 [47] (71)
2009  00                 [48] (71)
200A  3C                 [49] (71)
200B  01                 [50] (71)
200C  00                 [51] (71)
200D  00                 [52] (73)
200E  3D                 [53] (73)
200F  01                 [54] (73)
2010  00                 [55] (73)
2011  00                 [56] (73)
2012  40                 [57] (59)
2013  01                 [58] (73)
2014  00                 [59] (75)
2015  00                 [60] (75)
2016  40                 [61] (75)
2017  01                 [62] (75)
2018  00                 [63] (75)
2019  00                 [64] (75)
201A  41                 [65] (76)
                         * locals:
20DE  00                 sizelocvars (0)
                         * upvalues:
20DF  00                 sizeupvalues (0)
                         ** end of function **

                         
20E0                     ** function [20] definition (level 2)
                         ** start of function **
20E0  00                 string size (0)
                         source name: (none)
20E2  02                 line defined (334)
20E3  D9                 last line defined (345)
20E4  02                 nups (1)
20E5  01                 numparams (1)
20E6  01                 is_vararg (0)
20E7  00                 maxstacksize (10)
                         * code:
20E9  23                 sizecode (35)
20EA  64004000           [01] self       1   0   256  ; 455421500
20EE  62800001           [02] call       1   2   2  
20F2  93000000           [03] getupval   2   0      
20F6  8E400001           [04] gettable   2   2   1  
20FA  8A000001           [05] len        2   2      
20FE  D9400000           [06] loadk      3   1        ; 0
2102  19810000           [07] loadk      4   2        ; 0
2106  90000680           [08] forprep    2   25       ; to [34]
210A  93010000           [09] getupval   6   0      
210E  8E410003           [10] gettable   6   6   1  
2112  8E410103           [11] gettable   6   6   5  
2116  DDC10000           [12] getglobal  7   3        ; 1074689893
211A  12020003           [13] move       8   6      
211E  E2810001           [14] call       7   2   2  
2122  D8010000           [15] test       7       0    ; to [17] if true
2126  1A800180           [16] jmp        7            ; to [24]
212A  DD010100           [17] getglobal  7   4        ; table
212E  CE41C103           [18] gettable   7   7   261  ; -843973282
2132  13020000           [19] getupval   8   0      
2136  0E420004           [20] gettable   8   8   1  
213A  52028002           [21] move       9   5      
213E  E2418001           [22] call       7   3   1  
2142  1A400280           [23] jmp        10           ; to [34]
2146  E4814103           [24] self       7   6   262  ; -2135866365
214A  E2810001           [25] call       7   2   2  
214E  E4C1C103           [26] self       7   7   263  ; -725453761
2152  E2410001           [27] call       7   2   1  
2156  DD010100           [28] getglobal  7   4        ; table
215A  CE41C103           [29] gettable   7   7   261  ; -843973282
215E  13020000           [30] getupval   8   0      
2162  0E420004           [31] gettable   8   8   1  
2166  52028002           [32] move       9   5      
216A  E2418001           [33] call       7   3   1  
216E  9440F97F           [34] forloop    2   -26      ; to [9] if loop
2172  1E008000           [35] return     0   1      
                         * constants:
2176  08                 sizek (8)
2177  01                 const type 3
2178  3C2E251B           const [0]: (455421500)
217C  03                 const type 3
217D  0000803F           const [1]: (0)
2181  03                 const type 3
2182  000080BF           const [2]: (0)
2186  01                 const type 3
2187  65770E40           const [3]: (1074689893)
218B  04                 const type 4
218C  06                 string size (6)
218D  7461626C6500       "table\0"
                         const [4]: "table"
2193  01                 const type 3
2194  5EFDB1CD           const [5]: (-843973282)
2198  01                 const type 3
2199  0344B180           const [6]: (-2135866365)
219D  01                 const type 3
219E  3F74C2D4           const [7]: (-725453761)
                         * functions:
21A2  00                 sizep (0)
                         * lines:
21A3  23                 sizelineinfo (35)
                         [pc] (line)
21A4  4F                 [01] (79)
21A5  01                 [02] (79)
21A6  00                 [03] (80)
21A7  00                 [04] (80)
21A8  4F                 [05] (80)
21A9  01                 [06] (80)
21AA  00                 [07] (80)
21AB  00                 [08] (80)
21AC  50                 [09] (81)
21AD  01                 [10] (81)
21AE  00                 [11] (81)
21AF  00                 [12] (82)
21B0  50                 [13] (82)
21B1  01                 [14] (82)
21B2  00                 [15] (82)
21B3  00                 [16] (82)
21B4  50                 [17] (83)
21B5  01                 [18] (83)
21B6  00                 [19] (83)
21B7  00                 [20] (83)
21B8  50                 [21] (83)
21B9  01                 [22] (83)
21BA  00                 [23] (83)
21BB  00                 [24] (85)
21BC  50                 [25] (85)
21BD  01                 [26] (85)
21BE  00                 [27] (85)
21BF  00                 [28] (86)
21C0  50                 [29] (86)
21C1  01                 [30] (86)
21C2  00                 [31] (86)
21C3  00                 [32] (86)
21C4  51                 [33] (86)
21C5  01                 [34] (80)
21C6  00                 [35] (89)
                         * locals:
2230  00                 sizelocvars (0)
                         * upvalues:
2231  00                 sizeupvalues (0)
                         ** end of function **

                         
2232                     ** function [21] definition (level 2)
                         ** start of function **
2232  00                 string size (0)
                         source name: (none)
2234  02                 line defined (347)
2235  DD                 last line defined (349)
2236  02                 nups (1)
2237  01                 numparams (1)
2238  01                 is_vararg (0)
2239  00                 maxstacksize (2)
                         * code:
223B  02                 sizecode (2)
fail op	8
223C  08000000           [1] setupval   0   0      
2240  1E008000           [2] return     0   1      
                         * constants:
2244  00                 sizek (0)
                         * functions:
2245  00                 sizep (0)
                         * lines:
2246  02                 sizelineinfo (2)
                         [pc] (line)
2247  5C                 [1] (92)
2248  01                 [2] (93)
                         * locals:
224F  00                 sizelocvars (0)
                         * upvalues:
2250  00                 sizeupvalues (0)
                         ** end of function **

                         
2251                     ** function [22] definition (level 2)
                         ** start of function **
2251  00                 string size (0)
                         source name: (none)
2253  02                 line defined (351)
2254  AC                 last line defined (428)
2255  03                 nups (23)
2256  17                 numparams (0)
2257  00                 is_vararg (0)
2258  00                 maxstacksize (24)
                         * code:
225B  01                 sizecode (178)
225C  1D000000           [001] getglobal  0   0        ; 1074689893
2260  53000000           [002] getupval   1   0      
2264  22800001           [003] call       0   2   2  
2268  18400000           [004] test       0       1    ; to [6] if false
226C  1AC00080           [005] jmp        4            ; to [10]
2270  13008000           [006] getupval   0   1      
2274  0A000000           [007] len        0   0      
fail op	35
2278  23404000           [008] close      0  
227C  1AC00080           [009] jmp        4            ; to [14]
2280  1D800000           [010] getglobal  0   2        ; -1817107093
2284  59C00000           [011] loadk      1   3        ; "Ending spawn script because IsNull(aiDir) or #currentSources == 0"
2288  22400001           [012] call       0   2   1  
228C  1E008000           [013] return     0   1      
2290  13000001           [014] getupval   0   2      
2294  24004100           [015] self       0   0   260  ; -1938777623
2298  9D400100           [016] getglobal  2   5        ; 1289681407
229C  A2008000           [017] call       2   1   0  
22A0  22400000           [018] call       0   0   1  
22A4  13008001           [019] getupval   0   3      
22A8  22408000           [020] call       0   1   1  
22AC  13000002           [021] getupval   0   4      
22B0  18000000           [022] test       0       0    ; to [24] if true
22B4  1A400080           [023] jmp        2            ; to [26]
22B8  13008002           [024] getupval   0   5      
22BC  22408000           [025] call       0   1   1  
22C0  13000003           [026] getupval   0   6      
fail op	21
22C4  15008080           [027] concat     0   257 0  
22C8  1AC00180           [028] jmp        8            ; to [37]
22CC  13008003           [029] getupval   0   7      
22D0  53000003           [030] getupval   1   6      
fail op	33
22D4  21008000           [031] tforloop   0       0    ; to [33] if exit
22D8  1AC00080           [032] jmp        4            ; to [37]
22DC  1D800000           [033] getglobal  0   2        ; -1817107093
22E0  59800100           [034] loadk      1   6        ; "Ending spawn script because mMaxTotalAi > 0 and totalSpawned >= mMaxTotalAi"
22E4  22400001           [035] call       0   2   1  
22E8  1E008000           [036] return     0   1      
22EC  13000004           [037] getupval   0   8      
22F0  18000000           [038] test       0       0    ; to [40] if true
22F4  1AC01880           [039] jmp        100          ; to [140]
22F8  13008004           [040] getupval   0   9      
22FC  18400000           [041] test       0       1    ; to [43] if false
2300  1A800080           [042] jmp        3            ; to [46]
2304  13000005           [043] getupval   0   10     
2308  18000000           [044] test       0       0    ; to [46] if true
230C  1A401780           [045] jmp        94           ; to [140]
2310  17000000           [046] loadbool   0   0   0    ; false
fail op	8
2314  08008004           [047] setupval   0   9      
2318  17000000           [048] loadbool   0   0   0    ; false
fail op	8
231C  08000005           [049] setupval   0   10     
2320  0B000000           [050] newtable   0   0   0    ; array=0, hash=0
fail op	8
2324  08008005           [051] setupval   0   11     
2328  13000006           [052] getupval   0   12     
232C  53000000           [053] getupval   1   0      
2330  64C0C100           [054] self       1   1   263  ; 932988922
2334  62800001           [055] call       1   2   2  
2338  0D400000           [056] sub        0   0   1  
233C  59400000           [057] loadk      1   1        ; 0
2340  93008006           [058] getupval   2   13     
2344  A2808000           [059] call       2   1   2  
2348  C6008001           [060] loadnil    3   3      
234C  17010000           [061] loadbool   4   0   0    ; false
2350  5D010000           [062] getglobal  5   0        ; 1074689893
2354  93010007           [063] getupval   6   14     
2358  62810001           [064] call       5   2   2  
235C  58410000           [065] test       5       1    ; to [67] if false
2360  1A000180           [066] jmp        5            ; to [72]
2364  4B018000           [067] newtable   5   1   0    ; array=1, hash=0
2368  93010007           [068] getupval   6   14     
236C  5B418000           [069] setlist    5   1   1    ; index 1 to 1
2370  D2008002           [070] move       3   5      
2374  1A000180           [071] jmp        5            ; to [77]
2378  53018000           [072] getupval   5   1      
237C  4A018002           [073] len        5   5      
fail op	21
2380  15408180           [074] concat     0   257 5  
2384  1A000080           [075] jmp        1            ; to [77]
2388  D3008000           [076] getupval   3   1      
238C  5D010200           [077] getglobal  5   8        ; 1672515847
2390  92018001           [078] move       6   3      
2394  62010101           [079] call       5   2   4  
2398  1AC00D80           [080] jmp        56           ; to [137]
239C  A442C204           [081] self       10  9   265  ; 455421500
23A0  A2820001           [082] call       10  2   2  
23A4  D3028007           [083] getupval   11  15     
23A8  CE82C205           [084] gettable   11  11  266  ; -132701534
23AC  13030008           [085] getupval   12  16     
23B0  0E830206           [086] gettable   12  12  10 
23B4  53038008           [087] getupval   13  17     
23B8  9DC30200           [088] getglobal  14  11       ; math
23BC  8E034307           [089] gettable   14  14  268  ; -150971781
23C0  D3038008           [090] getupval   15  17     
23C4  DC43C307           [091] div        15  15  269  ; 0
23C8  A2030001           [092] call       14  2   0  
23CC  E2820000           [093] call       11  0   2  
23D0  1DC30200           [094] getglobal  12  11       ; math
23D4  0E834306           [095] gettable   12  12  270  ; 1710846250
23D8  53030009           [096] getupval   13  18     
23DC  4E838206           [097] gettable   13  13  10 
23E0  4A038006           [098] len        13  13     
23E4  4D438305           [099] sub        13  11  13 
23E8  93038009           [100] getupval   14  19     
23EC  22838001           [101] call       12  3   2  
23F0  52000006           [102] move       1   12     
23F4  0A030001           [103] len        12  2      
fail op	21
23F8  15008380           [104] concat     0   257 12 
23FC  1AC00280           [105] jmp        12           ; to [118]
fail op	21
2400  15408080           [106] concat     0   257 1  
2404  1A400280           [107] jmp        10           ; to [118]
2408  1303000A           [108] getupval   12  20     
240C  52030001           [109] move       13  2      
2410  9DC30200           [110] getglobal  14  11       ; math
2414  8E834307           [111] gettable   14  14  270  ; 1710846250
2418  D2038000           [112] move       15  1      
241C  0A040001           [113] len        16  2      
2420  A2838001           [114] call       14  3   2  
2424  D2038004           [115] move       15  9      
2428  22830002           [116] call       12  4   2  
242C  4D008300           [117] sub        1   1   12 
fail op	21
2430  15408080           [118] concat     0   257 1  
2434  1A000480           [119] jmp        17           ; to [137]
fail op	21
2438  15008080           [120] concat     0   257 0  
243C  1A800380           [121] jmp        15           ; to [137]
2440  59430000           [122] loadk      13  1        ; 0
2444  18410000           [123] test       4       1    ; to [125] if false
2448  1A000180           [124] jmp        5            ; to [130]
244C  9303800A           [125] getupval   14  21     
2450  D2038000           [126] move       15  1      
2454  12048004           [127] move       16  9      
2458  A2838001           [128] call       14  3   2  
245C  52030007           [129] move       13  14     
fail op	21
2460  15408380           [130] concat     0   257 13 
2464  1A000080           [131] jmp        1            ; to [133]
2468  17018000           [132] loadbool   4   1   0    ; true
246C  0D400300           [133] sub        0   0   13 
2470  9303000B           [134] getupval   14  22     
2474  CD438300           [135] sub        15  1   13 
2478  8CC30305           [136] settable   14  10  15 
247C  56810000           [137] tforloop   5       2    ; to [139] if exit
2480  1A40F17F           [138] jmp        -58          ; to [81]
2484  1A400980           [139] jmp        38           ; to [178]
2488  86030007           [140] loadnil    14  14     
248C  DD030000           [141] getglobal  15  0        ; 1074689893
2490  13040007           [142] getupval   16  14     
2494  E2830001           [143] call       15  2   2  
2498  D8430000           [144] test       15      1    ; to [146] if false
249C  1A000180           [145] jmp        5            ; to [151]
24A0  CB038000           [146] newtable   15  1   0    ; array=1, hash=0
24A4  13040007           [147] getupval   16  14     
24A8  DB438000           [148] setlist    15  1   1    ; index 1 to 1
24AC  92038007           [149] move       14  15     
24B0  1A000180           [150] jmp        5            ; to [156]
24B4  D3038000           [151] getupval   15  1      
24B8  CA038007           [152] len        15  15     
fail op	21
24BC  15C08380           [153] concat     0   257 15 
24C0  1A000080           [154] jmp        1            ; to [156]
24C4  93038000           [155] getupval   14  1      
24C8  DD030200           [156] getglobal  15  8        ; 1672515847
24CC  12040007           [157] move       16  14     
24D0  E2030101           [158] call       15  2   4  
24D4  1AC00380           [159] jmp        16           ; to [176]
24D8  2445C209           [160] self       20  19  265  ; 455421500
24DC  22850001           [161] call       20  2   2  
24E0  5305000B           [162] getupval   21  22     
24E4  4E05850A           [163] gettable   21  21  20 
fail op	21
24E8  15408580           [164] concat     0   257 21 
24EC  1A400280           [165] jmp        10           ; to [176]
24F0  5305800A           [166] getupval   21  21     
24F4  99C50300           [167] loadk      22  15       ; 0
24F8  D2058009           [168] move       23  19     
24FC  62858001           [169] call       21  3   2  
2500  9305000B           [170] getupval   22  22     
2504  D305000B           [171] getupval   23  22     
2508  CE05850B           [172] gettable   23  23  20 
250C  CD45850B           [173] sub        23  23  21 
2510  8CC5050A           [174] settable   22  20  23 
2514  1E008000           [175] return     0   1      
2518  D6830000           [176] tforloop   15      2    ; to [178] if exit
251C  1A40FB7F           [177] jmp        -18          ; to [160]
2520  1E008000           [178] return     0   1      
                         * constants:
2524  10                 sizek (16)
2525  01                 const type 3
2526  65770E40           const [0]: (1074689893)
252A  03                 const type 3
252B  00000000           const [1]: (0)
252F  01                 const type 3
2530  6B25B193           const [2]: (-1817107093)
2534  04                 const type 4
2535  42                 string size (66)
2536  456E64696E672073+  "Ending s"
253E  7061776E20736372+  "pawn scr"
2546  6970742062656361+  "ipt beca"
254E  7573652049734E75+  "use IsNu"
2556  6C6C286169446972+  "ll(aiDir"
255E  29206F7220236375+  ") or #cu"
2566  7272656E74536F75+  "rrentSou"
256E  72636573203D3D20+  "rces == "
2576  3000               "0\0"
                         const [3]: "Ending spawn script because IsNull(aiDir) or #currentSources == 0"
2578  01                 const type 3
2579  E999708C           const [4]: (-1938777623)
257D  01                 const type 3
257E  FFF9DE4C           const [5]: (1289681407)
2582  04                 const type 4
2583  4C                 string size (76)
2584  456E64696E672073+  "Ending s"
258C  7061776E20736372+  "pawn scr"
2594  6970742062656361+  "ipt beca"
259C  757365206D4D6178+  "use mMax"
25A4  546F74616C416920+  "TotalAi "
25AC  3E203020616E6420+  "> 0 and "
25B4  746F74616C537061+  "totalSpa"
25BC  776E6564203E3D20+  "wned >= "
25C4  6D4D6178546F7461+  "mMaxTota"
25CC  6C416900           "lAi\0"
                         const [6]: "Ending spawn script because mMaxTotalAi > 0 and totalSpawned >= mMaxTotalAi"
25D0  01                 const type 3
25D1  FA479C37           const [7]: (932988922)
25D5  01                 const type 3
25D6  0791B063           const [8]: (1672515847)
25DA  01                 const type 3
25DB  3C2E251B           const [9]: (455421500)
25DF  01                 const type 3
25E0  A22217F8           const [10]: (-132701534)
25E4  04                 const type 4
25E5  05                 string size (5)
25E6  6D61746800         "math\0"
                         const [11]: "math"
25EB  01                 const type 3
25EC  7B5A00F7           const [12]: (-150971781)
25F0  03                 const type 3
25F1  00000040           const [13]: (0)
25F5  01                 const type 3
25F6  2A71F965           const [14]: (1710846250)
25FA  03                 const type 3
25FB  0000803F           const [15]: (0)
                         * functions:
25FF  00                 sizep (0)
                         * lines:
2601  01                 sizelineinfo (178)
                         [pc] (line)
2602  60                 [001] (96)
2603  01                 [002] (96)
2604  00                 [003] (96)
2605  00                 [004] (96)
2606  60                 [005] (96)
2607  01                 [006] (96)
2608  00                 [007] (96)
2609  00                 [008] (96)
260A  60                 [009] (96)
260B  01                 [010] (97)
260C  00                 [011] (97)
260D  00                 [012] (97)
260E  60                 [013] (98)
260F  01                 [014] (101)
2610  00                 [015] (101)
2611  00                 [016] (101)
2612  60                 [017] (101)
2613  01                 [018] (101)
2614  00                 [019] (103)
2615  00                 [020] (103)
2616  60                 [021] (104)
2617  01                 [022] (104)
2618  00                 [023] (104)
2619  00                 [024] (105)
261A  60                 [025] (105)
261B  01                 [026] (108)
261C  00                 [027] (108)
261D  00                 [028] (108)
261E  60                 [029] (108)
261F  01                 [030] (108)
2620  00                 [031] (108)
2621  00                 [032] (108)
2622  60                 [033] (109)
2623  01                 [034] (109)
2624  00                 [035] (109)
2625  00                 [036] (110)
2626  61                 [037] (113)
2627  01                 [038] (113)
2628  00                 [039] (113)
2629  00                 [040] (113)
262A  61                 [041] (113)
262B  01                 [042] (113)
262C  00                 [043] (113)
262D  00                 [044] (113)
262E  61                 [045] (113)
262F  01                 [046] (114)
2630  00                 [047] (114)
2631  00                 [048] (115)
2632  62                 [049] (115)
2633  01                 [050] (116)
2634  00                 [051] (116)
2635  00                 [052] (117)
2636  65                 [053] (117)
2637  01                 [054] (117)
2638  00                 [055] (117)
2639  00                 [056] (117)
263A  65                 [057] (118)
263B  01                 [058] (119)
263C  00                 [059] (119)
263D  00                 [060] (120)
263E  65                 [061] (121)
263F  01                 [062] (123)
2640  00                 [063] (123)
2641  00                 [064] (123)
2642  65                 [065] (123)
2643  01                 [066] (123)
2644  00                 [067] (124)
2645  00                 [068] (124)
2646  65                 [069] (124)
2647  01                 [070] (124)
2648  00                 [071] (124)
2649  00                 [072] (125)
264A  67                 [073] (125)
264B  01                 [074] (125)
264C  00                 [075] (125)
264D  00                 [076] (126)
264E  67                 [077] (-127)
264F  01                 [078] (-127)
2650  00                 [079] (-127)
2651  00                 [080] (-127)
2652  68                 [081] (-126)
2653  01                 [082] (-126)
2654  00                 [083] (-123)
2655  00                 [084] (-123)
2656  68                 [085] (-123)
2657  01                 [086] (-123)
2658  00                 [087] (-123)
2659  00                 [088] (-123)
265A  68                 [089] (-123)
265B  01                 [090] (-123)
265C  00                 [091] (-123)
265D  00                 [092] (-123)
265E  69                 [093] (-123)
265F  01                 [094] (-122)
2660  00                 [095] (-122)
2661  00                 [096] (-122)
2662  69                 [097] (-122)
2663  01                 [098] (-122)
2664  00                 [099] (-122)
2665  00                 [100] (-122)
2666  6C                 [101] (-122)
2667  01                 [102] (-122)
2668  00                 [103] (-120)
2669  00                 [104] (-120)
266A  6C                 [105] (-120)
266B  01                 [106] (-120)
266C  00                 [107] (-120)
266D  00                 [108] (-119)
266E  6C                 [109] (-119)
266F  01                 [110] (-119)
2670  00                 [111] (-119)
2671  00                 [112] (-119)
2672  6C                 [113] (-119)
2673  01                 [114] (-119)
2674  00                 [115] (-119)
2675  00                 [116] (-119)
2676  6C                 [117] (-118)
2677  01                 [118] (-115)
2678  00                 [119] (-115)
2679  00                 [120] (-115)
267A  6C                 [121] (-115)
267B  01                 [122] (-114)
267C  00                 [123] (-113)
267D  00                 [124] (-113)
267E  6C                 [125] (-112)
267F  01                 [126] (-112)
2680  00                 [127] (-112)
2681  00                 [128] (-112)
2682  6D                 [129] (-112)
2683  01                 [130] (-109)
2684  00                 [131] (-109)
2685  00                 [132] (-108)
2686  6D                 [133] (-105)
2687  01                 [134] (-104)
2688  00                 [135] (-104)
2689  00                 [136] (-104)
268A  6D                 [137] (-127)
268B  01                 [138] (-103)
268C  00                 [139] (-102)
268D  00                 [140] (-100)
268E  6E                 [141] (-99)
268F  01                 [142] (-99)
2690  00                 [143] (-99)
2691  00                 [144] (-99)
2692  71                 [145] (-99)
2693  01                 [146] (-98)
2694  00                 [147] (-98)
2695  00                 [148] (-98)
2696  71                 [149] (-98)
2697  01                 [150] (-98)
2698  00                 [151] (-97)
2699  00                 [152] (-97)
269A  71                 [153] (-97)
269B  01                 [154] (-97)
269C  00                 [155] (-96)
269D  00                 [156] (-93)
269E  71                 [157] (-93)
269F  01                 [158] (-93)
26A0  00                 [159] (-93)
26A1  00                 [160] (-92)
26A2  71                 [161] (-92)
26A3  01                 [162] (-91)
26A4  00                 [163] (-91)
26A5  00                 [164] (-91)
26A6  71                 [165] (-91)
26A7  01                 [166] (-90)
26A8  00                 [167] (-90)
26A9  00                 [168] (-90)
26AA  71                 [169] (-90)
26AB  01                 [170] (-89)
26AC  00                 [171] (-89)
26AD  00                 [172] (-89)
26AE  71                 [173] (-89)
26AF  01                 [174] (-89)
26B0  00                 [175] (-88)
26B1  00                 [176] (-93)
26B2  71                 [177] (-87)
26B3  01                 [178] (-84)
                         * locals:
28CA  00                 sizelocvars (0)
                         * upvalues:
28CB  00                 sizeupvalues (0)
                         ** end of function **

                         
28CC                     ** function [23] definition (level 2)
                         ** start of function **
28CC  00                 string size (0)
                         source name: (none)
28CE  03                 line defined (430)
28CF  D3                 last line defined (467)
28D0  03                 nups (16)
28D1  10                 numparams (1)
28D2  01                 is_vararg (0)
28D3  00                 maxstacksize (20)
                         * code:
28D5  71                 sizecode (113)
28D6  5D000000           [001] getglobal  1   0        ; 849075268
28DA  99400000           [002] loadk      2   1        ; "Lotus.Interface.Libs.TimerMgr"
28DE  62800001           [003] call       1   2   2  
28E2  8E80C000           [004] gettable   2   1   258  ; -1029178688
28E6  A2808000           [005] call       2   1   2  
fail op	8
28EA  88000000           [006] setupval   2   0      
28EE  9DC00000           [007] getglobal  2   3        ; gRegion
28F2  A4004101           [008] self       2   2   260  ; -774964848
28F6  A2800001           [009] call       2   2   2  
28FA  A4404101           [010] self       2   2   261  ; 537471347
28FE  A2800001           [011] call       2   2   2  
fail op	8
2902  88008000           [012] setupval   2   1      
fail op	8
2906  08000001           [013] setupval   0   2      
290A  8B000000           [014] newtable   2   0   0    ; array=0, hash=0
fail op	8
290E  88008001           [015] setupval   2   3      
2912  99800100           [016] loadk      2   6        ; 0
fail op	8
2916  88000002           [017] setupval   2   4      
291A  8B000000           [018] newtable   2   0   0    ; array=0, hash=0
291E  DDC00100           [019] getglobal  3   7        ; gPromotedToHost
2922  D8000000           [020] test       3       0    ; to [22] if true
2926  1A000180           [021] jmp        5            ; to [27]
292A  DDC00000           [022] getglobal  3   3        ; gRegion
292E  E400C201           [023] self       3   3   264  ; 152279552
2932  5D410200           [024] getglobal  5   9        ; gLotusNpcAvatarType
2936  E2808001           [025] call       3   3   2  
293A  92008001           [026] move       2   3      
293E  DD800200           [027] getglobal  3   10       ; 1672515847
2942  13010001           [028] getupval   4   2      
2946  E2000101           [029] call       3   2   4  
294A  1AC01080           [030] jmp        68           ; to [99]
294E  24C2C203           [031] self       8   7   267  ; 455421500
2952  22820001           [032] call       8   2   2  
2956  53028002           [033] getupval   9   5      
295A  8B020000           [034] newtable   10  0   0    ; array=0, hash=0
295E  4C820204           [035] settable   9   8   10 
2962  53020003           [036] getupval   9   6      
2966  8B020000           [037] newtable   10  0   0    ; array=0, hash=0
296A  4C820204           [038] settable   9   8   10 
296E  53028003           [039] getupval   9   7      
2972  8B020000           [040] newtable   10  0   0    ; array=0, hash=0
2976  4C820204           [041] settable   9   8   10 
297A  53020004           [042] getupval   9   8      
297E  4C824104           [043] settable   9   8   262  ; 0
2982  53028004           [044] getupval   9   9      
2986  4C024304           [045] settable   9   8   268  ; 0
298A  53020005           [046] getupval   9   10     
298E  4C424304           [047] settable   9   8   269  ; nil
2992  6482C303           [048] self       9   7   270  ; -1957065004
2996  DDC20300           [049] getglobal  11  15       ; 738251817
299A  19030400           [050] loadk      12  16       ; "/Lotus/Types/Game/Waypoints/SpawnSource"
299E  E2020001           [051] call       11  2   0  
29A2  62820000           [052] call       9   0   2  
29A6  58020000           [053] test       9       0    ; to [55] if true
29AA  1A000280           [054] jmp        9            ; to [64]
29AE  53028005           [055] getupval   9   11     
29B2  9D420400           [056] getglobal  10  17       ; -174740002
29B6  E482C403           [057] self       11  7   274  ; -830264577
29BA  E2820001           [058] call       11  2   2  
29BE  E4C2C405           [059] self       11  11  275  ; 1590141906
29C2  E2020001           [060] call       11  2   0  
29C6  A2820000           [061] call       10  0   2  
29CA  4C820204           [062] settable   9   8   10 
29CE  1A400080           [063] jmp        2            ; to [66]
29D2  53028005           [064] getupval   9   11     
29D6  4C024504           [065] settable   9   8   276  ; 0
29DA  5D820200           [066] getglobal  9   10       ; 1672515847
29DE  92020001           [067] move       10  2      
29E2  62020101           [068] call       9   2   4  
29E6  1A800680           [069] jmp        27           ; to [97]
29EA  9D430400           [070] getglobal  14  17       ; -174740002
29EE  E483C403           [071] self       15  7   274  ; -830264577
29F2  E2830001           [072] call       15  2   2  
29F6  E4C3C407           [073] self       15  15  275  ; 1590141906
29FA  E2030001           [074] call       15  2   0  
29FE  A2830000           [075] call       14  0   2  
2A02  E443C506           [076] self       15  13  277  ; -1081228973
2A06  E2830001           [077] call       15  2   2  
2A0A  13040006           [078] getupval   16  12     
fail op	35
2A0E  23008407           [079] close      0  
2A12  1AC00380           [080] jmp        16           ; to [97]
2A16  D3030001           [081] getupval   15  2      
2A1A  CA038007           [082] len        15  15     
fail op	35
2A1E  6380C507           [083] close      1  
2A22  1A000180           [084] jmp        5            ; to [90]
2A26  E4C3C503           [085] self       15  7   279  ; -2082918326
2A2A  52048006           [086] move       17  13     
2A2E  E2838001           [087] call       15  3   2  
fail op	21
2A32  15808307           [088] concat     0   15  14 
2A36  1A800180           [089] jmp        7            ; to [97]
2A3A  DD030600           [090] getglobal  15  24       ; table
2A3E  CE43C607           [091] gettable   15  15  281  ; -431682403
2A42  13048002           [092] getupval   16  5      
2A46  0E040208           [093] gettable   16  16  8  
2A4A  6484C606           [094] self       17  13  282  ; -1411785325
2A4E  62040001           [095] call       17  2   0  
2A52  E2430000           [096] call       15  0   1  
2A56  56820000           [097] tforloop   9       2    ; to [99] if exit
2A5A  1A80F87F           [098] jmp        -29          ; to [70]
2A5E  D6800000           [099] tforloop   3       2    ; to [101] if exit
2A62  1A40EE7F           [100] jmp        -70          ; to [31]
2A66  D3038006           [101] getupval   15  13     
2A6A  1DC40000           [102] getglobal  16  3        ; gRegion
2A6E  24044208           [103] self       16  16  264  ; 152279552
2A72  9DC40600           [104] getglobal  18  27       ; gNpcSpawnPointType
2A76  22048001           [105] call       16  3   0  
2A7A  E2430000           [106] call       15  0   1  
2A7E  D3030000           [107] getupval   15  0      
2A82  E403C707           [108] self       15  15  284  ; 1632191879
2A86  53040007           [109] getupval   17  14     
2A8A  93048007           [110] getupval   18  15     
2A8E  D7048000           [111] loadbool   19  1   0    ; true
2A92  E2438002           [112] call       15  5   1  
2A96  1E008000           [113] return     0   1      
                         * constants:
2A9A  1D                 sizek (29)
2A9B  01                 const type 3
2A9C  44DC9B32           const [0]: (849075268)
2AA0  04                 const type 4
2AA1  1E                 string size (30)
2AA2  4C6F7475732E496E+  "Lotus.In"
2AAA  746572666163652E+  "terface."
2AB2  4C6962732E54696D+  "Libs.Tim"
2ABA  65724D677200       "erMgr\0"
                         const [1]: "Lotus.Interface.Libs.TimerMgr"
2AC0  01                 const type 3
2AC1  C0FAA7C2           const [2]: (-1029178688)
2AC5  04                 const type 4
2AC6  08                 string size (8)
2AC7  67526567696F6E00   "gRegion\0"
                         const [3]: "gRegion"
2ACF  01                 const type 3
2AD0  90F9CED1           const [4]: (-774964848)
2AD4  01                 const type 3
2AD5  73290920           const [5]: (537471347)
2AD9  03                 const type 3
2ADA  00000000           const [6]: (0)
2ADE  04                 const type 4
2ADF  10                 string size (16)
2AE0  6750726F6D6F7465+  "gPromote"
2AE8  64546F486F737400   "dToHost\0"
                         const [7]: "gPromotedToHost"
2AF0  01                 const type 3
2AF1  009A1309           const [8]: (152279552)
2AF5  04                 const type 4
2AF6  14                 string size (20)
2AF7  674C6F7475734E70+  "gLotusNp"
2AFF  6341766174617254+  "cAvatarT"
2B07  79706500           "ype\0"
                         const [9]: "gLotusNpcAvatarType"
2B0B  01                 const type 3
2B0C  0791B063           const [10]: (1672515847)
2B10  01                 const type 3
2B11  3C2E251B           const [11]: (455421500)
2B15  01                 const type 3
2B16  00000000           const [12]: (0)
2B1A  00                 const type 0
                         const [13]: nil
2B1B  01                 const type 3
2B1C  D48E598B           const [14]: (-1957065004)
2B20  01                 const type 3
2B21  29D4002C           const [15]: (738251817)
2B25  04                 const type 4
2B26  28                 string size (40)
2B27  2F4C6F7475732F54+  "/Lotus/T"
2B2F  797065732F47616D+  "ypes/Gam"
2B37  652F576179706F69+  "e/Waypoi"
2B3F  6E74732F53706177+  "nts/Spaw"
2B47  6E536F7572636500   "nSource\0"
                         const [16]: "/Lotus/Types/Game/Waypoints/SpawnSource"
2B4F  01                 const type 3
2B50  DEAD95F5           const [17]: (-174740002)
2B54  01                 const type 3
2B55  FF2A83CE           const [18]: (-830264577)
2B59  01                 const type 3
2B5A  D2A3C75E           const [19]: (1590141906)
2B5E  03                 const type 3
2B5F  0000C842           const [20]: (0)
2B63  01                 const type 3
2B64  53C18DBF           const [21]: (-1081228973)
2B68  03                 const type 3
2B69  0000803F           const [22]: (0)
2B6D  01                 const type 3
2B6E  4A30D983           const [23]: (-2082918326)
2B72  04                 const type 4
2B73  06                 string size (6)
2B74  7461626C6500       "table\0"
                         const [24]: "table"
2B7A  01                 const type 3
2B7B  9D0C45E6           const [25]: (-431682403)
2B7F  01                 const type 3
2B80  93DDD9AB           const [26]: (-1411785325)
2B84  04                 const type 4
2B85  13                 string size (19)
2B86  674E706353706177+  "gNpcSpaw"
2B8E  6E506F696E745479+  "nPointTy"
2B96  706500             "pe\0"
                         const [27]: "gNpcSpawnPointType"
2B99  01                 const type 3
2B9A  87454961           const [28]: (1632191879)
                         * functions:
2B9E  00                 sizep (0)
                         * lines:
2B9F  71                 sizelineinfo (113)
                         [pc] (line)
2BA0  AF                 [001] (-81)
2BA1  01                 [002] (-81)
2BA2  00                 [003] (-81)
2BA3  00                 [004] (-80)
2BA4  AF                 [005] (-80)
2BA5  01                 [006] (-80)
2BA6  00                 [007] (-79)
2BA7  00                 [008] (-79)
2BA8  AF                 [009] (-79)
2BA9  01                 [010] (-79)
2BAA  00                 [011] (-79)
2BAB  00                 [012] (-79)
2BAC  B0                 [013] (-78)
2BAD  01                 [014] (-77)
2BAE  00                 [015] (-77)
2BAF  00                 [016] (-76)
2BB0  B0                 [017] (-76)
2BB1  01                 [018] (-74)
2BB2  00                 [019] (-73)
2BB3  00                 [020] (-73)
2BB4  B0                 [021] (-73)
2BB5  01                 [022] (-72)
2BB6  00                 [023] (-72)
2BB7  00                 [024] (-72)
2BB8  B1                 [025] (-72)
2BB9  01                 [026] (-72)
2BBA  00                 [027] (-69)
2BBB  00                 [028] (-69)
2BBC  B1                 [029] (-69)
2BBD  01                 [030] (-69)
2BBE  00                 [031] (-68)
2BBF  00                 [032] (-68)
2BC0  B1                 [033] (-67)
2BC1  01                 [034] (-67)
2BC2  00                 [035] (-67)
2BC3  00                 [036] (-66)
2BC4  B1                 [037] (-66)
2BC5  01                 [038] (-66)
2BC6  00                 [039] (-65)
2BC7  00                 [040] (-65)
2BC8  B1                 [041] (-65)
2BC9  01                 [042] (-64)
2BCA  00                 [043] (-64)
2BCB  00                 [044] (-63)
2BCC  B1                 [045] (-63)
2BCD  01                 [046] (-62)
2BCE  00                 [047] (-62)
2BCF  00                 [048] (-61)
2BD0  B2                 [049] (-61)
2BD1  01                 [050] (-61)
2BD2  00                 [051] (-61)
2BD3  00                 [052] (-61)
2BD4  B3                 [053] (-61)
2BD5  01                 [054] (-61)
2BD6  00                 [055] (-60)
2BD7  00                 [056] (-60)
2BD8  B3                 [057] (-60)
2BD9  01                 [058] (-60)
2BDA  00                 [059] (-60)
2BDB  00                 [060] (-60)
2BDC  B4                 [061] (-60)
2BDD  01                 [062] (-60)
2BDE  00                 [063] (-60)
2BDF  00                 [064] (-58)
2BE0  B4                 [065] (-58)
2BE1  01                 [066] (-55)
2BE2  00                 [067] (-55)
2BE3  00                 [068] (-55)
2BE4  B6                 [069] (-55)
2BE5  01                 [070] (-54)
2BE6  00                 [071] (-54)
2BE7  00                 [072] (-54)
2BE8  B7                 [073] (-54)
2BE9  01                 [074] (-54)
2BEA  00                 [075] (-54)
2BEB  00                 [076] (-53)
2BEC  B7                 [077] (-53)
2BED  01                 [078] (-53)
2BEE  00                 [079] (-53)
2BEF  00                 [080] (-53)
2BF0  B7                 [081] (-53)
2BF1  01                 [082] (-53)
2BF2  00                 [083] (-53)
2BF3  00                 [084] (-53)
2BF4  B8                 [085] (-53)
2BF5  01                 [086] (-53)
2BF6  00                 [087] (-53)
2BF7  00                 [088] (-53)
2BF8  B8                 [089] (-53)
2BF9  01                 [090] (-52)
2BFA  00                 [091] (-52)
2BFB  00                 [092] (-52)
2BFC  B8                 [093] (-52)
2BFD  01                 [094] (-52)
2BFE  00                 [095] (-52)
2BFF  00                 [096] (-52)
2C00  B8                 [097] (-55)
2C01  01                 [098] (-51)
2C02  00                 [099] (-69)
2C03  00                 [100] (-50)
2C04  B8                 [101] (-47)
2C05  01                 [102] (-47)
2C06  00                 [103] (-47)
2C07  00                 [104] (-47)
2C08  BB                 [105] (-47)
2C09  01                 [106] (-47)
2C0A  00                 [107] (-46)
2C0B  00                 [108] (-46)
2C0C  BB                 [109] (-46)
2C0D  01                 [110] (-46)
2C0E  00                 [111] (-46)
2C0F  00                 [112] (-46)
2C10  BB                 [113] (-45)
                         * locals:
2D64  00                 sizelocvars (0)
                         * upvalues:
2D65  00                 sizeupvalues (0)
                         ** end of function **

                         
2D66                     ** function [24] definition (level 2)
                         ** start of function **
2D66  00                 string size (0)
                         source name: (none)
2D68  03                 line defined (469)
2D69  DA                 last line defined (474)
2D6A  03                 nups (3)
2D6B  03                 numparams (1)
2D6C  01                 is_vararg (0)
2D6D  00                 maxstacksize (4)
                         * code:
2D6F  0D                 sizecode (13)
2D70  53000000           [01] getupval   1   0      
2D74  92000000           [02] move       2   0      
2D78  62800001           [03] call       1   2   2  
2D7C  58400000           [04] test       1       1    ; to [6] if false
2D80  1A800180           [05] jmp        7            ; to [13]
2D84  5D000000           [06] getglobal  1   0        ; table
2D88  4E40C000           [07] gettable   1   1   257  ; -431682403
2D8C  93008000           [08] getupval   2   1      
2D90  D2000000           [09] move       3   0      
2D94  62408001           [10] call       1   3   1  
2D98  57008000           [11] loadbool   1   1   0    ; true
fail op	8
2D9C  48000001           [12] setupval   1   2      
2DA0  1E008000           [13] return     0   1      
                         * constants:
2DA4  02                 sizek (2)
2DA5  04                 const type 4
2DA6  06                 string size (6)
2DA7  7461626C6500       "table\0"
                         const [0]: "table"
2DAD  01                 const type 3
2DAE  9D0C45E6           const [1]: (-431682403)
                         * functions:
2DB2  00                 sizep (0)
                         * lines:
2DB3  0D                 sizelineinfo (13)
                         [pc] (line)
2DB4  D6                 [01] (-42)
2DB5  01                 [02] (-42)
2DB6  00                 [03] (-42)
2DB7  00                 [04] (-42)
2DB8  D6                 [05] (-42)
2DB9  01                 [06] (-41)
2DBA  00                 [07] (-41)
2DBB  00                 [08] (-41)
2DBC  D6                 [09] (-41)
2DBD  01                 [10] (-41)
2DBE  00                 [11] (-40)
2DBF  00                 [12] (-40)
2DC0  D6                 [13] (-38)
                         * locals:
2DE8  00                 sizelocvars (0)
                         * upvalues:
2DE9  00                 sizeupvalues (0)
                         ** end of function **

                         
2DEA                     ** function [25] definition (level 2)
                         ** start of function **
2DEA  00                 string size (0)
                         source name: (none)
2DEC  03                 line defined (476)
2DED  E2                 last line defined (482)
2DEE  03                 nups (3)
2DEF  03                 numparams (1)
2DF0  01                 is_vararg (0)
2DF1  00                 maxstacksize (5)
                         * code:
2DF3  0F                 sizecode (15)
2DF4  53000000           [01] getupval   1   0      
2DF8  4E00C000           [02] gettable   1   1   256  ; 439703155
2DFC  93008000           [03] getupval   2   1      
2E00  D2000000           [04] move       3   0      
2E04  62808001           [05] call       1   3   2  
fail op	21
2E08  15408080           [06] concat     0   257 1  
2E0C  1A800180           [07] jmp        7            ; to [15]
2E10  9D800000           [08] getglobal  2   2        ; table
2E14  8EC04001           [09] gettable   2   2   259  ; -843973282
2E18  D3008000           [10] getupval   3   1      
2E1C  12018000           [11] move       4   1      
2E20  A2408001           [12] call       2   3   1  
2E24  97008000           [13] loadbool   2   1   0    ; true
fail op	8
2E28  88000001           [14] setupval   2   2      
2E2C  1E008000           [15] return     0   1      
                         * constants:
2E30  04                 sizek (4)
2E31  01                 const type 3
2E32  7356351A           const [0]: (439703155)
2E36  03                 const type 3
2E37  00000000           const [1]: (0)
2E3B  04                 const type 4
2E3C  06                 string size (6)
2E3D  7461626C6500       "table\0"
                         const [2]: "table"
2E43  01                 const type 3
2E44  5EFDB1CD           const [3]: (-843973282)
                         * functions:
2E48  00                 sizep (0)
                         * lines:
2E49  0F                 sizelineinfo (15)
                         [pc] (line)
2E4A  DD                 [01] (-35)
2E4B  01                 [02] (-35)
2E4C  00                 [03] (-35)
2E4D  00                 [04] (-35)
2E4E  DD                 [05] (-35)
2E4F  01                 [06] (-34)
2E50  00                 [07] (-34)
2E51  00                 [08] (-33)
2E52  DD                 [09] (-33)
2E53  01                 [10] (-33)
2E54  00                 [11] (-33)
2E55  00                 [12] (-33)
2E56  DD                 [13] (-32)
2E57  01                 [14] (-32)
2E58  00                 [15] (-30)
                         * locals:
2E86  00                 sizelocvars (0)
                         * upvalues:
2E87  00                 sizeupvalues (0)
                         ** end of function **

                         
2E88                     ** function [26] definition (level 2)
                         ** start of function **
2E88  00                 string size (0)
                         source name: (none)
2E8A  03                 line defined (484)
2E8B  EA                 last line defined (490)
2E8C  03                 nups (3)
2E8D  03                 numparams (1)
2E8E  01                 is_vararg (0)
2E8F  00                 maxstacksize (4)
                         * code:
2E91  0D                 sizecode (13)
2E92  5D000000           [01] getglobal  1   0        ; 1074689893
2E96  92000000           [02] move       2   0      
2E9A  62800001           [03] call       1   2   2  
2E9E  58400000           [04] test       1       1    ; to [6] if false
2EA2  1AC00080           [05] jmp        4            ; to [10]
2EA6  53000000           [06] getupval   1   0      
2EAA  6440C000           [07] self       1   1   257  ; -906150570
2EAE  D2000000           [08] move       3   0      
2EB2  62408001           [09] call       1   3   1  
2EB6  57008000           [10] loadbool   1   1   0    ; true
fail op	8
2EBA  48008000           [11] setupval   1   1      
fail op	8
2EBE  08000001           [12] setupval   0   2      
2EC2  1E008000           [13] return     0   1      
                         * constants:
2EC6  02                 sizek (2)
2EC7  01                 const type 3
2EC8  65770E40           const [0]: (1074689893)
2ECC  01                 const type 3
2ECD  563DFDC9           const [1]: (-906150570)
                         * functions:
2ED1  00                 sizep (0)
                         * lines:
2ED2  0D                 sizelineinfo (13)
                         [pc] (line)
2ED3  E5                 [01] (-27)
2ED4  01                 [02] (-27)
2ED5  00                 [03] (-27)
2ED6  00                 [04] (-27)
2ED7  E5                 [05] (-27)
2ED8  01                 [06] (-26)
2ED9  00                 [07] (-26)
2EDA  00                 [08] (-26)
2EDB  E5                 [09] (-26)
2EDC  01                 [10] (-24)
2EDD  00                 [11] (-24)
2EDE  00                 [12] (-23)
2EDF  E5                 [13] (-22)
                         * locals:
2F07  00                 sizelocvars (0)
                         * upvalues:
2F08  00                 sizeupvalues (0)
                         ** end of function **

                         
2F09                     ** function [27] definition (level 2)
                         ** start of function **
2F09  00                 string size (0)
                         source name: (none)
2F0B  03                 line defined (492)
2F0C  EF                 last line defined (495)
2F0D  03                 nups (2)
2F0E  02                 numparams (1)
2F0F  01                 is_vararg (0)
2F10  00                 maxstacksize (3)
                         * code:
2F12  07                 sizecode (7)
2F13  4B008000           [1] newtable   1   1   0    ; array=1, hash=0
2F17  92000000           [2] move       2   0      
2F1B  5B408000           [3] setlist    1   1   1    ; index 1 to 1
fail op	8
2F1F  48000000           [4] setupval   1   0      
2F23  57008000           [5] loadbool   1   1   0    ; true
fail op	8
2F27  48008000           [6] setupval   1   1      
2F2B  1E008000           [7] return     0   1      
                         * constants:
2F2F  00                 sizek (0)
                         * functions:
2F30  00                 sizep (0)
                         * lines:
2F31  07                 sizelineinfo (7)
                         [pc] (line)
2F32  ED                 [1] (-19)
2F33  01                 [2] (-19)
2F34  00                 [3] (-19)
2F35  00                 [4] (-19)
2F36  ED                 [5] (-18)
2F37  01                 [6] (-18)
2F38  00                 [7] (-17)
                         * locals:
2F4E  00                 sizelocvars (0)
                         * upvalues:
2F4F  00                 sizeupvalues (0)
                         ** end of function **

                         
2F50                     ** function [28] definition (level 2)
                         ** start of function **
2F50  00                 string size (0)
                         source name: (none)
2F52  03                 line defined (497)
2F53  87                 last line defined (519)
2F54  04                 nups (3)
2F55  03                 numparams (0)
2F56  00                 is_vararg (0)
2F57  00                 maxstacksize (15)
                         * code:
2F59  3C                 sizecode (60)
2F5A  17008000           [01] loadbool   0   1   0    ; true
2F5E  18000000           [02] test       0       0    ; to [4] if true
2F62  1AC00D80           [03] jmp        56           ; to [60]
2F66  17000000           [04] loadbool   0   0   0    ; false
2F6A  5D000000           [05] getglobal  1   0        ; 1672515847
2F6E  93000000           [06] getupval   2   0      
2F72  62000101           [07] call       1   2   4  
2F76  1A000B80           [08] jmp        45           ; to [54]
2F7A  A441C002           [09] self       6   5   257  ; 455421500
2F7E  A2810001           [10] call       6   2   2  
2F82  D3018000           [11] getupval   7   1      
2F86  CE818103           [12] gettable   7   7   6  
2F8A  CA018003           [13] len        7   7      
2F8E  19820000           [14] loadk      8   2        ; 0
2F92  59C20000           [15] loadk      9   3        ; 0
2F96  D0410780           [16] forprep    7   30       ; to [47]
2F9A  D3028000           [17] getupval   11  1      
2F9E  CE828105           [18] gettable   11  11  6  
2FA2  CE828205           [19] gettable   11  11  10 
2FA6  1D030100           [20] getglobal  12  4        ; 1074689893
2FAA  52038005           [21] move       13  11     
2FAE  22830001           [22] call       12  2   2  
2FB2  18030000           [23] test       12      0    ; to [25] if true
2FB6  1A800180           [24] jmp        7            ; to [32]
2FBA  1D430100           [25] getglobal  12  5        ; table
2FBE  0E834106           [26] gettable   12  12  262  ; -843973282
2FC2  53038000           [27] getupval   13  1      
2FC6  4E838106           [28] gettable   13  13  6  
2FCA  92030005           [29] move       14  10     
2FCE  22438001           [30] call       12  3   1  
2FD2  1A800380           [31] jmp        15           ; to [47]
2FD6  13030001           [32] getupval   12  2      
2FDA  52038005           [33] move       13  11     
2FDE  22830001           [34] call       12  2   2  
2FE2  18030000           [35] test       12      0    ; to [37] if true
2FE6  1A400280           [36] jmp        10           ; to [47]
2FEA  24C3C105           [37] self       12  11  263  ; -2135866365
2FEE  22830001           [38] call       12  2   2  
2FF2  24034206           [39] self       12  12  264  ; -725453761
2FF6  22430001           [40] call       12  2   1  
2FFA  1D430100           [41] getglobal  12  5        ; table
2FFE  0E834106           [42] gettable   12  12  262  ; -843973282
3002  53038000           [43] getupval   13  1      
3006  4E838106           [44] gettable   13  13  6  
300A  92030005           [45] move       14  10     
300E  22438001           [46] call       12  3   1  
3012  D401F87F           [47] forloop    7   -31      ; to [17] if loop
3016  13038000           [48] getupval   12  1      
301A  0E830106           [49] gettable   12  12  6  
301E  0A030006           [50] len        12  12     
fail op	21
3022  15008384           [51] concat     0   265 12 
3026  1A000080           [52] jmp        1            ; to [54]
302A  17008000           [53] loadbool   0   1   0    ; true
302E  56800000           [54] tforloop   1       2    ; to [56] if exit
3032  1A00F47F           [55] jmp        -47          ; to [9]
3036  1D830200           [56] getglobal  12  10       ; 538022378
303A  59430200           [57] loadk      13  9        ; 0
303E  22430001           [58] call       12  2   1  
3042  1A40F17F           [59] jmp        -58          ; to [2]
3046  1E008000           [60] return     0   1      
                         * constants:
304A  0B                 sizek (11)
304B  01                 const type 3
304C  0791B063           const [0]: (1672515847)
3050  01                 const type 3
3051  3C2E251B           const [1]: (455421500)
3055  03                 const type 3
3056  0000803F           const [2]: (0)
305A  03                 const type 3
305B  000080BF           const [3]: (0)
305F  01                 const type 3
3060  65770E40           const [4]: (1074689893)
3064  04                 const type 4
3065  06                 string size (6)
3066  7461626C6500       "table\0"
                         const [5]: "table"
306C  01                 const type 3
306D  5EFDB1CD           const [6]: (-843973282)
3071  01                 const type 3
3072  0344B180           const [7]: (-2135866365)
3076  01                 const type 3
3077  3F74C2D4           const [8]: (-725453761)
307B  03                 const type 3
307C  00000000           const [9]: (0)
3080  01                 const type 3
3081  EA911120           const [10]: (538022378)
                         * functions:
3085  00                 sizep (0)
                         * lines:
3086  3C                 sizelineinfo (60)
                         [pc] (line)
3087  F3                 [01] (-13)
3088  01                 [02] (-12)
3089  00                 [03] (-12)
308A  00                 [04] (-11)
308B  F4                 [05] (-10)
308C  01                 [06] (-10)
308D  00                 [07] (-10)
308E  00                 [08] (-10)
308F  F4                 [09] (-9)
3090  01                 [10] (-9)
3091  00                 [11] (-8)
3092  00                 [12] (-8)
3093  F5                 [13] (-8)
3094  01                 [14] (-8)
3095  00                 [15] (-8)
3096  00                 [16] (-8)
3097  F6                 [17] (-7)
3098  01                 [18] (-7)
3099  00                 [19] (-7)
309A  00                 [20] (-6)
309B  F6                 [21] (-6)
309C  01                 [22] (-6)
309D  00                 [23] (-6)
309E  00                 [24] (-6)
309F  F6                 [25] (-5)
30A0  01                 [26] (-5)
30A1  00                 [27] (-5)
30A2  00                 [28] (-5)
30A3  F6                 [29] (-5)
30A4  01                 [30] (-5)
30A5  00                 [31] (-5)
30A6  00                 [32] (-4)
30A7  F7                 [33] (-4)
30A8  01                 [34] (-4)
30A9  00                 [35] (-4)
30AA  00                 [36] (-4)
30AB  F7                 [37] (-3)
30AC  01                 [38] (-3)
30AD  00                 [39] (-3)
30AE  00                 [40] (-3)
30AF  F8                 [41] (-2)
30B0  01                 [42] (-2)
30B1  00                 [43] (-2)
30B2  00                 [44] (-2)
30B3  F8                 [45] (-2)
30B4  01                 [46] (-2)
30B5  00                 [47] (-8)
30B6  00                 [48] (1)
30B7  F8                 [49] (1)
30B8  01                 [50] (1)
30B9  00                 [51] (1)
30BA  00                 [52] (1)
30BB  F8                 [53] (2)
30BC  01                 [54] (-10)
30BD  00                 [55] (3)
30BE  00                 [56] (5)
30BF  F8                 [57] (5)
30C0  01                 [58] (5)
30C1  00                 [59] (5)
30C2  00                 [60] (7)
                         * locals:
3177  00                 sizelocvars (0)
                         * upvalues:
3178  00                 sizeupvalues (0)
                         ** end of function **

                         
3179                     ** function [29] definition (level 2)
                         ** start of function **
3179  00                 string size (0)
                         source name: (none)
317B  04                 line defined (521)
317C  8E                 last line defined (526)
317D  04                 nups (2)
317E  02                 numparams (0)
317F  00                 is_vararg (0)
3180  00                 maxstacksize (7)
                         * code:
3182  0D                 sizecode (13)
3183  1D000000           [01] getglobal  0   0        ; 1672515847
3187  53000000           [02] getupval   1   0      
318B  22000101           [03] call       0   2   4  
318F  1A800080           [04] jmp        3            ; to [8]
3193  53018000           [05] getupval   5   1      
3197  92010002           [06] move       6   4      
319B  62410001           [07] call       5   2   1  
319F  16800000           [08] tforloop   0       2    ; to [10] if exit
31A3  1A80FE7F           [09] jmp        -5           ; to [5]
31A7  5D410000           [10] getglobal  5   1        ; 538022378
31AB  99810000           [11] loadk      6   2        ; 0
31AF  62410001           [12] call       5   2   1  
31B3  1E008000           [13] return     0   1      
                         * constants:
31B7  03                 sizek (3)
31B8  01                 const type 3
31B9  0791B063           const [0]: (1672515847)
31BD  01                 const type 3
31BE  EA911120           const [1]: (538022378)
31C2  03                 const type 3
31C3  00000000           const [2]: (0)
                         * functions:
31C7  00                 sizep (0)
                         * lines:
31C8  0D                 sizelineinfo (13)
                         [pc] (line)
31C9  0A                 [01] (10)
31CA  02                 [02] (10)
31CB  00                 [03] (10)
31CC  00                 [04] (10)
31CD  0A                 [05] (11)
31CE  02                 [06] (11)
31CF  00                 [07] (11)
31D0  00                 [08] (10)
31D1  0A                 [09] (11)
31D2  02                 [10] (13)
31D3  00                 [11] (13)
31D4  00                 [12] (13)
31D5  0A                 [13] (14)
                         * locals:
31FD  00                 sizelocvars (0)
                         * upvalues:
31FE  00                 sizeupvalues (0)
                         ** end of function **

                         
31FF                     ** function [30] definition (level 2)
                         ** start of function **
31FF  00                 string size (0)
                         source name: (none)
3201  04                 line defined (528)
3202  92                 last line defined (530)
3203  04                 nups (1)
3204  01                 numparams (1)
3205  01                 is_vararg (0)
3206  00                 maxstacksize (3)
                         * code:
3208  04                 sizecode (4)
3209  53000000           [1] getupval   1   0      
320D  92000000           [2] move       2   0      
3211  62400001           [3] call       1   2   1  
3215  1E008000           [4] return     0   1      
                         * constants:
3219  00                 sizek (0)
                         * functions:
321A  00                 sizep (0)
                         * lines:
321B  04                 sizelineinfo (4)
                         [pc] (line)
321C  11                 [1] (17)
321D  02                 [2] (17)
321E  00                 [3] (17)
321F  00                 [4] (18)
                         * locals:
322C  00                 sizelocvars (0)
                         * upvalues:
322D  00                 sizeupvalues (0)
                         ** end of function **

                         
322E                     ** function [31] definition (level 2)
                         ** start of function **
322E  00                 string size (0)
                         source name: (none)
3230  04                 line defined (532)
3231  99                 last line defined (537)
3232  04                 nups (1)
3233  01                 numparams (2)
3234  02                 is_vararg (0)
3235  00                 maxstacksize (6)
                         * code:
3237  09                 sizecode (9)
3238  8B000000           [1] newtable   2   0   0    ; array=0, hash=0
323C  8C000080           [2] settable   2   256 0    ; "agentType"
3240  8C408080           [3] settable   2   257 1    ; "tag"
3244  DD800000           [4] getglobal  3   2        ; table
3248  CEC0C001           [5] gettable   3   3   259  ; -431682403
324C  13010000           [6] getupval   4   0      
3250  52010001           [7] move       5   2      
3254  E2408001           [8] call       3   3   1  
3258  1E008000           [9] return     0   1      
                         * constants:
325C  04                 sizek (4)
325D  04                 const type 4
325E  0A                 string size (10)
325F  6167656E74547970+  "agentTyp"
3267  6500               "e\0"
                         const [0]: "agentType"
3269  04                 const type 4
326A  04                 string size (4)
326B  74616700           "tag\0"
                         const [1]: "tag"
326F  04                 const type 4
3270  06                 string size (6)
3271  7461626C6500       "table\0"
                         const [2]: "table"
3277  01                 const type 3
3278  9D0C45E6           const [3]: (-431682403)
                         * functions:
327C  00                 sizep (0)
                         * lines:
327D  09                 sizelineinfo (9)
                         [pc] (line)
327E  15                 [1] (21)
327F  02                 [2] (22)
3280  00                 [3] (23)
3281  00                 [4] (24)
3282  16                 [5] (24)
3283  02                 [6] (24)
3284  00                 [7] (24)
3285  00                 [8] (24)
3286  17                 [9] (25)
                         * locals:
32A2  00                 sizelocvars (0)
                         * upvalues:
32A3  00                 sizeupvalues (0)
                         ** end of function **

                         
32A4                     ** function [32] definition (level 2)
                         ** start of function **
32A4  00                 string size (0)
                         source name: (none)
32A6  04                 line defined (539)
32A7  9D                 last line defined (541)
32A8  04                 nups (1)
32A9  01                 numparams (1)
32AA  01                 is_vararg (0)
32AB  00                 maxstacksize (2)
                         * code:
32AD  02                 sizecode (2)
fail op	8
32AE  08000000           [1] setupval   0   0      
32B2  1E008000           [2] return     0   1      
                         * constants:
32B6  00                 sizek (0)
                         * functions:
32B7  00                 sizep (0)
                         * lines:
32B8  02                 sizelineinfo (2)
                         [pc] (line)
32B9  1C                 [1] (28)
32BA  02                 [2] (29)
                         * locals:
32C1  00                 sizelocvars (0)
                         * upvalues:
32C2  00                 sizeupvalues (0)
                         ** end of function **

                         
32C3                     ** function [33] definition (level 2)
                         ** start of function **
32C3  00                 string size (0)
                         source name: (none)
32C5  04                 line defined (543)
32C6  A1                 last line defined (545)
32C7  04                 nups (1)
32C8  01                 numparams (1)
32C9  01                 is_vararg (0)
32CA  00                 maxstacksize (3)
                         * code:
32CC  04                 sizecode (4)
32CD  53000000           [1] getupval   1   0      
32D1  92000000           [2] move       2   0      
32D5  62400001           [3] call       1   2   1  
32D9  1E008000           [4] return     0   1      
                         * constants:
32DD  00                 sizek (0)
                         * functions:
32DE  00                 sizep (0)
                         * lines:
32DF  04                 sizelineinfo (4)
                         [pc] (line)
32E0  20                 [1] (32)
32E1  02                 [2] (32)
32E2  00                 [3] (32)
32E3  00                 [4] (33)
                         * locals:
32F0  00                 sizelocvars (0)
                         * upvalues:
32F1  00                 sizeupvalues (0)
                         ** end of function **

                         
32F2                     ** function [34] definition (level 2)
                         ** start of function **
32F2  00                 string size (0)
                         source name: (none)
32F4  04                 line defined (547)
32F5  AD                 last line defined (557)
32F6  04                 nups (3)
32F7  03                 numparams (1)
32F8  01                 is_vararg (0)
32F9  00                 maxstacksize (15)
                         * code:
32FB  1E                 sizecode (30)
32FC  57008000           [01] loadbool   1   1   0    ; true
fail op	8
3300  48000000           [02] setupval   1   0      
3304  5D000000           [03] getglobal  1   0        ; 1074689893
3308  92000000           [04] move       2   0      
330C  62800001           [05] call       1   2   2  
3310  58400000           [06] test       1       1    ; to [8] if false
3314  1A400580           [07] jmp        22           ; to [30]
3318  18000000           [08] test       0       0    ; to [10] if true
331C  1AC00480           [09] jmp        20           ; to [30]
3320  5D400000           [10] getglobal  1   1        ; 1672515847
3324  93008000           [11] getupval   2   1      
3328  62000101           [12] call       1   2   4  
332C  1A400380           [13] jmp        14           ; to [28]
3330  A481C002           [14] self       6   5   258  ; 455421500
3334  A2810001           [15] call       6   2   2  
3338  DD410000           [16] getglobal  7   1        ; 1672515847
333C  13020001           [17] getupval   8   2      
3340  0E820104           [18] gettable   8   8   6  
3344  E2010101           [19] call       7   2   4  
3348  1A000180           [20] jmp        5            ; to [26]
334C  1DC30000           [21] getglobal  12  3        ; -1799570112
3350  6403C105           [22] self       13  11  260  ; -2135866365
3354  62830001           [23] call       13  2   2  
3358  99430100           [24] loadk      14  5        ; "OnKilled"
335C  22438001           [25] call       12  3   1  
3360  D6810000           [26] tforloop   7       2    ; to [28] if exit
3364  1A00FE7F           [27] jmp        -7           ; to [21]
3368  56800000           [28] tforloop   1       2    ; to [30] if exit
336C  1AC0FB7F           [29] jmp        -16          ; to [14]
3370  1E008000           [30] return     0   1      
                         * constants:
3374  06                 sizek (6)
3375  01                 const type 3
3376  65770E40           const [0]: (1074689893)
337A  01                 const type 3
337B  0791B063           const [1]: (1672515847)
337F  01                 const type 3
3380  3C2E251B           const [2]: (455421500)
3384  01                 const type 3
3385  40BDBC94           const [3]: (-1799570112)
3389  01                 const type 3
338A  0344B180           const [4]: (-2135866365)
338E  04                 const type 4
338F  09                 string size (9)
3390  4F6E4B696C6C6564+  "OnKilled"
3398  00                 "\0"
                         const [5]: "OnKilled"
                         * functions:
3399  00                 sizep (0)
                         * lines:
339A  1E                 sizelineinfo (30)
                         [pc] (line)
339B  24                 [01] (36)
339C  02                 [02] (36)
339D  00                 [03] (37)
339E  00                 [04] (37)
339F  24                 [05] (37)
33A0  02                 [06] (37)
33A1  00                 [07] (37)
33A2  00                 [08] (37)
33A3  25                 [09] (37)
33A4  02                 [10] (38)
33A5  00                 [11] (38)
33A6  00                 [12] (38)
33A7  25                 [13] (38)
33A8  02                 [14] (39)
33A9  00                 [15] (39)
33AA  00                 [16] (40)
33AB  25                 [17] (40)
33AC  02                 [18] (40)
33AD  00                 [19] (40)
33AE  00                 [20] (40)
33AF  25                 [21] (41)
33B0  02                 [22] (41)
33B1  00                 [23] (41)
33B2  00                 [24] (41)
33B3  25                 [25] (41)
33B4  02                 [26] (40)
33B5  00                 [27] (41)
33B6  00                 [28] (38)
33B7  25                 [29] (42)
33B8  02                 [30] (45)
                         * locals:
3413  00                 sizelocvars (0)
                         * upvalues:
3414  00                 sizeupvalues (0)
                         ** end of function **

                         
3415                     ** function [35] definition (level 2)
                         ** start of function **
3415  00                 string size (0)
                         source name: (none)
3417  04                 line defined (559)
3418  B1                 last line defined (561)
3419  04                 nups (1)
341A  01                 numparams (1)
341B  01                 is_vararg (0)
341C  00                 maxstacksize (2)
                         * code:
341E  02                 sizecode (2)
fail op	8
341F  08000000           [1] setupval   0   0      
3423  1E008000           [2] return     0   1      
                         * constants:
3427  00                 sizek (0)
                         * functions:
3428  00                 sizep (0)
                         * lines:
3429  02                 sizelineinfo (2)
                         [pc] (line)
342A  30                 [1] (48)
342B  02                 [2] (49)
                         * locals:
3432  00                 sizelocvars (0)
                         * upvalues:
3433  00                 sizeupvalues (0)
                         ** end of function **

                         
3434                     ** function [36] definition (level 2)
                         ** start of function **
3434  00                 string size (0)
                         source name: (none)
3436  04                 line defined (563)
3437  BD                 last line defined (573)
3438  04                 nups (2)
3439  02                 numparams (1)
343A  01                 is_vararg (0)
343B  00                 maxstacksize (10)
                         * code:
343D  16                 sizecode (22)
343E  59000000           [01] loadk      1   0        ; 0
3442  9D400000           [02] getglobal  2   1        ; 1672515847
3446  D3000000           [03] getupval   3   0      
344A  A2000101           [04] call       2   2   4  
344E  1A000380           [05] jmp        13           ; to [19]
fail op	35
3452  63000003           [06] close      1  
3456  1A000180           [07] jmp        5            ; to [13]
345A  DD810000           [08] getglobal  7   2        ; 1074689893
345E  12020000           [09] move       8   0      
3462  E2810001           [10] call       7   2   2  
3466  D8010000           [11] test       7       0    ; to [13] if true
346A  1A400180           [12] jmp        6            ; to [19]
346E  D3018000           [13] getupval   7   1      
3472  24C24003           [14] self       8   6   259  ; 455421500
3476  22820001           [15] call       8   2   2  
347A  CE018203           [16] gettable   7   7   8  
347E  CA018003           [17] len        7   7      
3482  43C08100           [18] add        1   1   7  
3486  96800000           [19] tforloop   2       2    ; to [21] if exit
348A  1A00FC7F           [20] jmp        -15          ; to [6]
348E  5E000001           [21] return     1   2      
3492  1E008000           [22] return     0   1      
                         * constants:
3496  04                 sizek (4)
3497  03                 const type 3
3498  00000000           const [0]: (0)
349C  01                 const type 3
349D  0791B063           const [1]: (1672515847)
34A1  01                 const type 3
34A2  65770E40           const [2]: (1074689893)
34A6  01                 const type 3
34A7  3C2E251B           const [3]: (455421500)
                         * functions:
34AB  00                 sizep (0)
                         * lines:
34AC  16                 sizelineinfo (22)
                         [pc] (line)
34AD  34                 [01] (52)
34AE  02                 [02] (54)
34AF  00                 [03] (54)
34B0  00                 [04] (54)
34B1  36                 [05] (54)
34B2  02                 [06] (55)
34B3  00                 [07] (55)
34B4  00                 [08] (55)
34B5  36                 [09] (55)
34B6  02                 [10] (55)
34B7  00                 [11] (55)
34B8  00                 [12] (55)
34B9  36                 [13] (56)
34BA  02                 [14] (56)
34BB  00                 [15] (56)
34BC  00                 [16] (56)
34BD  36                 [17] (56)
34BE  02                 [18] (56)
34BF  00                 [19] (54)
34C0  00                 [20] (57)
34C1  37                 [21] (60)
34C2  02                 [22] (61)
                         * locals:
3505  00                 sizelocvars (0)
                         * upvalues:
3506  00                 sizeupvalues (0)
                         ** end of function **

                         
3507                     ** function [37] definition (level 2)
                         ** start of function **
3507  00                 string size (0)
                         source name: (none)
3509  04                 line defined (575)
350A  CB                 last line defined (587)
350B  04                 nups (2)
350C  02                 numparams (1)
350D  01                 is_vararg (0)
350E  00                 maxstacksize (15)
                         * code:
3510  1E                 sizecode (30)
3511  4B000000           [01] newtable   1   0   0    ; array=0, hash=0
3515  9D000000           [02] getglobal  2   0        ; 1672515847
3519  D3000000           [03] getupval   3   0      
351D  A2000101           [04] call       2   2   4  
3521  1A000580           [05] jmp        21           ; to [27]
fail op	35
3525  63000003           [06] close      1  
3529  1A000180           [07] jmp        5            ; to [13]
352D  DD410000           [08] getglobal  7   1        ; 1074689893
3531  12020000           [09] move       8   0      
3535  E2810001           [10] call       7   2   2  
3539  D8010000           [11] test       7       0    ; to [13] if true
353D  1A400380           [12] jmp        14           ; to [27]
3541  DD010000           [13] getglobal  7   0        ; 1672515847
3545  13028000           [14] getupval   8   1      
3549  64824003           [15] self       9   6   258  ; 455421500
354D  62820001           [16] call       9   2   2  
3551  0E420204           [17] gettable   8   8   9  
3555  E2010101           [18] call       7   2   4  
3559  1A000180           [19] jmp        5            ; to [25]
355D  1DC30000           [20] getglobal  12  3        ; table
3561  0E034106           [21] gettable   12  12  260  ; -431682403
3565  52038000           [22] move       13  1      
3569  92038005           [23] move       14  11     
356D  22438001           [24] call       12  3   1  
3571  D6810000           [25] tforloop   7       2    ; to [27] if exit
3575  1A00FE7F           [26] jmp        -7           ; to [20]
3579  96800000           [27] tforloop   2       2    ; to [29] if exit
357D  1A00FA7F           [28] jmp        -23          ; to [6]
3581  5E000001           [29] return     1   2      
3585  1E008000           [30] return     0   1      
                         * constants:
3589  05                 sizek (5)
358A  01                 const type 3
358B  0791B063           const [0]: (1672515847)
358F  01                 const type 3
3590  65770E40           const [1]: (1074689893)
3594  01                 const type 3
3595  3C2E251B           const [2]: (455421500)
3599  04                 const type 4
359A  06                 string size (6)
359B  7461626C6500       "table\0"
                         const [3]: "table"
35A1  01                 const type 3
35A2  9D0C45E6           const [4]: (-431682403)
                         * functions:
35A6  00                 sizep (0)
                         * lines:
35A7  1E                 sizelineinfo (30)
                         [pc] (line)
35A8  40                 [01] (64)
35A9  02                 [02] (66)
35AA  00                 [03] (66)
35AB  00                 [04] (66)
35AC  42                 [05] (66)
35AD  02                 [06] (67)
35AE  00                 [07] (67)
35AF  00                 [08] (67)
35B0  42                 [09] (67)
35B1  02                 [10] (67)
35B2  00                 [11] (67)
35B3  00                 [12] (67)
35B4  42                 [13] (68)
35B5  02                 [14] (68)
35B6  00                 [15] (68)
35B7  00                 [16] (68)
35B8  42                 [17] (68)
35B9  02                 [18] (68)
35BA  00                 [19] (68)
35BB  00                 [20] (69)
35BC  43                 [21] (69)
35BD  02                 [22] (69)
35BE  00                 [23] (69)
35BF  00                 [24] (69)
35C0  43                 [25] (68)
35C1  02                 [26] (69)
35C2  00                 [27] (66)
35C3  00                 [28] (71)
35C4  43                 [29] (74)
35C5  02                 [30] (75)
                         * locals:
3620  00                 sizelocvars (0)
                         * upvalues:
3621  00                 sizeupvalues (0)
                         ** end of function **

                         * lines:
3623  02                 sizelineinfo (271)
                         [pc] (line)
3624  01                 [001] (1)
3625  00                 [002] (1)
3626  00                 [003] (1)
3627  00                 [004] (1)
3628  01                 [005] (1)
3629  00                 [006] (3)
362A  00                 [007] (4)
362B  00                 [008] (4)
362C  01                 [009] (4)
362D  00                 [010] (5)
362E  00                 [011] (5)
362F  00                 [012] (5)
3630  01                 [013] (6)
3631  00                 [014] (7)
3632  00                 [015] (7)
3633  00                 [016] (7)
3634  01                 [017] (8)
3635  00                 [018] (8)
3636  00                 [019] (8)
3637  00                 [020] (9)
3638  03                 [021] (9)
3639  00                 [022] (11)
363A  00                 [023] (12)
363B  00                 [024] (13)
363C  04                 [025] (14)
363D  00                 [026] (15)
363E  00                 [027] (16)
363F  00                 [028] (16)
3640  04                 [029] (16)
3641  00                 [030] (18)
3642  00                 [031] (19)
3643  00                 [032] (21)
3644  04                 [033] (22)
3645  00                 [034] (23)
3646  00                 [035] (24)
3647  00                 [036] (25)
3648  05                 [037] (26)
3649  00                 [038] (27)
364A  00                 [039] (28)
364B  00                 [040] (29)
364C  05                 [041] (30)
364D  00                 [042] (31)
364E  00                 [043] (33)
364F  00                 [044] (34)
3650  05                 [045] (35)
3651  00                 [046] (36)
3652  00                 [047] (37)
3653  00                 [048] (39)
3654  06                 [049] (43)
3655  00                 [050] (43)
3656  00                 [051] (43)
3657  00                 [052] (43)
3658  07                 [053] (44)
3659  00                 [054] (44)
365A  00                 [055] (44)
365B  00                 [056] (44)
365C  07                 [057] (45)
365D  00                 [058] (45)
365E  00                 [059] (45)
365F  00                 [060] (45)
3660  07                 [061] (46)
3661  00                 [062] (46)
3662  00                 [063] (46)
3663  00                 [064] (46)
3664  08                 [065] (47)
3665  00                 [066] (47)
3666  00                 [067] (47)
3667  00                 [068] (47)
3668  08                 [069] (48)
3669  00                 [070] (48)
366A  00                 [071] (48)
366B  00                 [072] (48)
366C  08                 [073] (52)
366D  00                 [074] (52)
366E  00                 [075] (56)
366F  00                 [076] (56)
3670  09                 [077] (56)
3671  00                 [078] (60)
3672  00                 [079] (60)
3673  00                 [080] (83)
3674  09                 [081] (83)
3675  00                 [082] (83)
3676  00                 [083] (83)
3677  00                 [084] (83)
3678  0B                 [085] (83)
3679  00                 [086] (83)
367A  00                 [087] (83)
367B  00                 [088] (83)
367C  0C                 [089] (114)
367D  00                 [090] (114)
367E  00                 [091] (114)
367F  00                 [092] (114)
3680  0D                 [093] (125)
3681  00                 [094] (125)
3682  00                 [095] (-92)
3683  00                 [096] (-92)
3684  0E                 [097] (-92)
3685  00                 [098] (-92)
3686  00                 [099] (-92)
3687  00                 [100] (-92)
3688  0F                 [101] (-92)
3689  00                 [102] (-92)
368A  00                 [103] (-92)
368B  00                 [104] (-92)
368C  10                 [105] (-58)
368D  00                 [106] (-58)
368E  00                 [107] (-58)
368F  00                 [108] (-58)
3690  10                 [109] (-58)
3691  00                 [110] (-58)
3692  00                 [111] (-58)
3693  00                 [112] (-58)
3694  10                 [113] (-58)
3695  00                 [114] (-36)
3696  00                 [115] (-36)
3697  00                 [116] (-36)
3698  12                 [117] (-36)
3699  00                 [118] (-36)
369A  00                 [119] (-36)
369B  00                 [120] (-36)
369C  13                 [121] (-8)
369D  00                 [122] (-8)
369E  00                 [123] (-8)
369F  00                 [124] (-8)
36A0  15                 [125] (-8)
36A1  00                 [126] (-8)
36A2  00                 [127] (-8)
36A3  00                 [128] (4)
36A4  16                 [129] (4)
36A5  00                 [130] (4)
36A6  00                 [131] (4)
36A7  00                 [132] (22)
36A8  17                 [133] (22)
36A9  00                 [134] (53)
36AA  00                 [135] (53)
36AB  00                 [136] (53)
36AC  18                 [137] (53)
36AD  00                 [138] (53)
36AE  00                 [139] (53)
36AF  00                 [140] (53)
36B0  19                 [141] (53)
36B1  00                 [142] (53)
36B2  00                 [143] (53)
36B3  00                 [144] (76)
36B4  1A                 [145] (76)
36B5  00                 [146] (76)
36B6  00                 [147] (76)
36B7  00                 [148] (76)
36B8  1B                 [149] (76)
36B9  00                 [150] (89)
36BA  00                 [151] (89)
36BB  00                 [152] (93)
36BC  1C                 [153] (93)
36BD  00                 [154] (93)
36BE  00                 [155] (91)
36BF  00                 [156] (-84)
36C0  1D                 [157] (-84)
36C1  00                 [158] (-84)
36C2  00                 [159] (-84)
36C3  00                 [160] (-84)
36C4  1E                 [161] (-84)
36C5  00                 [162] (-84)
36C6  00                 [163] (-84)
36C7  00                 [164] (-84)
36C8  1F                 [165] (-84)
36C9  00                 [166] (-84)
36CA  00                 [167] (-84)
36CB  00                 [168] (-84)
36CC  21                 [169] (-84)
36CD  00                 [170] (-84)
36CE  00                 [171] (-84)
36CF  00                 [172] (-84)
36D0  22                 [173] (-84)
36D1  00                 [174] (-84)
36D2  00                 [175] (-84)
36D3  00                 [176] (-84)
36D4  23                 [177] (-84)
36D5  00                 [178] (-84)
36D6  00                 [179] (-84)
36D7  00                 [180] (-84)
36D8  24                 [181] (95)
36D9  00                 [182] (-45)
36DA  00                 [183] (-45)
36DB  00                 [184] (-45)
36DC  25                 [185] (-45)
36DD  00                 [186] (-45)
36DE  00                 [187] (-45)
36DF  00                 [188] (-45)
36E0  27                 [189] (-45)
36E1  00                 [190] (-45)
36E2  00                 [191] (-45)
36E3  00                 [192] (-45)
36E4  2B                 [193] (-45)
36E5  00                 [194] (-45)
36E6  00                 [195] (-45)
36E7  00                 [196] (-45)
36E8  2B                 [197] (-45)
36E9  00                 [198] (-45)
36EA  00                 [199] (-45)
36EB  00                 [200] (-82)
36EC  2B                 [201] (-38)
36ED  00                 [202] (-38)
36EE  00                 [203] (-38)
36EF  00                 [204] (-38)
36F0  2B                 [205] (-38)
36F1  00                 [206] (-43)
36F2  00                 [207] (-30)
36F3  00                 [208] (-30)
36F4  2C                 [209] (-30)
36F5  00                 [210] (-30)
36F6  00                 [211] (-30)
36F7  00                 [212] (-36)
36F8  2C                 [213] (-22)
36F9  00                 [214] (-22)
36FA  00                 [215] (-22)
36FB  00                 [216] (-22)
36FC  2C                 [217] (-22)
36FD  00                 [218] (-28)
36FE  00                 [219] (-17)
36FF  00                 [220] (-17)
3700  2C                 [221] (-17)
3701  00                 [222] (-17)
3702  00                 [223] (-20)
3703  00                 [224] (7)
3704  2D                 [225] (7)
3705  00                 [226] (7)
3706  00                 [227] (7)
3707  00                 [228] (7)
3708  2D                 [229] (-15)
3709  00                 [230] (14)
370A  00                 [231] (14)
370B  00                 [232] (14)
370C  2D                 [233] (14)
370D  00                 [234] (9)
370E  00                 [235] (18)
370F  00                 [236] (18)
3710  2D                 [237] (18)
3711  00                 [238] (16)
3712  00                 [239] (25)
3713  00                 [240] (25)
3714  2E                 [241] (25)
3715  00                 [242] (20)
3716  00                 [243] (29)
3717  00                 [244] (29)
3718  2E                 [245] (29)
3719  00                 [246] (27)
371A  00                 [247] (33)
371B  00                 [248] (33)
371C  2E                 [249] (33)
371D  00                 [250] (31)
371E  00                 [251] (45)
371F  00                 [252] (45)
3720  2E                 [253] (45)
3721  00                 [254] (45)
3722  00                 [255] (45)
3723  00                 [256] (35)
3724  2F                 [257] (49)
3725  00                 [258] (49)
3726  00                 [259] (49)
3727  00                 [260] (47)
3728  2F                 [261] (61)
3729  00                 [262] (61)
372A  00                 [263] (61)
372B  00                 [264] (61)
372C  2F                 [265] (51)
372D  00                 [266] (75)
372E  00                 [267] (75)
372F  00                 [268] (75)
3730  2F                 [269] (75)
3731  00                 [270] (63)
3732  00                 [271] (75)
                         * locals:
3A60  00                 sizelocvars (0)
                         * upvalues:
3A61  00                 sizeupvalues (0)
                         ** end of function **

3A62                     ** end of chunk **
