1	C:\wlua_dump\path\Lotus\Scripts\LibsLootCrateLib.lua
Pos   Hex Data           Description or Code
------------------------------------------------------------------------
0000                     ** source chunk: C:\wlua_dump\path\Lotus\Scripts\LibsLootCrateLib.lua
                         ** global header start **
0000  7F                 header signature: ""
0001  00                 version (major:minor hex digits)
0002  00                 format (0=official)
0003  00                 endianness (1=little endian)
0004  00                 size of int (bytes)
0005  00                 size of size_t (bytes)
0006  02                 size of Instruction (bytes)
0007  0C                 size of number (bytes)
0008  2A                 integral (1=integral)
442
                         * number type: single
                         * x86 standard (32-bit, little endian, doubles)
                         ** global header end **
package
seeall
Legendary
Rare
Uncommon
Lotus.Scripts.Libs.CommonGamemodeFunctions
CreateMainLootCrates
Legendary
Rare
Uncommon
Common
gGameRules
resources
LegendaryTypes
RareTypes
UncommonTypes
CommonTypes
mDecoType
mRarity
Lotus_Game
UNCOMMON
table
COMMON
RARE
LEGENDARY
Disable
gRegion
heading
Legendary
LegendaryTypes
Rare
RareTypes
Uncommon
UncommonTypes
CommonTypes
gRegion
HarrowQuestPalladino
HarrowQuestMaze
HarrowQuestSiphonOne
HarrowQuestSiphonTwo
HarrowQuestSiphonThree
gGameRules
goalTag
LootCrate
math
table
LootCrateLib: Crates Spawned: 
_T
FxLayer
Fire
gRegion
LootCrate
LootCrateHotspot
math
table
LootCrateLib: Crates Spawned: 
_T
FxLayer
Fire
                         
0001                     ** function [0] definition (level 1)
                         ** start of function **
0001  00                 string size (0)
                         source name: (none)
0002  00                 line defined (0)
0003  00                 last line defined (0)
0004  00                 nups (0)
0005  00                 numparams (0)
0006  02                 is_vararg (2)
0007  0C                 maxstacksize (12)
                         * code:
0008  2A                 sizecode (42)
0009  1D000000           [01] getglobal  0   0        ; 954442511
000D  41000001           [02] vararg     1   2      
0011  9D400000           [03] getglobal  2   1        ; package
0015  8E804001           [04] gettable   2   2   258  ; "seeall"
0019  22408001           [05] call       0   3   1  
001D  0BC00000           [06] newtable   0   0   3    ; array=0, hash=3
0021  0C00C181           [07] settable   0   259 260  ; "Legendary" 0
0025  0C80C182           [08] settable   0   261 262  ; "Rare" 0
0029  0C00C283           [09] settable   0   263 264  ; "Uncommon" 0
002D  59400200           [10] loadk      1   9        ; -102
0031  97008000           [11] loadbool   2   1   0    ; true
0035  DD800200           [12] getglobal  3   10       ; 849075268
0039  19C10200           [13] loadk      4   11       ; "Lotus.Scripts.Libs.CommonGamemodeFunctions"
003D  E2800001           [14] call       3   2   2  
0041  25010000           [15] closure    4   0      
0045  12000000           [16] move       0   0      
0049  65410000           [17] closure    5   1      
004D  A5810000           [18] closure    6   2      
0051  E5C10000           [19] closure    7   3      
0055  25020100           [20] closure    8   4      
0059  12008002           [21] move       0   5      
005D  12008003           [22] move       0   7      
0061  12000001           [23] move       0   2      
0065  65420100           [24] closure    9   5      
0069  A5820100           [25] closure    10  6      
006D  12008001           [26] move       0   3      
0071  12000003           [27] move       0   6      
0075  12000002           [28] move       0   4      
0079  12008000           [29] move       0   1      
007D  12008004           [30] move       0   9      
0081  12000004           [31] move       0   8      
0085  E5C20100           [32] closure    11  7      
0089  12000005           [33] move       0   10     
008D  12008001           [34] move       0   3      
0091  12000003           [35] move       0   6      
0095  12000002           [36] move       0   4      
0099  12008000           [37] move       0   1      
009D  12008004           [38] move       0   9      
00A1  12000004           [39] move       0   8      
00A5  E0020300           [40] setglobal  11  12       ; CreateMainLootCrates
00A9  E0420300           [41] setglobal  11  13       ; 1486905805
00AD  1E008000           [42] return     0   1      
                         * constants:
00B1  0E                 sizek (14)
00B2  01                 const type 3
00B3  0FA3E338           const [0]: (954442511)
00B7  04                 const type 4
00B8  08                 string size (8)
00B9  7061636B61676500   "package\0"
                         const [1]: "package"
00C1  04                 const type 4
00C2  07                 string size (7)
00C3  736565616C6C00     "seeall\0"
                         const [2]: "seeall"
00CA  04                 const type 4
00CB  0A                 string size (10)
00CC  4C6567656E646172+  "Legendar"
00D4  7900               "y\0"
                         const [3]: "Legendary"
00D6  03                 const type 3
00D7  00000040           const [4]: (0)
00DB  04                 const type 4
00DC  05                 string size (5)
00DD  5261726500         "Rare\0"
                         const [5]: "Rare"
00E2  03                 const type 3
00E3  0000C040           const [6]: (0)
00E7  04                 const type 4
00E8  09                 string size (9)
00E9  556E636F6D6D6F6E+  "Uncommon"
00F1  00                 "\0"
                         const [7]: "Uncommon"
00F2  03                 const type 3
00F3  00001442           const [8]: (0)
00F7  03                 const type 3
00F8  9A99193E           const [9]: (-102)
00FC  01                 const type 3
00FD  44DC9B32           const [10]: (849075268)
0101  04                 const type 4
0102  2B                 string size (43)
0103  4C6F7475732E5363+  "Lotus.Sc"
010B  72697074732E4C69+  "ripts.Li"
0113  62732E436F6D6D6F+  "bs.Commo"
011B  6E47616D656D6F64+  "nGamemod"
0123  6546756E6374696F+  "eFunctio"
012B  6E7300             "ns\0"
                         const [11]: "Lotus.Scripts.Libs.CommonGamemodeFunctions"
012E  04                 const type 4
012F  15                 string size (21)
0130  4372656174654D61+  "CreateMa"
0138  696E4C6F6F744372+  "inLootCr"
0140  6174657300         "ates\0"
                         const [12]: "CreateMainLootCrates"
0145  01                 const type 3
0146  CD61A058           const [13]: (1486905805)
                         * functions:
014A  08                 sizep (8)
                         
014B                     ** function [0] definition (level 2)
                         ** start of function **
014B  00                 string size (0)
                         source name: (none)
014C  14                 line defined (20)
014D  1C                 last line defined (28)
014E  01                 nups (1)
014F  00                 numparams (0)
0150  00                 is_vararg (0)
0151  03                 maxstacksize (3)
                         * code:
0152  16                 sizecode (22)
0153  0B000100           [01] newtable   0   0   4    ; array=0, hash=4
0157  53000000           [02] getupval   1   0      
015B  4E00C000           [03] gettable   1   1   256  ; "Legendary"
015F  0C400080           [04] settable   0   256 1    ; "Legendary"
0163  53000000           [05] getupval   1   0      
0167  4E00C000           [06] gettable   1   1   256  ; "Legendary"
016B  93000000           [07] getupval   2   0      
016F  8E404001           [08] gettable   2   2   257  ; "Rare"
0173  43808000           [09] add        1   1   2  
0177  0C408080           [10] settable   0   257 1    ; "Rare"
017B  53000000           [11] getupval   1   0      
017F  4E00C000           [12] gettable   1   1   256  ; "Legendary"
0183  93000000           [13] getupval   2   0      
0187  8E404001           [14] gettable   2   2   257  ; "Rare"
018B  43808000           [15] add        1   1   2  
018F  93000000           [16] getupval   2   0      
0193  8E804001           [17] gettable   2   2   258  ; "Uncommon"
0197  43808000           [18] add        1   1   2  
019B  0C400081           [19] settable   0   258 1    ; "Uncommon"
019F  0C00C181           [20] settable   0   259 260  ; "Common" 0
01A3  1E000001           [21] return     0   2      
01A7  1E008000           [22] return     0   1      
                         * constants:
01AB  05                 sizek (5)
01AC  04                 const type 4
01AD  0A                 string size (10)
01AE  4C6567656E646172+  "Legendar"
01B6  7900               "y\0"
                         const [0]: "Legendary"
01B8  04                 const type 4
01B9  05                 string size (5)
01BA  5261726500         "Rare\0"
                         const [1]: "Rare"
01BF  04                 const type 4
01C0  09                 string size (9)
01C1  556E636F6D6D6F6E+  "Uncommon"
01C9  00                 "\0"
                         const [2]: "Uncommon"
01CA  04                 const type 4
01CB  07                 string size (7)
01CC  436F6D6D6F6E00     "Common\0"
                         const [3]: "Common"
01D3  03                 const type 3
01D4  0000C842           const [4]: (0)
                         * functions:
01D8  00                 sizep (0)
                         * lines:
01D9  16                 sizelineinfo (22)
                         [pc] (line)
01DA  15                 [01] (21)
01DB  00                 [02] (22)
01DC  00                 [03] (22)
01DD  00                 [04] (22)
01DE  16                 [05] (23)
01DF  00                 [06] (23)
01E0  00                 [07] (23)
01E1  00                 [08] (23)
01E2  16                 [09] (23)
01E3  00                 [10] (23)
01E4  00                 [11] (24)
01E5  00                 [12] (24)
01E6  16                 [13] (24)
01E7  00                 [14] (24)
01E8  00                 [15] (24)
01E9  00                 [16] (24)
01EA  17                 [17] (24)
01EB  00                 [18] (24)
01EC  00                 [19] (24)
01ED  00                 [20] (25)
01EE  17                 [21] (27)
01EF  00                 [22] (28)
                         * locals:
0232  00                 sizelocvars (0)
                         * upvalues:
0233  00                 sizeupvalues (0)
                         ** end of function **

                         
0234                     ** function [1] definition (level 2)
                         ** start of function **
0234  00                 string size (0)
                         source name: (none)
0235  1E                 line defined (30)
0236  32                 last line defined (50)
0237  00                 nups (0)
0238  02                 numparams (2)
0239  00                 is_vararg (0)
023A  0F                 maxstacksize (15)
                         * code:
023B  2A                 sizecode (42)
023C  8A000000           [01] len        2   0      
0240  CA008000           [02] len        3   1      
fail op	35
0244  63C00001           [03] close      1  
0248  1A400180           [04] jmp        6            ; to [11]
024C  9D000000           [05] getglobal  2   0        ; 2144646525
0250  D9400000           [06] loadk      3   1        ; 0
0254  0A010000           [07] len        4   0      
0258  A2808001           [08] call       2   3   2  
025C  8E800000           [09] gettable   2   0   2  
0260  9E000001           [10] return     2   2      
0264  99800000           [11] loadk      2   2        ; 0
0268  D9400000           [12] loadk      3   1        ; 0
026C  0A010000           [13] len        4   0      
0270  59410000           [14] loadk      5   1        ; 0
0274  D0400080           [15] forprep    3   2        ; to [18]
0278  CE818100           [16] gettable   7   1   6  
027C  83C00101           [17] add        2   2   7  
0280  D400FF7F           [18] forloop    3   -3       ; to [16] if loop
0284  DDC10000           [19] getglobal  7   3        ; -1941280958
0288  19820000           [20] loadk      8   2        ; 0
028C  59420000           [21] loadk      9   1        ; 0
0290  E2818001           [22] call       7   3   2  
0294  C4818003           [23] mul        7   7   2  
0298  19420000           [24] loadk      8   1        ; 0
029C  4A020000           [25] len        9   0      
02A0  99420000           [26] loadk      10  1        ; 0
02A4  10820180           [27] forprep    8   7        ; to [35]
02A8  0EC38200           [28] gettable   12  1   11 
fail op	33
02AC  21008303           [29] tforloop   0       12   ; to [31] if exit
02B0  1A400080           [30] jmp        2            ; to [33]
02B4  0EC30200           [31] gettable   12  0   11 
02B8  1E030001           [32] return     12  2      
02BC  0EC38200           [33] gettable   12  1   11 
02C0  CD018303           [34] sub        7   7   12 
02C4  14C2FD7F           [35] forloop    8   -8       ; to [28] if loop
02C8  1D030000           [36] getglobal  12  0        ; 2144646525
02CC  59430000           [37] loadk      13  1        ; 0
02D0  8A030000           [38] len        14  0      
02D4  22838001           [39] call       12  3   2  
02D8  0E030300           [40] gettable   12  0   12 
02DC  1E030001           [41] return     12  2      
02E0  1E008000           [42] return     0   1      
                         * constants:
02E4  04                 sizek (4)
02E5  01                 const type 3
02E6  7DB5D47F           const [0]: (2144646525)
02EA  03                 const type 3
02EB  0000803F           const [1]: (0)
02EF  03                 const type 3
02F0  00000000           const [2]: (0)
02F4  01                 const type 3
02F5  42674A8C           const [3]: (-1941280958)
                         * functions:
02F9  00                 sizep (0)
                         * lines:
02FA  2A                 sizelineinfo (42)
                         [pc] (line)
02FB  1F                 [01] (31)
02FC  00                 [02] (31)
02FD  00                 [03] (31)
02FE  00                 [04] (31)
02FF  1F                 [05] (32)
0300  00                 [06] (32)
0301  00                 [07] (32)
0302  00                 [08] (32)
0303  1F                 [09] (32)
0304  00                 [10] (32)
0305  00                 [11] (35)
0306  00                 [12] (36)
0307  1F                 [13] (36)
0308  00                 [14] (36)
0309  00                 [15] (36)
030A  00                 [16] (37)
030B  20                 [17] (37)
030C  00                 [18] (36)
030D  00                 [19] (40)
030E  00                 [20] (40)
030F  20                 [21] (40)
0310  00                 [22] (40)
0311  00                 [23] (40)
0312  00                 [24] (42)
0313  20                 [25] (42)
0314  00                 [26] (42)
0315  00                 [27] (42)
0316  00                 [28] (43)
0317  20                 [29] (43)
0318  00                 [30] (43)
0319  00                 [31] (44)
031A  00                 [32] (44)
031B  20                 [33] (46)
031C  00                 [34] (46)
031D  00                 [35] (42)
031E  00                 [36] (49)
031F  20                 [37] (49)
0320  00                 [38] (49)
0321  00                 [39] (49)
0322  00                 [40] (49)
0323  23                 [41] (49)
0324  00                 [42] (50)
                         * locals:
03A3  00                 sizelocvars (0)
                         * upvalues:
03A4  00                 sizeupvalues (0)
                         ** end of function **

                         
03A5                     ** function [2] definition (level 2)
                         ** start of function **
03A5  00                 string size (0)
                         source name: (none)
03A6  34                 line defined (52)
03A7  4F                 last line defined (79)
03A8  00                 nups (0)
03A9  00                 numparams (0)
03AA  00                 is_vararg (0)
03AB  0D                 maxstacksize (13)
                         * code:
03AC  53                 sizecode (83)
03AD  1D000000           [01] getglobal  0   0        ; gGameRules
03B1  24404000           [02] self       0   0   257  ; -499465502
03B5  22800001           [03] call       0   2   2  
03B9  4E804000           [04] gettable   1   0   258  ; "resources"
03BD  8B000100           [05] newtable   2   0   4    ; array=0, hash=4
03C1  CB000000           [06] newtable   3   0   0    ; array=0, hash=0
03C5  1D010100           [07] getglobal  4   4        ; -895206725
03C9  22018000           [08] call       4   1   0  
03CD  DB400000           [09] setlist    3   0   1    ; index 1 to top
03D1  8CC08081           [10] settable   2   259 3    ; "LegendaryTypes"
03D5  CB000000           [11] newtable   3   0   0    ; array=0, hash=0
03D9  1D010100           [12] getglobal  4   4        ; -895206725
03DD  22018000           [13] call       4   1   0  
03E1  DB400000           [14] setlist    3   0   1    ; index 1 to top
03E5  8CC08082           [15] settable   2   261 3    ; "RareTypes"
03E9  CB000000           [16] newtable   3   0   0    ; array=0, hash=0
03ED  1D010100           [17] getglobal  4   4        ; -895206725
03F1  22018000           [18] call       4   1   0  
03F5  DB400000           [19] setlist    3   0   1    ; index 1 to top
03F9  8CC00083           [20] settable   2   262 3    ; "UncommonTypes"
03FD  CB000000           [21] newtable   3   0   0    ; array=0, hash=0
0401  1D010100           [22] getglobal  4   4        ; -895206725
0405  22018000           [23] call       4   1   0  
0409  DB400000           [24] setlist    3   0   1    ; index 1 to top
040D  8CC08083           [25] settable   2   263 3    ; "CommonTypes"
0411  DD000200           [26] getglobal  3   8        ; 1672515847
0415  12018000           [27] move       4   1      
0419  E2000101           [28] call       3   2   4  
041D  1A400C80           [29] jmp        50           ; to [80]
0421  0E42C203           [30] gettable   8   7   265  ; "mDecoType"
0425  5D820200           [31] getglobal  9   10       ; 1074689893
0429  92020004           [32] move       10  8      
042D  62820001           [33] call       9   2   2  
0431  58420000           [34] test       9       1    ; to [36] if false
0435  1AC00A80           [35] jmp        44           ; to [80]
0439  5D020100           [36] getglobal  9   4        ; -895206725
043D  92020004           [37] move       10  8      
0441  62820001           [38] call       9   2   2  
0445  12028004           [39] move       8   9      
0449  4EC2C203           [40] gettable   9   7   267  ; "mRarity"
044D  9D020300           [41] getglobal  10  12       ; Lotus_Game
0451  8E424305           [42] gettable   10  10  269  ; "UNCOMMON"
fail op	35
0455  23808204           [43] close      0  
0459  1A400180           [44] jmp        6            ; to [51]
045D  9D820300           [45] getglobal  10  14       ; table
0461  8EC24305           [46] gettable   10  10  271  ; -431682403
0465  CE824101           [47] gettable   11  2   262  ; "UncommonTypes"
0469  12030004           [48] move       12  8      
046D  A2428001           [49] call       10  3   1  
0471  1A000780           [50] jmp        29           ; to [80]
0475  9D020300           [51] getglobal  10  12       ; Lotus_Game
0479  8E024405           [52] gettable   10  10  272  ; "COMMON"
fail op	35
047D  23808204           [53] close      0  
0481  1A400180           [54] jmp        6            ; to [61]
0485  9D820300           [55] getglobal  10  14       ; table
0489  8EC24305           [56] gettable   10  10  271  ; -431682403
048D  CEC24101           [57] gettable   11  2   263  ; "CommonTypes"
0491  12030004           [58] move       12  8      
0495  A2428001           [59] call       10  3   1  
0499  1A800480           [60] jmp        19           ; to [80]
049D  9D020300           [61] getglobal  10  12       ; Lotus_Game
04A1  8E424405           [62] gettable   10  10  273  ; "RARE"
fail op	35
04A5  23808204           [63] close      0  
04A9  1A400180           [64] jmp        6            ; to [71]
04AD  9D820300           [65] getglobal  10  14       ; table
04B1  8EC24305           [66] gettable   10  10  271  ; -431682403
04B5  CE424101           [67] gettable   11  2   261  ; "RareTypes"
04B9  12030004           [68] move       12  8      
04BD  A2428001           [69] call       10  3   1  
04C1  1A000280           [70] jmp        9            ; to [80]
04C5  9D020300           [71] getglobal  10  12       ; Lotus_Game
04C9  8E824405           [72] gettable   10  10  274  ; "LEGENDARY"
fail op	35
04CD  23808204           [73] close      0  
04D1  1A000180           [74] jmp        5            ; to [80]
04D5  9D820300           [75] getglobal  10  14       ; table
04D9  8EC24305           [76] gettable   10  10  271  ; -431682403
04DD  CEC24001           [77] gettable   11  2   259  ; "LegendaryTypes"
04E1  12030004           [78] move       12  8      
04E5  A2428001           [79] call       10  3   1  
04E9  D6800000           [80] tforloop   3       2    ; to [82] if exit
04ED  1AC0F27F           [81] jmp        -52          ; to [30]
04F1  9E000001           [82] return     2   2      
04F5  1E008000           [83] return     0   1      
                         * constants:
04F9  13                 sizek (19)
04FA  04                 const type 4
04FB  0B                 string size (11)
04FC  6747616D6552756C+  "gGameRul"
0504  657300             "es\0"
                         const [0]: "gGameRules"
0507  01                 const type 3
0508  E2C23AE2           const [1]: (-499465502)
050C  04                 const type 4
050D  0A                 string size (10)
050E  7265736F75726365+  "resource"
0516  7300               "s\0"
                         const [2]: "resources"
0518  04                 const type 4
0519  0F                 string size (15)
051A  4C6567656E646172+  "Legendar"
0522  79547970657300     "yTypes\0"
                         const [3]: "LegendaryTypes"
0529  01                 const type 3
052A  BB3AA4CA           const [4]: (-895206725)
052E  04                 const type 4
052F  0A                 string size (10)
0530  5261726554797065+  "RareType"
0538  7300               "s\0"
                         const [5]: "RareTypes"
053A  04                 const type 4
053B  0E                 string size (14)
053C  556E636F6D6D6F6E+  "Uncommon"
0544  547970657300       "Types\0"
                         const [6]: "UncommonTypes"
054A  04                 const type 4
054B  0C                 string size (12)
054C  436F6D6D6F6E5479+  "CommonTy"
0554  70657300           "pes\0"
                         const [7]: "CommonTypes"
0558  01                 const type 3
0559  0791B063           const [8]: (1672515847)
055D  04                 const type 4
055E  0A                 string size (10)
055F  6D4465636F547970+  "mDecoTyp"
0567  6500               "e\0"
                         const [9]: "mDecoType"
0569  01                 const type 3
056A  65770E40           const [10]: (1074689893)
056E  04                 const type 4
056F  08                 string size (8)
0570  6D52617269747900   "mRarity\0"
                         const [11]: "mRarity"
0578  04                 const type 4
0579  0B                 string size (11)
057A  4C6F7475735F4761+  "Lotus_Ga"
0582  6D6500             "me\0"
                         const [12]: "Lotus_Game"
0585  04                 const type 4
0586  09                 string size (9)
0587  554E434F4D4D4F4E+  "UNCOMMON"
058F  00                 "\0"
                         const [13]: "UNCOMMON"
0590  04                 const type 4
0591  06                 string size (6)
0592  7461626C6500       "table\0"
                         const [14]: "table"
0598  01                 const type 3
0599  9D0C45E6           const [15]: (-431682403)
059D  04                 const type 4
059E  07                 string size (7)
059F  434F4D4D4F4E00     "COMMON\0"
                         const [16]: "COMMON"
05A6  04                 const type 4
05A7  05                 string size (5)
05A8  5241524500         "RARE\0"
                         const [17]: "RARE"
05AD  04                 const type 4
05AE  0A                 string size (10)
05AF  4C4547454E444152+  "LEGENDAR"
05B7  5900               "Y\0"
                         const [18]: "LEGENDARY"
                         * functions:
05B9  00                 sizep (0)
                         * lines:
05BA  53                 sizelineinfo (83)
                         [pc] (line)
05BB  35                 [01] (53)
05BC  00                 [02] (53)
05BD  00                 [03] (53)
05BE  00                 [04] (54)
05BF  35                 [05] (59)
05C0  00                 [06] (59)
05C1  00                 [07] (59)
05C2  00                 [08] (59)
05C3  35                 [09] (59)
05C4  00                 [10] (59)
05C5  00                 [11] (59)
05C6  00                 [12] (59)
05C7  36                 [13] (59)
05C8  00                 [14] (59)
05C9  00                 [15] (59)
05CA  00                 [16] (59)
05CB  3B                 [17] (59)
05CC  00                 [18] (59)
05CD  00                 [19] (59)
05CE  00                 [20] (59)
05CF  3B                 [21] (59)
05D0  00                 [22] (59)
05D1  00                 [23] (59)
05D2  00                 [24] (59)
05D3  3B                 [25] (59)
05D4  00                 [26] (61)
05D5  00                 [27] (61)
05D6  00                 [28] (61)
05D7  3B                 [29] (61)
05D8  00                 [30] (62)
05D9  00                 [31] (63)
05DA  00                 [32] (63)
05DB  3B                 [33] (63)
05DC  00                 [34] (63)
05DD  00                 [35] (63)
05DE  00                 [36] (64)
05DF  3B                 [37] (64)
05E0  00                 [38] (64)
05E1  00                 [39] (64)
05E2  00                 [40] (65)
05E3  3B                 [41] (66)
05E4  00                 [42] (66)
05E5  00                 [43] (66)
05E6  00                 [44] (66)
05E7  3B                 [45] (67)
05E8  00                 [46] (67)
05E9  00                 [47] (67)
05EA  00                 [48] (67)
05EB  3B                 [49] (67)
05EC  00                 [50] (67)
05ED  00                 [51] (68)
05EE  00                 [52] (68)
05EF  3B                 [53] (68)
05F0  00                 [54] (68)
05F1  00                 [55] (69)
05F2  00                 [56] (69)
05F3  3B                 [57] (69)
05F4  00                 [58] (69)
05F5  00                 [59] (69)
05F6  00                 [60] (69)
05F7  3B                 [61] (70)
05F8  00                 [62] (70)
05F9  00                 [63] (70)
05FA  00                 [64] (70)
05FB  3B                 [65] (71)
05FC  00                 [66] (71)
05FD  00                 [67] (71)
05FE  00                 [68] (71)
05FF  3B                 [69] (71)
0600  00                 [70] (71)
0601  00                 [71] (72)
0602  00                 [72] (72)
0603  3B                 [73] (72)
0604  00                 [74] (72)
0605  00                 [75] (73)
0606  00                 [76] (73)
0607  3B                 [77] (73)
0608  00                 [78] (73)
0609  00                 [79] (73)
060A  00                 [80] (61)
060B  3B                 [81] (75)
060C  00                 [82] (78)
060D  00                 [83] (79)
                         * locals:
0707  00                 sizelocvars (0)
                         * upvalues:
0708  00                 sizeupvalues (0)
                         ** end of function **

                         
0709                     ** function [3] definition (level 2)
                         ** start of function **
0709  00                 string size (0)
                         source name: (none)
070A  51                 line defined (81)
070B  64                 last line defined (100)
070C  00                 nups (0)
070D  05                 numparams (5)
070E  00                 is_vararg (0)
070F  10                 maxstacksize (16)
                         * code:
0710  40                 sizecode (64)
0711  5D010000           [01] getglobal  5   0        ; 1074689893
0715  92018000           [02] move       6   1      
0719  62810001           [03] call       5   2   2  
071D  58010000           [04] test       5       0    ; to [6] if true
0721  1A000080           [05] jmp        1            ; to [7]
0725  1E008000           [06] return     0   1      
0729  6441C000           [07] self       5   1   257  ; -1923578185
072D  D9810000           [08] loadk      7   2        ; "Disable"
0731  62418001           [09] call       5   3   1  
0735  5DC10000           [10] getglobal  5   3        ; 572299008
0739  62818000           [11] call       5   1   2  
073D  92018000           [12] move       6   1      
0741  E401C100           [13] self       7   1   260  ; 1839670529
0745  E2810001           [14] call       7   2   2  
0749  2442C100           [15] self       8   1   261  ; -231049143
074D  22820001           [16] call       8   2   2  
0751  D8400000           [17] test       3       1    ; to [19] if false
0755  1A000980           [18] jmp        37           ; to [56]
0759  5D820100           [19] getglobal  9   6        ; gRegion
075D  64C2C104           [20] self       9   9   263  ; 187283819
0761  DDC20000           [21] getglobal  11  3        ; 572299008
0765  19030200           [22] loadk      12  8        ; 0
0769  59430200           [23] loadk      13  9        ; 0
076D  99030200           [24] loadk      14  8        ; 0
0771  E2820002           [25] call       11  4   2  
0775  C3C28203           [26] add        11  7   11 
0779  1DC30000           [27] getglobal  12  3        ; 572299008
077D  59030200           [28] loadk      13  8        ; 0
0781  99830200           [29] loadk      14  10       ; 0
0785  D9030200           [30] loadk      15  8        ; 0
0789  22830002           [31] call       12  4   2  
078D  0D038303           [32] sub        12  7   12 
0791  52030003           [33] move       13  6      
0795  86030007           [34] loadnil    14  14     
0799  D2038002           [35] move       15  5      
079D  62828003           [36] call       9   7   2  
07A1  58020000           [37] test       9       0    ; to [39] if true
07A5  1A000480           [38] jmp        17           ; to [56]
07A9  5DC20000           [39] getglobal  9   3        ; 572299008
07AD  62828000           [40] call       9   1   2  
07B1  43418202           [41] add        5   5   9  
fail op	35
07B5  23C04202           [42] close      0  
07B9  1A000180           [43] jmp        5            ; to [49]
07BD  5D420300           [44] getglobal  9   13       ; 2144646525
07C1  99020200           [45] loadk      10  8        ; 0
07C5  D9820300           [46] loadk      11  14       ; 0
07C9  62828001           [47] call       9   3   2  
07CD  0C420286           [48] settable   8   268 9    ; "heading"
07D1  5D820100           [49] getglobal  9   6        ; gRegion
07D5  64C2C304           [50] self       9   9   271  ; -1110225722
07D9  D2020000           [51] move       11  0      
07DD  12038002           [52] move       12  5      
07E1  52030004           [53] move       13  8      
07E5  62428002           [54] call       9   5   1  
07E9  1AC00180           [55] jmp        8            ; to [64]
07ED  D8000000           [56] test       3       0    ; to [58] if true
07F1  1A400180           [57] jmp        6            ; to [64]
07F5  5D820100           [58] getglobal  9   6        ; gRegion
07F9  64C2C304           [59] self       9   9   271  ; -1110225722
07FD  D2020000           [60] move       11  0      
0801  12038003           [61] move       12  7      
0805  52030004           [62] move       13  8      
0809  62428002           [63] call       9   5   1  
080D  1E008000           [64] return     0   1      
                         * constants:
0811  10                 sizek (16)
0812  01                 const type 3
0813  65770E40           const [0]: (1074689893)
0817  01                 const type 3
0818  B786588D           const [1]: (-1923578185)
081C  04                 const type 4
081D  08                 string size (8)
081E  44697361626C6500   "Disable\0"
                         const [2]: "Disable"
0826  01                 const type 3
0827  00971C22           const [3]: (572299008)
082B  01                 const type 3
082C  0125A76D           const [4]: (1839670529)
0830  01                 const type 3
0831  49783AF2           const [5]: (-231049143)
0835  04                 const type 4
0836  08                 string size (8)
0837  67526567696F6E00   "gRegion\0"
                         const [6]: "gRegion"
083F  01                 const type 3
0840  6BB9290B           const [7]: (187283819)
0844  03                 const type 3
0845  00000000           const [8]: (0)
0849  03                 const type 3
084A  0000003F           const [9]: (0)
084E  03                 const type 3
084F  0000803F           const [10]: (0)
0853  01                 const type 3
0854  01000000           const [11]: (1)
0858  04                 const type 4
0859  08                 string size (8)
085A  68656164696E6700   "heading\0"
                         const [12]: "heading"
0862  01                 const type 3
0863  7DB5D47F           const [13]: (2144646525)
0867  03                 const type 3
0868  0000B443           const [14]: (0)
086C  01                 const type 3
086D  C64CD3BD           const [15]: (-1110225722)
                         * functions:
0871  00                 sizep (0)
                         * lines:
0872  40                 sizelineinfo (64)
                         [pc] (line)
0873  52                 [01] (82)
0874  00                 [02] (82)
0875  00                 [03] (82)
0876  00                 [04] (82)
0877  52                 [05] (82)
0878  00                 [06] (83)
0879  00                 [07] (85)
087A  00                 [08] (85)
087B  52                 [09] (85)
087C  00                 [10] (86)
087D  00                 [11] (86)
087E  00                 [12] (87)
087F  52                 [13] (88)
0880  00                 [14] (88)
0881  00                 [15] (89)
0882  00                 [16] (89)
0883  52                 [17] (91)
0884  00                 [18] (91)
0885  00                 [19] (91)
0886  00                 [20] (91)
0887  53                 [21] (91)
0888  00                 [22] (91)
0889  00                 [23] (91)
088A  00                 [24] (91)
088B  55                 [25] (91)
088C  00                 [26] (91)
088D  00                 [27] (91)
088E  00                 [28] (91)
088F  55                 [29] (91)
0890  00                 [30] (91)
0891  00                 [31] (91)
0892  00                 [32] (91)
0893  55                 [33] (91)
0894  00                 [34] (91)
0895  00                 [35] (91)
0896  00                 [36] (91)
0897  56                 [37] (91)
0898  00                 [38] (91)
0899  00                 [39] (92)
089A  00                 [40] (92)
089B  56                 [41] (92)
089C  00                 [42] (93)
089D  00                 [43] (93)
089E  00                 [44] (94)
089F  57                 [45] (94)
08A0  00                 [46] (94)
08A1  00                 [47] (94)
08A2  00                 [48] (94)
08A3  58                 [49] (96)
08A4  00                 [50] (96)
08A5  00                 [51] (96)
08A6  00                 [52] (96)
08A7  58                 [53] (96)
08A8  00                 [54] (96)
08A9  00                 [55] (96)
08AA  00                 [56] (97)
08AB  59                 [57] (97)
08AC  00                 [58] (98)
08AD  00                 [59] (98)
08AE  00                 [60] (98)
08AF  59                 [61] (98)
08B0  00                 [62] (98)
08B1  00                 [63] (98)
08B2  00                 [64] (100)
                         * locals:
0973  00                 sizelocvars (0)
                         * upvalues:
0974  00                 sizeupvalues (0)
                         ** end of function **

                         
0975                     ** function [4] definition (level 2)
                         ** start of function **
0975  00                 string size (0)
                         source name: (none)
0976  66                 line defined (102)
0977  6B                 last line defined (107)
0978  03                 nups (3)
0979  05                 numparams (5)
097A  00                 is_vararg (0)
097B  0C                 maxstacksize (12)
                         * code:
097C  11                 sizecode (17)
097D  53010000           [01] getupval   5   0      
0981  92018000           [02] move       6   1      
0985  D2010001           [03] move       7   2      
0989  62818001           [04] call       5   3   2  
098D  9D010000           [05] getglobal  6   0        ; 1074689893
0991  D2018002           [06] move       7   5      
0995  A2810001           [07] call       6   2   2  
0999  98410000           [08] test       6       1    ; to [10] if false
099D  1A800180           [09] jmp        7            ; to [17]
09A1  93018000           [10] getupval   6   1      
09A5  D2018002           [11] move       7   5      
09A9  12020000           [12] move       8   0      
09AD  53020001           [13] getupval   9   2      
09B1  92028001           [14] move       10  3      
09B5  D2020002           [15] move       11  4      
09B9  A2410003           [16] call       6   6   1  
09BD  1E008000           [17] return     0   1      
                         * constants:
09C1  01                 sizek (1)
09C2  01                 const type 3
09C3  65770E40           const [0]: (1074689893)
                         * functions:
09C7  00                 sizep (0)
                         * lines:
09C8  11                 sizelineinfo (17)
                         [pc] (line)
09C9  67                 [01] (103)
09CA  00                 [02] (103)
09CB  00                 [03] (103)
09CC  00                 [04] (103)
09CD  67                 [05] (104)
09CE  00                 [06] (104)
09CF  00                 [07] (104)
09D0  00                 [08] (104)
09D1  67                 [09] (104)
09D2  00                 [10] (105)
09D3  00                 [11] (105)
09D4  00                 [12] (105)
09D5  67                 [13] (105)
09D6  00                 [14] (105)
09D7  00                 [15] (105)
09D8  00                 [16] (105)
09D9  68                 [17] (107)
                         * locals:
0A0D  00                 sizelocvars (0)
                         * upvalues:
0A0E  00                 sizeupvalues (0)
                         ** end of function **

                         
0A0F                     ** function [5] definition (level 2)
                         ** start of function **
0A0F  00                 string size (0)
                         source name: (none)
0A10  6D                 line defined (109)
0A11  79                 last line defined (121)
0A12  00                 nups (0)
0A13  02                 numparams (2)
0A14  00                 is_vararg (0)
0A15  07                 maxstacksize (7)
                         * code:
0A16  43                 sizecode (67)
0A17  9D000000           [01] getglobal  2   0        ; 2144646525
0A1B  D9400000           [02] loadk      3   1        ; 0
0A1F  19810000           [03] loadk      4   2        ; 0
0A23  A2808001           [04] call       2   3   2  
0A27  CEC04000           [05] gettable   3   0   259  ; "Legendary"
fail op	33
0A2B  21C00001           [06] tforloop   0       3    ; to [8] if exit
0A2F  1A000380           [07] jmp        13           ; to [21]
0A33  CE00C100           [08] gettable   3   1   260  ; "LegendaryTypes"
0A37  CA008001           [09] len        3   3      
fail op	35
0A3B  6340C101           [10] close      1  
0A3F  1A000280           [11] jmp        9            ; to [21]
0A43  CE00C100           [12] gettable   3   1   260  ; "LegendaryTypes"
0A47  1D010000           [13] getglobal  4   0        ; 2144646525
0A4B  59410000           [14] loadk      5   1        ; 0
0A4F  8E01C100           [15] gettable   6   1   260  ; "LegendaryTypes"
0A53  8A010003           [16] len        6   6      
0A57  22818001           [17] call       4   3   2  
0A5B  CE008101           [18] gettable   3   3   4  
0A5F  DE000001           [19] return     3   2      
0A63  1AC00A80           [20] jmp        44           ; to [65]
0A67  CE804100           [21] gettable   3   0   262  ; "Rare"
fail op	33
0A6B  21C00001           [22] tforloop   0       3    ; to [24] if exit
0A6F  1A000380           [23] jmp        13           ; to [37]
0A73  CEC0C100           [24] gettable   3   1   263  ; "RareTypes"
0A77  CA008001           [25] len        3   3      
fail op	35
0A7B  6340C101           [26] close      1  
0A7F  1A000280           [27] jmp        9            ; to [37]
0A83  CEC0C100           [28] gettable   3   1   263  ; "RareTypes"
0A87  1D010000           [29] getglobal  4   0        ; 2144646525
0A8B  59410000           [30] loadk      5   1        ; 0
0A8F  8EC1C100           [31] gettable   6   1   263  ; "RareTypes"
0A93  8A010003           [32] len        6   6      
0A97  22818001           [33] call       4   3   2  
0A9B  CE008101           [34] gettable   3   3   4  
0A9F  DE000001           [35] return     3   2      
0AA3  1AC00680           [36] jmp        28           ; to [65]
0AA7  CE004200           [37] gettable   3   0   264  ; "Uncommon"
fail op	33
0AAB  21C00001           [38] tforloop   0       3    ; to [40] if exit
0AAF  1A000380           [39] jmp        13           ; to [53]
0AB3  CE40C200           [40] gettable   3   1   265  ; "UncommonTypes"
0AB7  CA008001           [41] len        3   3      
fail op	35
0ABB  6340C101           [42] close      1  
0ABF  1A000280           [43] jmp        9            ; to [53]
0AC3  CE40C200           [44] gettable   3   1   265  ; "UncommonTypes"
0AC7  1D010000           [45] getglobal  4   0        ; 2144646525
0ACB  59410000           [46] loadk      5   1        ; 0
0ACF  8E41C200           [47] gettable   6   1   265  ; "UncommonTypes"
0AD3  8A010003           [48] len        6   6      
0AD7  22818001           [49] call       4   3   2  
0ADB  CE008101           [50] gettable   3   3   4  
0ADF  DE000001           [51] return     3   2      
0AE3  1AC00280           [52] jmp        12           ; to [65]
0AE7  CE80C200           [53] gettable   3   1   266  ; "CommonTypes"
0AEB  CA008001           [54] len        3   3      
fail op	35
0AEF  6340C101           [55] close      1  
0AF3  1AC00180           [56] jmp        8            ; to [65]
0AF7  CE80C200           [57] gettable   3   1   266  ; "CommonTypes"
0AFB  1D010000           [58] getglobal  4   0        ; 2144646525
0AFF  59410000           [59] loadk      5   1        ; 0
0B03  8E81C200           [60] gettable   6   1   266  ; "CommonTypes"
0B07  8A010003           [61] len        6   6      
0B0B  22818001           [62] call       4   3   2  
0B0F  CE008101           [63] gettable   3   3   4  
0B13  DE000001           [64] return     3   2      
0B17  C6008001           [65] loadnil    3   3      
0B1B  DE000001           [66] return     3   2      
0B1F  1E008000           [67] return     0   1      
                         * constants:
0B23  0B                 sizek (11)
0B24  01                 const type 3
0B25  7DB5D47F           const [0]: (2144646525)
0B29  03                 const type 3
0B2A  0000803F           const [1]: (0)
0B2E  03                 const type 3
0B2F  0000C842           const [2]: (0)
0B33  04                 const type 4
0B34  0A                 string size (10)
0B35  4C6567656E646172+  "Legendar"
0B3D  7900               "y\0"
                         const [3]: "Legendary"
0B3F  04                 const type 4
0B40  0F                 string size (15)
0B41  4C6567656E646172+  "Legendar"
0B49  79547970657300     "yTypes\0"
                         const [4]: "LegendaryTypes"
0B50  03                 const type 3
0B51  00000000           const [5]: (0)
0B55  04                 const type 4
0B56  05                 string size (5)
0B57  5261726500         "Rare\0"
                         const [6]: "Rare"
0B5C  04                 const type 4
0B5D  0A                 string size (10)
0B5E  5261726554797065+  "RareType"
0B66  7300               "s\0"
                         const [7]: "RareTypes"
0B68  04                 const type 4
0B69  09                 string size (9)
0B6A  556E636F6D6D6F6E+  "Uncommon"
0B72  00                 "\0"
                         const [8]: "Uncommon"
0B73  04                 const type 4
0B74  0E                 string size (14)
0B75  556E636F6D6D6F6E+  "Uncommon"
0B7D  547970657300       "Types\0"
                         const [9]: "UncommonTypes"
0B83  04                 const type 4
0B84  0C                 string size (12)
0B85  436F6D6D6F6E5479+  "CommonTy"
0B8D  70657300           "pes\0"
                         const [10]: "CommonTypes"
                         * functions:
0B91  00                 sizep (0)
                         * lines:
0B92  43                 sizelineinfo (67)
                         [pc] (line)
0B93  6E                 [01] (110)
0B94  00                 [02] (110)
0B95  00                 [03] (110)
0B96  00                 [04] (110)
0B97  6E                 [05] (111)
0B98  00                 [06] (111)
0B99  00                 [07] (111)
0B9A  00                 [08] (111)
0B9B  6E                 [09] (111)
0B9C  00                 [10] (111)
0B9D  00                 [11] (111)
0B9E  00                 [12] (112)
0B9F  6E                 [13] (112)
0BA0  00                 [14] (112)
0BA1  00                 [15] (112)
0BA2  00                 [16] (112)
0BA3  6F                 [17] (112)
0BA4  00                 [18] (112)
0BA5  00                 [19] (112)
0BA6  00                 [20] (112)
0BA7  6F                 [21] (113)
0BA8  00                 [22] (113)
0BA9  00                 [23] (113)
0BAA  00                 [24] (113)
0BAB  6F                 [25] (113)
0BAC  00                 [26] (113)
0BAD  00                 [27] (113)
0BAE  00                 [28] (114)
0BAF  6F                 [29] (114)
0BB0  00                 [30] (114)
0BB1  00                 [31] (114)
0BB2  00                 [32] (114)
0BB3  6F                 [33] (114)
0BB4  00                 [34] (114)
0BB5  00                 [35] (114)
0BB6  00                 [36] (114)
0BB7  6F                 [37] (115)
0BB8  00                 [38] (115)
0BB9  00                 [39] (115)
0BBA  00                 [40] (115)
0BBB  6F                 [41] (115)
0BBC  00                 [42] (115)
0BBD  00                 [43] (115)
0BBE  00                 [44] (116)
0BBF  70                 [45] (116)
0BC0  00                 [46] (116)
0BC1  00                 [47] (116)
0BC2  00                 [48] (116)
0BC3  70                 [49] (116)
0BC4  00                 [50] (116)
0BC5  00                 [51] (116)
0BC6  00                 [52] (116)
0BC7  70                 [53] (117)
0BC8  00                 [54] (117)
0BC9  00                 [55] (117)
0BCA  00                 [56] (117)
0BCB  70                 [57] (118)
0BCC  00                 [58] (118)
0BCD  00                 [59] (118)
0BCE  00                 [60] (118)
0BCF  70                 [61] (118)
0BD0  00                 [62] (118)
0BD1  00                 [63] (118)
0BD2  00                 [64] (118)
0BD3  70                 [65] (120)
0BD4  00                 [66] (120)
0BD5  00                 [67] (121)
                         * locals:
0C9F  00                 sizelocvars (0)
                         * upvalues:
0CA0  00                 sizeupvalues (0)
                         ** end of function **

                         
0CA1                     ** function [6] definition (level 2)
                         ** start of function **
0CA1  00                 string size (0)
                         source name: (none)
0CA2  7D                 line defined (125)
0CA3  C7                 last line defined (199)
0CA4  01                 nups (6)
0CA5  06                 numparams (11)
0CA6  0B                 is_vararg (0)
0CA7  00                 maxstacksize (53)
                         * code:
0CAA  01                 sizecode (205)
0CAB  DD020000           [001] getglobal  11  0        ; gRegion
0CAF  E442C005           [002] self       11  11  257  ; -774964848
0CB3  E2820001           [003] call       11  2   2  
0CB7  E482C005           [004] self       11  11  258  ; 537471347
0CBB  E2820001           [005] call       11  2   2  
0CBF  19C30000           [006] loadk      12  3        ; 0
0CC3  4B030002           [007] newtable   13  4   0    ; array=4, hash=0
0CC7  9D030100           [008] getglobal  14  4        ; -332969190
0CCB  D9430100           [009] loadk      15  5        ; "HarrowQuestPalladino"
0CCF  A2830001           [010] call       14  2   2  
0CD3  DD030100           [011] getglobal  15  4        ; -332969190
0CD7  19840100           [012] loadk      16  6        ; "HarrowQuestMaze"
0CDB  E2830001           [013] call       15  2   2  
0CDF  1D040100           [014] getglobal  16  4        ; -332969190
0CE3  59C40100           [015] loadk      17  7        ; "HarrowQuestSiphonOne"
0CE7  22840001           [016] call       16  2   2  
0CEB  5D040100           [017] getglobal  17  4        ; -332969190
0CEF  99040200           [018] loadk      18  8        ; "HarrowQuestSiphonTwo"
0CF3  62840001           [019] call       17  2   2  
0CF7  9D040100           [020] getglobal  18  4        ; -332969190
0CFB  D9440200           [021] loadk      19  9        ; "HarrowQuestSiphonThree"
0CFF  A2040001           [022] call       18  2   0  
0D03  5B430000           [023] setlist    13  0   1    ; index 1 to top
0D07  9D830200           [024] getglobal  14  10       ; gGameRules
0D0B  A4C34207           [025] self       14  14  267  ; -1201441975
0D0F  A2830001           [026] call       14  2   2  
0D13  CE034307           [027] gettable   15  14  268  ; "goalTag"
0D17  1D440300           [028] getglobal  16  13       ; 1672515847
0D1B  52048006           [029] move       17  13     
0D1F  22040101           [030] call       16  2   4  
0D23  1A800080           [031] jmp        3            ; to [35]
fail op	35
0D27  23008507           [032] close      0  
0D2B  1A000080           [033] jmp        1            ; to [35]
0D2F  1E008000           [034] return     0   1      
0D33  16840000           [035] tforloop   16      2    ; to [37] if exit
0D37  1A80FE7F           [036] jmp        -5           ; to [32]
0D3B  5D050000           [037] getglobal  21  0        ; gRegion
0D3F  6485C30A           [038] self       21  21  270  ; -1485896174
0D43  DD050100           [039] getglobal  23  4        ; -332969190
0D47  19C60300           [040] loadk      24  15       ; "LootCrate"
0D4B  E2050001           [041] call       23  2   0  
0D4F  62850000           [042] call       21  0   2  
0D53  93050000           [043] getupval   22  0      
0D57  8E05440B           [044] gettable   22  22  272  ; 937208937
0D5B  D205800A           [045] move       23  21     
0D5F  A2850001           [046] call       22  2   2  
0D63  5205000B           [047] move       21  22     
0D67  93058000           [048] getupval   22  1      
0D6B  A2858000           [049] call       22  1   2  
0D6F  D3050001           [050] getupval   23  2      
0D73  E2858000           [051] call       23  1   2  
0D77  19460400           [052] loadk      24  17       ; 0
fail op	21
0D7B  1500030C           [053] concat     0   24  12 
0D7F  1A401180           [054] jmp        70           ; to [125]
0D83  5D860400           [055] getglobal  25  18       ; 1074689893
0D87  9206800A           [056] move       26  21     
0D8B  62860001           [057] call       25  2   2  
0D8F  58460000           [058] test       25      1    ; to [60] if false
0D93  1A001080           [059] jmp        65           ; to [125]
0D97  4A06800A           [060] len        25  21     
fail op	21
0D9B  15408688           [061] concat     0   273 25 
0D9F  1A400F80           [062] jmp        62           ; to [125]
0DA3  4A06800A           [063] len        25  21     
0DA7  99C60400           [064] loadk      26  19       ; 0
0DAB  D9060500           [065] loadk      27  20       ; 0
0DAF  50C60D80           [066] forprep    25  56       ; to [123]
0DB3  4E07870A           [067] gettable   29  21  28 
0DB7  9D470500           [068] getglobal  30  21       ; math
0DBB  8E87450F           [069] gettable   30  30  278  ; -2040962569
0DBF  A2878000           [070] call       30  1   2  
0DC3  D3078001           [071] getupval   31  3      
fail op	21
0DC7  15C0070F           [072] concat     0   30  31 
0DCB  1AC00380           [073] jmp        16           ; to [90]
0DCF  D3070002           [074] getupval   31  4      
0DD3  1208800B           [075] move       32  23     
0DD7  5208000B           [076] move       33  22     
0DDB  E2878001           [077] call       31  3   2  
0DDF  13088002           [078] getupval   32  5      
0DE3  5208800E           [079] move       33  29     
0DE7  8B088000           [080] newtable   34  1   0    ; array=1, hash=0
0DEB  D208800F           [081] move       35  31     
0DEF  9B488000           [082] setlist    34  1   1    ; index 1 to 1
0DF3  CB088000           [083] newtable   35  1   0    ; array=1, hash=0
0DF7  19C90400           [084] loadk      36  19       ; 0
0DFB  DB488000           [085] setlist    35  1   1    ; index 1 to 1
0DFF  12090005           [086] move       36  10     
0E03  57098000           [087] loadbool   37  1   0    ; true
0E07  22480003           [088] call       32  6   1  
0E0B  1AC00580           [089] jmp        24           ; to [114]
0E0F  24C8C505           [090] self       32  11  279  ; 1527427648
0E13  22880001           [091] call       32  2   2  
0E17  18080000           [092] test       32      0    ; to [94] if true
0E1B  1A000380           [093] jmp        13           ; to [107]
0E1F  2408C605           [094] self       32  11  280  ; 992090637
0E23  9208800E           [095] move       34  29     
0E27  22888001           [096] call       32  3   2  
fail op	21
0E2B  1500888C           [097] concat     0   281 32 
0E2F  1AC00180           [098] jmp        8            ; to [107]
0E33  13088002           [099] getupval   32  5      
0E37  5208800E           [100] move       33  29     
0E3B  92088001           [101] move       34  3      
0E3F  D2080002           [102] move       35  4      
0E43  12090005           [103] move       36  10     
0E47  52098002           [104] move       37  5      
0E4B  22480003           [105] call       32  6   1  
0E4F  1A800180           [106] jmp        7            ; to [114]
0E53  13088002           [107] getupval   32  5      
0E57  5208800E           [108] move       33  29     
0E5B  92080000           [109] move       34  0      
0E5F  D2088000           [110] move       35  1      
0E63  12090005           [111] move       36  10     
0E67  52090001           [112] move       37  2      
0E6B  22480003           [113] call       32  6   1  
0E6F  1D880600           [114] getglobal  32  26       ; table
0E73  0EC84610           [115] gettable   32  32  283  ; -843973282
0E77  5208800A           [116] move       33  21     
0E7B  9208000E           [117] move       34  28     
0E7F  22488001           [118] call       32  3   1  
0E83  03C6440C           [119] add        24  24  275  ; 0
fail op	33
0E87  21000606           [120] tforloop   0       24   ; to [122] if exit
0E8B  1A000080           [121] jmp        1            ; to [123]
0E8F  1A40EE7F           [122] jmp        -70          ; to [53]
0E93  5486F17F           [123] forloop    25  -57      ; to [67] if loop
0E97  1AC0ED7F           [124] jmp        -72          ; to [53]
0E9B  1208800A           [125] move       32  21     
0E9F  57080000           [126] loadbool   33  0   0    ; false
0EA3  58080000           [127] test       33      0    ; to [129] if true
0EA7  1A000180           [128] jmp        5            ; to [134]
0EAB  9D080700           [129] getglobal  34  28       ; -1817107093
0EAF  D9480700           [130] loadk      35  29       ; "LootCrateLib: Crates Spawned: "
0EB3  1209000C           [131] move       36  24     
0EB7  C2088911           [132] concat     35  35  36 
0EBB  A2480001           [133] call       34  2   1  
0EBF  9D880700           [134] getglobal  34  30       ; 2144646525
0EC3  D9C80700           [135] loadk      35  31       ; 0
0EC7  19090800           [136] loadk      36  32       ; 0
0ECB  A2888001           [137] call       34  3   2  
0ECF  D9480800           [138] loadk      35  33       ; 0
0ED3  19C90400           [139] loadk      36  19       ; 0
0ED7  52090011           [140] move       37  34     
0EDB  99C90400           [141] loadk      38  19       ; 0
0EDF  10090680           [142] forprep    36  25       ; to [168]
0EE3  1D8A0400           [143] getglobal  40  18       ; 1074689893
0EE7  520A0010           [144] move       41  32     
0EEB  228A0001           [145] call       40  2   2  
0EEF  184A0000           [146] test       40      1    ; to [148] if false
0EF3  1AC00480           [147] jmp        20           ; to [168]
0EF7  0A0A0010           [148] len        40  32     
fail op	21
0EFB  15008A88           [149] concat     0   273 40 
0EFF  1A000480           [150] jmp        17           ; to [168]
0F03  1D8A0700           [151] getglobal  40  30       ; 2144646525
0F07  59CA0400           [152] loadk      41  19       ; 0
0F0B  8A0A0010           [153] len        42  32     
0F0F  228A8001           [154] call       40  3   2  
0F13  4E0A0A10           [155] gettable   41  32  40 
0F17  930A8002           [156] getupval   42  5      
0F1B  D20A8014           [157] move       43  41     
0F1F  120B0003           [158] move       44  6      
0F23  520B8003           [159] move       45  7      
0F27  920B0005           [160] move       46  10     
0F2B  D70B8000           [161] loadbool   47  1   0    ; true
0F2F  A24A0003           [162] call       42  6   1  
0F33  9D8A0600           [163] getglobal  42  26       ; table
0F37  8ECA4615           [164] gettable   42  42  283  ; -843973282
0F3B  D20A0010           [165] move       43  32     
0F3F  120B0014           [166] move       44  40     
0F43  A24A8001           [167] call       42  3   1  
0F47  1449F97F           [168] forloop    36  -26      ; to [143] if loop
0F4B  9D8A0800           [169] getglobal  42  34       ; _T
0F4F  8ECA4815           [170] gettable   42  42  291  ; "FxLayer"
0F53  DD0A0100           [171] getglobal  43  4        ; -332969190
0F57  190B0900           [172] loadk      44  36       ; "Fire"
0F5B  E28A0001           [173] call       43  2   2  
fail op	35
0F5F  23C00A15           [174] close      0  
0F63  1A000780           [175] jmp        29           ; to [205]
0F67  99CA0400           [176] loadk      42  19       ; 0
0F6B  D20A8011           [177] move       43  35     
0F6F  19CB0400           [178] loadk      44  19       ; 0
0F73  90CA0580           [179] forprep    42  24       ; to [204]
0F77  9D8B0400           [180] getglobal  46  18       ; 1074689893
0F7B  D20B0010           [181] move       47  32     
0F7F  A28B0001           [182] call       46  2   2  
0F83  984B0000           [183] test       46      1    ; to [185] if false
0F87  1A800480           [184] jmp        19           ; to [204]
0F8B  8A0B0010           [185] len        46  32     
fail op	21
0F8F  15808B88           [186] concat     0   273 46 
0F93  1AC00380           [187] jmp        16           ; to [204]
0F97  9D8B0700           [188] getglobal  46  30       ; 2144646525
0F9B  D9CB0400           [189] loadk      47  19       ; 0
0F9F  0A0C0010           [190] len        48  32     
0FA3  A28B8001           [191] call       46  3   2  
0FA7  CE8B0B10           [192] gettable   47  32  46 
0FAB  130C8002           [193] getupval   48  5      
0FAF  520C8017           [194] move       49  47     
0FB3  920C0004           [195] move       50  8      
0FB7  D20C8004           [196] move       51  9      
0FBB  120D0005           [197] move       52  10     
0FBF  224C8002           [198] call       48  5   1  
0FC3  1D8C0600           [199] getglobal  48  26       ; table
0FC7  0ECC4618           [200] gettable   48  48  283  ; -843973282
0FCB  520C0010           [201] move       49  32     
0FCF  920C0017           [202] move       50  46     
0FD3  224C8001           [203] call       48  3   1  
0FD7  948AF97F           [204] forloop    42  -25      ; to [180] if loop
0FDB  1E008000           [205] return     0   1      
                         * constants:
0FDF  25                 sizek (37)
0FE0  04                 const type 4
0FE1  08                 string size (8)
0FE2  67526567696F6E00   "gRegion\0"
                         const [0]: "gRegion"
0FEA  01                 const type 3
0FEB  90F9CED1           const [1]: (-774964848)
0FEF  01                 const type 3
0FF0  73290920           const [2]: (537471347)
0FF4  03                 const type 3
0FF5  0000C842           const [3]: (0)
0FF9  01                 const type 3
0FFA  1A4B27EC           const [4]: (-332969190)
0FFE  04                 const type 4
0FFF  15                 string size (21)
1000  486172726F775175+  "HarrowQu"
1008  65737450616C6C61+  "estPalla"
1010  64696E6F00         "dino\0"
                         const [5]: "HarrowQuestPalladino"
1015  04                 const type 4
1016  10                 string size (16)
1017  486172726F775175+  "HarrowQu"
101F  6573744D617A6500   "estMaze\0"
                         const [6]: "HarrowQuestMaze"
1027  04                 const type 4
1028  15                 string size (21)
1029  486172726F775175+  "HarrowQu"
1031  657374536970686F+  "estSipho"
1039  6E4F6E6500         "nOne\0"
                         const [7]: "HarrowQuestSiphonOne"
103E  04                 const type 4
103F  15                 string size (21)
1040  486172726F775175+  "HarrowQu"
1048  657374536970686F+  "estSipho"
1050  6E54776F00         "nTwo\0"
                         const [8]: "HarrowQuestSiphonTwo"
1055  04                 const type 4
1056  17                 string size (23)
1057  486172726F775175+  "HarrowQu"
105F  657374536970686F+  "estSipho"
1067  6E546872656500     "nThree\0"
                         const [9]: "HarrowQuestSiphonThree"
106E  04                 const type 4
106F  0B                 string size (11)
1070  6747616D6552756C+  "gGameRul"
1078  657300             "es\0"
                         const [10]: "gGameRules"
107B  01                 const type 3
107C  497363B8           const [11]: (-1201441975)
1080  04                 const type 4
1081  08                 string size (8)
1082  676F616C54616700   "goalTag\0"
                         const [12]: "goalTag"
108A  01                 const type 3
108B  0791B063           const [13]: (1672515847)
108F  01                 const type 3
1090  12066FA7           const [14]: (-1485896174)
1094  04                 const type 4
1095  0A                 string size (10)
1096  4C6F6F7443726174+  "LootCrat"
109E  6500               "e\0"
                         const [15]: "LootCrate"
10A0  01                 const type 3
10A1  69ACDC37           const [16]: (937208937)
10A5  03                 const type 3
10A6  00000000           const [17]: (0)
10AA  01                 const type 3
10AB  65770E40           const [18]: (1074689893)
10AF  03                 const type 3
10B0  0000803F           const [19]: (0)
10B4  03                 const type 3
10B5  000080BF           const [20]: (0)
10B9  04                 const type 4
10BA  05                 string size (5)
10BB  6D61746800         "math\0"
                         const [21]: "math"
10C0  01                 const type 3
10C1  F7615986           const [22]: (-2040962569)
10C5  01                 const type 3
10C6  40B20A5B           const [23]: (1527427648)
10CA  01                 const type 3
10CB  0D1A223B           const [24]: (992090637)
10CF  03                 const type 3
10D0  0000003F           const [25]: (0)
10D4  04                 const type 4
10D5  06                 string size (6)
10D6  7461626C6500       "table\0"
                         const [26]: "table"
10DC  01                 const type 3
10DD  5EFDB1CD           const [27]: (-843973282)
10E1  01                 const type 3
10E2  6B25B193           const [28]: (-1817107093)
10E6  04                 const type 4
10E7  1F                 string size (31)
10E8  4C6F6F7443726174+  "LootCrat"
10F0  654C69623A204372+  "eLib: Cr"
10F8  6174657320537061+  "ates Spa"
1100  776E65643A2000     "wned: \0"
                         const [29]: "LootCrateLib: Crates Spawned: "
1107  01                 const type 3
1108  7DB5D47F           const [30]: (2144646525)
110C  03                 const type 3
110D  0000A041           const [31]: (0)
1111  03                 const type 3
1112  0000F041           const [32]: (0)
1116  03                 const type 3
1117  00002041           const [33]: (0)
111B  04                 const type 4
111C  03                 string size (3)
111D  5F5400             "_T\0"
                         const [34]: "_T"
1120  04                 const type 4
1121  08                 string size (8)
1122  46784C6179657200   "FxLayer\0"
                         const [35]: "FxLayer"
112A  04                 const type 4
112B  05                 string size (5)
112C  4669726500         "Fire\0"
                         const [36]: "Fire"
                         * functions:
1131  00                 sizep (0)
                         * lines:
1133  01                 sizelineinfo (205)
                         [pc] (line)
1134  80                 [001] (-128)
1135  00                 [002] (-128)
1136  00                 [003] (-128)
1137  00                 [004] (-128)
1138  80                 [005] (-128)
1139  00                 [006] (-127)
113A  00                 [007] (-125)
113B  00                 [008] (-125)
113C  80                 [009] (-125)
113D  00                 [010] (-125)
113E  00                 [011] (-125)
113F  00                 [012] (-125)
1140  80                 [013] (-125)
1141  00                 [014] (-125)
1142  00                 [015] (-125)
1143  00                 [016] (-125)
1144  80                 [017] (-125)
1145  00                 [018] (-125)
1146  00                 [019] (-125)
1147  00                 [020] (-125)
1148  81                 [021] (-125)
1149  00                 [022] (-125)
114A  00                 [023] (-125)
114B  00                 [024] (-124)
114C  83                 [025] (-124)
114D  00                 [026] (-124)
114E  00                 [027] (-123)
114F  00                 [028] (-122)
1150  83                 [029] (-122)
1151  00                 [030] (-122)
1152  00                 [031] (-122)
1153  00                 [032] (-121)
1154  83                 [033] (-121)
1155  00                 [034] (-120)
1156  00                 [035] (-122)
1157  00                 [036] (-119)
1158  83                 [037] (-115)
1159  00                 [038] (-115)
115A  00                 [039] (-115)
115B  00                 [040] (-115)
115C  83                 [041] (-115)
115D  00                 [042] (-115)
115E  00                 [043] (-114)
115F  00                 [044] (-114)
1160  83                 [045] (-114)
1161  00                 [046] (-114)
1162  00                 [047] (-114)
1163  00                 [048] (-113)
1164  83                 [049] (-113)
1165  00                 [050] (-112)
1166  00                 [051] (-112)
1167  00                 [052] (-111)
1168  83                 [053] (-110)
1169  00                 [054] (-110)
116A  00                 [055] (-110)
116B  00                 [056] (-110)
116C  83                 [057] (-110)
116D  00                 [058] (-110)
116E  00                 [059] (-110)
116F  00                 [060] (-110)
1170  83                 [061] (-110)
1171  00                 [062] (-110)
1172  00                 [063] (-109)
1173  00                 [064] (-109)
1174  83                 [065] (-109)
1175  00                 [066] (-109)
1176  00                 [067] (-108)
1177  00                 [068] (-107)
1178  83                 [069] (-107)
1179  00                 [070] (-107)
117A  00                 [071] (-106)
117B  00                 [072] (-106)
117C  83                 [073] (-106)
117D  00                 [074] (-105)
117E  00                 [075] (-105)
117F  00                 [076] (-105)
1180  83                 [077] (-105)
1181  00                 [078] (-104)
1182  00                 [079] (-104)
1183  00                 [080] (-104)
1184  83                 [081] (-104)
1185  00                 [082] (-104)
1186  00                 [083] (-104)
1187  00                 [084] (-104)
1188  83                 [085] (-104)
1189  00                 [086] (-104)
118A  00                 [087] (-104)
118B  00                 [088] (-104)
118C  83                 [089] (-104)
118D  00                 [090] (-102)
118E  00                 [091] (-102)
118F  00                 [092] (-102)
1190  84                 [093] (-102)
1191  00                 [094] (-102)
1192  00                 [095] (-102)
1193  00                 [096] (-102)
1194  84                 [097] (-102)
1195  00                 [098] (-102)
1196  00                 [099] (-101)
1197  00                 [100] (-101)
1198  84                 [101] (-101)
1199  00                 [102] (-101)
119A  00                 [103] (-101)
119B  00                 [104] (-101)
119C  85                 [105] (-101)
119D  00                 [106] (-101)
119E  00                 [107] (-99)
119F  00                 [108] (-99)
11A0  86                 [109] (-99)
11A1  00                 [110] (-99)
11A2  00                 [111] (-99)
11A3  00                 [112] (-99)
11A4  86                 [113] (-99)
11A5  00                 [114] (-96)
11A6  00                 [115] (-96)
11A7  00                 [116] (-96)
11A8  86                 [117] (-96)
11A9  00                 [118] (-96)
11AA  00                 [119] (-95)
11AB  00                 [120] (-94)
11AC  86                 [121] (-94)
11AD  00                 [122] (-93)
11AE  00                 [123] (-109)
11AF  00                 [124] (-91)
11B0  87                 [125] (-88)
11B1  00                 [126] (-86)
11B2  00                 [127] (-85)
11B3  00                 [128] (-85)
11B4  87                 [129] (-84)
11B5  00                 [130] (-84)
11B6  00                 [131] (-84)
11B7  00                 [132] (-84)
11B8  88                 [133] (-84)
11B9  00                 [134] (-80)
11BA  00                 [135] (-80)
11BB  00                 [136] (-80)
11BC  86                 [137] (-80)
11BD  00                 [138] (-79)
11BE  00                 [139] (-77)
11BF  00                 [140] (-77)
11C0  89                 [141] (-77)
11C1  00                 [142] (-77)
11C2  00                 [143] (-76)
11C3  00                 [144] (-76)
11C4  8D                 [145] (-76)
11C5  00                 [146] (-76)
11C6  00                 [147] (-76)
11C7  00                 [148] (-76)
11C8  8D                 [149] (-76)
11C9  00                 [150] (-76)
11CA  00                 [151] (-75)
11CB  00                 [152] (-75)
11CC  8D                 [153] (-75)
11CD  00                 [154] (-75)
11CE  00                 [155] (-74)
11CF  00                 [156] (-73)
11D0  8D                 [157] (-73)
11D1  00                 [158] (-73)
11D2  00                 [159] (-73)
11D3  00                 [160] (-73)
11D4  8D                 [161] (-73)
11D5  00                 [162] (-73)
11D6  00                 [163] (-72)
11D7  00                 [164] (-72)
11D8  8D                 [165] (-72)
11D9  00                 [166] (-72)
11DA  00                 [167] (-72)
11DB  00                 [168] (-77)
11DC  8E                 [169] (-68)
11DD  00                 [170] (-68)
11DE  00                 [171] (-68)
11DF  00                 [172] (-68)
11E0  8E                 [173] (-68)
11E1  00                 [174] (-68)
11E2  00                 [175] (-68)
11E3  00                 [176] (-67)
11E4  8E                 [177] (-67)
11E5  00                 [178] (-67)
11E6  00                 [179] (-67)
11E7  00                 [180] (-66)
11E8  8E                 [181] (-66)
11E9  00                 [182] (-66)
11EA  00                 [183] (-66)
11EB  00                 [184] (-66)
11EC  8E                 [185] (-66)
11ED  00                 [186] (-66)
11EE  00                 [187] (-66)
11EF  00                 [188] (-65)
11F0  8F                 [189] (-65)
11F1  00                 [190] (-65)
11F2  00                 [191] (-65)
11F3  00                 [192] (-64)
11F4  8F                 [193] (-63)
11F5  00                 [194] (-63)
11F6  00                 [195] (-63)
11F7  00                 [196] (-63)
11F8  90                 [197] (-63)
11F9  00                 [198] (-63)
11FA  00                 [199] (-62)
11FB  00                 [200] (-62)
11FC  90                 [201] (-62)
11FD  00                 [202] (-62)
11FE  00                 [203] (-62)
11FF  00                 [204] (-67)
1200  91                 [205] (-57)
                         * locals:
1468  00                 sizelocvars (0)
                         * upvalues:
1469  00                 sizeupvalues (0)
                         ** end of function **

                         
146A                     ** function [7] definition (level 2)
                         ** start of function **
146A  00                 string size (0)
                         source name: (none)
146C  01                 line defined (201)
146D  DF                 last line defined (351)
146E  02                 nups (7)
146F  07                 numparams (11)
1470  0B                 is_vararg (0)
1471  00                 maxstacksize (81)
                         * code:
1474  02                 sizecode (356)
1475  DD020000           [001] getglobal  11  0        ; gRegion
1479  E442C005           [002] self       11  11  257  ; -1485896174
147D  5D830000           [003] getglobal  13  2        ; -332969190
1481  99C30000           [004] loadk      14  3        ; "LootCrate"
1485  62030001           [005] call       13  2   0  
1489  E2820000           [006] call       11  0   2  
fail op	35
148D  6300C105           [007] close      1  
1491  1A800080           [008] jmp        3            ; to [12]
1495  0A038005           [009] len        12  11     
fail op	35
1499  23404106           [010] close      0  
149D  1A000080           [011] jmp        1            ; to [13]
14A1  1E008000           [012] return     0   1      
14A5  17030000           [013] loadbool   12  0   0    ; false
14A9  57038000           [014] loadbool   13  1   0    ; true
14AD  18030000           [015] test       12      0    ; to [17] if true
14B1  1A400080           [016] jmp        2            ; to [19]
14B5  58030000           [017] test       13      0    ; to [19] if true
14B9  1A400380           [018] jmp        14           ; to [33]
14BD  93030000           [019] getupval   14  0      
14C1  D2030000           [020] move       15  0      
14C5  12048000           [021] move       16  1      
14C9  52040001           [022] move       17  2      
14CD  92048001           [023] move       18  3      
14D1  D2040002           [024] move       19  4      
14D5  12058002           [025] move       20  5      
14D9  52050003           [026] move       21  6      
14DD  92058003           [027] move       22  7      
14E1  D2050004           [028] move       23  8      
14E5  12068004           [029] move       24  9      
14E9  52060005           [030] move       25  10     
14ED  A2430006           [031] call       14  12  1  
14F1  1E008000           [032] return     0   1      
14F5  99830100           [033] loadk      14  6        ; 0
14F9  DD030000           [034] getglobal  15  0        ; gRegion
14FD  E4C3C107           [035] self       15  15  263  ; -774964848
1501  E2830001           [036] call       15  2   2  
1505  E403C207           [037] self       15  15  264  ; 537471347
1509  E2830001           [038] call       15  2   2  
150D  1D840000           [039] getglobal  16  2        ; -332969190
1511  59440200           [040] loadk      17  9        ; "LootCrateHotspot"
1515  22840001           [041] call       16  2   2  
1519  59840200           [042] loadk      17  10       ; 0
151D  99C40200           [043] loadk      18  11       ; 0
1521  D3048000           [044] getupval   19  1      
1525  CE04C309           [045] gettable   19  19  268  ; -1206605058
1529  E2848000           [046] call       19  1   2  
152D  13058000           [047] getupval   20  1      
1531  0E45430A           [048] gettable   20  20  269  ; 1760101979
1535  22858000           [049] call       20  1   2  
fail op	21
1539  15C0040A           [050] concat     0   20  19 
153D  1A000080           [051] jmp        1            ; to [53]
1541  D204000A           [052] move       19  20     
1545  5D850300           [053] getglobal  21  14       ; math
1549  4EC5C30A           [054] gettable   21  21  271  ; -1962864584
154D  9D850300           [055] getglobal  22  14       ; math
1551  8E05440B           [056] gettable   22  22  272  ; -150971781
1555  DC858309           [057] div        23  19  14 
1559  A2850001           [058] call       22  2   2  
155D  D9450400           [059] loadk      23  17       ; 0
1561  62858001           [060] call       21  3   2  
1565  8B050000           [061] newtable   22  0   0    ; array=0, hash=0
1569  D9450400           [062] loadk      23  17       ; 0
156D  1206000A           [063] move       24  20     
1571  59460400           [064] loadk      25  17       ; 0
1575  D0050180           [065] forprep    23  5        ; to [71]
1579  DD860400           [066] getglobal  27  18       ; table
157D  CEC6C40D           [067] gettable   27  27  275  ; -431682403
1581  1207000B           [068] move       28  22     
1585  59470100           [069] loadk      29  5        ; 0
1589  E2468001           [070] call       27  3   1  
158D  D445FE7F           [071] forloop    23  -6       ; to [66] if loop
1591  DD060500           [072] getglobal  27  20       ; 1672515847
1595  12078005           [073] move       28  11     
1599  E2060101           [074] call       27  2   4  
159D  1A400380           [075] jmp        14           ; to [90]
15A1  2448C50F           [076] self       32  31  277  ; 1927666530
15A5  22880001           [077] call       32  2   2  
15A9  5D880500           [078] getglobal  33  22       ; 1074689893
15AD  92080010           [079] move       34  32     
15B1  62880001           [080] call       33  2   2  
15B5  58480000           [081] test       33      1    ; to [83] if false
15B9  1A800180           [082] jmp        7            ; to [90]
15BD  64C84510           [083] self       33  32  279  ; -2104556066
15C1  62880001           [084] call       33  2   2  
fail op	33
15C5  21008510           [085] tforloop   0       20   ; to [87] if exit
15C9  1A800080           [086] jmp        3            ; to [90]
15CD  8E48080B           [087] gettable   34  22  33 
15D1  83484411           [088] add        34  34  273  ; 0
15D5  8C858810           [089] settable   22  33  34 
15D9  D6860000           [090] tforloop   27      2    ; to [92] if exit
15DD  1AC0FB7F           [091] jmp        -16          ; to [76]
15E1  8B080000           [092] newtable   34  0   0    ; array=0, hash=0
15E5  D2080009           [093] move       35  18     
15E9  0A090011           [094] len        36  34     
fail op	21
15ED  15400512           [095] concat     0   36  21 
15F1  1A000480           [096] jmp        17           ; to [114]
15F5  0B090000           [097] newtable   36  0   0    ; array=0, hash=0
15F9  92080012           [098] move       34  36     
15FD  19490400           [099] loadk      36  17       ; 0
1601  4A09000B           [100] len        37  22     
1605  99490400           [101] loadk      38  17       ; 0
1609  10C90180           [102] forprep    36  8        ; to [111]
160D  0ECA090B           [103] gettable   40  22  39 
fail op	33
1611  21008A11           [104] tforloop   0       40   ; to [106] if exit
1615  1A000180           [105] jmp        5            ; to [111]
1619  1D8A0400           [106] getglobal  40  18       ; table
161D  0ECA4414           [107] gettable   40  40  275  ; -431682403
1621  520A0011           [108] move       41  34     
1625  920A8013           [109] move       42  39     
1629  224A8001           [110] call       40  3   1  
162D  1489FD7F           [111] forloop    36  -9       ; to [103] if loop
1631  CD48C411           [112] sub        35  35  273  ; 0
1635  1AC0FA7F           [113] jmp        -20          ; to [94]
1639  1D8A0300           [114] getglobal  40  14       ; math
163D  0E0A4614           [115] gettable   40  40  280  ; -1124579617
1641  4A0A0011           [116] len        41  34     
1645  5C4A8514           [117] div        41  41  21 
1649  228A0001           [118] call       40  2   2  
164D  594A0400           [119] loadk      41  17       ; 0
1651  920A800A           [120] move       42  21     
1655  D94A0400           [121] loadk      43  17       ; 0
1659  500A0A80           [122] forprep    41  41       ; to [164]
165D  4D4B4416           [123] sub        45  44  273  ; 0
1661  444B0B14           [124] mul        45  40  45 
1665  840B0B14           [125] mul        46  40  44 
1669  8D4B4417           [126] sub        46  46  273  ; 0
166D  DD8B0300           [127] getglobal  47  14       ; math
1671  CE4BC617           [128] gettable   47  47  281  ; 1710846250
1675  120C8016           [129] move       48  45     
1679  4A0C0011           [130] len        49  34     
167D  E28B8001           [131] call       47  3   2  
1681  520B8017           [132] move       45  47     
1685  DD8B0300           [133] getglobal  47  14       ; math
1689  CECBC317           [134] gettable   47  47  271  ; -1962864584
168D  120C8016           [135] move       48  45     
1691  594C0400           [136] loadk      49  17       ; 0
1695  E28B8001           [137] call       47  3   2  
1699  520B8017           [138] move       45  47     
169D  DD8B0300           [139] getglobal  47  14       ; math
16A1  CE4BC617           [140] gettable   47  47  281  ; 1710846250
16A5  120C0017           [141] move       48  46     
16A9  4A0C0011           [142] len        49  34     
16AD  E28B8001           [143] call       47  3   2  
16B1  920B8017           [144] move       46  47     
16B5  DD8B0300           [145] getglobal  47  14       ; math
16B9  CECBC317           [146] gettable   47  47  271  ; -1962864584
16BD  120C0017           [147] move       48  46     
16C1  594C0400           [148] loadk      49  17       ; 0
16C5  E28B8001           [149] call       47  3   2  
16C9  920B8017           [150] move       46  47     
16CD  DD8B0600           [151] getglobal  47  26       ; 2144646525
16D1  120C8016           [152] move       48  45     
16D5  520C0017           [153] move       49  46     
16D9  E28B8001           [154] call       47  3   2  
16DD  0ECC0B11           [155] gettable   48  34  47 
16E1  64CCC607           [156] self       49  15  283  ; -1118347068
16E5  D20C0008           [157] move       51  16     
16E9  120D0018           [158] move       52  48     
16ED  594D0400           [159] loadk      53  17       ; 0
16F1  994D0400           [160] loadk      54  17       ; 0
16F5  D98D0100           [161] loadk      55  6        ; 0
16F9  190E0700           [162] loadk      56  28       ; 0
16FD  624C0004           [163] call       49  8   1  
1701  544AF57F           [164] forloop    41  -42      ; to [123] if loop
1705  530C8000           [165] getupval   49  1      
1709  4E4CC718           [166] gettable   49  49  285  ; 937208937
170D  920C8005           [167] move       50  11     
1711  628C0001           [168] call       49  2   2  
1715  D2028018           [169] move       11  49     
1719  530C0001           [170] getupval   49  2      
171D  628C8000           [171] call       49  1   2  
1721  930C8001           [172] getupval   50  3      
1725  A28C8000           [173] call       50  1   2  
1729  D94C0100           [174] loadk      51  5        ; 0
172D  0B0D0000           [175] newtable   52  0   0    ; array=0, hash=0
fail op	21
1731  15408419           [176] concat     0   51  17 
1735  1A401780           [177] jmp        94           ; to [272]
1739  5D8D0500           [178] getglobal  53  22       ; 1074689893
173D  920D8005           [179] move       54  11     
1741  628D0001           [180] call       53  2   2  
1745  584D0000           [181] test       53      1    ; to [183] if false
1749  1A001680           [182] jmp        89           ; to [272]
174D  4A0D8005           [183] len        53  11     
fail op	21
1751  15408D82           [184] concat     0   261 53 
1755  1A401580           [185] jmp        86           ; to [272]
1759  4A0D8005           [186] len        53  11     
175D  994D0400           [187] loadk      54  17       ; 0
1761  D98D0700           [188] loadk      55  30       ; 0
1765  50CD1380           [189] forprep    53  80       ; to [270]
1769  4E0E8E05           [190] gettable   57  11  56 
176D  A4CEC707           [191] self       58  15  287  ; 475584302
1771  120F801C           [192] move       60  57     
1775  520F0008           [193] move       61  16     
1779  A28E0002           [194] call       58  4   2  
fail op	21
177D  15808E82           [195] concat     0   261 58 
1781  1A800F80           [196] jmp        63           ; to [260]
1785  D20E001D           [197] move       59  58     
1789  1D8F0300           [198] getglobal  60  14       ; math
178D  0E0F481E           [199] gettable   60  60  288  ; -2040962569
1791  228F8000           [200] call       60  1   2  
fail op	33
1795  21C00E1E           [201] tforloop   0       59   ; to [203] if exit
1799  1A801080           [202] jmp        67           ; to [270]
179D  5D8F0300           [203] getglobal  61  14       ; math
17A1  4E0FC81E           [204] gettable   61  61  288  ; -2040962569
17A5  628F8000           [205] call       61  1   2  
17A9  120F801E           [206] move       60  61     
17AD  530F0002           [207] getupval   61  4      
fail op	21
17B1  15400F1E           [208] concat     0   60  61 
17B5  1AC00380           [209] jmp        16           ; to [226]
17B9  530F8002           [210] getupval   61  5      
17BD  920F0019           [211] move       62  50     
17C1  D20F8018           [212] move       63  49     
17C5  628F8001           [213] call       61  3   2  
17C9  930F0003           [214] getupval   62  6      
17CD  D20F801C           [215] move       63  57     
17D1  0B108000           [216] newtable   64  1   0    ; array=1, hash=0
17D5  5210801E           [217] move       65  61     
17D9  1B508000           [218] setlist    64  1   1    ; index 1 to 1
17DD  4B108000           [219] newtable   65  1   0    ; array=1, hash=0
17E1  99500400           [220] loadk      66  17       ; 0
17E5  5B508000           [221] setlist    65  1   1    ; index 1 to 1
17E9  92100005           [222] move       66  10     
17ED  D7108000           [223] loadbool   67  1   0    ; true
17F1  A24F0003           [224] call       62  6   1  
17F5  1AC00580           [225] jmp        24           ; to [250]
17F9  A44FC807           [226] self       62  15  289  ; 1527427648
17FD  A28F0001           [227] call       62  2   2  
1801  980F0000           [228] test       62      0    ; to [230] if true
1805  1A000380           [229] jmp        13           ; to [243]
1809  A48FC807           [230] self       62  15  290  ; 992090637
180D  1210801C           [231] move       64  57     
1811  A28F8001           [232] call       62  3   2  
fail op	21
1815  15808F91           [233] concat     0   291 62 
1819  1AC00180           [234] jmp        8            ; to [243]
181D  930F0003           [235] getupval   62  6      
1821  D20F801C           [236] move       63  57     
1825  12108001           [237] move       64  3      
1829  52100002           [238] move       65  4      
182D  92100005           [239] move       66  10     
1831  D2108002           [240] move       67  5      
1835  A24F0003           [241] call       62  6   1  
1839  1A800180           [242] jmp        7            ; to [250]
183D  930F0003           [243] getupval   62  6      
1841  D20F801C           [244] move       63  57     
1845  12100000           [245] move       64  0      
1849  52108000           [246] move       65  1      
184D  92100005           [247] move       66  10     
1851  D2100001           [248] move       67  2      
1855  A24F0003           [249] call       62  6   1  
1859  9D8F0400           [250] getglobal  62  18       ; table
185D  8E0F491F           [251] gettable   62  62  292  ; -843973282
1861  D20F8005           [252] move       63  11     
1865  1210001C           [253] move       64  56     
1869  A24F8001           [254] call       62  3   1  
186D  C34CC419           [255] add        51  51  273  ; 0
fail op	33
1871  21C08C08           [256] tforloop   0       51   ; to [258] if exit
1875  1AC00280           [257] jmp        12           ; to [270]
1879  1A00EB7F           [258] jmp        -83          ; to [176]
187D  1A400280           [259] jmp        10           ; to [270]
1881  9D8F0400           [260] getglobal  62  18       ; table
1885  8E0F491F           [261] gettable   62  62  292  ; -843973282
1889  D20F8005           [262] move       63  11     
188D  1210001C           [263] move       64  56     
1891  A24F8001           [264] call       62  3   1  
1895  9D8F0400           [265] getglobal  62  18       ; table
1899  8ECF441F           [266] gettable   62  62  275  ; -431682403
189D  D20F001A           [267] move       63  52     
18A1  1210801C           [268] move       64  57     
18A5  A24F8001           [269] call       62  3   1  
18A9  548DEB7F           [270] forloop    53  -81      ; to [190] if loop
18AD  1AC0E77F           [271] jmp        -96          ; to [176]
18B1  18030000           [272] test       12      0    ; to [274] if true
18B5  1A000180           [273] jmp        5            ; to [279]
18B9  9D4F0900           [274] getglobal  62  37       ; -1817107093
18BD  D98F0900           [275] loadk      63  38       ; "LootCrateLib: Crates Spawned: "
18C1  12108019           [276] move       64  51     
18C5  C20F901F           [277] concat     63  63  64 
18C9  A24F0001           [278] call       62  2   1  
18CD  930F8000           [279] getupval   62  1      
18D1  8ECF491F           [280] gettable   62  62  295  ; -446391482
18D5  D20F001A           [281] move       63  52     
18D9  12108005           [282] move       64  11     
18DD  A28F8001           [283] call       62  3   2  
18E1  120D001F           [284] move       52  62     
18E5  9D8F0600           [285] getglobal  62  26       ; 2144646525
18E9  D90F0A00           [286] loadk      63  40       ; 0
18ED  19500A00           [287] loadk      64  41       ; 0
18F1  A28F8001           [288] call       62  3   2  
18F5  D9CF0200           [289] loadk      63  11       ; 0
18F9  19500400           [290] loadk      64  17       ; 0
18FD  5210001F           [291] move       65  62     
1901  99500400           [292] loadk      66  17       ; 0
1905  10100680           [293] forprep    64  25       ; to [319]
1909  1D910500           [294] getglobal  68  22       ; 1074689893
190D  5211001A           [295] move       69  52     
1911  22910001           [296] call       68  2   2  
1915  18510000           [297] test       68      1    ; to [299] if false
1919  1AC00480           [298] jmp        20           ; to [319]
191D  0A11001A           [299] len        68  52     
fail op	21
1921  15009182           [300] concat     0   261 68 
1925  1A000480           [301] jmp        17           ; to [319]
1929  1D910600           [302] getglobal  68  26       ; 2144646525
192D  59510400           [303] loadk      69  17       ; 0
1931  8A11001A           [304] len        70  52     
1935  22918001           [305] call       68  3   2  
1939  4E11111A           [306] gettable   69  52  68 
193D  93110003           [307] getupval   70  6      
1941  D2118022           [308] move       71  69     
1945  12120003           [309] move       72  6      
1949  52128003           [310] move       73  7      
194D  92120005           [311] move       74  10     
1951  D7128000           [312] loadbool   75  1   0    ; true
1955  A2510003           [313] call       70  6   1  
1959  9D910400           [314] getglobal  70  18       ; table
195D  8E114923           [315] gettable   70  70  292  ; -843973282
1961  D211001A           [316] move       71  52     
1965  12120022           [317] move       72  68     
1969  A2518001           [318] call       70  3   1  
196D  1450F97F           [319] forloop    64  -26      ; to [294] if loop
1971  9D910A00           [320] getglobal  70  42       ; _T
1975  8ED14A23           [321] gettable   70  70  299  ; "FxLayer"
1979  DD910000           [322] getglobal  71  2        ; -332969190
197D  19120B00           [323] loadk      72  44       ; "Fire"
1981  E2910001           [324] call       71  2   2  
fail op	35
1985  23C01123           [325] close      0  
1989  1A000780           [326] jmp        29           ; to [356]
198D  99510400           [327] loadk      70  17       ; 0
1991  D211801F           [328] move       71  63     
1995  19520400           [329] loadk      72  17       ; 0
1999  90D10580           [330] forprep    70  24       ; to [355]
199D  9D920500           [331] getglobal  74  22       ; 1074689893
19A1  D212001A           [332] move       75  52     
19A5  A2920001           [333] call       74  2   2  
19A9  98520000           [334] test       74      1    ; to [336] if false
19AD  1A800480           [335] jmp        19           ; to [355]
19B1  8A12001A           [336] len        74  52     
fail op	21
19B5  15809282           [337] concat     0   261 74 
19B9  1AC00380           [338] jmp        16           ; to [355]
19BD  9D920600           [339] getglobal  74  26       ; 2144646525
19C1  D9520400           [340] loadk      75  17       ; 0
19C5  0A13001A           [341] len        76  52     
19C9  A2928001           [342] call       74  3   2  
19CD  CE92121A           [343] gettable   75  52  74 
19D1  13130003           [344] getupval   76  6      
19D5  52138025           [345] move       77  75     
19D9  92130004           [346] move       78  8      
19DD  D2138004           [347] move       79  9      
19E1  12140005           [348] move       80  10     
19E5  22538002           [349] call       76  5   1  
19E9  1D930400           [350] getglobal  76  18       ; table
19ED  0E134926           [351] gettable   76  76  292  ; -843973282
19F1  5213001A           [352] move       77  52     
19F5  92130025           [353] move       78  74     
19F9  22538001           [354] call       76  3   1  
19FD  9491F97F           [355] forloop    70  -25      ; to [331] if loop
1A01  1E008000           [356] return     0   1      
                         * constants:
1A05  2D                 sizek (45)
1A06  04                 const type 4
1A07  08                 string size (8)
1A08  67526567696F6E00   "gRegion\0"
                         const [0]: "gRegion"
1A10  01                 const type 3
1A11  12066FA7           const [1]: (-1485896174)
1A15  01                 const type 3
1A16  1A4B27EC           const [2]: (-332969190)
1A1A  04                 const type 4
1A1B  0A                 string size (10)
1A1C  4C6F6F7443726174+  "LootCrat"
1A24  6500               "e\0"
                         const [3]: "LootCrate"
1A26  00                 const type 0
                         const [4]: nil
1A27  03                 const type 3
1A28  00000000           const [5]: (0)
1A2C  03                 const type 3
1A2D  00004040           const [6]: (0)
1A31  01                 const type 3
1A32  90F9CED1           const [7]: (-774964848)
1A36  01                 const type 3
1A37  73290920           const [8]: (537471347)
1A3B  04                 const type 4
1A3C  11                 string size (17)
1A3D  4C6F6F7443726174+  "LootCrat"
1A45  65486F7473706F74+  "eHotspot"
1A4D  00                 "\0"
                         const [9]: "LootCrateHotspot"
1A4E  03                 const type 3
1A4F  00004842           const [10]: (0)
1A53  03                 const type 3
1A54  00002041           const [11]: (0)
1A58  01                 const type 3
1A59  FEAA14B8           const [12]: (-1206605058)
1A5D  01                 const type 3
1A5E  5B06E968           const [13]: (1760101979)
1A62  04                 const type 4
1A63  05                 string size (5)
1A64  6D61746800         "math\0"
                         const [14]: "math"
1A69  01                 const type 3
1A6A  3810018B           const [15]: (-1962864584)
1A6E  01                 const type 3
1A6F  7B5A00F7           const [16]: (-150971781)
1A73  03                 const type 3
1A74  0000803F           const [17]: (0)
1A78  04                 const type 4
1A79  06                 string size (6)
1A7A  7461626C6500       "table\0"
                         const [18]: "table"
1A80  01                 const type 3
1A81  9D0C45E6           const [19]: (-431682403)
1A85  01                 const type 3
1A86  0791B063           const [20]: (1672515847)
1A8A  01                 const type 3
1A8B  62DBE572           const [21]: (1927666530)
1A8F  01                 const type 3
1A90  65770E40           const [22]: (1074689893)
1A94  01                 const type 3
1A95  DE058F82           const [23]: (-2104556066)
1A99  01                 const type 3
1A9A  DF46F8BC           const [24]: (-1124579617)
1A9E  01                 const type 3
1A9F  2A71F965           const [25]: (1710846250)
1AA3  01                 const type 3
1AA4  7DB5D47F           const [26]: (2144646525)
1AA8  01                 const type 3
1AA9  C46057BD           const [27]: (-1118347068)
1AAD  03                 const type 3
1AAE  00000040           const [28]: (0)
1AB2  01                 const type 3
1AB3  69ACDC37           const [29]: (937208937)
1AB7  03                 const type 3
1AB8  000080BF           const [30]: (0)
1ABC  01                 const type 3
1ABD  2ED7581C           const [31]: (475584302)
1AC1  01                 const type 3
1AC2  F7615986           const [32]: (-2040962569)
1AC6  01                 const type 3
1AC7  40B20A5B           const [33]: (1527427648)
1ACB  01                 const type 3
1ACC  0D1A223B           const [34]: (992090637)
1AD0  03                 const type 3
1AD1  0000003F           const [35]: (0)
1AD5  01                 const type 3
1AD6  5EFDB1CD           const [36]: (-843973282)
1ADA  01                 const type 3
1ADB  6B25B193           const [37]: (-1817107093)
1ADF  04                 const type 4
1AE0  1F                 string size (31)
1AE1  4C6F6F7443726174+  "LootCrat"
1AE9  654C69623A204372+  "eLib: Cr"
1AF1  6174657320537061+  "ates Spa"
1AF9  776E65643A2000     "wned: \0"
                         const [38]: "LootCrateLib: Crates Spawned: "
1B00  01                 const type 3
1B01  469B64E5           const [39]: (-446391482)
1B05  03                 const type 3
1B06  0000A041           const [40]: (0)
1B0A  03                 const type 3
1B0B  0000F041           const [41]: (0)
1B0F  04                 const type 4
1B10  03                 string size (3)
1B11  5F5400             "_T\0"
                         const [42]: "_T"
1B14  04                 const type 4
1B15  08                 string size (8)
1B16  46784C6179657200   "FxLayer\0"
                         const [43]: "FxLayer"
1B1E  04                 const type 4
1B1F  05                 string size (5)
1B20  4669726500         "Fire\0"
                         const [44]: "Fire"
                         * functions:
1B25  00                 sizep (0)
                         * lines:
1B27  02                 sizelineinfo (356)
                         [pc] (line)
1B28  CC                 [001] (-52)
1B29  00                 [002] (-52)
1B2A  00                 [003] (-52)
1B2B  00                 [004] (-52)
1B2C  CC                 [005] (-52)
1B2D  00                 [006] (-52)
1B2E  00                 [007] (-50)
1B2F  00                 [008] (-50)
1B30  CC                 [009] (-50)
1B31  00                 [010] (-50)
1B32  00                 [011] (-50)
1B33  00                 [012] (-49)
1B34  CC                 [013] (-46)
1B35  00                 [014] (-44)
1B36  00                 [015] (-43)
1B37  00                 [016] (-43)
1B38  CC                 [017] (-43)
1B39  00                 [018] (-43)
1B3A  00                 [019] (-42)
1B3B  00                 [020] (-42)
1B3C  CC                 [021] (-42)
1B3D  00                 [022] (-42)
1B3E  00                 [023] (-42)
1B3F  00                 [024] (-42)
1B40  CE                 [025] (-41)
1B41  00                 [026] (-41)
1B42  00                 [027] (-41)
1B43  00                 [028] (-41)
1B44  CE                 [029] (-41)
1B45  00                 [030] (-41)
1B46  00                 [031] (-42)
1B47  00                 [032] (-40)
1B48  CE                 [033] (-37)
1B49  00                 [034] (-35)
1B4A  00                 [035] (-35)
1B4B  00                 [036] (-35)
1B4C  CE                 [037] (-35)
1B4D  00                 [038] (-35)
1B4E  00                 [039] (-34)
1B4F  00                 [040] (-34)
1B50  CE                 [041] (-34)
1B51  00                 [042] (-33)
1B52  00                 [043] (-32)
1B53  00                 [044] (-31)
1B54  CF                 [045] (-31)
1B55  00                 [046] (-31)
1B56  00                 [047] (-30)
1B57  00                 [048] (-30)
1B58  D2                 [049] (-30)
1B59  00                 [050] (-27)
1B5A  00                 [051] (-27)
1B5B  00                 [052] (-26)
1B5C  D4                 [053] (-23)
1B5D  00                 [054] (-23)
1B5E  00                 [055] (-23)
1B5F  00                 [056] (-23)
1B60  D5                 [057] (-23)
1B61  00                 [058] (-23)
1B62  00                 [059] (-23)
1B63  00                 [060] (-23)
1B64  D5                 [061] (-20)
1B65  00                 [062] (-19)
1B66  00                 [063] (-19)
1B67  00                 [064] (-19)
1B68  D5                 [065] (-19)
1B69  00                 [066] (-18)
1B6A  00                 [067] (-18)
1B6B  00                 [068] (-18)
1B6C  D5                 [069] (-18)
1B6D  00                 [070] (-18)
1B6E  00                 [071] (-19)
1B6F  00                 [072] (-16)
1B70  D6                 [073] (-16)
1B71  00                 [074] (-16)
1B72  00                 [075] (-16)
1B73  00                 [076] (-15)
1B74  D6                 [077] (-15)
1B75  00                 [078] (-14)
1B76  00                 [079] (-14)
1B77  00                 [080] (-14)
1B78  D6                 [081] (-14)
1B79  00                 [082] (-14)
1B7A  00                 [083] (-13)
1B7B  00                 [084] (-13)
1B7C  D6                 [085] (-12)
1B7D  00                 [086] (-12)
1B7E  00                 [087] (-11)
1B7F  00                 [088] (-11)
1B80  D6                 [089] (-11)
1B81  00                 [090] (-16)
1B82  00                 [091] (-9)
1B83  00                 [092] (-5)
1B84  D6                 [093] (-4)
1B85  00                 [094] (-2)
1B86  00                 [095] (-2)
1B87  00                 [096] (-2)
1B88  D7                 [097] (-1)
1B89  00                 [098] (-1)
1B8A  00                 [099] (0)
1B8B  00                 [100] (0)
1B8C  D7                 [101] (0)
1B8D  00                 [102] (0)
1B8E  00                 [103] (1)
1B8F  00                 [104] (1)
1B90  D7                 [105] (1)
1B91  00                 [106] (2)
1B92  00                 [107] (2)
1B93  00                 [108] (2)
1B94  D7                 [109] (2)
1B95  00                 [110] (2)
1B96  00                 [111] (0)
1B97  00                 [112] (5)
1B98  D7                 [113] (5)
1B99  00                 [114] (9)
1B9A  00                 [115] (9)
1B9B  00                 [116] (9)
1B9C  D7                 [117] (9)
1B9D  00                 [118] (9)
1B9E  00                 [119] (10)
1B9F  00                 [120] (10)
1BA0  D6                 [121] (10)
1BA1  00                 [122] (10)
1BA2  00                 [123] (11)
1BA3  00                 [124] (11)
1BA4  D8                 [125] (12)
1BA5  00                 [126] (12)
1BA6  00                 [127] (13)
1BA7  00                 [128] (13)
1BA8  DB                 [129] (13)
1BA9  00                 [130] (13)
1BAA  00                 [131] (13)
1BAB  00                 [132] (13)
1BAC  DD                 [133] (14)
1BAD  00                 [134] (14)
1BAE  00                 [135] (14)
1BAF  00                 [136] (14)
1BB0  DD                 [137] (14)
1BB1  00                 [138] (14)
1BB2  00                 [139] (15)
1BB3  00                 [140] (15)
1BB4  DD                 [141] (15)
1BB5  00                 [142] (15)
1BB6  00                 [143] (15)
1BB7  00                 [144] (15)
1BB8  DD                 [145] (16)
1BB9  00                 [146] (16)
1BBA  00                 [147] (16)
1BBB  00                 [148] (16)
1BBC  DD                 [149] (16)
1BBD  00                 [150] (16)
1BBE  00                 [151] (21)
1BBF  00                 [152] (21)
1BC0  DE                 [153] (21)
1BC1  00                 [154] (21)
1BC2  00                 [155] (22)
1BC3  00                 [156] (23)
1BC4  DE                 [157] (23)
1BC5  00                 [158] (23)
1BC6  00                 [159] (23)
1BC7  00                 [160] (23)
1BC8  DE                 [161] (23)
1BC9  00                 [162] (23)
1BCA  00                 [163] (23)
1BCB  00                 [164] (10)
1BCC  DF                 [165] (27)
1BCD  00                 [166] (27)
1BCE  00                 [167] (27)
1BCF  00                 [168] (27)
1BD0  E0                 [169] (27)
1BD1  00                 [170] (28)
1BD2  00                 [171] (28)
1BD3  00                 [172] (29)
1BD4  E1                 [173] (29)
1BD5  00                 [174] (30)
1BD6  00                 [175] (31)
1BD7  00                 [176] (32)
1BD8  E1                 [177] (32)
1BD9  00                 [178] (32)
1BDA  00                 [179] (32)
1BDB  00                 [180] (32)
1BDC  E1                 [181] (32)
1BDD  00                 [182] (32)
1BDE  00                 [183] (32)
1BDF  00                 [184] (32)
1BE0  E2                 [185] (32)
1BE1  00                 [186] (33)
1BE2  00                 [187] (33)
1BE3  00                 [188] (33)
1BE4  E2                 [189] (33)
1BE5  00                 [190] (34)
1BE6  00                 [191] (35)
1BE7  00                 [192] (35)
1BE8  E2                 [193] (35)
1BE9  00                 [194] (35)
1BEA  00                 [195] (36)
1BEB  00                 [196] (36)
1BEC  E5                 [197] (38)
1BED  00                 [198] (39)
1BEE  00                 [199] (39)
1BEF  00                 [200] (39)
1BF0  E5                 [201] (40)
1BF1  00                 [202] (40)
1BF2  00                 [203] (41)
1BF3  00                 [204] (41)
1BF4  E6                 [205] (41)
1BF5  00                 [206] (41)
1BF6  00                 [207] (42)
1BF7  00                 [208] (42)
1BF8  E9                 [209] (42)
1BF9  00                 [210] (43)
1BFA  00                 [211] (43)
1BFB  00                 [212] (43)
1BFC  E9                 [213] (43)
1BFD  00                 [214] (44)
1BFE  00                 [215] (44)
1BFF  00                 [216] (44)
1C00  E9                 [217] (44)
1C01  00                 [218] (44)
1C02  00                 [219] (44)
1C03  00                 [220] (44)
1C04  E9                 [221] (44)
1C05  00                 [222] (44)
1C06  00                 [223] (44)
1C07  00                 [224] (44)
1C08  E9                 [225] (44)
1C09  00                 [226] (46)
1C0A  00                 [227] (46)
1C0B  00                 [228] (46)
1C0C  E9                 [229] (46)
1C0D  00                 [230] (46)
1C0E  00                 [231] (46)
1C0F  00                 [232] (46)
1C10  E9                 [233] (46)
1C11  00                 [234] (46)
1C12  00                 [235] (47)
1C13  00                 [236] (47)
1C14  E9                 [237] (47)
1C15  00                 [238] (47)
1C16  00                 [239] (47)
1C17  00                 [240] (47)
1C18  EC                 [241] (47)
1C19  00                 [242] (47)
1C1A  00                 [243] (49)
1C1B  00                 [244] (49)
1C1C  ED                 [245] (49)
1C1D  00                 [246] (49)
1C1E  00                 [247] (49)
1C1F  00                 [248] (49)
1C20  ED                 [249] (49)
1C21  00                 [250] (52)
1C22  00                 [251] (52)
1C23  00                 [252] (52)
1C24  ED                 [253] (52)
1C25  00                 [254] (52)
1C26  00                 [255] (53)
1C27  00                 [256] (54)
1C28  ED                 [257] (54)
1C29  00                 [258] (55)
1C2A  00                 [259] (57)
1C2B  00                 [260] (60)
1C2C  EE                 [261] (60)
1C2D  00                 [262] (60)
1C2E  00                 [263] (60)
1C2F  00                 [264] (60)
1C30  EE                 [265] (61)
1C31  00                 [266] (61)
1C32  00                 [267] (61)
1C33  00                 [268] (61)
1C34  EE                 [269] (61)
1C35  00                 [270] (33)
1C36  00                 [271] (63)
1C37  00                 [272] (66)
1C38  EE                 [273] (66)
1C39  00                 [274] (67)
1C3A  00                 [275] (67)
1C3B  00                 [276] (67)
1C3C  EE                 [277] (67)
1C3D  00                 [278] (67)
1C3E  00                 [279] (71)
1C3F  00                 [280] (71)
1C40  ED                 [281] (71)
1C41  00                 [282] (71)
1C42  00                 [283] (71)
1C43  00                 [284] (71)
1C44  F0                 [285] (72)
1C45  00                 [286] (72)
1C46  00                 [287] (72)
1C47  00                 [288] (72)
1C48  F0                 [289] (73)
1C49  00                 [290] (75)
1C4A  00                 [291] (75)
1C4B  00                 [292] (75)
1C4C  F0                 [293] (75)
1C4D  00                 [294] (76)
1C4E  00                 [295] (76)
1C4F  00                 [296] (76)
1C50  F0                 [297] (76)
1C51  00                 [298] (76)
1C52  00                 [299] (76)
1C53  00                 [300] (76)
1C54  F1                 [301] (76)
1C55  00                 [302] (77)
1C56  00                 [303] (77)
1C57  00                 [304] (77)
1C58  F1                 [305] (77)
1C59  00                 [306] (78)
1C5A  00                 [307] (79)
1C5B  00                 [308] (79)
1C5C  F2                 [309] (79)
1C5D  00                 [310] (79)
1C5E  00                 [311] (79)
1C5F  00                 [312] (79)
1C60  F2                 [313] (79)
1C61  00                 [314] (80)
1C62  00                 [315] (80)
1C63  00                 [316] (80)
1C64  F2                 [317] (80)
1C65  00                 [318] (80)
1C66  00                 [319] (75)
1C67  00                 [320] (84)
1C68  F2                 [321] (84)
1C69  00                 [322] (84)
1C6A  00                 [323] (84)
1C6B  00                 [324] (84)
1C6C  F2                 [325] (84)
1C6D  00                 [326] (84)
1C6E  00                 [327] (85)
1C6F  00                 [328] (85)
1C70  F3                 [329] (85)
1C71  00                 [330] (85)
1C72  00                 [331] (86)
1C73  00                 [332] (86)
1C74  F3                 [333] (86)
1C75  00                 [334] (86)
1C76  00                 [335] (86)
1C77  00                 [336] (86)
1C78  F4                 [337] (86)
1C79  00                 [338] (86)
1C7A  00                 [339] (87)
1C7B  00                 [340] (87)
1C7C  F4                 [341] (87)
1C7D  00                 [342] (87)
1C7E  00                 [343] (88)
1C7F  00                 [344] (89)
1C80  F5                 [345] (89)
1C81  00                 [346] (89)
1C82  00                 [347] (89)
1C83  00                 [348] (89)
1C84  F5                 [349] (89)
1C85  00                 [350] (90)
1C86  00                 [351] (90)
1C87  00                 [352] (90)
1C88  F5                 [353] (90)
1C89  00                 [354] (90)
1C8A  00                 [355] (85)
1C8B  00                 [356] (95)
                         * locals:
20B8  00                 sizelocvars (0)
                         * upvalues:
20B9  00                 sizeupvalues (0)
                         ** end of function **

                         * lines:
20BA  2A                 sizelineinfo (42)
                         [pc] (line)
20BB  01                 [01] (1)
20BC  00                 [02] (1)
20BD  00                 [03] (1)
20BE  00                 [04] (1)
20BF  01                 [05] (1)
20C0  00                 [06] (5)
20C1  00                 [07] (6)
20C2  00                 [08] (7)
20C3  01                 [09] (8)
20C4  00                 [10] (12)
20C5  00                 [11] (14)
20C6  00                 [12] (16)
20C7  01                 [13] (16)
20C8  00                 [14] (16)
20C9  00                 [15] (28)
20CA  00                 [16] (28)
20CB  01                 [17] (50)
20CC  00                 [18] (79)
20CD  00                 [19] (100)
20CE  00                 [20] (107)
20CF  05                 [21] (107)
20D0  00                 [22] (107)
20D1  00                 [23] (107)
20D2  00                 [24] (121)
20D3  06                 [25] (-57)
20D4  00                 [26] (-57)
20D5  00                 [27] (-57)
20D6  00                 [28] (-57)
20D7  07                 [29] (-57)
20D8  00                 [30] (-57)
20D9  00                 [31] (-57)
20DA  00                 [32] (95)
20DB  08                 [33] (95)
20DC  00                 [34] (95)
20DD  00                 [35] (95)
20DE  00                 [36] (95)
20DF  0C                 [37] (95)
20E0  00                 [38] (95)
20E1  00                 [39] (95)
20E2  00                 [40] (95)
20E3  0E                 [41] (-55)
20E4  00                 [42] (95)
                         * locals:
2163  00                 sizelocvars (0)
                         * upvalues:
2164  00                 sizeupvalues (0)
                         ** end of function **

2165                     ** end of chunk **
