1	C:\wlua_dump\path\Lotus\Scripts\LibsPanicLib.lua
Pos   Hex Data           Description or Code
------------------------------------------------------------------------
0000                     ** source chunk: C:\wlua_dump\path\Lotus\Scripts\LibsPanicLib.lua
                         ** global header start **
0000  7F                 header signature: ""
0001  00                 version (major:minor hex digits)
0002  00                 format (0=official)
0003  00                 endianness (1=little endian)
0004  00                 size of int (bytes)
0005  00                 size of size_t (bytes)
0006  02                 size of Instruction (bytes)
0007  0D                 size of number (bytes)
0008  3D                 integral (1=integral)
461
                         * number type: single
                         * x86 standard (32-bit, little endian, doubles)
                         ** global header end **
package
seeall
/Lotus/Types/Enemies/CaptureTargets/CaptureTargetBaseAvatar
PanicSystemStatus
UNALERT
ALERT
LOCKDOWN
GetCurrentPanicStatus
SetPanicLevel
ClearHullBreach
PanicButtonActivated
gRegion
gRegion
_T
CurrentBreachZone
DeactivatedBreachZone
Alarm System: Cleared hull breach
gRegion
PanicButtonTileEvents
TriggerPort
UNALERT
gRegion
LOCKDOWN
ALERT
gGameRules
gGameRules
Lotus_Game
MT_DEFENSE
MT_SURVIVAL
MT_MOBILE_DEFENSE
WaveTimer
Alarm System: Triggering panic events, current status = 
, new status = 
LOCKDOWN
DoorHint
Lock
PanicLight
TurnOn
Unlock
TurnOff
Alarm
Disable
AlarmFlare
AlarmLight
ALERT
gGameRules
UNALERT
PanicButtonMasterScript
Execute
gRegion
UNALERT
ALERT
LOCKDOWN
gGameRules
_T
harlequinObjectChange
gDecorationType
gRegion
object
params
consoleExplosion
ZERO_ROTATION
consoleAgent
consoleDamage
consoleRange
Engine
DT_EXPLOSION
Game
PT_KNOCKED_DOWN
Alarm System: Mirage trap triggered
gRegion
Alarm System: Panic button activated
TENNO
Alarm System: faction = 
 original faction = 
gGameRules
Lotus_Game
MT_CAPTURE
Alarm System: Capture: Panic button pressed by capture target
gTennoAvatarType
_T
TimeSinceLastLockdown
Alarm System: Capture: Panic button activate cancelled
MT_MOBILE_DEFENSE
WaveTimer
Alarm System: Mobile Defense: Panic button activate cancelled
MT_DEFENSE
Alarm System: Defense: Panic button activate cancelled
UNALERT
/Lotus/Language/Actions/HackXP
gChallengeMgr
CONSOLE_HACKED
idleTimoutReset
InstantLockdown
LOCKDOWN
math
                         
0001                     ** function [0] definition (level 1)
                         ** start of function **
0001  00                 string size (0)
                         source name: (none)
0002  00                 line defined (0)
0003  00                 last line defined (0)
0004  00                 nups (0)
0005  00                 numparams (0)
0006  02                 is_vararg (2)
0007  0D                 maxstacksize (13)
                         * code:
0008  3D                 sizecode (61)
0009  1D000000           [01] getglobal  0   0        ; 954442511
000D  41000001           [02] vararg     1   2      
0011  9D400000           [03] getglobal  2   1        ; package
0015  8E804001           [04] gettable   2   2   258  ; "seeall"
0019  22408001           [05] call       0   3   1  
001D  1DC00000           [06] getglobal  0   3        ; 738251817
0021  59000100           [07] loadk      1   4        ; "/Lotus/Types/Enemies/CaptureTargets/CaptureTargetBaseAvatar"
0025  22800001           [08] call       0   2   2  
0029  46008000           [09] loadnil    1   1      
002D  99400100           [10] loadk      2   5        ; 0
0031  DD800100           [11] getglobal  3   6        ; -332969190
0035  19C10100           [12] loadk      4   7        ; "PanicSystemStatus"
0039  E2800001           [13] call       3   2   2  
003D  19410200           [14] loadk      4   9        ; 0
0041  20010200           [15] setglobal  4   8        ; UNALERT
0045  19C10200           [16] loadk      4   11       ; 0
0049  20810200           [17] setglobal  4   10       ; ALERT
004D  19410300           [18] loadk      4   13       ; 0
0051  20010300           [19] setglobal  4   12       ; LOCKDOWN
0055  25010000           [20] closure    4   0      
0059  65410000           [21] closure    5   1      
005D  12008000           [22] move       0   1      
0061  A5810000           [23] closure    6   2      
0065  E5C10000           [24] closure    7   3      
0069  12008000           [25] move       0   1      
006D  12008001           [26] move       0   3      
0071  25020100           [27] closure    8   4      
0075  12008003           [28] move       0   7      
0079  20820300           [29] setglobal  8   14       ; GetCurrentPanicStatus
007D  20C20300           [30] setglobal  8   15       ; -1262642991
0081  25420100           [31] closure    8   5      
0085  65820100           [32] closure    9   6      
0089  12008003           [33] move       0   7      
008D  12000004           [34] move       0   8      
0091  12008000           [35] move       0   1      
0095  12000001           [36] move       0   2      
0099  12000002           [37] move       0   4      
009D  A5C20100           [38] closure    10  7      
00A1  12008000           [39] move       0   1      
00A5  12008004           [40] move       0   9      
00A9  12008001           [41] move       0   3      
00AD  E5020200           [42] closure    11  8      
00B1  25430200           [43] closure    12  9      
00B5  12000005           [44] move       0   10     
00B9  20030400           [45] setglobal  12  16       ; SetPanicLevel
00BD  20430400           [46] setglobal  12  17       ; -1628296218
00C1  25830200           [47] closure    12  10     
00C5  12008002           [48] move       0   5      
00C9  20830400           [49] setglobal  12  18       ; ClearHullBreach
00CD  20C30400           [50] setglobal  12  19       ; -225709284
00D1  25C30200           [51] closure    12  11     
00D5  12008000           [52] move       0   1      
00D9  12008003           [53] move       0   7      
00DD  12008002           [54] move       0   5      
00E1  12000000           [55] move       0   0      
00E5  12008005           [56] move       0   11     
00E9  12000003           [57] move       0   6      
00ED  12000005           [58] move       0   10     
00F1  20030500           [59] setglobal  12  20       ; PanicButtonActivated
00F5  20430500           [60] setglobal  12  21       ; -1527005815
00F9  1E008000           [61] return     0   1      
                         * constants:
00FD  16                 sizek (22)
00FE  01                 const type 3
00FF  0FA3E338           const [0]: (954442511)
0103  04                 const type 4
0104  08                 string size (8)
0105  7061636B61676500   "package\0"
                         const [1]: "package"
010D  04                 const type 4
010E  07                 string size (7)
010F  736565616C6C00     "seeall\0"
                         const [2]: "seeall"
0116  01                 const type 3
0117  29D4002C           const [3]: (738251817)
011B  04                 const type 4
011C  3C                 string size (60)
011D  2F4C6F7475732F54+  "/Lotus/T"
0125  797065732F456E65+  "ypes/Ene"
012D  6D6965732F436170+  "mies/Cap"
0135  7475726554617267+  "tureTarg"
013D  6574732F43617074+  "ets/Capt"
0145  7572655461726765+  "ureTarge"
014D  7442617365417661+  "tBaseAva"
0155  74617200           "tar\0"
                         const [4]: "/Lotus/Types/Enemies/CaptureTargets/CaptureTargetBaseAvatar"
0159  03                 const type 3
015A  00003443           const [5]: (0)
015E  01                 const type 3
015F  1A4B27EC           const [6]: (-332969190)
0163  04                 const type 4
0164  12                 string size (18)
0165  50616E6963537973+  "PanicSys"
016D  74656D5374617475+  "temStatu"
0175  7300               "s\0"
                         const [7]: "PanicSystemStatus"
0177  04                 const type 4
0178  08                 string size (8)
0179  554E414C45525400   "UNALERT\0"
                         const [8]: "UNALERT"
0181  03                 const type 3
0182  00000000           const [9]: (0)
0186  04                 const type 4
0187  06                 string size (6)
0188  414C45525400       "ALERT\0"
                         const [10]: "ALERT"
018E  03                 const type 3
018F  0000803F           const [11]: (0)
0193  04                 const type 4
0194  09                 string size (9)
0195  4C4F434B444F574E+  "LOCKDOWN"
019D  00                 "\0"
                         const [12]: "LOCKDOWN"
019E  03                 const type 3
019F  00000040           const [13]: (0)
01A3  04                 const type 4
01A4  16                 string size (22)
01A5  4765744375727265+  "GetCurre"
01AD  6E7450616E696353+  "ntPanicS"
01B5  746174757300       "tatus\0"
                         const [14]: "GetCurrentPanicStatus"
01BB  01                 const type 3
01BC  D198BDB4           const [15]: (-1262642991)
01C0  04                 const type 4
01C1  0E                 string size (14)
01C2  53657450616E6963+  "SetPanic"
01CA  4C6576656C00       "Level\0"
                         const [16]: "SetPanicLevel"
01D0  01                 const type 3
01D1  E62BF29E           const [17]: (-1628296218)
01D5  04                 const type 4
01D6  10                 string size (16)
01D7  436C65617248756C+  "ClearHul"
01DF  6C42726561636800   "lBreach\0"
                         const [18]: "ClearHullBreach"
01E7  01                 const type 3
01E8  1CF38BF2           const [19]: (-225709284)
01EC  04                 const type 4
01ED  15                 string size (21)
01EE  50616E6963427574+  "PanicBut"
01F6  746F6E4163746976+  "tonActiv"
01FE  6174656400         "ated\0"
                         const [20]: "PanicButtonActivated"
0203  01                 const type 3
0204  89BDFBA4           const [21]: (-1527005815)
                         * functions:
0208  0C                 sizep (12)
                         
0209                     ** function [0] definition (level 2)
                         ** start of function **
0209  00                 string size (0)
                         source name: (none)
020A  12                 line defined (18)
020B  1C                 last line defined (28)
020C  00                 nups (0)
020D  03                 numparams (3)
020E  00                 is_vararg (0)
020F  0C                 maxstacksize (12)
                         * code:
0210  19                 sizecode (25)
0211  DD000000           [01] getglobal  3   0        ; gRegion
0215  E440C001           [02] self       3   3   257  ; -1485896174
0219  52010000           [03] move       5   0      
021D  E2808001           [04] call       3   3   2  
0221  1D810000           [05] getglobal  4   2        ; 1074689893
0225  52018001           [06] move       5   3      
0229  22810001           [07] call       4   2   2  
022D  18410000           [08] test       4       1    ; to [10] if false
0231  1A800380           [09] jmp        15           ; to [25]
0235  0A018001           [10] len        4   3      
fail op	21
0239  15008181           [11] concat     0   259 4  
023D  1AC00280           [12] jmp        12           ; to [25]
0241  1D010100           [13] getglobal  4   4        ; 1672515847
0245  52018001           [14] move       5   3      
0249  22010101           [15] call       4   2   4  
024D  1A400180           [16] jmp        6            ; to [23]
0251  64424104           [17] self       9   8   261  ; -1923578185
0255  D2028000           [18] move       11  1      
0259  62428001           [19] call       9   3   1  
025D  98000000           [20] test       2       0    ; to [22] if true
0261  1A000080           [21] jmp        1            ; to [23]
0265  1E008000           [22] return     0   1      
0269  16810000           [23] tforloop   4       2    ; to [25] if exit
026D  1AC0FD7F           [24] jmp        -8           ; to [17]
0271  1E008000           [25] return     0   1      
                         * constants:
0275  06                 sizek (6)
0276  04                 const type 4
0277  08                 string size (8)
0278  67526567696F6E00   "gRegion\0"
                         const [0]: "gRegion"
0280  01                 const type 3
0281  12066FA7           const [1]: (-1485896174)
0285  01                 const type 3
0286  65770E40           const [2]: (1074689893)
028A  03                 const type 3
028B  00000000           const [3]: (0)
028F  01                 const type 3
0290  0791B063           const [4]: (1672515847)
0294  01                 const type 3
0295  B786588D           const [5]: (-1923578185)
                         * functions:
0299  00                 sizep (0)
                         * lines:
029A  19                 sizelineinfo (25)
                         [pc] (line)
029B  13                 [01] (19)
029C  00                 [02] (19)
029D  00                 [03] (19)
029E  00                 [04] (19)
029F  13                 [05] (20)
02A0  00                 [06] (20)
02A1  00                 [07] (20)
02A2  00                 [08] (20)
02A3  13                 [09] (20)
02A4  00                 [10] (20)
02A5  00                 [11] (20)
02A6  00                 [12] (20)
02A7  13                 [13] (21)
02A8  00                 [14] (21)
02A9  00                 [15] (21)
02AA  00                 [16] (21)
02AB  14                 [17] (22)
02AC  00                 [18] (22)
02AD  00                 [19] (22)
02AE  00                 [20] (23)
02AF  14                 [21] (23)
02B0  00                 [22] (24)
02B1  00                 [23] (21)
02B2  00                 [24] (25)
02B3  14                 [25] (28)
                         * locals:
02FF  00                 sizelocvars (0)
                         * upvalues:
0300  00                 sizeupvalues (0)
                         ** end of function **

                         
0301                     ** function [1] definition (level 2)
                         ** start of function **
0301  00                 string size (0)
                         source name: (none)
0302  1E                 line defined (30)
0303  2A                 last line defined (42)
0304  01                 nups (1)
0305  00                 numparams (0)
0306  00                 is_vararg (0)
0307  03                 maxstacksize (3)
                         * code:
0308  24                 sizecode (36)
0309  1D000000           [01] getglobal  0   0        ; 1074689893
030D  53000000           [02] getupval   1   0      
0311  22800001           [03] call       0   2   2  
0315  18000000           [04] test       0       0    ; to [6] if true
0319  1A400180           [05] jmp        6            ; to [12]
031D  1D400000           [06] getglobal  0   1        ; gRegion
0321  24804000           [07] self       0   0   258  ; -774964848
0325  22800001           [08] call       0   2   2  
0329  24C04000           [09] self       0   0   259  ; 537471347
032D  22800001           [10] call       0   2   2  
fail op	8
0331  08000000           [11] setupval   0   0      
0335  13000000           [12] getupval   0   0      
0339  24004100           [13] self       0   0   260  ; -1359205250
033D  22800001           [14] call       0   2   2  
fail op	35
0341  23404100           [15] close      0  
0345  1A800480           [16] jmp        19           ; to [36]
0349  13000000           [17] getupval   0   0      
034D  24804100           [18] self       0   0   262  ; 1884333127
0351  97000000           [19] loadbool   2   0   0    ; false
0355  22408001           [20] call       0   3   1  
0359  1D000000           [21] getglobal  0   0        ; 1074689893
035D  5DC00100           [22] getglobal  1   7        ; _T
0361  4E00C200           [23] gettable   1   1   264  ; "CurrentBreachZone"
0365  22800001           [24] call       0   2   2  
0369  18400000           [25] test       0       1    ; to [27] if false
036D  1A400180           [26] jmp        6            ; to [33]
0371  1DC00100           [27] getglobal  0   7        ; _T
0375  5DC00100           [28] getglobal  1   7        ; _T
0379  4E00C200           [29] gettable   1   1   264  ; "CurrentBreachZone"
037D  0C408084           [30] settable   0   265 1    ; "DeactivatedBreachZone"
0381  1DC00100           [31] getglobal  0   7        ; _T
0385  0C804284           [32] settable   0   264 266  ; "CurrentBreachZone" nil
0389  1DC00200           [33] getglobal  0   11       ; -1817107093
038D  59000300           [34] loadk      1   12       ; "Alarm System: Cleared hull breach"
0391  22400001           [35] call       0   2   1  
0395  1E008000           [36] return     0   1      
                         * constants:
0399  0D                 sizek (13)
039A  01                 const type 3
039B  65770E40           const [0]: (1074689893)
039F  04                 const type 4
03A0  08                 string size (8)
03A1  67526567696F6E00   "gRegion\0"
                         const [1]: "gRegion"
03A9  01                 const type 3
03AA  90F9CED1           const [2]: (-774964848)
03AE  01                 const type 3
03AF  73290920           const [3]: (537471347)
03B3  01                 const type 3
03B4  7E2CFCAE           const [4]: (-1359205250)
03B8  01                 const type 3
03B9  01000000           const [5]: (1)
03BD  01                 const type 3
03BE  47A45070           const [6]: (1884333127)
03C2  04                 const type 4
03C3  03                 string size (3)
03C4  5F5400             "_T\0"
                         const [7]: "_T"
03C7  04                 const type 4
03C8  12                 string size (18)
03C9  43757272656E7442+  "CurrentB"
03D1  72656163685A6F6E+  "reachZon"
03D9  6500               "e\0"
                         const [8]: "CurrentBreachZone"
03DB  04                 const type 4
03DC  16                 string size (22)
03DD  4465616374697661+  "Deactiva"
03E5  7465644272656163+  "tedBreac"
03ED  685A6F6E6500       "hZone\0"
                         const [9]: "DeactivatedBreachZone"
03F3  00                 const type 0
                         const [10]: nil
03F4  01                 const type 3
03F5  6B25B193           const [11]: (-1817107093)
03F9  04                 const type 4
03FA  22                 string size (34)
03FB  416C61726D205379+  "Alarm Sy"
0403  7374656D3A20436C+  "stem: Cl"
040B  6561726564206875+  "eared hu"
0413  6C6C206272656163+  "ll breac"
041B  6800               "h\0"
                         const [12]: "Alarm System: Cleared hull breach"
                         * functions:
041D  00                 sizep (0)
                         * lines:
041E  24                 sizelineinfo (36)
                         [pc] (line)
041F  1F                 [01] (31)
0420  00                 [02] (31)
0421  00                 [03] (31)
0422  00                 [04] (31)
0423  1F                 [05] (31)
0424  00                 [06] (32)
0425  00                 [07] (32)
0426  00                 [08] (32)
0427  1F                 [09] (32)
0428  00                 [10] (32)
0429  00                 [11] (32)
042A  00                 [12] (34)
042B  1F                 [13] (34)
042C  00                 [14] (34)
042D  00                 [15] (34)
042E  00                 [16] (34)
042F  1F                 [17] (35)
0430  00                 [18] (35)
0431  00                 [19] (35)
0432  00                 [20] (35)
0433  20                 [21] (36)
0434  00                 [22] (36)
0435  00                 [23] (36)
0436  00                 [24] (36)
0437  20                 [25] (36)
0438  00                 [26] (36)
0439  00                 [27] (37)
043A  00                 [28] (37)
043B  20                 [29] (37)
043C  00                 [30] (37)
043D  00                 [31] (38)
043E  00                 [32] (38)
043F  20                 [33] (40)
0440  00                 [34] (40)
0441  00                 [35] (40)
0442  00                 [36] (42)
                         * locals:
04AF  00                 sizelocvars (0)
                         * upvalues:
04B0  00                 sizeupvalues (0)
                         ** end of function **

                         
04B1                     ** function [2] definition (level 2)
                         ** start of function **
04B1  00                 string size (0)
                         source name: (none)
04B2  2C                 line defined (44)
04B3  39                 last line defined (57)
04B4  00                 nups (0)
04B5  01                 numparams (1)
04B6  00                 is_vararg (0)
04B7  0E                 maxstacksize (14)
                         * code:
04B8  1F                 sizecode (31)
04B9  64004000           [01] self       1   0   256  ; 1927666530
04BD  62800001           [02] call       1   2   2  
04C1  9D400000           [03] getglobal  2   1        ; 1074689893
04C5  D2008000           [04] move       3   1      
04C9  A2800001           [05] call       2   2   2  
04CD  98400000           [06] test       2       1    ; to [8] if false
04D1  1A800580           [07] jmp        23           ; to [31]
04D5  A480C000           [08] self       2   1   258  ; -2104556066
04D9  A2800001           [09] call       2   2   2  
04DD  DDC00000           [10] getglobal  3   3        ; gRegion
04E1  E400C101           [11] self       3   3   260  ; -1485896174
04E5  5D410100           [12] getglobal  5   5        ; -332969190
04E9  99810100           [13] loadk      6   6        ; "PanicButtonTileEvents"
04ED  62010001           [14] call       5   2   0  
04F1  E2800000           [15] call       3   0   2  
04F5  1DC10100           [16] getglobal  4   7        ; 1672515847
04F9  52018001           [17] move       5   3      
04FD  22010101           [18] call       4   2   4  
0501  1A000280           [19] jmp        9            ; to [29]
0505  64024004           [20] self       9   8   256  ; 1927666530
0509  62820001           [21] call       9   2   2  
050D  A482C004           [22] self       10  9   258  ; -2104556066
0511  A2820001           [23] call       10  2   2  
fail op	35
0515  23800201           [24] close      0  
0519  1A800080           [25] jmp        3            ; to [29]
051D  E4024204           [26] self       11  8   264  ; -1923578185
0521  59430200           [27] loadk      13  9        ; "TriggerPort"
0525  E2428001           [28] call       11  3   1  
0529  16810000           [29] tforloop   4       2    ; to [31] if exit
052D  1A00FD7F           [30] jmp        -11          ; to [20]
0531  1E008000           [31] return     0   1      
                         * constants:
0535  0A                 sizek (10)
0536  01                 const type 3
0537  62DBE572           const [0]: (1927666530)
053B  01                 const type 3
053C  65770E40           const [1]: (1074689893)
0540  01                 const type 3
0541  DE058F82           const [2]: (-2104556066)
0545  04                 const type 4
0546  08                 string size (8)
0547  67526567696F6E00   "gRegion\0"
                         const [3]: "gRegion"
054F  01                 const type 3
0550  12066FA7           const [4]: (-1485896174)
0554  01                 const type 3
0555  1A4B27EC           const [5]: (-332969190)
0559  04                 const type 4
055A  16                 string size (22)
055B  50616E6963427574+  "PanicBut"
0563  746F6E54696C6545+  "tonTileE"
056B  76656E747300       "vents\0"
                         const [6]: "PanicButtonTileEvents"
0571  01                 const type 3
0572  0791B063           const [7]: (1672515847)
0576  01                 const type 3
0577  B786588D           const [8]: (-1923578185)
057B  04                 const type 4
057C  0C                 string size (12)
057D  5472696767657250+  "TriggerP"
0585  6F727400           "ort\0"
                         const [9]: "TriggerPort"
                         * functions:
0589  00                 sizep (0)
                         * lines:
058A  1F                 sizelineinfo (31)
                         [pc] (line)
058B  2D                 [01] (45)
058C  00                 [02] (45)
058D  00                 [03] (46)
058E  00                 [04] (46)
058F  2D                 [05] (46)
0590  00                 [06] (46)
0591  00                 [07] (46)
0592  00                 [08] (47)
0593  2E                 [09] (47)
0594  00                 [10] (48)
0595  00                 [11] (48)
0596  00                 [12] (48)
0597  2E                 [13] (48)
0598  00                 [14] (48)
0599  00                 [15] (48)
059A  00                 [16] (49)
059B  2E                 [17] (49)
059C  00                 [18] (49)
059D  00                 [19] (49)
059E  00                 [20] (50)
059F  2E                 [21] (50)
05A0  00                 [22] (51)
05A1  00                 [23] (51)
05A2  00                 [24] (52)
05A3  2E                 [25] (52)
05A4  00                 [26] (53)
05A5  00                 [27] (53)
05A6  00                 [28] (53)
05A7  2F                 [29] (49)
05A8  00                 [30] (54)
05A9  00                 [31] (57)
                         * locals:
0607  00                 sizelocvars (0)
                         * upvalues:
0608  00                 sizeupvalues (0)
                         ** end of function **

                         
0609                     ** function [3] definition (level 2)
                         ** start of function **
0609  00                 string size (0)
                         source name: (none)
060A  3B                 line defined (59)
060B  4A                 last line defined (74)
060C  02                 nups (2)
060D  00                 numparams (0)
060E  00                 is_vararg (0)
060F  04                 maxstacksize (4)
                         * code:
0610  26                 sizecode (38)
0611  1D000000           [01] getglobal  0   0        ; UNALERT
0615  5D400000           [02] getglobal  1   1        ; gRegion
0619  6480C000           [03] self       1   1   258  ; -1520831144
061D  62800001           [04] call       1   2   2  
0621  58000000           [05] test       1       0    ; to [7] if true
0625  1A000680           [06] jmp        25           ; to [32]
0629  5DC00000           [07] getglobal  1   3        ; 1074689893
062D  93000000           [08] getupval   2   0      
0631  62800001           [09] call       1   2   2  
0635  58000000           [10] test       1       0    ; to [12] if true
0639  1A400180           [11] jmp        6            ; to [18]
063D  5D400000           [12] getglobal  1   1        ; gRegion
0641  6400C100           [13] self       1   1   260  ; -774964848
0645  62800001           [14] call       1   2   2  
0649  6440C100           [15] self       1   1   261  ; 537471347
064D  62800001           [16] call       1   2   2  
fail op	8
0651  48000000           [17] setupval   1   0      
0655  53000000           [18] getupval   1   0      
0659  6480C100           [19] self       1   1   262  ; -375466777
065D  62800001           [20] call       1   2   2  
0661  58000000           [21] test       1       0    ; to [23] if true
0665  1A400080           [22] jmp        2            ; to [25]
0669  1DC00100           [23] getglobal  0   7        ; LOCKDOWN
066D  1AC00280           [24] jmp        12           ; to [37]
0671  53000000           [25] getupval   1   0      
0675  6400C200           [26] self       1   1   264  ; 183469
0679  62800001           [27] call       1   2   2  
067D  58000000           [28] test       1       0    ; to [30] if true
0681  1A800180           [29] jmp        7            ; to [37]
0685  1D400200           [30] getglobal  0   9        ; ALERT
0689  1A000180           [31] jmp        5            ; to [37]
068D  5D800200           [32] getglobal  1   10       ; gGameRules
0691  64C0C200           [33] self       1   1   267  ; -317790213
0695  D3008000           [34] getupval   3   1      
0699  62808001           [35] call       1   3   2  
069D  12008000           [36] move       0   1      
06A1  1E000001           [37] return     0   2      
06A5  1E008000           [38] return     0   1      
                         * constants:
06A9  0C                 sizek (12)
06AA  04                 const type 4
06AB  08                 string size (8)
06AC  554E414C45525400   "UNALERT\0"
                         const [0]: "UNALERT"
06B4  04                 const type 4
06B5  08                 string size (8)
06B6  67526567696F6E00   "gRegion\0"
                         const [1]: "gRegion"
06BE  01                 const type 3
06BF  58F559A5           const [2]: (-1520831144)
06C3  01                 const type 3
06C4  65770E40           const [3]: (1074689893)
06C8  01                 const type 3
06C9  90F9CED1           const [4]: (-774964848)
06CD  01                 const type 3
06CE  73290920           const [5]: (537471347)
06D2  01                 const type 3
06D3  E7D49EE9           const [6]: (-375466777)
06D7  04                 const type 4
06D8  09                 string size (9)
06D9  4C4F434B444F574E+  "LOCKDOWN"
06E1  00                 "\0"
                         const [7]: "LOCKDOWN"
06E2  01                 const type 3
06E3  ADCC0200           const [8]: (183469)
06E7  04                 const type 4
06E8  06                 string size (6)
06E9  414C45525400       "ALERT\0"
                         const [9]: "ALERT"
06EF  04                 const type 4
06F0  0B                 string size (11)
06F1  6747616D6552756C+  "gGameRul"
06F9  657300             "es\0"
                         const [10]: "gGameRules"
06FC  01                 const type 3
06FD  FBE70EED           const [11]: (-317790213)
                         * functions:
0701  00                 sizep (0)
                         * lines:
0702  26                 sizelineinfo (38)
                         [pc] (line)
0703  3C                 [01] (60)
0704  00                 [02] (61)
0705  00                 [03] (61)
0706  00                 [04] (61)
0707  3D                 [05] (61)
0708  00                 [06] (61)
0709  00                 [07] (62)
070A  00                 [08] (62)
070B  3D                 [09] (62)
070C  00                 [10] (62)
070D  00                 [11] (62)
070E  00                 [12] (63)
070F  3D                 [13] (63)
0710  00                 [14] (63)
0711  00                 [15] (63)
0712  00                 [16] (63)
0713  3D                 [17] (63)
0714  00                 [18] (65)
0715  00                 [19] (65)
0716  00                 [20] (65)
0717  3D                 [21] (65)
0718  00                 [22] (65)
0719  00                 [23] (66)
071A  00                 [24] (66)
071B  3E                 [25] (67)
071C  00                 [26] (67)
071D  00                 [27] (67)
071E  00                 [28] (67)
071F  3E                 [29] (67)
0720  00                 [30] (68)
0721  00                 [31] (69)
0722  00                 [32] (71)
0723  3E                 [33] (71)
0724  00                 [34] (71)
0725  00                 [35] (71)
0726  00                 [36] (71)
0727  3E                 [37] (73)
0728  00                 [38] (74)
                         * locals:
079B  00                 sizelocvars (0)
                         * upvalues:
079C  00                 sizeupvalues (0)
                         ** end of function **

                         
079D                     ** function [4] definition (level 2)
                         ** start of function **
079D  00                 string size (0)
                         source name: (none)
079E  4C                 line defined (76)
079F  4E                 last line defined (78)
07A0  01                 nups (1)
07A1  00                 numparams (0)
07A2  00                 is_vararg (0)
07A3  02                 maxstacksize (2)
                         * code:
07A4  04                 sizecode (4)
07A5  13000000           [1] getupval   0   0      
07A9  07008000           [2] tailcall   0   1   0  
07AD  1E000000           [3] return     0   0      
07B1  1E008000           [4] return     0   1      
                         * constants:
07B5  00                 sizek (0)
                         * functions:
07B6  00                 sizep (0)
                         * lines:
07B7  04                 sizelineinfo (4)
                         [pc] (line)
07B8  4D                 [1] (77)
07B9  00                 [2] (77)
07BA  00                 [3] (77)
07BB  00                 [4] (78)
                         * locals:
07C8  00                 sizelocvars (0)
                         * upvalues:
07C9  00                 sizeupvalues (0)
                         ** end of function **

                         
07CA                     ** function [5] definition (level 2)
                         ** start of function **
07CA  00                 string size (0)
                         source name: (none)
07CB  50                 line defined (80)
07CC  59                 last line defined (89)
07CD  00                 nups (0)
07CE  00                 numparams (0)
07CF  00                 is_vararg (0)
07D0  05                 maxstacksize (5)
                         * code:
07D1  1E                 sizecode (30)
07D2  1D000000           [01] getglobal  0   0        ; gGameRules
07D6  24404000           [02] self       0   0   257  ; -502414055
07DA  22800001           [03] call       0   2   2  
07DE  5D800000           [04] getglobal  1   2        ; Lotus_Game
07E2  4EC0C000           [05] gettable   1   1   259  ; "MT_DEFENSE"
fail op	35
07E6  63400000           [06] close      1  
07EA  1AC00080           [07] jmp        4            ; to [12]
07EE  5D800000           [08] getglobal  1   2        ; Lotus_Game
07F2  4E00C100           [09] gettable   1   1   260  ; "MT_SURVIVAL"
fail op	35
07F6  23400000           [10] close      0  
07FA  1A400080           [11] jmp        2            ; to [14]
07FE  57008000           [12] loadbool   1   1   0    ; true
0802  5E000001           [13] return     1   2      
0806  5D800000           [14] getglobal  1   2        ; Lotus_Game
080A  4E40C100           [15] gettable   1   1   261  ; "MT_MOBILE_DEFENSE"
fail op	35
080E  23400000           [16] close      0  
0812  1A400280           [17] jmp        10           ; to [28]
0816  5D000000           [18] getglobal  1   0        ; gGameRules
081A  6480C100           [19] self       1   1   262  ; -317790213
081E  DDC00100           [20] getglobal  3   7        ; -332969190
0822  19010200           [21] loadk      4   8        ; "WaveTimer"
0826  E2000001           [22] call       3   2   0  
082A  62800000           [23] call       1   0   2  
fail op	21
082E  15408084           [24] concat     0   265 1  
0832  1A400080           [25] jmp        2            ; to [28]
0836  57008000           [26] loadbool   1   1   0    ; true
083A  5E000001           [27] return     1   2      
083E  57000000           [28] loadbool   1   0   0    ; false
0842  5E000001           [29] return     1   2      
0846  1E008000           [30] return     0   1      
                         * constants:
084A  0A                 sizek (10)
084B  04                 const type 4
084C  0B                 string size (11)
084D  6747616D6552756C+  "gGameRul"
0855  657300             "es\0"
                         const [0]: "gGameRules"
0858  01                 const type 3
0859  19C50DE2           const [1]: (-502414055)
085D  04                 const type 4
085E  0B                 string size (11)
085F  4C6F7475735F4761+  "Lotus_Ga"
0867  6D6500             "me\0"
                         const [2]: "Lotus_Game"
086A  04                 const type 4
086B  0B                 string size (11)
086C  4D545F444546454E+  "MT_DEFEN"
0874  534500             "SE\0"
                         const [3]: "MT_DEFENSE"
0877  04                 const type 4
0878  0C                 string size (12)
0879  4D545F5355525649+  "MT_SURVI"
0881  56414C00           "VAL\0"
                         const [4]: "MT_SURVIVAL"
0885  04                 const type 4
0886  12                 string size (18)
0887  4D545F4D4F42494C+  "MT_MOBIL"
088F  455F444546454E53+  "E_DEFENS"
0897  4500               "E\0"
                         const [5]: "MT_MOBILE_DEFENSE"
0899  01                 const type 3
089A  FBE70EED           const [6]: (-317790213)
089E  01                 const type 3
089F  1A4B27EC           const [7]: (-332969190)
08A3  04                 const type 4
08A4  0A                 string size (10)
08A5  5761766554696D65+  "WaveTime"
08AD  7200               "r\0"
                         const [8]: "WaveTimer"
08AF  03                 const type 3
08B0  00000000           const [9]: (0)
                         * functions:
08B4  00                 sizep (0)
                         * lines:
08B5  1E                 sizelineinfo (30)
                         [pc] (line)
08B6  51                 [01] (81)
08B7  00                 [02] (81)
08B8  00                 [03] (81)
08B9  00                 [04] (82)
08BA  51                 [05] (82)
08BB  00                 [06] (82)
08BC  00                 [07] (82)
08BD  00                 [08] (82)
08BE  51                 [09] (82)
08BF  00                 [10] (82)
08C0  00                 [11] (82)
08C1  00                 [12] (83)
08C2  52                 [13] (83)
08C3  00                 [14] (85)
08C4  00                 [15] (85)
08C5  00                 [16] (85)
08C6  52                 [17] (85)
08C7  00                 [18] (85)
08C8  00                 [19] (85)
08C9  00                 [20] (85)
08CA  52                 [21] (85)
08CB  00                 [22] (85)
08CC  00                 [23] (85)
08CD  00                 [24] (85)
08CE  52                 [25] (85)
08CF  00                 [26] (86)
08D0  00                 [27] (86)
08D1  00                 [28] (88)
08D2  52                 [29] (88)
08D3  00                 [30] (89)
                         * locals:
092E  00                 sizelocvars (0)
                         * upvalues:
092F  00                 sizeupvalues (0)
                         ** end of function **

                         
0930                     ** function [6] definition (level 2)
                         ** start of function **
0930  00                 string size (0)
                         source name: (none)
0931  5B                 line defined (91)
0932  86                 last line defined (134)
0933  01                 nups (5)
0934  05                 numparams (2)
0935  02                 is_vararg (0)
0936  00                 maxstacksize (8)
                         * code:
0938  6A                 sizecode (106)
0939  93000000           [001] getupval   2   0      
093D  A2808000           [002] call       2   1   2  
0941  DD000000           [003] getglobal  3   0        ; -1817107093
0945  19410000           [004] loadk      4   1        ; "Alarm System: Triggering panic events, current status = "
0949  52010001           [005] move       5   2      
094D  99810000           [006] loadk      6   2        ; ", new status = "
0951  D2010000           [007] move       7   0      
0955  02C10102           [008] concat     4   4   7  
0959  E2400001           [009] call       3   2   1  
095D  D3008000           [010] getupval   3   1      
0961  E2808000           [011] call       3   1   2  
0965  D8400000           [012] test       3       1    ; to [14] if false
0969  1A000080           [013] jmp        1            ; to [15]
096D  D2008000           [014] move       3   1      
0971  1DC10000           [015] getglobal  4   3        ; LOCKDOWN
fail op	35
0975  23000100           [016] close      0  
0979  1A400480           [017] jmp        18           ; to [36]
097D  13010001           [018] getupval   4   2      
0981  24014102           [019] self       4   4   260  ; -1560083373
0985  97018000           [020] loadbool   6   1   0    ; true
0989  D3018001           [021] getupval   7   3      
098D  22410002           [022] call       4   4   1  
0991  13010002           [023] getupval   4   4      
0995  5D410100           [024] getglobal  5   5        ; -332969190
0999  99810100           [025] loadk      6   6        ; "DoorHint"
099D  62810001           [026] call       5   2   2  
09A1  99C10100           [027] loadk      6   7        ; "Lock"
09A5  22418001           [028] call       4   3   1  
09A9  13010002           [029] getupval   4   4      
09AD  5D410100           [030] getglobal  5   5        ; -332969190
09B1  99010200           [031] loadk      6   8        ; "PanicLight"
09B5  62810001           [032] call       5   2   2  
09B9  99410200           [033] loadk      6   9        ; "TurnOn"
09BD  22418001           [034] call       4   3   1  
09C1  1A400980           [035] jmp        38           ; to [74]
09C5  13010001           [036] getupval   4   2      
09C9  24014102           [037] self       4   4   260  ; -1560083373
09CD  97010000           [038] loadbool   6   0   0    ; false
09D1  D3018001           [039] getupval   7   3      
09D5  22410002           [040] call       4   4   1  
09D9  1DC10000           [041] getglobal  4   3        ; LOCKDOWN
fail op	35
09DD  23000101           [042] close      0  
09E1  1AC00280           [043] jmp        12           ; to [56]
09E5  13010002           [044] getupval   4   4      
09E9  5D410100           [045] getglobal  5   5        ; -332969190
09ED  99810100           [046] loadk      6   6        ; "DoorHint"
09F1  62810001           [047] call       5   2   2  
09F5  99810200           [048] loadk      6   10       ; "Unlock"
09F9  22418001           [049] call       4   3   1  
09FD  13010002           [050] getupval   4   4      
0A01  5D410100           [051] getglobal  5   5        ; -332969190
0A05  99010200           [052] loadk      6   8        ; "PanicLight"
0A09  62810001           [053] call       5   2   2  
0A0D  99C10200           [054] loadk      6   11       ; "TurnOff"
0A11  22418001           [055] call       4   3   1  
0A15  13010002           [056] getupval   4   4      
0A19  5D410100           [057] getglobal  5   5        ; -332969190
0A1D  99010300           [058] loadk      6   12       ; "Alarm"
0A21  62810001           [059] call       5   2   2  
0A25  99410300           [060] loadk      6   13       ; "Disable"
0A29  22418001           [061] call       4   3   1  
0A2D  13010002           [062] getupval   4   4      
0A31  5D410100           [063] getglobal  5   5        ; -332969190
0A35  99810300           [064] loadk      6   14       ; "AlarmFlare"
0A39  62810001           [065] call       5   2   2  
0A3D  99410300           [066] loadk      6   13       ; "Disable"
0A41  22418001           [067] call       4   3   1  
0A45  13010002           [068] getupval   4   4      
0A49  5D410100           [069] getglobal  5   5        ; -332969190
0A4D  99C10300           [070] loadk      6   15       ; "AlarmLight"
0A51  62810001           [071] call       5   2   2  
0A55  99410300           [072] loadk      6   13       ; "Disable"
0A59  22418001           [073] call       4   3   1  
0A5D  1D010400           [074] getglobal  4   16       ; ALERT
fail op	33
0A61  21000002           [075] tforloop   0       0    ; to [77] if exit
0A65  1A000280           [076] jmp        9            ; to [86]
0A69  13010001           [077] getupval   4   2      
0A6D  24414402           [078] self       4   4   273  ; 447196028
0A71  97018000           [079] loadbool   6   1   0    ; true
0A75  22418001           [080] call       4   3   1  
0A79  1D810400           [081] getglobal  4   18       ; gGameRules
0A7D  24C14402           [082] self       4   4   275  ; 1892446298
0A81  97018000           [083] loadbool   6   1   0    ; true
0A85  22418001           [084] call       4   3   1  
0A89  1A000380           [085] jmp        13           ; to [99]
0A8D  1D010500           [086] getglobal  4   20       ; UNALERT
fail op	35
0A91  23000100           [087] close      0  
0A95  1A400280           [088] jmp        10           ; to [99]
0A99  D8400000           [089] test       3       1    ; to [91] if false
0A9D  1AC00080           [090] jmp        4            ; to [95]
0AA1  13010001           [091] getupval   4   2      
0AA5  24414402           [092] self       4   4   273  ; 447196028
0AA9  97010000           [093] loadbool   6   0   0    ; false
0AAD  22418001           [094] call       4   3   1  
0AB1  1D810400           [095] getglobal  4   18       ; gGameRules
0AB5  24C14402           [096] self       4   4   275  ; 1892446298
0AB9  97010000           [097] loadbool   6   0   0    ; false
0ABD  22418001           [098] call       4   3   1  
0AC1  13010002           [099] getupval   4   4      
0AC5  5D410100           [100] getglobal  5   5        ; -332969190
0AC9  99410500           [101] loadk      6   21       ; "PanicButtonMasterScript"
0ACD  62810001           [102] call       5   2   2  
0AD1  99810500           [103] loadk      6   22       ; "Execute"
0AD5  D7018000           [104] loadbool   7   1   0    ; true
0AD9  22410002           [105] call       4   4   1  
0ADD  1E008000           [106] return     0   1      
                         * constants:
0AE1  17                 sizek (23)
0AE2  01                 const type 3
0AE3  6B25B193           const [0]: (-1817107093)
0AE7  04                 const type 4
0AE8  39                 string size (57)
0AE9  416C61726D205379+  "Alarm Sy"
0AF1  7374656D3A205472+  "stem: Tr"
0AF9  6967676572696E67+  "iggering"
0B01  2070616E69632065+  " panic e"
0B09  76656E74732C2063+  "vents, c"
0B11  757272656E742073+  "urrent s"
0B19  7461747573203D20+  "tatus = "
0B21  00                 "\0"
                         const [1]: "Alarm System: Triggering panic events, current status = "
0B22  04                 const type 4
0B23  10                 string size (16)
0B24  2C206E6577207374+  ", new st"
0B2C  61747573203D2000   "atus = \0"
                         const [2]: ", new status = "
0B34  04                 const type 4
0B35  09                 string size (9)
0B36  4C4F434B444F574E+  "LOCKDOWN"
0B3E  00                 "\0"
                         const [3]: "LOCKDOWN"
0B3F  01                 const type 3
0B40  530403A3           const [4]: (-1560083373)
0B44  01                 const type 3
0B45  1A4B27EC           const [5]: (-332969190)
0B49  04                 const type 4
0B4A  09                 string size (9)
0B4B  446F6F7248696E74+  "DoorHint"
0B53  00                 "\0"
                         const [6]: "DoorHint"
0B54  04                 const type 4
0B55  05                 string size (5)
0B56  4C6F636B00         "Lock\0"
                         const [7]: "Lock"
0B5B  04                 const type 4
0B5C  0B                 string size (11)
0B5D  50616E69634C6967+  "PanicLig"
0B65  687400             "ht\0"
                         const [8]: "PanicLight"
0B68  04                 const type 4
0B69  07                 string size (7)
0B6A  5475726E4F6E00     "TurnOn\0"
                         const [9]: "TurnOn"
0B71  04                 const type 4
0B72  07                 string size (7)
0B73  556E6C6F636B00     "Unlock\0"
                         const [10]: "Unlock"
0B7A  04                 const type 4
0B7B  08                 string size (8)
0B7C  5475726E4F666600   "TurnOff\0"
                         const [11]: "TurnOff"
0B84  04                 const type 4
0B85  06                 string size (6)
0B86  416C61726D00       "Alarm\0"
                         const [12]: "Alarm"
0B8C  04                 const type 4
0B8D  08                 string size (8)
0B8E  44697361626C6500   "Disable\0"
                         const [13]: "Disable"
0B96  04                 const type 4
0B97  0B                 string size (11)
0B98  416C61726D466C61+  "AlarmFla"
0BA0  726500             "re\0"
                         const [14]: "AlarmFlare"
0BA3  04                 const type 4
0BA4  0B                 string size (11)
0BA5  416C61726D4C6967+  "AlarmLig"
0BAD  687400             "ht\0"
                         const [15]: "AlarmLight"
0BB0  04                 const type 4
0BB1  06                 string size (6)
0BB2  414C45525400       "ALERT\0"
                         const [16]: "ALERT"
0BB8  01                 const type 3
0BB9  7CABA71A           const [17]: (447196028)
0BBD  04                 const type 4
0BBE  0B                 string size (11)
0BBF  6747616D6552756C+  "gGameRul"
0BC7  657300             "es\0"
                         const [18]: "gGameRules"
0BCA  01                 const type 3
0BCB  5A70CC70           const [19]: (1892446298)
0BCF  04                 const type 4
0BD0  08                 string size (8)
0BD1  554E414C45525400   "UNALERT\0"
                         const [20]: "UNALERT"
0BD9  04                 const type 4
0BDA  18                 string size (24)
0BDB  50616E6963427574+  "PanicBut"
0BE3  746F6E4D61737465+  "tonMaste"
0BEB  7253637269707400   "rScript\0"
                         const [21]: "PanicButtonMasterScript"
0BF3  04                 const type 4
0BF4  08                 string size (8)
0BF5  4578656375746500   "Execute\0"
                         const [22]: "Execute"
                         * functions:
0BFD  00                 sizep (0)
                         * lines:
0BFE  6A                 sizelineinfo (106)
                         [pc] (line)
0BFF  5C                 [001] (92)
0C00  00                 [002] (92)
0C01  00                 [003] (93)
0C02  00                 [004] (93)
0C03  5C                 [005] (93)
0C04  00                 [006] (93)
0C05  00                 [007] (93)
0C06  00                 [008] (93)
0C07  5D                 [009] (93)
0C08  00                 [010] (96)
0C09  00                 [011] (96)
0C0A  00                 [012] (96)
0C0B  5D                 [013] (96)
0C0C  00                 [014] (96)
0C0D  00                 [015] (98)
0C0E  00                 [016] (98)
0C0F  5D                 [017] (98)
0C10  00                 [018] (99)
0C11  00                 [019] (99)
0C12  00                 [020] (99)
0C13  5D                 [021] (99)
0C14  00                 [022] (99)
0C15  00                 [023] (101)
0C16  00                 [024] (101)
0C17  5D                 [025] (101)
0C18  00                 [026] (101)
0C19  00                 [027] (101)
0C1A  00                 [028] (101)
0C1B  5D                 [029] (102)
0C1C  00                 [030] (102)
0C1D  00                 [031] (102)
0C1E  00                 [032] (102)
0C1F  5D                 [033] (102)
0C20  00                 [034] (102)
0C21  00                 [035] (102)
0C22  00                 [036] (107)
0C23  60                 [037] (107)
0C24  00                 [038] (107)
0C25  00                 [039] (107)
0C26  00                 [040] (107)
0C27  60                 [041] (108)
0C28  00                 [042] (108)
0C29  00                 [043] (108)
0C2A  00                 [044] (109)
0C2B  60                 [045] (109)
0C2C  00                 [046] (109)
0C2D  00                 [047] (109)
0C2E  00                 [048] (109)
0C2F  60                 [049] (109)
0C30  00                 [050] (110)
0C31  00                 [051] (110)
0C32  00                 [052] (110)
0C33  60                 [053] (110)
0C34  00                 [054] (110)
0C35  00                 [055] (110)
0C36  00                 [056] (113)
0C37  62                 [057] (113)
0C38  00                 [058] (113)
0C39  00                 [059] (113)
0C3A  00                 [060] (113)
0C3B  62                 [061] (113)
0C3C  00                 [062] (114)
0C3D  00                 [063] (114)
0C3E  00                 [064] (114)
0C3F  62                 [065] (114)
0C40  00                 [066] (114)
0C41  00                 [067] (114)
0C42  00                 [068] (115)
0C43  63                 [069] (115)
0C44  00                 [070] (115)
0C45  00                 [071] (115)
0C46  00                 [072] (115)
0C47  63                 [073] (115)
0C48  00                 [074] (120)
0C49  00                 [075] (120)
0C4A  00                 [076] (120)
0C4B  63                 [077] (121)
0C4C  00                 [078] (121)
0C4D  00                 [079] (121)
0C4E  00                 [080] (121)
0C4F  63                 [081] (122)
0C50  00                 [082] (122)
0C51  00                 [083] (122)
0C52  00                 [084] (122)
0C53  63                 [085] (122)
0C54  00                 [086] (123)
0C55  00                 [087] (123)
0C56  00                 [088] (123)
0C57  65                 [089] (124)
0C58  00                 [090] (124)
0C59  00                 [091] (125)
0C5A  00                 [092] (125)
0C5B  65                 [093] (125)
0C5C  00                 [094] (125)
0C5D  00                 [095] (127)
0C5E  00                 [096] (127)
0C5F  65                 [097] (127)
0C60  00                 [098] (127)
0C61  00                 [099] (-126)
0C62  00                 [100] (-126)
0C63  65                 [101] (-126)
0C64  00                 [102] (-126)
0C65  00                 [103] (-126)
0C66  00                 [104] (-126)
0C67  65                 [105] (-126)
0C68  00                 [106] (-122)
                         * locals:
0DA7  00                 sizelocvars (0)
                         * upvalues:
0DA8  00                 sizeupvalues (0)
                         ** end of function **

                         
0DA9                     ** function [7] definition (level 2)
                         ** start of function **
0DA9  00                 string size (0)
                         source name: (none)
0DAB  01                 line defined (136)
0DAC  97                 last line defined (151)
0DAD  01                 nups (3)
0DAE  03                 numparams (1)
0DAF  01                 is_vararg (0)
0DB0  00                 maxstacksize (5)
                         * code:
0DB2  2B                 sizecode (43)
0DB3  5D000000           [01] getglobal  1   0        ; gRegion
0DB7  6440C000           [02] self       1   1   257  ; -1520831144
0DBB  62800001           [03] call       1   2   2  
0DBF  58400000           [04] test       1       1    ; to [6] if false
0DC3  1A000080           [05] jmp        1            ; to [7]
0DC7  1E008000           [06] return     0   1      
0DCB  5D800000           [07] getglobal  1   2        ; 1074689893
0DCF  93000000           [08] getupval   2   0      
0DD3  62800001           [09] call       1   2   2  
0DD7  58000000           [10] test       1       0    ; to [12] if true
0DDB  1A400180           [11] jmp        6            ; to [18]
0DDF  5D000000           [12] getglobal  1   0        ; gRegion
0DE3  64C0C000           [13] self       1   1   259  ; -774964848
0DE7  62800001           [14] call       1   2   2  
0DEB  6400C100           [15] self       1   1   260  ; 537471347
0DEF  62800001           [16] call       1   2   2  
fail op	8
0DF3  48000000           [17] setupval   1   0      
0DF7  5D400100           [18] getglobal  1   5        ; UNALERT
fail op	35
0DFB  23400000           [19] close      0  
0DFF  1AC00080           [20] jmp        4            ; to [25]
0E03  53008000           [21] getupval   1   1      
0E07  9D400100           [22] getglobal  2   5        ; UNALERT
0E0B  62400001           [23] call       1   2   1  
0E0F  1A000380           [24] jmp        13           ; to [38]
0E13  5D800100           [25] getglobal  1   6        ; ALERT
fail op	35
0E17  23400000           [26] close      0  
0E1B  1AC00080           [27] jmp        4            ; to [32]
0E1F  53008000           [28] getupval   1   1      
0E23  9D800100           [29] getglobal  2   6        ; ALERT
0E27  62400001           [30] call       1   2   1  
0E2B  1A400180           [31] jmp        6            ; to [38]
0E2F  5DC00100           [32] getglobal  1   7        ; LOCKDOWN
fail op	35
0E33  23400000           [33] close      0  
0E37  1A800080           [34] jmp        3            ; to [38]
0E3B  53008000           [35] getupval   1   1      
0E3F  9DC00100           [36] getglobal  2   7        ; LOCKDOWN
0E43  62400001           [37] call       1   2   1  
0E47  5D000200           [38] getglobal  1   8        ; gGameRules
0E4B  6440C200           [39] self       1   1   265  ; -803877924
0E4F  D3000001           [40] getupval   3   2      
0E53  12010000           [41] move       4   0      
0E57  62400002           [42] call       1   4   1  
0E5B  1E008000           [43] return     0   1      
                         * constants:
0E5F  0A                 sizek (10)
0E60  04                 const type 4
0E61  08                 string size (8)
0E62  67526567696F6E00   "gRegion\0"
                         const [0]: "gRegion"
0E6A  01                 const type 3
0E6B  58F559A5           const [1]: (-1520831144)
0E6F  01                 const type 3
0E70  65770E40           const [2]: (1074689893)
0E74  01                 const type 3
0E75  90F9CED1           const [3]: (-774964848)
0E79  01                 const type 3
0E7A  73290920           const [4]: (537471347)
0E7E  04                 const type 4
0E7F  08                 string size (8)
0E80  554E414C45525400   "UNALERT\0"
                         const [5]: "UNALERT"
0E88  04                 const type 4
0E89  06                 string size (6)
0E8A  414C45525400       "ALERT\0"
                         const [6]: "ALERT"
0E90  04                 const type 4
0E91  09                 string size (9)
0E92  4C4F434B444F574E+  "LOCKDOWN"
0E9A  00                 "\0"
                         const [7]: "LOCKDOWN"
0E9B  04                 const type 4
0E9C  0B                 string size (11)
0E9D  6747616D6552756C+  "gGameRul"
0EA5  657300             "es\0"
                         const [8]: "gGameRules"
0EA8  01                 const type 3
0EA9  DCCB15D0           const [9]: (-803877924)
                         * functions:
0EAD  00                 sizep (0)
                         * lines:
0EAE  2B                 sizelineinfo (43)
                         [pc] (line)
0EAF  89                 [01] (-119)
0EB0  00                 [02] (-119)
0EB1  00                 [03] (-119)
0EB2  00                 [04] (-119)
0EB3  89                 [05] (-119)
0EB4  00                 [06] (-118)
0EB5  00                 [07] (-116)
0EB6  00                 [08] (-116)
0EB7  89                 [09] (-116)
0EB8  00                 [10] (-116)
0EB9  00                 [11] (-116)
0EBA  00                 [12] (-115)
0EBB  89                 [13] (-115)
0EBC  00                 [14] (-115)
0EBD  00                 [15] (-115)
0EBE  00                 [16] (-115)
0EBF  89                 [17] (-115)
0EC0  00                 [18] (-113)
0EC1  00                 [19] (-113)
0EC2  00                 [20] (-113)
0EC3  8A                 [21] (-112)
0EC4  00                 [22] (-112)
0EC5  00                 [23] (-112)
0EC6  00                 [24] (-112)
0EC7  8C                 [25] (-111)
0EC8  00                 [26] (-111)
0EC9  00                 [27] (-111)
0ECA  00                 [28] (-110)
0ECB  8C                 [29] (-110)
0ECC  00                 [30] (-110)
0ECD  00                 [31] (-110)
0ECE  00                 [32] (-109)
0ECF  8C                 [33] (-109)
0ED0  00                 [34] (-109)
0ED1  00                 [35] (-108)
0ED2  00                 [36] (-108)
0ED3  8C                 [37] (-108)
0ED4  00                 [38] (-106)
0ED5  00                 [39] (-106)
0ED6  00                 [40] (-106)
0ED7  8C                 [41] (-106)
0ED8  00                 [42] (-106)
0ED9  00                 [43] (-105)
                         * locals:
0F5B  00                 sizelocvars (0)
                         * upvalues:
0F5C  00                 sizeupvalues (0)
                         ** end of function **

                         
0F5D                     ** function [8] definition (level 2)
                         ** start of function **
0F5D  00                 string size (0)
                         source name: (none)
0F5F  01                 line defined (153)
0F60  CC                 last line defined (204)
0F61  01                 nups (0)
0F62  00                 numparams (2)
0F63  02                 is_vararg (0)
0F64  00                 maxstacksize (35)
                         * code:
0F67  01                 sizecode (137)
0F68  9D000000           [001] getglobal  2   0        ; 1074689893
0F6C  DD400000           [002] getglobal  3   1        ; _T
0F70  CE80C001           [003] gettable   3   3   258  ; "harlequinObjectChange"
0F74  A2800001           [004] call       2   2   2  
0F78  98400000           [005] test       2       1    ; to [7] if false
0F7C  1A402080           [006] jmp        130          ; to [137]
0F80  9D000000           [007] getglobal  2   0        ; 1074689893
0F84  D2000000           [008] move       3   0      
0F88  A2800001           [009] call       2   2   2  
0F8C  98400000           [010] test       2       1    ; to [12] if false
0F90  1A001F80           [011] jmp        125          ; to [137]
0F94  9D000000           [012] getglobal  2   0        ; 1074689893
0F98  E4C0C000           [013] self       3   1   259  ; -1411785325
0F9C  E2000001           [014] call       3   2   0  
0FA0  A2800000           [015] call       2   0   2  
0FA4  98400000           [016] test       2       1    ; to [18] if false
0FA8  1A801D80           [017] jmp        119          ; to [137]
0FAC  A4004100           [018] self       2   0   260  ; 366271214
0FB0  1D410100           [019] getglobal  4   5        ; gDecorationType
0FB4  A2808001           [020] call       2   3   2  
0FB8  DD000000           [021] getglobal  3   0        ; 1074689893
0FBC  12010001           [022] move       4   2      
0FC0  E2800001           [023] call       3   2   2  
0FC4  D8400000           [024] test       3       1    ; to [26] if false
0FC8  1A801B80           [025] jmp        111          ; to [137]
0FCC  DD800100           [026] getglobal  3   6        ; gRegion
0FD0  E4C0C101           [027] self       3   3   263  ; 1224466847
0FD4  E2800001           [028] call       3   2   2  
0FD8  19010200           [029] loadk      4   8        ; 0
0FDC  4A018001           [030] len        5   3      
0FE0  99010200           [031] loadk      6   8        ; 0
0FE4  10811980           [032] forprep    4   103      ; to [136]
0FE8  0EC28101           [033] gettable   8   3   7  
0FEC  24424204           [034] self       8   8   265  ; 1808941484
0FF0  22820001           [035] call       8   2   2  
0FF4  5D020000           [036] getglobal  9   0        ; 1074689893
0FF8  9D420000           [037] getglobal  10  1        ; _T
0FFC  8E824005           [038] gettable   10  10  258  ; "harlequinObjectChange"
1000  8E020205           [039] gettable   10  10  8  
1004  62820001           [040] call       9   2   2  
1008  58420000           [041] test       9       1    ; to [43] if false
100C  1A001780           [042] jmp        93           ; to [136]
1010  59020200           [043] loadk      9   8        ; 0
1014  8A020001           [044] len        10  2      
1018  D9020200           [045] loadk      11  8        ; 0
101C  50C21580           [046] forprep    9   88       ; to [135]
1020  5D430000           [047] getglobal  13  1        ; _T
1024  4E83C006           [048] gettable   13  13  258  ; "harlequinObjectChange"
1028  4E038206           [049] gettable   13  13  8  
102C  99030200           [050] loadk      14  8        ; 0
1030  CA038006           [051] len        15  13     
1034  19040200           [052] loadk      16  8        ; 0
1038  90C31380           [053] forprep    14  80       ; to [134]
103C  8E040301           [054] gettable   18  2   12 
1040  CE448406           [055] gettable   19  13  17 
1044  CE84C209           [056] gettable   19  19  266  ; "object"
fail op	35
1048  23C00409           [057] close      0  
104C  1A801280           [058] jmp        75           ; to [134]
1050  9D840100           [059] getglobal  18  6        ; gRegion
1054  A4C44209           [060] self       18  18  267  ; -1110225722
1058  0E458406           [061] gettable   20  13  17 
105C  0E05430A           [062] gettable   20  20  268  ; "params"
1060  0E45430A           [063] gettable   20  20  269  ; "consoleExplosion"
1064  64854300           [064] self       21  0   270  ; 1839670529
1068  62850001           [065] call       21  2   2  
106C  9DC50300           [066] getglobal  22  15       ; ZERO_ROTATION
1070  A2448002           [067] call       18  5   1  
1074  8E040301           [068] gettable   18  2   12 
1078  DD040000           [069] getglobal  19  0        ; 1074689893
107C  0EC58101           [070] gettable   20  3   7  
1080  2405440A           [071] self       20  20  272  ; -2135866365
1084  22050001           [072] call       20  2   0  
1088  E2840000           [073] call       19  0   2  
108C  D8440000           [074] test       19      1    ; to [76] if false
1090  1AC00180           [075] jmp        8            ; to [84]
1094  CEC48101           [076] gettable   19  3   7  
1098  E404C409           [077] self       19  19  272  ; -2135866365
109C  E2840001           [078] call       19  2   2  
10A0  E444C409           [079] self       19  19  273  ; -1917464545
10A4  E2840001           [080] call       19  2   2  
10A8  E484C409           [081] self       19  19  274  ; 1769516121
10AC  E2840001           [082] call       19  2   2  
10B0  92048009           [083] move       18  19     
10B4  DD040000           [084] getglobal  19  0        ; 1074689893
10B8  1D450000           [085] getglobal  20  1        ; _T
10BC  0E85400A           [086] gettable   20  20  258  ; "harlequinObjectChange"
10C0  0E05020A           [087] gettable   20  20  8  
10C4  0E45040A           [088] gettable   20  20  17 
10C8  0E05430A           [089] gettable   20  20  268  ; "params"
10CC  0EC5440A           [090] gettable   20  20  275  ; "consoleAgent"
10D0  E2840001           [091] call       19  2   2  
10D4  D8440000           [092] test       19      1    ; to [94] if false
10D8  1AC00180           [093] jmp        8            ; to [102]
10DC  DD440000           [094] getglobal  19  1        ; _T
10E0  CE84C009           [095] gettable   19  19  258  ; "harlequinObjectChange"
10E4  CE048209           [096] gettable   19  19  8  
10E8  CE448409           [097] gettable   19  19  17 
10EC  CE04C309           [098] gettable   19  19  268  ; "params"
10F0  CEC4C409           [099] gettable   19  19  275  ; "consoleAgent"
10F4  E404C509           [100] self       19  19  276  ; -565811444
10F8  E2440001           [101] call       19  2   1  
10FC  DD840100           [102] getglobal  19  6        ; gRegion
1100  E444C509           [103] self       19  19  277  ; 1271047331
1104  4EC58101           [104] gettable   21  3   7  
1108  6405C40A           [105] self       21  21  272  ; -2135866365
110C  62850001           [106] call       21  2   2  
1110  8E050301           [107] gettable   22  2   12 
1114  A485430B           [108] self       22  22  270  ; 1839670529
1118  A2850001           [109] call       22  2   2  
111C  CE458406           [110] gettable   23  13  17 
1120  CE05C30B           [111] gettable   23  23  268  ; "params"
1124  CE85C50B           [112] gettable   23  23  278  ; "consoleDamage"
1128  0E468406           [113] gettable   24  13  17 
112C  0E06430C           [114] gettable   24  24  268  ; "params"
1130  0EC6450C           [115] gettable   24  24  279  ; "consoleRange"
1134  59060600           [116] loadk      25  24       ; 0
1138  9D460600           [117] getglobal  26  25       ; Engine
113C  8E86460D           [118] gettable   26  26  282  ; "DT_EXPLOSION"
1140  CE060301           [119] gettable   27  2   12 
1144  12070009           [120] move       28  18     
1148  5DC70600           [121] getglobal  29  27       ; Game
114C  4E07C70E           [122] gettable   29  29  284  ; "PT_KNOCKED_DOWN"
1150  97078000           [123] loadbool   30  1   0    ; true
1154  D7078000           [124] loadbool   31  1   0    ; true
1158  17080000           [125] loadbool   32  0   0    ; false
115C  59080200           [126] loadk      33  8        ; 0
1160  97088000           [127] loadbool   34  1   0    ; true
1164  E2440008           [128] call       19  16  1  
1168  DD440700           [129] getglobal  19  29       ; -1817107093
116C  19850700           [130] loadk      20  30       ; "Alarm System: Mirage trap triggered"
1170  E2440001           [131] call       19  2   1  
1174  D7048000           [132] loadbool   19  1   0    ; true
1178  DE040001           [133] return     19  2      
117C  9483EB7F           [134] forloop    14  -81      ; to [54] if loop
1180  5482E97F           [135] forloop    9   -89      ; to [47] if loop
1184  14C1E57F           [136] forloop    4   -104     ; to [33] if loop
1188  1E008000           [137] return     0   1      
                         * constants:
118C  1F                 sizek (31)
118D  01                 const type 3
118E  65770E40           const [0]: (1074689893)
1192  04                 const type 4
1193  03                 string size (3)
1194  5F5400             "_T\0"
                         const [1]: "_T"
1197  04                 const type 4
1198  16                 string size (22)
1199  6861726C65717569+  "harlequi"
11A1  6E4F626A65637443+  "nObjectC"
11A9  68616E676500       "hange\0"
                         const [2]: "harlequinObjectChange"
11AF  01                 const type 3
11B0  93DDD9AB           const [3]: (-1411785325)
11B4  01                 const type 3
11B5  EEDAD415           const [4]: (366271214)
11B9  04                 const type 4
11BA  10                 string size (16)
11BB  674465636F726174+  "gDecorat"
11C3  696F6E5479706500   "ionType\0"
                         const [5]: "gDecorationType"
11CB  04                 const type 4
11CC  08                 string size (8)
11CD  67526567696F6E00   "gRegion\0"
                         const [6]: "gRegion"
11D5  01                 const type 3
11D6  9FE1FB48           const [7]: (1224466847)
11DA  03                 const type 3
11DB  0000803F           const [8]: (0)
11DF  01                 const type 3
11E0  AC41D26B           const [9]: (1808941484)
11E4  04                 const type 4
11E5  07                 string size (7)
11E6  6F626A65637400     "object\0"
                         const [10]: "object"
11ED  01                 const type 3
11EE  C64CD3BD           const [11]: (-1110225722)
11F2  04                 const type 4
11F3  07                 string size (7)
11F4  706172616D7300     "params\0"
                         const [12]: "params"
11FB  04                 const type 4
11FC  11                 string size (17)
11FD  636F6E736F6C6545+  "consoleE"
1205  78706C6F73696F6E+  "xplosion"
120D  00                 "\0"
                         const [13]: "consoleExplosion"
120E  01                 const type 3
120F  0125A76D           const [14]: (1839670529)
1213  04                 const type 4
1214  0E                 string size (14)
1215  5A45524F5F524F54+  "ZERO_ROT"
121D  4154494F4E00       "ATION\0"
                         const [15]: "ZERO_ROTATION"
1223  01                 const type 3
1224  0344B180           const [16]: (-2135866365)
1228  01                 const type 3
1229  1FD0B58D           const [17]: (-1917464545)
122D  01                 const type 3
122E  59AC7869           const [18]: (1769516121)
1232  04                 const type 4
1233  0D                 string size (13)
1234  636F6E736F6C6541+  "consoleA"
123C  67656E7400         "gent\0"
                         const [19]: "consoleAgent"
1241  01                 const type 3
1242  0C6746DE           const [20]: (-565811444)
1246  01                 const type 3
1247  A3A4C24B           const [21]: (1271047331)
124B  04                 const type 4
124C  0E                 string size (14)
124D  636F6E736F6C6544+  "consoleD"
1255  616D61676500       "amage\0"
                         const [22]: "consoleDamage"
125B  04                 const type 4
125C  0D                 string size (13)
125D  636F6E736F6C6552+  "consoleR"
1265  616E676500         "ange\0"
                         const [23]: "consoleRange"
126A  03                 const type 3
126B  0000FA43           const [24]: (0)
126F  04                 const type 4
1270  07                 string size (7)
1271  456E67696E6500     "Engine\0"
                         const [25]: "Engine"
1278  04                 const type 4
1279  0D                 string size (13)
127A  44545F4558504C4F+  "DT_EXPLO"
1282  53494F4E00         "SION\0"
                         const [26]: "DT_EXPLOSION"
1287  04                 const type 4
1288  05                 string size (5)
1289  47616D6500         "Game\0"
                         const [27]: "Game"
128E  04                 const type 4
128F  10                 string size (16)
1290  50545F4B4E4F434B+  "PT_KNOCK"
1298  45445F444F574E00   "ED_DOWN\0"
                         const [28]: "PT_KNOCKED_DOWN"
12A0  01                 const type 3
12A1  6B25B193           const [29]: (-1817107093)
12A5  04                 const type 4
12A6  24                 string size (36)
12A7  416C61726D205379+  "Alarm Sy"
12AF  7374656D3A204D69+  "stem: Mi"
12B7  7261676520747261+  "rage tra"
12BF  7020747269676765+  "p trigge"
12C7  72656400           "red\0"
                         const [30]: "Alarm System: Mirage trap triggered"
                         * functions:
12CB  00                 sizep (0)
                         * lines:
12CD  01                 sizelineinfo (137)
                         [pc] (line)
12CE  9B                 [001] (-101)
12CF  00                 [002] (-101)
12D0  00                 [003] (-101)
12D1  00                 [004] (-101)
12D2  9B                 [005] (-101)
12D3  00                 [006] (-101)
12D4  00                 [007] (-101)
12D5  00                 [008] (-101)
12D6  9B                 [009] (-101)
12D7  00                 [010] (-101)
12D8  00                 [011] (-101)
12D9  00                 [012] (-101)
12DA  9B                 [013] (-101)
12DB  00                 [014] (-101)
12DC  00                 [015] (-101)
12DD  00                 [016] (-101)
12DE  9B                 [017] (-101)
12DF  00                 [018] (-100)
12E0  00                 [019] (-100)
12E1  00                 [020] (-100)
12E2  9B                 [021] (-99)
12E3  00                 [022] (-99)
12E4  00                 [023] (-99)
12E5  00                 [024] (-99)
12E6  9B                 [025] (-99)
12E7  00                 [026] (-98)
12E8  00                 [027] (-98)
12E9  00                 [028] (-98)
12EA  9B                 [029] (-97)
12EB  00                 [030] (-97)
12EC  00                 [031] (-97)
12ED  00                 [032] (-97)
12EE  9B                 [033] (-96)
12EF  00                 [034] (-96)
12F0  00                 [035] (-96)
12F1  00                 [036] (-95)
12F2  9B                 [037] (-95)
12F3  00                 [038] (-95)
12F4  00                 [039] (-95)
12F5  00                 [040] (-95)
12F6  9B                 [041] (-95)
12F7  00                 [042] (-95)
12F8  00                 [043] (-94)
12F9  00                 [044] (-94)
12FA  9B                 [045] (-94)
12FB  00                 [046] (-94)
12FC  00                 [047] (-93)
12FD  00                 [048] (-93)
12FE  9B                 [049] (-93)
12FF  00                 [050] (-92)
1300  00                 [051] (-92)
1301  00                 [052] (-92)
1302  9B                 [053] (-92)
1303  00                 [054] (-91)
1304  00                 [055] (-91)
1305  00                 [056] (-91)
1306  9B                 [057] (-91)
1307  00                 [058] (-91)
1308  00                 [059] (-90)
1309  00                 [060] (-90)
130A  9B                 [061] (-90)
130B  00                 [062] (-90)
130C  00                 [063] (-90)
130D  00                 [064] (-90)
130E  9B                 [065] (-90)
130F  00                 [066] (-90)
1310  00                 [067] (-90)
1311  00                 [068] (-88)
1312  9C                 [069] (-87)
1313  00                 [070] (-87)
1314  00                 [071] (-87)
1315  00                 [072] (-87)
1316  9C                 [073] (-87)
1317  00                 [074] (-87)
1318  00                 [075] (-87)
1319  00                 [076] (-86)
131A  9C                 [077] (-86)
131B  00                 [078] (-86)
131C  00                 [079] (-86)
131D  00                 [080] (-86)
131E  9D                 [081] (-86)
131F  00                 [082] (-86)
1320  00                 [083] (-86)
1321  00                 [084] (-83)
1322  9D                 [085] (-83)
1323  00                 [086] (-83)
1324  00                 [087] (-83)
1325  00                 [088] (-83)
1326  9D                 [089] (-83)
1327  00                 [090] (-83)
1328  00                 [091] (-83)
1329  00                 [092] (-83)
132A  9D                 [093] (-83)
132B  00                 [094] (-82)
132C  00                 [095] (-82)
132D  00                 [096] (-82)
132E  9D                 [097] (-82)
132F  00                 [098] (-82)
1330  00                 [099] (-82)
1331  00                 [100] (-82)
1332  9E                 [101] (-82)
1333  00                 [102] (-79)
1334  00                 [103] (-79)
1335  00                 [104] (-78)
1336  9E                 [105] (-78)
1337  00                 [106] (-78)
1338  00                 [107] (-77)
1339  00                 [108] (-77)
133A  9E                 [109] (-77)
133B  00                 [110] (-76)
133C  00                 [111] (-76)
133D  00                 [112] (-76)
133E  9F                 [113] (-75)
133F  00                 [114] (-75)
1340  00                 [115] (-75)
1341  00                 [116] (-74)
1342  9F                 [117] (-73)
1343  00                 [118] (-73)
1344  00                 [119] (-72)
1345  00                 [120] (-71)
1346  9F                 [121] (-70)
1347  00                 [122] (-70)
1348  00                 [123] (-69)
1349  00                 [124] (-68)
134A  9F                 [125] (-67)
134B  00                 [126] (-66)
134C  00                 [127] (-64)
134D  00                 [128] (-79)
134E  A0                 [129] (-62)
134F  00                 [130] (-62)
1350  00                 [131] (-62)
1351  00                 [132] (-60)
1352  A0                 [133] (-60)
1353  00                 [134] (-92)
1354  00                 [135] (-94)
1355  00                 [136] (-97)
1356  A0                 [137] (-52)
                         * locals:
14F2  00                 sizelocvars (0)
                         * upvalues:
14F3  00                 sizeupvalues (0)
                         ** end of function **

                         
14F4                     ** function [9] definition (level 2)
                         ** start of function **
14F4  00                 string size (0)
                         source name: (none)
14F6  01                 line defined (208)
14F7  D2                 last line defined (210)
14F8  01                 nups (1)
14F9  01                 numparams (1)
14FA  01                 is_vararg (0)
14FB  00                 maxstacksize (3)
                         * code:
14FD  04                 sizecode (4)
14FE  53000000           [1] getupval   1   0      
1502  92000000           [2] move       2   0      
1506  62400001           [3] call       1   2   1  
150A  1E008000           [4] return     0   1      
                         * constants:
150E  00                 sizek (0)
                         * functions:
150F  00                 sizep (0)
                         * lines:
1510  04                 sizelineinfo (4)
                         [pc] (line)
1511  D1                 [1] (-47)
1512  00                 [2] (-47)
1513  00                 [3] (-47)
1514  00                 [4] (-46)
                         * locals:
1521  00                 sizelocvars (0)
                         * upvalues:
1522  00                 sizeupvalues (0)
                         ** end of function **

                         
1523                     ** function [10] definition (level 2)
                         ** start of function **
1523  00                 string size (0)
                         source name: (none)
1525  01                 line defined (212)
1526  D6                 last line defined (214)
1527  01                 nups (1)
1528  01                 numparams (0)
1529  00                 is_vararg (0)
152A  00                 maxstacksize (2)
                         * code:
152C  03                 sizecode (3)
152D  13000000           [1] getupval   0   0      
1531  22408000           [2] call       0   1   1  
1535  1E008000           [3] return     0   1      
                         * constants:
1539  00                 sizek (0)
                         * functions:
153A  00                 sizep (0)
                         * lines:
153B  03                 sizelineinfo (3)
                         [pc] (line)
153C  D5                 [1] (-43)
153D  00                 [2] (-43)
153E  00                 [3] (-42)
                         * locals:
1548  00                 sizelocvars (0)
                         * upvalues:
1549  00                 sizeupvalues (0)
                         ** end of function **

                         
154A                     ** function [11] definition (level 2)
                         ** start of function **
154A  00                 string size (0)
                         source name: (none)
154C  01                 line defined (216)
154D  AA                 last line defined (298)
154E  02                 nups (7)
154F  07                 numparams (3)
1550  03                 is_vararg (0)
1551  00                 maxstacksize (16)
                         * code:
1554  01                 sizecode (189)
1555  DD000000           [001] getglobal  3   0        ; 1074689893
1559  13010000           [002] getupval   4   0      
155D  E2800001           [003] call       3   2   2  
1561  D8000000           [004] test       3       0    ; to [6] if true
1565  1A400180           [005] jmp        6            ; to [12]
1569  DD400000           [006] getglobal  3   1        ; gRegion
156D  E480C001           [007] self       3   3   258  ; -774964848
1571  E2800001           [008] call       3   2   2  
1575  E4C0C001           [009] self       3   3   259  ; 537471347
1579  E2800001           [010] call       3   2   2  
fail op	8
157D  C8000000           [011] setupval   3   0      
1581  DD000100           [012] getglobal  3   4        ; -1817107093
1585  19410100           [013] loadk      4   5        ; "Alarm System: Panic button activated"
1589  E2400001           [014] call       3   2   1  
158D  D3008000           [015] getupval   3   1      
1591  E2808000           [016] call       3   1   2  
1595  06018002           [017] loadnil    4   5      
1599  9D010000           [018] getglobal  6   0        ; 1074689893
159D  D2010000           [019] move       7   0      
15A1  A2810001           [020] call       6   2   2  
15A5  98410000           [021] test       6       1    ; to [23] if false
15A9  1A800680           [022] jmp        27           ; to [50]
15AD  A4814100           [023] self       6   0   262  ; -2031737093
15B1  A2810001           [024] call       6   2   2  
15B5  E4C14100           [025] self       7   0   263  ; -1081228973
15B9  E2810001           [026] call       7   2   2  
15BD  1D020200           [027] getglobal  8   8        ; -332969190
15C1  59420200           [028] loadk      9   9        ; "TENNO"
15C5  22820001           [029] call       8   2   2  
fail op	35
15C9  63000203           [030] close      1  
15CD  1A400180           [031] jmp        6            ; to [38]
15D1  1D020200           [032] getglobal  8   8        ; -332969190
15D5  59420200           [033] loadk      9   9        ; "TENNO"
15D9  22820001           [034] call       8   2   2  
fail op	35
15DD  63008203           [035] close      1  
15E1  1A000080           [036] jmp        1            ; to [38]
15E5  57410000           [037] loadbool   5   0   1    ; false, to [39]
15E9  57018000           [038] loadbool   5   1   0    ; true
15ED  1D020100           [039] getglobal  8   4        ; -1817107093
15F1  59820200           [040] loadk      9   10       ; "Alarm System: faction = "
15F5  9DC20200           [041] getglobal  10  11       ; -1615931716
15F9  D2020003           [042] move       11  6      
15FD  A2820001           [043] call       10  2   2  
1601  D9020300           [044] loadk      11  12       ; " original faction = "
1605  1DC30200           [045] getglobal  12  11       ; -1615931716
1609  52038003           [046] move       13  7      
160D  22830001           [047] call       12  2   2  
1611  42028304           [048] concat     9   9   12 
1615  22420001           [049] call       8   2   1  
1619  13020001           [050] getupval   8   2      
161D  22428000           [051] call       8   1   1  
1621  1D420300           [052] getglobal  8   13       ; gGameRules
1625  5D020000           [053] getglobal  9   0        ; 1074689893
1629  92020004           [054] move       10  8      
162D  62820001           [055] call       9   2   2  
1631  58420000           [056] test       9       1    ; to [58] if false
1635  1A400D80           [057] jmp        54           ; to [112]
1639  64824304           [058] self       9   8   270  ; -502414055
163D  62820001           [059] call       9   2   2  
1641  9DC20300           [060] getglobal  10  15       ; Lotus_Game
1645  8E024405           [061] gettable   10  10  272  ; "MT_CAPTURE"
fail op	35
1649  23808204           [062] close      0  
164D  1A400580           [063] jmp        22           ; to [86]
1651  A4424400           [064] self       10  0   273  ; -1957065004
1655  13038001           [065] getupval   12  3      
1659  A2828001           [066] call       10  3   2  
165D  98020000           [067] test       10      0    ; to [69] if true
1661  1AC00080           [068] jmp        4            ; to [73]
1665  9D020100           [069] getglobal  10  4        ; -1817107093
1669  D9820400           [070] loadk      11  18       ; "Alarm System: Capture: Panic button pressed by capture target"
166D  A2420001           [071] call       10  2   1  
1671  1A800980           [072] jmp        39           ; to [112]
1675  A4424400           [073] self       10  0   273  ; -1957065004
1679  1DC30400           [074] getglobal  12  19       ; gTennoAvatarType
167D  A2828001           [075] call       10  3   2  
1681  98020000           [076] test       10      0    ; to [78] if true
1685  1A800080           [077] jmp        3            ; to [81]
1689  9D020500           [078] getglobal  10  20       ; _T
168D  8C82C58A           [079] settable   10  277 278  ; "TimeSinceLastLockdown" 0
1691  1A800780           [080] jmp        31           ; to [112]
1695  9D020100           [081] getglobal  10  4        ; -1817107093
1699  D9C20500           [082] loadk      11  23       ; "Alarm System: Capture: Panic button activate cancelled"
169D  A2420001           [083] call       10  2   1  
16A1  1E008000           [084] return     0   1      
16A5  1A400680           [085] jmp        26           ; to [112]
16A9  9DC20300           [086] getglobal  10  15       ; Lotus_Game
16AD  8E024605           [087] gettable   10  10  280  ; "MT_MOBILE_DEFENSE"
fail op	35
16B1  23808204           [088] close      0  
16B5  1A400380           [089] jmp        14           ; to [104]
16B9  58410000           [090] test       5       1    ; to [92] if false
16BD  1AC00280           [091] jmp        12           ; to [104]
16C1  A4424604           [092] self       10  8   281  ; -317790213
16C5  1D030200           [093] getglobal  12  8        ; -332969190
16C9  59830600           [094] loadk      13  26       ; "WaveTimer"
16CD  22030001           [095] call       12  2   0  
16D1  A2820000           [096] call       10  0   2  
fail op	21
16D5  1580028B           [097] concat     0   278 10 
16D9  1A000380           [098] jmp        13           ; to [112]
16DD  9D020100           [099] getglobal  10  4        ; -1817107093
16E1  D9C20600           [100] loadk      11  27       ; "Alarm System: Mobile Defense: Panic button activate cancelled"
16E5  A2420001           [101] call       10  2   1  
16E9  1E008000           [102] return     0   1      
16ED  1AC00180           [103] jmp        8            ; to [112]
16F1  9DC20300           [104] getglobal  10  15       ; Lotus_Game
16F5  8E024705           [105] gettable   10  10  284  ; "MT_DEFENSE"
fail op	35
16F9  23808204           [106] close      0  
16FD  1AC00080           [107] jmp        4            ; to [112]
1701  9D020100           [108] getglobal  10  4        ; -1817107093
1705  D9420700           [109] loadk      11  29       ; "Alarm System: Defense: Panic button activate cancelled"
1709  A2420001           [110] call       10  2   1  
170D  1E008000           [111] return     0   1      
1711  9D020000           [112] getglobal  10  0        ; 1074689893
1715  D2020000           [113] move       11  0      
1719  A2820001           [114] call       10  2   2  
171D  98420000           [115] test       10      1    ; to [117] if false
1721  1A400180           [116] jmp        6            ; to [123]
1725  58410000           [117] test       5       1    ; to [119] if false
1729  1AC00080           [118] jmp        4            ; to [123]
172D  93020002           [119] getupval   10  4      
1731  D2028000           [120] move       11  1      
1735  12030000           [121] move       12  0      
1739  A2428001           [122] call       10  3   1  
173D  9D020000           [123] getglobal  10  0        ; 1074689893
1741  D2020000           [124] move       11  0      
1745  A2820001           [125] call       10  2   2  
1749  98420000           [126] test       10      1    ; to [128] if false
174D  1A000E80           [127] jmp        57           ; to [185]
1751  58010000           [128] test       5       0    ; to [130] if true
1755  1A000580           [129] jmp        21           ; to [151]
1759  1D810700           [130] getglobal  4   30       ; UNALERT
175D  A4C24700           [131] self       10  0   287  ; -1917464545
1761  A2820001           [132] call       10  2   2  
1765  A4024805           [133] self       10  10  288  ; -140890631
1769  19430800           [134] loadk      12  33       ; 0
176D  52030000           [135] move       13  0      
1771  9D030200           [136] getglobal  14  8        ; -332969190
1775  D9830800           [137] loadk      15  34       ; "/Lotus/Language/Actions/HackXP"
1779  A2030001           [138] call       14  2   0  
177D  A2420000           [139] call       10  0   1  
1781  9DC20800           [140] getglobal  10  35       ; gChallengeMgr
1785  A4024905           [141] self       10  10  292  ; 137898418
1789  24434900           [142] self       12  0   293  ; -564624675
178D  22830001           [143] call       12  2   2  
1791  5D030200           [144] getglobal  13  8        ; -332969190
1795  99830900           [145] loadk      14  38       ; "CONSOLE_HACKED"
1799  62030001           [146] call       13  2   0  
179D  A2420000           [147] call       10  0   1  
17A1  9D020500           [148] getglobal  10  20       ; _T
17A5  8C02CA93           [149] settable   10  295 296  ; "idleTimoutReset" 1
17A9  1A800880           [150] jmp        35           ; to [186]
17AD  9D020500           [151] getglobal  10  20       ; _T
17B1  8E424A05           [152] gettable   10  10  297  ; "InstantLockdown"
17B5  98020000           [153] test       10      0    ; to [155] if true
17B9  1A400080           [154] jmp        2            ; to [157]
17BD  1D810A00           [155] getglobal  4   42       ; LOCKDOWN
17C1  1A400180           [156] jmp        6            ; to [163]
17C5  9DC20A00           [157] getglobal  10  43       ; math
17C9  8E024B05           [158] gettable   10  10  300  ; 1710846250
17CD  C342CB01           [159] add        11  3   301  ; 0
17D1  1D830A00           [160] getglobal  12  42       ; LOCKDOWN
17D5  A2828001           [161] call       10  3   2  
17D9  12010005           [162] move       4   10     
fail op	21
17DD  15008101           [163] concat     0   3   4  
17E1  1A000580           [164] jmp        21           ; to [186]
17E5  9D020000           [165] getglobal  10  0        ; 1074689893
17E9  D2028000           [166] move       11  1      
17ED  A2820001           [167] call       10  2   2  
17F1  98420000           [168] test       10      1    ; to [170] if false
17F5  1AC00380           [169] jmp        16           ; to [186]
17F9  9D020000           [170] getglobal  10  0        ; 1074689893
17FD  D2020001           [171] move       11  2      
1801  A2820001           [172] call       10  2   2  
1805  98420000           [173] test       10      1    ; to [175] if false
1809  1A400180           [174] jmp        6            ; to [181]
180D  A482CB00           [175] self       10  1   302  ; 630793108
1811  12030001           [176] move       12  2      
1815  57030000           [177] loadbool   13  0   0    ; false
1819  99830500           [178] loadk      14  22       ; 0
181D  D7038000           [179] loadbool   15  1   0    ; true
1821  A2420003           [180] call       10  6   1  
1825  93028002           [181] getupval   10  5      
1829  D2028000           [182] move       11  1      
182D  A2420001           [183] call       10  2   1  
1831  1A000080           [184] jmp        1            ; to [186]
1835  1D810700           [185] getglobal  4   30       ; UNALERT
1839  93020003           [186] getupval   10  6      
183D  D2020002           [187] move       11  4      
1841  A2420001           [188] call       10  2   1  
1845  1E008000           [189] return     0   1      
                         * constants:
1849  2F                 sizek (47)
184A  01                 const type 3
184B  65770E40           const [0]: (1074689893)
184F  04                 const type 4
1850  08                 string size (8)
1851  67526567696F6E00   "gRegion\0"
                         const [1]: "gRegion"
1859  01                 const type 3
185A  90F9CED1           const [2]: (-774964848)
185E  01                 const type 3
185F  73290920           const [3]: (537471347)
1863  01                 const type 3
1864  6B25B193           const [4]: (-1817107093)
1868  04                 const type 4
1869  25                 string size (37)
186A  416C61726D205379+  "Alarm Sy"
1872  7374656D3A205061+  "stem: Pa"
187A  6E69632062757474+  "nic butt"
1882  6F6E206163746976+  "on activ"
188A  6174656400         "ated\0"
                         const [5]: "Alarm System: Panic button activated"
188F  01                 const type 3
1890  FB26E686           const [6]: (-2031737093)
1894  01                 const type 3
1895  53C18DBF           const [7]: (-1081228973)
1899  01                 const type 3
189A  1A4B27EC           const [8]: (-332969190)
189E  04                 const type 4
189F  06                 string size (6)
18A0  54454E4E4F00       "TENNO\0"
                         const [9]: "TENNO"
18A6  04                 const type 4
18A7  19                 string size (25)
18A8  416C61726D205379+  "Alarm Sy"
18B0  7374656D3A206661+  "stem: fa"
18B8  6374696F6E203D20+  "ction = "
18C0  00                 "\0"
                         const [10]: "Alarm System: faction = "
18C1  01                 const type 3
18C2  BCD6AE9F           const [11]: (-1615931716)
18C6  04                 const type 4
18C7  15                 string size (21)
18C8  206F726967696E61+  " origina"
18D0  6C2066616374696F+  "l factio"
18D8  6E203D2000         "n = \0"
                         const [12]: " original faction = "
18DD  04                 const type 4
18DE  0B                 string size (11)
18DF  6747616D6552756C+  "gGameRul"
18E7  657300             "es\0"
                         const [13]: "gGameRules"
18EA  01                 const type 3
18EB  19C50DE2           const [14]: (-502414055)
18EF  04                 const type 4
18F0  0B                 string size (11)
18F1  4C6F7475735F4761+  "Lotus_Ga"
18F9  6D6500             "me\0"
                         const [15]: "Lotus_Game"
18FC  04                 const type 4
18FD  0B                 string size (11)
18FE  4D545F4341505455+  "MT_CAPTU"
1906  524500             "RE\0"
                         const [16]: "MT_CAPTURE"
1909  01                 const type 3
190A  D48E598B           const [17]: (-1957065004)
190E  04                 const type 4
190F  3E                 string size (62)
1910  416C61726D205379+  "Alarm Sy"
1918  7374656D3A204361+  "stem: Ca"
1920  70747572653A2050+  "pture: P"
1928  616E696320627574+  "anic but"
1930  746F6E2070726573+  "ton pres"
1938  7365642062792063+  "sed by c"
1940  6170747572652074+  "apture t"
1948  617267657400       "arget\0"
                         const [18]: "Alarm System: Capture: Panic button pressed by capture target"
194E  04                 const type 4
194F  11                 string size (17)
1950  6754656E6E6F4176+  "gTennoAv"
1958  6174617254797065+  "atarType"
1960  00                 "\0"
                         const [19]: "gTennoAvatarType"
1961  04                 const type 4
1962  03                 string size (3)
1963  5F5400             "_T\0"
                         const [20]: "_T"
1966  04                 const type 4
1967  16                 string size (22)
1968  54696D6553696E63+  "TimeSinc"
1970  654C6173744C6F63+  "eLastLoc"
1978  6B646F776E00       "kdown\0"
                         const [21]: "TimeSinceLastLockdown"
197E  03                 const type 3
197F  00000000           const [22]: (0)
1983  04                 const type 4
1984  37                 string size (55)
1985  416C61726D205379+  "Alarm Sy"
198D  7374656D3A204361+  "stem: Ca"
1995  70747572653A2050+  "pture: P"
199D  616E696320627574+  "anic but"
19A5  746F6E2061637469+  "ton acti"
19AD  766174652063616E+  "vate can"
19B5  63656C6C656400     "celled\0"
                         const [23]: "Alarm System: Capture: Panic button activate cancelled"
19BC  04                 const type 4
19BD  12                 string size (18)
19BE  4D545F4D4F42494C+  "MT_MOBIL"
19C6  455F444546454E53+  "E_DEFENS"
19CE  4500               "E\0"
                         const [24]: "MT_MOBILE_DEFENSE"
19D0  01                 const type 3
19D1  FBE70EED           const [25]: (-317790213)
19D5  04                 const type 4
19D6  0A                 string size (10)
19D7  5761766554696D65+  "WaveTime"
19DF  7200               "r\0"
                         const [26]: "WaveTimer"
19E1  04                 const type 4
19E2  3E                 string size (62)
19E3  416C61726D205379+  "Alarm Sy"
19EB  7374656D3A204D6F+  "stem: Mo"
19F3  62696C6520446566+  "bile Def"
19FB  656E73653A205061+  "ense: Pa"
1A03  6E69632062757474+  "nic butt"
1A0B  6F6E206163746976+  "on activ"
1A13  6174652063616E63+  "ate canc"
1A1B  656C6C656400       "elled\0"
                         const [27]: "Alarm System: Mobile Defense: Panic button activate cancelled"
1A21  04                 const type 4
1A22  0B                 string size (11)
1A23  4D545F444546454E+  "MT_DEFEN"
1A2B  534500             "SE\0"
                         const [28]: "MT_DEFENSE"
1A2E  04                 const type 4
1A2F  37                 string size (55)
1A30  416C61726D205379+  "Alarm Sy"
1A38  7374656D3A204465+  "stem: De"
1A40  66656E73653A2050+  "fense: P"
1A48  616E696320627574+  "anic but"
1A50  746F6E2061637469+  "ton acti"
1A58  766174652063616E+  "vate can"
1A60  63656C6C656400     "celled\0"
                         const [29]: "Alarm System: Defense: Panic button activate cancelled"
1A67  04                 const type 4
1A68  08                 string size (8)
1A69  554E414C45525400   "UNALERT\0"
                         const [30]: "UNALERT"
1A71  01                 const type 3
1A72  1FD0B58D           const [31]: (-1917464545)
1A76  01                 const type 3
1A77  F92D9AF7           const [32]: (-140890631)
1A7B  03                 const type 3
1A7C  00004842           const [33]: (0)
1A80  04                 const type 4
1A81  1F                 string size (31)
1A82  2F4C6F7475732F4C+  "/Lotus/L"
1A8A  616E67756167652F+  "anguage/"
1A92  416374696F6E732F+  "Actions/"
1A9A  4861636B585000     "HackXP\0"
                         const [34]: "/Lotus/Language/Actions/HackXP"
1AA1  04                 const type 4
1AA2  0E                 string size (14)
1AA3  674368616C6C656E+  "gChallen"
1AAB  67654D677200       "geMgr\0"
                         const [35]: "gChallengeMgr"
1AB1  01                 const type 3
1AB2  B2293808           const [36]: (137898418)
1AB6  01                 const type 3
1AB7  DD8258DE           const [37]: (-564624675)
1ABB  04                 const type 4
1ABC  0F                 string size (15)
1ABD  434F4E534F4C455F+  "CONSOLE_"
1AC5  4841434B454400     "HACKED\0"
                         const [38]: "CONSOLE_HACKED"
1ACC  04                 const type 4
1ACD  10                 string size (16)
1ACE  69646C6554696D6F+  "idleTimo"
1AD6  7574526573657400   "utReset\0"
                         const [39]: "idleTimoutReset"
1ADE  01                 const type 3
1ADF  01000000           const [40]: (1)
1AE3  04                 const type 4
1AE4  10                 string size (16)
1AE5  496E7374616E744C+  "InstantL"
1AED  6F636B646F776E00   "ockdown\0"
                         const [41]: "InstantLockdown"
1AF5  04                 const type 4
1AF6  09                 string size (9)
1AF7  4C4F434B444F574E+  "LOCKDOWN"
1AFF  00                 "\0"
                         const [42]: "LOCKDOWN"
1B00  04                 const type 4
1B01  05                 string size (5)
1B02  6D61746800         "math\0"
                         const [43]: "math"
1B07  01                 const type 3
1B08  2A71F965           const [44]: (1710846250)
1B0C  03                 const type 3
1B0D  0000803F           const [45]: (0)
1B11  01                 const type 3
1B12  94239925           const [46]: (630793108)
                         * functions:
1B16  00                 sizep (0)
                         * lines:
1B18  01                 sizelineinfo (189)
                         [pc] (line)
1B19  D9                 [001] (-39)
1B1A  00                 [002] (-39)
1B1B  00                 [003] (-39)
1B1C  00                 [004] (-39)
1B1D  D9                 [005] (-39)
1B1E  00                 [006] (-38)
1B1F  00                 [007] (-38)
1B20  00                 [008] (-38)
1B21  D9                 [009] (-38)
1B22  00                 [010] (-38)
1B23  00                 [011] (-38)
1B24  00                 [012] (-35)
1B25  D9                 [013] (-35)
1B26  00                 [014] (-35)
1B27  00                 [015] (-33)
1B28  00                 [016] (-33)
1B29  D9                 [017] (-32)
1B2A  00                 [018] (-30)
1B2B  00                 [019] (-30)
1B2C  00                 [020] (-30)
1B2D  DA                 [021] (-30)
1B2E  00                 [022] (-30)
1B2F  00                 [023] (-29)
1B30  00                 [024] (-29)
1B31  DA                 [025] (-28)
1B32  00                 [026] (-28)
1B33  00                 [027] (-27)
1B34  00                 [028] (-27)
1B35  DA                 [029] (-27)
1B36  00                 [030] (-27)
1B37  00                 [031] (-27)
1B38  00                 [032] (-27)
1B39  DA                 [033] (-27)
1B3A  00                 [034] (-27)
1B3B  00                 [035] (-27)
1B3C  00                 [036] (-27)
1B3D  DA                 [037] (-27)
1B3E  00                 [038] (-27)
1B3F  00                 [039] (-26)
1B40  00                 [040] (-26)
1B41  DA                 [041] (-26)
1B42  00                 [042] (-26)
1B43  00                 [043] (-26)
1B44  00                 [044] (-26)
1B45  DD                 [045] (-26)
1B46  00                 [046] (-26)
1B47  00                 [047] (-26)
1B48  00                 [048] (-26)
1B49  DD                 [049] (-26)
1B4A  00                 [050] (-22)
1B4B  00                 [051] (-22)
1B4C  00                 [052] (-19)
1B4D  DD                 [053] (-18)
1B4E  00                 [054] (-18)
1B4F  00                 [055] (-18)
1B50  00                 [056] (-18)
1B51  DF                 [057] (-18)
1B52  00                 [058] (-17)
1B53  00                 [059] (-17)
1B54  00                 [060] (-16)
1B55  DF                 [061] (-16)
1B56  00                 [062] (-16)
1B57  00                 [063] (-16)
1B58  00                 [064] (-15)
1B59  E0                 [065] (-15)
1B5A  00                 [066] (-15)
1B5B  00                 [067] (-15)
1B5C  00                 [068] (-15)
1B5D  E2                 [069] (-14)
1B5E  00                 [070] (-14)
1B5F  00                 [071] (-14)
1B60  00                 [072] (-14)
1B61  E2                 [073] (-13)
1B62  00                 [074] (-13)
1B63  00                 [075] (-13)
1B64  00                 [076] (-13)
1B65  E2                 [077] (-13)
1B66  00                 [078] (-12)
1B67  00                 [079] (-12)
1B68  00                 [080] (-12)
1B69  E2                 [081] (-10)
1B6A  00                 [082] (-10)
1B6B  00                 [083] (-10)
1B6C  00                 [084] (-9)
1B6D  E2                 [085] (-8)
1B6E  00                 [086] (-7)
1B6F  00                 [087] (-7)
1B70  00                 [088] (-7)
1B71  E3                 [089] (-7)
1B72  00                 [090] (-7)
1B73  00                 [091] (-7)
1B74  00                 [092] (-6)
1B75  E3                 [093] (-6)
1B76  00                 [094] (-6)
1B77  00                 [095] (-6)
1B78  00                 [096] (-6)
1B79  E4                 [097] (-6)
1B7A  00                 [098] (-6)
1B7B  00                 [099] (-5)
1B7C  00                 [100] (-5)
1B7D  E4                 [101] (-5)
1B7E  00                 [102] (-4)
1B7F  00                 [103] (-3)
1B80  00                 [104] (-2)
1B81  E5                 [105] (-2)
1B82  00                 [106] (-2)
1B83  00                 [107] (-2)
1B84  00                 [108] (-1)
1B85  E5                 [109] (-1)
1B86  00                 [110] (-1)
1B87  00                 [111] (0)
1B88  00                 [112] (5)
1B89  E5                 [113] (5)
1B8A  00                 [114] (5)
1B8B  00                 [115] (5)
1B8C  00                 [116] (5)
1B8D  E5                 [117] (5)
1B8E  00                 [118] (5)
1B8F  00                 [119] (6)
1B90  00                 [120] (6)
1B91  E5                 [121] (6)
1B92  00                 [122] (6)
1B93  00                 [123] (10)
1B94  00                 [124] (10)
1B95  E5                 [125] (10)
1B96  00                 [126] (10)
1B97  00                 [127] (10)
1B98  00                 [128] (11)
1B99  E5                 [129] (11)
1B9A  00                 [130] (12)
1B9B  00                 [131] (13)
1B9C  00                 [132] (13)
1B9D  E5                 [133] (13)
1B9E  00                 [134] (13)
1B9F  00                 [135] (13)
1BA0  00                 [136] (13)
1BA1  E5                 [137] (13)
1BA2  00                 [138] (13)
1BA3  00                 [139] (13)
1BA4  00                 [140] (14)
1BA5  E5                 [141] (14)
1BA6  00                 [142] (14)
1BA7  00                 [143] (14)
1BA8  00                 [144] (14)
1BA9  E5                 [145] (14)
1BAA  00                 [146] (14)
1BAB  00                 [147] (14)
1BAC  00                 [148] (15)
1BAD  E5                 [149] (15)
1BAE  00                 [150] (15)
1BAF  00                 [151] (18)
1BB0  00                 [152] (18)
1BB1  E6                 [153] (18)
1BB2  00                 [154] (18)
1BB3  00                 [155] (19)
1BB4  00                 [156] (19)
1BB5  E6                 [157] (21)
1BB6  00                 [158] (21)
1BB7  00                 [159] (21)
1BB8  00                 [160] (21)
1BB9  E6                 [161] (21)
1BBA  00                 [162] (21)
1BBB  00                 [163] (24)
1BBC  00                 [164] (24)
1BBD  E6                 [165] (24)
1BBE  00                 [166] (24)
1BBF  00                 [167] (24)
1BC0  00                 [168] (24)
1BC1  E6                 [169] (24)
1BC2  00                 [170] (25)
1BC3  00                 [171] (25)
1BC4  00                 [172] (25)
1BC5  E6                 [173] (25)
1BC6  00                 [174] (25)
1BC7  00                 [175] (26)
1BC8  00                 [176] (26)
1BC9  E6                 [177] (26)
1BCA  00                 [178] (26)
1BCB  00                 [179] (26)
1BCC  00                 [180] (26)
1BCD  E6                 [181] (28)
1BCE  00                 [182] (28)
1BCF  00                 [183] (28)
1BD0  00                 [184] (30)
1BD1  E6                 [185] (32)
1BD2  00                 [186] (35)
1BD3  00                 [187] (35)
1BD4  00                 [188] (35)
1BD5  E6                 [189] (42)
                         * locals:
1E0D  00                 sizelocvars (0)
                         * upvalues:
1E0E  00                 sizeupvalues (0)
                         ** end of function **

                         * lines:
1E0F  3D                 sizelineinfo (61)
                         [pc] (line)
1E10  01                 [01] (1)
1E11  00                 [02] (1)
1E12  00                 [03] (1)
1E13  00                 [04] (1)
1E14  01                 [05] (1)
1E15  00                 [06] (3)
1E16  00                 [07] (3)
1E17  00                 [08] (3)
1E18  01                 [09] (5)
1E19  00                 [10] (7)
1E1A  00                 [11] (9)
1E1B  00                 [12] (9)
1E1C  01                 [13] (9)
1E1D  00                 [14] (12)
1E1E  00                 [15] (12)
1E1F  00                 [16] (13)
1E20  01                 [17] (13)
1E21  00                 [18] (14)
1E22  00                 [19] (14)
1E23  00                 [20] (28)
1E24  03                 [21] (42)
1E25  00                 [22] (42)
1E26  00                 [23] (57)
1E27  00                 [24] (74)
1E28  03                 [25] (74)
1E29  00                 [26] (74)
1E2A  00                 [27] (78)
1E2B  00                 [28] (78)
1E2C  03                 [29] (78)
1E2D  00                 [30] (76)
1E2E  00                 [31] (89)
1E2F  00                 [32] (-122)
1E30  05                 [33] (-122)
1E31  00                 [34] (-122)
1E32  00                 [35] (-122)
1E33  00                 [36] (-122)
1E34  07                 [37] (-122)
1E35  00                 [38] (-105)
1E36  00                 [39] (-105)
1E37  00                 [40] (-105)
1E38  09                 [41] (-105)
1E39  00                 [42] (-52)
1E3A  00                 [43] (-46)
1E3B  00                 [44] (-46)
1E3C  09                 [45] (-46)
1E3D  00                 [46] (-48)
1E3E  00                 [47] (-42)
1E3F  00                 [48] (-42)
1E40  09                 [49] (-42)
1E41  00                 [50] (-44)
1E42  00                 [51] (42)
1E43  00                 [52] (42)
1E44  0C                 [53] (42)
1E45  00                 [54] (42)
1E46  00                 [55] (42)
1E47  00                 [56] (42)
1E48  0C                 [57] (42)
1E49  00                 [58] (42)
1E4A  00                 [59] (42)
1E4B  00                 [60] (-40)
1E4C  0D                 [61] (42)
                         * locals:
1F04  00                 sizelocvars (0)
                         * upvalues:
1F05  00                 sizeupvalues (0)
                         ** end of function **

1F06                     ** end of chunk **
