1	C:\wlua_dump\path\Lotus\Scripts\LibsSquadLib.lua
Pos   Hex Data           Description or Code
------------------------------------------------------------------------
0000                     ** source chunk: C:\wlua_dump\path\Lotus\Scripts\LibsSquadLib.lua
                         ** global header start **
0000  7F                 header signature: ""
0001  00                 version (major:minor hex digits)
0002  00                 format (0=official)
0003  00                 endianness (1=little endian)
0004  00                 size of int (bytes)
0005  00                 size of size_t (bytes)
0006  02                 size of Instruction (bytes)
0007  1F                 size of number (bytes)
0008  FF                 integral (1=integral)
4255
                         * number type: single
                         * x86 standard (32-bit, little endian, doubles)
                         ** global header end **
package
seeall
EE.Interface.Utilities
Lotus.Scripts.Libs.TableLib
Enemy
gRegion
maxAi
tier
numSquadObj
minSquadSize
maxSquadSize
arraySize
index
defaultSpawnDelay
spawnDelayIncrement
maxSpawnDelay
objectiveUpdateTime
maxLeaders
initialSpawnAmount
highPriorityUpdate
clearOrdersAfterHighPriority
highPrioritySpawnDelay
isInSpace
squadObjAttempt
objAttempt
FindObjective
IsObjectiveComplete
Initialize
GetInfo
Update
ReachedObjective
FindEnemyAvatars
FLT_MAX
spawnBoss
Engine
EXIMUS
table
leaderChance
math
maxLeaders
STANDARD
gRegion
maxAi
tier
numSquadObj
minSquadSize
maxSquadSize
index
defaultSpawnDelay
spawnDelayIncrement
maxSpawnDelay
initialSpawnAmount
objectiveUpdateTime
maxLeaders
clearOrdersAfterHighPriority
highPrioritySpawnDelay
squadObjAttempt
objAttempt
FindObjective
IsObjectiveComplete
isInSpace
math
arraySize
SquadLib.lua::InitLib - Using 
 entries.
gPromotedToHost
gGameRules
gLotusNpcAvatarType
table
SquadLib.lua::InitLib - collected 
 orphans.
_T
SpawnLibRegisterAgent
table
agents
agents
table
arraySize
index
tier
tierBoost
math
minSquadSize
maxSquadSize
agents
Not enough agents were spawned to create a squad, orphaning 
 agents
table
attemptingObjective
target
agents
StormTarget
target
attemptingObjective
agents
agents
table
attemptingObjective
isInSpace
gBeamType
StormTarget
maxSquadSize
target
minSquadSize
math
target
agents
numSquadObj
Going for nearby objective
gRegion
math
gFlashMgr
Server.NumVirtualTestClients
highPriorityUpdate
highPriorityObjective
High priority time
maxAi
minSquadSize
agents
highPrioritySpawnDelay
High priority time ended
maxSpawnDelay
clearOrdersAfterHighPriority
defaultSpawnDelay
spawnDelayIncrement
objectiveUpdateTime
                         
0001                     ** function [0] definition (level 1)
                         ** start of function **
0001  00                 string size (0)
                         source name: (none)
0002  00                 line defined (0)
0003  00                 last line defined (0)
0004  00                 nups (0)
0005  00                 numparams (0)
0006  02                 is_vararg (2)
0007  1F                 maxstacksize (31)
                         * code:
0009  01                 sizecode (255)
000A  1D000000           [001] getglobal  0   0        ; 954442511
000E  41000001           [002] vararg     1   2      
0012  9D400000           [003] getglobal  2   1        ; package
0016  8E804001           [004] gettable   2   2   258  ; "seeall"
001A  22408001           [005] call       0   3   1  
001E  1DC00000           [006] getglobal  0   3        ; 849075268
0022  59000100           [007] loadk      1   4        ; "EE.Interface.Utilities"
0026  22800001           [008] call       0   2   2  
002A  5DC00000           [009] getglobal  1   3        ; 849075268
002E  99400100           [010] loadk      2   5        ; "Lotus.Scripts.Libs.TableLib"
0032  62800001           [011] call       1   2   2  
0036  9D800100           [012] getglobal  2   6        ; -332969190
003A  D9C00100           [013] loadk      3   7        ; "Enemy"
003E  A2800001           [014] call       2   2   2  
0042  CB000000           [015] newtable   3   0   0    ; array=0, hash=0
0046  19010200           [016] loadk      4   8        ; 0
004A  5D410200           [017] getglobal  5   9        ; gRegion
004E  6481C202           [018] self       5   5   266  ; -774964848
0052  62810001           [019] call       5   2   2  
0056  A4C1C202           [020] self       6   5   267  ; 537471347
005A  A2810001           [021] call       6   2   2  
005E  D9010300           [022] loadk      7   12       ; 0
0062  19020300           [023] loadk      8   12       ; 0
0066  59020300           [024] loadk      9   12       ; 0
006A  99020300           [025] loadk      10  12       ; 0
006E  CB020000           [026] newtable   11  0   0    ; array=0, hash=0
0072  19030300           [027] loadk      12  12       ; 0
0076  59430300           [028] loadk      13  13       ; 0
007A  8B030000           [029] newtable   14  0   0    ; array=0, hash=0
007E  D9030200           [030] loadk      15  8        ; 0
0082  19840300           [031] loadk      16  14       ; 0
0086  65040000           [032] closure    17  0      
008A  8B040000           [033] newtable   18  0   0    ; array=0, hash=0
008E  CB040002           [034] newtable   19  4   0    ; array=4, hash=0
0092  0B058001           [035] newtable   20  3   0    ; array=3, hash=0
0096  59050400           [036] loadk      21  16       ; 0
009A  99450400           [037] loadk      22  17       ; 0
009E  D9850400           [038] loadk      23  18       ; 0
00A2  1B458001           [039] setlist    20  3   1    ; index 1 to 3
00A6  4B058001           [040] newtable   21  3   0    ; array=3, hash=0
00AA  99850400           [041] loadk      22  18       ; 0
00AE  D9C50400           [042] loadk      23  19       ; 0
00B2  19060500           [043] loadk      24  20       ; 0
00B6  5B458001           [044] setlist    21  3   1    ; index 1 to 3
00BA  8B058001           [045] newtable   22  3   0    ; array=3, hash=0
00BE  D9450500           [046] loadk      23  21       ; 0
00C2  19060500           [047] loadk      24  20       ; 0
00C6  59860500           [048] loadk      25  22       ; 0
00CA  9B458001           [049] setlist    22  3   1    ; index 1 to 3
00CE  CB058001           [050] newtable   23  3   0    ; array=3, hash=0
00D2  19C60500           [051] loadk      24  23       ; 0
00D6  59860500           [052] loadk      25  22       ; 0
00DA  99060600           [053] loadk      26  24       ; 0
00DE  DB458001           [054] setlist    23  3   1    ; index 1 to 3
00E2  DB440002           [055] setlist    19  4   1    ; index 1 to 4
00E6  8CC48487           [056] settable   18  271 19   ; "maxAi"
00EA  CB048001           [057] newtable   19  3   0    ; array=3, hash=0
00EE  19050300           [058] loadk      20  12       ; 0
00F2  59050200           [059] loadk      21  8        ; 0
00F6  99850600           [060] loadk      22  26       ; 0
00FA  DB448001           [061] setlist    19  3   1    ; index 1 to 3
00FE  8CC4848C           [062] settable   18  281 19   ; "tier"
0102  CB040002           [063] newtable   19  4   0    ; array=4, hash=0
0106  0B058001           [064] newtable   20  3   0    ; array=3, hash=0
010A  59850600           [065] loadk      21  26       ; 0
010E  99850600           [066] loadk      22  26       ; 0
0112  D9850600           [067] loadk      23  26       ; 0
0116  1B458001           [068] setlist    20  3   1    ; index 1 to 3
011A  4B058001           [069] newtable   21  3   0    ; array=3, hash=0
011E  99850600           [070] loadk      22  26       ; 0
0122  D9050700           [071] loadk      23  28       ; 0
0126  19060700           [072] loadk      24  28       ; 0
012A  5B458001           [073] setlist    21  3   1    ; index 1 to 3
012E  8B058001           [074] newtable   22  3   0    ; array=3, hash=0
0132  D9050700           [075] loadk      23  28       ; 0
0136  19060700           [076] loadk      24  28       ; 0
013A  59460700           [077] loadk      25  29       ; 0
013E  9B458001           [078] setlist    22  3   1    ; index 1 to 3
0142  CB058001           [079] newtable   23  3   0    ; array=3, hash=0
0146  19060700           [080] loadk      24  28       ; 0
014A  59460700           [081] loadk      25  29       ; 0
014E  99460700           [082] loadk      26  29       ; 0
0152  DB458001           [083] setlist    23  3   1    ; index 1 to 3
0156  DB440002           [084] setlist    19  4   1    ; index 1 to 4
015A  8CC4848D           [085] settable   18  283 19   ; "numSquadObj"
015E  CB048001           [086] newtable   19  3   0    ; array=3, hash=0
0162  19850600           [087] loadk      20  26       ; 0
0166  59050700           [088] loadk      21  28       ; 0
016A  99450700           [089] loadk      22  29       ; 0
016E  DB448001           [090] setlist    19  3   1    ; index 1 to 3
0172  8CC4048F           [091] settable   18  286 19   ; "minSquadSize"
0176  CB048001           [092] newtable   19  3   0    ; array=3, hash=0
017A  19050700           [093] loadk      20  28       ; 0
017E  59450700           [094] loadk      21  29       ; 0
0182  99050800           [095] loadk      22  32       ; 0
0186  DB448001           [096] setlist    19  3   1    ; index 1 to 3
018A  8CC4848F           [097] settable   18  287 19   ; "maxSquadSize"
018E  CEC44309           [098] gettable   19  18  271  ; "maxAi"
0192  CA048009           [099] len        19  19     
0196  8CC48490           [100] settable   18  289 19   ; "arraySize"
019A  CB048001           [101] newtable   19  3   0    ; array=3, hash=0
019E  19C50800           [102] loadk      20  35       ; -102
01A2  59050900           [103] loadk      21  36       ; -102
01A6  99050200           [104] loadk      22  8        ; 0
01AA  DB448001           [105] setlist    19  3   1    ; index 1 to 3
01AE  8CC40491           [106] settable   18  290 19   ; "index"
01B2  CB040002           [107] newtable   19  4   0    ; array=4, hash=0
01B6  19050700           [108] loadk      20  28       ; 0
01BA  59850600           [109] loadk      21  26       ; 0
01BE  99050200           [110] loadk      22  8        ; 0
01C2  D9050200           [111] loadk      23  8        ; 0
01C6  DB440002           [112] setlist    19  4   1    ; index 1 to 4
01CA  8CC48492           [113] settable   18  293 19   ; "defaultSpawnDelay"
01CE  CB040002           [114] newtable   19  4   0    ; array=4, hash=0
01D2  19850600           [115] loadk      20  26       ; 0
01D6  59850600           [116] loadk      21  26       ; 0
01DA  99050200           [117] loadk      22  8        ; 0
01DE  D9050200           [118] loadk      23  8        ; 0
01E2  DB440002           [119] setlist    19  4   1    ; index 1 to 4
01E6  8CC40493           [120] settable   18  294 19   ; "spawnDelayIncrement"
01EA  CB040002           [121] newtable   19  4   0    ; array=4, hash=0
01EE  19050A00           [122] loadk      20  40       ; 0
01F2  59C50400           [123] loadk      21  19       ; 0
01F6  99450500           [124] loadk      22  21       ; 0
01FA  D9850400           [125] loadk      23  18       ; 0
01FE  DB440002           [126] setlist    19  4   1    ; index 1 to 4
0202  8CC48493           [127] settable   18  295 19   ; "maxSpawnDelay"
0206  CB040002           [128] newtable   19  4   0    ; array=4, hash=0
020A  19450500           [129] loadk      20  21       ; 0
020E  59050400           [130] loadk      21  16       ; 0
0212  99050700           [131] loadk      22  28       ; 0
0216  D9050200           [132] loadk      23  8        ; 0
021A  DB440002           [133] setlist    19  4   1    ; index 1 to 4
021E  8CC48494           [134] settable   18  297 19   ; "objectiveUpdateTime"
0222  CB040002           [135] newtable   19  4   0    ; array=4, hash=0
0226  19050200           [136] loadk      20  8        ; 0
022A  59850600           [137] loadk      21  26       ; 0
022E  99050700           [138] loadk      22  28       ; 0
0232  D9450700           [139] loadk      23  29       ; 0
0236  DB440002           [140] setlist    19  4   1    ; index 1 to 4
023A  8CC40495           [141] settable   18  298 19   ; "maxLeaders"
023E  CB040002           [142] newtable   19  4   0    ; array=4, hash=0
0242  19050400           [143] loadk      20  16       ; 0
0246  59850400           [144] loadk      21  18       ; 0
024A  99450500           [145] loadk      22  21       ; 0
024E  D9C50400           [146] loadk      23  19       ; 0
0252  DB440002           [147] setlist    19  4   1    ; index 1 to 4
0256  8CC48495           [148] settable   18  299 19   ; "initialSpawnAmount"
025A  CB040002           [149] newtable   19  4   0    ; array=4, hash=0
025E  19450B00           [150] loadk      20  45       ; 0
0262  59850B00           [151] loadk      21  46       ; 0
0266  99050600           [152] loadk      22  24       ; 0
026A  D9C50B00           [153] loadk      23  47       ; 0
026E  DB440002           [154] setlist    19  4   1    ; index 1 to 4
0272  8CC40496           [155] settable   18  300 19   ; "highPriorityUpdate"
0276  8C444C98           [156] settable   18  304 305  ; "clearOrdersAfterHighPriority" 1
027A  CB040002           [157] newtable   19  4   0    ; array=4, hash=0
027E  19450500           [158] loadk      20  21       ; 0
0282  59450500           [159] loadk      21  21       ; 0
0286  99450500           [160] loadk      22  21       ; 0
028A  D9450500           [161] loadk      23  21       ; 0
028E  DB440002           [162] setlist    19  4   1    ; index 1 to 4
0292  8CC40499           [163] settable   18  306 19   ; "highPrioritySpawnDelay"
0296  8C04CD99           [164] settable   18  307 308  ; "isInSpace" 0
029A  E5440000           [165] closure    19  1      
029E  8CC4849A           [166] settable   18  309 19   ; "squadObjAttempt"
02A2  E5840000           [167] closure    19  2      
02A6  8CC4049B           [168] settable   18  310 19   ; "objAttempt"
02AA  E5C40000           [169] closure    19  3      
02AE  8CC4849B           [170] settable   18  311 19   ; "FindObjective"
02B2  E5040100           [171] closure    19  4      
02B6  8CC4049C           [172] settable   18  312 19   ; "IsObjectiveComplete"
02BA  E5440100           [173] closure    19  5      
02BE  12000003           [174] move       0   6      
02C2  12000009           [175] move       0   18     
02C6  12000008           [176] move       0   16     
02CA  12000007           [177] move       0   14     
02CE  12008007           [178] move       0   15     
02D2  25850100           [179] closure    20  6      
02D6  12000003           [180] move       0   6      
02DA  12008002           [181] move       0   5      
02DE  12000009           [182] move       0   18     
02E2  12000000           [183] move       0   0      
02E6  12008007           [184] move       0   15     
02EA  12008005           [185] move       0   11     
02EE  12008009           [186] move       0   19     
02F2  12000001           [187] move       0   2      
02F6  65C50100           [188] closure    21  7      
02FA  12008001           [189] move       0   3      
02FE  12008000           [190] move       0   1      
0302  A5050200           [191] closure    22  8      
0306  12008001           [192] move       0   3      
030A  12008005           [193] move       0   11     
030E  E5450200           [194] closure    23  9      
0312  12000002           [195] move       0   4      
0316  12000009           [196] move       0   18     
031A  12000003           [197] move       0   6      
031E  25860200           [198] closure    24  10     
0322  12000009           [199] move       0   18     
0326  12000002           [200] move       0   4      
032A  12008009           [201] move       0   19     
032E  12000001           [202] move       0   2      
0332  12008005           [203] move       0   11     
0336  12008001           [204] move       0   3      
033A  65C60200           [205] closure    25  11     
033E  A5060300           [206] closure    26  12     
0342  12008001           [207] move       0   3      
0346  12000009           [208] move       0   18     
034A  E5460300           [209] closure    27  13     
034E  12008001           [210] move       0   3      
0352  12000009           [211] move       0   18     
0356  12008005           [212] move       0   11     
035A  12000002           [213] move       0   4      
035E  12000007           [214] move       0   14     
0362  25870300           [215] closure    28  14     
0366  12008001           [216] move       0   3      
036A  12000009           [217] move       0   18     
036E  1200800C           [218] move       0   25     
0372  12008007           [219] move       0   15     
0376  12000002           [220] move       0   4      
037A  1200000B           [221] move       0   22     
037E  1200800A           [222] move       0   21     
0382  4B470100           [223] newtable   29  0   5    ; array=0, hash=5
0386  A5C70300           [224] closure    30  15     
038A  1200000A           [225] move       0   20     
038E  4C87879C           [226] settable   29  313 30   ; "Initialize"
0392  A5070400           [227] closure    30  16     
0396  12000009           [228] move       0   18     
039A  4C87079D           [229] settable   29  314 30   ; "GetInfo"
039E  A5470400           [230] closure    30  17     
03A2  12000003           [231] move       0   6      
03A6  1200800B           [232] move       0   23     
03AA  12008007           [233] move       0   15     
03AE  12000004           [234] move       0   8      
03B2  12000009           [235] move       0   18     
03B6  12008001           [236] move       0   3      
03BA  1200800C           [237] move       0   25     
03BE  12008003           [238] move       0   7      
03C2  12000005           [239] move       0   10     
03C6  12000002           [240] move       0   4      
03CA  12000006           [241] move       0   12     
03CE  12008006           [242] move       0   13     
03D2  1200000C           [243] move       0   24     
03D6  1200800D           [244] move       0   27     
03DA  12008004           [245] move       0   9      
03DE  1200000E           [246] move       0   28     
03E2  4C87879D           [247] settable   29  315 30   ; "Update"
03E6  A5870400           [248] closure    30  18     
03EA  1200000D           [249] move       0   26     
03EE  4C87079E           [250] settable   29  316 30   ; "ReachedObjective"
03F2  A5C70400           [251] closure    30  19     
03F6  1200000B           [252] move       0   22     
03FA  4C87879E           [253] settable   29  317 30   ; "FindEnemyAvatars"
03FE  5E070001           [254] return     29  2      
0402  1E008000           [255] return     0   1      
                         * constants:
0406  3E                 sizek (62)
0407  01                 const type 3
0408  0FA3E338           const [0]: (954442511)
040C  04                 const type 4
040D  08                 string size (8)
040E  7061636B61676500   "package\0"
                         const [1]: "package"
0416  04                 const type 4
0417  07                 string size (7)
0418  736565616C6C00     "seeall\0"
                         const [2]: "seeall"
041F  01                 const type 3
0420  44DC9B32           const [3]: (849075268)
0424  04                 const type 4
0425  17                 string size (23)
0426  45452E496E746572+  "EE.Inter"
042E  666163652E557469+  "face.Uti"
0436  6C697469657300     "lities\0"
                         const [4]: "EE.Interface.Utilities"
043D  04                 const type 4
043E  1C                 string size (28)
043F  4C6F7475732E5363+  "Lotus.Sc"
0447  72697074732E4C69+  "ripts.Li"
044F  62732E5461626C65+  "bs.Table"
0457  4C696200           "Lib\0"
                         const [5]: "Lotus.Scripts.Libs.TableLib"
045B  01                 const type 3
045C  1A4B27EC           const [6]: (-332969190)
0460  04                 const type 4
0461  06                 string size (6)
0462  456E656D7900       "Enemy\0"
                         const [7]: "Enemy"
0468  03                 const type 3
0469  0000803F           const [8]: (0)
046D  04                 const type 4
046E  08                 string size (8)
046F  67526567696F6E00   "gRegion\0"
                         const [9]: "gRegion"
0477  01                 const type 3
0478  90F9CED1           const [10]: (-774964848)
047C  01                 const type 3
047D  73290920           const [11]: (537471347)
0481  03                 const type 3
0482  00000000           const [12]: (0)
0486  03                 const type 3
0487  00007042           const [13]: (0)
048B  03                 const type 3
048C  00001041           const [14]: (0)
0490  04                 const type 4
0491  06                 string size (6)
0492  6D6178416900       "maxAi\0"
                         const [15]: "maxAi"
0498  03                 const type 3
0499  0000C040           const [16]: (0)
049D  03                 const type 3
049E  0000E040           const [17]: (0)
04A2  03                 const type 3
04A3  00000041           const [18]: (0)
04A7  03                 const type 3
04A8  00004041           const [19]: (0)
04AC  03                 const type 3
04AD  00008041           const [20]: (0)
04B1  03                 const type 3
04B2  00002041           const [21]: (0)
04B6  03                 const type 3
04B7  0000B041           const [22]: (0)
04BB  03                 const type 3
04BC  00006041           const [23]: (0)
04C0  03                 const type 3
04C1  0000F041           const [24]: (0)
04C5  04                 const type 4
04C6  05                 string size (5)
04C7  7469657200         "tier\0"
                         const [25]: "tier"
04CC  03                 const type 3
04CD  00000040           const [26]: (0)
04D1  04                 const type 4
04D2  0C                 string size (12)
04D3  6E756D5371756164+  "numSquad"
04DB  4F626A00           "Obj\0"
                         const [27]: "numSquadObj"
04DF  03                 const type 3
04E0  00004040           const [28]: (0)
04E4  03                 const type 3
04E5  00008040           const [29]: (0)
04E9  04                 const type 4
04EA  0D                 string size (13)
04EB  6D696E5371756164+  "minSquad"
04F3  53697A6500         "Size\0"
                         const [30]: "minSquadSize"
04F8  04                 const type 4
04F9  0D                 string size (13)
04FA  6D61785371756164+  "maxSquad"
0502  53697A6500         "Size\0"
                         const [31]: "maxSquadSize"
0507  03                 const type 3
0508  0000A040           const [32]: (0)
050C  04                 const type 4
050D  0A                 string size (10)
050E  617272617953697A+  "arraySiz"
0516  6500               "e\0"
                         const [33]: "arraySize"
0518  04                 const type 4
0519  06                 string size (6)
051A  696E64657800       "index\0"
                         const [34]: "index"
0520  03                 const type 3
0521  9A99993E           const [35]: (-102)
0525  03                 const type 3
0526  9A99193F           const [36]: (-102)
052A  04                 const type 4
052B  12                 string size (18)
052C  64656661756C7453+  "defaultS"
0534  7061776E44656C61+  "pawnDela"
053C  7900               "y\0"
                         const [37]: "defaultSpawnDelay"
053E  04                 const type 4
053F  14                 string size (20)
0540  737061776E44656C+  "spawnDel"
0548  6179496E6372656D+  "ayIncrem"
0550  656E7400           "ent\0"
                         const [38]: "spawnDelayIncrement"
0554  04                 const type 4
0555  0E                 string size (14)
0556  6D6178537061776E+  "maxSpawn"
055E  44656C617900       "Delay\0"
                         const [39]: "maxSpawnDelay"
0564  03                 const type 3
0565  00007041           const [40]: (0)
0569  04                 const type 4
056A  14                 string size (20)
056B  6F626A6563746976+  "objectiv"
0573  6555706461746554+  "eUpdateT"
057B  696D6500           "ime\0"
                         const [41]: "objectiveUpdateTime"
057F  04                 const type 4
0580  0B                 string size (11)
0581  6D61784C65616465+  "maxLeade"
0589  727300             "rs\0"
                         const [42]: "maxLeaders"
058C  04                 const type 4
058D  13                 string size (19)
058E  696E697469616C53+  "initialS"
0596  7061776E416D6F75+  "pawnAmou"
059E  6E7400             "nt\0"
                         const [43]: "initialSpawnAmount"
05A1  04                 const type 4
05A2  13                 string size (19)
05A3  686967685072696F+  "highPrio"
05AB  7269747955706461+  "rityUpda"
05B3  746500             "te\0"
                         const [44]: "highPriorityUpdate"
05B6  03                 const type 3
05B7  00004842           const [45]: (0)
05BB  03                 const type 3
05BC  00002042           const [46]: (0)
05C0  03                 const type 3
05C1  0000A041           const [47]: (0)
05C5  04                 const type 4
05C6  1D                 string size (29)
05C7  636C6561724F7264+  "clearOrd"
05CF  6572734166746572+  "ersAfter"
05D7  486967685072696F+  "HighPrio"
05DF  7269747900         "rity\0"
                         const [48]: "clearOrdersAfterHighPriority"
05E4  01                 const type 3
05E5  01000000           const [49]: (1)
05E9  04                 const type 4
05EA  17                 string size (23)
05EB  686967685072696F+  "highPrio"
05F3  7269747953706177+  "ritySpaw"
05FB  6E44656C617900     "nDelay\0"
                         const [50]: "highPrioritySpawnDelay"
0602  04                 const type 4
0603  0A                 string size (10)
0604  6973496E53706163+  "isInSpac"
060C  6500               "e\0"
                         const [51]: "isInSpace"
060E  01                 const type 3
060F  00000000           const [52]: (0)
0613  04                 const type 4
0614  10                 string size (16)
0615  73717561644F626A+  "squadObj"
061D  417474656D707400   "Attempt\0"
                         const [53]: "squadObjAttempt"
0625  04                 const type 4
0626  0B                 string size (11)
0627  6F626A417474656D+  "objAttem"
062F  707400             "pt\0"
                         const [54]: "objAttempt"
0632  04                 const type 4
0633  0E                 string size (14)
0634  46696E644F626A65+  "FindObje"
063C  637469766500       "ctive\0"
                         const [55]: "FindObjective"
0642  04                 const type 4
0643  14                 string size (20)
0644  49734F626A656374+  "IsObject"
064C  697665436F6D706C+  "iveCompl"
0654  65746500           "ete\0"
                         const [56]: "IsObjectiveComplete"
0658  04                 const type 4
0659  0B                 string size (11)
065A  496E697469616C69+  "Initiali"
0662  7A6500             "ze\0"
                         const [57]: "Initialize"
0665  04                 const type 4
0666  08                 string size (8)
0667  476574496E666F00   "GetInfo\0"
                         const [58]: "GetInfo"
066F  04                 const type 4
0670  07                 string size (7)
0671  55706461746500     "Update\0"
                         const [59]: "Update"
0678  04                 const type 4
0679  11                 string size (17)
067A  526561636865644F+  "ReachedO"
0682  626A656374697665+  "bjective"
068A  00                 "\0"
                         const [60]: "ReachedObjective"
068B  04                 const type 4
068C  11                 string size (17)
068D  46696E64456E656D+  "FindEnem"
0695  7941766174617273+  "yAvatars"
069D  00                 "\0"
                         const [61]: "FindEnemyAvatars"
                         * functions:
069E  14                 sizep (20)
                         
069F                     ** function [0] definition (level 2)
                         ** start of function **
069F  00                 string size (0)
                         source name: (none)
06A0  18                 line defined (24)
06A1  24                 last line defined (36)
06A2  00                 nups (0)
06A3  02                 numparams (2)
06A4  00                 is_vararg (0)
06A5  0C                 maxstacksize (12)
                         * code:
06A6  10                 sizecode (16)
06A7  DD000000           [01] getglobal  3   0        ; FLT_MAX
06AB  1D410000           [02] getglobal  4   1        ; 1672515847
06AF  52018000           [03] move       5   1      
06B3  22010101           [04] call       4   2   4  
06B7  1A800180           [05] jmp        7            ; to [13]
06BB  64824004           [06] self       9   8   258  ; -1399888605
06BF  D2020000           [07] move       11  0      
06C3  62828001           [08] call       9   3   2  
fail op	21
06C7  15C08004           [09] concat     0   9   3  
06CB  1A400080           [10] jmp        2            ; to [13]
06CF  92000004           [11] move       2   8      
06D3  D2008004           [12] move       3   9      
06D7  16810000           [13] tforloop   4       2    ; to [15] if exit
06DB  1A80FD7F           [14] jmp        -9           ; to [6]
06DF  9E000001           [15] return     2   2      
06E3  1E008000           [16] return     0   1      
                         * constants:
06E7  03                 sizek (3)
06E8  04                 const type 4
06E9  08                 string size (8)
06EA  464C545F4D415800   "FLT_MAX\0"
                         const [0]: "FLT_MAX"
06F2  01                 const type 3
06F3  0791B063           const [1]: (1672515847)
06F7  01                 const type 3
06F8  23658FAC           const [2]: (-1399888605)
                         * functions:
06FC  00                 sizep (0)
                         * lines:
06FD  10                 sizelineinfo (16)
                         [pc] (line)
06FE  1A                 [01] (26)
06FF  00                 [02] (27)
0700  00                 [03] (27)
0701  00                 [04] (27)
0702  1B                 [05] (27)
0703  00                 [06] (28)
0704  00                 [07] (28)
0705  00                 [08] (28)
0706  1B                 [09] (29)
0707  00                 [10] (29)
0708  00                 [11] (30)
0709  00                 [12] (31)
070A  1B                 [13] (27)
070B  00                 [14] (32)
070C  00                 [15] (35)
070D  00                 [16] (36)
                         * locals:
073E  00                 sizelocvars (0)
                         * upvalues:
073F  00                 sizeupvalues (0)
                         ** end of function **

                         
0740                     ** function [1] definition (level 2)
                         ** start of function **
0740  00                 string size (0)
                         source name: (none)
0741  3F                 line defined (63)
0742  41                 last line defined (65)
0743  00                 nups (0)
0744  02                 numparams (2)
0745  00                 is_vararg (0)
0746  03                 maxstacksize (3)
                         * code:
0747  03                 sizecode (3)
0748  97000000           [1] loadbool   2   0   0    ; false
074C  9E000001           [2] return     2   2      
0750  1E008000           [3] return     0   1      
                         * constants:
0754  00                 sizek (0)
                         * functions:
0755  00                 sizep (0)
                         * lines:
0756  03                 sizelineinfo (3)
                         [pc] (line)
0757  40                 [1] (64)
0758  00                 [2] (64)
0759  00                 [3] (65)
                         * locals:
0763  00                 sizelocvars (0)
                         * upvalues:
0764  00                 sizeupvalues (0)
                         ** end of function **

                         
0765                     ** function [2] definition (level 2)
                         ** start of function **
0765  00                 string size (0)
                         source name: (none)
0766  43                 line defined (67)
0767  45                 last line defined (69)
0768  00                 nups (0)
0769  02                 numparams (2)
076A  00                 is_vararg (0)
076B  03                 maxstacksize (3)
                         * code:
076C  03                 sizecode (3)
076D  97000000           [1] loadbool   2   0   0    ; false
0771  9E000001           [2] return     2   2      
0775  1E008000           [3] return     0   1      
                         * constants:
0779  00                 sizek (0)
                         * functions:
077A  00                 sizep (0)
                         * lines:
077B  03                 sizelineinfo (3)
                         [pc] (line)
077C  44                 [1] (68)
077D  00                 [2] (68)
077E  00                 [3] (69)
                         * locals:
0788  00                 sizelocvars (0)
                         * upvalues:
0789  00                 sizeupvalues (0)
                         ** end of function **

                         
078A                     ** function [3] definition (level 2)
                         ** start of function **
078A  00                 string size (0)
                         source name: (none)
078B  47                 line defined (71)
078C  49                 last line defined (73)
078D  00                 nups (0)
078E  03                 numparams (3)
078F  00                 is_vararg (0)
0790  06                 maxstacksize (6)
                         * code:
0791  07                 sizecode (7)
0792  DD000000           [1] getglobal  3   0        ; 2144646525
0796  19410000           [2] loadk      4   1        ; 0
079A  4A018000           [3] len        5   1      
079E  E2808001           [4] call       3   3   2  
07A2  CEC08000           [5] gettable   3   1   3  
07A6  DE000001           [6] return     3   2      
07AA  1E008000           [7] return     0   1      
                         * constants:
07AE  02                 sizek (2)
07AF  01                 const type 3
07B0  7DB5D47F           const [0]: (2144646525)
07B4  03                 const type 3
07B5  0000803F           const [1]: (0)
                         * functions:
07B9  00                 sizep (0)
                         * lines:
07BA  07                 sizelineinfo (7)
                         [pc] (line)
07BB  48                 [1] (72)
07BC  00                 [2] (72)
07BD  00                 [3] (72)
07BE  00                 [4] (72)
07BF  48                 [5] (72)
07C0  00                 [6] (72)
07C1  00                 [7] (73)
                         * locals:
07D7  00                 sizelocvars (0)
                         * upvalues:
07D8  00                 sizeupvalues (0)
                         ** end of function **

                         
07D9                     ** function [4] definition (level 2)
                         ** start of function **
07D9  00                 string size (0)
                         source name: (none)
07DA  4B                 line defined (75)
07DB  4D                 last line defined (77)
07DC  00                 nups (0)
07DD  02                 numparams (2)
07DE  00                 is_vararg (0)
07DF  03                 maxstacksize (3)
                         * code:
07E0  03                 sizecode (3)
07E1  97000000           [1] loadbool   2   0   0    ; false
07E5  9E000001           [2] return     2   2      
07E9  1E008000           [3] return     0   1      
                         * constants:
07ED  00                 sizek (0)
                         * functions:
07EE  00                 sizep (0)
                         * lines:
07EF  03                 sizelineinfo (3)
                         [pc] (line)
07F0  4C                 [1] (76)
07F1  00                 [2] (76)
07F2  00                 [3] (77)
                         * locals:
07FC  00                 sizelocvars (0)
                         * upvalues:
07FD  00                 sizeupvalues (0)
                         ** end of function **

                         
07FE                     ** function [5] definition (level 2)
                         ** start of function **
07FE  00                 string size (0)
                         source name: (none)
07FF  4F                 line defined (79)
0800  8A                 last line defined (138)
0801  01                 nups (5)
0802  05                 numparams (4)
0803  04                 is_vararg (0)
0804  00                 maxstacksize (20)
                         * code:
0807  01                 sizecode (128)
0808  0B010000           [001] newtable   4   0   0    ; array=0, hash=0
080C  5D010000           [002] getglobal  5   0        ; 1074689893
0810  92010001           [003] move       6   2      
0814  62810001           [004] call       5   2   2  
0818  58410000           [005] test       5       1    ; to [7] if false
081C  1AC00080           [006] jmp        4            ; to [11]
0820  53010000           [007] getupval   5   0      
0824  6441C002           [008] self       5   5   257  ; -2126839131
0828  D2010001           [009] move       7   2      
082C  62418001           [010] call       5   3   1  
0830  D8000000           [011] test       3       0    ; to [13] if true
0834  1A800980           [012] jmp        39           ; to [52]
0838  53018000           [013] getupval   5   1      
083C  4E81C002           [014] gettable   5   5   258  ; "spawnBoss"
0840  58010000           [015] test       5       0    ; to [17] if true
0844  1A800880           [016] jmp        35           ; to [52]
0848  53010000           [017] getupval   5   0      
084C  64C1C002           [018] self       5   5   259  ; 923887430
0850  62810001           [019] call       5   2   2  
0854  93010000           [020] getupval   6   0      
0858  A4014103           [021] self       6   6   260  ; -207649908
085C  13020001           [022] getupval   8   2      
0860  57028000           [023] loadbool   9   1   0    ; true
0864  A2410002           [024] call       6   4   1  
0868  93010000           [025] getupval   6   0      
086C  A4414103           [026] self       6   6   261  ; 387241288
0870  06020004           [027] loadnil    8   8      
0874  52028000           [028] move       9   1      
0878  99820100           [029] loadk      10  6        ; 0
087C  C6028005           [030] loadnil    11  11     
0880  1DC30100           [031] getglobal  12  7        ; Engine
0884  0E034206           [032] gettable   12  12  264  ; "EXIMUS"
0888  A2818003           [033] call       6   7   2  
088C  DD010000           [034] getglobal  7   0        ; 1074689893
0890  12020003           [035] move       8   6      
0894  E2810001           [036] call       7   2   2  
0898  D8410000           [037] test       7       1    ; to [39] if false
089C  1AC00180           [038] jmp        8            ; to [47]
08A0  DD410200           [039] getglobal  7   9        ; table
08A4  CE81C203           [040] gettable   7   7   266  ; -431682403
08A8  13028001           [041] getupval   8   3      
08AC  52020003           [042] move       9   6      
08B0  E2418001           [043] call       7   3   1  
08B4  D7000000           [044] loadbool   3   0   0    ; false
08B8  D3018000           [045] getupval   7   1      
08BC  CCC14281           [046] settable   7   258 267  ; "spawnBoss" 0
08C0  D3010000           [047] getupval   7   0      
08C4  E401C103           [048] self       7   7   260  ; -207649908
08C8  52028002           [049] move       9   5      
08CC  97020000           [050] loadbool   10  0   0    ; false
08D0  E2410002           [051] call       7   4   1  
08D4  C6018003           [052] loadnil    7   7      
08D8  13028000           [053] getupval   8   1      
08DC  0E024304           [054] gettable   8   8   268  ; "leaderChance"
fail op	35
08E0  63404304           [055] close      1  
08E4  1A000180           [056] jmp        5            ; to [62]
08E8  13028000           [057] getupval   8   1      
08EC  CE014304           [058] gettable   7   8   268  ; "leaderChance"
08F0  D8000000           [059] test       3       0    ; to [61] if true
08F4  1A000080           [060] jmp        1            ; to [62]
08F8  C481C303           [061] mul        7   7   270  ; 0
08FC  19C20300           [062] loadk      8   15       ; 0
0900  52020000           [063] move       9   0      
0904  99C20300           [064] loadk      10  15       ; 0
0908  10C20E80           [065] forprep    8   60       ; to [126]
090C  06030006           [066] loadnil    12  12     
fail op	35
0910  6340C303           [067] close      1  
0914  1A800180           [068] jmp        7            ; to [76]
0918  5D030400           [069] getglobal  13  16       ; math
091C  4E43C406           [070] gettable   13  13  273  ; -2040962569
0920  62838000           [071] call       13  1   2  
fail op	21
0924  55C08106           [072] concat     1   13  7  
0928  1A000080           [073] jmp        1            ; to [75]
092C  D7400000           [074] loadbool   3   0   1    ; false, to [76]
0930  D7008000           [075] loadbool   3   1   0    ; true
0934  D8000000           [076] test       3       0    ; to [78] if true
0938  1A000680           [077] jmp        25           ; to [103]
093C  53038001           [078] getupval   13  3      
0940  4A038006           [079] len        13  13     
0944  93038000           [080] getupval   14  1      
0948  8E834407           [081] gettable   14  14  274  ; "maxLeaders"
094C  D3030002           [082] getupval   15  4      
0950  8EC30307           [083] gettable   14  14  15 
fail op	21
0954  15808306           [084] concat     0   13  14 
0958  1A000480           [085] jmp        17           ; to [103]
095C  53030000           [086] getupval   13  0      
0960  6443C106           [087] self       13  13  261  ; 387241288
0964  C6038007           [088] loadnil    15  15     
0968  12048000           [089] move       16  1      
096C  59840100           [090] loadk      17  6        ; 0
0970  86040009           [091] loadnil    18  18     
0974  DDC40100           [092] getglobal  19  7        ; Engine
0978  CE04C209           [093] gettable   19  19  264  ; "EXIMUS"
097C  62838003           [094] call       13  7   2  
0980  12038006           [095] move       12  13     
0984  5D430200           [096] getglobal  13  9        ; table
0988  4E83C206           [097] gettable   13  13  266  ; -431682403
098C  93038001           [098] getupval   14  3      
0990  D2030006           [099] move       15  12     
0994  62438001           [100] call       13  3   1  
0998  D7000000           [101] loadbool   3   0   0    ; false
099C  1A400280           [102] jmp        10           ; to [113]
09A0  53030000           [103] getupval   13  0      
09A4  6443C106           [104] self       13  13  261  ; 387241288
09A8  C6038007           [105] loadnil    15  15     
09AC  12048000           [106] move       16  1      
09B0  59840100           [107] loadk      17  6        ; 0
09B4  86040009           [108] loadnil    18  18     
09B8  DDC40100           [109] getglobal  19  7        ; Engine
09BC  CEC4C409           [110] gettable   19  19  275  ; "STANDARD"
09C0  62838003           [111] call       13  7   2  
09C4  12038006           [112] move       12  13     
09C8  5D030000           [113] getglobal  13  0        ; 1074689893
09CC  92030006           [114] move       14  12     
09D0  62830001           [115] call       13  2   2  
09D4  58430000           [116] test       13      1    ; to [118] if false
09D8  1AC00180           [117] jmp        8            ; to [126]
09DC  64034506           [118] self       13  12  276  ; -297448851
09E0  D7038000           [119] loadbool   15  1   0    ; true
09E4  62438001           [120] call       13  3   1  
09E8  5D430200           [121] getglobal  13  9        ; table
09EC  4E83C206           [122] gettable   13  13  266  ; -431682403
09F0  92030002           [123] move       14  4      
09F4  D2030006           [124] move       15  12     
09F8  62438001           [125] call       13  3   1  
09FC  1482F07F           [126] forloop    8   -61      ; to [66] if loop
0A00  1E010001           [127] return     4   2      
0A04  1E008000           [128] return     0   1      
                         * constants:
0A08  15                 sizek (21)
0A09  01                 const type 3
0A0A  65770E40           const [0]: (1074689893)
0A0E  01                 const type 3
0A0F  A5023B81           const [1]: (-2126839131)
0A13  04                 const type 4
0A14  0A                 string size (10)
0A15  737061776E426F73+  "spawnBos"
0A1D  7300               "s\0"
                         const [2]: "spawnBoss"
0A1F  01                 const type 3
0A20  46671137           const [3]: (923887430)
0A24  01                 const type 3
0A25  8C839FF3           const [4]: (-207649908)
0A29  01                 const type 3
0A2A  48D51417           const [5]: (387241288)
0A2E  03                 const type 3
0A2F  00000000           const [6]: (0)
0A33  04                 const type 4
0A34  07                 string size (7)
0A35  456E67696E6500     "Engine\0"
                         const [7]: "Engine"
0A3C  04                 const type 4
0A3D  07                 string size (7)
0A3E  4558494D555300     "EXIMUS\0"
                         const [8]: "EXIMUS"
0A45  04                 const type 4
0A46  06                 string size (6)
0A47  7461626C6500       "table\0"
                         const [9]: "table"
0A4D  01                 const type 3
0A4E  9D0C45E6           const [10]: (-431682403)
0A52  01                 const type 3
0A53  00000000           const [11]: (0)
0A57  04                 const type 4
0A58  0D                 string size (13)
0A59  6C65616465724368+  "leaderCh"
0A61  616E636500         "ance\0"
                         const [12]: "leaderChance"
0A66  00                 const type 0
                         const [13]: nil
0A67  03                 const type 3
0A68  00000040           const [14]: (0)
0A6C  03                 const type 3
0A6D  0000803F           const [15]: (0)
0A71  04                 const type 4
0A72  05                 string size (5)
0A73  6D61746800         "math\0"
                         const [16]: "math"
0A78  01                 const type 3
0A79  F7615986           const [17]: (-2040962569)
0A7D  04                 const type 4
0A7E  0B                 string size (11)
0A7F  6D61784C65616465+  "maxLeade"
0A87  727300             "rs\0"
                         const [18]: "maxLeaders"
0A8A  04                 const type 4
0A8B  09                 string size (9)
0A8C  5354414E44415244+  "STANDARD"
0A94  00                 "\0"
                         const [19]: "STANDARD"
0A95  01                 const type 3
0A96  6D4A45EE           const [20]: (-297448851)
                         * functions:
0A9A  00                 sizep (0)
                         * lines:
0A9C  01                 sizelineinfo (128)
                         [pc] (line)
0A9D  50                 [001] (80)
0A9E  00                 [002] (82)
0A9F  00                 [003] (82)
0AA0  00                 [004] (82)
0AA1  52                 [005] (82)
0AA2  00                 [006] (82)
0AA3  00                 [007] (83)
0AA4  00                 [008] (83)
0AA5  52                 [009] (83)
0AA6  00                 [010] (83)
0AA7  00                 [011] (87)
0AA8  00                 [012] (87)
0AA9  52                 [013] (87)
0AAA  00                 [014] (87)
0AAB  00                 [015] (87)
0AAC  00                 [016] (87)
0AAD  52                 [017] (88)
0AAE  00                 [018] (88)
0AAF  00                 [019] (88)
0AB0  00                 [020] (89)
0AB1  52                 [021] (89)
0AB2  00                 [022] (89)
0AB3  00                 [023] (89)
0AB4  00                 [024] (89)
0AB5  53                 [025] (91)
0AB6  00                 [026] (91)
0AB7  00                 [027] (91)
0AB8  00                 [028] (91)
0AB9  53                 [029] (91)
0ABA  00                 [030] (91)
0ABB  00                 [031] (91)
0ABC  00                 [032] (91)
0ABD  53                 [033] (91)
0ABE  00                 [034] (93)
0ABF  00                 [035] (93)
0AC0  00                 [036] (93)
0AC1  53                 [037] (93)
0AC2  00                 [038] (93)
0AC3  00                 [039] (94)
0AC4  00                 [040] (94)
0AC5  57                 [041] (94)
0AC6  00                 [042] (94)
0AC7  00                 [043] (94)
0AC8  00                 [044] (95)
0AC9  57                 [045] (96)
0ACA  00                 [046] (96)
0ACB  00                 [047] (99)
0ACC  00                 [048] (99)
0ACD  57                 [049] (99)
0ACE  00                 [050] (99)
0ACF  00                 [051] (99)
0AD0  00                 [052] (102)
0AD1  57                 [053] (105)
0AD2  00                 [054] (105)
0AD3  00                 [055] (105)
0AD4  00                 [056] (105)
0AD5  57                 [057] (106)
0AD6  00                 [058] (106)
0AD7  00                 [059] (109)
0AD8  00                 [060] (109)
0AD9  57                 [061] (110)
0ADA  00                 [062] (116)
0ADB  00                 [063] (116)
0ADC  00                 [064] (116)
0ADD  58                 [065] (116)
0ADE  00                 [066] (117)
0ADF  00                 [067] (119)
0AE0  00                 [068] (119)
0AE1  58                 [069] (120)
0AE2  00                 [070] (120)
0AE3  00                 [071] (120)
0AE4  00                 [072] (120)
0AE5  58                 [073] (120)
0AE6  00                 [074] (120)
0AE7  00                 [075] (120)
0AE8  00                 [076] (123)
0AE9  59                 [077] (123)
0AEA  00                 [078] (123)
0AEB  00                 [079] (123)
0AEC  00                 [080] (123)
0AED  59                 [081] (123)
0AEE  00                 [082] (123)
0AEF  00                 [083] (123)
0AF0  00                 [084] (123)
0AF1  59                 [085] (123)
0AF2  00                 [086] (124)
0AF3  00                 [087] (124)
0AF4  00                 [088] (124)
0AF5  59                 [089] (124)
0AF6  00                 [090] (124)
0AF7  00                 [091] (124)
0AF8  00                 [092] (124)
0AF9  59                 [093] (124)
0AFA  00                 [094] (124)
0AFB  00                 [095] (124)
0AFC  00                 [096] (125)
0AFD  5B                 [097] (125)
0AFE  00                 [098] (125)
0AFF  00                 [099] (125)
0B00  00                 [100] (125)
0B01  5B                 [101] (126)
0B02  00                 [102] (126)
0B03  00                 [103] (-128)
0B04  00                 [104] (-128)
0B05  5B                 [105] (-128)
0B06  00                 [106] (-128)
0B07  00                 [107] (-128)
0B08  00                 [108] (-128)
0B09  5B                 [109] (-128)
0B0A  00                 [110] (-128)
0B0B  00                 [111] (-128)
0B0C  00                 [112] (-128)
0B0D  5B                 [113] (-125)
0B0E  00                 [114] (-125)
0B0F  00                 [115] (-125)
0B10  00                 [116] (-125)
0B11  5B                 [117] (-125)
0B12  00                 [118] (-124)
0B13  00                 [119] (-124)
0B14  00                 [120] (-124)
0B15  5B                 [121] (-123)
0B16  00                 [122] (-123)
0B17  00                 [123] (-123)
0B18  00                 [124] (-123)
0B19  5B                 [125] (-123)
0B1A  00                 [126] (116)
0B1B  00                 [127] (-119)
0B1C  00                 [128] (-118)
                         * locals:
0C9D  00                 sizelocvars (0)
                         * upvalues:
0C9E  00                 sizeupvalues (0)
                         ** end of function **

                         
0C9F                     ** function [6] definition (level 2)
                         ** start of function **
0C9F  00                 string size (0)
                         source name: (none)
0CA1  01                 line defined (141)
0CA2  D9                 last line defined (217)
0CA3  01                 nups (8)
0CA4  08                 numparams (1)
0CA5  01                 is_vararg (0)
0CA6  00                 maxstacksize (14)
                         * code:
0CA9  02                 sizecode (344)
0CAA  5D000000           [001] getglobal  1   0        ; 1074689893
0CAE  93000000           [002] getupval   2   0      
0CB2  62800001           [003] call       1   2   2  
0CB6  58400000           [004] test       1       1    ; to [6] if false
0CBA  1A000180           [005] jmp        5            ; to [11]
0CBE  5D000000           [006] getglobal  1   0        ; 1074689893
0CC2  93008000           [007] getupval   2   1      
0CC6  62800001           [008] call       1   2   2  
0CCA  58000000           [009] test       1       0    ; to [11] if true
0CCE  1A000480           [010] jmp        17           ; to [28]
0CD2  5D400000           [011] getglobal  1   1        ; 538022378
0CD6  99800000           [012] loadk      2   2        ; 0
0CDA  62400001           [013] call       1   2   1  
0CDE  5DC00000           [014] getglobal  1   3        ; gRegion
0CE2  6400C100           [015] self       1   1   260  ; -774964848
0CE6  62800001           [016] call       1   2   2  
fail op	8
0CEA  48008000           [017] setupval   1   1      
0CEE  5D000000           [018] getglobal  1   0        ; 1074689893
0CF2  93008000           [019] getupval   2   1      
0CF6  62800001           [020] call       1   2   2  
0CFA  58400000           [021] test       1       1    ; to [23] if false
0CFE  1A40FA7F           [022] jmp        -22          ; to [1]
0D02  53008000           [023] getupval   1   1      
0D06  6440C100           [024] self       1   1   261  ; 537471347
0D0A  62800001           [025] call       1   2   2  
fail op	8
0D0E  48000000           [026] setupval   1   0      
0D12  1A00F97F           [027] jmp        -27          ; to [1]
0D16  53000001           [028] getupval   1   2      
0D1A  93008001           [029] getupval   2   3      
0D1E  8EC04101           [030] gettable   2   2   263  ; -132701534
0D22  DD000000           [031] getglobal  3   0        ; 1074689893
0D26  0E814100           [032] gettable   4   0   262  ; "maxAi"
0D2A  E2800001           [033] call       3   2   2  
0D2E  13010001           [034] getupval   4   2      
0D32  0E814102           [035] gettable   4   4   262  ; "maxAi"
0D36  4E814100           [036] gettable   5   0   262  ; "maxAi"
0D3A  A2800002           [037] call       2   4   2  
0D3E  4C800083           [038] settable   1   262 2    ; "maxAi"
0D42  53000001           [039] getupval   1   2      
0D46  93008001           [040] getupval   2   3      
0D4A  8EC04101           [041] gettable   2   2   263  ; -132701534
0D4E  DD000000           [042] getglobal  3   0        ; 1074689893
0D52  0E014200           [043] gettable   4   0   264  ; "tier"
0D56  E2800001           [044] call       3   2   2  
0D5A  13010001           [045] getupval   4   2      
0D5E  0E014202           [046] gettable   4   4   264  ; "tier"
0D62  4E014200           [047] gettable   5   0   264  ; "tier"
0D66  A2800002           [048] call       2   4   2  
0D6A  4C800084           [049] settable   1   264 2    ; "tier"
0D6E  53000001           [050] getupval   1   2      
0D72  93008001           [051] getupval   2   3      
0D76  8EC04101           [052] gettable   2   2   263  ; -132701534
0D7A  DD000000           [053] getglobal  3   0        ; 1074689893
0D7E  0E414200           [054] gettable   4   0   265  ; "numSquadObj"
0D82  E2800001           [055] call       3   2   2  
0D86  13010001           [056] getupval   4   2      
0D8A  0E414202           [057] gettable   4   4   265  ; "numSquadObj"
0D8E  4E414200           [058] gettable   5   0   265  ; "numSquadObj"
0D92  A2800002           [059] call       2   4   2  
0D96  4C808084           [060] settable   1   265 2    ; "numSquadObj"
0D9A  53000001           [061] getupval   1   2      
0D9E  93008001           [062] getupval   2   3      
0DA2  8EC04101           [063] gettable   2   2   263  ; -132701534
0DA6  DD000000           [064] getglobal  3   0        ; 1074689893
0DAA  0E814200           [065] gettable   4   0   266  ; "minSquadSize"
0DAE  E2800001           [066] call       3   2   2  
0DB2  13010001           [067] getupval   4   2      
0DB6  0E814202           [068] gettable   4   4   266  ; "minSquadSize"
0DBA  4E814200           [069] gettable   5   0   266  ; "minSquadSize"
0DBE  A2800002           [070] call       2   4   2  
0DC2  4C800085           [071] settable   1   266 2    ; "minSquadSize"
0DC6  53000001           [072] getupval   1   2      
0DCA  93008001           [073] getupval   2   3      
0DCE  8EC04101           [074] gettable   2   2   263  ; -132701534
0DD2  DD000000           [075] getglobal  3   0        ; 1074689893
0DD6  0EC14200           [076] gettable   4   0   267  ; "maxSquadSize"
0DDA  E2800001           [077] call       3   2   2  
0DDE  13010001           [078] getupval   4   2      
0DE2  0EC14202           [079] gettable   4   4   267  ; "maxSquadSize"
0DE6  4EC14200           [080] gettable   5   0   267  ; "maxSquadSize"
0DEA  A2800002           [081] call       2   4   2  
0DEE  4C808085           [082] settable   1   267 2    ; "maxSquadSize"
0DF2  53000001           [083] getupval   1   2      
0DF6  93008001           [084] getupval   2   3      
0DFA  8EC04101           [085] gettable   2   2   263  ; -132701534
0DFE  DD000000           [086] getglobal  3   0        ; 1074689893
0E02  0E014300           [087] gettable   4   0   268  ; "index"
0E06  E2800001           [088] call       3   2   2  
0E0A  13010001           [089] getupval   4   2      
0E0E  0E014302           [090] gettable   4   4   268  ; "index"
0E12  4E014300           [091] gettable   5   0   268  ; "index"
0E16  A2800002           [092] call       2   4   2  
0E1A  4C800086           [093] settable   1   268 2    ; "index"
0E1E  53000001           [094] getupval   1   2      
0E22  93008001           [095] getupval   2   3      
0E26  8EC04101           [096] gettable   2   2   263  ; -132701534
0E2A  DD000000           [097] getglobal  3   0        ; 1074689893
0E2E  0E414300           [098] gettable   4   0   269  ; "defaultSpawnDelay"
0E32  E2800001           [099] call       3   2   2  
0E36  13010001           [100] getupval   4   2      
0E3A  0E414302           [101] gettable   4   4   269  ; "defaultSpawnDelay"
0E3E  4E414300           [102] gettable   5   0   269  ; "defaultSpawnDelay"
0E42  A2800002           [103] call       2   4   2  
0E46  4C808086           [104] settable   1   269 2    ; "defaultSpawnDelay"
0E4A  53000001           [105] getupval   1   2      
0E4E  93008001           [106] getupval   2   3      
0E52  8EC04101           [107] gettable   2   2   263  ; -132701534
0E56  DD000000           [108] getglobal  3   0        ; 1074689893
0E5A  0E814300           [109] gettable   4   0   270  ; "spawnDelayIncrement"
0E5E  E2800001           [110] call       3   2   2  
0E62  13010001           [111] getupval   4   2      
0E66  0E814302           [112] gettable   4   4   270  ; "spawnDelayIncrement"
0E6A  4E814300           [113] gettable   5   0   270  ; "spawnDelayIncrement"
0E6E  A2800002           [114] call       2   4   2  
0E72  4C800087           [115] settable   1   270 2    ; "spawnDelayIncrement"
0E76  53000001           [116] getupval   1   2      
0E7A  93008001           [117] getupval   2   3      
0E7E  8EC04101           [118] gettable   2   2   263  ; -132701534
0E82  DD000000           [119] getglobal  3   0        ; 1074689893
0E86  0EC14300           [120] gettable   4   0   271  ; "maxSpawnDelay"
0E8A  E2800001           [121] call       3   2   2  
0E8E  13010001           [122] getupval   4   2      
0E92  0EC14302           [123] gettable   4   4   271  ; "maxSpawnDelay"
0E96  4EC14300           [124] gettable   5   0   271  ; "maxSpawnDelay"
0E9A  A2800002           [125] call       2   4   2  
0E9E  4C808087           [126] settable   1   271 2    ; "maxSpawnDelay"
0EA2  53000001           [127] getupval   1   2      
0EA6  93008001           [128] getupval   2   3      
0EAA  8EC04101           [129] gettable   2   2   263  ; -132701534
0EAE  DD000000           [130] getglobal  3   0        ; 1074689893
0EB2  0E014400           [131] gettable   4   0   272  ; "initialSpawnAmount"
0EB6  E2800001           [132] call       3   2   2  
0EBA  13010001           [133] getupval   4   2      
0EBE  0E014402           [134] gettable   4   4   272  ; "initialSpawnAmount"
0EC2  4E014400           [135] gettable   5   0   272  ; "initialSpawnAmount"
0EC6  A2800002           [136] call       2   4   2  
0ECA  4C800088           [137] settable   1   272 2    ; "initialSpawnAmount"
0ECE  53000001           [138] getupval   1   2      
0ED2  93008001           [139] getupval   2   3      
0ED6  8EC04101           [140] gettable   2   2   263  ; -132701534
0EDA  DD000000           [141] getglobal  3   0        ; 1074689893
0EDE  0E414400           [142] gettable   4   0   273  ; "objectiveUpdateTime"
0EE2  E2800001           [143] call       3   2   2  
0EE6  13010001           [144] getupval   4   2      
0EEA  0E414402           [145] gettable   4   4   273  ; "objectiveUpdateTime"
0EEE  4E414400           [146] gettable   5   0   273  ; "objectiveUpdateTime"
0EF2  A2800002           [147] call       2   4   2  
0EF6  4C808088           [148] settable   1   273 2    ; "objectiveUpdateTime"
0EFA  53000001           [149] getupval   1   2      
0EFE  93008001           [150] getupval   2   3      
0F02  8EC04101           [151] gettable   2   2   263  ; -132701534
0F06  DD000000           [152] getglobal  3   0        ; 1074689893
0F0A  0E814400           [153] gettable   4   0   274  ; "maxLeaders"
0F0E  E2800001           [154] call       3   2   2  
0F12  13010001           [155] getupval   4   2      
0F16  0E814402           [156] gettable   4   4   274  ; "maxLeaders"
0F1A  4E814400           [157] gettable   5   0   274  ; "maxLeaders"
0F1E  A2800002           [158] call       2   4   2  
0F22  4C800089           [159] settable   1   274 2    ; "maxLeaders"
0F26  53000001           [160] getupval   1   2      
0F2A  93008001           [161] getupval   2   3      
0F2E  8EC04101           [162] gettable   2   2   263  ; -132701534
0F32  DD000000           [163] getglobal  3   0        ; 1074689893
0F36  0EC14400           [164] gettable   4   0   275  ; "clearOrdersAfterHighPriority"
0F3A  E2800001           [165] call       3   2   2  
0F3E  13010001           [166] getupval   4   2      
0F42  0EC14402           [167] gettable   4   4   275  ; "clearOrdersAfterHighPriority"
0F46  4EC14400           [168] gettable   5   0   275  ; "clearOrdersAfterHighPriority"
0F4A  A2800002           [169] call       2   4   2  
0F4E  4C808089           [170] settable   1   275 2    ; "clearOrdersAfterHighPriority"
0F52  53000001           [171] getupval   1   2      
0F56  93008001           [172] getupval   2   3      
0F5A  8EC04101           [173] gettable   2   2   263  ; -132701534
0F5E  DD000000           [174] getglobal  3   0        ; 1074689893
0F62  0E014500           [175] gettable   4   0   276  ; "highPrioritySpawnDelay"
0F66  E2800001           [176] call       3   2   2  
0F6A  13010001           [177] getupval   4   2      
0F6E  0E014502           [178] gettable   4   4   276  ; "highPrioritySpawnDelay"
0F72  4E014500           [179] gettable   5   0   276  ; "highPrioritySpawnDelay"
0F76  A2800002           [180] call       2   4   2  
0F7A  4C80008A           [181] settable   1   276 2    ; "highPrioritySpawnDelay"
0F7E  53000001           [182] getupval   1   2      
0F82  93008001           [183] getupval   2   3      
0F86  8EC04101           [184] gettable   2   2   263  ; -132701534
0F8A  DD000000           [185] getglobal  3   0        ; 1074689893
0F8E  0E414500           [186] gettable   4   0   277  ; "squadObjAttempt"
0F92  E2800001           [187] call       3   2   2  
0F96  13010001           [188] getupval   4   2      
0F9A  0E414502           [189] gettable   4   4   277  ; "squadObjAttempt"
0F9E  4E414500           [190] gettable   5   0   277  ; "squadObjAttempt"
0FA2  A2800002           [191] call       2   4   2  
0FA6  4C80808A           [192] settable   1   277 2    ; "squadObjAttempt"
0FAA  53000001           [193] getupval   1   2      
0FAE  93008001           [194] getupval   2   3      
0FB2  8EC04101           [195] gettable   2   2   263  ; -132701534
0FB6  DD000000           [196] getglobal  3   0        ; 1074689893
0FBA  0E814500           [197] gettable   4   0   278  ; "objAttempt"
0FBE  E2800001           [198] call       3   2   2  
0FC2  13010001           [199] getupval   4   2      
0FC6  0E814502           [200] gettable   4   4   278  ; "objAttempt"
0FCA  4E814500           [201] gettable   5   0   278  ; "objAttempt"
0FCE  A2800002           [202] call       2   4   2  
0FD2  4C80008B           [203] settable   1   278 2    ; "objAttempt"
0FD6  53000001           [204] getupval   1   2      
0FDA  93008001           [205] getupval   2   3      
0FDE  8EC04101           [206] gettable   2   2   263  ; -132701534
0FE2  DD000000           [207] getglobal  3   0        ; 1074689893
0FE6  0EC14500           [208] gettable   4   0   279  ; "FindObjective"
0FEA  E2800001           [209] call       3   2   2  
0FEE  13010001           [210] getupval   4   2      
0FF2  0EC14502           [211] gettable   4   4   279  ; "FindObjective"
0FF6  4EC14500           [212] gettable   5   0   279  ; "FindObjective"
0FFA  A2800002           [213] call       2   4   2  
0FFE  4C80808B           [214] settable   1   279 2    ; "FindObjective"
1002  53000001           [215] getupval   1   2      
1006  93008001           [216] getupval   2   3      
100A  8EC04101           [217] gettable   2   2   263  ; -132701534
100E  DD000000           [218] getglobal  3   0        ; 1074689893
1012  0E014600           [219] gettable   4   0   280  ; "IsObjectiveComplete"
1016  E2800001           [220] call       3   2   2  
101A  13010001           [221] getupval   4   2      
101E  0E014602           [222] gettable   4   4   280  ; "IsObjectiveComplete"
1022  4E014600           [223] gettable   5   0   280  ; "IsObjectiveComplete"
1026  A2800002           [224] call       2   4   2  
102A  4C80008C           [225] settable   1   280 2    ; "IsObjectiveComplete"
102E  53000001           [226] getupval   1   2      
1032  93008001           [227] getupval   2   3      
1036  8EC04101           [228] gettable   2   2   263  ; -132701534
103A  DD000000           [229] getglobal  3   0        ; 1074689893
103E  0E414600           [230] gettable   4   0   281  ; "isInSpace"
1042  E2800001           [231] call       3   2   2  
1046  13010001           [232] getupval   4   2      
104A  0E414602           [233] gettable   4   4   281  ; "isInSpace"
104E  4E414600           [234] gettable   5   0   281  ; "isInSpace"
1052  A2800002           [235] call       2   4   2  
1056  4C80808C           [236] settable   1   281 2    ; "isInSpace"
105A  5D800600           [237] getglobal  1   26       ; math
105E  4EC0C600           [238] gettable   1   1   283  ; 1710846250
1062  93000001           [239] getupval   2   2      
1066  8E804101           [240] gettable   2   2   262  ; "maxAi"
106A  8A000001           [241] len        2   2      
106E  D3000001           [242] getupval   3   2      
1072  CE00C201           [243] gettable   3   3   264  ; "tier"
1076  CA008001           [244] len        3   3      
107A  13010001           [245] getupval   4   2      
107E  0E814202           [246] gettable   4   4   266  ; "minSquadSize"
1082  0A010002           [247] len        4   4      
1086  53010001           [248] getupval   5   2      
108A  4EC1C202           [249] gettable   5   5   267  ; "maxSquadSize"
108E  4A018002           [250] len        5   5      
1092  93010001           [251] getupval   6   2      
1096  8E014303           [252] gettable   6   6   268  ; "index"
109A  8A010003           [253] len        6   6      
109E  62800003           [254] call       1   6   2  
10A2  93000001           [255] getupval   2   2      
10A6  8C40008E           [256] settable   2   284 1    ; "arraySize"
10AA  9D400700           [257] getglobal  2   29       ; -1817107093
10AE  D9800700           [258] loadk      3   30       ; "SquadLib.lua::InitLib - Using "
10B2  12018000           [259] move       4   1      
10B6  59C10700           [260] loadk      5   31       ; " entries."
10BA  C2408101           [261] concat     3   3   5  
10BE  A2400001           [262] call       2   2   1  
10C2  9D000800           [263] getglobal  2   32       ; gPromotedToHost
10C6  98400000           [264] test       2       1    ; to [266] if false
10CA  1AC00480           [265] jmp        20           ; to [286]
10CE  9D800600           [266] getglobal  2   26       ; math
10D2  8EC04601           [267] gettable   2   2   283  ; 1710846250
10D6  D9400800           [268] loadk      3   33       ; 0
10DA  1DC10000           [269] getglobal  4   3        ; gRegion
10DE  24814802           [270] self       4   4   290  ; 1224466847
10E2  22810001           [271] call       4   2   2  
10E6  0A010002           [272] len        4   4      
10EA  A2808001           [273] call       2   3   2  
fail op	8
10EE  88000002           [274] setupval   2   4      
10F2  93000003           [275] getupval   2   6      
10F6  D3000001           [276] getupval   3   2      
10FA  CE00C401           [277] gettable   3   3   272  ; "initialSpawnAmount"
10FE  13010002           [278] getupval   4   4      
1102  CE008101           [279] gettable   3   3   4  
1106  13018003           [280] getupval   4   7      
110A  46018002           [281] loadnil    5   5      
110E  97010000           [282] loadbool   6   0   0    ; false
1112  A2808002           [283] call       2   5   2  
fail op	8
1116  88008002           [284] setupval   2   5      
111A  1A400D80           [285] jmp        54           ; to [340]
111E  9DC00000           [286] getglobal  2   3        ; gRegion
1122  A4C04801           [287] self       2   2   291  ; 19448449
1126  A2800001           [288] call       2   2   2  
112A  DD000900           [289] getglobal  3   36       ; gGameRules
112E  E440C901           [290] self       3   3   293  ; -1201441975
1132  E2800001           [291] call       3   2   2  
1136  2481C901           [292] self       4   3   294  ; -272348948
113A  22810001           [293] call       4   2   2  
113E  59C10900           [294] loadk      5   39       ; 0
1142  8A010001           [295] len        6   2      
1146  D9C10900           [296] loadk      7   39       ; 0
114A  50410880           [297] forprep    5   34       ; to [332]
114E  5D020000           [298] getglobal  9   0        ; 1074689893
1152  8E020201           [299] gettable   10  2   8  
1156  62820001           [300] call       9   2   2  
115A  58420000           [301] test       9       1    ; to [303] if false
115E  1A000780           [302] jmp        29           ; to [332]
1162  4E020201           [303] gettable   9   2   8  
1166  6402CA04           [304] self       9   9   296  ; -1957065004
116A  DD420A00           [305] getglobal  11  41       ; gLotusNpcAvatarType
116E  62828001           [306] call       9   3   2  
1172  58020000           [307] test       9       0    ; to [309] if true
1176  1A800580           [308] jmp        23           ; to [332]
117A  4E020201           [309] gettable   9   2   8  
117E  6482CA04           [310] self       9   9   298  ; 1511086594
1182  62820001           [311] call       9   2   2  
1186  58420000           [312] test       9       1    ; to [314] if false
118A  1A400480           [313] jmp        18           ; to [332]
118E  4E020201           [314] gettable   9   2   8  
1192  64C2CA04           [315] self       9   9   299  ; -1081228973
1196  62820001           [316] call       9   2   2  
fail op	35
119A  23008104           [317] close      0  
119E  1A000380           [318] jmp        13           ; to [332]
11A2  4E020201           [319] gettable   9   2   8  
11A6  6402CB04           [320] self       9   9   300  ; -1411785325
11AA  62820001           [321] call       9   2   2  
11AE  9D020000           [322] getglobal  10  0        ; 1074689893
11B2  D2028004           [323] move       11  9      
11B6  A2820001           [324] call       10  2   2  
11BA  98420000           [325] test       10      1    ; to [327] if false
11BE  1A000180           [326] jmp        5            ; to [332]
11C2  9D420B00           [327] getglobal  10  45       ; table
11C6  8E824B05           [328] gettable   10  10  302  ; -431682403
11CA  D3028002           [329] getupval   11  5      
11CE  12038004           [330] move       12  9      
11D2  A2428001           [331] call       10  3   1  
11D6  5401F77F           [332] forloop    5   -35      ; to [298] if loop
11DA  9D420700           [333] getglobal  10  29       ; -1817107093
11DE  D9C20B00           [334] loadk      11  47       ; "SquadLib.lua::InitLib - collected "
11E2  13038002           [335] getupval   12  5      
11E6  0A030006           [336] len        12  12     
11EA  59030C00           [337] loadk      13  48       ; " orphans."
11EE  C2428305           [338] concat     11  11  13 
11F2  A2420001           [339] call       10  2   1  
11F6  9D420C00           [340] getglobal  10  49       ; _T
11FA  E5020000           [341] closure    11  0      
11FE  13008002           [342] getupval   0   5      
1202  8CC20299           [343] settable   10  306 11   ; "SpawnLibRegisterAgent"
1206  1E008000           [344] return     0   1      
                         * constants:
120A  33                 sizek (51)
120B  01                 const type 3
120C  65770E40           const [0]: (1074689893)
1210  01                 const type 3
1211  EA911120           const [1]: (538022378)
1215  03                 const type 3
1216  00000000           const [2]: (0)
121A  04                 const type 4
121B  08                 string size (8)
121C  67526567696F6E00   "gRegion\0"
                         const [3]: "gRegion"
1224  01                 const type 3
1225  90F9CED1           const [4]: (-774964848)
1229  01                 const type 3
122A  73290920           const [5]: (537471347)
122E  04                 const type 4
122F  06                 string size (6)
1230  6D6178416900       "maxAi\0"
                         const [6]: "maxAi"
1236  01                 const type 3
1237  A22217F8           const [7]: (-132701534)
123B  04                 const type 4
123C  05                 string size (5)
123D  7469657200         "tier\0"
                         const [8]: "tier"
1242  04                 const type 4
1243  0C                 string size (12)
1244  6E756D5371756164+  "numSquad"
124C  4F626A00           "Obj\0"
                         const [9]: "numSquadObj"
1250  04                 const type 4
1251  0D                 string size (13)
1252  6D696E5371756164+  "minSquad"
125A  53697A6500         "Size\0"
                         const [10]: "minSquadSize"
125F  04                 const type 4
1260  0D                 string size (13)
1261  6D61785371756164+  "maxSquad"
1269  53697A6500         "Size\0"
                         const [11]: "maxSquadSize"
126E  04                 const type 4
126F  06                 string size (6)
1270  696E64657800       "index\0"
                         const [12]: "index"
1276  04                 const type 4
1277  12                 string size (18)
1278  64656661756C7453+  "defaultS"
1280  7061776E44656C61+  "pawnDela"
1288  7900               "y\0"
                         const [13]: "defaultSpawnDelay"
128A  04                 const type 4
128B  14                 string size (20)
128C  737061776E44656C+  "spawnDel"
1294  6179496E6372656D+  "ayIncrem"
129C  656E7400           "ent\0"
                         const [14]: "spawnDelayIncrement"
12A0  04                 const type 4
12A1  0E                 string size (14)
12A2  6D6178537061776E+  "maxSpawn"
12AA  44656C617900       "Delay\0"
                         const [15]: "maxSpawnDelay"
12B0  04                 const type 4
12B1  13                 string size (19)
12B2  696E697469616C53+  "initialS"
12BA  7061776E416D6F75+  "pawnAmou"
12C2  6E7400             "nt\0"
                         const [16]: "initialSpawnAmount"
12C5  04                 const type 4
12C6  14                 string size (20)
12C7  6F626A6563746976+  "objectiv"
12CF  6555706461746554+  "eUpdateT"
12D7  696D6500           "ime\0"
                         const [17]: "objectiveUpdateTime"
12DB  04                 const type 4
12DC  0B                 string size (11)
12DD  6D61784C65616465+  "maxLeade"
12E5  727300             "rs\0"
                         const [18]: "maxLeaders"
12E8  04                 const type 4
12E9  1D                 string size (29)
12EA  636C6561724F7264+  "clearOrd"
12F2  6572734166746572+  "ersAfter"
12FA  486967685072696F+  "HighPrio"
1302  7269747900         "rity\0"
                         const [19]: "clearOrdersAfterHighPriority"
1307  04                 const type 4
1308  17                 string size (23)
1309  686967685072696F+  "highPrio"
1311  7269747953706177+  "ritySpaw"
1319  6E44656C617900     "nDelay\0"
                         const [20]: "highPrioritySpawnDelay"
1320  04                 const type 4
1321  10                 string size (16)
1322  73717561644F626A+  "squadObj"
132A  417474656D707400   "Attempt\0"
                         const [21]: "squadObjAttempt"
1332  04                 const type 4
1333  0B                 string size (11)
1334  6F626A417474656D+  "objAttem"
133C  707400             "pt\0"
                         const [22]: "objAttempt"
133F  04                 const type 4
1340  0E                 string size (14)
1341  46696E644F626A65+  "FindObje"
1349  637469766500       "ctive\0"
                         const [23]: "FindObjective"
134F  04                 const type 4
1350  14                 string size (20)
1351  49734F626A656374+  "IsObject"
1359  697665436F6D706C+  "iveCompl"
1361  65746500           "ete\0"
                         const [24]: "IsObjectiveComplete"
1365  04                 const type 4
1366  0A                 string size (10)
1367  6973496E53706163+  "isInSpac"
136F  6500               "e\0"
                         const [25]: "isInSpace"
1371  04                 const type 4
1372  05                 string size (5)
1373  6D61746800         "math\0"
                         const [26]: "math"
1378  01                 const type 3
1379  2A71F965           const [27]: (1710846250)
137D  04                 const type 4
137E  0A                 string size (10)
137F  617272617953697A+  "arraySiz"
1387  6500               "e\0"
                         const [28]: "arraySize"
1389  01                 const type 3
138A  6B25B193           const [29]: (-1817107093)
138E  04                 const type 4
138F  1F                 string size (31)
1390  53717561644C6962+  "SquadLib"
1398  2E6C75613A3A496E+  ".lua::In"
13A0  69744C6962202D20+  "itLib - "
13A8  5573696E672000     "Using \0"
                         const [30]: "SquadLib.lua::InitLib - Using "
13AF  04                 const type 4
13B0  0A                 string size (10)
13B1  20656E7472696573+  " entries"
13B9  2E00               ".\0"
                         const [31]: " entries."
13BB  04                 const type 4
13BC  10                 string size (16)
13BD  6750726F6D6F7465+  "gPromote"
13C5  64546F486F737400   "dToHost\0"
                         const [32]: "gPromotedToHost"
13CD  03                 const type 3
13CE  00008040           const [33]: (0)
13D2  01                 const type 3
13D3  9FE1FB48           const [34]: (1224466847)
13D7  01                 const type 3
13D8  81C22801           const [35]: (19448449)
13DC  04                 const type 4
13DD  0B                 string size (11)
13DE  6747616D6552756C+  "gGameRul"
13E6  657300             "es\0"
                         const [36]: "gGameRules"
13E9  01                 const type 3
13EA  497363B8           const [37]: (-1201441975)
13EE  01                 const type 3
13EF  EC48C4EF           const [38]: (-272348948)
13F3  03                 const type 3
13F4  0000803F           const [39]: (0)
13F8  01                 const type 3
13F9  D48E598B           const [40]: (-1957065004)
13FD  04                 const type 4
13FE  14                 string size (20)
13FF  674C6F7475734E70+  "gLotusNp"
1407  6341766174617254+  "cAvatarT"
140F  79706500           "ype\0"
                         const [41]: "gLotusNpcAvatarType"
1413  01                 const type 3
1414  025A115A           const [42]: (1511086594)
1418  01                 const type 3
1419  53C18DBF           const [43]: (-1081228973)
141D  01                 const type 3
141E  93DDD9AB           const [44]: (-1411785325)
1422  04                 const type 4
1423  06                 string size (6)
1424  7461626C6500       "table\0"
                         const [45]: "table"
142A  01                 const type 3
142B  9D0C45E6           const [46]: (-431682403)
142F  04                 const type 4
1430  23                 string size (35)
1431  53717561644C6962+  "SquadLib"
1439  2E6C75613A3A496E+  ".lua::In"
1441  69744C6962202D20+  "itLib - "
1449  636F6C6C65637465+  "collecte"
1451  642000             "d \0"
                         const [47]: "SquadLib.lua::InitLib - collected "
1454  04                 const type 4
1455  0A                 string size (10)
1456  206F727068616E73+  " orphans"
145E  2E00               ".\0"
                         const [48]: " orphans."
1460  04                 const type 4
1461  03                 string size (3)
1462  5F5400             "_T\0"
                         const [49]: "_T"
1465  04                 const type 4
1466  16                 string size (22)
1467  537061776E4C6962+  "SpawnLib"
146F  5265676973746572+  "Register"
1477  4167656E7400       "Agent\0"
                         const [50]: "SpawnLibRegisterAgent"
                         * functions:
147D  01                 sizep (1)
                         
147E                     ** function [0] definition (level 3)
                         ** start of function **
147E  00                 string size (0)
                         source name: (none)
1480  01                 line defined (211)
1481  D7                 last line defined (215)
1482  01                 nups (1)
1483  01                 numparams (1)
1484  01                 is_vararg (0)
1485  00                 maxstacksize (4)
                         * code:
1487  0B                 sizecode (11)
1488  5D000000           [01] getglobal  1   0        ; 1074689893
148C  92000000           [02] move       2   0      
1490  62800001           [03] call       1   2   2  
1494  58400000           [04] test       1       1    ; to [6] if false
1498  1A000180           [05] jmp        5            ; to [11]
149C  5D400000           [06] getglobal  1   1        ; table
14A0  4E80C000           [07] gettable   1   1   258  ; -431682403
14A4  93000000           [08] getupval   2   0      
14A8  D2000000           [09] move       3   0      
14AC  62408001           [10] call       1   3   1  
14B0  1E008000           [11] return     0   1      
                         * constants:
14B4  03                 sizek (3)
14B5  01                 const type 3
14B6  65770E40           const [0]: (1074689893)
14BA  04                 const type 4
14BB  06                 string size (6)
14BC  7461626C6500       "table\0"
                         const [1]: "table"
14C2  01                 const type 3
14C3  9D0C45E6           const [2]: (-431682403)
                         * functions:
14C7  00                 sizep (0)
                         * lines:
14C8  0B                 sizelineinfo (11)
                         [pc] (line)
14C9  D4                 [01] (-44)
14CA  00                 [02] (-44)
14CB  00                 [03] (-44)
14CC  00                 [04] (-44)
14CD  D4                 [05] (-44)
14CE  00                 [06] (-43)
14CF  00                 [07] (-43)
14D0  00                 [08] (-43)
14D1  D4                 [09] (-43)
14D2  00                 [10] (-43)
14D3  00                 [11] (-41)
                         * locals:
14F5  00                 sizelocvars (0)
                         * upvalues:
14F6  00                 sizeupvalues (0)
                         ** end of function **

                         * lines:
14F8  02                 sizelineinfo (344)
                         [pc] (line)
14F9  8F                 [001] (-113)
14FA  00                 [002] (-113)
14FB  00                 [003] (-113)
14FC  00                 [004] (-113)
14FD  8F                 [005] (-113)
14FE  00                 [006] (-113)
14FF  00                 [007] (-113)
1500  00                 [008] (-113)
1501  8F                 [009] (-113)
1502  00                 [010] (-113)
1503  00                 [011] (-112)
1504  00                 [012] (-112)
1505  8F                 [013] (-112)
1506  00                 [014] (-111)
1507  00                 [015] (-111)
1508  00                 [016] (-111)
1509  8F                 [017] (-111)
150A  00                 [018] (-110)
150B  00                 [019] (-110)
150C  00                 [020] (-110)
150D  8F                 [021] (-110)
150E  00                 [022] (-110)
150F  00                 [023] (-109)
1510  00                 [024] (-109)
1511  8F                 [025] (-109)
1512  00                 [026] (-109)
1513  00                 [027] (-108)
1514  00                 [028] (-105)
1515  8F                 [029] (-105)
1516  00                 [030] (-105)
1517  00                 [031] (-105)
1518  00                 [032] (-105)
1519  8F                 [033] (-105)
151A  00                 [034] (-105)
151B  00                 [035] (-105)
151C  00                 [036] (-105)
151D  8F                 [037] (-105)
151E  00                 [038] (-105)
151F  00                 [039] (-104)
1520  00                 [040] (-104)
1521  90                 [041] (-104)
1522  00                 [042] (-104)
1523  00                 [043] (-104)
1524  00                 [044] (-104)
1525  90                 [045] (-104)
1526  00                 [046] (-104)
1527  00                 [047] (-104)
1528  00                 [048] (-104)
1529  90                 [049] (-104)
152A  00                 [050] (-103)
152B  00                 [051] (-103)
152C  00                 [052] (-103)
152D  91                 [053] (-103)
152E  00                 [054] (-103)
152F  00                 [055] (-103)
1530  00                 [056] (-103)
1531  91                 [057] (-103)
1532  00                 [058] (-103)
1533  00                 [059] (-103)
1534  00                 [060] (-103)
1535  91                 [061] (-102)
1536  00                 [062] (-102)
1537  00                 [063] (-102)
1538  00                 [064] (-102)
1539  91                 [065] (-102)
153A  00                 [066] (-102)
153B  00                 [067] (-102)
153C  00                 [068] (-102)
153D  92                 [069] (-102)
153E  00                 [070] (-102)
153F  00                 [071] (-102)
1540  00                 [072] (-101)
1541  92                 [073] (-101)
1542  00                 [074] (-101)
1543  00                 [075] (-101)
1544  00                 [076] (-101)
1545  92                 [077] (-101)
1546  00                 [078] (-101)
1547  00                 [079] (-101)
1548  00                 [080] (-101)
1549  92                 [081] (-101)
154A  00                 [082] (-101)
154B  00                 [083] (-100)
154C  00                 [084] (-100)
154D  92                 [085] (-100)
154E  00                 [086] (-100)
154F  00                 [087] (-100)
1550  00                 [088] (-100)
1551  93                 [089] (-100)
1552  00                 [090] (-100)
1553  00                 [091] (-100)
1554  00                 [092] (-100)
1555  93                 [093] (-100)
1556  00                 [094] (-99)
1557  00                 [095] (-99)
1558  00                 [096] (-99)
1559  93                 [097] (-99)
155A  00                 [098] (-99)
155B  00                 [099] (-99)
155C  00                 [100] (-99)
155D  93                 [101] (-99)
155E  00                 [102] (-99)
155F  00                 [103] (-99)
1560  00                 [104] (-99)
1561  94                 [105] (-98)
1562  00                 [106] (-98)
1563  00                 [107] (-98)
1564  00                 [108] (-98)
1565  97                 [109] (-98)
1566  00                 [110] (-98)
1567  00                 [111] (-98)
1568  00                 [112] (-98)
1569  97                 [113] (-98)
156A  00                 [114] (-98)
156B  00                 [115] (-98)
156C  00                 [116] (-97)
156D  97                 [117] (-97)
156E  00                 [118] (-97)
156F  00                 [119] (-97)
1570  00                 [120] (-97)
1571  97                 [121] (-97)
1572  00                 [122] (-97)
1573  00                 [123] (-97)
1574  00                 [124] (-97)
1575  97                 [125] (-97)
1576  00                 [126] (-97)
1577  00                 [127] (-96)
1578  00                 [128] (-96)
1579  97                 [129] (-96)
157A  00                 [130] (-96)
157B  00                 [131] (-96)
157C  00                 [132] (-96)
157D  97                 [133] (-96)
157E  00                 [134] (-96)
157F  00                 [135] (-96)
1580  00                 [136] (-96)
1581  97                 [137] (-96)
1582  00                 [138] (-95)
1583  00                 [139] (-95)
1584  00                 [140] (-95)
1585  97                 [141] (-95)
1586  00                 [142] (-95)
1587  00                 [143] (-95)
1588  00                 [144] (-95)
1589  97                 [145] (-95)
158A  00                 [146] (-95)
158B  00                 [147] (-95)
158C  00                 [148] (-95)
158D  97                 [149] (-94)
158E  00                 [150] (-94)
158F  00                 [151] (-94)
1590  00                 [152] (-94)
1591  98                 [153] (-94)
1592  00                 [154] (-94)
1593  00                 [155] (-94)
1594  00                 [156] (-94)
1595  98                 [157] (-94)
1596  00                 [158] (-94)
1597  00                 [159] (-94)
1598  00                 [160] (-93)
1599  98                 [161] (-93)
159A  00                 [162] (-93)
159B  00                 [163] (-93)
159C  00                 [164] (-93)
159D  98                 [165] (-93)
159E  00                 [166] (-93)
159F  00                 [167] (-93)
15A0  00                 [168] (-93)
15A1  98                 [169] (-93)
15A2  00                 [170] (-93)
15A3  00                 [171] (-92)
15A4  00                 [172] (-92)
15A5  98                 [173] (-92)
15A6  00                 [174] (-92)
15A7  00                 [175] (-92)
15A8  00                 [176] (-92)
15A9  98                 [177] (-92)
15AA  00                 [178] (-92)
15AB  00                 [179] (-92)
15AC  00                 [180] (-92)
15AD  98                 [181] (-92)
15AE  00                 [182] (-90)
15AF  00                 [183] (-90)
15B0  00                 [184] (-90)
15B1  98                 [185] (-90)
15B2  00                 [186] (-90)
15B3  00                 [187] (-90)
15B4  00                 [188] (-90)
15B5  98                 [189] (-90)
15B6  00                 [190] (-90)
15B7  00                 [191] (-90)
15B8  00                 [192] (-90)
15B9  98                 [193] (-89)
15BA  00                 [194] (-89)
15BB  00                 [195] (-89)
15BC  00                 [196] (-89)
15BD  99                 [197] (-89)
15BE  00                 [198] (-89)
15BF  00                 [199] (-89)
15C0  00                 [200] (-89)
15C1  99                 [201] (-89)
15C2  00                 [202] (-89)
15C3  00                 [203] (-89)
15C4  00                 [204] (-88)
15C5  99                 [205] (-88)
15C6  00                 [206] (-88)
15C7  00                 [207] (-88)
15C8  00                 [208] (-88)
15C9  99                 [209] (-88)
15CA  00                 [210] (-88)
15CB  00                 [211] (-88)
15CC  00                 [212] (-88)
15CD  99                 [213] (-88)
15CE  00                 [214] (-88)
15CF  00                 [215] (-87)
15D0  00                 [216] (-87)
15D1  99                 [217] (-87)
15D2  00                 [218] (-87)
15D3  00                 [219] (-87)
15D4  00                 [220] (-87)
15D5  99                 [221] (-87)
15D6  00                 [222] (-87)
15D7  00                 [223] (-87)
15D8  00                 [224] (-87)
15D9  99                 [225] (-87)
15DA  00                 [226] (-86)
15DB  00                 [227] (-86)
15DC  00                 [228] (-86)
15DD  99                 [229] (-86)
15DE  00                 [230] (-86)
15DF  00                 [231] (-86)
15E0  00                 [232] (-86)
15E1  99                 [233] (-86)
15E2  00                 [234] (-86)
15E3  00                 [235] (-86)
15E4  00                 [236] (-86)
15E5  99                 [237] (-83)
15E6  00                 [238] (-83)
15E7  00                 [239] (-82)
15E8  00                 [240] (-82)
15E9  9A                 [241] (-82)
15EA  00                 [242] (-81)
15EB  00                 [243] (-81)
15EC  00                 [244] (-81)
15ED  9A                 [245] (-80)
15EE  00                 [246] (-80)
15EF  00                 [247] (-80)
15F0  00                 [248] (-79)
15F1  9A                 [249] (-79)
15F2  00                 [250] (-79)
15F3  00                 [251] (-78)
15F4  00                 [252] (-78)
15F5  9A                 [253] (-78)
15F6  00                 [254] (-83)
15F7  00                 [255] (-75)
15F8  00                 [256] (-75)
15F9  9A                 [257] (-74)
15FA  00                 [258] (-74)
15FB  00                 [259] (-74)
15FC  00                 [260] (-74)
15FD  9A                 [261] (-74)
15FE  00                 [262] (-74)
15FF  00                 [263] (-71)
1600  00                 [264] (-71)
1601  9A                 [265] (-71)
1602  00                 [266] (-70)
1603  00                 [267] (-70)
1604  00                 [268] (-70)
1605  9A                 [269] (-70)
1606  00                 [270] (-70)
1607  00                 [271] (-70)
1608  00                 [272] (-70)
1609  9A                 [273] (-70)
160A  00                 [274] (-70)
160B  00                 [275] (-69)
160C  00                 [276] (-69)
160D  9A                 [277] (-69)
160E  00                 [278] (-69)
160F  00                 [279] (-69)
1610  00                 [280] (-69)
1611  9A                 [281] (-69)
1612  00                 [282] (-69)
1613  00                 [283] (-69)
1614  00                 [284] (-69)
1615  9B                 [285] (-69)
1616  00                 [286] (-67)
1617  00                 [287] (-67)
1618  00                 [288] (-67)
1619  9B                 [289] (-66)
161A  00                 [290] (-66)
161B  00                 [291] (-66)
161C  00                 [292] (-65)
161D  9B                 [293] (-65)
161E  00                 [294] (-63)
161F  00                 [295] (-63)
1620  00                 [296] (-63)
1621  9B                 [297] (-63)
1622  00                 [298] (-61)
1623  00                 [299] (-61)
1624  00                 [300] (-61)
1625  9B                 [301] (-61)
1626  00                 [302] (-61)
1627  00                 [303] (-60)
1628  00                 [304] (-60)
1629  9B                 [305] (-60)
162A  00                 [306] (-60)
162B  00                 [307] (-60)
162C  00                 [308] (-60)
162D  9B                 [309] (-59)
162E  00                 [310] (-59)
162F  00                 [311] (-59)
1630  00                 [312] (-59)
1631  9B                 [313] (-59)
1632  00                 [314] (-58)
1633  00                 [315] (-58)
1634  00                 [316] (-58)
1635  9B                 [317] (-58)
1636  00                 [318] (-58)
1637  00                 [319] (-56)
1638  00                 [320] (-56)
1639  9B                 [321] (-56)
163A  00                 [322] (-54)
163B  00                 [323] (-54)
163C  00                 [324] (-54)
163D  9B                 [325] (-54)
163E  00                 [326] (-54)
163F  00                 [327] (-53)
1640  00                 [328] (-53)
1641  9C                 [329] (-53)
1642  00                 [330] (-53)
1643  00                 [331] (-53)
1644  00                 [332] (-63)
1645  9C                 [333] (-48)
1646  00                 [334] (-48)
1647  00                 [335] (-48)
1648  00                 [336] (-48)
1649  9C                 [337] (-48)
164A  00                 [338] (-48)
164B  00                 [339] (-48)
164C  00                 [340] (-45)
164D  9C                 [341] (-41)
164E  00                 [342] (-41)
164F  00                 [343] (-41)
1650  00                 [344] (-39)
                         * locals:
1A59  00                 sizelocvars (0)
                         * upvalues:
1A5A  00                 sizeupvalues (0)
                         ** end of function **

                         
1A5B                     ** function [7] definition (level 2)
                         ** start of function **
1A5B  00                 string size (0)
                         source name: (none)
1A5D  01                 line defined (219)
1A5E  E4                 last line defined (228)
1A5F  01                 nups (2)
1A60  02                 numparams (1)
1A61  01                 is_vararg (0)
1A62  00                 maxstacksize (9)
                         * code:
1A64  11                 sizecode (17)
1A65  5D000000           [01] getglobal  1   0        ; 1672515847
1A69  93000000           [02] getupval   2   0      
1A6D  62000101           [03] call       1   2   4  
1A71  1AC00180           [04] jmp        8            ; to [13]
1A75  93018000           [05] getupval   6   1      
1A79  8E414003           [06] gettable   6   6   257  ; 439703155
1A7D  CE81C002           [07] gettable   7   5   258  ; "agents"
1A81  12020000           [08] move       8   0      
1A85  A2818001           [09] call       6   3   2  
fail op	21
1A89  15808181           [10] concat     0   259 6  
1A8D  1A000080           [11] jmp        1            ; to [13]
1A91  5E010001           [12] return     5   2      
1A95  56800000           [13] tforloop   1       2    ; to [15] if exit
1A99  1A40FD7F           [14] jmp        -10          ; to [5]
1A9D  86010003           [15] loadnil    6   6      
1AA1  9E010001           [16] return     6   2      
1AA5  1E008000           [17] return     0   1      
                         * constants:
1AA9  04                 sizek (4)
1AAA  01                 const type 3
1AAB  0791B063           const [0]: (1672515847)
1AAF  01                 const type 3
1AB0  7356351A           const [1]: (439703155)
1AB4  04                 const type 4
1AB5  07                 string size (7)
1AB6  6167656E747300     "agents\0"
                         const [2]: "agents"
1ABD  03                 const type 3
1ABE  00000000           const [3]: (0)
                         * functions:
1AC2  00                 sizep (0)
                         * lines:
1AC3  11                 sizelineinfo (17)
                         [pc] (line)
1AC4  DD                 [01] (-35)
1AC5  00                 [02] (-35)
1AC6  00                 [03] (-35)
1AC7  00                 [04] (-35)
1AC8  DD                 [05] (-34)
1AC9  00                 [06] (-34)
1ACA  00                 [07] (-34)
1ACB  00                 [08] (-34)
1ACC  DD                 [09] (-34)
1ACD  00                 [10] (-34)
1ACE  00                 [11] (-34)
1ACF  00                 [12] (-33)
1AD0  DD                 [13] (-35)
1AD1  00                 [14] (-32)
1AD2  00                 [15] (-29)
1AD3  00                 [16] (-29)
1AD4  DE                 [17] (-28)
                         * locals:
1B08  00                 sizelocvars (0)
                         * upvalues:
1B09  00                 sizeupvalues (0)
                         ** end of function **

                         
1B0A                     ** function [8] definition (level 2)
                         ** start of function **
1B0A  00                 string size (0)
                         source name: (none)
1B0C  01                 line defined (230)
1B0D  FD                 last line defined (253)
1B0E  01                 nups (2)
1B0F  02                 numparams (2)
1B10  02                 is_vararg (0)
1B11  00                 maxstacksize (22)
                         * code:
1B13  45                 sizecode (69)
1B14  8B000000           [01] newtable   2   0   0    ; array=0, hash=0
1B18  DD000000           [02] getglobal  3   0        ; 1672515847
1B1C  13010000           [03] getupval   4   0      
1B20  E2000101           [04] call       3   2   4  
1B24  1AC00680           [05] jmp        28           ; to [34]
1B28  1D020000           [06] getglobal  8   0        ; 1672515847
1B2C  4E42C003           [07] gettable   9   7   257  ; "agents"
1B30  22020101           [08] call       8   2   4  
1B34  1A400580           [09] jmp        22           ; to [32]
1B38  5D830000           [10] getglobal  13  2        ; 1074689893
1B3C  92030006           [11] move       14  12     
1B40  62830001           [12] call       13  2   2  
1B44  58430000           [13] test       13      1    ; to [15] if false
1B48  1A000480           [14] jmp        17           ; to [32]
1B4C  5DC30000           [15] getglobal  13  3        ; -1331746705
1B50  A4034106           [16] self       14  12  260  ; -2135866365
1B54  A2830001           [17] call       14  2   2  
1B58  A4434107           [18] self       14  14  261  ; 1839670529
1B5C  A2830001           [19] call       14  2   2  
1B60  D2030000           [20] move       15  0      
1B64  62838001           [21] call       13  3   2  
fail op	21
1B68  55408006           [22] concat     1   13  1  
1B6C  1A400080           [23] jmp        2            ; to [26]
fail op	33
1B70  2180C100           [24] tforloop   0       262  ; to [26] if exit
1B74  1A400180           [25] jmp        6            ; to [32]
1B78  5DC30100           [26] getglobal  13  7        ; table
1B7C  4E03C206           [27] gettable   13  13  264  ; -431682403
1B80  92030001           [28] move       14  2      
1B84  E4034106           [29] self       15  12  260  ; -2135866365
1B88  E2030001           [30] call       15  2   0  
1B8C  62430000           [31] call       13  0   1  
1B90  16820000           [32] tforloop   8       2    ; to [34] if exit
1B94  1AC0F97F           [33] jmp        -24          ; to [10]
1B98  D6800000           [34] tforloop   3       2    ; to [36] if exit
1B9C  1A40F87F           [35] jmp        -30          ; to [6]
1BA0  53038000           [36] getupval   13  1      
1BA4  4A038006           [37] len        13  13     
fail op	21
1BA8  15400383           [38] concat     0   262 13 
1BAC  1AC00680           [39] jmp        28           ; to [68]
1BB0  5D030000           [40] getglobal  13  0        ; 1672515847
1BB4  93038000           [41] getupval   14  1      
1BB8  62030101           [42] call       13  2   4  
1BBC  1A400580           [43] jmp        22           ; to [66]
1BC0  9D840000           [44] getglobal  18  2        ; 1074689893
1BC4  D2048008           [45] move       19  17     
1BC8  A2840001           [46] call       18  2   2  
1BCC  98440000           [47] test       18      1    ; to [49] if false
1BD0  1A000480           [48] jmp        17           ; to [66]
1BD4  9DC40000           [49] getglobal  18  3        ; -1331746705
1BD8  E404C108           [50] self       19  17  260  ; -2135866365
1BDC  E2840001           [51] call       19  2   2  
1BE0  E444C109           [52] self       19  19  261  ; 1839670529
1BE4  E2840001           [53] call       19  2   2  
1BE8  12050000           [54] move       20  0      
1BEC  A2848001           [55] call       18  3   2  
fail op	21
1BF0  55400009           [56] concat     1   18  1  
1BF4  1A400080           [57] jmp        2            ; to [60]
fail op	33
1BF8  2180C100           [58] tforloop   0       262  ; to [60] if exit
1BFC  1A400180           [59] jmp        6            ; to [66]
1C00  9DC40100           [60] getglobal  18  7        ; table
1C04  8E044209           [61] gettable   18  18  264  ; -431682403
1C08  D2040001           [62] move       19  2      
1C0C  2405C108           [63] self       20  17  260  ; -2135866365
1C10  22050001           [64] call       20  2   0  
1C14  A2440000           [65] call       18  0   1  
1C18  56830000           [66] tforloop   13      2    ; to [68] if exit
1C1C  1AC0F97F           [67] jmp        -24          ; to [44]
1C20  9E000001           [68] return     2   2      
1C24  1E008000           [69] return     0   1      
                         * constants:
1C28  09                 sizek (9)
1C29  01                 const type 3
1C2A  0791B063           const [0]: (1672515847)
1C2E  04                 const type 4
1C2F  07                 string size (7)
1C30  6167656E747300     "agents\0"
                         const [1]: "agents"
1C37  01                 const type 3
1C38  65770E40           const [2]: (1074689893)
1C3C  01                 const type 3
1C3D  6F289FB0           const [3]: (-1331746705)
1C41  01                 const type 3
1C42  0344B180           const [4]: (-2135866365)
1C46  01                 const type 3
1C47  0125A76D           const [5]: (1839670529)
1C4B  03                 const type 3
1C4C  00000000           const [6]: (0)
1C50  04                 const type 4
1C51  06                 string size (6)
1C52  7461626C6500       "table\0"
                         const [7]: "table"
1C58  01                 const type 3
1C59  9D0C45E6           const [8]: (-431682403)
                         * functions:
1C5D  00                 sizep (0)
                         * lines:
1C5E  45                 sizelineinfo (69)
                         [pc] (line)
1C5F  E7                 [01] (-25)
1C60  00                 [02] (-23)
1C61  00                 [03] (-23)
1C62  00                 [04] (-23)
1C63  E9                 [05] (-23)
1C64  00                 [06] (-22)
1C65  00                 [07] (-22)
1C66  00                 [08] (-22)
1C67  E9                 [09] (-22)
1C68  00                 [10] (-21)
1C69  00                 [11] (-21)
1C6A  00                 [12] (-21)
1C6B  E9                 [13] (-21)
1C6C  00                 [14] (-21)
1C6D  00                 [15] (-21)
1C6E  00                 [16] (-21)
1C6F  E9                 [17] (-21)
1C70  00                 [18] (-21)
1C71  00                 [19] (-21)
1C72  00                 [20] (-21)
1C73  EA                 [21] (-21)
1C74  00                 [22] (-21)
1C75  00                 [23] (-21)
1C76  00                 [24] (-21)
1C77  EA                 [25] (-21)
1C78  00                 [26] (-20)
1C79  00                 [27] (-20)
1C7A  00                 [28] (-20)
1C7B  EA                 [29] (-20)
1C7C  00                 [30] (-20)
1C7D  00                 [31] (-20)
1C7E  00                 [32] (-22)
1C7F  EA                 [33] (-19)
1C80  00                 [34] (-23)
1C81  00                 [35] (-18)
1C82  00                 [36] (-15)
1C83  EB                 [37] (-15)
1C84  00                 [38] (-15)
1C85  00                 [39] (-15)
1C86  00                 [40] (-14)
1C87  EB                 [41] (-14)
1C88  00                 [42] (-14)
1C89  00                 [43] (-14)
1C8A  00                 [44] (-12)
1C8B  EB                 [45] (-12)
1C8C  00                 [46] (-12)
1C8D  00                 [47] (-12)
1C8E  00                 [48] (-12)
1C8F  EB                 [49] (-11)
1C90  00                 [50] (-11)
1C91  00                 [51] (-11)
1C92  00                 [52] (-11)
1C93  EB                 [53] (-11)
1C94  00                 [54] (-11)
1C95  00                 [55] (-11)
1C96  00                 [56] (-11)
1C97  EB                 [57] (-11)
1C98  00                 [58] (-11)
1C99  00                 [59] (-11)
1C9A  00                 [60] (-9)
1C9B  EB                 [61] (-9)
1C9C  00                 [62] (-9)
1C9D  00                 [63] (-9)
1C9E  00                 [64] (-9)
1C9F  EB                 [65] (-9)
1CA0  00                 [66] (-14)
1CA1  00                 [67] (-8)
1CA2  00                 [68] (-4)
1CA3  EB                 [69] (-3)
                         * locals:
1D73  00                 sizelocvars (0)
                         * upvalues:
1D74  00                 sizeupvalues (0)
                         ** end of function **

                         
1D75                     ** function [9] definition (level 2)
                         ** start of function **
1D75  00                 string size (0)
                         source name: (none)
1D77  01                 line defined (255)
1D78  9B                 last line defined (283)
1D79  02                 nups (3)
1D7A  03                 numparams (1)
1D7B  01                 is_vararg (0)
1D7C  00                 maxstacksize (11)
                         * code:
1D7E  36                 sizecode (54)
1D7F  59000000           [01] loadk      1   0        ; 0
fail op	8
1D83  48000000           [02] setupval   1   0      
1D87  59000000           [03] loadk      1   0        ; 0
1D8B  93008000           [04] getupval   2   1      
1D8F  8E404001           [05] gettable   2   2   257  ; "arraySize"
1D93  D9000000           [06] loadk      3   0        ; 0
1D97  50400280           [07] forprep    1   10       ; to [18]
1D9B  53018000           [08] getupval   5   1      
1D9F  4E81C002           [09] gettable   5   5   258  ; "index"
1DA3  4E018102           [10] gettable   5   5   4  
fail op	21
1DA7  15008002           [11] concat     0   5   0  
1DAB  1A400180           [12] jmp        6            ; to [19]
1DAF  53010000           [13] getupval   5   0      
1DB3  4301C002           [14] add        5   5   256  ; 0
fail op	8
1DB7  48010000           [15] setupval   5   0      
1DBB  1A000080           [16] jmp        1            ; to [18]
1DBF  1A000080           [17] jmp        1            ; to [19]
1DC3  5400FD7F           [18] forloop    1   -11      ; to [8] if loop
1DC7  53018000           [19] getupval   5   1      
1DCB  4EC1C002           [20] gettable   5   5   259  ; "tier"
1DCF  93010000           [21] getupval   6   0      
1DD3  4E818102           [22] gettable   5   5   6  
1DD7  93018000           [23] getupval   6   1      
1DDB  8E014103           [24] gettable   6   6   260  ; "tierBoost"
fail op	35
1DDF  63404103           [25] close      1  
1DE3  1A800080           [26] jmp        3            ; to [30]
1DE7  93018000           [27] getupval   6   1      
1DEB  8E014103           [28] gettable   6   6   260  ; "tierBoost"
1DEF  43818102           [29] add        5   5   6  
1DF3  9D810100           [30] getglobal  6   6        ; math
1DF7  8EC14103           [31] gettable   6   6   263  ; 1710846250
1DFB  D2018002           [32] move       7   5      
1DFF  19020200           [33] loadk      8   8        ; 0
1E03  A2818001           [34] call       6   3   2  
1E07  52010003           [35] move       5   6      
1E0B  9D810100           [36] getglobal  6   6        ; math
1E0F  8E414203           [37] gettable   6   6   265  ; -150971781
1E13  D2018002           [38] move       7   5      
1E17  A2810001           [39] call       6   2   2  
1E1B  52010003           [40] move       5   6      
1E1F  93010001           [41] getupval   6   2      
1E23  A4814203           [42] self       6   6   266  ; 923887430
1E27  A2810001           [43] call       6   2   2  
fail op	35
1E2B  63400103           [44] close      1  
1E2F  1AC0FF7F           [45] jmp        0            ; to [46]
1E33  D3010001           [46] getupval   7   2      
1E37  E4C1C203           [47] self       7   7   267  ; -207649908
1E3B  5D820100           [48] getglobal  9   6        ; math
1E3F  4E42C204           [49] gettable   9   9   265  ; -150971781
1E43  92028002           [50] move       10  5      
1E47  62820001           [51] call       9   2   2  
1E4B  97020000           [52] loadbool   10  0   0    ; false
1E4F  E2410002           [53] call       7   4   1  
1E53  1E008000           [54] return     0   1      
                         * constants:
1E57  0C                 sizek (12)
1E58  03                 const type 3
1E59  0000803F           const [0]: (0)
1E5D  04                 const type 4
1E5E  0A                 string size (10)
1E5F  617272617953697A+  "arraySiz"
1E67  6500               "e\0"
                         const [1]: "arraySize"
1E69  04                 const type 4
1E6A  06                 string size (6)
1E6B  696E64657800       "index\0"
                         const [2]: "index"
1E71  04                 const type 4
1E72  05                 string size (5)
1E73  7469657200         "tier\0"
                         const [3]: "tier"
1E78  04                 const type 4
1E79  0A                 string size (10)
1E7A  74696572426F6F73+  "tierBoos"
1E82  7400               "t\0"
                         const [4]: "tierBoost"
1E84  00                 const type 0
                         const [5]: nil
1E85  04                 const type 4
1E86  05                 string size (5)
1E87  6D61746800         "math\0"
                         const [6]: "math"
1E8C  01                 const type 3
1E8D  2A71F965           const [7]: (1710846250)
1E91  03                 const type 3
1E92  00000041           const [8]: (0)
1E96  01                 const type 3
1E97  7B5A00F7           const [9]: (-150971781)
1E9B  01                 const type 3
1E9C  46671137           const [10]: (923887430)
1EA0  01                 const type 3
1EA1  8C839FF3           const [11]: (-207649908)
                         * functions:
1EA5  00                 sizep (0)
                         * lines:
1EA6  36                 sizelineinfo (54)
                         [pc] (line)
1EA7  01                 [01] (1)
1EA8  01                 [02] (1)
1EA9  00                 [03] (3)
1EAA  00                 [04] (3)
1EAB  01                 [05] (3)
1EAC  01                 [06] (3)
1EAD  00                 [07] (3)
1EAE  00                 [08] (4)
1EAF  03                 [09] (4)
1EB0  01                 [10] (4)
1EB1  00                 [11] (4)
1EB2  00                 [12] (4)
1EB3  03                 [13] (5)
1EB4  01                 [14] (5)
1EB5  00                 [15] (5)
1EB6  00                 [16] (5)
1EB7  03                 [17] (7)
1EB8  01                 [18] (3)
1EB9  00                 [19] (11)
1EBA  00                 [20] (11)
1EBB  03                 [21] (11)
1EBC  01                 [22] (11)
1EBD  00                 [23] (13)
1EBE  00                 [24] (13)
1EBF  03                 [25] (13)
1EC0  01                 [26] (13)
1EC1  00                 [27] (14)
1EC2  00                 [28] (14)
1EC3  04                 [29] (14)
1EC4  01                 [30] (17)
1EC5  00                 [31] (17)
1EC6  00                 [32] (17)
1EC7  04                 [33] (17)
1EC8  01                 [34] (17)
1EC9  00                 [35] (17)
1ECA  00                 [36] (18)
1ECB  04                 [37] (18)
1ECC  01                 [38] (18)
1ECD  00                 [39] (18)
1ECE  00                 [40] (18)
1ECF  04                 [41] (20)
1ED0  01                 [42] (20)
1ED1  00                 [43] (20)
1ED2  00                 [44] (22)
1ED3  04                 [45] (22)
1ED4  01                 [46] (26)
1ED5  00                 [47] (26)
1ED6  00                 [48] (26)
1ED7  05                 [49] (26)
1ED8  01                 [50] (26)
1ED9  00                 [51] (26)
1EDA  00                 [52] (26)
1EDB  05                 [53] (26)
1EDC  01                 [54] (27)
                         * locals:
1F7F  00                 sizelocvars (0)
                         * upvalues:
1F80  00                 sizeupvalues (0)
                         ** end of function **

                         
1F81                     ** function [10] definition (level 2)
                         ** start of function **
1F81  00                 string size (0)
                         source name: (none)
1F83  02                 line defined (286)
1F84  B6                 last line defined (310)
1F85  02                 nups (6)
1F86  06                 numparams (2)
1F87  02                 is_vararg (0)
1F88  00                 maxstacksize (12)
                         * code:
1F8A  3A                 sizecode (58)
1F8B  8B000000           [01] newtable   2   0   0    ; array=0, hash=0
1F8F  DD000000           [02] getglobal  3   0        ; 2144646525
1F93  13010000           [03] getupval   4   0      
1F97  0E414002           [04] gettable   4   4   257  ; "minSquadSize"
1F9B  53018000           [05] getupval   5   1      
1F9F  0E410102           [06] gettable   4   4   5  
1FA3  53010000           [07] getupval   5   0      
1FA7  4E81C002           [08] gettable   5   5   258  ; "maxSquadSize"
1FAB  93018000           [09] getupval   6   1      
1FAF  4E818102           [10] gettable   5   5   6  
1FB3  E2808001           [11] call       3   3   2  
1FB7  13010001           [12] getupval   4   2      
1FBB  52018001           [13] move       5   3      
1FBF  93018001           [14] getupval   6   3      
1FC3  D2010000           [15] move       7   0      
1FC7  12028000           [16] move       8   1      
1FCB  22818002           [17] call       4   5   2  
1FCF  8C008181           [18] settable   2   259 4    ; "agents"
1FD3  0EC14001           [19] gettable   4   2   259  ; "agents"
1FD7  0A010002           [20] len        4   4      
1FDB  53010000           [21] getupval   5   0      
1FDF  4E41C002           [22] gettable   5   5   257  ; "minSquadSize"
1FE3  93018000           [23] getupval   6   1      
1FE7  4E818102           [24] gettable   5   5   6  
fail op	21
1FEB  15400102           [25] concat     0   4   5  
1FEF  1AC00580           [26] jmp        24           ; to [51]
1FF3  0EC14001           [27] gettable   4   2   259  ; "agents"
1FF7  0A010002           [28] len        4   4      
fail op	21
1FFB  15000182           [29] concat     0   260 4  
1FFF  1A800180           [30] jmp        7            ; to [38]
2003  1D410100           [31] getglobal  4   5        ; -1817107093
2007  59810100           [32] loadk      5   6        ; "Not enough agents were spawned to create a squad, orphaning "
200B  8EC14001           [33] gettable   6   2   259  ; "agents"
200F  8A010003           [34] len        6   6      
2013  D9C10100           [35] loadk      7   7        ; " agents"
2017  42C18102           [36] concat     5   5   7  
201B  22410001           [37] call       4   2   1  
201F  1D010200           [38] getglobal  4   8        ; 1672515847
2023  4EC14001           [39] gettable   5   2   259  ; "agents"
2027  22010101           [40] call       4   2   4  
202B  1A000180           [41] jmp        5            ; to [47]
202F  5D420200           [42] getglobal  9   9        ; table
2033  4E82C204           [43] gettable   9   9   266  ; -431682403
2037  93020002           [44] getupval   10  4      
203B  D2020004           [45] move       11  8      
203F  62428001           [46] call       9   3   1  
2043  16810000           [47] tforloop   4       2    ; to [49] if exit
2047  1A00FE7F           [48] jmp        -7           ; to [42]
204B  1E008000           [49] return     0   1      
204F  1AC0FF7F           [50] jmp        0            ; to [51]
2053  8C00C385           [51] settable   2   267 268  ; "attemptingObjective" nil
2057  5D420200           [52] getglobal  9   9        ; table
205B  4E82C204           [53] gettable   9   9   266  ; -431682403
205F  93028002           [54] getupval   10  5      
2063  D2020001           [55] move       11  2      
2067  62428001           [56] call       9   3   1  
206B  9E000001           [57] return     2   2      
206F  1E008000           [58] return     0   1      
                         * constants:
2073  0D                 sizek (13)
2074  01                 const type 3
2075  7DB5D47F           const [0]: (2144646525)
2079  04                 const type 4
207A  0D                 string size (13)
207B  6D696E5371756164+  "minSquad"
2083  53697A6500         "Size\0"
                         const [1]: "minSquadSize"
2088  04                 const type 4
2089  0D                 string size (13)
208A  6D61785371756164+  "maxSquad"
2092  53697A6500         "Size\0"
                         const [2]: "maxSquadSize"
2097  04                 const type 4
2098  07                 string size (7)
2099  6167656E747300     "agents\0"
                         const [3]: "agents"
20A0  03                 const type 3
20A1  00000000           const [4]: (0)
20A5  01                 const type 3
20A6  6B25B193           const [5]: (-1817107093)
20AA  04                 const type 4
20AB  3D                 string size (61)
20AC  4E6F7420656E6F75+  "Not enou"
20B4  6768206167656E74+  "gh agent"
20BC  7320776572652073+  "s were s"
20C4  7061776E65642074+  "pawned t"
20CC  6F20637265617465+  "o create"
20D4  2061207371756164+  " a squad"
20DC  2C206F727068616E+  ", orphan"
20E4  696E672000         "ing \0"
                         const [6]: "Not enough agents were spawned to create a squad, orphaning "
20E9  04                 const type 4
20EA  08                 string size (8)
20EB  206167656E747300   " agents\0"
                         const [7]: " agents"
20F3  01                 const type 3
20F4  0791B063           const [8]: (1672515847)
20F8  04                 const type 4
20F9  06                 string size (6)
20FA  7461626C6500       "table\0"
                         const [9]: "table"
2100  01                 const type 3
2101  9D0C45E6           const [10]: (-431682403)
2105  04                 const type 4
2106  14                 string size (20)
2107  617474656D707469+  "attempti"
210F  6E674F626A656374+  "ngObject"
2117  69766500           "ive\0"
                         const [11]: "attemptingObjective"
211B  00                 const type 0
                         const [12]: nil
                         * functions:
211C  00                 sizep (0)
                         * lines:
211D  3A                 sizelineinfo (58)
                         [pc] (line)
211E  20                 [01] (32)
211F  01                 [02] (33)
2120  00                 [03] (33)
2121  00                 [04] (33)
2122  21                 [05] (33)
2123  01                 [06] (33)
2124  00                 [07] (33)
2125  00                 [08] (33)
2126  21                 [09] (33)
2127  01                 [10] (33)
2128  00                 [11] (33)
2129  00                 [12] (35)
212A  21                 [13] (35)
212B  01                 [14] (35)
212C  00                 [15] (35)
212D  00                 [16] (35)
212E  21                 [17] (35)
212F  01                 [18] (35)
2130  00                 [19] (37)
2131  00                 [20] (37)
2132  21                 [21] (37)
2133  01                 [22] (37)
2134  00                 [23] (37)
2135  00                 [24] (37)
2136  21                 [25] (37)
2137  01                 [26] (37)
2138  00                 [27] (38)
2139  00                 [28] (38)
213A  21                 [29] (38)
213B  01                 [30] (38)
213C  00                 [31] (39)
213D  00                 [32] (39)
213E  21                 [33] (39)
213F  01                 [34] (39)
2140  00                 [35] (39)
2141  00                 [36] (39)
2142  21                 [37] (39)
2143  01                 [38] (41)
2144  00                 [39] (41)
2145  00                 [40] (41)
2146  21                 [41] (41)
2147  01                 [42] (42)
2148  00                 [43] (42)
2149  00                 [44] (42)
214A  23                 [45] (42)
214B  01                 [46] (42)
214C  00                 [47] (41)
214D  00                 [48] (42)
214E  23                 [49] (44)
214F  01                 [50] (44)
2150  00                 [51] (49)
2151  00                 [52] (51)
2152  23                 [53] (51)
2153  01                 [54] (51)
2154  00                 [55] (51)
2155  00                 [56] (51)
2156  23                 [57] (53)
2157  01                 [58] (54)
                         * locals:
2206  00                 sizelocvars (0)
                         * upvalues:
2207  00                 sizeupvalues (0)
                         ** end of function **

                         
2208                     ** function [11] definition (level 2)
                         ** start of function **
2208  00                 string size (0)
                         source name: (none)
220A  02                 line defined (312)
220B  C2                 last line defined (322)
220C  02                 nups (0)
220D  00                 numparams (2)
220E  02                 is_vararg (0)
220F  00                 maxstacksize (12)
                         * code:
2211  1E                 sizecode (30)
2212  0C400080           [01] settable   0   256 1    ; "target"
2216  9D400000           [02] getglobal  2   1        ; 1672515847
221A  CE804000           [03] gettable   3   0   258  ; "agents"
221E  A2000101           [04] call       2   2   4  
2222  1A400580           [05] jmp        22           ; to [28]
2226  DDC10000           [06] getglobal  7   3        ; 1074689893
222A  12020003           [07] move       8   6      
222E  E2810001           [08] call       7   2   2  
2232  D8410000           [09] test       7       1    ; to [11] if false
2236  1A000480           [10] jmp        17           ; to [28]
223A  E4014103           [11] self       7   6   260  ; -346092253
223E  5D420100           [12] getglobal  9   5        ; -332969190
2242  99820100           [13] loadk      10  6        ; "StormTarget"
2246  62020001           [14] call       9   2   0  
224A  E2410000           [15] call       7   0   1  
224E  DDC10000           [16] getglobal  7   3        ; 1074689893
2252  12028000           [17] move       8   1      
2256  E2810001           [18] call       7   2   2  
225A  D8410000           [19] test       7       1    ; to [21] if false
225E  1A800180           [20] jmp        7            ; to [28]
2262  E4C14103           [21] self       7   6   263  ; -800154281
2266  5D420100           [22] getglobal  9   5        ; -332969190
226A  99820100           [23] loadk      10  6        ; "StormTarget"
226E  62820001           [24] call       9   2   2  
2272  92028000           [25] move       10  1      
2276  D9020200           [26] loadk      11  8        ; 0
227A  E2418002           [27] call       7   5   1  
227E  96800000           [28] tforloop   2       2    ; to [30] if exit
2282  1AC0F97F           [29] jmp        -24          ; to [6]
2286  1E008000           [30] return     0   1      
                         * constants:
228A  09                 sizek (9)
228B  04                 const type 4
228C  07                 string size (7)
228D  74617267657400     "target\0"
                         const [0]: "target"
2294  01                 const type 3
2295  0791B063           const [1]: (1672515847)
2299  04                 const type 4
229A  07                 string size (7)
229B  6167656E747300     "agents\0"
                         const [2]: "agents"
22A2  01                 const type 3
22A3  65770E40           const [3]: (1074689893)
22A7  01                 const type 3
22A8  230D5FEB           const [4]: (-346092253)
22AC  01                 const type 3
22AD  1A4B27EC           const [5]: (-332969190)
22B1  04                 const type 4
22B2  0C                 string size (12)
22B3  53746F726D546172+  "StormTar"
22BB  67657400           "get\0"
                         const [6]: "StormTarget"
22BF  01                 const type 3
22C0  579D4ED0           const [7]: (-800154281)
22C4  03                 const type 3
22C5  00002041           const [8]: (0)
                         * functions:
22C9  00                 sizep (0)
                         * lines:
22CA  1E                 sizelineinfo (30)
                         [pc] (line)
22CB  39                 [01] (57)
22CC  01                 [02] (58)
22CD  00                 [03] (58)
22CE  00                 [04] (58)
22CF  3A                 [05] (58)
22D0  01                 [06] (59)
22D1  00                 [07] (59)
22D2  00                 [08] (59)
22D3  3A                 [09] (59)
22D4  01                 [10] (59)
22D5  00                 [11] (60)
22D6  00                 [12] (60)
22D7  3A                 [13] (60)
22D8  01                 [14] (60)
22D9  00                 [15] (60)
22DA  00                 [16] (61)
22DB  3A                 [17] (61)
22DC  01                 [18] (61)
22DD  00                 [19] (61)
22DE  00                 [20] (61)
22DF  3B                 [21] (62)
22E0  01                 [22] (62)
22E1  00                 [23] (62)
22E2  00                 [24] (62)
22E3  3B                 [25] (62)
22E4  01                 [26] (62)
22E5  00                 [27] (62)
22E6  00                 [28] (58)
22E7  3B                 [29] (64)
22E8  01                 [30] (66)
                         * locals:
2343  00                 sizelocvars (0)
                         * upvalues:
2344  00                 sizeupvalues (0)
                         ** end of function **

                         
2345                     ** function [12] definition (level 2)
                         ** start of function **
2345  00                 string size (0)
                         source name: (none)
2347  02                 line defined (324)
2348  D2                 last line defined (338)
2349  02                 nups (2)
234A  02                 numparams (1)
234B  01                 is_vararg (0)
234C  00                 maxstacksize (9)
                         * code:
234E  1C                 sizecode (28)
234F  53000000           [01] getupval   1   0      
2353  4A008000           [02] len        1   1      
2357  99000000           [03] loadk      2   0        ; 0
235B  D9400000           [04] loadk      3   1        ; 0
235F  50000580           [05] forprep    1   21       ; to [27]
2363  53010000           [06] getupval   5   0      
2367  4E018102           [07] gettable   5   5   4  
236B  8E81C002           [08] gettable   6   5   258  ; "target"
fail op	35
236F  23000003           [09] close      0  
2373  1AC00380           [10] jmp        16           ; to [27]
2377  9DC10000           [11] getglobal  6   3        ; 1074689893
237B  CE01C102           [12] gettable   7   5   260  ; "attemptingObjective"
237F  A2810001           [13] call       6   2   2  
2383  98010000           [14] test       6       0    ; to [16] if true
2387  1A800280           [15] jmp        11           ; to [27]
238B  93018000           [16] getupval   6   1      
238F  8E414103           [17] gettable   6   6   261  ; 1907049219
2393  D2010000           [18] move       7   0      
2397  0E82C102           [19] gettable   8   5   262  ; "agents"
239B  A2818001           [20] call       6   3   2  
239F  DDC10000           [21] getglobal  7   3        ; 1074689893
23A3  12020003           [22] move       8   6      
23A7  E2810001           [23] call       7   2   2  
23AB  D8410000           [24] test       7       1    ; to [26] if false
23AF  1A000080           [25] jmp        1            ; to [27]
23B3  4C810182           [26] settable   5   260 6    ; "attemptingObjective"
23B7  5440FA7F           [27] forloop    1   -22      ; to [6] if loop
23BB  1E008000           [28] return     0   1      
                         * constants:
23BF  07                 sizek (7)
23C0  03                 const type 3
23C1  0000803F           const [0]: (0)
23C5  03                 const type 3
23C6  000080BF           const [1]: (0)
23CA  04                 const type 4
23CB  07                 string size (7)
23CC  74617267657400     "target\0"
                         const [2]: "target"
23D3  01                 const type 3
23D4  65770E40           const [3]: (1074689893)
23D8  04                 const type 4
23D9  14                 string size (20)
23DA  617474656D707469+  "attempti"
23E2  6E674F626A656374+  "ngObject"
23EA  69766500           "ive\0"
                         const [4]: "attemptingObjective"
23EE  01                 const type 3
23EF  0343AB71           const [5]: (1907049219)
23F3  04                 const type 4
23F4  07                 string size (7)
23F5  6167656E747300     "agents\0"
                         const [6]: "agents"
                         * functions:
23FC  00                 sizep (0)
                         * lines:
23FD  1C                 sizelineinfo (28)
                         [pc] (line)
23FE  46                 [01] (70)
23FF  01                 [02] (70)
2400  00                 [03] (70)
2401  00                 [04] (70)
2402  46                 [05] (70)
2403  01                 [06] (71)
2404  00                 [07] (71)
2405  00                 [08] (73)
2406  46                 [09] (73)
2407  01                 [10] (73)
2408  00                 [11] (73)
2409  00                 [12] (73)
240A  46                 [13] (73)
240B  01                 [14] (73)
240C  00                 [15] (73)
240D  00                 [16] (74)
240E  46                 [17] (74)
240F  01                 [18] (74)
2410  00                 [19] (74)
2411  00                 [20] (74)
2412  47                 [21] (76)
2413  01                 [22] (76)
2414  00                 [23] (76)
2415  00                 [24] (76)
2416  47                 [25] (76)
2417  01                 [26] (77)
2418  00                 [27] (70)
2419  00                 [28] (82)
                         * locals:
246E  00                 sizelocvars (0)
                         * upvalues:
246F  00                 sizeupvalues (0)
                         ** end of function **

                         
2470                     ** function [13] definition (level 2)
                         ** start of function **
2470  00                 string size (0)
                         source name: (none)
2472  02                 line defined (341)
2473  A6                 last line defined (422)
2474  03                 nups (5)
2475  05                 numparams (1)
2476  01                 is_vararg (0)
2477  00                 maxstacksize (39)
                         * code:
247A  01                 sizecode (232)
247B  53000000           [001] getupval   1   0      
247F  4A008000           [002] len        1   1      
2483  99000000           [003] loadk      2   0        ; 0
2487  D9400000           [004] loadk      3   1        ; 0
248B  50C01680           [005] forprep    1   92       ; to [98]
248F  53010000           [006] getupval   5   0      
2493  4E018102           [007] gettable   5   5   4  
2497  8E81C002           [008] gettable   6   5   258  ; "agents"
249B  8A010003           [009] len        6   6      
249F  D9010000           [010] loadk      7   0        ; 0
24A3  19420000           [011] loadk      8   1        ; 0
24A7  90810280           [012] forprep    6   11       ; to [24]
24AB  9DC20000           [013] getglobal  10  3        ; 1074689893
24AF  CE82C002           [014] gettable   11  5   258  ; "agents"
24B3  CE428205           [015] gettable   11  11  9  
24B7  A2820001           [016] call       10  2   2  
24BB  98020000           [017] test       10      0    ; to [19] if true
24BF  1A000180           [018] jmp        5            ; to [24]
24C3  9D020100           [019] getglobal  10  4        ; table
24C7  8E424105           [020] gettable   10  10  261  ; -843973282
24CB  CE82C002           [021] gettable   11  5   258  ; "agents"
24CF  12038004           [022] move       12  9      
24D3  A2428001           [023] call       10  3   1  
24D7  94C1FC7F           [024] forloop    6   -12      ; to [13] if loop
24DB  8E82C102           [025] gettable   10  5   262  ; "attemptingObjective"
24DF  D3028000           [026] getupval   11  1      
24E3  CEC2C105           [027] gettable   11  11  263  ; "isInSpace"
24E7  D8020000           [028] test       11      0    ; to [30] if true
24EB  1A400380           [029] jmp        14           ; to [44]
24EF  DDC20000           [030] getglobal  11  3        ; 1074689893
24F3  12030005           [031] move       12  10     
24F7  E2820001           [032] call       11  2   2  
24FB  D8420000           [033] test       11      1    ; to [35] if false
24FF  1AC00880           [034] jmp        36           ; to [71]
2503  E4024205           [035] self       11  10  264  ; -2135866365
2507  E2820001           [036] call       11  2   2  
250B  2443C205           [037] self       12  11  265  ; -112584775
250F  9D830200           [038] getglobal  14  10       ; gBeamType
2513  22838001           [039] call       12  3   2  
2517  18430000           [040] test       12      1    ; to [42] if false
251B  1A000780           [041] jmp        29           ; to [71]
251F  4CC14283           [042] settable   5   262 267  ; "attemptingObjective" nil
2523  1A800680           [043] jmp        27           ; to [71]
2527  1DC30000           [044] getglobal  12  3        ; 1074689893
252B  52030005           [045] move       13  10     
252F  22830001           [046] call       12  2   2  
2533  18430000           [047] test       12      1    ; to [49] if false
2537  1AC00280           [048] jmp        12           ; to [61]
253B  24034305           [049] self       12  10  268  ; 1657928373
253F  22830001           [050] call       12  2   2  
2543  18030000           [051] test       12      0    ; to [53] if true
2547  1AC00180           [052] jmp        8            ; to [61]
254B  24434305           [053] self       12  10  269  ; -575755009
254F  22830001           [054] call       12  2   2  
2553  18430000           [055] test       12      1    ; to [57] if false
2557  1AC00080           [056] jmp        4            ; to [61]
255B  24834305           [057] self       12  10  270  ; -565811444
255F  22430001           [058] call       12  2   1  
2563  4CC14283           [059] settable   5   262 267  ; "attemptingObjective" nil
2567  1A400280           [060] jmp        10           ; to [71]
256B  1DC30000           [061] getglobal  12  3        ; 1074689893
256F  52030005           [062] move       13  10     
2573  22830001           [063] call       12  2   2  
2577  18430000           [064] test       12      1    ; to [66] if false
257B  1A000180           [065] jmp        5            ; to [71]
257F  24034305           [066] self       12  10  268  ; 1657928373
2583  22830001           [067] call       12  2   2  
2587  18430000           [068] test       12      1    ; to [70] if false
258B  1A000080           [069] jmp        1            ; to [71]
258F  4CC14283           [070] settable   5   262 267  ; "attemptingObjective" nil
2593  0E83C002           [071] gettable   12  5   258  ; "agents"
2597  0A030006           [072] len        12  12     
fail op	33
259B  21004006           [073] tforloop   0       256  ; to [75] if exit
259F  1A800580           [074] jmp        23           ; to [98]
25A3  1DC30300           [075] getglobal  12  15       ; 1672515847
25A7  4E83C002           [076] gettable   13  5   258  ; "agents"
25AB  22030101           [077] call       12  2   4  
25AF  1AC00280           [078] jmp        12           ; to [91]
25B3  64044408           [079] self       17  16  272  ; -346092253
25B7  DD440400           [080] getglobal  19  17       ; -332969190
25BB  19850400           [081] loadk      20  18       ; "StormTarget"
25BF  E2040001           [082] call       19  2   0  
25C3  62440000           [083] call       17  0   1  
25C7  64844308           [084] self       17  16  270  ; -565811444
25CB  62440001           [085] call       17  2   1  
25CF  5D040100           [086] getglobal  17  4        ; table
25D3  4EC4C408           [087] gettable   17  17  275  ; -431682403
25D7  93040001           [088] getupval   18  2      
25DB  D2040008           [089] move       19  16     
25DF  62448001           [090] call       17  3   1  
25E3  16830000           [091] tforloop   12      2    ; to [93] if exit
25E7  1A40FC7F           [092] jmp        -14          ; to [79]
25EB  5D040100           [093] getglobal  17  4        ; table
25EF  4E44C108           [094] gettable   17  17  261  ; -843973282
25F3  93040000           [095] getupval   18  0      
25F7  D2040002           [096] move       19  4      
25FB  62448001           [097] call       17  3   1  
25FF  5480E87F           [098] forloop    1   -93      ; to [6] if loop
2603  53040001           [099] getupval   17  2      
2607  4A048008           [100] len        17  17     
260B  99040000           [101] loadk      18  0        ; 0
260F  D9440000           [102] loadk      19  1        ; 0
2613  50840280           [103] forprep    17  11       ; to [115]
2617  5DC50000           [104] getglobal  21  3        ; 1074689893
261B  93050001           [105] getupval   22  2      
261F  8E05050B           [106] gettable   22  22  20 
2623  62850001           [107] call       21  2   2  
2627  58050000           [108] test       21      0    ; to [110] if true
262B  1A000180           [109] jmp        5            ; to [115]
262F  5D050100           [110] getglobal  21  4        ; table
2633  4E45C10A           [111] gettable   21  21  261  ; -843973282
2637  93050001           [112] getupval   22  2      
263B  D205000A           [113] move       23  20     
263F  62458001           [114] call       21  3   1  
2643  54C4FC7F           [115] forloop    17  -12      ; to [104] if loop
2647  5DC50300           [116] getglobal  21  15       ; 1672515847
264B  93050000           [117] getupval   22  0      
264F  62050101           [118] call       21  2   4  
2653  1A400980           [119] jmp        38           ; to [158]
2657  93060001           [120] getupval   26  2      
265B  8A06000D           [121] len        26  26     
fail op	35
265F  2300450D           [122] close      0  
2663  1A000080           [123] jmp        1            ; to [125]
2667  1A800880           [124] jmp        35           ; to [160]
266B  8E86C00C           [125] gettable   26  25  258  ; "agents"
266F  8A06000D           [126] len        26  26     
2673  D3068000           [127] getupval   27  1      
2677  CE46C50D           [128] gettable   27  27  277  ; "maxSquadSize"
267B  13078001           [129] getupval   28  3      
267F  CE06870D           [130] gettable   27  27  28 
fail op	21
2683  15C0060D           [131] concat     0   26  27 
2687  1A000680           [132] jmp        25           ; to [158]
268B  9D060100           [133] getglobal  26  4        ; table
268F  8EC6440D           [134] gettable   26  26  275  ; -431682403
2693  CE86C00C           [135] gettable   27  25  258  ; "agents"
2697  13070001           [136] getupval   28  2      
269B  0E07400E           [137] gettable   28  28  256  ; 0
269F  A2468001           [138] call       26  3   1  
26A3  9DC60000           [139] getglobal  26  3        ; 1074689893
26A7  CE86C50C           [140] gettable   27  25  278  ; "target"
26AB  A2860001           [141] call       26  2   2  
26AF  98460000           [142] test       26      1    ; to [144] if false
26B3  1A000280           [143] jmp        9            ; to [153]
26B7  93060001           [144] getupval   26  2      
26BB  8E06400D           [145] gettable   26  26  256  ; 0
26BF  A4C6450D           [146] self       26  26  279  ; -800154281
26C3  1D470400           [147] getglobal  28  17       ; -332969190
26C7  59870400           [148] loadk      29  18       ; "StormTarget"
26CB  22870001           [149] call       28  2   2  
26CF  4E87C50C           [150] gettable   29  25  278  ; "target"
26D3  99070600           [151] loadk      30  24       ; 0
26D7  A2468002           [152] call       26  5   1  
26DB  9D060100           [153] getglobal  26  4        ; table
26DF  8E46410D           [154] gettable   26  26  261  ; -843973282
26E3  D3060001           [155] getupval   27  2      
26E7  19070000           [156] loadk      28  0        ; 0
26EB  A2468001           [157] call       26  3   1  
26EF  56850000           [158] tforloop   21      2    ; to [160] if exit
26F3  1AC0F57F           [159] jmp        -40          ; to [120]
26F7  93060001           [160] getupval   26  2      
26FB  8A06000D           [161] len        26  26     
26FF  D3068000           [162] getupval   27  1      
2703  CE46C60D           [163] gettable   27  27  281  ; "minSquadSize"
2707  13078001           [164] getupval   28  3      
270B  CE06870D           [165] gettable   27  27  28 
fail op	33
270F  2180860D           [166] tforloop   0       26   ; to [168] if exit
2713  1A800B80           [167] jmp        47           ; to [215]
2717  8B060000           [168] newtable   26  0   0    ; array=0, hash=0
271B  CB060000           [169] newtable   27  0   0    ; array=0, hash=0
271F  8CC60681           [170] settable   26  258 27   ; "agents"
2723  DD860600           [171] getglobal  27  26       ; 2144646525
2727  13078000           [172] getupval   28  1      
272B  0E47460E           [173] gettable   28  28  281  ; "minSquadSize"
272F  53078001           [174] getupval   29  3      
2733  0E47070E           [175] gettable   28  28  29 
2737  5DC70600           [176] getglobal  29  27       ; math
273B  4E07C70E           [177] gettable   29  29  284  ; 1710846250
273F  93078000           [178] getupval   30  1      
2743  8E47450F           [179] gettable   30  30  277  ; "maxSquadSize"
2747  D3078001           [180] getupval   31  3      
274B  8EC7070F           [181] gettable   30  30  31 
274F  D3070001           [182] getupval   31  2      
2753  CA07800F           [183] len        31  31     
2757  62078001           [184] call       29  3   0  
275B  E2860000           [185] call       27  0   2  
275F  13070001           [186] getupval   28  2      
2763  0A07000E           [187] len        28  28     
2767  59070500           [188] loadk      29  20       ; 0
276B  99470000           [189] loadk      30  1        ; 0
276F  10C70380           [190] forprep    28  16       ; to [207]
2773  1D080100           [191] getglobal  32  4        ; table
2777  0EC84410           [192] gettable   32  32  275  ; -431682403
277B  4E88400D           [193] gettable   33  26  258  ; "agents"
277F  93080001           [194] getupval   34  2      
2783  8EC80711           [195] gettable   34  34  31 
2787  22488001           [196] call       32  3   1  
278B  1D080100           [197] getglobal  32  4        ; table
278F  0E484110           [198] gettable   32  32  261  ; -843973282
2793  53080001           [199] getupval   33  2      
2797  9208800F           [200] move       34  31     
279B  22488001           [201] call       32  3   1  
279F  0E88400D           [202] gettable   32  26  258  ; "agents"
27A3  0A080010           [203] len        32  32     
fail op	33
27A7  2100880D           [204] tforloop   0       32   ; to [206] if exit
27AB  1A000080           [205] jmp        1            ; to [207]
27AF  1A000080           [206] jmp        1            ; to [208]
27B3  1487FB7F           [207] forloop    28  -17      ; to [191] if loop
27B7  8CC64283           [208] settable   26  262 267  ; "attemptingObjective" nil
27BB  8CC6428B           [209] settable   26  278 267  ; "target" nil
27BF  1D080100           [210] getglobal  32  4        ; table
27C3  0EC84410           [211] gettable   32  32  275  ; -431682403
27C7  53080000           [212] getupval   33  0      
27CB  9208000D           [213] move       34  26     
27CF  22488001           [214] call       32  3   1  
27D3  13080002           [215] getupval   32  4      
27D7  0A080010           [216] len        32  32     
27DB  59080000           [217] loadk      33  0        ; 0
27DF  99480000           [218] loadk      34  1        ; 0
27E3  10880280           [219] forprep    32  11       ; to [231]
27E7  1DC90000           [220] getglobal  36  3        ; 1074689893
27EB  53090002           [221] getupval   37  4      
27EF  4EC98812           [222] gettable   37  37  35 
27F3  22890001           [223] call       36  2   2  
27F7  18090000           [224] test       36      0    ; to [226] if true
27FB  1A000180           [225] jmp        5            ; to [231]
27FF  1D090100           [226] getglobal  36  4        ; table
2803  0E494112           [227] gettable   36  36  261  ; -843973282
2807  53090002           [228] getupval   37  4      
280B  92098011           [229] move       38  35     
280F  22498001           [230] call       36  3   1  
2813  14C8FC7F           [231] forloop    32  -12      ; to [220] if loop
2817  1E008000           [232] return     0   1      
                         * constants:
281B  1D                 sizek (29)
281C  03                 const type 3
281D  0000803F           const [0]: (0)
2821  03                 const type 3
2822  000080BF           const [1]: (0)
2826  04                 const type 4
2827  07                 string size (7)
2828  6167656E747300     "agents\0"
                         const [2]: "agents"
282F  01                 const type 3
2830  65770E40           const [3]: (1074689893)
2834  04                 const type 4
2835  06                 string size (6)
2836  7461626C6500       "table\0"
                         const [4]: "table"
283C  01                 const type 3
283D  5EFDB1CD           const [5]: (-843973282)
2841  04                 const type 4
2842  14                 string size (20)
2843  617474656D707469+  "attempti"
284B  6E674F626A656374+  "ngObject"
2853  69766500           "ive\0"
                         const [6]: "attemptingObjective"
2857  04                 const type 4
2858  0A                 string size (10)
2859  6973496E53706163+  "isInSpac"
2861  6500               "e\0"
                         const [7]: "isInSpace"
2863  01                 const type 3
2864  0344B180           const [8]: (-2135866365)
2868  01                 const type 3
2869  B9174AF9           const [9]: (-112584775)
286D  04                 const type 4
286E  0A                 string size (10)
286F  674265616D547970+  "gBeamTyp"
2877  6500               "e\0"
                         const [10]: "gBeamType"
2879  00                 const type 0
                         const [11]: nil
287A  01                 const type 3
287B  B5FAD162           const [12]: (1657928373)
287F  01                 const type 3
2880  FFACAEDD           const [13]: (-575755009)
2884  01                 const type 3
2885  0C6746DE           const [14]: (-565811444)
2889  01                 const type 3
288A  0791B063           const [15]: (1672515847)
288E  01                 const type 3
288F  230D5FEB           const [16]: (-346092253)
2893  01                 const type 3
2894  1A4B27EC           const [17]: (-332969190)
2898  04                 const type 4
2899  0C                 string size (12)
289A  53746F726D546172+  "StormTar"
28A2  67657400           "get\0"
                         const [18]: "StormTarget"
28A6  01                 const type 3
28A7  9D0C45E6           const [19]: (-431682403)
28AB  03                 const type 3
28AC  00000000           const [20]: (0)
28B0  04                 const type 4
28B1  0D                 string size (13)
28B2  6D61785371756164+  "maxSquad"
28BA  53697A6500         "Size\0"
                         const [21]: "maxSquadSize"
28BF  04                 const type 4
28C0  07                 string size (7)
28C1  74617267657400     "target\0"
                         const [22]: "target"
28C8  01                 const type 3
28C9  579D4ED0           const [23]: (-800154281)
28CD  03                 const type 3
28CE  00002041           const [24]: (0)
28D2  04                 const type 4
28D3  0D                 string size (13)
28D4  6D696E5371756164+  "minSquad"
28DC  53697A6500         "Size\0"
                         const [25]: "minSquadSize"
28E1  01                 const type 3
28E2  7DB5D47F           const [26]: (2144646525)
28E6  04                 const type 4
28E7  05                 string size (5)
28E8  6D61746800         "math\0"
                         const [27]: "math"
28ED  01                 const type 3
28EE  2A71F965           const [28]: (1710846250)
                         * functions:
28F2  00                 sizep (0)
                         * lines:
28F4  01                 sizelineinfo (232)
                         [pc] (line)
28F5  58                 [001] (88)
28F6  01                 [002] (88)
28F7  00                 [003] (88)
28F8  00                 [004] (88)
28F9  58                 [005] (88)
28FA  01                 [006] (89)
28FB  00                 [007] (89)
28FC  00                 [008] (90)
28FD  58                 [009] (90)
28FE  01                 [010] (90)
28FF  00                 [011] (90)
2900  00                 [012] (90)
2901  58                 [013] (91)
2902  01                 [014] (91)
2903  00                 [015] (91)
2904  00                 [016] (91)
2905  58                 [017] (91)
2906  01                 [018] (91)
2907  00                 [019] (92)
2908  00                 [020] (92)
2909  59                 [021] (92)
290A  01                 [022] (92)
290B  00                 [023] (92)
290C  00                 [024] (90)
290D  59                 [025] (96)
290E  01                 [026] (97)
290F  00                 [027] (97)
2910  00                 [028] (97)
2911  5A                 [029] (97)
2912  01                 [030] (98)
2913  00                 [031] (98)
2914  00                 [032] (98)
2915  5A                 [033] (98)
2916  01                 [034] (98)
2917  00                 [035] (99)
2918  00                 [036] (99)
2919  5A                 [037] (100)
291A  01                 [038] (100)
291B  00                 [039] (100)
291C  00                 [040] (100)
291D  5A                 [041] (100)
291E  01                 [042] (101)
291F  00                 [043] (103)
2920  00                 [044] (105)
2921  5A                 [045] (105)
2922  01                 [046] (105)
2923  00                 [047] (105)
2924  00                 [048] (105)
2925  5B                 [049] (105)
2926  01                 [050] (105)
2927  00                 [051] (105)
2928  00                 [052] (105)
2929  5B                 [053] (105)
292A  01                 [054] (105)
292B  00                 [055] (105)
292C  00                 [056] (105)
292D  5B                 [057] (106)
292E  01                 [058] (106)
292F  00                 [059] (107)
2930  00                 [060] (107)
2931  5B                 [061] (108)
2932  01                 [062] (108)
2933  00                 [063] (108)
2934  00                 [064] (108)
2935  5B                 [065] (108)
2936  01                 [066] (108)
2937  00                 [067] (108)
2938  00                 [068] (108)
2939  5B                 [069] (108)
293A  01                 [070] (109)
293B  00                 [071] (113)
293C  00                 [072] (113)
293D  5C                 [073] (113)
293E  01                 [074] (113)
293F  00                 [075] (114)
2940  00                 [076] (114)
2941  5C                 [077] (114)
2942  01                 [078] (114)
2943  00                 [079] (115)
2944  00                 [080] (115)
2945  5C                 [081] (115)
2946  01                 [082] (115)
2947  00                 [083] (115)
2948  00                 [084] (116)
2949  5C                 [085] (116)
294A  01                 [086] (117)
294B  00                 [087] (117)
294C  00                 [088] (117)
294D  5C                 [089] (117)
294E  01                 [090] (117)
294F  00                 [091] (114)
2950  00                 [092] (117)
2951  5A                 [093] (119)
2952  01                 [094] (119)
2953  00                 [095] (119)
2954  00                 [096] (119)
2955  60                 [097] (119)
2956  01                 [098] (88)
2957  00                 [099] (123)
2958  00                 [100] (123)
2959  61                 [101] (123)
295A  01                 [102] (123)
295B  00                 [103] (123)
295C  00                 [104] (124)
295D  61                 [105] (124)
295E  01                 [106] (124)
295F  00                 [107] (124)
2960  00                 [108] (124)
2961  61                 [109] (124)
2962  01                 [110] (125)
2963  00                 [111] (125)
2964  00                 [112] (125)
2965  61                 [113] (125)
2966  01                 [114] (125)
2967  00                 [115] (123)
2968  00                 [116] (-126)
2969  62                 [117] (-126)
296A  01                 [118] (-126)
296B  00                 [119] (-126)
296C  00                 [120] (-125)
296D  62                 [121] (-125)
296E  01                 [122] (-125)
296F  00                 [123] (-125)
2970  00                 [124] (-124)
2971  62                 [125] (-121)
2972  01                 [126] (-121)
2973  00                 [127] (-121)
2974  00                 [128] (-121)
2975  62                 [129] (-121)
2976  01                 [130] (-121)
2977  00                 [131] (-121)
2978  00                 [132] (-121)
2979  62                 [133] (-120)
297A  01                 [134] (-120)
297B  00                 [135] (-120)
297C  00                 [136] (-120)
297D  63                 [137] (-120)
297E  01                 [138] (-120)
297F  00                 [139] (-119)
2980  00                 [140] (-119)
2981  63                 [141] (-119)
2982  01                 [142] (-119)
2983  00                 [143] (-119)
2984  00                 [144] (-118)
2985  64                 [145] (-118)
2986  01                 [146] (-118)
2987  00                 [147] (-118)
2988  00                 [148] (-118)
2989  64                 [149] (-118)
298A  01                 [150] (-118)
298B  00                 [151] (-118)
298C  00                 [152] (-118)
298D  64                 [153] (-116)
298E  01                 [154] (-116)
298F  00                 [155] (-116)
2990  00                 [156] (-116)
2991  64                 [157] (-116)
2992  01                 [158] (-126)
2993  00                 [159] (-115)
2994  00                 [160] (-111)
2995  64                 [161] (-111)
2996  01                 [162] (-111)
2997  00                 [163] (-111)
2998  00                 [164] (-111)
2999  65                 [165] (-111)
299A  01                 [166] (-111)
299B  00                 [167] (-111)
299C  00                 [168] (-110)
299D  67                 [169] (-109)
299E  01                 [170] (-109)
299F  00                 [171] (-108)
29A0  00                 [172] (-108)
29A1  69                 [173] (-108)
29A2  01                 [174] (-108)
29A3  00                 [175] (-108)
29A4  00                 [176] (-108)
29A5  69                 [177] (-108)
29A6  01                 [178] (-108)
29A7  00                 [179] (-108)
29A8  00                 [180] (-108)
29A9  69                 [181] (-108)
29AA  01                 [182] (-108)
29AB  00                 [183] (-108)
29AC  00                 [184] (-108)
29AD  69                 [185] (-108)
29AE  01                 [186] (-107)
29AF  00                 [187] (-107)
29B0  00                 [188] (-107)
29B1  69                 [189] (-107)
29B2  01                 [190] (-107)
29B3  00                 [191] (-106)
29B4  00                 [192] (-106)
29B5  69                 [193] (-106)
29B6  01                 [194] (-106)
29B7  00                 [195] (-106)
29B8  00                 [196] (-106)
29B9  69                 [197] (-105)
29BA  01                 [198] (-105)
29BB  00                 [199] (-105)
29BC  00                 [200] (-105)
29BD  69                 [201] (-105)
29BE  01                 [202] (-104)
29BF  00                 [203] (-104)
29C0  00                 [204] (-104)
29C1  69                 [205] (-104)
29C2  01                 [206] (-103)
29C3  00                 [207] (-107)
29C4  00                 [208] (-100)
29C5  69                 [209] (-99)
29C6  01                 [210] (-98)
29C7  00                 [211] (-98)
29C8  00                 [212] (-98)
29C9  69                 [213] (-98)
29CA  01                 [214] (-98)
29CB  00                 [215] (-95)
29CC  00                 [216] (-95)
29CD  69                 [217] (-95)
29CE  01                 [218] (-95)
29CF  00                 [219] (-95)
29D0  00                 [220] (-94)
29D1  69                 [221] (-94)
29D2  01                 [222] (-94)
29D3  00                 [223] (-94)
29D4  00                 [224] (-94)
29D5  6A                 [225] (-94)
29D6  01                 [226] (-93)
29D7  00                 [227] (-93)
29D8  00                 [228] (-93)
29D9  6A                 [229] (-93)
29DA  01                 [230] (-93)
29DB  00                 [231] (-95)
29DC  00                 [232] (-90)
                         * locals:
2C95  00                 sizelocvars (0)
                         * upvalues:
2C96  00                 sizeupvalues (0)
                         ** end of function **

                         
2C97                     ** function [14] definition (level 2)
                         ** start of function **
2C97  00                 string size (0)
                         source name: (none)
2C99  03                 line defined (424)
2C9A  DE                 last line defined (478)
2C9B  03                 nups (7)
2C9C  07                 numparams (1)
2C9D  01                 is_vararg (0)
2C9E  00                 maxstacksize (31)
                         * code:
2CA0  70                 sizecode (112)
2CA1  59000000           [001] loadk      1   0        ; 0
2CA5  9D400000           [002] getglobal  2   1        ; 1672515847
2CA9  D3000000           [003] getupval   3   0      
2CAD  A2000101           [004] call       2   2   4  
2CB1  1A800480           [005] jmp        19           ; to [25]
2CB5  DD810000           [006] getglobal  7   2        ; 1074689893
2CB9  0EC24003           [007] gettable   8   6   259  ; "target"
2CBD  E2810001           [008] call       7   2   2  
2CC1  D8410000           [009] test       7       1    ; to [11] if false
2CC5  1A400380           [010] jmp        14           ; to [25]
2CC9  D3018000           [011] getupval   7   1      
2CCD  CE01C103           [012] gettable   7   7   260  ; 742936095
2CD1  0EC24003           [013] gettable   8   6   259  ; "target"
2CD5  4E424103           [014] gettable   9   6   261  ; "agents"
2CD9  E2818001           [015] call       7   3   2  
2CDD  D8010000           [016] test       7       0    ; to [18] if true
2CE1  1A400180           [017] jmp        6            ; to [24]
2CE5  8C81C181           [018] settable   6   259 262  ; "target" nil
2CE9  D3010001           [019] getupval   7   2      
2CED  12020003           [020] move       8   6      
2CF1  46028004           [021] loadnil    9   9      
2CF5  E2418001           [022] call       7   3   1  
2CF9  1A000080           [023] jmp        1            ; to [25]
2CFD  43C0C100           [024] add        1   1   263  ; 0
2D01  96800000           [025] tforloop   2       2    ; to [27] if exit
2D05  1A80FA7F           [026] jmp        -21          ; to [6]
2D09  D3018000           [027] getupval   7   1      
2D0D  CE01C203           [028] gettable   7   7   264  ; "numSquadObj"
2D11  13028001           [029] getupval   8   3      
2D15  CE018203           [030] gettable   7   7   8  
2D19  13020002           [031] getupval   8   4      
2D1D  CE018203           [032] gettable   7   7   8  
fail op	33
2D21  21408003           [033] tforloop   0       1    ; to [35] if exit
2D25  1A000080           [034] jmp        1            ; to [36]
2D29  1E008000           [035] return     0   1      
2D2D  1D420000           [036] getglobal  8   1        ; 1672515847
2D31  52020000           [037] move       9   0      
2D35  22020101           [038] call       8   2   4  
2D39  1A000A80           [039] jmp        41           ; to [81]
2D3D  53038002           [040] getupval   13  5      
2D41  A4434206           [041] self       14  12  265  ; 1839670529
2D45  A2830001           [042] call       14  2   2  
2D49  D9830200           [043] loadk      15  10       ; 0
2D4D  62838001           [044] call       13  3   2  
2D51  9D430000           [045] getglobal  14  1        ; 1672515847
2D55  D2038006           [046] move       15  13     
2D59  A2030101           [047] call       14  2   4  
2D5D  1A400780           [048] jmp        30           ; to [79]
2D61  D3040003           [049] getupval   19  6      
2D65  24C54209           [050] self       20  18  267  ; -1411785325
2D69  22050001           [051] call       20  2   0  
2D6D  E2840000           [052] call       19  0   2  
2D71  1D850000           [053] getglobal  20  2        ; 1074689893
2D75  52058009           [054] move       21  19     
2D79  22850001           [055] call       20  2   2  
2D7D  18450000           [056] test       20      1    ; to [58] if false
2D81  1A000580           [057] jmp        21           ; to [79]
2D85  1D850000           [058] getglobal  20  2        ; 1074689893
2D89  4EC5C009           [059] gettable   21  19  259  ; "target"
2D8D  22850001           [060] call       20  2   2  
2D91  18050000           [061] test       20      0    ; to [63] if true
2D95  1AC00380           [062] jmp        16           ; to [79]
2D99  13050001           [063] getupval   20  2      
2D9D  52058009           [064] move       21  19     
2DA1  92050006           [065] move       22  12     
2DA5  22458001           [066] call       20  3   1  
2DA9  1D050300           [067] getglobal  20  12       ; -1817107093
2DAD  59450300           [068] loadk      21  13       ; "Going for nearby objective"
2DB1  22450001           [069] call       20  2   1  
2DB5  1D850000           [070] getglobal  20  2        ; 1074689893
2DB9  4EC5C009           [071] gettable   21  19  259  ; "target"
2DBD  22850001           [072] call       20  2   2  
2DC1  18450000           [073] test       20      1    ; to [75] if false
2DC5  1AC00080           [074] jmp        4            ; to [79]
2DC9  43C0C100           [075] add        1   1   263  ; 0
fail op	33
2DCD  21408003           [076] tforloop   0       1    ; to [78] if exit
2DD1  1A000080           [077] jmp        1            ; to [79]
2DD5  1E008000           [078] return     0   1      
2DD9  96830000           [079] tforloop   14      2    ; to [81] if exit
2DDD  1AC0F77F           [080] jmp        -32          ; to [49]
2DE1  16820000           [081] tforloop   8       2    ; to [83] if exit
2DE5  1A00F57F           [082] jmp        -43          ; to [40]
2DE9  1D450000           [083] getglobal  20  1        ; 1672515847
2DED  53050000           [084] getupval   21  0      
2DF1  22050101           [085] call       20  2   4  
2DF5  1A800580           [086] jmp        23           ; to [110]
2DF9  5D860000           [087] getglobal  25  2        ; 1074689893
2DFD  8EC6400C           [088] gettable   26  24  259  ; "target"
2E01  62860001           [089] call       25  2   2  
2E05  58060000           [090] test       25      0    ; to [92] if true
2E09  1A400480           [091] jmp        18           ; to [110]
2E0D  53060001           [092] getupval   25  2      
2E11  9206000C           [093] move       26  24     
2E15  D3068000           [094] getupval   27  1      
2E19  CE86C30D           [095] gettable   27  27  270  ; 1262961737
2E1D  1207000C           [096] move       28  24     
2E21  52070000           [097] move       29  0      
2E25  97070000           [098] loadbool   30  0   0    ; false
2E29  E2060002           [099] call       27  4   0  
2E2D  62460000           [100] call       25  0   1  
2E31  5D860000           [101] getglobal  25  2        ; 1074689893
2E35  8EC6400C           [102] gettable   26  24  259  ; "target"
2E39  62860001           [103] call       25  2   2  
2E3D  58460000           [104] test       25      1    ; to [106] if false
2E41  1AC00080           [105] jmp        4            ; to [110]
2E45  43C0C100           [106] add        1   1   263  ; 0
fail op	33
2E49  21408003           [107] tforloop   0       1    ; to [109] if exit
2E4D  1A000080           [108] jmp        1            ; to [110]
2E51  1E008000           [109] return     0   1      
2E55  16850000           [110] tforloop   20      2    ; to [112] if exit
2E59  1A80F97F           [111] jmp        -25          ; to [87]
2E5D  1E008000           [112] return     0   1      
                         * constants:
2E61  0F                 sizek (15)
2E62  03                 const type 3
2E63  00000000           const [0]: (0)
2E67  01                 const type 3
2E68  0791B063           const [1]: (1672515847)
2E6C  01                 const type 3
2E6D  65770E40           const [2]: (1074689893)
2E71  04                 const type 4
2E72  07                 string size (7)
2E73  74617267657400     "target\0"
                         const [3]: "target"
2E7A  01                 const type 3
2E7B  1F4E482C           const [4]: (742936095)
2E7F  04                 const type 4
2E80  07                 string size (7)
2E81  6167656E747300     "agents\0"
                         const [5]: "agents"
2E88  00                 const type 0
                         const [6]: nil
2E89  03                 const type 3
2E8A  0000803F           const [7]: (0)
2E8E  04                 const type 4
2E8F  0C                 string size (12)
2E90  6E756D5371756164+  "numSquad"
2E98  4F626A00           "Obj\0"
                         const [8]: "numSquadObj"
2E9C  01                 const type 3
2E9D  0125A76D           const [9]: (1839670529)
2EA1  03                 const type 3
2EA2  00007041           const [10]: (0)
2EA6  01                 const type 3
2EA7  93DDD9AB           const [11]: (-1411785325)
2EAB  01                 const type 3
2EAC  6B25B193           const [12]: (-1817107093)
2EB0  04                 const type 4
2EB1  1B                 string size (27)
2EB2  476F696E6720666F+  "Going fo"
2EBA  72206E6561726279+  "r nearby"
2EC2  206F626A65637469+  " objecti"
2ECA  766500             "ve\0"
                         const [13]: "Going for nearby objective"
2ECD  01                 const type 3
2ECE  4944474B           const [14]: (1262961737)
                         * functions:
2ED2  00                 sizep (0)
                         * lines:
2ED3  70                 sizelineinfo (112)
                         [pc] (line)
2ED4  AA                 [001] (-86)
2ED5  01                 [002] (-83)
2ED6  00                 [003] (-83)
2ED7  00                 [004] (-83)
2ED8  AD                 [005] (-83)
2ED9  01                 [006] (-82)
2EDA  00                 [007] (-82)
2EDB  00                 [008] (-82)
2EDC  AD                 [009] (-82)
2EDD  01                 [010] (-82)
2EDE  00                 [011] (-81)
2EDF  00                 [012] (-81)
2EE0  AD                 [013] (-81)
2EE1  01                 [014] (-81)
2EE2  00                 [015] (-81)
2EE3  00                 [016] (-81)
2EE4  AD                 [017] (-81)
2EE5  01                 [018] (-80)
2EE6  00                 [019] (-79)
2EE7  00                 [020] (-79)
2EE8  AE                 [021] (-79)
2EE9  01                 [022] (-79)
2EEA  00                 [023] (-79)
2EEB  00                 [024] (-77)
2EEC  AE                 [025] (-83)
2EED  01                 [026] (-75)
2EEE  00                 [027] (-72)
2EEF  00                 [028] (-72)
2EF0  AE                 [029] (-72)
2EF1  01                 [030] (-72)
2EF2  00                 [031] (-72)
2EF3  00                 [032] (-72)
2EF4  AE                 [033] (-70)
2EF5  01                 [034] (-70)
2EF6  00                 [035] (-69)
2EF7  00                 [036] (-65)
2EF8  AE                 [037] (-65)
2EF9  01                 [038] (-65)
2EFA  00                 [039] (-65)
2EFB  00                 [040] (-64)
2EFC  AF                 [041] (-64)
2EFD  01                 [042] (-64)
2EFE  00                 [043] (-64)
2EFF  00                 [044] (-64)
2F00  AF                 [045] (-63)
2F01  01                 [046] (-63)
2F02  00                 [047] (-63)
2F03  00                 [048] (-63)
2F04  AF                 [049] (-62)
2F05  01                 [050] (-62)
2F06  00                 [051] (-62)
2F07  00                 [052] (-62)
2F08  AF                 [053] (-61)
2F09  01                 [054] (-61)
2F0A  00                 [055] (-61)
2F0B  00                 [056] (-61)
2F0C  AF                 [057] (-61)
2F0D  01                 [058] (-61)
2F0E  00                 [059] (-61)
2F0F  00                 [060] (-61)
2F10  AF                 [061] (-61)
2F11  01                 [062] (-61)
2F12  00                 [063] (-60)
2F13  00                 [064] (-60)
2F14  AF                 [065] (-60)
2F15  01                 [066] (-60)
2F16  00                 [067] (-59)
2F17  00                 [068] (-59)
2F18  B0                 [069] (-59)
2F19  01                 [070] (-57)
2F1A  00                 [071] (-57)
2F1B  00                 [072] (-57)
2F1C  B1                 [073] (-57)
2F1D  01                 [074] (-57)
2F1E  00                 [075] (-56)
2F1F  00                 [076] (-54)
2F20  B1                 [077] (-54)
2F21  01                 [078] (-53)
2F22  00                 [079] (-63)
2F23  00                 [080] (-50)
2F24  B1                 [081] (-65)
2F25  01                 [082] (-49)
2F26  00                 [083] (-46)
2F27  00                 [084] (-46)
2F28  B1                 [085] (-46)
2F29  01                 [086] (-46)
2F2A  00                 [087] (-45)
2F2B  00                 [088] (-45)
2F2C  B1                 [089] (-45)
2F2D  01                 [090] (-45)
2F2E  00                 [091] (-45)
2F2F  00                 [092] (-44)
2F30  B3                 [093] (-44)
2F31  01                 [094] (-44)
2F32  00                 [095] (-44)
2F33  00                 [096] (-44)
2F34  AD                 [097] (-44)
2F35  01                 [098] (-44)
2F36  00                 [099] (-44)
2F37  00                 [100] (-44)
2F38  B5                 [101] (-43)
2F39  01                 [102] (-43)
2F3A  00                 [103] (-43)
2F3B  00                 [104] (-43)
2F3C  B8                 [105] (-43)
2F3D  01                 [106] (-42)
2F3E  00                 [107] (-40)
2F3F  00                 [108] (-40)
2F40  B8                 [109] (-39)
2F41  01                 [110] (-46)
2F42  00                 [111] (-36)
2F43  00                 [112] (-34)
                         * locals:
3094  00                 sizelocvars (0)
                         * upvalues:
3095  00                 sizeupvalues (0)
                         ** end of function **

                         
3096                     ** function [15] definition (level 2)
                         ** start of function **
3096  00                 string size (0)
                         source name: (none)
3098  03                 line defined (483)
3099  E5                 last line defined (485)
309A  03                 nups (1)
309B  01                 numparams (1)
309C  01                 is_vararg (0)
309D  00                 maxstacksize (3)
                         * code:
309F  04                 sizecode (4)
30A0  53000000           [1] getupval   1   0      
30A4  92000000           [2] move       2   0      
30A8  62400001           [3] call       1   2   1  
30AC  1E008000           [4] return     0   1      
                         * constants:
30B0  00                 sizek (0)
                         * functions:
30B1  00                 sizep (0)
                         * lines:
30B2  04                 sizelineinfo (4)
                         [pc] (line)
30B3  E4                 [1] (-28)
30B4  01                 [2] (-28)
30B5  00                 [3] (-28)
30B6  00                 [4] (-27)
                         * locals:
30C3  00                 sizelocvars (0)
                         * upvalues:
30C4  00                 sizeupvalues (0)
                         ** end of function **

                         
30C5                     ** function [16] definition (level 2)
                         ** start of function **
30C5  00                 string size (0)
                         source name: (none)
30C7  03                 line defined (487)
30C8  E9                 last line defined (489)
30C9  03                 nups (1)
30CA  01                 numparams (0)
30CB  00                 is_vararg (0)
30CC  00                 maxstacksize (2)
                         * code:
30CE  03                 sizecode (3)
30CF  13000000           [1] getupval   0   0      
30D3  1E000001           [2] return     0   2      
30D7  1E008000           [3] return     0   1      
                         * constants:
30DB  00                 sizek (0)
                         * functions:
30DC  00                 sizep (0)
                         * lines:
30DD  03                 sizelineinfo (3)
                         [pc] (line)
30DE  E8                 [1] (-24)
30DF  01                 [2] (-24)
30E0  00                 [3] (-23)
                         * locals:
30EA  00                 sizelocvars (0)
                         * upvalues:
30EB  00                 sizeupvalues (0)
                         ** end of function **

                         
30EC                     ** function [17] definition (level 2)
                         ** start of function **
30EC  00                 string size (0)
                         source name: (none)
30EE  03                 line defined (491)
30EF  C6                 last line defined (582)
30F0  04                 nups (16)
30F1  10                 numparams (2)
30F2  02                 is_vararg (0)
30F3  00                 maxstacksize (21)
                         * code:
30F6  02                 sizecode (265)
30F7  9D000000           [001] getglobal  2   0        ; 1074689893
30FB  D3000000           [002] getupval   3   0      
30FF  A2800001           [003] call       2   2   2  
3103  98000000           [004] test       2       0    ; to [6] if true
3107  1A400180           [005] jmp        6            ; to [12]
310B  9D400000           [006] getglobal  2   1        ; gRegion
310F  A4804001           [007] self       2   2   258  ; -774964848
3113  A2800001           [008] call       2   2   2  
3117  A4C04001           [009] self       2   2   259  ; 537471347
311B  A2800001           [010] call       2   2   2  
fail op	8
311F  88000000           [011] setupval   2   0      
3123  93008000           [012] getupval   2   1      
3127  D2008000           [013] move       3   1      
312B  A2400001           [014] call       2   2   1  
312F  8B000000           [015] newtable   2   0   0    ; array=0, hash=0
3133  DD000100           [016] getglobal  3   4        ; math
3137  CE40C101           [017] gettable   3   3   261  ; 1710846250
313B  19810100           [018] loadk      4   6        ; 0
313F  5D410000           [019] getglobal  5   1        ; gRegion
3143  64C1C102           [020] self       5   5   263  ; 1224466847
3147  62810001           [021] call       5   2   2  
314B  4A018002           [022] len        5   5      
314F  9D010200           [023] getglobal  6   8        ; gFlashMgr
3153  A4414203           [024] self       6   6   265  ; -1998378965
3157  19820200           [025] loadk      8   10       ; "Server.NumVirtualTestClients"
315B  A2818001           [026] call       6   3   2  
315F  43818102           [027] add        5   5   6  
3163  E2808001           [028] call       3   3   2  
fail op	8
3167  C8000001           [029] setupval   3   2      
316B  D3008001           [030] getupval   3   3      
316F  13010002           [031] getupval   4   4      
3173  0EC14202           [032] gettable   4   4   267  ; "highPriorityUpdate"
3177  53010001           [033] getupval   5   2      
317B  0E410102           [034] gettable   4   4   5  
fail op	33
317F  21C00002           [035] tforloop   0       3    ; to [37] if exit
3183  1A400880           [036] jmp        34           ; to [71]
3187  DD000000           [037] getglobal  3   0        ; 1074689893
318B  13010002           [038] getupval   4   4      
318F  0E014302           [039] gettable   4   4   268  ; "highPriorityObjective"
3193  E2800001           [040] call       3   2   2  
3197  D8000000           [041] test       3       0    ; to [43] if true
319B  1AC00680           [042] jmp        28           ; to [71]
319F  D3000002           [043] getupval   3   4      
31A3  13010002           [044] getupval   4   4      
31A7  0E414302           [045] gettable   4   4   269  ; 1262961737
31AB  46018002           [046] loadnil    5   5      
31AF  92010000           [047] move       6   0      
31B3  D7018000           [048] loadbool   7   1   0    ; true
31B7  22810002           [049] call       4   4   2  
31BB  CC000186           [050] settable   3   268 4    ; "highPriorityObjective"
31BF  DD000000           [051] getglobal  3   0        ; 1074689893
31C3  13010002           [052] getupval   4   4      
31C7  0E014302           [053] gettable   4   4   268  ; "highPriorityObjective"
31CB  E2800001           [054] call       3   2   2  
31CF  D8400000           [055] test       3       1    ; to [57] if false
31D3  1A400380           [056] jmp        14           ; to [71]
31D7  DD800300           [057] getglobal  3   14       ; -1817107093
31DB  19C10300           [058] loadk      4   15       ; "High priority time"
31DF  E2400001           [059] call       3   2   1  
31E3  DD000400           [060] getglobal  3   16       ; 1672515847
31E7  13018002           [061] getupval   4   5      
31EB  E2000101           [062] call       3   2   4  
31EF  1A000180           [063] jmp        5            ; to [69]
31F3  13020003           [064] getupval   8   6      
31F7  52028003           [065] move       9   7      
31FB  93020002           [066] getupval   10  4      
31FF  8E024305           [067] gettable   10  10  268  ; "highPriorityObjective"
3203  22428001           [068] call       8   3   1  
3207  D6800000           [069] tforloop   3       2    ; to [71] if exit
320B  1A00FE7F           [070] jmp        -7           ; to [64]
320F  13028003           [071] getupval   8   7      
3213  53020004           [072] getupval   9   8      
fail op	33
3217  21008204           [073] tforloop   0       8    ; to [75] if exit
321B  1A802480           [074] jmp        147          ; to [222]
321F  13020002           [075] getupval   8   4      
3223  0E424404           [076] gettable   8   8   273  ; "maxAi"
3227  53020001           [077] getupval   9   2      
322B  0E420204           [078] gettable   8   8   9  
322F  53028004           [079] getupval   9   9      
3233  0E420204           [080] gettable   8   8   9  
3237  5D020100           [081] getglobal  9   4        ; math
323B  4E82C404           [082] gettable   9   9   274  ; -1962864584
323F  93020002           [083] getupval   10  4      
3243  8EC24405           [084] gettable   10  10  275  ; "minSquadSize"
3247  D3028004           [085] getupval   11  9      
324B  8EC20205           [086] gettable   10  10  11 
324F  D9020500           [087] loadk      11  20       ; 0
3253  62828001           [088] call       9   3   2  
3257  9D020000           [089] getglobal  10  0        ; 1074689893
325B  D3020002           [090] getupval   11  4      
325F  CE02C305           [091] gettable   11  11  268  ; "highPriorityObjective"
3263  A2820001           [092] call       10  2   2  
3267  98420000           [093] test       10      1    ; to [95] if false
326B  1A401280           [094] jmp        74           ; to [169]
326F  93020002           [095] getupval   10  4      
3273  8E424505           [096] gettable   10  10  277  ; 742936095
3277  D3020002           [097] getupval   11  4      
327B  CE02C305           [098] gettable   11  11  268  ; "highPriorityObjective"
327F  0B030000           [099] newtable   12  0   0    ; array=0, hash=0
3283  A2828001           [100] call       10  3   2  
3287  98420000           [101] test       10      1    ; to [103] if false
328B  1A800780           [102] jmp        31           ; to [134]
328F  D3020005           [103] getupval   11  10     
3293  13038005           [104] getupval   12  11     
fail op	21
3297  15008305           [105] concat     0   11  12 
329B  1A800680           [106] jmp        27           ; to [134]
329F  D3020000           [107] getupval   11  0      
32A3  E482C505           [108] self       11  11  278  ; -1626084341
32A7  E2820001           [109] call       11  2   2  
32AB  C3428205           [110] add        11  11  9  
fail op	33
32AF  21008205           [111] tforloop   0       8    ; to [113] if exit
32B3  1A800380           [112] jmp        15           ; to [128]
32B7  D3020006           [113] getupval   11  12     
32BB  06030006           [114] loadnil    12  12     
32BF  57038000           [115] loadbool   13  1   0    ; true
32C3  E2828001           [116] call       11  3   2  
32C7  1D030000           [117] getglobal  12  0        ; 1074689893
32CB  52038005           [118] move       13  11     
32CF  22830001           [119] call       12  2   2  
32D3  18430000           [120] test       12      1    ; to [122] if false
32D7  1A400180           [121] jmp        6            ; to [128]
32DB  8EC0C505           [122] gettable   2   11  279  ; "agents"
32DF  13030003           [123] getupval   12  6      
32E3  52038005           [124] move       13  11     
32E7  93030002           [125] getupval   14  4      
32EB  8E034307           [126] gettable   14  14  268  ; "highPriorityObjective"
32EF  22438001           [127] call       12  3   1  
32F3  13030002           [128] getupval   12  4      
32F7  0E034606           [129] gettable   12  12  280  ; "highPrioritySpawnDelay"
32FB  53030001           [130] getupval   13  2      
32FF  0E430306           [131] gettable   12  12  13 
fail op	8
3303  08030004           [132] setupval   12  8      
3307  1AC00780           [133] jmp        32           ; to [166]
330B  1D830300           [134] getglobal  12  14       ; -1817107093
330F  59430600           [135] loadk      13  25       ; "High priority time ended"
3313  22430001           [136] call       12  2   1  
3317  13030000           [137] getupval   12  0      
331B  24834606           [138] self       12  12  282  ; -2126839131
331F  86030007           [139] loadnil    14  14     
3323  22438001           [140] call       12  3   1  
3327  19C30600           [141] loadk      12  27       ; 0
fail op	8
332B  08030005           [142] setupval   12  10     
332F  13030002           [143] getupval   12  4      
3333  0C034786           [144] settable   12  268 284  ; "highPriorityObjective" nil
3337  19C30600           [145] loadk      12  27       ; 0
fail op	8
333B  08038001           [146] setupval   12  3      
333F  13030002           [147] getupval   12  4      
3343  0E434706           [148] gettable   12  12  285  ; "maxSpawnDelay"
3347  53030001           [149] getupval   13  2      
334B  0E430306           [150] gettable   12  12  13 
fail op	8
334F  08030004           [151] setupval   12  8      
3353  13030002           [152] getupval   12  4      
3357  0E834706           [153] gettable   12  12  286  ; "clearOrdersAfterHighPriority"
335B  18030000           [154] test       12      0    ; to [156] if true
335F  1A400280           [155] jmp        10           ; to [166]
3363  1D030400           [156] getglobal  12  16       ; 1672515847
3367  53038002           [157] getupval   13  5      
336B  22030101           [158] call       12  2   4  
336F  1AC00080           [159] jmp        4            ; to [164]
3373  53040003           [160] getupval   17  6      
3377  92040008           [161] move       18  16     
337B  C6048009           [162] loadnil    19  19     
337F  62448001           [163] call       17  3   1  
3383  16830000           [164] tforloop   12      2    ; to [166] if exit
3387  1A40FE7F           [165] jmp        -6           ; to [160]
338B  59C40600           [166] loadk      17  27       ; 0
fail op	8
338F  48048003           [167] setupval   17  7      
3393  1A000D80           [168] jmp        53           ; to [222]
3397  53040000           [169] getupval   17  0      
339B  6484C508           [170] self       17  17  278  ; -1626084341
339F  62840001           [171] call       17  2   2  
33A3  43448208           [172] add        17  17  9  
fail op	33
33A7  21008208           [173] tforloop   0       8    ; to [175] if exit
33AB  1A000B80           [174] jmp        45           ; to [220]
33AF  53040006           [175] getupval   17  12     
33B3  86040009           [176] loadnil    18  18     
33B7  D7040000           [177] loadbool   19  0   0    ; false
33BB  62848001           [178] call       17  3   2  
33BF  9D040000           [179] getglobal  18  0        ; 1074689893
33C3  D2048008           [180] move       19  17     
33C7  A2840001           [181] call       18  2   2  
33CB  98440000           [182] test       18      1    ; to [184] if false
33CF  1A000080           [183] jmp        1            ; to [185]
33D3  8EC0C508           [184] gettable   2   17  279  ; "agents"
33D7  93040004           [185] getupval   18  8      
33DB  D3040002           [186] getupval   19  4      
33DF  CE44C709           [187] gettable   19  19  285  ; "maxSpawnDelay"
33E3  13050001           [188] getupval   20  2      
33E7  CE048509           [189] gettable   19  19  20 
fail op	33
33EB  21808409           [190] tforloop   0       18   ; to [192] if exit
33EF  1A400180           [191] jmp        6            ; to [198]
33F3  93040002           [192] getupval   18  4      
33F7  8EC44709           [193] gettable   18  18  287  ; "defaultSpawnDelay"
33FB  D3040001           [194] getupval   19  2      
33FF  8EC40409           [195] gettable   18  18  19 
fail op	8
3403  88040004           [196] setupval   18  8      
3407  1A800480           [197] jmp        19           ; to [217]
340B  93040000           [198] getupval   18  0      
340F  A4844509           [199] self       18  18  278  ; -1626084341
3413  A2840001           [200] call       18  2   2  
3417  83440209           [201] add        18  18  9  
fail op	21
341B  15800404           [202] concat     0   8   18 
341F  1A400180           [203] jmp        6            ; to [210]
3423  93040002           [204] getupval   18  4      
3427  8E444709           [205] gettable   18  18  285  ; "maxSpawnDelay"
342B  D3040001           [206] getupval   19  2      
342F  8EC40409           [207] gettable   18  18  19 
fail op	8
3433  88040004           [208] setupval   18  8      
3437  1A800180           [209] jmp        7            ; to [217]
343B  93040004           [210] getupval   18  8      
343F  D3040002           [211] getupval   19  4      
3443  CE04C809           [212] gettable   19  19  288  ; "spawnDelayIncrement"
3447  13050001           [213] getupval   20  2      
344B  CE048509           [214] gettable   19  19  20 
344F  83C40409           [215] add        18  18  19 
fail op	8
3453  88040004           [216] setupval   18  8      
3457  99C40600           [217] loadk      18  27       ; 0
fail op	8
345B  88048003           [218] setupval   18  7      
345F  1A400080           [219] jmp        2            ; to [222]
3463  99C40600           [220] loadk      18  27       ; 0
fail op	8
3467  88048003           [221] setupval   18  7      
346B  93048006           [222] getupval   18  13     
346F  D2040000           [223] move       19  0      
3473  A2440001           [224] call       18  2   1  
3477  93040007           [225] getupval   18  14     
347B  D3040002           [226] getupval   19  4      
347F  CE44C809           [227] gettable   19  19  289  ; "objectiveUpdateTime"
3483  13050001           [228] getupval   20  2      
3487  CE048509           [229] gettable   19  19  20 
fail op	33
348B  21808409           [230] tforloop   0       18   ; to [232] if exit
348F  1A000180           [231] jmp        5            ; to [237]
3493  93048007           [232] getupval   18  15     
3497  D2040000           [233] move       19  0      
349B  A2440001           [234] call       18  2   1  
349F  99C40600           [235] loadk      18  27       ; 0
fail op	8
34A3  88040007           [236] setupval   18  14     
34A7  93048003           [237] getupval   18  7      
34AB  DD840800           [238] getglobal  19  34       ; 1289681407
34AF  E2848000           [239] call       19  1   2  
34B3  83C40409           [240] add        18  18  19 
fail op	8
34B7  88048003           [241] setupval   18  7      
34BB  93040007           [242] getupval   18  14     
34BF  DD840800           [243] getglobal  19  34       ; 1289681407
34C3  E2848000           [244] call       19  1   2  
34C7  83C40409           [245] add        18  18  19 
fail op	8
34CB  88040007           [246] setupval   18  14     
34CF  9D040000           [247] getglobal  18  0        ; 1074689893
34D3  D3040002           [248] getupval   19  4      
34D7  CE04C309           [249] gettable   19  19  268  ; "highPriorityObjective"
34DB  A2840001           [250] call       18  2   2  
34DF  98040000           [251] test       18      0    ; to [253] if true
34E3  1A400180           [252] jmp        6            ; to [259]
34E7  93048001           [253] getupval   18  3      
34EB  DD840800           [254] getglobal  19  34       ; 1289681407
34EF  E2848000           [255] call       19  1   2  
34F3  83C40409           [256] add        18  18  19 
fail op	8
34F7  88048001           [257] setupval   18  3      
34FB  1A000180           [258] jmp        5            ; to [264]
34FF  93040005           [259] getupval   18  10     
3503  DD840800           [260] getglobal  19  34       ; 1289681407
3507  E2848000           [261] call       19  1   2  
350B  83C40409           [262] add        18  18  19 
fail op	8
350F  88040005           [263] setupval   18  10     
3513  9E000001           [264] return     2   2      
3517  1E008000           [265] return     0   1      
                         * constants:
351B  23                 sizek (35)
351C  01                 const type 3
351D  65770E40           const [0]: (1074689893)
3521  04                 const type 4
3522  08                 string size (8)
3523  67526567696F6E00   "gRegion\0"
                         const [1]: "gRegion"
352B  01                 const type 3
352C  90F9CED1           const [2]: (-774964848)
3530  01                 const type 3
3531  73290920           const [3]: (537471347)
3535  04                 const type 4
3536  05                 string size (5)
3537  6D61746800         "math\0"
                         const [4]: "math"
353C  01                 const type 3
353D  2A71F965           const [5]: (1710846250)
3541  03                 const type 3
3542  00008040           const [6]: (0)
3546  01                 const type 3
3547  9FE1FB48           const [7]: (1224466847)
354B  04                 const type 4
354C  0A                 string size (10)
354D  67466C6173684D67+  "gFlashMg"
3555  7200               "r\0"
                         const [8]: "gFlashMgr"
3557  01                 const type 3
3558  2B28E388           const [9]: (-1998378965)
355C  04                 const type 4
355D  1D                 string size (29)
355E  5365727665722E4E+  "Server.N"
3566  756D566972747561+  "umVirtua"
356E  6C54657374436C69+  "lTestCli"
3576  656E747300         "ents\0"
                         const [10]: "Server.NumVirtualTestClients"
357B  04                 const type 4
357C  13                 string size (19)
357D  686967685072696F+  "highPrio"
3585  7269747955706461+  "rityUpda"
358D  746500             "te\0"
                         const [11]: "highPriorityUpdate"
3590  04                 const type 4
3591  16                 string size (22)
3592  686967685072696F+  "highPrio"
359A  726974794F626A65+  "rityObje"
35A2  637469766500       "ctive\0"
                         const [12]: "highPriorityObjective"
35A8  01                 const type 3
35A9  4944474B           const [13]: (1262961737)
35AD  01                 const type 3
35AE  6B25B193           const [14]: (-1817107093)
35B2  04                 const type 4
35B3  13                 string size (19)
35B4  4869676820707269+  "High pri"
35BC  6F72697479207469+  "ority ti"
35C4  6D6500             "me\0"
                         const [15]: "High priority time"
35C7  01                 const type 3
35C8  0791B063           const [16]: (1672515847)
35CC  04                 const type 4
35CD  06                 string size (6)
35CE  6D6178416900       "maxAi\0"
                         const [17]: "maxAi"
35D4  01                 const type 3
35D5  3810018B           const [18]: (-1962864584)
35D9  04                 const type 4
35DA  0D                 string size (13)
35DB  6D696E5371756164+  "minSquad"
35E3  53697A6500         "Size\0"
                         const [19]: "minSquadSize"
35E8  03                 const type 3
35E9  0000803F           const [20]: (0)
35ED  01                 const type 3
35EE  1F4E482C           const [21]: (742936095)
35F2  01                 const type 3
35F3  0BEC139F           const [22]: (-1626084341)
35F7  04                 const type 4
35F8  07                 string size (7)
35F9  6167656E747300     "agents\0"
                         const [23]: "agents"
3600  04                 const type 4
3601  17                 string size (23)
3602  686967685072696F+  "highPrio"
360A  7269747953706177+  "ritySpaw"
3612  6E44656C617900     "nDelay\0"
                         const [24]: "highPrioritySpawnDelay"
3619  04                 const type 4
361A  19                 string size (25)
361B  4869676820707269+  "High pri"
3623  6F72697479207469+  "ority ti"
362B  6D6520656E646564+  "me ended"
3633  00                 "\0"
                         const [25]: "High priority time ended"
3634  01                 const type 3
3635  A5023B81           const [26]: (-2126839131)
3639  03                 const type 3
363A  00000000           const [27]: (0)
363E  00                 const type 0
                         const [28]: nil
363F  04                 const type 4
3640  0E                 string size (14)
3641  6D6178537061776E+  "maxSpawn"
3649  44656C617900       "Delay\0"
                         const [29]: "maxSpawnDelay"
364F  04                 const type 4
3650  1D                 string size (29)
3651  636C6561724F7264+  "clearOrd"
3659  6572734166746572+  "ersAfter"
3661  486967685072696F+  "HighPrio"
3669  7269747900         "rity\0"
                         const [30]: "clearOrdersAfterHighPriority"
366E  04                 const type 4
366F  12                 string size (18)
3670  64656661756C7453+  "defaultS"
3678  7061776E44656C61+  "pawnDela"
3680  7900               "y\0"
                         const [31]: "defaultSpawnDelay"
3682  04                 const type 4
3683  14                 string size (20)
3684  737061776E44656C+  "spawnDel"
368C  6179496E6372656D+  "ayIncrem"
3694  656E7400           "ent\0"
                         const [32]: "spawnDelayIncrement"
3698  04                 const type 4
3699  14                 string size (20)
369A  6F626A6563746976+  "objectiv"
36A2  6555706461746554+  "eUpdateT"
36AA  696D6500           "ime\0"
                         const [33]: "objectiveUpdateTime"
36AE  01                 const type 3
36AF  FFF9DE4C           const [34]: (1289681407)
                         * functions:
36B3  00                 sizep (0)
                         * lines:
36B5  02                 sizelineinfo (265)
                         [pc] (line)
36B6  ED                 [001] (-19)
36B7  01                 [002] (-19)
36B8  00                 [003] (-19)
36B9  00                 [004] (-19)
36BA  ED                 [005] (-19)
36BB  01                 [006] (-18)
36BC  00                 [007] (-18)
36BD  00                 [008] (-18)
36BE  ED                 [009] (-18)
36BF  01                 [010] (-18)
36C0  00                 [011] (-18)
36C1  00                 [012] (-15)
36C2  ED                 [013] (-15)
36C3  01                 [014] (-15)
36C4  00                 [015] (-13)
36C5  00                 [016] (-12)
36C6  ED                 [017] (-12)
36C7  01                 [018] (-12)
36C8  00                 [019] (-12)
36C9  00                 [020] (-12)
36CA  EE                 [021] (-12)
36CB  01                 [022] (-12)
36CC  00                 [023] (-12)
36CD  00                 [024] (-12)
36CE  EE                 [025] (-12)
36CF  01                 [026] (-12)
36D0  00                 [027] (-12)
36D1  00                 [028] (-12)
36D2  EE                 [029] (-12)
36D3  01                 [030] (-9)
36D4  00                 [031] (-9)
36D5  00                 [032] (-9)
36D6  EE                 [033] (-9)
36D7  01                 [034] (-9)
36D8  00                 [035] (-9)
36D9  00                 [036] (-9)
36DA  EE                 [037] (-9)
36DB  01                 [038] (-9)
36DC  00                 [039] (-9)
36DD  00                 [040] (-9)
36DE  EE                 [041] (-9)
36DF  01                 [042] (-9)
36E0  00                 [043] (-8)
36E1  00                 [044] (-8)
36E2  F1                 [045] (-8)
36E3  01                 [046] (-8)
36E4  00                 [047] (-8)
36E5  00                 [048] (-8)
36E6  F1                 [049] (-8)
36E7  01                 [050] (-8)
36E8  00                 [051] (-7)
36E9  00                 [052] (-7)
36EA  F1                 [053] (-7)
36EB  01                 [054] (-7)
36EC  00                 [055] (-7)
36ED  00                 [056] (-7)
36EE  F3                 [057] (-6)
36EF  01                 [058] (-6)
36F0  00                 [059] (-6)
36F1  00                 [060] (-5)
36F2  F4                 [061] (-5)
36F3  01                 [062] (-5)
36F4  00                 [063] (-5)
36F5  00                 [064] (-4)
36F6  F4                 [065] (-4)
36F7  01                 [066] (-4)
36F8  00                 [067] (-4)
36F9  00                 [068] (-4)
36FA  F4                 [069] (-5)
36FB  01                 [070] (-4)
36FC  00                 [071] (1)
36FD  00                 [072] (1)
36FE  F4                 [073] (1)
36FF  01                 [074] (1)
3700  00                 [075] (2)
3701  00                 [076] (2)
3702  F4                 [077] (2)
3703  01                 [078] (2)
3704  00                 [079] (2)
3705  00                 [080] (2)
3706  F4                 [081] (3)
3707  01                 [082] (3)
3708  00                 [083] (3)
3709  00                 [084] (3)
370A  F4                 [085] (3)
370B  01                 [086] (3)
370C  00                 [087] (3)
370D  00                 [088] (3)
370E  F4                 [089] (5)
370F  01                 [090] (5)
3710  00                 [091] (5)
3711  00                 [092] (5)
3712  F4                 [093] (5)
3713  01                 [094] (5)
3714  00                 [095] (6)
3715  00                 [096] (6)
3716  F4                 [097] (6)
3717  01                 [098] (6)
3718  00                 [099] (6)
3719  00                 [100] (6)
371A  F4                 [101] (9)
371B  01                 [102] (9)
371C  00                 [103] (9)
371D  00                 [104] (9)
371E  F4                 [105] (9)
371F  01                 [106] (9)
3720  00                 [107] (10)
3721  00                 [108] (10)
3722  F4                 [109] (10)
3723  01                 [110] (10)
3724  00                 [111] (10)
3725  00                 [112] (10)
3726  F4                 [113] (11)
3727  01                 [114] (11)
3728  00                 [115] (11)
3729  00                 [116] (11)
372A  F7                 [117] (12)
372B  01                 [118] (12)
372C  00                 [119] (12)
372D  00                 [120] (12)
372E  F7                 [121] (12)
372F  01                 [122] (13)
3730  00                 [123] (14)
3731  00                 [124] (14)
3732  F7                 [125] (14)
3733  01                 [126] (14)
3734  00                 [127] (14)
3735  00                 [128] (17)
3736  F7                 [129] (17)
3737  01                 [130] (17)
3738  00                 [131] (17)
3739  00                 [132] (17)
373A  F7                 [133] (17)
373B  01                 [134] (19)
373C  00                 [135] (19)
373D  00                 [136] (19)
373E  F7                 [137] (20)
373F  01                 [138] (20)
3740  00                 [139] (20)
3741  00                 [140] (20)
3742  F7                 [141] (21)
3743  01                 [142] (21)
3744  00                 [143] (22)
3745  00                 [144] (22)
3746  F7                 [145] (23)
3747  01                 [146] (23)
3748  00                 [147] (24)
3749  00                 [148] (24)
374A  F7                 [149] (24)
374B  01                 [150] (24)
374C  00                 [151] (24)
374D  00                 [152] (25)
374E  F7                 [153] (25)
374F  01                 [154] (25)
3750  00                 [155] (25)
3751  00                 [156] (26)
3752  F7                 [157] (26)
3753  01                 [158] (26)
3754  00                 [159] (26)
3755  00                 [160] (27)
3756  F7                 [161] (27)
3757  01                 [162] (27)
3758  00                 [163] (27)
3759  00                 [164] (26)
375A  F7                 [165] (27)
375B  01                 [166] (31)
375C  00                 [167] (31)
375D  00                 [168] (31)
375E  F8                 [169] (32)
375F  01                 [170] (32)
3760  00                 [171] (32)
3761  00                 [172] (32)
3762  F8                 [173] (32)
3763  01                 [174] (32)
3764  00                 [175] (34)
3765  00                 [176] (34)
3766  F8                 [177] (34)
3767  01                 [178] (34)
3768  00                 [179] (36)
3769  00                 [180] (36)
376A  F8                 [181] (36)
376B  01                 [182] (36)
376C  00                 [183] (36)
376D  00                 [184] (37)
376E  F8                 [185] (41)
376F  01                 [186] (41)
3770  00                 [187] (41)
3771  00                 [188] (41)
3772  F8                 [189] (41)
3773  01                 [190] (41)
3774  00                 [191] (41)
3775  00                 [192] (42)
3776  F8                 [193] (42)
3777  01                 [194] (42)
3778  00                 [195] (42)
3779  00                 [196] (42)
377A  F8                 [197] (42)
377B  01                 [198] (43)
377C  00                 [199] (43)
377D  00                 [200] (43)
377E  F9                 [201] (43)
377F  01                 [202] (43)
3780  00                 [203] (43)
3781  00                 [204] (44)
3782  F9                 [205] (44)
3783  01                 [206] (44)
3784  00                 [207] (44)
3785  00                 [208] (44)
3786  F9                 [209] (44)
3787  01                 [210] (46)
3788  00                 [211] (46)
3789  00                 [212] (46)
378A  F9                 [213] (46)
378B  01                 [214] (46)
378C  00                 [215] (46)
378D  00                 [216] (46)
378E  F9                 [217] (48)
378F  01                 [218] (48)
3790  00                 [219] (48)
3791  00                 [220] (50)
3792  F9                 [221] (50)
3793  01                 [222] (54)
3794  00                 [223] (54)
3795  00                 [224] (54)
3796  FA                 [225] (56)
3797  01                 [226] (56)
3798  00                 [227] (56)
3799  00                 [228] (56)
379A  FA                 [229] (56)
379B  01                 [230] (56)
379C  00                 [231] (56)
379D  00                 [232] (57)
379E  FA                 [233] (57)
379F  01                 [234] (57)
37A0  00                 [235] (58)
37A1  00                 [236] (58)
37A2  FB                 [237] (61)
37A3  01                 [238] (61)
37A4  00                 [239] (61)
37A5  00                 [240] (61)
37A6  FB                 [241] (61)
37A7  01                 [242] (62)
37A8  00                 [243] (62)
37A9  00                 [244] (62)
37AA  FB                 [245] (62)
37AB  01                 [246] (62)
37AC  00                 [247] (63)
37AD  00                 [248] (63)
37AE  FB                 [249] (63)
37AF  01                 [250] (63)
37B0  00                 [251] (63)
37B1  00                 [252] (63)
37B2  FC                 [253] (64)
37B3  01                 [254] (64)
37B4  00                 [255] (64)
37B5  00                 [256] (64)
37B6  FC                 [257] (64)
37B7  01                 [258] (64)
37B8  00                 [259] (66)
37B9  00                 [260] (66)
37BA  FC                 [261] (66)
37BB  01                 [262] (66)
37BC  00                 [263] (66)
37BD  00                 [264] (69)
37BE  FC                 [265] (70)
                         * locals:
3ADA  00                 sizelocvars (0)
                         * upvalues:
3ADB  00                 sizeupvalues (0)
                         ** end of function **

                         
3ADC                     ** function [18] definition (level 2)
                         ** start of function **
3ADC  00                 string size (0)
                         source name: (none)
3ADE  04                 line defined (584)
3ADF  CA                 last line defined (586)
3AE0  04                 nups (1)
3AE1  01                 numparams (1)
3AE2  01                 is_vararg (0)
3AE3  00                 maxstacksize (3)
                         * code:
3AE5  04                 sizecode (4)
3AE6  53000000           [1] getupval   1   0      
3AEA  92000000           [2] move       2   0      
3AEE  62400001           [3] call       1   2   1  
3AF2  1E008000           [4] return     0   1      
                         * constants:
3AF6  00                 sizek (0)
                         * functions:
3AF7  00                 sizep (0)
                         * lines:
3AF8  04                 sizelineinfo (4)
                         [pc] (line)
3AF9  49                 [1] (73)
3AFA  02                 [2] (73)
3AFB  00                 [3] (73)
3AFC  00                 [4] (74)
                         * locals:
3B09  00                 sizelocvars (0)
                         * upvalues:
3B0A  00                 sizeupvalues (0)
                         ** end of function **

                         
3B0B                     ** function [19] definition (level 2)
                         ** start of function **
3B0B  00                 string size (0)
                         source name: (none)
3B0D  04                 line defined (588)
3B0E  CE                 last line defined (590)
3B0F  04                 nups (1)
3B10  01                 numparams (2)
3B11  02                 is_vararg (0)
3B12  00                 maxstacksize (5)
                         * code:
3B14  06                 sizecode (6)
3B15  93000000           [1] getupval   2   0      
3B19  D2000000           [2] move       3   0      
3B1D  12018000           [3] move       4   1      
3B21  87008001           [4] tailcall   2   3   0  
3B25  9E000000           [5] return     2   0      
3B29  1E008000           [6] return     0   1      
                         * constants:
3B2D  00                 sizek (0)
                         * functions:
3B2E  00                 sizep (0)
                         * lines:
3B2F  06                 sizelineinfo (6)
                         [pc] (line)
3B30  4D                 [1] (77)
3B31  02                 [2] (77)
3B32  00                 [3] (77)
3B33  00                 [4] (77)
3B34  4D                 [5] (77)
3B35  02                 [6] (78)
                         * locals:
3B48  00                 sizelocvars (0)
                         * upvalues:
3B49  00                 sizeupvalues (0)
                         ** end of function **

                         * lines:
3B4B  01                 sizelineinfo (255)
                         [pc] (line)
3B4C  01                 [001] (1)
3B4D  00                 [002] (1)
3B4E  00                 [003] (1)
3B4F  00                 [004] (1)
3B50  01                 [005] (1)
3B51  00                 [006] (3)
3B52  00                 [007] (3)
3B53  00                 [008] (3)
3B54  01                 [009] (4)
3B55  00                 [010] (4)
3B56  00                 [011] (4)
3B57  00                 [012] (6)
3B58  01                 [013] (6)
3B59  00                 [014] (6)
3B5A  00                 [015] (8)
3B5B  00                 [016] (9)
3B5C  01                 [017] (10)
3B5D  00                 [018] (10)
3B5E  00                 [019] (10)
3B5F  00                 [020] (11)
3B60  03                 [021] (11)
3B61  00                 [022] (12)
3B62  00                 [023] (13)
3B63  00                 [024] (14)
3B64  03                 [025] (15)
3B65  00                 [026] (16)
3B66  00                 [027] (17)
3B67  00                 [028] (18)
3B68  03                 [029] (19)
3B69  00                 [030] (20)
3B6A  00                 [031] (22)
3B6B  00                 [032] (36)
3B6C  04                 [033] (38)
3B6D  00                 [034] (39)
3B6E  00                 [035] (39)
3B6F  00                 [036] (39)
3B70  04                 [037] (39)
3B71  00                 [038] (39)
3B72  00                 [039] (39)
3B73  00                 [040] (39)
3B74  04                 [041] (40)
3B75  00                 [042] (40)
3B76  00                 [043] (40)
3B77  00                 [044] (40)
3B78  06                 [045] (40)
3B79  00                 [046] (41)
3B7A  00                 [047] (41)
3B7B  00                 [048] (41)
3B7C  06                 [049] (41)
3B7D  00                 [050] (41)
3B7E  00                 [051] (42)
3B7F  00                 [052] (42)
3B80  06                 [053] (42)
3B81  00                 [054] (42)
3B82  00                 [055] (42)
3B83  00                 [056] (42)
3B84  08                 [057] (43)
3B85  00                 [058] (43)
3B86  00                 [059] (43)
3B87  00                 [060] (43)
3B88  09                 [061] (43)
3B89  00                 [062] (43)
3B8A  00                 [063] (44)
3B8B  00                 [064] (44)
3B8C  0A                 [065] (44)
3B8D  00                 [066] (44)
3B8E  00                 [067] (44)
3B8F  00                 [068] (44)
3B90  0A                 [069] (44)
3B91  00                 [070] (45)
3B92  00                 [071] (45)
3B93  00                 [072] (45)
3B94  0A                 [073] (45)
3B95  00                 [074] (45)
3B96  00                 [075] (46)
3B97  00                 [076] (46)
3B98  0B                 [077] (46)
3B99  00                 [078] (46)
3B9A  00                 [079] (46)
3B9B  00                 [080] (47)
3B9C  0B                 [081] (47)
3B9D  00                 [082] (47)
3B9E  00                 [083] (47)
3B9F  00                 [084] (47)
3BA0  0C                 [085] (47)
3BA1  00                 [086] (48)
3BA2  00                 [087] (48)
3BA3  00                 [088] (48)
3BA4  0D                 [089] (48)
3BA5  00                 [090] (48)
3BA6  00                 [091] (48)
3BA7  00                 [092] (49)
3BA8  0E                 [093] (49)
3BA9  00                 [094] (49)
3BAA  00                 [095] (49)
3BAB  00                 [096] (49)
3BAC  0F                 [097] (49)
3BAD  00                 [098] (50)
3BAE  00                 [099] (50)
3BAF  00                 [100] (50)
3BB0  10                 [101] (51)
3BB1  00                 [102] (51)
3BB2  00                 [103] (51)
3BB3  00                 [104] (51)
3BB4  11                 [105] (51)
3BB5  00                 [106] (51)
3BB6  00                 [107] (52)
3BB7  00                 [108] (52)
3BB8  12                 [109] (52)
3BB9  00                 [110] (52)
3BBA  00                 [111] (52)
3BBB  00                 [112] (52)
3BBC  13                 [113] (52)
3BBD  00                 [114] (53)
3BBE  00                 [115] (53)
3BBF  00                 [116] (53)
3BC0  14                 [117] (53)
3BC1  00                 [118] (53)
3BC2  00                 [119] (53)
3BC3  00                 [120] (53)
3BC4  16                 [121] (54)
3BC5  00                 [122] (54)
3BC6  00                 [123] (54)
3BC7  00                 [124] (54)
3BC8  24                 [125] (54)
3BC9  00                 [126] (54)
3BCA  00                 [127] (54)
3BCB  00                 [128] (55)
3BCC  26                 [129] (55)
3BCD  00                 [130] (55)
3BCE  00                 [131] (55)
3BCF  00                 [132] (55)
3BD0  27                 [133] (55)
3BD1  00                 [134] (55)
3BD2  00                 [135] (56)
3BD3  00                 [136] (56)
3BD4  27                 [137] (56)
3BD5  00                 [138] (56)
3BD6  00                 [139] (56)
3BD7  00                 [140] (56)
3BD8  27                 [141] (56)
3BD9  00                 [142] (57)
3BDA  00                 [143] (57)
3BDB  00                 [144] (57)
3BDC  27                 [145] (57)
3BDD  00                 [146] (57)
3BDE  00                 [147] (57)
3BDF  00                 [148] (57)
3BE0  27                 [149] (58)
3BE1  00                 [150] (58)
3BE2  00                 [151] (58)
3BE3  00                 [152] (58)
3BE4  27                 [153] (58)
3BE5  00                 [154] (58)
3BE6  00                 [155] (58)
3BE7  00                 [156] (59)
3BE8  27                 [157] (60)
3BE9  00                 [158] (60)
3BEA  00                 [159] (60)
3BEB  00                 [160] (60)
3BEC  28                 [161] (60)
3BED  00                 [162] (60)
3BEE  00                 [163] (60)
3BEF  00                 [164] (61)
3BF0  28                 [165] (65)
3BF1  00                 [166] (65)
3BF2  00                 [167] (69)
3BF3  00                 [168] (69)
3BF4  28                 [169] (73)
3BF5  00                 [170] (73)
3BF6  00                 [171] (77)
3BF7  00                 [172] (77)
3BF8  28                 [173] (-118)
3BF9  00                 [174] (-118)
3BFA  00                 [175] (-118)
3BFB  00                 [176] (-118)
3BFC  28                 [177] (-118)
3BFD  00                 [178] (-118)
3BFE  00                 [179] (-39)
3BFF  00                 [180] (-39)
3C00  29                 [181] (-39)
3C01  00                 [182] (-39)
3C02  00                 [183] (-39)
3C03  00                 [184] (-39)
3C04  29                 [185] (-39)
3C05  00                 [186] (-39)
3C06  00                 [187] (-39)
3C07  00                 [188] (-28)
3C08  29                 [189] (-28)
3C09  00                 [190] (-28)
3C0A  00                 [191] (-3)
3C0B  00                 [192] (-3)
3C0C  29                 [193] (-3)
3C0D  00                 [194] (27)
3C0E  00                 [195] (27)
3C0F  00                 [196] (27)
3C10  29                 [197] (27)
3C11  00                 [198] (54)
3C12  00                 [199] (54)
3C13  00                 [200] (54)
3C14  2A                 [201] (54)
3C15  00                 [202] (54)
3C16  00                 [203] (54)
3C17  00                 [204] (54)
3C18  2A                 [205] (66)
3C19  00                 [206] (82)
3C1A  00                 [207] (82)
3C1B  00                 [208] (82)
3C1C  2A                 [209] (-90)
3C1D  00                 [210] (-90)
3C1E  00                 [211] (-90)
3C1F  00                 [212] (-90)
3C20  2A                 [213] (-90)
3C21  00                 [214] (-90)
3C22  00                 [215] (-34)
3C23  00                 [216] (-34)
3C24  2A                 [217] (-34)
3C25  00                 [218] (-34)
3C26  00                 [219] (-34)
3C27  00                 [220] (-34)
3C28  2A                 [221] (-34)
3C29  00                 [222] (-34)
3C2A  00                 [223] (-32)
3C2B  00                 [224] (-27)
3C2C  2B                 [225] (-27)
3C2D  00                 [226] (-27)
3C2E  00                 [227] (-23)
3C2F  00                 [228] (-23)
3C30  2B                 [229] (-23)
3C31  00                 [230] (70)
3C32  00                 [231] (70)
3C33  00                 [232] (70)
3C34  2B                 [233] (70)
3C35  00                 [234] (70)
3C36  00                 [235] (70)
3C37  00                 [236] (70)
3C38  2B                 [237] (70)
3C39  00                 [238] (70)
3C3A  00                 [239] (70)
3C3B  00                 [240] (70)
3C3C  2B                 [241] (70)
3C3D  00                 [242] (70)
3C3E  00                 [243] (70)
3C3F  00                 [244] (70)
3C40  2B                 [245] (70)
3C41  00                 [246] (70)
3C42  00                 [247] (70)
3C43  00                 [248] (74)
3C44  2C                 [249] (74)
3C45  00                 [250] (74)
3C46  00                 [251] (78)
3C47  00                 [252] (78)
3C48  2C                 [253] (78)
3C49  00                 [254] (80)
3C4A  00                 [255] (80)
                         * locals:
3F48  00                 sizelocvars (0)
                         * upvalues:
3F49  00                 sizeupvalues (0)
                         ** end of function **

3F4A                     ** end of chunk **
