1	C:\wlua_dump\path\Lotus\Scripts\LibsAbilitiesLib.lua
Pos   Hex Data           Description or Code
------------------------------------------------------------------------
0000                     ** source chunk: C:\wlua_dump\path\Lotus\Scripts\LibsAbilitiesLib.lua
                         ** global header start **
0000  7F                 header signature: ""
0001  00                 version (major:minor hex digits)
0002  00                 format (0=official)
0003  00                 endianness (1=little endian)
0004  00                 size of int (bytes)
0005  00                 size of size_t (bytes)
0006  02                 size of Instruction (bytes)
0007  0F                 size of number (bytes)
0008  B3                 integral (1=integral)
4179
                         * number type: single
                         * x86 standard (32-bit, little endian, doubles)
                         ** global header end **
package
seeall
Lotus.Interface.LotusUtilities
Lotus.Powersuits.PowersuitAbilities.PVPLib
/Lotus/Characters/Tenno/Accessory/DecalProjector/ClanEmblemDeco
/Lotus/Fx/Levels/Tutorial/VorBrandingEffectDeco
/Lotus/Characters/Grineer/BrandingDevice/GrineerBrandingDeviceHoloDeco
EffectsDeco
/Lotus/Types/GameRules/LotusPveWaterFightGameRules
ApplyEntityInvisibility
RemoveEntityInvisibility
ApplyLotusInvisibility
ApplyLotusInvisibilityNoSentinel
RemoveLotusInvisibility
RemoveLotusInvisibilityNoSentinel
PlayAnim
PlayAnimAndSuspendUntilEvent
PlayUpperBodyAnim
PlayUpperBodyAnimAndSuspendUntilEvent
SetAbilityStats
GetAbilityStats
WaitForAbilityStats
ClearAbilityStats
GetArchwingScaleMultiplier
GetArchwingRangeMultiplier
GetArchwingUIRangeMultipler
PreventEnergyGain
EnergyGainPrevented
CastTrails
DisablePassives
BlockProcs
EnableShieldGating
DisableShieldGating
GetUniqueAbilityId
AIDirTrackAgent
SlamToGround
StopSlamToGround
DoElementAugment
ClearCooldownOnDamage
ActivateExalted
DeactivateExalted
GiveWeapon
RemoveWeapon
UpgradeMeleeTree
RevertFinishers
RemoveWeaponPostMigration
InitializeEnergyColor
gEntityType
/Lotus/Types/Game/LotusWeaponAttachments/ArrowWeaponAttachment
ManageVisibilityOnEquipmentChange
gWeaponAttachmentType
EMPTY_SYMBOL
gLotusAvatarType
Engine
MAIN_HAND
/Lotus/Weapons/Tenno/Bows/LotusBow
gLotusAvatarType
gEntityType
Game
AVATAR_CASTING_SPEED
Engine
ATMM_DEFAULT
PRT_NONE

Game
AVATAR_CASTING_SPEED

_T
abilityStats
_T
abilityStats
_T
abilityStats
math
math
Lotus.Interface.LotusUtilities
UI_MODE_IN_GAME
_T
preventEnergyGain
_T
preventEnergyGain
gGameRules
gLotusHubGameRulesType
gLotusFightingGameRulesType
_T
blockProcs
gRegion
Game
AVATAR_INJURY_BLOCK_CHANCE
SET
Engine
PAIN
MAX_Injury
_T
shieldGated
_T
shieldGated
_T
globalAbilityTimerId
gRegion
_T
aiDirTrackAgent
Engine
TORSO
y
gRegion
FLT_MAX
Engine
ATMM_PHYSICS_DRIVEN
PRT_FREEZE
Game
AVATAR_CASTING_SPEED
pitch
math
ABILITY_SLAM
y
Lotus.Scripts.Libs.EasingLib
ATMM_ANIMATION_HORIZ_PHYSICS_VERT
PRT_ONCE
ZERO_VECTOR
ZERO_VECTOR
ABILITY_SLAM
Engine
ATMM_ANIMATION_HORIZ_PHYSICS_VERT
PRT_ONCE
Engine
SLOT_1
SLOT_2
SLOT_6
SLOT_8
table
sym
type
Game
WEAPON_PERCENT_BASE_DAMAGE_ADDED
ADD
GAME_R1_WEAPON1
Lotus_Game
instigator
affected
abilityType
buffType
BT_PERCENT_TIMER
buffData
augmentType
PowerSuit_AUGMENT_ONE
buffDataExtra
math
table
time
health
suit
ability
GiveWeapon
Lotus_Game
weaponType
Engine
MAIN_HAND
WS_EQUIP
damageAmount
damageType
procChance
weaponEquippedFnc
abilityActiveAnim
_T
suit
preRemoveFnc
abilityActiveAnim
_T
ability
weaponSlot
skinUnequip
exaltedAbility
activated
disableSlot
RemoveWeapon
Lotus_Game
gRegion
Engine
MAIN_HAND
weaponType
WS_EQUIP
gLotusMeleeWeaponType
SLOT_8
InventoryControllerBase_ES_INSTANT_EQUIP
RevertFinishers
WS_DORMANT
EXTRA2
GRAB
HOLSTER
_T
exaltedAbility
activated
Engine
SLOT_6
SLOT_8
Lotus_Game
LOT_NORMAL
LOT_NORMAL_PVP
gLotusNpcAvatarType
mItemType
AbilitiesLib.lua: Failed to build 
 giving temp weapon
gGameConfig
math
gLotusInventoryControllerType
MAIN_HAND
InventoryControllerBase_ES_INSTANT_EQUIP
EXTRA2
disableSlot
gLotusMeleeWeaponType
Engine
MAIN_HAND
SLOT_8
gLotusWeaponType
SLOT_1
InventoryControllerBase_ES_PLAY_EQUIP_ANIM
OFF_HAND
SLOT_2
_T
exaltedAbility
activated
disableSlot
Engine
SLOT_8
SLOT_6
gLotusMeleeWeaponType
gRegion
Engine
SLOT_8
Lotus_Game
PrimaryColors
EmissiveColor0
mEmissiveColor0
EmissiveColor1
mEmissiveColor1
EnergyColor
mEnergyColor
EnergyColor1
mEnergyColor1
                         
0001                     ** function [0] definition (level 1)
                         ** start of function **
0001  00                 string size (0)
                         source name: (none)
0002  00                 line defined (0)
0003  00                 last line defined (0)
0004  00                 nups (0)
0005  00                 numparams (0)
0006  02                 is_vararg (2)
0007  0F                 maxstacksize (15)
                         * code:
0009  01                 sizecode (179)
000A  1D000000           [001] getglobal  0   0        ; 954442511
000E  41000001           [002] vararg     1   2      
0012  9D400000           [003] getglobal  2   1        ; package
0016  8E804001           [004] gettable   2   2   258  ; "seeall"
001A  22408001           [005] call       0   3   1  
001E  1DC00000           [006] getglobal  0   3        ; 849075268
0022  59000100           [007] loadk      1   4        ; "Lotus.Interface.LotusUtilities"
0026  22800001           [008] call       0   2   2  
002A  5DC00000           [009] getglobal  1   3        ; 849075268
002E  99400100           [010] loadk      2   5        ; "Lotus.Powersuits.PowersuitAbilities.PVPLib"
0032  62800001           [011] call       1   2   2  
0036  9D800100           [012] getglobal  2   6        ; 738251817
003A  D9C00100           [013] loadk      3   7        ; "/Lotus/Characters/Tenno/Accessory/DecalProjector/ClanEmblemDeco"
003E  A2800001           [014] call       2   2   2  
0042  DD800100           [015] getglobal  3   6        ; 738251817
0046  19010200           [016] loadk      4   8        ; "/Lotus/Fx/Levels/Tutorial/VorBrandingEffectDeco"
004A  E2800001           [017] call       3   2   2  
004E  1D810100           [018] getglobal  4   6        ; 738251817
0052  59410200           [019] loadk      5   9        ; "/Lotus/Characters/Grineer/BrandingDevice/GrineerBrandingDeviceHoloDeco"
0056  22810001           [020] call       4   2   2  
005A  5D810200           [021] getglobal  5   10       ; -332969190
005E  99C10200           [022] loadk      6   11       ; "EffectsDeco"
0062  62810001           [023] call       5   2   2  
0066  9D810100           [024] getglobal  6   6        ; 738251817
006A  D9010300           [025] loadk      7   12       ; "/Lotus/Types/GameRules/LotusPveWaterFightGameRules"
006E  A2810001           [026] call       6   2   2  
0072  E5010000           [027] closure    7   0      
0076  12000001           [028] move       0   2      
007A  12008001           [029] move       0   3      
007E  12000002           [030] move       0   4      
0082  12008002           [031] move       0   5      
0086  25420000           [032] closure    8   1      
008A  12008003           [033] move       0   7      
008E  20420300           [034] setglobal  8   13       ; ApplyEntityInvisibility
0092  20820300           [035] setglobal  8   14       ; -48417268
0096  25820000           [036] closure    8   2      
009A  12000001           [037] move       0   2      
009E  12008001           [038] move       0   3      
00A2  12000002           [039] move       0   4      
00A6  12008002           [040] move       0   5      
00AA  65C20000           [041] closure    9   3      
00AE  12000004           [042] move       0   8      
00B2  60C20300           [043] setglobal  9   15       ; RemoveEntityInvisibility
00B6  60020400           [044] setglobal  9   16       ; 1752782241
00BA  65020100           [045] closure    9   4      
00BE  12008003           [046] move       0   7      
00C2  60420400           [047] setglobal  9   17       ; ApplyLotusInvisibility
00C6  60820400           [048] setglobal  9   18       ; 1866016139
00CA  65420100           [049] closure    9   5      
00CE  12008003           [050] move       0   7      
00D2  60C20400           [051] setglobal  9   19       ; ApplyLotusInvisibilityNoSentinel
00D6  60020500           [052] setglobal  9   20       ; 815120826
00DA  65820100           [053] closure    9   6      
00DE  12000004           [054] move       0   8      
00E2  60420500           [055] setglobal  9   21       ; RemoveLotusInvisibility
00E6  60820500           [056] setglobal  9   22       ; -1970331308
00EA  65C20100           [057] closure    9   7      
00EE  12000004           [058] move       0   8      
00F2  60C20500           [059] setglobal  9   23       ; RemoveLotusInvisibilityNoSentinel
00F6  60020600           [060] setglobal  9   24       ; -541050367
00FA  65020200           [061] closure    9   8      
00FE  12008000           [062] move       0   1      
0102  A5420200           [063] closure    10  9      
0106  12008004           [064] move       0   9      
010A  A0420600           [065] setglobal  10  25       ; PlayAnim
010E  A0820600           [066] setglobal  10  26       ; -1143662892
0112  A5820200           [067] closure    10  10     
0116  12008004           [068] move       0   9      
011A  A0C20600           [069] setglobal  10  27       ; PlayAnimAndSuspendUntilEvent
011E  A0020700           [070] setglobal  10  28       ; 952069771
0122  A5C20200           [071] closure    10  11     
0126  12008000           [072] move       0   1      
012A  E5020300           [073] closure    11  12     
012E  12000005           [074] move       0   10     
0132  E0420700           [075] setglobal  11  29       ; PlayUpperBodyAnim
0136  E0820700           [076] setglobal  11  30       ; 1912540565
013A  E5420300           [077] closure    11  13     
013E  12000005           [078] move       0   10     
0142  E0C20700           [079] setglobal  11  31       ; PlayUpperBodyAnimAndSuspendUntilEvent
0146  E0020800           [080] setglobal  11  32       ; 180130881
014A  E5820300           [081] closure    11  14     
014E  E0420800           [082] setglobal  11  33       ; SetAbilityStats
0152  E0820800           [083] setglobal  11  34       ; 1782903988
0156  E5C20300           [084] closure    11  15     
015A  25030400           [085] closure    12  16     
015E  12008005           [086] move       0   11     
0162  20C30800           [087] setglobal  12  35       ; GetAbilityStats
0166  20030900           [088] setglobal  12  36       ; -2033850958
016A  25430400           [089] closure    12  17     
016E  12008005           [090] move       0   11     
0172  20430900           [091] setglobal  12  37       ; WaitForAbilityStats
0176  20830900           [092] setglobal  12  38       ; 1549030795
017A  25830400           [093] closure    12  18     
017E  20C30900           [094] setglobal  12  39       ; ClearAbilityStats
0182  20030A00           [095] setglobal  12  40       ; -1049771070
0186  25C30400           [096] closure    12  19     
018A  20430A00           [097] setglobal  12  41       ; GetArchwingScaleMultiplier
018E  20830A00           [098] setglobal  12  42       ; -778478647
0192  25030500           [099] closure    12  20     
0196  65430500           [100] closure    13  21     
019A  12000006           [101] move       0   12     
019E  60C30A00           [102] setglobal  13  43       ; GetArchwingRangeMultiplier
01A2  60030B00           [103] setglobal  13  44       ; -1750848016
01A6  65830500           [104] closure    13  22     
01AA  12000006           [105] move       0   12     
01AE  60430B00           [106] setglobal  13  45       ; GetArchwingUIRangeMultipler
01B2  60830B00           [107] setglobal  13  46       ; -115901749
01B6  65C30500           [108] closure    13  23     
01BA  60C30B00           [109] setglobal  13  47       ; PreventEnergyGain
01BE  60030C00           [110] setglobal  13  48       ; -559949506
01C2  65030600           [111] closure    13  24     
01C6  60430C00           [112] setglobal  13  49       ; EnergyGainPrevented
01CA  60830C00           [113] setglobal  13  50       ; 1092291362
01CE  65430600           [114] closure    13  25     
01D2  60C30C00           [115] setglobal  13  51       ; CastTrails
01D6  60030D00           [116] setglobal  13  52       ; 170301203
01DA  65830600           [117] closure    13  26     
01DE  12000003           [118] move       0   6      
01E2  12008000           [119] move       0   1      
01E6  60430D00           [120] setglobal  13  53       ; DisablePassives
01EA  60830D00           [121] setglobal  13  54       ; 998307158
01EE  65C30600           [122] closure    13  27     
01F2  60C30D00           [123] setglobal  13  55       ; BlockProcs
01F6  60030E00           [124] setglobal  13  56       ; 1438225043
01FA  65030700           [125] closure    13  28     
01FE  60430E00           [126] setglobal  13  57       ; EnableShieldGating
0202  60830E00           [127] setglobal  13  58       ; -1168639906
0206  65430700           [128] closure    13  29     
020A  60C30E00           [129] setglobal  13  59       ; DisableShieldGating
020E  60030F00           [130] setglobal  13  60       ; 1426519765
0212  65830700           [131] closure    13  30     
0216  60430F00           [132] setglobal  13  61       ; GetUniqueAbilityId
021A  60830F00           [133] setglobal  13  62       ; 292147461
021E  65C30700           [134] closure    13  31     
0222  60C30F00           [135] setglobal  13  63       ; AIDirTrackAgent
0226  60031000           [136] setglobal  13  64       ; -1822566011
022A  65030800           [137] closure    13  32     
022E  A5430800           [138] closure    14  33     
0232  12008004           [139] move       0   9      
0236  12008006           [140] move       0   13     
023A  A0431000           [141] setglobal  14  65       ; SlamToGround
023E  A0831000           [142] setglobal  14  66       ; 1041109872
0242  A5830800           [143] closure    14  34     
0246  12008004           [144] move       0   9      
024A  A0C31000           [145] setglobal  14  67       ; StopSlamToGround
024E  A0031100           [146] setglobal  14  68       ; -2105500115
0252  A5C30800           [147] closure    14  35     
0256  A0431100           [148] setglobal  14  69       ; DoElementAugment
025A  A0831100           [149] setglobal  14  70       ; -1889007111
025E  A5030900           [150] closure    14  36     
0262  A0C31100           [151] setglobal  14  71       ; ClearCooldownOnDamage
0266  A0031200           [152] setglobal  14  72       ; 1985984793
026A  A5430900           [153] closure    14  37     
026E  12000000           [154] move       0   0      
0272  A0431200           [155] setglobal  14  73       ; ActivateExalted
0276  A0831200           [156] setglobal  14  74       ; 2078388606
027A  A5830900           [157] closure    14  38     
027E  A0C31200           [158] setglobal  14  75       ; DeactivateExalted
0282  A0031300           [159] setglobal  14  76       ; 1519372487
0286  A5C30900           [160] closure    14  39     
028A  12008000           [161] move       0   1      
028E  A0431300           [162] setglobal  14  77       ; GiveWeapon
0292  A0831300           [163] setglobal  14  78       ; -1422279104
0296  A5030A00           [164] closure    14  40     
029A  A0C31300           [165] setglobal  14  79       ; RemoveWeapon
029E  A0031400           [166] setglobal  14  80       ; -630201962
02A2  A5430A00           [167] closure    14  41     
02A6  A0431400           [168] setglobal  14  81       ; UpgradeMeleeTree
02AA  A0831400           [169] setglobal  14  82       ; 1569791070
02AE  A5830A00           [170] closure    14  42     
02B2  A0C31400           [171] setglobal  14  83       ; RevertFinishers
02B6  A0031500           [172] setglobal  14  84       ; 229760114
02BA  A5C30A00           [173] closure    14  43     
02BE  A0431500           [174] setglobal  14  85       ; RemoveWeaponPostMigration
02C2  A0831500           [175] setglobal  14  86       ; -1271591092
02C6  A5030B00           [176] closure    14  44     
02CA  A0C31500           [177] setglobal  14  87       ; InitializeEnergyColor
02CE  A0031600           [178] setglobal  14  88       ; 436531569
02D2  1E008000           [179] return     0   1      
                         * constants:
02D6  59                 sizek (89)
02D7  01                 const type 3
02D8  0FA3E338           const [0]: (954442511)
02DC  04                 const type 4
02DD  08                 string size (8)
02DE  7061636B61676500   "package\0"
                         const [1]: "package"
02E6  04                 const type 4
02E7  07                 string size (7)
02E8  736565616C6C00     "seeall\0"
                         const [2]: "seeall"
02EF  01                 const type 3
02F0  44DC9B32           const [3]: (849075268)
02F4  04                 const type 4
02F5  1F                 string size (31)
02F6  4C6F7475732E496E+  "Lotus.In"
02FE  746572666163652E+  "terface."
0306  4C6F747573557469+  "LotusUti"
030E  6C697469657300     "lities\0"
                         const [4]: "Lotus.Interface.LotusUtilities"
0315  04                 const type 4
0316  2B                 string size (43)
0317  4C6F7475732E506F+  "Lotus.Po"
031F  7765727375697473+  "wersuits"
0327  2E506F7765727375+  ".Powersu"
032F  69744162696C6974+  "itAbilit"
0337  6965732E5056504C+  "ies.PVPL"
033F  696200             "ib\0"
                         const [5]: "Lotus.Powersuits.PowersuitAbilities.PVPLib"
0342  01                 const type 3
0343  29D4002C           const [6]: (738251817)
0347  04                 const type 4
0348  40                 string size (64)
0349  2F4C6F7475732F43+  "/Lotus/C"
0351  6861726163746572+  "haracter"
0359  732F54656E6E6F2F+  "s/Tenno/"
0361  4163636573736F72+  "Accessor"
0369  792F446563616C50+  "y/DecalP"
0371  726F6A6563746F72+  "rojector"
0379  2F436C616E456D62+  "/ClanEmb"
0381  6C656D4465636F00   "lemDeco\0"
                         const [7]: "/Lotus/Characters/Tenno/Accessory/DecalProjector/ClanEmblemDeco"
0389  04                 const type 4
038A  30                 string size (48)
038B  2F4C6F7475732F46+  "/Lotus/F"
0393  782F4C6576656C73+  "x/Levels"
039B  2F5475746F726961+  "/Tutoria"
03A3  6C2F566F72427261+  "l/VorBra"
03AB  6E64696E67456666+  "ndingEff"
03B3  6563744465636F00   "ectDeco\0"
                         const [8]: "/Lotus/Fx/Levels/Tutorial/VorBrandingEffectDeco"
03BB  04                 const type 4
03BC  47                 string size (71)
03BD  2F4C6F7475732F43+  "/Lotus/C"
03C5  6861726163746572+  "haracter"
03CD  732F4772696E6565+  "s/Grinee"
03D5  722F4272616E6469+  "r/Brandi"
03DD  6E67446576696365+  "ngDevice"
03E5  2F4772696E656572+  "/Grineer"
03ED  4272616E64696E67+  "Branding"
03F5  446576696365486F+  "DeviceHo"
03FD  6C6F4465636F00     "loDeco\0"
                         const [9]: "/Lotus/Characters/Grineer/BrandingDevice/GrineerBrandingDeviceHoloDeco"
0404  01                 const type 3
0405  1A4B27EC           const [10]: (-332969190)
0409  04                 const type 4
040A  0C                 string size (12)
040B  4566666563747344+  "EffectsD"
0413  65636F00           "eco\0"
                         const [11]: "EffectsDeco"
0417  04                 const type 4
0418  33                 string size (51)
0419  2F4C6F7475732F54+  "/Lotus/T"
0421  797065732F47616D+  "ypes/Gam"
0429  6552756C65732F4C+  "eRules/L"
0431  6F74757350766557+  "otusPveW"
0439  6174657246696768+  "aterFigh"
0441  7447616D6552756C+  "tGameRul"
0449  657300             "es\0"
                         const [12]: "/Lotus/Types/GameRules/LotusPveWaterFightGameRules"
044C  04                 const type 4
044D  18                 string size (24)
044E  4170706C79456E74+  "ApplyEnt"
0456  697479496E766973+  "ityInvis"
045E  6962696C69747900   "ibility\0"
                         const [13]: "ApplyEntityInvisibility"
0466  01                 const type 3
0467  0C361DFD           const [14]: (-48417268)
046B  04                 const type 4
046C  19                 string size (25)
046D  52656D6F7665456E+  "RemoveEn"
0475  74697479496E7669+  "tityInvi"
047D  736962696C697479+  "sibility"
0485  00                 "\0"
                         const [15]: "RemoveEntityInvisibility"
0486  01                 const type 3
0487  A1557968           const [16]: (1752782241)
048B  04                 const type 4
048C  17                 string size (23)
048D  4170706C794C6F74+  "ApplyLot"
0495  7573496E76697369+  "usInvisi"
049D  62696C69747900     "bility\0"
                         const [17]: "ApplyLotusInvisibility"
04A4  01                 const type 3
04A5  8B25396F           const [18]: (1866016139)
04A9  04                 const type 4
04AA  21                 string size (33)
04AB  4170706C794C6F74+  "ApplyLot"
04B3  7573496E76697369+  "usInvisi"
04BB  62696C6974794E6F+  "bilityNo"
04C3  53656E74696E656C+  "Sentinel"
04CB  00                 "\0"
                         const [19]: "ApplyLotusInvisibilityNoSentinel"
04CC  01                 const type 3
04CD  BAC19530           const [20]: (815120826)
04D1  04                 const type 4
04D2  18                 string size (24)
04D3  52656D6F76654C6F+  "RemoveLo"
04DB  747573496E766973+  "tusInvis"
04E3  6962696C69747900   "ibility\0"
                         const [21]: "RemoveLotusInvisibility"
04EB  01                 const type 3
04EC  54218F8A           const [22]: (-1970331308)
04F0  04                 const type 4
04F1  22                 string size (34)
04F2  52656D6F76654C6F+  "RemoveLo"
04FA  747573496E766973+  "tusInvis"
0502  6962696C6974794E+  "ibilityN"
050A  6F53656E74696E65+  "oSentine"
0512  6C00               "l\0"
                         const [23]: "RemoveLotusInvisibilityNoSentinel"
0514  01                 const type 3
0515  013AC0DF           const [24]: (-541050367)
0519  04                 const type 4
051A  09                 string size (9)
051B  506C6179416E696D+  "PlayAnim"
0523  00                 "\0"
                         const [25]: "PlayAnim"
0524  01                 const type 3
0525  D416D5BB           const [26]: (-1143662892)
0529  04                 const type 4
052A  1D                 string size (29)
052B  506C6179416E696D+  "PlayAnim"
0533  416E645375737065+  "AndSuspe"
053B  6E64556E74696C45+  "ndUntilE"
0543  76656E7400         "vent\0"
                         const [27]: "PlayAnimAndSuspendUntilEvent"
0548  01                 const type 3
0549  8B6EBF38           const [28]: (952069771)
054D  04                 const type 4
054E  12                 string size (18)
054F  506C617955707065+  "PlayUppe"
0557  72426F6479416E69+  "rBodyAni"
055F  6D00               "m\0"
                         const [29]: "PlayUpperBodyAnim"
0561  01                 const type 3
0562  950DFF71           const [30]: (1912540565)
0566  04                 const type 4
0567  26                 string size (38)
0568  506C617955707065+  "PlayUppe"
0570  72426F6479416E69+  "rBodyAni"
0578  6D416E6453757370+  "mAndSusp"
0580  656E64556E74696C+  "endUntil"
0588  4576656E7400       "Event\0"
                         const [31]: "PlayUpperBodyAnimAndSuspendUntilEvent"
058E  01                 const type 3
058F  4194BC0A           const [32]: (180130881)
0593  04                 const type 4
0594  10                 string size (16)
0595  5365744162696C69+  "SetAbili"
059D  7479537461747300   "tyStats\0"
                         const [33]: "SetAbilityStats"
05A5  01                 const type 3
05A6  B4F4446A           const [34]: (1782903988)
05AA  04                 const type 4
05AB  10                 string size (16)
05AC  4765744162696C69+  "GetAbili"
05B4  7479537461747300   "tyStats\0"
                         const [35]: "GetAbilityStats"
05BC  01                 const type 3
05BD  B2E5C586           const [36]: (-2033850958)
05C1  04                 const type 4
05C2  14                 string size (20)
05C3  57616974466F7241+  "WaitForA"
05CB  62696C6974795374+  "bilitySt"
05D3  61747300           "ats\0"
                         const [37]: "WaitForAbilityStats"
05D7  01                 const type 3
05D8  8B55545C           const [38]: (1549030795)
05DC  04                 const type 4
05DD  12                 string size (18)
05DE  436C656172416269+  "ClearAbi"
05E6  6C69747953746174+  "lityStat"
05EE  7300               "s\0"
                         const [39]: "ClearAbilityStats"
05F0  01                 const type 3
05F1  C2C36DC1           const [40]: (-1049771070)
05F5  04                 const type 4
05F6  1B                 string size (27)
05F7  4765744172636877+  "GetArchw"
05FF  696E675363616C65+  "ingScale"
0607  4D756C7469706C69+  "Multipli"
060F  657200             "er\0"
                         const [41]: "GetArchwingScaleMultiplier"
0612  01                 const type 3
0613  C95B99D1           const [42]: (-778478647)
0617  04                 const type 4
0618  1B                 string size (27)
0619  4765744172636877+  "GetArchw"
0621  696E6752616E6765+  "ingRange"
0629  4D756C7469706C69+  "Multipli"
0631  657200             "er\0"
                         const [43]: "GetArchwingRangeMultiplier"
0634  01                 const type 3
0635  F02DA497           const [44]: (-1750848016)
0639  04                 const type 4
063A  1C                 string size (28)
063B  4765744172636877+  "GetArchw"
0643  696E67554952616E+  "ingUIRan"
064B  67654D756C746970+  "geMultip"
0653  6C657200           "ler\0"
                         const [45]: "GetArchwingUIRangeMultipler"
0657  01                 const type 3
0658  CB7A17F9           const [46]: (-115901749)
065C  04                 const type 4
065D  12                 string size (18)
065E  50726576656E7445+  "PreventE"
0666  6E65726779476169+  "nergyGai"
066E  6E00               "n\0"
                         const [47]: "PreventEnergyGain"
0670  01                 const type 3
0671  3ED99FDE           const [48]: (-559949506)
0675  04                 const type 4
0676  14                 string size (20)
0677  456E657267794761+  "EnergyGa"
067F  696E50726576656E+  "inPreven"
0687  74656400           "ted\0"
                         const [49]: "EnergyGainPrevented"
068B  01                 const type 3
068C  220B1B41           const [50]: (1092291362)
0690  04                 const type 4
0691  0B                 string size (11)
0692  4361737454726169+  "CastTrai"
069A  6C7300             "ls\0"
                         const [51]: "CastTrails"
069D  01                 const type 3
069E  1397260A           const [52]: (170301203)
06A2  04                 const type 4
06A3  10                 string size (16)
06A4  44697361626C6550+  "DisableP"
06AC  6173736976657300   "assives\0"
                         const [53]: "DisablePassives"
06B4  01                 const type 3
06B5  56F5803B           const [54]: (998307158)
06B9  04                 const type 4
06BA  0B                 string size (11)
06BB  426C6F636B50726F+  "BlockPro"
06C3  637300             "cs\0"
                         const [55]: "BlockProcs"
06C6  01                 const type 3
06C7  9392B955           const [56]: (1438225043)
06CB  04                 const type 4
06CC  13                 string size (19)
06CD  456E61626C655368+  "EnableSh"
06D5  69656C6447617469+  "ieldGati"
06DD  6E6700             "ng\0"
                         const [57]: "EnableShieldGating"
06E0  01                 const type 3
06E1  5EF857BA           const [58]: (-1168639906)
06E5  04                 const type 4
06E6  14                 string size (20)
06E7  44697361626C6553+  "DisableS"
06EF  6869656C64476174+  "hieldGat"
06F7  696E6700           "ing\0"
                         const [59]: "DisableShieldGating"
06FB  01                 const type 3
06FC  D5F60655           const [60]: (1426519765)
0700  04                 const type 4
0701  13                 string size (19)
0702  476574556E697175+  "GetUniqu"
070A  654162696C697479+  "eAbility"
0712  496400             "Id\0"
                         const [61]: "GetUniqueAbilityId"
0715  01                 const type 3
0716  05D16911           const [62]: (292147461)
071A  04                 const type 4
071B  10                 string size (16)
071C  4149446972547261+  "AIDirTra"
0724  636B4167656E7400   "ckAgent\0"
                         const [63]: "AIDirTrackAgent"
072C  01                 const type 3
072D  85D95D93           const [64]: (-1822566011)
0731  04                 const type 4
0732  0D                 string size (13)
0733  536C616D546F4772+  "SlamToGr"
073B  6F756E6400         "ound\0"
                         const [65]: "SlamToGround"
0740  01                 const type 3
0741  70130E3E           const [66]: (1041109872)
0745  04                 const type 4
0746  11                 string size (17)
0747  53746F70536C616D+  "StopSlam"
074F  546F47726F756E64+  "ToGround"
0757  00                 "\0"
                         const [67]: "StopSlamToGround"
0758  01                 const type 3
0759  2D9E8082           const [68]: (-2105500115)
075D  04                 const type 4
075E  11                 string size (17)
075F  446F456C656D656E+  "DoElemen"
0767  744175676D656E74+  "tAugment"
076F  00                 "\0"
                         const [69]: "DoElementAugment"
0770  01                 const type 3
0771  F909688F           const [70]: (-1889007111)
0775  04                 const type 4
0776  16                 string size (22)
0777  436C656172436F6F+  "ClearCoo"
077F  6C646F776E4F6E44+  "ldownOnD"
0787  616D61676500       "amage\0"
                         const [71]: "ClearCooldownOnDamage"
078D  01                 const type 3
078E  19B95F76           const [72]: (1985984793)
0792  04                 const type 4
0793  10                 string size (16)
0794  4163746976617465+  "Activate"
079C  4578616C74656400   "Exalted\0"
                         const [73]: "ActivateExalted"
07A4  01                 const type 3
07A5  7EB1E17B           const [74]: (2078388606)
07A9  04                 const type 4
07AA  12                 string size (18)
07AB  4465616374697661+  "Deactiva"
07B3  74654578616C7465+  "teExalte"
07BB  6400               "d\0"
                         const [75]: "DeactivateExalted"
07BD  01                 const type 3
07BE  C7C88F5A           const [76]: (1519372487)
07C2  04                 const type 4
07C3  0B                 string size (11)
07C4  4769766557656170+  "GiveWeap"
07CC  6F6E00             "on\0"
                         const [77]: "GiveWeapon"
07CF  01                 const type 3
07D0  40BE39AB           const [78]: (-1422279104)
07D4  04                 const type 4
07D5  0D                 string size (13)
07D6  52656D6F76655765+  "RemoveWe"
07DE  61706F6E00         "apon\0"
                         const [79]: "RemoveWeapon"
07E3  01                 const type 3
07E4  96E16FDA           const [80]: (-630201962)
07E8  04                 const type 4
07E9  11                 string size (17)
07EA  557067726164654D+  "UpgradeM"
07F2  656C656554726565+  "eleeTree"
07FA  00                 "\0"
                         const [81]: "UpgradeMeleeTree"
07FB  01                 const type 3
07FC  5E1C915D           const [82]: (1569791070)
0800  04                 const type 4
0801  10                 string size (16)
0802  5265766572744669+  "RevertFi"
080A  6E69736865727300   "nishers\0"
                         const [83]: "RevertFinishers"
0812  01                 const type 3
0813  72DCB10D           const [84]: (229760114)
0817  04                 const type 4
0818  1A                 string size (26)
0819  52656D6F76655765+  "RemoveWe"
0821  61706F6E506F7374+  "aponPost"
0829  4D6967726174696F+  "Migratio"
0831  6E00               "n\0"
                         const [85]: "RemoveWeaponPostMigration"
0833  01                 const type 3
0834  4C0F35B4           const [86]: (-1271591092)
0838  04                 const type 4
0839  16                 string size (22)
083A  496E697469616C69+  "Initiali"
0842  7A65456E65726779+  "zeEnergy"
084A  436F6C6F7200       "Color\0"
                         const [87]: "InitializeEnergyColor"
0850  01                 const type 3
0851  71F1041A           const [88]: (436531569)
                         * functions:
0855  2D                 sizep (45)
                         
0856                     ** function [0] definition (level 2)
                         ** start of function **
0856  00                 string size (0)
                         source name: (none)
0857  0F                 line defined (15)
0858  50                 last line defined (80)
0859  04                 nups (4)
085A  02                 numparams (2)
085B  00                 is_vararg (0)
085C  1A                 maxstacksize (26)
                         * code:
085E  01                 sizecode (180)
085F  A4004000           [001] self       2   0   256  ; 366271214
0863  1D410000           [002] getglobal  4   1        ; gEntityType
0867  A2808001           [003] call       2   3   2  
086B  CB000000           [004] newtable   3   0   0    ; array=0, hash=0
086F  19810000           [005] loadk      4   2        ; 0
0873  4A010001           [006] len        5   2      
0877  99810000           [007] loadk      6   2        ; 0
087B  10C10080           [008] forprep    4   4        ; to [13]
087F  0EC20101           [009] gettable   8   2   7  
0883  24C24004           [010] self       8   8   259  ; -1944400657
0887  22820001           [011] call       8   2   2  
088B  CC008203           [012] settable   3   7   8  
088F  1481FE7F           [013] forloop    4   -5       ; to [9] if loop
0893  24024100           [014] self       8   0   260  ; 115701976
0897  22420001           [015] call       8   2   1  
089B  1D420100           [016] getglobal  8   5        ; 738251817
089F  59820100           [017] loadk      9   6        ; "/Lotus/Types/Game/LotusWeaponAttachments/ArrowWeaponAttachment"
08A3  22820001           [018] call       8   2   2  
08A7  5DC20100           [019] getglobal  9   7        ; -332969190
08AB  99020200           [020] loadk      10  8        ; "ManageVisibilityOnEquipmentChange"
08AF  62820001           [021] call       9   2   2  
08B3  99820000           [022] loadk      10  2        ; 0
08B7  CA020001           [023] len        11  2      
08BB  19830000           [024] loadk      12  2        ; 0
08BF  90022680           [025] forprep    10  153      ; to [179]
08C3  8E430301           [026] gettable   14  2   13 
08C7  E4434207           [027] self       15  14  265  ; -1298130151
08CB  E2830001           [028] call       15  2   2  
08CF  1D840200           [029] getglobal  16  10       ; 1074689893
08D3  52048007           [030] move       17  15     
08D7  22840001           [031] call       16  2   2  
08DB  18440000           [032] test       16      1    ; to [34] if false
08DF  1A002480           [033] jmp        145          ; to [179]
08E3  24C44207           [034] self       16  14  267  ; -1957065004
08E7  9D040300           [035] getglobal  18  12       ; gWeaponAttachmentType
08EB  22848001           [036] call       16  3   2  
08EF  57040000           [037] loadbool   17  0   0    ; false
08F3  18440000           [038] test       16      1    ; to [40] if false
08F7  1A800280           [039] jmp        11           ; to [51]
08FB  A4444307           [040] self       18  14  269  ; -1870903749
08FF  A2840001           [041] call       18  2   2  
0903  98040000           [042] test       18      0    ; to [44] if true
0907  1A400780           [043] jmp        30           ; to [74]
090B  A4444307           [044] self       18  14  269  ; -1870903749
090F  A2840001           [045] call       18  2   2  
0913  A4C44209           [046] self       18  18  267  ; -1957065004
0917  1D050300           [047] getglobal  20  12       ; gWeaponAttachmentType
091B  A2848001           [048] call       18  3   2  
091F  98040000           [049] test       18      0    ; to [51] if true
0923  1A800580           [050] jmp        23           ; to [74]
0927  86040009           [051] loadnil    18  18     
092B  18040000           [052] test       16      0    ; to [54] if true
092F  1AC00080           [053] jmp        4            ; to [58]
0933  E4844307           [054] self       19  14  270  ; 421792552
0937  E2840001           [055] call       19  2   2  
093B  92048009           [056] move       18  19     
093F  1A000180           [057] jmp        5            ; to [63]
0943  E4444307           [058] self       19  14  269  ; -1870903749
0947  E2840001           [059] call       19  2   2  
094B  E484C309           [060] self       19  19  270  ; 421792552
094F  E2840001           [061] call       19  2   2  
0953  92048009           [062] move       18  19     
0957  17048000           [063] loadbool   16  1   0    ; true
095B  DD840200           [064] getglobal  19  10       ; 1074689893
095F  12050009           [065] move       20  18     
0963  E2840001           [066] call       19  2   2  
0967  D8440000           [067] test       19      1    ; to [69] if false
096B  1A000180           [068] jmp        5            ; to [74]
096F  E4C44309           [069] self       19  18  271  ; -1249812311
0973  E2840001           [070] call       19  2   2  
0977  D8040000           [071] test       19      0    ; to [73] if true
097B  1A000080           [072] jmp        1            ; to [74]
097F  57048000           [073] loadbool   17  1   0    ; true
0983  E4C44207           [074] self       19  14  267  ; -1957065004
0987  53050000           [075] getupval   21  0      
098B  E2848001           [076] call       19  3   2  
098F  D8440000           [077] test       19      1    ; to [79] if false
0993  1A801180           [078] jmp        71           ; to [150]
0997  E4C44207           [079] self       19  14  267  ; -1957065004
099B  53058000           [080] getupval   21  1      
099F  E2848001           [081] call       19  3   2  
09A3  D8440000           [082] test       19      1    ; to [84] if false
09A7  1A401080           [083] jmp        66           ; to [150]
09AB  E4C44207           [084] self       19  14  267  ; -1957065004
09AF  53050001           [085] getupval   21  2      
09B3  E2848001           [086] call       19  3   2  
09B7  D8440000           [087] test       19      1    ; to [89] if false
09BB  1A000F80           [088] jmp        61           ; to [150]
09BF  E4044407           [089] self       19  14  272  ; 1030473313
09C3  53058001           [090] getupval   21  3      
09C7  E2848001           [091] call       19  3   2  
09CB  D8440000           [092] test       19      1    ; to [94] if false
09CF  1AC00D80           [093] jmp        56           ; to [150]
09D3  58440000           [094] test       17      1    ; to [96] if false
09D7  1A400D80           [095] jmp        54           ; to [150]
09DB  E4444407           [096] self       19  14  273  ; -1421644046
09DF  52058000           [097] move       21  1      
09E3  9D850400           [098] getglobal  22  18       ; EMPTY_SYMBOL
09E7  E2440002           [099] call       19  4   1  
09EB  E4C44207           [100] self       19  14  267  ; -1957065004
09EF  52050004           [101] move       21  8      
09F3  E2848001           [102] call       19  3   2  
09F7  D8040000           [103] test       19      0    ; to [105] if true
09FB  1AC00880           [104] jmp        36           ; to [141]
09FF  E4C44200           [105] self       19  0   267  ; -1957065004
0A03  5DC50400           [106] getglobal  21  19       ; gLotusAvatarType
0A07  E2848001           [107] call       19  3   2  
0A0B  D8040000           [108] test       19      0    ; to [110] if true
0A0F  1AC00980           [109] jmp        40           ; to [150]
0A13  E4044500           [110] self       19  0   276  ; -1917464545
0A17  E2840001           [111] call       19  2   2  
0A1B  E444C509           [112] self       19  19  277  ; 1856017039
0A1F  5D850500           [113] getglobal  21  22       ; Engine
0A23  4EC5C50A           [114] gettable   21  21  279  ; "MAIN_HAND"
0A27  E2848001           [115] call       19  3   2  
0A2B  1D850200           [116] getglobal  20  10       ; 1074689893
0A2F  52058009           [117] move       21  19     
0A33  22850001           [118] call       20  2   2  
0A37  18450000           [119] test       20      1    ; to [121] if false
0A3B  1A000780           [120] jmp        29           ; to [150]
0A3F  24C5C209           [121] self       20  19  267  ; -1957065004
0A43  9D450100           [122] getglobal  22  5        ; 738251817
0A47  D9050600           [123] loadk      23  24       ; "/Lotus/Weapons/Tenno/Bows/LotusBow"
0A4B  A2050001           [124] call       22  2   0  
0A4F  22850000           [125] call       20  0   2  
0A53  18450000           [126] test       20      1    ; to [128] if false
0A57  1A400580           [127] jmp        22           ; to [150]
0A5B  24454607           [128] self       20  14  281  ; -1625438872
0A5F  92058000           [129] move       22  1      
0A63  22858001           [130] call       20  3   2  
0A67  5D850200           [131] getglobal  21  10       ; 1074689893
0A6B  9205000A           [132] move       22  20     
0A6F  62850001           [133] call       21  2   2  
0A73  58450000           [134] test       21      1    ; to [136] if false
0A77  1A400380           [135] jmp        14           ; to [150]
0A7B  6485460A           [136] self       21  20  282  ; 2109594123
0A7F  D7050000           [137] loadbool   23  0   0    ; false
0A83  17068000           [138] loadbool   24  1   0    ; true
0A87  62450002           [139] call       21  4   1  
0A8B  1A000280           [140] jmp        9            ; to [150]
0A8F  64C54207           [141] self       21  14  267  ; -1957065004
0A93  DDC50400           [142] getglobal  23  19       ; gLotusAvatarType
0A97  62858001           [143] call       21  3   2  
0A9B  58050000           [144] test       21      0    ; to [146] if true
0A9F  1AC00080           [145] jmp        4            ; to [150]
fail op	35
0AA3  63000007           [146] close      1  
0AA7  1A400080           [147] jmp        2            ; to [150]
0AAB  64054107           [148] self       21  14  260  ; 115701976
0AAF  62450001           [149] call       21  2   1  
0AB3  18040000           [150] test       16      0    ; to [152] if true
0AB7  1A800680           [151] jmp        27           ; to [179]
0ABB  58440000           [152] test       17      1    ; to [154] if false
0ABF  1A000680           [153] jmp        25           ; to [179]
0AC3  64454607           [154] self       21  14  281  ; -1625438872
0AC7  D2058000           [155] move       23  1      
0ACB  62858001           [156] call       21  3   2  
0ACF  58450000           [157] test       21      1    ; to [159] if false
0AD3  1A000180           [158] jmp        5            ; to [164]
0AD7  A4454407           [159] self       22  14  273  ; -1421644046
0ADB  12068000           [160] move       24  1      
0ADF  5D860400           [161] getglobal  25  18       ; EMPTY_SYMBOL
0AE3  A2850002           [162] call       22  4   2  
0AE7  5205000B           [163] move       21  22     
0AEB  58050000           [164] test       21      0    ; to [166] if true
0AEF  1A000380           [165] jmp        13           ; to [179]
0AF3  A4C5C60A           [166] self       22  21  283  ; 1413780095
0AF7  17060000           [167] loadbool   24  0   0    ; false
0AFB  A2458001           [168] call       22  3   1  
0AFF  A405C70A           [169] self       22  21  284  ; -971287385
0B03  12068004           [170] move       24  9      
0B07  A2458001           [171] call       22  3   1  
0B0B  8E458301           [172] gettable   22  3   13 
0B0F  98450000           [173] test       22      1    ; to [175] if false
0B13  1AC00080           [174] jmp        4            ; to [179]
0B17  A485C60A           [175] self       22  21  282  ; 2109594123
0B1B  17060000           [176] loadbool   24  0   0    ; false
0B1F  57068000           [177] loadbool   25  1   0    ; true
0B23  A2450002           [178] call       22  4   1  
0B27  9442D97F           [179] forloop    10  -154     ; to [26] if loop
0B2B  1E008000           [180] return     0   1      
                         * constants:
0B2F  1D                 sizek (29)
0B30  01                 const type 3
0B31  EEDAD415           const [0]: (366271214)
0B35  04                 const type 4
0B36  0C                 string size (12)
0B37  67456E7469747954+  "gEntityT"
0B3F  79706500           "ype\0"
                         const [1]: "gEntityType"
0B43  03                 const type 3
0B44  0000803F           const [2]: (0)
0B48  01                 const type 3
0B49  EFCC1A8C           const [3]: (-1944400657)
0B4D  01                 const type 3
0B4E  D878E506           const [4]: (115701976)
0B52  01                 const type 3
0B53  29D4002C           const [5]: (738251817)
0B57  04                 const type 4
0B58  3F                 string size (63)
0B59  2F4C6F7475732F54+  "/Lotus/T"
0B61  797065732F47616D+  "ypes/Gam"
0B69  652F4C6F74757357+  "e/LotusW"
0B71  6561706F6E417474+  "eaponAtt"
0B79  6163686D656E7473+  "achments"
0B81  2F4172726F775765+  "/ArrowWe"
0B89  61706F6E41747461+  "aponAtta"
0B91  63686D656E7400     "chment\0"
                         const [6]: "/Lotus/Types/Game/LotusWeaponAttachments/ArrowWeaponAttachment"
0B98  01                 const type 3
0B99  1A4B27EC           const [7]: (-332969190)
0B9D  04                 const type 4
0B9E  22                 string size (34)
0B9F  4D616E6167655669+  "ManageVi"
0BA7  736962696C697479+  "sibility"
0BAF  4F6E45717569706D+  "OnEquipm"
0BB7  656E744368616E67+  "entChang"
0BBF  6500               "e\0"
                         const [8]: "ManageVisibilityOnEquipmentChange"
0BC1  01                 const type 3
0BC2  191BA0B2           const [9]: (-1298130151)
0BC6  01                 const type 3
0BC7  65770E40           const [10]: (1074689893)
0BCB  01                 const type 3
0BCC  D48E598B           const [11]: (-1957065004)
0BD0  04                 const type 4
0BD1  16                 string size (22)
0BD2  67576561706F6E41+  "gWeaponA"
0BDA  74746163686D656E+  "ttachmen"
0BE2  745479706500       "tType\0"
                         const [12]: "gWeaponAttachmentType"
0BE8  01                 const type 3
0BE9  3B467C90           const [13]: (-1870903749)
0BED  01                 const type 3
0BEE  280B2419           const [14]: (421792552)
0BF2  01                 const type 3
0BF3  A96081B5           const [15]: (-1249812311)
0BF7  01                 const type 3
0BF8  61C66B3D           const [16]: (1030473313)
0BFC  01                 const type 3
0BFD  F26E43AB           const [17]: (-1421644046)
0C01  04                 const type 4
0C02  0D                 string size (13)
0C03  454D5054595F5359+  "EMPTY_SY"
0C0B  4D424F4C00         "MBOL\0"
                         const [18]: "EMPTY_SYMBOL"
0C10  04                 const type 4
0C11  11                 string size (17)
0C12  674C6F7475734176+  "gLotusAv"
0C1A  6174617254797065+  "atarType"
0C22  00                 "\0"
                         const [19]: "gLotusAvatarType"
0C23  01                 const type 3
0C24  1FD0B58D           const [20]: (-1917464545)
0C28  01                 const type 3
0C29  8F92A06E           const [21]: (1856017039)
0C2D  04                 const type 4
0C2E  07                 string size (7)
0C2F  456E67696E6500     "Engine\0"
                         const [22]: "Engine"
0C36  04                 const type 4
0C37  0A                 string size (10)
0C38  4D41494E5F48414E+  "MAIN_HAN"
0C40  4400               "D\0"
                         const [23]: "MAIN_HAND"
0C42  04                 const type 4
0C43  23                 string size (35)
0C44  2F4C6F7475732F57+  "/Lotus/W"
0C4C  6561706F6E732F54+  "eapons/T"
0C54  656E6E6F2F426F77+  "enno/Bow"
0C5C  732F4C6F74757342+  "s/LotusB"
0C64  6F7700             "ow\0"
                         const [24]: "/Lotus/Weapons/Tenno/Bows/LotusBow"
0C67  01                 const type 3
0C68  68C51D9F           const [25]: (-1625438872)
0C6C  01                 const type 3
0C6D  0BDABD7D           const [26]: (2109594123)
0C71  01                 const type 3
0C72  7F924454           const [27]: (1413780095)
0C76  01                 const type 3
0C77  A7541BC6           const [28]: (-971287385)
                         * functions:
0C7B  00                 sizep (0)
                         * lines:
0C7D  01                 sizelineinfo (180)
                         [pc] (line)
0C7E  11                 [001] (17)
0C7F  00                 [002] (17)
0C80  00                 [003] (17)
0C81  00                 [004] (18)
0C82  11                 [005] (19)
0C83  00                 [006] (19)
0C84  00                 [007] (19)
0C85  00                 [008] (19)
0C86  11                 [009] (20)
0C87  00                 [010] (20)
0C88  00                 [011] (20)
0C89  00                 [012] (20)
0C8A  12                 [013] (19)
0C8B  00                 [014] (23)
0C8C  00                 [015] (23)
0C8D  00                 [016] (25)
0C8E  13                 [017] (25)
0C8F  00                 [018] (25)
0C90  00                 [019] (26)
0C91  00                 [020] (26)
0C92  13                 [021] (26)
0C93  00                 [022] (28)
0C94  00                 [023] (28)
0C95  00                 [024] (28)
0C96  13                 [025] (28)
0C97  00                 [026] (29)
0C98  00                 [027] (30)
0C99  00                 [028] (30)
0C9A  13                 [029] (31)
0C9B  00                 [030] (31)
0C9C  00                 [031] (31)
0C9D  00                 [032] (31)
0C9E  14                 [033] (31)
0C9F  00                 [034] (32)
0CA0  00                 [035] (32)
0CA1  00                 [036] (32)
0CA2  14                 [037] (33)
0CA3  00                 [038] (34)
0CA4  00                 [039] (34)
0CA5  00                 [040] (34)
0CA6  14                 [041] (34)
0CA7  00                 [042] (34)
0CA8  00                 [043] (34)
0CA9  00                 [044] (34)
0CAA  14                 [045] (34)
0CAB  00                 [046] (34)
0CAC  00                 [047] (34)
0CAD  00                 [048] (34)
0CAE  13                 [049] (34)
0CAF  00                 [050] (34)
0CB0  00                 [051] (35)
0CB1  00                 [052] (36)
0CB2  17                 [053] (36)
0CB3  00                 [054] (37)
0CB4  00                 [055] (37)
0CB5  00                 [056] (37)
0CB6  17                 [057] (37)
0CB7  00                 [058] (39)
0CB8  00                 [059] (39)
0CB9  00                 [060] (39)
0CBA  19                 [061] (39)
0CBB  00                 [062] (39)
0CBC  00                 [063] (41)
0CBD  00                 [064] (43)
0CBE  19                 [065] (43)
0CBF  00                 [066] (43)
0CC0  00                 [067] (43)
0CC1  00                 [068] (43)
0CC2  19                 [069] (43)
0CC3  00                 [070] (43)
0CC4  00                 [071] (43)
0CC5  00                 [072] (43)
0CC6  1A                 [073] (44)
0CC7  00                 [074] (47)
0CC8  00                 [075] (47)
0CC9  00                 [076] (47)
0CCA  1A                 [077] (47)
0CCB  00                 [078] (47)
0CCC  00                 [079] (47)
0CCD  00                 [080] (47)
0CCE  1A                 [081] (47)
0CCF  00                 [082] (47)
0CD0  00                 [083] (47)
0CD1  00                 [084] (47)
0CD2  1C                 [085] (47)
0CD3  00                 [086] (47)
0CD4  00                 [087] (47)
0CD5  00                 [088] (47)
0CD6  1C                 [089] (47)
0CD7  00                 [090] (47)
0CD8  00                 [091] (47)
0CD9  00                 [092] (47)
0CDA  1C                 [093] (47)
0CDB  00                 [094] (47)
0CDC  00                 [095] (47)
0CDD  00                 [096] (48)
0CDE  1C                 [097] (48)
0CDF  00                 [098] (48)
0CE0  00                 [099] (48)
0CE1  00                 [100] (49)
0CE2  1D                 [101] (49)
0CE3  00                 [102] (49)
0CE4  00                 [103] (49)
0CE5  00                 [104] (49)
0CE6  1E                 [105] (50)
0CE7  00                 [106] (50)
0CE8  00                 [107] (50)
0CE9  00                 [108] (50)
0CEA  1E                 [109] (50)
0CEB  00                 [110] (51)
0CEC  00                 [111] (51)
0CED  00                 [112] (51)
0CEE  1F                 [113] (51)
0CEF  00                 [114] (51)
0CF0  00                 [115] (51)
0CF1  00                 [116] (52)
0CF2  1F                 [117] (52)
0CF3  00                 [118] (52)
0CF4  00                 [119] (52)
0CF5  00                 [120] (52)
0CF6  1F                 [121] (52)
0CF7  00                 [122] (52)
0CF8  00                 [123] (52)
0CF9  00                 [124] (52)
0CFA  1F                 [125] (52)
0CFB  00                 [126] (52)
0CFC  00                 [127] (52)
0CFD  00                 [128] (53)
0CFE  1F                 [129] (53)
0CFF  00                 [130] (53)
0D00  00                 [131] (54)
0D01  00                 [132] (54)
0D02  20                 [133] (54)
0D03  00                 [134] (54)
0D04  00                 [135] (54)
0D05  00                 [136] (55)
0D06  20                 [137] (55)
0D07  00                 [138] (55)
0D08  00                 [139] (55)
0D09  00                 [140] (58)
0D0A  20                 [141] (59)
0D0B  00                 [142] (59)
0D0C  00                 [143] (59)
0D0D  00                 [144] (59)
0D0E  21                 [145] (59)
0D0F  00                 [146] (59)
0D10  00                 [147] (59)
0D11  00                 [148] (60)
0D12  22                 [149] (60)
0D13  00                 [150] (64)
0D14  00                 [151] (64)
0D15  00                 [152] (64)
0D16  22                 [153] (64)
0D17  00                 [154] (65)
0D18  00                 [155] (65)
0D19  00                 [156] (65)
0D1A  22                 [157] (66)
0D1B  00                 [158] (66)
0D1C  00                 [159] (67)
0D1D  00                 [160] (67)
0D1E  22                 [161] (67)
0D1F  00                 [162] (67)
0D20  00                 [163] (67)
0D21  00                 [164] (69)
0D22  22                 [165] (69)
0D23  00                 [166] (70)
0D24  00                 [167] (70)
0D25  00                 [168] (70)
0D26  22                 [169] (72)
0D27  00                 [170] (72)
0D28  00                 [171] (72)
0D29  00                 [172] (73)
0D2A  22                 [173] (73)
0D2B  00                 [174] (73)
0D2C  00                 [175] (74)
0D2D  00                 [176] (74)
0D2E  22                 [177] (74)
0D2F  00                 [178] (74)
0D30  00                 [179] (28)
0D31  00                 [180] (80)
                         * locals:
0F4E  00                 sizelocvars (0)
                         * upvalues:
0F4F  00                 sizeupvalues (0)
                         ** end of function **

                         
0F50                     ** function [1] definition (level 2)
                         ** start of function **
0F50  00                 string size (0)
                         source name: (none)
0F51  52                 line defined (82)
0F52  54                 last line defined (84)
0F53  01                 nups (1)
0F54  02                 numparams (2)
0F55  00                 is_vararg (0)
0F56  05                 maxstacksize (5)
                         * code:
0F57  05                 sizecode (5)
0F58  93000000           [1] getupval   2   0      
0F5C  D2000000           [2] move       3   0      
0F60  12018000           [3] move       4   1      
0F64  A2408001           [4] call       2   3   1  
0F68  1E008000           [5] return     0   1      
                         * constants:
0F6C  00                 sizek (0)
                         * functions:
0F6D  00                 sizep (0)
                         * lines:
0F6E  05                 sizelineinfo (5)
                         [pc] (line)
0F6F  53                 [1] (83)
0F70  00                 [2] (83)
0F71  00                 [3] (83)
0F72  00                 [4] (83)
0F73  53                 [5] (84)
                         * locals:
0F83  00                 sizelocvars (0)
                         * upvalues:
0F84  00                 sizeupvalues (0)
                         ** end of function **

                         
0F85                     ** function [2] definition (level 2)
                         ** start of function **
0F85  00                 string size (0)
                         source name: (none)
0F86  56                 line defined (86)
0F87  70                 last line defined (112)
0F88  04                 nups (4)
0F89  02                 numparams (2)
0F8A  00                 is_vararg (0)
0F8B  0F                 maxstacksize (15)
                         * code:
0F8C  49                 sizecode (73)
0F8D  A4004000           [01] self       2   0   256  ; -1957065004
0F91  1D410000           [02] getglobal  4   1        ; gLotusAvatarType
0F95  A2808001           [03] call       2   3   2  
0F99  E4804000           [04] self       3   0   258  ; 366271214
0F9D  5DC10000           [05] getglobal  5   3        ; gEntityType
0FA1  E2808001           [06] call       3   3   2  
0FA5  19010100           [07] loadk      4   4        ; 0
0FA9  4A018001           [08] len        5   3      
0FAD  99010100           [09] loadk      6   4        ; 0
0FB1  10010E80           [10] forprep    4   57       ; to [68]
0FB5  0EC28101           [11] gettable   8   3   7  
0FB9  64424104           [12] self       9   8   261  ; -1298130151
0FBD  62820001           [13] call       9   2   2  
0FC1  9D820100           [14] getglobal  10  6        ; 1074689893
0FC5  D2028004           [15] move       11  9      
0FC9  A2820001           [16] call       10  2   2  
0FCD  98420000           [17] test       10      1    ; to [19] if false
0FD1  1A000C80           [18] jmp        49           ; to [68]
0FD5  A4024004           [19] self       10  8   256  ; -1957065004
0FD9  13030000           [20] getupval   12  0      
0FDD  A2828001           [21] call       10  3   2  
0FE1  98420000           [22] test       10      1    ; to [24] if false
0FE5  1AC00A80           [23] jmp        44           ; to [68]
0FE9  A4024004           [24] self       10  8   256  ; -1957065004
0FED  13038000           [25] getupval   12  1      
0FF1  A2828001           [26] call       10  3   2  
0FF5  98420000           [27] test       10      1    ; to [29] if false
0FF9  1A800980           [28] jmp        39           ; to [68]
0FFD  A4024004           [29] self       10  8   256  ; -1957065004
1001  13030001           [30] getupval   12  2      
1005  A2828001           [31] call       10  3   2  
1009  98420000           [32] test       10      1    ; to [34] if false
100D  1A400880           [33] jmp        34           ; to [68]
1011  A4C24104           [34] self       10  8   263  ; 1030473313
1015  13038001           [35] getupval   12  3      
1019  A2828001           [36] call       10  3   2  
101D  98420000           [37] test       10      1    ; to [39] if false
1021  1A000780           [38] jmp        29           ; to [68]
1025  A4024204           [39] self       10  8   264  ; -1625438872
1029  12038000           [40] move       12  1      
102D  A2828001           [41] call       10  3   2  
1031  DD820100           [42] getglobal  11  6        ; 1074689893
1035  12030005           [43] move       12  10     
1039  E2820001           [44] call       11  2   2  
103D  D8420000           [45] test       11      1    ; to [47] if false
1041  1AC00280           [46] jmp        12           ; to [59]
1045  98400000           [47] test       2       1    ; to [49] if false
1049  1AC00180           [48] jmp        8            ; to [57]
104D  E4424205           [49] self       11  10  265  ; -1944400657
1051  E2820001           [50] call       11  2   2  
1055  D8420000           [51] test       11      1    ; to [53] if false
1059  1AC00080           [52] jmp        4            ; to [57]
105D  E4824204           [53] self       11  8   266  ; 2109594123
1061  57030000           [54] loadbool   13  0   0    ; false
1065  97038000           [55] loadbool   14  1   0    ; true
1069  E2420002           [56] call       11  4   1  
106D  E4C24205           [57] self       11  10  267  ; -725453761
1071  E2420001           [58] call       11  2   1  
1075  E4024004           [59] self       11  8   256  ; -1957065004
1079  5D430000           [60] getglobal  13  1        ; gLotusAvatarType
107D  E2828001           [61] call       11  3   2  
1081  D8020000           [62] test       11      0    ; to [64] if true
1085  1AC00080           [63] jmp        4            ; to [68]
fail op	35
1089  63000004           [64] close      1  
108D  1A400080           [65] jmp        2            ; to [68]
1091  E4024304           [66] self       11  8   268  ; -832323870
1095  E2420001           [67] call       11  2   1  
1099  1441F17F           [68] forloop    4   -58      ; to [11] if loop
109D  98000000           [69] test       2       0    ; to [71] if true
10A1  1A400080           [70] jmp        2            ; to [73]
10A5  E4024300           [71] self       11  0   268  ; -832323870
10A9  E2420001           [72] call       11  2   1  
10AD  1E008000           [73] return     0   1      
                         * constants:
10B1  0D                 sizek (13)
10B2  01                 const type 3
10B3  D48E598B           const [0]: (-1957065004)
10B7  04                 const type 4
10B8  11                 string size (17)
10B9  674C6F7475734176+  "gLotusAv"
10C1  6174617254797065+  "atarType"
10C9  00                 "\0"
                         const [1]: "gLotusAvatarType"
10CA  01                 const type 3
10CB  EEDAD415           const [2]: (366271214)
10CF  04                 const type 4
10D0  0C                 string size (12)
10D1  67456E7469747954+  "gEntityT"
10D9  79706500           "ype\0"
                         const [3]: "gEntityType"
10DD  03                 const type 3
10DE  0000803F           const [4]: (0)
10E2  01                 const type 3
10E3  191BA0B2           const [5]: (-1298130151)
10E7  01                 const type 3
10E8  65770E40           const [6]: (1074689893)
10EC  01                 const type 3
10ED  61C66B3D           const [7]: (1030473313)
10F1  01                 const type 3
10F2  68C51D9F           const [8]: (-1625438872)
10F6  01                 const type 3
10F7  EFCC1A8C           const [9]: (-1944400657)
10FB  01                 const type 3
10FC  0BDABD7D           const [10]: (2109594123)
1100  01                 const type 3
1101  3F74C2D4           const [11]: (-725453761)
1105  01                 const type 3
1106  E2BE63CE           const [12]: (-832323870)
                         * functions:
110A  00                 sizep (0)
                         * lines:
110B  49                 sizelineinfo (73)
                         [pc] (line)
110C  57                 [01] (87)
110D  00                 [02] (87)
110E  00                 [03] (87)
110F  00                 [04] (88)
1110  57                 [05] (88)
1111  00                 [06] (88)
1112  00                 [07] (89)
1113  00                 [08] (89)
1114  57                 [09] (89)
1115  00                 [10] (89)
1116  00                 [11] (90)
1117  00                 [12] (91)
1118  58                 [13] (91)
1119  00                 [14] (92)
111A  00                 [15] (92)
111B  00                 [16] (92)
111C  58                 [17] (92)
111D  00                 [18] (92)
111E  00                 [19] (93)
111F  00                 [20] (93)
1120  58                 [21] (93)
1121  00                 [22] (93)
1122  00                 [23] (93)
1123  00                 [24] (93)
1124  59                 [25] (93)
1125  00                 [26] (93)
1126  00                 [27] (93)
1127  00                 [28] (93)
1128  59                 [29] (93)
1129  00                 [30] (93)
112A  00                 [31] (93)
112B  00                 [32] (93)
112C  59                 [33] (93)
112D  00                 [34] (93)
112E  00                 [35] (93)
112F  00                 [36] (93)
1130  59                 [37] (93)
1131  00                 [38] (93)
1132  00                 [39] (94)
1133  00                 [40] (94)
1134  5A                 [41] (94)
1135  00                 [42] (95)
1136  00                 [43] (95)
1137  00                 [44] (95)
1138  5B                 [45] (95)
1139  00                 [46] (95)
113A  00                 [47] (96)
113B  00                 [48] (96)
113C  5B                 [49] (96)
113D  00                 [50] (96)
113E  00                 [51] (96)
113F  00                 [52] (96)
1140  5C                 [53] (97)
1141  00                 [54] (97)
1142  00                 [55] (97)
1143  00                 [56] (97)
1144  5C                 [57] (99)
1145  00                 [58] (99)
1146  00                 [59] (102)
1147  00                 [60] (102)
1148  5C                 [61] (102)
1149  00                 [62] (102)
114A  00                 [63] (102)
114B  00                 [64] (102)
114C  5C                 [65] (102)
114D  00                 [66] (103)
114E  00                 [67] (103)
114F  00                 [68] (89)
1150  5C                 [69] (109)
1151  00                 [70] (109)
1152  00                 [71] (110)
1153  00                 [72] (110)
1154  5D                 [73] (112)
                         * locals:
1230  00                 sizelocvars (0)
                         * upvalues:
1231  00                 sizeupvalues (0)
                         ** end of function **

                         
1232                     ** function [3] definition (level 2)
                         ** start of function **
1232  00                 string size (0)
                         source name: (none)
1233  72                 line defined (114)
1234  74                 last line defined (116)
1235  01                 nups (1)
1236  02                 numparams (2)
1237  00                 is_vararg (0)
1238  05                 maxstacksize (5)
                         * code:
1239  05                 sizecode (5)
123A  93000000           [1] getupval   2   0      
123E  D2000000           [2] move       3   0      
1242  12018000           [3] move       4   1      
1246  A2408001           [4] call       2   3   1  
124A  1E008000           [5] return     0   1      
                         * constants:
124E  00                 sizek (0)
                         * functions:
124F  00                 sizep (0)
                         * lines:
1250  05                 sizelineinfo (5)
                         [pc] (line)
1251  73                 [1] (115)
1252  00                 [2] (115)
1253  00                 [3] (115)
1254  00                 [4] (115)
1255  73                 [5] (116)
                         * locals:
1265  00                 sizelocvars (0)
                         * upvalues:
1266  00                 sizeupvalues (0)
                         ** end of function **

                         
1267                     ** function [4] definition (level 2)
                         ** start of function **
1267  00                 string size (0)
                         source name: (none)
1268  76                 line defined (118)
1269  7D                 last line defined (125)
126A  01                 nups (1)
126B  03                 numparams (3)
126C  00                 is_vararg (0)
126D  07                 maxstacksize (7)
                         * code:
126E  12                 sizecode (18)
126F  D3000000           [01] getupval   3   0      
1273  12010000           [02] move       4   0      
1277  52018000           [03] move       5   1      
127B  E2408001           [04] call       3   3   1  
127F  E4004000           [05] self       3   0   256  ; -1917464545
1283  E2800001           [06] call       3   2   2  
1287  E440C001           [07] self       3   3   257  ; 819640984
128B  E2800001           [08] call       3   2   2  
128F  1D810000           [09] getglobal  4   2        ; 1074689893
1293  52018001           [10] move       5   3      
1297  22810001           [11] call       4   2   2  
129B  18410000           [12] test       4       1    ; to [14] if false
129F  1AC00080           [13] jmp        4            ; to [18]
12A3  13010000           [14] getupval   4   0      
12A7  52018001           [15] move       5   3      
12AB  92010001           [16] move       6   2      
12AF  22418001           [17] call       4   3   1  
12B3  1E008000           [18] return     0   1      
                         * constants:
12B7  03                 sizek (3)
12B8  01                 const type 3
12B9  1FD0B58D           const [0]: (-1917464545)
12BD  01                 const type 3
12BE  98BADA30           const [1]: (819640984)
12C2  01                 const type 3
12C3  65770E40           const [2]: (1074689893)
                         * functions:
12C7  00                 sizep (0)
                         * lines:
12C8  12                 sizelineinfo (18)
                         [pc] (line)
12C9  77                 [01] (119)
12CA  00                 [02] (119)
12CB  00                 [03] (119)
12CC  00                 [04] (119)
12CD  77                 [05] (121)
12CE  00                 [06] (121)
12CF  00                 [07] (121)
12D0  00                 [08] (121)
12D1  77                 [09] (122)
12D2  00                 [10] (122)
12D3  00                 [11] (122)
12D4  00                 [12] (122)
12D5  77                 [13] (122)
12D6  00                 [14] (123)
12D7  00                 [15] (123)
12D8  00                 [16] (123)
12D9  79                 [17] (123)
12DA  00                 [18] (125)
                         * locals:
1311  00                 sizelocvars (0)
                         * upvalues:
1312  00                 sizeupvalues (0)
                         ** end of function **

                         
1313                     ** function [5] definition (level 2)
                         ** start of function **
1313  00                 string size (0)
                         source name: (none)
1314  7F                 line defined (127)
1315  81                 last line defined (129)
1316  01                 nups (1)
1317  01                 numparams (2)
1318  02                 is_vararg (0)
1319  00                 maxstacksize (5)
                         * code:
131B  05                 sizecode (5)
131C  93000000           [1] getupval   2   0      
1320  D2000000           [2] move       3   0      
1324  12018000           [3] move       4   1      
1328  A2408001           [4] call       2   3   1  
132C  1E008000           [5] return     0   1      
                         * constants:
1330  00                 sizek (0)
                         * functions:
1331  00                 sizep (0)
                         * lines:
1332  05                 sizelineinfo (5)
                         [pc] (line)
1333  80                 [1] (-128)
1334  00                 [2] (-128)
1335  00                 [3] (-128)
1336  00                 [4] (-128)
1337  80                 [5] (-127)
                         * locals:
1347  00                 sizelocvars (0)
                         * upvalues:
1348  00                 sizeupvalues (0)
                         ** end of function **

                         
1349                     ** function [6] definition (level 2)
                         ** start of function **
1349  00                 string size (0)
                         source name: (none)
134B  01                 line defined (131)
134C  90                 last line defined (144)
134D  01                 nups (1)
134E  01                 numparams (3)
134F  03                 is_vararg (0)
1350  00                 maxstacksize (7)
                         * code:
1352  28                 sizecode (40)
1353  D3000000           [01] getupval   3   0      
1357  12010000           [02] move       4   0      
135B  52018000           [03] move       5   1      
135F  E2408001           [04] call       3   3   1  
1363  DD000000           [05] getglobal  3   0        ; 1074689893
1367  24414000           [06] self       4   0   257  ; -242235676
136B  22010001           [07] call       4   2   0  
136F  E2800000           [08] call       3   0   2  
1373  D8400000           [09] test       3       1    ; to [11] if false
1377  1A000180           [10] jmp        5            ; to [16]
137B  D3000000           [11] getupval   3   0      
137F  24414000           [12] self       4   0   257  ; -242235676
1383  22810001           [13] call       4   2   2  
1387  52018000           [14] move       5   1      
138B  E2408001           [15] call       3   3   1  
138F  E4804000           [16] self       3   0   258  ; -1917464545
1393  E2800001           [17] call       3   2   2  
1397  E4C0C001           [18] self       3   3   259  ; 819640984
139B  E2800001           [19] call       3   2   2  
139F  1D010000           [20] getglobal  4   0        ; 1074689893
13A3  52018001           [21] move       5   3      
13A7  22810001           [22] call       4   2   2  
13AB  18410000           [23] test       4       1    ; to [25] if false
13AF  1A800380           [24] jmp        15           ; to [40]
13B3  13010000           [25] getupval   4   0      
13B7  52018001           [26] move       5   3      
13BB  92010001           [27] move       6   2      
13BF  22418001           [28] call       4   3   1  
13C3  1D010000           [29] getglobal  4   0        ; 1074689893
13C7  6441C001           [30] self       5   3   257  ; -242235676
13CB  62010001           [31] call       5   2   0  
13CF  22810000           [32] call       4   0   2  
13D3  18410000           [33] test       4       1    ; to [35] if false
13D7  1A000180           [34] jmp        5            ; to [40]
13DB  13010000           [35] getupval   4   0      
13DF  6441C001           [36] self       5   3   257  ; -242235676
13E3  62810001           [37] call       5   2   2  
13E7  92018000           [38] move       6   1      
13EB  22418001           [39] call       4   3   1  
13EF  1E008000           [40] return     0   1      
                         * constants:
13F3  04                 sizek (4)
13F4  01                 const type 3
13F5  65770E40           const [0]: (1074689893)
13F9  01                 const type 3
13FA  E4C68FF1           const [1]: (-242235676)
13FE  01                 const type 3
13FF  1FD0B58D           const [2]: (-1917464545)
1403  01                 const type 3
1404  98BADA30           const [3]: (819640984)
                         * functions:
1408  00                 sizep (0)
                         * lines:
1409  28                 sizelineinfo (40)
                         [pc] (line)
140A  84                 [01] (-124)
140B  00                 [02] (-124)
140C  00                 [03] (-124)
140D  00                 [04] (-124)
140E  84                 [05] (-123)
140F  00                 [06] (-123)
1410  00                 [07] (-123)
1411  00                 [08] (-123)
1412  84                 [09] (-123)
1413  00                 [10] (-123)
1414  00                 [11] (-122)
1415  00                 [12] (-122)
1416  84                 [13] (-122)
1417  00                 [14] (-122)
1418  00                 [15] (-122)
1419  00                 [16] (-119)
141A  85                 [17] (-119)
141B  00                 [18] (-119)
141C  00                 [19] (-119)
141D  00                 [20] (-118)
141E  85                 [21] (-118)
141F  00                 [22] (-118)
1420  00                 [23] (-118)
1421  00                 [24] (-118)
1422  85                 [25] (-117)
1423  00                 [26] (-117)
1424  00                 [27] (-117)
1425  00                 [28] (-117)
1426  85                 [29] (-116)
1427  00                 [30] (-116)
1428  00                 [31] (-116)
1429  00                 [32] (-116)
142A  85                 [33] (-116)
142B  00                 [34] (-116)
142C  00                 [35] (-115)
142D  00                 [36] (-115)
142E  85                 [37] (-115)
142F  00                 [38] (-115)
1430  00                 [39] (-115)
1431  00                 [40] (-112)
                         * locals:
14AA  00                 sizelocvars (0)
                         * upvalues:
14AB  00                 sizeupvalues (0)
                         ** end of function **

                         
14AC                     ** function [7] definition (level 2)
                         ** start of function **
14AC  00                 string size (0)
                         source name: (none)
14AE  01                 line defined (146)
14AF  97                 last line defined (151)
14B0  01                 nups (1)
14B1  01                 numparams (2)
14B2  02                 is_vararg (0)
14B3  00                 maxstacksize (5)
                         * code:
14B5  10                 sizecode (16)
14B6  93000000           [01] getupval   2   0      
14BA  D2000000           [02] move       3   0      
14BE  12018000           [03] move       4   1      
14C2  A2408001           [04] call       2   3   1  
14C6  9D000000           [05] getglobal  2   0        ; 1074689893
14CA  E4404000           [06] self       3   0   257  ; -242235676
14CE  E2000001           [07] call       3   2   0  
14D2  A2800000           [08] call       2   0   2  
14D6  98400000           [09] test       2       1    ; to [11] if false
14DA  1A000180           [10] jmp        5            ; to [16]
14DE  93000000           [11] getupval   2   0      
14E2  E4404000           [12] self       3   0   257  ; -242235676
14E6  E2800001           [13] call       3   2   2  
14EA  12018000           [14] move       4   1      
14EE  A2408001           [15] call       2   3   1  
14F2  1E008000           [16] return     0   1      
                         * constants:
14F6  02                 sizek (2)
14F7  01                 const type 3
14F8  65770E40           const [0]: (1074689893)
14FC  01                 const type 3
14FD  E4C68FF1           const [1]: (-242235676)
                         * functions:
1501  00                 sizep (0)
                         * lines:
1502  10                 sizelineinfo (16)
                         [pc] (line)
1503  93                 [01] (-109)
1504  00                 [02] (-109)
1505  00                 [03] (-109)
1506  00                 [04] (-109)
1507  93                 [05] (-108)
1508  00                 [06] (-108)
1509  00                 [07] (-108)
150A  00                 [08] (-108)
150B  93                 [09] (-108)
150C  00                 [10] (-108)
150D  00                 [11] (-107)
150E  00                 [12] (-107)
150F  93                 [13] (-107)
1510  00                 [14] (-107)
1511  00                 [15] (-107)
1512  00                 [16] (-105)
                         * locals:
1543  00                 sizelocvars (0)
                         * upvalues:
1544  00                 sizeupvalues (0)
                         ** end of function **

                         
1545                     ** function [8] definition (level 2)
                         ** start of function **
1545  00                 string size (0)
                         source name: (none)
1547  01                 line defined (156)
1548  BA                 last line defined (186)
1549  01                 nups (1)
154A  01                 numparams (8)
154B  08                 is_vararg (0)
154C  00                 maxstacksize (18)
                         * code:
154E  4E                 sizecode (78)
154F  1D020000           [01] getglobal  8   0        ; 1074689893
1553  52020000           [02] move       9   0      
1557  22820001           [03] call       8   2   2  
155B  18020000           [04] test       8       0    ; to [6] if true
155F  1A400080           [05] jmp        2            ; to [8]
1563  19420000           [06] loadk      8   1        ; 0
1567  1E020001           [07] return     8   2      
156B  24824000           [08] self       8   0   258  ; -1538682285
156F  22820001           [09] call       8   2   2  
1573  5D020000           [10] getglobal  9   0        ; 1074689893
1577  92020004           [11] move       10  8      
157B  62820001           [12] call       9   2   2  
157F  58020000           [13] test       9       0    ; to [15] if true
1583  1A400080           [14] jmp        2            ; to [17]
1587  59420000           [15] loadk      9   1        ; 0
158B  5E020001           [16] return     9   2      
158F  53020000           [17] getupval   9   0      
1593  4EC2C004           [18] gettable   9   9   259  ; 105205593
1597  62828000           [19] call       9   1   2  
159B  58020000           [20] test       9       0    ; to [22] if true
159F  1A000080           [21] jmp        1            ; to [23]
15A3  57018000           [22] loadbool   5   1   0    ; true
15A7  64024104           [23] self       9   8   260  ; -1917464545
15AB  62820001           [24] call       9   2   2  
15AF  6442C104           [25] self       9   9   261  ; -940929887
15B3  D9820100           [26] loadk      11  6        ; 0
15B7  1DC30100           [27] getglobal  12  7        ; Game
15BB  0E034206           [28] gettable   12  12  264  ; "AVATAR_CASTING_SPEED"
15BF  64434200           [29] self       13  0   265  ; -491574171
15C3  62830001           [30] call       13  2   2  
15C7  92030000           [31] move       14  0      
15CB  62820003           [32] call       9   6   2  
15CF  93020000           [33] getupval   10  0      
15D3  8E824205           [34] gettable   10  10  266  ; 590154099
15D7  A2828000           [35] call       10  1   2  
15DB  98020000           [36] test       10      0    ; to [38] if true
15DF  1A800080           [37] jmp        3            ; to [41]
fail op	35
15E3  63C04203           [38] close      1  
15E7  1A000080           [39] jmp        1            ; to [41]
15EB  44828104           [40] mul        9   9   6  
fail op	35
15EF  63C0C203           [41] close      1  
15F3  1A800080           [42] jmp        3            ; to [46]
fail op	21
15F7  15408203           [43] concat     0   7   9  
15FB  1A000080           [44] jmp        1            ; to [46]
15FF  52028003           [45] move       9   7      
1603  A4024304           [46] self       10  8   268  ; -598977125
1607  06030006           [47] loadnil    12  12     
160B  57030000           [48] loadbool   13  0   0    ; false
160F  9D430300           [49] getglobal  14  13       ; Engine
1613  8E834307           [50] gettable   14  14  270  ; "ATMM_DEFAULT"
1617  DD430300           [51] getglobal  15  13       ; Engine
161B  CEC3C307           [52] gettable   15  15  271  ; "PRT_NONE"
161F  17040000           [53] loadbool   16  0   0    ; false
1623  57040000           [54] loadbool   17  0   0    ; false
1627  A2420004           [55] call       10  8   1  
fail op	21
162B  15408280           [56] concat     0   257 9  
162F  1AC00280           [57] jmp        12           ; to [70]
fail op	35
1633  6380C104           [58] close      1  
1637  1A400280           [59] jmp        10           ; to [70]
163B  A4024404           [60] self       10  8   272  ; -2037488534
163F  12038000           [61] move       12  1      
1643  52030001           [62] move       13  2      
1647  92038001           [63] move       14  3      
164B  D2030002           [64] move       15  4      
164F  12048002           [65] move       16  5      
1653  52048004           [66] move       17  9      
1657  87020004           [67] tailcall   10  8   0  
165B  9E020000           [68] return     10  0      
165F  1AC00180           [69] jmp        8            ; to [78]
1663  A4024404           [70] self       10  8   272  ; -2037488534
1667  12038000           [71] move       12  1      
166B  52030001           [72] move       13  2      
166F  92038001           [73] move       14  3      
1673  D2030002           [74] move       15  4      
1677  12048002           [75] move       16  5      
167B  87028003           [76] tailcall   10  7   0  
167F  9E020000           [77] return     10  0      
1683  1E008000           [78] return     0   1      
                         * constants:
1687  11                 sizek (17)
1688  01                 const type 3
1689  65770E40           const [0]: (1074689893)
168D  03                 const type 3
168E  00000000           const [1]: (0)
1692  01                 const type 3
1693  539249A4           const [2]: (-1538682285)
1697  01                 const type 3
1698  594F4506           const [3]: (105205593)
169C  01                 const type 3
169D  1FD0B58D           const [4]: (-1917464545)
16A1  01                 const type 3
16A2  A18CEAC7           const [5]: (-940929887)
16A6  03                 const type 3
16A7  0000803F           const [6]: (0)
16AB  04                 const type 4
16AC  05                 string size (5)
16AD  47616D6500         "Game\0"
                         const [7]: "Game"
16B2  04                 const type 4
16B3  15                 string size (21)
16B4  4156415441525F43+  "AVATAR_C"
16BC  415354494E475F53+  "ASTING_S"
16C4  5045454400         "PEED\0"
                         const [8]: "AVATAR_CASTING_SPEED"
16C9  01                 const type 3
16CA  652CB3E2           const [9]: (-491574171)
16CE  01                 const type 3
16CF  73092D23           const [10]: (590154099)
16D3  00                 const type 0
                         const [11]: nil
16D4  01                 const type 3
16D5  9B554CDC           const [12]: (-598977125)
16D9  04                 const type 4
16DA  07                 string size (7)
16DB  456E67696E6500     "Engine\0"
                         const [13]: "Engine"
16E2  04                 const type 4
16E3  0D                 string size (13)
16E4  41544D4D5F444546+  "ATMM_DEF"
16EC  41554C5400         "AULT\0"
                         const [14]: "ATMM_DEFAULT"
16F1  04                 const type 4
16F2  09                 string size (9)
16F3  5052545F4E4F4E45+  "PRT_NONE"
16FB  00                 "\0"
                         const [15]: "PRT_NONE"
16FC  01                 const type 3
16FD  6A648E86           const [16]: (-2037488534)
                         * functions:
1701  00                 sizep (0)
                         * lines:
1702  4E                 sizelineinfo (78)
                         [pc] (line)
1703  9D                 [01] (-99)
1704  00                 [02] (-99)
1705  00                 [03] (-99)
1706  00                 [04] (-99)
1707  9D                 [05] (-99)
1708  00                 [06] (-98)
1709  00                 [07] (-98)
170A  00                 [08] (-95)
170B  9D                 [09] (-95)
170C  00                 [10] (-94)
170D  00                 [11] (-94)
170E  00                 [12] (-94)
170F  9D                 [13] (-94)
1710  00                 [14] (-94)
1711  00                 [15] (-93)
1712  00                 [16] (-93)
1713  9D                 [17] (-90)
1714  00                 [18] (-90)
1715  00                 [19] (-90)
1716  00                 [20] (-90)
1717  9E                 [21] (-90)
1718  00                 [22] (-89)
1719  00                 [23] (-86)
171A  00                 [24] (-86)
171B  9E                 [25] (-86)
171C  00                 [26] (-86)
171D  00                 [27] (-86)
171E  00                 [28] (-86)
171F  A1                 [29] (-86)
1720  00                 [30] (-86)
1721  00                 [31] (-86)
1722  00                 [32] (-86)
1723  A1                 [33] (-85)
1724  00                 [34] (-85)
1725  00                 [35] (-85)
1726  00                 [36] (-85)
1727  A2                 [37] (-85)
1728  00                 [38] (-85)
1729  00                 [39] (-85)
172A  00                 [40] (-84)
172B  A2                 [41] (-81)
172C  00                 [42] (-81)
172D  00                 [43] (-81)
172E  00                 [44] (-81)
172F  A2                 [45] (-80)
1730  00                 [46] (-77)
1731  00                 [47] (-77)
1732  00                 [48] (-77)
1733  A2                 [49] (-77)
1734  00                 [50] (-77)
1735  00                 [51] (-77)
1736  00                 [52] (-77)
1737  A2                 [53] (-77)
1738  00                 [54] (-77)
1739  00                 [55] (-77)
173A  00                 [56] (-75)
173B  A3                 [57] (-75)
173C  00                 [58] (-75)
173D  00                 [59] (-75)
173E  00                 [60] (-74)
173F  A3                 [61] (-74)
1740  00                 [62] (-74)
1741  00                 [63] (-74)
1742  00                 [64] (-74)
1743  A6                 [65] (-74)
1744  00                 [66] (-74)
1745  00                 [67] (-74)
1746  00                 [68] (-74)
1747  A6                 [69] (-74)
1748  00                 [70] (-72)
1749  00                 [71] (-72)
174A  00                 [72] (-72)
174B  A6                 [73] (-72)
174C  00                 [74] (-72)
174D  00                 [75] (-72)
174E  00                 [76] (-72)
174F  A6                 [77] (-72)
1750  00                 [78] (-70)
                         * locals:
183B  00                 sizelocvars (0)
                         * upvalues:
183C  00                 sizeupvalues (0)
                         ** end of function **

                         
183D                     ** function [9] definition (level 2)
                         ** start of function **
183D  00                 string size (0)
                         source name: (none)
183F  01                 line defined (188)
1840  BE                 last line defined (190)
1841  01                 nups (1)
1842  01                 numparams (8)
1843  08                 is_vararg (0)
1844  00                 maxstacksize (17)
                         * code:
1846  0C                 sizecode (12)
1847  13020000           [01] getupval   8   0      
184B  52020000           [02] move       9   0      
184F  92028000           [03] move       10  1      
1853  D2020001           [04] move       11  2      
1857  12038001           [05] move       12  3      
185B  52030002           [06] move       13  4      
185F  92038002           [07] move       14  5      
1863  D2030003           [08] move       15  6      
1867  12048003           [09] move       16  7      
186B  07028004           [10] tailcall   8   9   0  
186F  1E020000           [11] return     8   0      
1873  1E008000           [12] return     0   1      
                         * constants:
1877  00                 sizek (0)
                         * functions:
1878  00                 sizep (0)
                         * lines:
1879  0C                 sizelineinfo (12)
                         [pc] (line)
187A  BD                 [01] (-67)
187B  00                 [02] (-67)
187C  00                 [03] (-67)
187D  00                 [04] (-67)
187E  BD                 [05] (-67)
187F  00                 [06] (-67)
1880  00                 [07] (-67)
1881  00                 [08] (-67)
1882  BD                 [09] (-67)
1883  00                 [10] (-67)
1884  00                 [11] (-67)
1885  00                 [12] (-66)
                         * locals:
18AA  00                 sizelocvars (0)
                         * upvalues:
18AB  00                 sizeupvalues (0)
                         ** end of function **

                         
18AC                     ** function [10] definition (level 2)
                         ** start of function **
18AC  00                 string size (0)
                         source name: (none)
18AE  01                 line defined (192)
18AF  C9                 last line defined (201)
18B0  01                 nups (1)
18B1  01                 numparams (9)
18B2  09                 is_vararg (0)
18B3  00                 maxstacksize (18)
                         * code:
18B5  1C                 sizecode (28)
18B6  53020000           [01] getupval   9   0      
18BA  92020000           [02] move       10  0      
18BE  D2028000           [03] move       11  1      
18C2  12038001           [04] move       12  3      
18C6  52030002           [05] move       13  4      
18CA  92038002           [06] move       14  5      
18CE  D2030003           [07] move       15  6      
18D2  12048003           [08] move       16  7      
18D6  52040004           [09] move       17  8      
18DA  62828004           [10] call       9   9   2  
fail op	21
18DE  15400280           [11] concat     0   256 9  
18E2  1A800380           [12] jmp        15           ; to [28]
fail op	35
18E6  63404001           [13] close      1  
18EA  1A000380           [14] jmp        13           ; to [28]
fail op	35
18EE  63804001           [15] close      1  
18F2  1A800280           [16] jmp        11           ; to [28]
18F6  A4C24000           [17] self       10  0   259  ; -1538682285
18FA  A2820001           [18] call       10  2   2  
18FE  DD020100           [19] getglobal  11  4        ; 1074689893
1902  12030005           [20] move       12  10     
1906  E2820001           [21] call       11  2   2  
190A  D8420000           [22] test       11      1    ; to [24] if false
190E  1AC00080           [23] jmp        4            ; to [28]
1912  E4424105           [24] self       11  10  261  ; -1925372830
1916  52030001           [25] move       13  2      
191A  92038004           [26] move       14  9      
191E  E2420002           [27] call       11  4   1  
1922  1E008000           [28] return     0   1      
                         * constants:
1926  06                 sizek (6)
1927  03                 const type 3
1928  00000000           const [0]: (0)
192C  00                 const type 0
                         const [1]: nil
192D  04                 const type 4
192E  01                 string size (0)
                         const [2]: ""
1930  01                 const type 3
1931  539249A4           const [3]: (-1538682285)
1935  01                 const type 3
1936  65770E40           const [4]: (1074689893)
193A  01                 const type 3
193B  62243D8D           const [5]: (-1925372830)
                         * functions:
193F  00                 sizep (0)
                         * lines:
1940  1C                 sizelineinfo (28)
                         [pc] (line)
1941  C1                 [01] (-63)
1942  00                 [02] (-63)
1943  00                 [03] (-63)
1944  00                 [04] (-63)
1945  C1                 [05] (-63)
1946  00                 [06] (-63)
1947  00                 [07] (-63)
1948  00                 [08] (-63)
1949  C1                 [09] (-63)
194A  00                 [10] (-63)
194B  00                 [11] (-61)
194C  00                 [12] (-61)
194D  C1                 [13] (-61)
194E  00                 [14] (-61)
194F  00                 [15] (-61)
1950  00                 [16] (-61)
1951  C1                 [17] (-60)
1952  00                 [18] (-60)
1953  00                 [19] (-59)
1954  00                 [20] (-59)
1955  C1                 [21] (-59)
1956  00                 [22] (-59)
1957  00                 [23] (-59)
1958  00                 [24] (-58)
1959  C1                 [25] (-58)
195A  00                 [26] (-58)
195B  00                 [27] (-58)
195C  00                 [28] (-55)
                         * locals:
19B1  00                 sizelocvars (0)
                         * upvalues:
19B2  00                 sizeupvalues (0)
                         ** end of function **

                         
19B3                     ** function [11] definition (level 2)
                         ** start of function **
19B3  00                 string size (0)
                         source name: (none)
19B5  01                 line defined (203)
19B6  DF                 last line defined (223)
19B7  01                 nups (1)
19B8  01                 numparams (6)
19B9  06                 is_vararg (0)
19BA  00                 maxstacksize (17)
                         * code:
19BC  39                 sizecode (57)
19BD  9D010000           [01] getglobal  6   0        ; 1074689893
19C1  D2010000           [02] move       7   0      
19C5  A2810001           [03] call       6   2   2  
19C9  98010000           [04] test       6       0    ; to [6] if true
19CD  1A400080           [05] jmp        2            ; to [8]
19D1  99410000           [06] loadk      6   1        ; 0
19D5  9E010001           [07] return     6   2      
19D9  A4814000           [08] self       6   0   258  ; -1538682285
19DD  A2810001           [09] call       6   2   2  
19E1  DD010000           [10] getglobal  7   0        ; 1074689893
19E5  12020003           [11] move       8   6      
19E9  E2810001           [12] call       7   2   2  
19ED  D8010000           [13] test       7       0    ; to [15] if true
19F1  1A400080           [14] jmp        2            ; to [17]
19F5  D9410000           [15] loadk      7   1        ; 0
19F9  DE010001           [16] return     7   2      
19FD  D3010000           [17] getupval   7   0      
1A01  CEC1C003           [18] gettable   7   7   259  ; 105205593
1A05  E2818000           [19] call       7   1   2  
1A09  D8010000           [20] test       7       0    ; to [22] if true
1A0D  1A000080           [21] jmp        1            ; to [23]
1A11  57018000           [22] loadbool   5   1   0    ; true
1A15  E4014103           [23] self       7   6   260  ; -1917464545
1A19  E2810001           [24] call       7   2   2  
1A1D  E441C103           [25] self       7   7   261  ; -940929887
1A21  59820100           [26] loadk      9   6        ; 0
1A25  9DC20100           [27] getglobal  10  7        ; Game
1A29  8E024205           [28] gettable   10  10  264  ; "AVATAR_CASTING_SPEED"
1A2D  E4424200           [29] self       11  0   265  ; -491574171
1A31  E2820001           [30] call       11  2   2  
1A35  12030000           [31] move       12  0      
1A39  E2810003           [32] call       7   6   2  
fail op	21
1A3D  15C08180           [33] concat     0   257 7  
1A41  1A000380           [34] jmp        13           ; to [48]
fail op	35
1A45  6380C103           [35] close      1  
1A49  1A800280           [36] jmp        11           ; to [48]
1A4D  24824203           [37] self       8   6   266  ; -598977125
1A51  92028000           [38] move       10  1      
1A55  D2020001           [39] move       11  2      
1A59  12038001           [40] move       12  3      
1A5D  52030002           [41] move       13  4      
1A61  92038002           [42] move       14  5      
1A65  D7030000           [43] loadbool   15  0   0    ; false
1A69  12048003           [44] move       16  7      
1A6D  07028004           [45] tailcall   8   9   0  
1A71  1E020000           [46] return     8   0      
1A75  1A000280           [47] jmp        9            ; to [57]
1A79  24824203           [48] self       8   6   266  ; -598977125
1A7D  92028000           [49] move       10  1      
1A81  D2020001           [50] move       11  2      
1A85  12038001           [51] move       12  3      
1A89  52030002           [52] move       13  4      
1A8D  92038002           [53] move       14  5      
1A91  D7030000           [54] loadbool   15  0   0    ; false
1A95  07020004           [55] tailcall   8   8   0  
1A99  1E020000           [56] return     8   0      
1A9D  1E008000           [57] return     0   1      
                         * constants:
1AA1  0B                 sizek (11)
1AA2  01                 const type 3
1AA3  65770E40           const [0]: (1074689893)
1AA7  03                 const type 3
1AA8  00000000           const [1]: (0)
1AAC  01                 const type 3
1AAD  539249A4           const [2]: (-1538682285)
1AB1  01                 const type 3
1AB2  594F4506           const [3]: (105205593)
1AB6  01                 const type 3
1AB7  1FD0B58D           const [4]: (-1917464545)
1ABB  01                 const type 3
1ABC  A18CEAC7           const [5]: (-940929887)
1AC0  03                 const type 3
1AC1  0000803F           const [6]: (0)
1AC5  04                 const type 4
1AC6  05                 string size (5)
1AC7  47616D6500         "Game\0"
                         const [7]: "Game"
1ACC  04                 const type 4
1ACD  15                 string size (21)
1ACE  4156415441525F43+  "AVATAR_C"
1AD6  415354494E475F53+  "ASTING_S"
1ADE  5045454400         "PEED\0"
                         const [8]: "AVATAR_CASTING_SPEED"
1AE3  01                 const type 3
1AE4  652CB3E2           const [9]: (-491574171)
1AE8  01                 const type 3
1AE9  9B554CDC           const [10]: (-598977125)
                         * functions:
1AED  00                 sizep (0)
                         * lines:
1AEE  39                 sizelineinfo (57)
                         [pc] (line)
1AEF  CC                 [01] (-52)
1AF0  00                 [02] (-52)
1AF1  00                 [03] (-52)
1AF2  00                 [04] (-52)
1AF3  CC                 [05] (-52)
1AF4  00                 [06] (-51)
1AF5  00                 [07] (-51)
1AF6  00                 [08] (-48)
1AF7  CC                 [09] (-48)
1AF8  00                 [10] (-47)
1AF9  00                 [11] (-47)
1AFA  00                 [12] (-47)
1AFB  CC                 [13] (-47)
1AFC  00                 [14] (-47)
1AFD  00                 [15] (-46)
1AFE  00                 [16] (-46)
1AFF  CC                 [17] (-43)
1B00  00                 [18] (-43)
1B01  00                 [19] (-43)
1B02  00                 [20] (-43)
1B03  CD                 [21] (-43)
1B04  00                 [22] (-42)
1B05  00                 [23] (-39)
1B06  00                 [24] (-39)
1B07  CD                 [25] (-39)
1B08  00                 [26] (-39)
1B09  00                 [27] (-39)
1B0A  00                 [28] (-39)
1B0B  D0                 [29] (-39)
1B0C  00                 [30] (-39)
1B0D  00                 [31] (-39)
1B0E  00                 [32] (-39)
1B0F  D0                 [33] (-38)
1B10  00                 [34] (-38)
1B11  00                 [35] (-38)
1B12  00                 [36] (-38)
1B13  D1                 [37] (-37)
1B14  00                 [38] (-37)
1B15  00                 [39] (-37)
1B16  00                 [40] (-37)
1B17  D1                 [41] (-37)
1B18  00                 [42] (-37)
1B19  00                 [43] (-37)
1B1A  00                 [44] (-37)
1B1B  D1                 [45] (-37)
1B1C  00                 [46] (-37)
1B1D  00                 [47] (-37)
1B1E  00                 [48] (-35)
1B1F  D1                 [49] (-35)
1B20  00                 [50] (-35)
1B21  00                 [51] (-35)
1B22  00                 [52] (-35)
1B23  D1                 [53] (-35)
1B24  00                 [54] (-35)
1B25  00                 [55] (-35)
1B26  00                 [56] (-35)
1B27  D2                 [57] (-33)
                         * locals:
1BD3  00                 sizelocvars (0)
                         * upvalues:
1BD4  00                 sizeupvalues (0)
                         ** end of function **

                         
1BD5                     ** function [12] definition (level 2)
                         ** start of function **
1BD5  00                 string size (0)
                         source name: (none)
1BD7  01                 line defined (225)
1BD8  E3                 last line defined (227)
1BD9  01                 nups (1)
1BDA  01                 numparams (6)
1BDB  06                 is_vararg (0)
1BDC  00                 maxstacksize (13)
                         * code:
1BDE  0A                 sizecode (10)
1BDF  93010000           [01] getupval   6   0      
1BE3  D2010000           [02] move       7   0      
1BE7  12028000           [03] move       8   1      
1BEB  52020001           [04] move       9   2      
1BEF  92028001           [05] move       10  3      
1BF3  D2020002           [06] move       11  4      
1BF7  12038002           [07] move       12  5      
1BFB  87018003           [08] tailcall   6   7   0  
1BFF  9E010000           [09] return     6   0      
1C03  1E008000           [10] return     0   1      
                         * constants:
1C07  00                 sizek (0)
                         * functions:
1C08  00                 sizep (0)
                         * lines:
1C09  0A                 sizelineinfo (10)
                         [pc] (line)
1C0A  E2                 [01] (-30)
1C0B  00                 [02] (-30)
1C0C  00                 [03] (-30)
1C0D  00                 [04] (-30)
1C0E  E2                 [05] (-30)
1C0F  00                 [06] (-30)
1C10  00                 [07] (-30)
1C11  00                 [08] (-30)
1C12  E2                 [09] (-30)
1C13  00                 [10] (-29)
                         * locals:
1C32  00                 sizelocvars (0)
                         * upvalues:
1C33  00                 sizeupvalues (0)
                         ** end of function **

                         
1C34                     ** function [13] definition (level 2)
                         ** start of function **
1C34  00                 string size (0)
                         source name: (none)
1C36  01                 line defined (229)
1C37  EE                 last line defined (238)
1C38  01                 nups (1)
1C39  01                 numparams (7)
1C3A  07                 is_vararg (0)
1C3B  00                 maxstacksize (14)
                         * code:
1C3D  1A                 sizecode (26)
1C3E  D3010000           [01] getupval   7   0      
1C42  12020000           [02] move       8   0      
1C46  52028000           [03] move       9   1      
1C4A  92028001           [04] move       10  3      
1C4E  D2020002           [05] move       11  4      
1C52  12038002           [06] move       12  5      
1C56  52030003           [07] move       13  6      
1C5A  E2818003           [08] call       7   7   2  
fail op	21
1C5E  15C00180           [09] concat     0   256 7  
1C62  1A800380           [10] jmp        15           ; to [26]
fail op	35
1C66  63404001           [11] close      1  
1C6A  1A000380           [12] jmp        13           ; to [26]
fail op	35
1C6E  63804001           [13] close      1  
1C72  1A800280           [14] jmp        11           ; to [26]
1C76  24C24000           [15] self       8   0   259  ; -1538682285
1C7A  22820001           [16] call       8   2   2  
1C7E  5D020100           [17] getglobal  9   4        ; 1074689893
1C82  92020004           [18] move       10  8      
1C86  62820001           [19] call       9   2   2  
1C8A  58420000           [20] test       9       1    ; to [22] if false
1C8E  1AC00080           [21] jmp        4            ; to [26]
1C92  64424104           [22] self       9   8   261  ; -1925372830
1C96  D2020001           [23] move       11  2      
1C9A  12038003           [24] move       12  7      
1C9E  62420002           [25] call       9   4   1  
1CA2  1E008000           [26] return     0   1      
                         * constants:
1CA6  06                 sizek (6)
1CA7  03                 const type 3
1CA8  00000000           const [0]: (0)
1CAC  00                 const type 0
                         const [1]: nil
1CAD  04                 const type 4
1CAE  01                 string size (0)
                         const [2]: ""
1CB0  01                 const type 3
1CB1  539249A4           const [3]: (-1538682285)
1CB5  01                 const type 3
1CB6  65770E40           const [4]: (1074689893)
1CBA  01                 const type 3
1CBB  62243D8D           const [5]: (-1925372830)
                         * functions:
1CBF  00                 sizep (0)
                         * lines:
1CC0  1A                 sizelineinfo (26)
                         [pc] (line)
1CC1  E6                 [01] (-26)
1CC2  00                 [02] (-26)
1CC3  00                 [03] (-26)
1CC4  00                 [04] (-26)
1CC5  E6                 [05] (-26)
1CC6  00                 [06] (-26)
1CC7  00                 [07] (-26)
1CC8  00                 [08] (-26)
1CC9  E6                 [09] (-24)
1CCA  00                 [10] (-24)
1CCB  00                 [11] (-24)
1CCC  00                 [12] (-24)
1CCD  E6                 [13] (-24)
1CCE  00                 [14] (-24)
1CCF  00                 [15] (-23)
1CD0  00                 [16] (-23)
1CD1  E6                 [17] (-22)
1CD2  00                 [18] (-22)
1CD3  00                 [19] (-22)
1CD4  00                 [20] (-22)
1CD5  E6                 [21] (-22)
1CD6  00                 [22] (-21)
1CD7  00                 [23] (-21)
1CD8  00                 [24] (-21)
1CD9  E6                 [25] (-21)
1CDA  00                 [26] (-18)
                         * locals:
1D29  00                 sizelocvars (0)
                         * upvalues:
1D2A  00                 sizeupvalues (0)
                         ** end of function **

                         
1D2B                     ** function [14] definition (level 2)
                         ** start of function **
1D2B  00                 string size (0)
                         source name: (none)
1D2D  01                 line defined (243)
1D2E  87                 last line defined (263)
1D2F  02                 nups (0)
1D30  00                 numparams (3)
1D31  03                 is_vararg (0)
1D32  00                 maxstacksize (8)
                         * code:
1D34  2D                 sizecode (45)
1D35  DD000000           [01] getglobal  3   0        ; 1074689893
1D39  12010000           [02] move       4   0      
1D3D  E2800001           [03] call       3   2   2  
1D41  D8000000           [04] test       3       0    ; to [6] if true
1D45  1A000080           [05] jmp        1            ; to [7]
1D49  1E008000           [06] return     0   1      
1D4D  E4404000           [07] self       3   0   257  ; -1538682285
1D51  E2800001           [08] call       3   2   2  
1D55  1D010000           [09] getglobal  4   0        ; 1074689893
1D59  52018001           [10] move       5   3      
1D5D  22810001           [11] call       4   2   2  
1D61  18010000           [12] test       4       0    ; to [14] if true
1D65  1A000080           [13] jmp        1            ; to [15]
1D69  1E008000           [14] return     0   1      
1D6D  1D010000           [15] getglobal  4   0        ; 1074689893
1D71  5D810000           [16] getglobal  5   2        ; _T
1D75  4EC1C002           [17] gettable   5   5   259  ; "abilityStats"
1D79  22810001           [18] call       4   2   2  
1D7D  18010000           [19] test       4       0    ; to [21] if true
1D81  1A800080           [20] jmp        3            ; to [24]
1D85  1D810000           [21] getglobal  4   2        ; _T
1D89  4B010000           [22] newtable   5   0   0    ; array=0, hash=0
1D8D  0C418181           [23] settable   4   259 5    ; "abilityStats"
1D91  2401C101           [24] self       4   3   260  ; -605089866
1D95  22810001           [25] call       4   2   2  
1D99  5D010000           [26] getglobal  5   0        ; 1074689893
1D9D  9D810000           [27] getglobal  6   2        ; _T
1DA1  8EC14003           [28] gettable   6   6   259  ; "abilityStats"
1DA5  8E010103           [29] gettable   6   6   4  
1DA9  62810001           [30] call       5   2   2  
1DAD  58010000           [31] test       5       0    ; to [33] if true
1DB1  1AC00080           [32] jmp        4            ; to [37]
1DB5  5D810000           [33] getglobal  5   2        ; _T
1DB9  4EC1C002           [34] gettable   5   5   259  ; "abilityStats"
1DBD  8B010000           [35] newtable   6   0   0    ; array=0, hash=0
1DC1  4C810102           [36] settable   5   4   6  
1DC5  5D810000           [37] getglobal  5   2        ; _T
1DC9  4EC1C002           [38] gettable   5   5   259  ; "abilityStats"
1DCD  4E018102           [39] gettable   5   5   4  
1DD1  A441C100           [40] self       6   1   261  ; -491574171
1DD5  A2810001           [41] call       6   2   2  
1DD9  A4814103           [42] self       6   6   262  ; 880936306
1DDD  A2810001           [43] call       6   2   2  
1DE1  4C810003           [44] settable   5   6   2  
1DE5  1E008000           [45] return     0   1      
                         * constants:
1DE9  07                 sizek (7)
1DEA  01                 const type 3
1DEB  65770E40           const [0]: (1074689893)
1DEF  01                 const type 3
1DF0  539249A4           const [1]: (-1538682285)
1DF4  04                 const type 4
1DF5  03                 string size (3)
1DF6  5F5400             "_T\0"
                         const [2]: "_T"
1DF9  04                 const type 4
1DFA  0D                 string size (13)
1DFB  6162696C69747953+  "abilityS"
1E03  7461747300         "tats\0"
                         const [3]: "abilityStats"
1E08  01                 const type 3
1E09  B60FEFDB           const [4]: (-605089866)
1E0D  01                 const type 3
1E0E  652CB3E2           const [5]: (-491574171)
1E12  01                 const type 3
1E13  72058234           const [6]: (880936306)
                         * functions:
1E17  00                 sizep (0)
                         * lines:
1E18  2D                 sizelineinfo (45)
                         [pc] (line)
1E19  F4                 [01] (-12)
1E1A  00                 [02] (-12)
1E1B  00                 [03] (-12)
1E1C  00                 [04] (-12)
1E1D  F4                 [05] (-12)
1E1E  00                 [06] (-11)
1E1F  00                 [07] (-8)
1E20  00                 [08] (-8)
1E21  F4                 [09] (-7)
1E22  00                 [10] (-7)
1E23  00                 [11] (-7)
1E24  00                 [12] (-7)
1E25  F4                 [13] (-7)
1E26  00                 [14] (-6)
1E27  00                 [15] (-3)
1E28  00                 [16] (-3)
1E29  F4                 [17] (-3)
1E2A  00                 [18] (-3)
1E2B  00                 [19] (-3)
1E2C  00                 [20] (-3)
1E2D  F5                 [21] (-2)
1E2E  00                 [22] (-2)
1E2F  00                 [23] (-2)
1E30  00                 [24] (1)
1E31  F8                 [25] (1)
1E32  00                 [26] (2)
1E33  00                 [27] (2)
1E34  00                 [28] (2)
1E35  F8                 [29] (2)
1E36  00                 [30] (2)
1E37  00                 [31] (2)
1E38  00                 [32] (2)
1E39  F9                 [33] (3)
1E3A  00                 [34] (3)
1E3B  00                 [35] (3)
1E3C  00                 [36] (3)
1E3D  F9                 [37] (6)
1E3E  00                 [38] (6)
1E3F  00                 [39] (6)
1E40  00                 [40] (6)
1E41  F9                 [41] (6)
1E42  00                 [42] (6)
1E43  00                 [43] (6)
1E44  00                 [44] (6)
1E45  F9                 [45] (7)
                         * locals:
1ECD  00                 sizelocvars (0)
                         * upvalues:
1ECE  00                 sizeupvalues (0)
                         ** end of function **

                         
1ECF                     ** function [15] definition (level 2)
                         ** start of function **
1ECF  00                 string size (0)
                         source name: (none)
1ED1  02                 line defined (265)
1ED2  9C                 last line defined (284)
1ED3  02                 nups (0)
1ED4  00                 numparams (3)
1ED5  03                 is_vararg (0)
1ED6  00                 maxstacksize (8)
                         * code:
1ED8  32                 sizecode (50)
1ED9  DD000000           [01] getglobal  3   0        ; 1074689893
1EDD  12010000           [02] move       4   0      
1EE1  E2800001           [03] call       3   2   2  
1EE5  D8400000           [04] test       3       1    ; to [6] if false
1EE9  1A400A80           [05] jmp        42           ; to [48]
1EED  DD000000           [06] getglobal  3   0        ; 1074689893
1EF1  12018000           [07] move       4   1      
1EF5  E2800001           [08] call       3   2   2  
1EF9  D8400000           [09] test       3       1    ; to [11] if false
1EFD  1A000980           [10] jmp        37           ; to [48]
1F01  E4404000           [11] self       3   0   257  ; -1538682285
1F05  E2800001           [12] call       3   2   2  
1F09  1D010000           [13] getglobal  4   0        ; 1074689893
1F0D  52018001           [14] move       5   3      
1F11  22810001           [15] call       4   2   2  
1F15  18410000           [16] test       4       1    ; to [18] if false
1F19  1A400780           [17] jmp        30           ; to [48]
1F1D  1D010000           [18] getglobal  4   0        ; 1074689893
1F21  5D810000           [19] getglobal  5   2        ; _T
1F25  4EC1C002           [20] gettable   5   5   259  ; "abilityStats"
1F29  22810001           [21] call       4   2   2  
1F2D  18410000           [22] test       4       1    ; to [24] if false
1F31  1AC00580           [23] jmp        24           ; to [48]
1F35  2401C101           [24] self       4   3   260  ; -605089866
1F39  22810001           [25] call       4   2   2  
1F3D  5D010000           [26] getglobal  5   0        ; 1074689893
1F41  9D810000           [27] getglobal  6   2        ; _T
1F45  8EC14003           [28] gettable   6   6   259  ; "abilityStats"
1F49  8E010103           [29] gettable   6   6   4  
1F4D  62810001           [30] call       5   2   2  
1F51  58410000           [31] test       5       1    ; to [33] if false
1F55  1A800380           [32] jmp        15           ; to [48]
1F59  6441C100           [33] self       5   1   261  ; -491574171
1F5D  62810001           [34] call       5   2   2  
1F61  6481C102           [35] self       5   5   262  ; 880936306
1F65  62810001           [36] call       5   2   2  
1F69  9D810000           [37] getglobal  6   2        ; _T
1F6D  8EC14003           [38] gettable   6   6   259  ; "abilityStats"
1F71  8E010103           [39] gettable   6   6   4  
1F75  8E410103           [40] gettable   6   6   5  
1F79  98000000           [41] test       2       0    ; to [43] if true
1F7D  1AC00080           [42] jmp        4            ; to [47]
1F81  DD810000           [43] getglobal  7   2        ; _T
1F85  CEC1C003           [44] gettable   7   7   259  ; "abilityStats"
1F89  CE018103           [45] gettable   7   7   4  
1F8D  CCC1C102           [46] settable   7   5   263  ; nil
1F91  9E010001           [47] return     6   2      
1F95  C6018003           [48] loadnil    7   7      
1F99  DE010001           [49] return     7   2      
1F9D  1E008000           [50] return     0   1      
                         * constants:
1FA1  08                 sizek (8)
1FA2  01                 const type 3
1FA3  65770E40           const [0]: (1074689893)
1FA7  01                 const type 3
1FA8  539249A4           const [1]: (-1538682285)
1FAC  04                 const type 4
1FAD  03                 string size (3)
1FAE  5F5400             "_T\0"
                         const [2]: "_T"
1FB1  04                 const type 4
1FB2  0D                 string size (13)
1FB3  6162696C69747953+  "abilityS"
1FBB  7461747300         "tats\0"
                         const [3]: "abilityStats"
1FC0  01                 const type 3
1FC1  B60FEFDB           const [4]: (-605089866)
1FC5  01                 const type 3
1FC6  652CB3E2           const [5]: (-491574171)
1FCA  01                 const type 3
1FCB  72058234           const [6]: (880936306)
1FCF  00                 const type 0
                         const [7]: nil
                         * functions:
1FD0  00                 sizep (0)
                         * lines:
1FD1  32                 sizelineinfo (50)
                         [pc] (line)
1FD2  0A                 [01] (10)
1FD3  01                 [02] (10)
1FD4  00                 [03] (10)
1FD5  00                 [04] (10)
1FD6  0A                 [05] (10)
1FD7  01                 [06] (10)
1FD8  00                 [07] (10)
1FD9  00                 [08] (10)
1FDA  0A                 [09] (10)
1FDB  01                 [10] (10)
1FDC  00                 [11] (11)
1FDD  00                 [12] (11)
1FDE  0A                 [13] (12)
1FDF  01                 [14] (12)
1FE0  00                 [15] (12)
1FE1  00                 [16] (12)
1FE2  0A                 [17] (12)
1FE3  01                 [18] (12)
1FE4  00                 [19] (12)
1FE5  00                 [20] (12)
1FE6  0A                 [21] (12)
1FE7  01                 [22] (12)
1FE8  00                 [23] (12)
1FE9  00                 [24] (13)
1FEA  0A                 [25] (13)
1FEB  01                 [26] (14)
1FEC  00                 [27] (14)
1FED  00                 [28] (14)
1FEE  0A                 [29] (14)
1FEF  01                 [30] (14)
1FF0  00                 [31] (14)
1FF1  00                 [32] (14)
1FF2  0A                 [33] (15)
1FF3  01                 [34] (15)
1FF4  00                 [35] (15)
1FF5  00                 [36] (15)
1FF6  0A                 [37] (16)
1FF7  01                 [38] (16)
1FF8  00                 [39] (16)
1FF9  00                 [40] (16)
1FFA  0B                 [41] (18)
1FFB  01                 [42] (18)
1FFC  00                 [43] (19)
1FFD  00                 [44] (19)
1FFE  0B                 [45] (19)
1FFF  01                 [46] (19)
2000  00                 [47] (22)
2001  00                 [48] (27)
2002  0C                 [49] (27)
2003  01                 [50] (28)
                         * locals:
209A  00                 sizelocvars (0)
                         * upvalues:
209B  00                 sizeupvalues (0)
                         ** end of function **

                         
209C                     ** function [16] definition (level 2)
                         ** start of function **
209C  00                 string size (0)
                         source name: (none)
209E  02                 line defined (286)
209F  A0                 last line defined (288)
20A0  02                 nups (1)
20A1  01                 numparams (3)
20A2  03                 is_vararg (0)
20A3  00                 maxstacksize (7)
                         * code:
20A5  07                 sizecode (7)
20A6  D3000000           [1] getupval   3   0      
20AA  12010000           [2] move       4   0      
20AE  52018000           [3] move       5   1      
20B2  92010001           [4] move       6   2      
20B6  C7000002           [5] tailcall   3   4   0  
20BA  DE000000           [6] return     3   0      
20BE  1E008000           [7] return     0   1      
                         * constants:
20C2  00                 sizek (0)
                         * functions:
20C3  00                 sizep (0)
                         * lines:
20C4  07                 sizelineinfo (7)
                         [pc] (line)
20C5  1F                 [1] (31)
20C6  01                 [2] (31)
20C7  00                 [3] (31)
20C8  00                 [4] (31)
20C9  1F                 [5] (31)
20CA  01                 [6] (31)
20CB  00                 [7] (32)
                         * locals:
20E1  00                 sizelocvars (0)
                         * upvalues:
20E2  00                 sizeupvalues (0)
                         ** end of function **

                         
20E3                     ** function [17] definition (level 2)
                         ** start of function **
20E3  00                 string size (0)
                         source name: (none)
20E5  02                 line defined (290)
20E6  B1                 last line defined (305)
20E7  02                 nups (1)
20E8  01                 numparams (4)
20E9  04                 is_vararg (0)
20EA  00                 maxstacksize (9)
                         * code:
20EC  28                 sizecode (40)
20ED  1D010000           [01] getglobal  4   0        ; 1074689893
20F1  52010000           [02] move       5   0      
20F5  22810001           [03] call       4   2   2  
20F9  18410000           [04] test       4       1    ; to [6] if false
20FD  1AC00780           [05] jmp        32           ; to [38]
2101  24414000           [06] self       4   0   257  ; -1538682285
2105  22810001           [07] call       4   2   2  
2109  5D010000           [08] getglobal  5   0        ; 1074689893
210D  92010000           [09] move       6   0      
2111  62810001           [10] call       5   2   2  
2115  58410000           [11] test       5       1    ; to [13] if false
2119  1A000680           [12] jmp        25           ; to [38]
211D  5D010000           [13] getglobal  5   0        ; 1074689893
2121  92010002           [14] move       6   4      
2125  62810001           [15] call       5   2   2  
2129  58410000           [16] test       5       1    ; to [18] if false
212D  1AC00480           [17] jmp        20           ; to [38]
fail op	21
2131  15800081           [18] concat     0   258 2  
2135  1A400480           [19] jmp        18           ; to [38]
2139  53010000           [20] getupval   5   0      
213D  92010000           [21] move       6   0      
2141  D2018000           [22] move       7   1      
2145  12028001           [23] move       8   3      
2149  62810002           [24] call       5   4   2  
214D  9D010000           [25] getglobal  6   0        ; 1074689893
2151  D2018002           [26] move       7   5      
2155  A2810001           [27] call       6   2   2  
2159  98410000           [28] test       6       1    ; to [30] if false
215D  1A000080           [29] jmp        1            ; to [31]
2161  5E010001           [30] return     5   2      
2165  9DC10000           [31] getglobal  6   3        ; 538022378
2169  D9810000           [32] loadk      7   2        ; 0
216D  A2410001           [33] call       6   2   1  
2171  9D010100           [34] getglobal  6   4        ; 1289681407
2175  A2818000           [35] call       6   1   2  
2179  8D800101           [36] sub        2   2   6  
217D  1A40F87F           [37] jmp        -30          ; to [8]
2181  86010003           [38] loadnil    6   6      
2185  9E010001           [39] return     6   2      
2189  1E008000           [40] return     0   1      
                         * constants:
218D  05                 sizek (5)
218E  01                 const type 3
218F  65770E40           const [0]: (1074689893)
2193  01                 const type 3
2194  539249A4           const [1]: (-1538682285)
2198  03                 const type 3
2199  00000000           const [2]: (0)
219D  01                 const type 3
219E  EA911120           const [3]: (538022378)
21A2  01                 const type 3
21A3  FFF9DE4C           const [4]: (1289681407)
                         * functions:
21A7  00                 sizep (0)
                         * lines:
21A8  28                 sizelineinfo (40)
                         [pc] (line)
21A9  23                 [01] (35)
21AA  01                 [02] (35)
21AB  00                 [03] (35)
21AC  00                 [04] (35)
21AD  23                 [05] (35)
21AE  01                 [06] (36)
21AF  00                 [07] (36)
21B0  00                 [08] (37)
21B1  23                 [09] (37)
21B2  01                 [10] (37)
21B3  00                 [11] (37)
21B4  00                 [12] (37)
21B5  23                 [13] (37)
21B6  01                 [14] (37)
21B7  00                 [15] (37)
21B8  00                 [16] (37)
21B9  23                 [17] (37)
21BA  01                 [18] (37)
21BB  00                 [19] (37)
21BC  00                 [20] (38)
21BD  24                 [21] (38)
21BE  01                 [22] (38)
21BF  00                 [23] (38)
21C0  00                 [24] (38)
21C1  24                 [25] (39)
21C2  01                 [26] (39)
21C3  00                 [27] (39)
21C4  00                 [28] (39)
21C5  25                 [29] (39)
21C6  01                 [30] (40)
21C7  00                 [31] (43)
21C8  00                 [32] (43)
21C9  25                 [33] (43)
21CA  01                 [34] (44)
21CB  00                 [35] (44)
21CC  00                 [36] (44)
21CD  25                 [37] (44)
21CE  01                 [38] (48)
21CF  00                 [39] (48)
21D0  00                 [40] (49)
                         * locals:
2249  00                 sizelocvars (0)
                         * upvalues:
224A  00                 sizeupvalues (0)
                         ** end of function **

                         
224B                     ** function [18] definition (level 2)
                         ** start of function **
224B  00                 string size (0)
                         source name: (none)
224D  02                 line defined (307)
224E  BD                 last line defined (317)
224F  02                 nups (0)
2250  00                 numparams (2)
2251  02                 is_vararg (0)
2252  00                 maxstacksize (7)
                         * code:
2254  24                 sizecode (36)
2255  9D000000           [01] getglobal  2   0        ; 1074689893
2259  D2000000           [02] move       3   0      
225D  A2800001           [03] call       2   2   2  
2261  98400000           [04] test       2       1    ; to [6] if false
2265  1A400780           [05] jmp        30           ; to [36]
2269  A4404000           [06] self       2   0   257  ; -1538682285
226D  A2800001           [07] call       2   2   2  
2271  DD000000           [08] getglobal  3   0        ; 1074689893
2275  12010001           [09] move       4   2      
2279  E2800001           [10] call       3   2   2  
227D  D8400000           [11] test       3       1    ; to [13] if false
2281  1A800580           [12] jmp        23           ; to [36]
2285  DD000000           [13] getglobal  3   0        ; 1074689893
2289  1D810000           [14] getglobal  4   2        ; _T
228D  0EC14002           [15] gettable   4   4   259  ; "abilityStats"
2291  E2800001           [16] call       3   2   2  
2295  D8400000           [17] test       3       1    ; to [19] if false
2299  1A000480           [18] jmp        17           ; to [36]
229D  E4004101           [19] self       3   2   260  ; -605089866
22A1  E2800001           [20] call       3   2   2  
22A5  1D010000           [21] getglobal  4   0        ; 1074689893
22A9  5D810000           [22] getglobal  5   2        ; _T
22AD  4EC1C002           [23] gettable   5   5   259  ; "abilityStats"
22B1  4EC18002           [24] gettable   5   5   3  
22B5  22810001           [25] call       4   2   2  
22B9  18410000           [26] test       4       1    ; to [28] if false
22BD  1AC00180           [27] jmp        8            ; to [36]
22C1  1D810000           [28] getglobal  4   2        ; _T
22C5  0EC14002           [29] gettable   4   4   259  ; "abilityStats"
22C9  0EC10002           [30] gettable   4   4   3  
22CD  6441C100           [31] self       5   1   261  ; -491574171
22D1  62810001           [32] call       5   2   2  
22D5  6481C102           [33] self       5   5   262  ; 880936306
22D9  62810001           [34] call       5   2   2  
22DD  0CC1C102           [35] settable   4   5   263  ; nil
22E1  1E008000           [36] return     0   1      
                         * constants:
22E5  08                 sizek (8)
22E6  01                 const type 3
22E7  65770E40           const [0]: (1074689893)
22EB  01                 const type 3
22EC  539249A4           const [1]: (-1538682285)
22F0  04                 const type 4
22F1  03                 string size (3)
22F2  5F5400             "_T\0"
                         const [2]: "_T"
22F5  04                 const type 4
22F6  0D                 string size (13)
22F7  6162696C69747953+  "abilityS"
22FF  7461747300         "tats\0"
                         const [3]: "abilityStats"
2304  01                 const type 3
2305  B60FEFDB           const [4]: (-605089866)
2309  01                 const type 3
230A  652CB3E2           const [5]: (-491574171)
230E  01                 const type 3
230F  72058234           const [6]: (880936306)
2313  00                 const type 0
                         const [7]: nil
                         * functions:
2314  00                 sizep (0)
                         * lines:
2315  24                 sizelineinfo (36)
                         [pc] (line)
2316  34                 [01] (52)
2317  01                 [02] (52)
2318  00                 [03] (52)
2319  00                 [04] (52)
231A  34                 [05] (52)
231B  01                 [06] (53)
231C  00                 [07] (53)
231D  00                 [08] (54)
231E  34                 [09] (54)
231F  01                 [10] (54)
2320  00                 [11] (54)
2321  00                 [12] (54)
2322  34                 [13] (54)
2323  01                 [14] (54)
2324  00                 [15] (54)
2325  00                 [16] (54)
2326  34                 [17] (54)
2327  01                 [18] (54)
2328  00                 [19] (55)
2329  00                 [20] (55)
232A  35                 [21] (56)
232B  01                 [22] (56)
232C  00                 [23] (56)
232D  00                 [24] (56)
232E  35                 [25] (56)
232F  01                 [26] (56)
2330  00                 [27] (56)
2331  00                 [28] (57)
2332  36                 [29] (57)
2333  01                 [30] (57)
2334  00                 [31] (57)
2335  00                 [32] (57)
2336  36                 [33] (57)
2337  01                 [34] (57)
2338  00                 [35] (57)
2339  00                 [36] (61)
                         * locals:
23A6  00                 sizelocvars (0)
                         * upvalues:
23A7  00                 sizeupvalues (0)
                         ** end of function **

                         
23A8                     ** function [19] definition (level 2)
                         ** start of function **
23A8  00                 string size (0)
                         source name: (none)
23AA  02                 line defined (322)
23AB  C6                 last line defined (326)
23AC  02                 nups (0)
23AD  00                 numparams (1)
23AE  01                 is_vararg (0)
23AF  00                 maxstacksize (4)
                         * code:
23B1  08                 sizecode (8)
23B2  5D000000           [1] getglobal  1   0        ; math
23B6  4E40C000           [2] gettable   1   1   257  ; 786779368
23BA  A4804000           [3] self       2   0   258  ; -323635054
23BE  A2800001           [4] call       2   2   2  
23C2  9CC04001           [5] div        2   2   259  ; 0
23C6  47000001           [6] tailcall   1   2   0  
23CA  5E000000           [7] return     1   0      
23CE  1E008000           [8] return     0   1      
                         * constants:
23D2  04                 sizek (4)
23D3  04                 const type 4
23D4  05                 string size (5)
23D5  6D61746800         "math\0"
                         const [0]: "math"
23DA  01                 const type 3
23DB  E84CE52E           const [1]: (786779368)
23DF  01                 const type 3
23E0  92B8B5EC           const [2]: (-323635054)
23E4  03                 const type 3
23E5  0000803E           const [3]: (0)
                         * functions:
23E9  00                 sizep (0)
                         * lines:
23EA  08                 sizelineinfo (8)
                         [pc] (line)
23EB  45                 [1] (69)
23EC  01                 [2] (69)
23ED  00                 [3] (69)
23EE  00                 [4] (69)
23EF  45                 [5] (69)
23F0  01                 [6] (69)
23F1  00                 [7] (69)
23F2  00                 [8] (70)
                         * locals:
240B  00                 sizelocvars (0)
                         * upvalues:
240C  00                 sizeupvalues (0)
                         ** end of function **

                         
240D                     ** function [20] definition (level 2)
                         ** start of function **
240D  00                 string size (0)
                         source name: (none)
240F  02                 line defined (328)
2410  CC                 last line defined (332)
2411  02                 nups (0)
2412  00                 numparams (1)
2413  01                 is_vararg (0)
2414  00                 maxstacksize (4)
                         * code:
2416  07                 sizecode (7)
2417  5D000000           [1] getglobal  1   0        ; math
241B  4E40C000           [2] gettable   1   1   257  ; -688728047
241F  9C000081           [3] div        2   258 0    ; 0
2423  D9C00000           [4] loadk      3   3        ; -85
2427  47008001           [5] tailcall   1   3   0  
242B  5E000000           [6] return     1   0      
242F  1E008000           [7] return     0   1      
                         * constants:
2433  04                 sizek (4)
2434  04                 const type 4
2435  05                 string size (5)
2436  6D61746800         "math\0"
                         const [0]: "math"
243B  01                 const type 3
243C  11D8F2D6           const [1]: (-688728047)
2440  03                 const type 3
2441  0000803E           const [2]: (0)
2445  03                 const type 3
2446  ABAA2A3F           const [3]: (-85)
                         * functions:
244A  00                 sizep (0)
                         * lines:
244B  07                 sizelineinfo (7)
                         [pc] (line)
244C  4B                 [1] (75)
244D  01                 [2] (75)
244E  00                 [3] (75)
244F  00                 [4] (75)
2450  4B                 [5] (75)
2451  01                 [6] (75)
2452  00                 [7] (76)
                         * locals:
2468  00                 sizelocvars (0)
                         * upvalues:
2469  00                 sizeupvalues (0)
                         ** end of function **

                         
246A                     ** function [21] definition (level 2)
                         ** start of function **
246A  00                 string size (0)
                         source name: (none)
246C  02                 line defined (334)
246D  D0                 last line defined (336)
246E  02                 nups (1)
246F  01                 numparams (1)
2470  01                 is_vararg (0)
2471  00                 maxstacksize (4)
                         * code:
2473  06                 sizecode (6)
2474  53000000           [1] getupval   1   0      
2478  A4004000           [2] self       2   0   256  ; -323635054
247C  A2000001           [3] call       2   2   0  
2480  47000000           [4] tailcall   1   0   0  
2484  5E000000           [5] return     1   0      
2488  1E008000           [6] return     0   1      
                         * constants:
248C  01                 sizek (1)
248D  01                 const type 3
248E  92B8B5EC           const [0]: (-323635054)
                         * functions:
2492  00                 sizep (0)
                         * lines:
2493  06                 sizelineinfo (6)
                         [pc] (line)
2494  4F                 [1] (79)
2495  01                 [2] (79)
2496  00                 [3] (79)
2497  00                 [4] (79)
2498  4F                 [5] (79)
2499  01                 [6] (80)
                         * locals:
24AC  00                 sizelocvars (0)
                         * upvalues:
24AD  00                 sizeupvalues (0)
                         ** end of function **

                         
24AE                     ** function [22] definition (level 2)
                         ** start of function **
24AE  00                 string size (0)
                         source name: (none)
24B0  02                 line defined (338)
24B1  DA                 last line defined (346)
24B2  02                 nups (1)
24B3  01                 numparams (1)
24B4  01                 is_vararg (0)
24B5  00                 maxstacksize (5)
                         * code:
24B7  17                 sizecode (23)
24B8  5D000000           [01] getglobal  1   0        ; 849075268
24BC  99400000           [02] loadk      2   1        ; "Lotus.Interface.LotusUtilities"
24C0  62800001           [03] call       1   2   2  
24C4  99800000           [04] loadk      2   2        ; 0
24C8  DDC00000           [05] getglobal  3   3        ; 1074689893
24CC  12010000           [06] move       4   0      
24D0  E2800001           [07] call       3   2   2  
24D4  D8400000           [08] test       3       1    ; to [10] if false
24D8  1AC00180           [09] jmp        8            ; to [18]
24DC  CE00C100           [10] gettable   3   1   260  ; -2065906648
24E0  E2808000           [11] call       3   1   2  
24E4  0E41C100           [12] gettable   4   1   261  ; "UI_MODE_IN_GAME"
fail op	35
24E8  23008101           [13] close      0  
24EC  1A800080           [14] jmp        3            ; to [18]
24F0  E4804100           [15] self       3   0   262  ; -323635054
24F4  E2800001           [16] call       3   2   2  
24F8  92008001           [17] move       2   3      
24FC  D3000000           [18] getupval   3   0      
2500  12010001           [19] move       4   2      
2504  E2800001           [20] call       3   2   2  
2508  DC808001           [21] div        3   3   2  
250C  DE000001           [22] return     3   2      
2510  1E008000           [23] return     0   1      
                         * constants:
2514  07                 sizek (7)
2515  01                 const type 3
2516  44DC9B32           const [0]: (849075268)
251A  04                 const type 4
251B  1F                 string size (31)
251C  4C6F7475732E496E+  "Lotus.In"
2524  746572666163652E+  "terface."
252C  4C6F747573557469+  "LotusUti"
2534  6C697469657300     "lities\0"
                         const [1]: "Lotus.Interface.LotusUtilities"
253B  03                 const type 3
253C  0000803E           const [2]: (0)
2540  01                 const type 3
2541  65770E40           const [3]: (1074689893)
2545  01                 const type 3
2546  28C4DC84           const [4]: (-2065906648)
254A  04                 const type 4
254B  10                 string size (16)
254C  55495F4D4F44455F+  "UI_MODE_"
2554  494E5F47414D4500   "IN_GAME\0"
                         const [5]: "UI_MODE_IN_GAME"
255C  01                 const type 3
255D  92B8B5EC           const [6]: (-323635054)
                         * functions:
2561  00                 sizep (0)
                         * lines:
2562  17                 sizelineinfo (23)
                         [pc] (line)
2563  53                 [01] (83)
2564  01                 [02] (83)
2565  00                 [03] (83)
2566  00                 [04] (85)
2567  53                 [05] (86)
2568  01                 [06] (86)
2569  00                 [07] (86)
256A  00                 [08] (86)
256B  53                 [09] (86)
256C  01                 [10] (86)
256D  00                 [11] (86)
256E  00                 [12] (86)
256F  55                 [13] (86)
2570  01                 [14] (86)
2571  00                 [15] (87)
2572  00                 [16] (87)
2573  56                 [17] (87)
2574  01                 [18] (89)
2575  00                 [19] (89)
2576  00                 [20] (89)
2577  56                 [21] (89)
2578  01                 [22] (89)
2579  00                 [23] (90)
                         * locals:
25BF  00                 sizelocvars (0)
                         * upvalues:
25C0  00                 sizeupvalues (0)
                         ** end of function **

                         
25C1                     ** function [23] definition (level 2)
                         ** start of function **
25C1  00                 string size (0)
                         source name: (none)
25C3  02                 line defined (348)
25C4  F2                 last line defined (370)
25C5  02                 nups (0)
25C6  00                 numparams (2)
25C7  02                 is_vararg (0)
25C8  00                 maxstacksize (5)
                         * code:
25CA  42                 sizecode (66)
25CB  9D000000           [01] getglobal  2   0        ; 1074689893
25CF  D2000000           [02] move       3   0      
25D3  A2800001           [03] call       2   2   2  
25D7  98400000           [04] test       2       1    ; to [6] if false
25DB  1AC00E80           [05] jmp        60           ; to [66]
25DF  A4404000           [06] self       2   0   257  ; -605089866
25E3  A2800001           [07] call       2   2   2  
25E7  58000000           [08] test       1       0    ; to [10] if true
25EB  1AC00680           [09] jmp        28           ; to [38]
25EF  DD000000           [10] getglobal  3   0        ; 1074689893
25F3  1D810000           [11] getglobal  4   2        ; _T
25F7  0EC14002           [12] gettable   4   4   259  ; "preventEnergyGain"
25FB  E2800001           [13] call       3   2   2  
25FF  D8000000           [14] test       3       0    ; to [16] if true
2603  1A800080           [15] jmp        3            ; to [19]
2607  DD800000           [16] getglobal  3   2        ; _T
260B  0B010000           [17] newtable   4   0   0    ; array=0, hash=0
260F  CC008181           [18] settable   3   259 4    ; "preventEnergyGain"
2613  DD000000           [19] getglobal  3   0        ; 1074689893
2617  1D810000           [20] getglobal  4   2        ; _T
261B  0EC14002           [21] gettable   4   4   259  ; "preventEnergyGain"
261F  0E810002           [22] gettable   4   4   2  
2623  E2800001           [23] call       3   2   2  
2627  D8000000           [24] test       3       0    ; to [26] if true
262B  1AC00080           [25] jmp        4            ; to [30]
262F  DD800000           [26] getglobal  3   2        ; _T
2633  CEC0C001           [27] gettable   3   3   259  ; "preventEnergyGain"
2637  CC004101           [28] settable   3   2   260  ; 0
263B  1AC00880           [29] jmp        36           ; to [66]
263F  DD800000           [30] getglobal  3   2        ; _T
2643  CEC0C001           [31] gettable   3   3   259  ; "preventEnergyGain"
2647  1D810000           [32] getglobal  4   2        ; _T
264B  0EC14002           [33] gettable   4   4   259  ; "preventEnergyGain"
264F  0E810002           [34] gettable   4   4   2  
2653  03014102           [35] add        4   4   260  ; 0
2657  CC000101           [36] settable   3   2   4  
265B  1AC00680           [37] jmp        28           ; to [66]
265F  DD000000           [38] getglobal  3   0        ; 1074689893
2663  1D810000           [39] getglobal  4   2        ; _T
2667  0EC14002           [40] gettable   4   4   259  ; "preventEnergyGain"
266B  E2800001           [41] call       3   2   2  
266F  D8400000           [42] test       3       1    ; to [44] if false
2673  1A400580           [43] jmp        22           ; to [66]
2677  DD000000           [44] getglobal  3   0        ; 1074689893
267B  1D810000           [45] getglobal  4   2        ; _T
267F  0EC14002           [46] gettable   4   4   259  ; "preventEnergyGain"
2683  0E810002           [47] gettable   4   4   2  
2687  E2800001           [48] call       3   2   2  
268B  D8400000           [49] test       3       1    ; to [51] if false
268F  1A800380           [50] jmp        15           ; to [66]
2693  DD800000           [51] getglobal  3   2        ; _T
2697  CEC0C001           [52] gettable   3   3   259  ; "preventEnergyGain"
269B  1D810000           [53] getglobal  4   2        ; _T
269F  0EC14002           [54] gettable   4   4   259  ; "preventEnergyGain"
26A3  0E810002           [55] gettable   4   4   2  
26A7  0D014102           [56] sub        4   4   260  ; 0
26AB  CC000101           [57] settable   3   2   4  
26AF  DD800000           [58] getglobal  3   2        ; _T
26B3  CEC0C001           [59] gettable   3   3   259  ; "preventEnergyGain"
26B7  CE808001           [60] gettable   3   3   2  
fail op	33
26BB  2140C101           [61] tforloop   0       261  ; to [63] if exit
26BF  1A800080           [62] jmp        3            ; to [66]
26C3  DD800000           [63] getglobal  3   2        ; _T
26C7  CEC0C001           [64] gettable   3   3   259  ; "preventEnergyGain"
26CB  CC804101           [65] settable   3   2   262  ; nil
26CF  1E008000           [66] return     0   1      
                         * constants:
26D3  07                 sizek (7)
26D4  01                 const type 3
26D5  65770E40           const [0]: (1074689893)
26D9  01                 const type 3
26DA  B60FEFDB           const [1]: (-605089866)
26DE  04                 const type 4
26DF  03                 string size (3)
26E0  5F5400             "_T\0"
                         const [2]: "_T"
26E3  04                 const type 4
26E4  12                 string size (18)
26E5  70726576656E7445+  "preventE"
26ED  6E65726779476169+  "nergyGai"
26F5  6E00               "n\0"
                         const [3]: "preventEnergyGain"
26F7  03                 const type 3
26F8  0000803F           const [4]: (0)
26FC  03                 const type 3
26FD  00000000           const [5]: (0)
2701  00                 const type 0
                         const [6]: nil
                         * functions:
2702  00                 sizep (0)
                         * lines:
2703  42                 sizelineinfo (66)
                         [pc] (line)
2704  5D                 [01] (93)
2705  01                 [02] (93)
2706  00                 [03] (93)
2707  00                 [04] (93)
2708  5D                 [05] (93)
2709  01                 [06] (94)
270A  00                 [07] (94)
270B  00                 [08] (95)
270C  5D                 [09] (95)
270D  01                 [10] (96)
270E  00                 [11] (96)
270F  00                 [12] (96)
2710  5D                 [13] (96)
2711  01                 [14] (96)
2712  00                 [15] (96)
2713  00                 [16] (97)
2714  5D                 [17] (97)
2715  01                 [18] (97)
2716  00                 [19] (100)
2717  00                 [20] (100)
2718  5E                 [21] (100)
2719  01                 [22] (100)
271A  00                 [23] (100)
271B  00                 [24] (100)
271C  5E                 [25] (100)
271D  01                 [26] (101)
271E  00                 [27] (101)
271F  00                 [28] (101)
2720  5F                 [29] (101)
2721  01                 [30] (103)
2722  00                 [31] (103)
2723  00                 [32] (103)
2724  5F                 [33] (103)
2725  01                 [34] (103)
2726  00                 [35] (103)
2727  00                 [36] (103)
2728  60                 [37] (104)
2729  01                 [38] (106)
272A  00                 [39] (106)
272B  00                 [40] (106)
272C  60                 [41] (106)
272D  01                 [42] (106)
272E  00                 [43] (106)
272F  00                 [44] (106)
2730  60                 [45] (106)
2731  01                 [46] (106)
2732  00                 [47] (106)
2733  00                 [48] (106)
2734  60                 [49] (106)
2735  01                 [50] (106)
2736  00                 [51] (107)
2737  00                 [52] (107)
2738  60                 [53] (107)
2739  01                 [54] (107)
273A  00                 [55] (107)
273B  00                 [56] (107)
273C  60                 [57] (107)
273D  01                 [58] (108)
273E  00                 [59] (108)
273F  00                 [60] (108)
2740  61                 [61] (108)
2741  01                 [62] (108)
2742  00                 [63] (109)
2743  00                 [64] (109)
2744  61                 [65] (109)
2745  01                 [66] (114)
                         * locals:
280C  00                 sizelocvars (0)
                         * upvalues:
280D  00                 sizeupvalues (0)
                         ** end of function **

                         
280E                     ** function [24] definition (level 2)
                         ** start of function **
280E  00                 string size (0)
                         source name: (none)
2810  02                 line defined (372)
2811  FC                 last line defined (380)
2812  02                 nups (0)
2813  00                 numparams (1)
2814  01                 is_vararg (0)
2815  00                 maxstacksize (3)
                         * code:
2817  1D                 sizecode (29)
2818  5D000000           [01] getglobal  1   0        ; 1074689893
281C  92000000           [02] move       2   0      
2820  62800001           [03] call       1   2   2  
2824  58400000           [04] test       1       1    ; to [6] if false
2828  1A000580           [05] jmp        21           ; to [27]
282C  5D000000           [06] getglobal  1   0        ; 1074689893
2830  9D400000           [07] getglobal  2   1        ; _T
2834  8E804001           [08] gettable   2   2   258  ; "preventEnergyGain"
2838  62800001           [09] call       1   2   2  
283C  58400000           [10] test       1       1    ; to [12] if false
2840  1A800380           [11] jmp        15           ; to [27]
2844  64C04000           [12] self       1   0   259  ; -605089866
2848  62800001           [13] call       1   2   2  
284C  9D400000           [14] getglobal  2   1        ; _T
2850  8E804001           [15] gettable   2   2   258  ; "preventEnergyGain"
2854  8E400001           [16] gettable   2   2   1  
fail op	35
2858  63004101           [17] close      1  
285C  1AC00180           [18] jmp        8            ; to [27]
2860  9D400000           [19] getglobal  2   1        ; _T
2864  8E804001           [20] gettable   2   2   258  ; "preventEnergyGain"
2868  8E400001           [21] gettable   2   2   1  
fail op	21
286C  55808082           [22] concat     1   261 2  
2870  1A000080           [23] jmp        1            ; to [25]
2874  97400000           [24] loadbool   2   0   1    ; false, to [26]
2878  97008000           [25] loadbool   2   1   0    ; true
287C  9E000001           [26] return     2   2      
2880  97000000           [27] loadbool   2   0   0    ; false
2884  9E000001           [28] return     2   2      
2888  1E008000           [29] return     0   1      
                         * constants:
288C  06                 sizek (6)
288D  01                 const type 3
288E  65770E40           const [0]: (1074689893)
2892  04                 const type 4
2893  03                 string size (3)
2894  5F5400             "_T\0"
                         const [1]: "_T"
2897  04                 const type 4
2898  12                 string size (18)
2899  70726576656E7445+  "preventE"
28A1  6E65726779476169+  "nergyGai"
28A9  6E00               "n\0"
                         const [2]: "preventEnergyGain"
28AB  01                 const type 3
28AC  B60FEFDB           const [3]: (-605089866)
28B0  00                 const type 0
                         const [4]: nil
28B1  03                 const type 3
28B2  00000000           const [5]: (0)
                         * functions:
28B6  00                 sizep (0)
                         * lines:
28B7  1D                 sizelineinfo (29)
                         [pc] (line)
28B8  75                 [01] (117)
28B9  01                 [02] (117)
28BA  00                 [03] (117)
28BB  00                 [04] (117)
28BC  75                 [05] (117)
28BD  01                 [06] (117)
28BE  00                 [07] (117)
28BF  00                 [08] (117)
28C0  75                 [09] (117)
28C1  01                 [10] (117)
28C2  00                 [11] (117)
28C3  00                 [12] (118)
28C4  75                 [13] (118)
28C5  01                 [14] (119)
28C6  00                 [15] (119)
28C7  00                 [16] (119)
28C8  75                 [17] (119)
28C9  01                 [18] (119)
28CA  00                 [19] (120)
28CB  00                 [20] (120)
28CC  75                 [21] (120)
28CD  01                 [22] (120)
28CE  00                 [23] (120)
28CF  00                 [24] (120)
28D0  75                 [25] (120)
28D1  01                 [26] (120)
28D2  00                 [27] (123)
28D3  00                 [28] (123)
28D4  75                 [29] (124)
                         * locals:
292C  00                 sizelocvars (0)
                         * upvalues:
292D  00                 sizeupvalues (0)
                         ** end of function **

                         
292E                     ** function [25] definition (level 2)
                         ** start of function **
292E  00                 string size (0)
                         source name: (none)
2930  02                 line defined (382)
2931  87                 last line defined (391)
2932  03                 nups (0)
2933  00                 numparams (3)
2934  03                 is_vararg (0)
2935  00                 maxstacksize (10)
                         * code:
2937  12                 sizecode (18)
2938  E4004000           [01] self       3   0   256  ; 366271214
293C  52018000           [02] move       5   1      
2940  E2808001           [03] call       3   3   2  
2944  19410000           [04] loadk      4   1        ; 0
2948  4A018001           [05] len        5   3      
294C  99410000           [06] loadk      6   1        ; 0
2950  10010280           [07] forprep    4   9        ; to [17]
2954  98000000           [08] test       2       0    ; to [10] if true
2958  1AC00080           [09] jmp        4            ; to [14]
295C  0EC28101           [10] gettable   8   3   7  
2960  24824004           [11] self       8   8   258  ; -974578778
2964  22420001           [12] call       8   2   1  
2968  1A800080           [13] jmp        3            ; to [17]
296C  0EC28101           [14] gettable   8   3   7  
2970  24C24004           [15] self       8   8   259  ; 766584623
2974  22420001           [16] call       8   2   1  
2978  1441FD7F           [17] forloop    4   -10      ; to [8] if loop
297C  1E008000           [18] return     0   1      
                         * constants:
2980  04                 sizek (4)
2981  01                 const type 3
2982  EEDAD415           const [0]: (366271214)
2986  03                 const type 3
2987  0000803F           const [1]: (0)
298B  01                 const type 3
298C  A61BE9C5           const [2]: (-974578778)
2990  01                 const type 3
2991  2F27B12D           const [3]: (766584623)
                         * functions:
2995  00                 sizep (0)
                         * lines:
2996  12                 sizelineinfo (18)
                         [pc] (line)
2997  7F                 [01] (127)
2998  01                 [02] (127)
2999  00                 [03] (127)
299A  00                 [04] (-128)
299B  7F                 [05] (-128)
299C  01                 [06] (-128)
299D  00                 [07] (-128)
299E  00                 [08] (-127)
299F  7F                 [09] (-127)
29A0  01                 [10] (-126)
29A1  00                 [11] (-126)
29A2  00                 [12] (-126)
29A3  80                 [13] (-126)
29A4  01                 [14] (-124)
29A5  00                 [15] (-124)
29A6  00                 [16] (-124)
29A7  80                 [17] (-128)
29A8  01                 [18] (-121)
                         * locals:
29DF  00                 sizelocvars (0)
                         * upvalues:
29E0  00                 sizeupvalues (0)
                         ** end of function **

                         
29E1                     ** function [26] definition (level 2)
                         ** start of function **
29E1  00                 string size (0)
                         source name: (none)
29E3  03                 line defined (393)
29E4  8B                 last line defined (395)
29E5  03                 nups (2)
29E6  02                 numparams (0)
29E7  00                 is_vararg (0)
29E8  00                 maxstacksize (3)
                         * code:
29EA  1F                 sizecode (31)
29EB  1D000000           [01] getglobal  0   0        ; 1074689893
29EF  5D400000           [02] getglobal  1   1        ; gGameRules
29F3  22800001           [03] call       0   2   2  
29F7  18400000           [04] test       0       1    ; to [6] if false
29FB  1A400580           [05] jmp        22           ; to [28]
29FF  1D400000           [06] getglobal  0   1        ; gGameRules
2A03  24804000           [07] self       0   0   258  ; -1957065004
2A07  9DC00000           [08] getglobal  2   3        ; gLotusHubGameRulesType
2A0B  22808001           [09] call       0   3   2  
2A0F  18400000           [10] test       0       1    ; to [12] if false
2A13  1A400480           [11] jmp        18           ; to [30]
2A17  1D400000           [12] getglobal  0   1        ; gGameRules
2A1B  24804000           [13] self       0   0   258  ; -1957065004
2A1F  9D000100           [14] getglobal  2   4        ; gLotusFightingGameRulesType
2A23  22808001           [15] call       0   3   2  
2A27  18400000           [16] test       0       1    ; to [18] if false
2A2B  1AC00280           [17] jmp        12           ; to [30]
2A2F  1D400000           [18] getglobal  0   1        ; gGameRules
2A33  24804000           [19] self       0   0   258  ; -1957065004
2A37  93000000           [20] getupval   2   0      
2A3B  22808001           [21] call       0   3   2  
2A3F  18400000           [22] test       0       1    ; to [24] if false
2A43  1A400180           [23] jmp        6            ; to [30]
2A47  13008000           [24] getupval   0   1      
2A4B  0E404100           [25] gettable   0   0   261  ; 998307158
2A4F  22808000           [26] call       0   1   2  
2A53  1A400080           [27] jmp        2            ; to [30]
2A57  17400000           [28] loadbool   0   0   1    ; false, to [30]
2A5B  17008000           [29] loadbool   0   1   0    ; true
2A5F  1E000001           [30] return     0   2      
2A63  1E008000           [31] return     0   1      
                         * constants:
2A67  06                 sizek (6)
2A68  01                 const type 3
2A69  65770E40           const [0]: (1074689893)
2A6D  04                 const type 4
2A6E  0B                 string size (11)
2A6F  6747616D6552756C+  "gGameRul"
2A77  657300             "es\0"
                         const [1]: "gGameRules"
2A7A  01                 const type 3
2A7B  D48E598B           const [2]: (-1957065004)
2A7F  04                 const type 4
2A80  17                 string size (23)
2A81  674C6F7475734875+  "gLotusHu"
2A89  6247616D6552756C+  "bGameRul"
2A91  65735479706500     "esType\0"
                         const [3]: "gLotusHubGameRulesType"
2A98  04                 const type 4
2A99  1C                 string size (28)
2A9A  674C6F7475734669+  "gLotusFi"
2AA2  676874696E674761+  "ghtingGa"
2AAA  6D6552756C657354+  "meRulesT"
2AB2  79706500           "ype\0"
                         const [4]: "gLotusFightingGameRulesType"
2AB6  01                 const type 3
2AB7  56F5803B           const [5]: (998307158)
                         * functions:
2ABB  00                 sizep (0)
                         * lines:
2ABC  1F                 sizelineinfo (31)
                         [pc] (line)
2ABD  8A                 [01] (-118)
2ABE  01                 [02] (-118)
2ABF  00                 [03] (-118)
2AC0  00                 [04] (-118)
2AC1  8A                 [05] (-118)
2AC2  01                 [06] (-118)
2AC3  00                 [07] (-118)
2AC4  00                 [08] (-118)
2AC5  8A                 [09] (-118)
2AC6  01                 [10] (-118)
2AC7  00                 [11] (-118)
2AC8  00                 [12] (-118)
2AC9  8A                 [13] (-118)
2ACA  01                 [14] (-118)
2ACB  00                 [15] (-118)
2ACC  00                 [16] (-118)
2ACD  8A                 [17] (-118)
2ACE  01                 [18] (-118)
2ACF  00                 [19] (-118)
2AD0  00                 [20] (-118)
2AD1  8A                 [21] (-118)
2AD2  01                 [22] (-118)
2AD3  00                 [23] (-118)
2AD4  00                 [24] (-118)
2AD5  8A                 [25] (-118)
2AD6  01                 [26] (-118)
2AD7  00                 [27] (-118)
2AD8  00                 [28] (-118)
2AD9  8A                 [29] (-118)
2ADA  01                 [30] (-118)
2ADB  00                 [31] (-117)
                         * locals:
2B39  00                 sizelocvars (0)
                         * upvalues:
2B3A  00                 sizeupvalues (0)
                         ** end of function **

                         
2B3B                     ** function [27] definition (level 2)
                         ** start of function **
2B3B  00                 string size (0)
                         source name: (none)
2B3D  03                 line defined (397)
2B3E  B3                 last line defined (435)
2B3F  03                 nups (0)
2B40  00                 numparams (2)
2B41  02                 is_vararg (0)
2B42  00                 maxstacksize (8)
                         * code:
2B44  64                 sizecode (100)
2B45  A4004000           [001] self       2   0   256  ; -605089866
2B49  A2800001           [002] call       2   2   2  
2B4D  58000000           [003] test       1       0    ; to [5] if true
2B51  1A800A80           [004] jmp        43           ; to [48]
2B55  DD400000           [005] getglobal  3   1        ; _T
2B59  CE80C001           [006] gettable   3   3   258  ; "blockProcs"
fail op	35
2B5D  23C0C001           [007] close      0  
2B61  1A800080           [008] jmp        3            ; to [12]
2B65  DD400000           [009] getglobal  3   1        ; _T
2B69  0B010000           [010] newtable   4   0   0    ; array=0, hash=0
2B6D  CC000181           [011] settable   3   258 4    ; "blockProcs"
2B71  DD400000           [012] getglobal  3   1        ; _T
2B75  CE80C001           [013] gettable   3   3   258  ; "blockProcs"
2B79  CE808001           [014] gettable   3   3   2  
fail op	35
2B7D  23C0C001           [015] close      0  
2B81  1A000480           [016] jmp        17           ; to [34]
2B85  DD400000           [017] getglobal  3   1        ; _T
2B89  CE80C001           [018] gettable   3   3   258  ; "blockProcs"
2B8D  CC004101           [019] settable   3   2   260  ; 0
2B91  DD400100           [020] getglobal  3   5        ; gRegion
2B95  E480C101           [021] self       3   3   262  ; -1520831144
2B99  E2800001           [022] call       3   2   2  
2B9D  D8000000           [023] test       3       0    ; to [25] if true
2BA1  1A000280           [024] jmp        9            ; to [34]
2BA5  E4C04100           [025] self       3   0   263  ; -1917464545
2BA9  E2800001           [026] call       3   2   2  
2BAD  E400C201           [027] self       3   3   264  ; 991629753
2BB1  5D410200           [028] getglobal  5   9        ; Game
2BB5  4E81C202           [029] gettable   5   5   266  ; "AVATAR_INJURY_BLOCK_CHANCE"
2BB9  9D410200           [030] getglobal  6   9        ; Game
2BBD  8EC14203           [031] gettable   6   6   267  ; "SET"
2BC1  D9010300           [032] loadk      7   12       ; 0
2BC5  E2408002           [033] call       3   5   1  
2BC9  DD400000           [034] getglobal  3   1        ; _T
2BCD  CE80C001           [035] gettable   3   3   258  ; "blockProcs"
2BD1  1D410000           [036] getglobal  4   1        ; _T
2BD5  0E814002           [037] gettable   4   4   258  ; "blockProcs"
2BD9  0E810002           [038] gettable   4   4   2  
2BDD  03014302           [039] add        4   4   268  ; 0
2BE1  CC000101           [040] settable   3   2   4  
2BE5  E4404300           [041] self       3   0   269  ; -1544157541
2BE9  E2800001           [042] call       3   2   2  
2BED  E480C301           [043] self       3   3   270  ; 1237145005
2BF1  5DC10300           [044] getglobal  5   15       ; Engine
2BF5  4E01C402           [045] gettable   5   5   272  ; "PAIN"
2BF9  E2408001           [046] call       3   3   1  
2BFD  1AC00C80           [047] jmp        52           ; to [100]
2C01  DD400000           [048] getglobal  3   1        ; _T
2C05  CE80C001           [049] gettable   3   3   258  ; "blockProcs"
fail op	35
2C09  63C0C001           [050] close      1  
2C0D  1AC00B80           [051] jmp        48           ; to [100]
2C11  DD400000           [052] getglobal  3   1        ; _T
2C15  CE80C001           [053] gettable   3   3   258  ; "blockProcs"
2C19  CE808001           [054] gettable   3   3   2  
2C1D  D8000000           [055] test       3       0    ; to [57] if true
2C21  1A800A80           [056] jmp        43           ; to [100]
2C25  DD400000           [057] getglobal  3   1        ; _T
2C29  CE80C001           [058] gettable   3   3   258  ; "blockProcs"
2C2D  1D410000           [059] getglobal  4   1        ; _T
2C31  0E814002           [060] gettable   4   4   258  ; "blockProcs"
2C35  0E810002           [061] gettable   4   4   2  
2C39  0D014302           [062] sub        4   4   268  ; 0
2C3D  CC000101           [063] settable   3   2   4  
2C41  DD400000           [064] getglobal  3   1        ; _T
2C45  CE80C001           [065] gettable   3   3   258  ; "blockProcs"
2C49  CE808001           [066] gettable   3   3   2  
fail op	35
2C4D  2300C101           [067] close      0  
2C51  1A800780           [068] jmp        31           ; to [100]
2C55  E4404300           [069] self       3   0   269  ; -1544157541
2C59  E2800001           [070] call       3   2   2  
2C5D  E480C301           [071] self       3   3   270  ; 1237145005
2C61  5DC10300           [072] getglobal  5   15       ; Engine
2C65  4E41C402           [073] gettable   5   5   273  ; "MAX_Injury"
2C69  E2408001           [074] call       3   3   1  
2C6D  DD400100           [075] getglobal  3   5        ; gRegion
2C71  E480C101           [076] self       3   3   262  ; -1520831144
2C75  E2800001           [077] call       3   2   2  
2C79  D8000000           [078] test       3       0    ; to [80] if true
2C7D  1A000280           [079] jmp        9            ; to [89]
2C81  E4C04100           [080] self       3   0   263  ; -1917464545
2C85  E2800001           [081] call       3   2   2  
2C89  E480C401           [082] self       3   3   274  ; -233482841
2C8D  5D410200           [083] getglobal  5   9        ; Game
2C91  4E81C202           [084] gettable   5   5   266  ; "AVATAR_INJURY_BLOCK_CHANCE"
2C95  9D410200           [085] getglobal  6   9        ; Game
2C99  8EC14203           [086] gettable   6   6   267  ; "SET"
2C9D  D9010300           [087] loadk      7   12       ; 0
2CA1  E2408002           [088] call       3   5   1  
2CA5  DD400000           [089] getglobal  3   1        ; _T
2CA9  CE80C001           [090] gettable   3   3   258  ; "blockProcs"
2CAD  CCC04001           [091] settable   3   2   259  ; nil
2CB1  DDC00400           [092] getglobal  3   19       ; -1442191459
2CB5  1D410000           [093] getglobal  4   1        ; _T
2CB9  0E814002           [094] gettable   4   4   258  ; "blockProcs"
2CBD  E2800001           [095] call       3   2   2  
fail op	35
2CC1  23C0C001           [096] close      0  
2CC5  1A400080           [097] jmp        2            ; to [100]
2CC9  DD400000           [098] getglobal  3   1        ; _T
2CCD  CCC04081           [099] settable   3   258 259  ; "blockProcs" nil
2CD1  1E008000           [100] return     0   1      
                         * constants:
2CD5  14                 sizek (20)
2CD6  01                 const type 3
2CD7  B60FEFDB           const [0]: (-605089866)
2CDB  04                 const type 4
2CDC  03                 string size (3)
2CDD  5F5400             "_T\0"
                         const [1]: "_T"
2CE0  04                 const type 4
2CE1  0B                 string size (11)
2CE2  626C6F636B50726F+  "blockPro"
2CEA  637300             "cs\0"
                         const [2]: "blockProcs"
2CED  00                 const type 0
                         const [3]: nil
2CEE  03                 const type 3
2CEF  00000000           const [4]: (0)
2CF3  04                 const type 4
2CF4  08                 string size (8)
2CF5  67526567696F6E00   "gRegion\0"
                         const [5]: "gRegion"
2CFD  01                 const type 3
2CFE  58F559A5           const [6]: (-1520831144)
2D02  01                 const type 3
2D03  1FD0B58D           const [7]: (-1917464545)
2D07  01                 const type 3
2D08  B9111B3B           const [8]: (991629753)
2D0C  04                 const type 4
2D0D  05                 string size (5)
2D0E  47616D6500         "Game\0"
                         const [9]: "Game"
2D13  04                 const type 4
2D14  1B                 string size (27)
2D15  4156415441525F49+  "AVATAR_I"
2D1D  4E4A5552595F424C+  "NJURY_BL"
2D25  4F434B5F4348414E+  "OCK_CHAN"
2D2D  434500             "CE\0"
                         const [10]: "AVATAR_INJURY_BLOCK_CHANCE"
2D30  04                 const type 4
2D31  04                 string size (4)
2D32  53455400           "SET\0"
                         const [11]: "SET"
2D36  03                 const type 3
2D37  0000803F           const [12]: (0)
2D3B  01                 const type 3
2D3C  9B06F6A3           const [13]: (-1544157541)
2D40  01                 const type 3
2D41  AD55BD49           const [14]: (1237145005)
2D45  04                 const type 4
2D46  07                 string size (7)
2D47  456E67696E6500     "Engine\0"
                         const [15]: "Engine"
2D4E  04                 const type 4
2D4F  05                 string size (5)
2D50  5041494E00         "PAIN\0"
                         const [16]: "PAIN"
2D55  04                 const type 4
2D56  0B                 string size (11)
2D57  4D41585F496E6A75+  "MAX_Inju"
2D5F  727900             "ry\0"
                         const [17]: "MAX_Injury"
2D62  01                 const type 3
2D63  A75515F2           const [18]: (-233482841)
2D67  01                 const type 3
2D68  9DE709AA           const [19]: (-1442191459)
                         * functions:
2D6C  00                 sizep (0)
                         * lines:
2D6D  64                 sizelineinfo (100)
                         [pc] (line)
2D6E  8E                 [001] (-114)
2D6F  01                 [002] (-114)
2D70  00                 [003] (-113)
2D71  00                 [004] (-113)
2D72  8E                 [005] (-112)
2D73  01                 [006] (-112)
2D74  00                 [007] (-112)
2D75  00                 [008] (-112)
2D76  8F                 [009] (-111)
2D77  01                 [010] (-111)
2D78  00                 [011] (-111)
2D79  00                 [012] (-108)
2D7A  8F                 [013] (-108)
2D7B  01                 [014] (-108)
2D7C  00                 [015] (-108)
2D7D  00                 [016] (-108)
2D7E  90                 [017] (-107)
2D7F  01                 [018] (-107)
2D80  00                 [019] (-107)
2D81  00                 [020] (-105)
2D82  90                 [021] (-105)
2D83  01                 [022] (-105)
2D84  00                 [023] (-105)
2D85  00                 [024] (-105)
2D86  90                 [025] (-104)
2D87  01                 [026] (-104)
2D88  00                 [027] (-104)
2D89  00                 [028] (-104)
2D8A  90                 [029] (-104)
2D8B  01                 [030] (-104)
2D8C  00                 [031] (-104)
2D8D  00                 [032] (-104)
2D8E  91                 [033] (-104)
2D8F  01                 [034] (-100)
2D90  00                 [035] (-100)
2D91  00                 [036] (-100)
2D92  91                 [037] (-100)
2D93  01                 [038] (-100)
2D94  00                 [039] (-100)
2D95  00                 [040] (-100)
2D96  91                 [041] (-98)
2D97  01                 [042] (-98)
2D98  00                 [043] (-98)
2D99  00                 [044] (-98)
2D9A  94                 [045] (-98)
2D9B  01                 [046] (-98)
2D9C  00                 [047] (-98)
2D9D  00                 [048] (-96)
2D9E  94                 [049] (-96)
2D9F  01                 [050] (-96)
2DA0  00                 [051] (-96)
2DA1  00                 [052] (-95)
2DA2  94                 [053] (-95)
2DA3  01                 [054] (-95)
2DA4  00                 [055] (-95)
2DA5  00                 [056] (-95)
2DA6  94                 [057] (-94)
2DA7  01                 [058] (-94)
2DA8  00                 [059] (-94)
2DA9  00                 [060] (-94)
2DAA  94                 [061] (-94)
2DAB  01                 [062] (-94)
2DAC  00                 [063] (-94)
2DAD  00                 [064] (-92)
2DAE  95                 [065] (-92)
2DAF  01                 [066] (-92)
2DB0  00                 [067] (-92)
2DB1  00                 [068] (-92)
2DB2  95                 [069] (-91)
2DB3  01                 [070] (-91)
2DB4  00                 [071] (-91)
2DB5  00                 [072] (-91)
2DB6  95                 [073] (-91)
2DB7  01                 [074] (-91)
2DB8  00                 [075] (-89)
2DB9  00                 [076] (-89)
2DBA  97                 [077] (-89)
2DBB  01                 [078] (-89)
2DBC  00                 [079] (-89)
2DBD  00                 [080] (-88)
2DBE  97                 [081] (-88)
2DBF  01                 [082] (-88)
2DC0  00                 [083] (-88)
2DC1  00                 [084] (-88)
2DC2  97                 [085] (-88)
2DC3  01                 [086] (-88)
2DC4  00                 [087] (-88)
2DC5  00                 [088] (-88)
2DC6  97                 [089] (-85)
2DC7  01                 [090] (-85)
2DC8  00                 [091] (-85)
2DC9  00                 [092] (-84)
2DCA  97                 [093] (-84)
2DCB  01                 [094] (-84)
2DCC  00                 [095] (-84)
2DCD  00                 [096] (-84)
2DCE  98                 [097] (-84)
2DCF  01                 [098] (-83)
2DD0  00                 [099] (-83)
2DD1  00                 [100] (-77)
                         * locals:
2EFE  00                 sizelocvars (0)
                         * upvalues:
2EFF  00                 sizeupvalues (0)
                         ** end of function **

                         
2F00                     ** function [28] definition (level 2)
                         ** start of function **
2F00  00                 string size (0)
                         source name: (none)
2F02  03                 line defined (437)
2F03  C1                 last line defined (449)
2F04  03                 nups (0)
2F05  00                 numparams (1)
2F06  01                 is_vararg (0)
2F07  00                 maxstacksize (5)
                         * code:
2F09  1F                 sizecode (31)
2F0A  5D000000           [01] getglobal  1   0        ; _T
2F0E  4E40C000           [02] gettable   1   1   257  ; "shieldGated"
fail op	35
2F12  2380C000           [03] close      0  
2F16  1A800080           [04] jmp        3            ; to [8]
2F1A  5D000000           [05] getglobal  1   0        ; _T
2F1E  8B000000           [06] newtable   2   0   0    ; array=0, hash=0
2F22  4C808080           [07] settable   1   257 2    ; "shieldGated"
2F26  64C04000           [08] self       1   0   259  ; -605089866
2F2A  62800001           [09] call       1   2   2  
2F2E  9D000000           [10] getglobal  2   0        ; _T
2F32  8E404001           [11] gettable   2   2   257  ; "shieldGated"
2F36  8E400001           [12] gettable   2   2   1  
fail op	35
2F3A  23804001           [13] close      0  
2F3E  1A000280           [14] jmp        9            ; to [24]
2F42  A4004100           [15] self       2   0   260  ; -1544157541
2F46  A2800001           [16] call       2   2   2  
2F4A  A4404101           [17] self       2   2   261  ; -1168639906
2F4E  17018000           [18] loadbool   4   1   0    ; true
2F52  A2408001           [19] call       2   3   1  
2F56  9D000000           [20] getglobal  2   0        ; _T
2F5A  8E404001           [21] gettable   2   2   257  ; "shieldGated"
2F5E  8C80C100           [22] settable   2   1   262  ; 0
2F62  1A800180           [23] jmp        7            ; to [31]
2F66  9D000000           [24] getglobal  2   0        ; _T
2F6A  8E404001           [25] gettable   2   2   257  ; "shieldGated"
2F6E  DD000000           [26] getglobal  3   0        ; _T
2F72  CE40C001           [27] gettable   3   3   257  ; "shieldGated"
2F76  CE408001           [28] gettable   3   3   1  
2F7A  C380C101           [29] add        3   3   262  ; 0
2F7E  8CC08000           [30] settable   2   1   3  
2F82  1E008000           [31] return     0   1      
                         * constants:
2F86  07                 sizek (7)
2F87  04                 const type 4
2F88  03                 string size (3)
2F89  5F5400             "_T\0"
                         const [0]: "_T"
2F8C  04                 const type 4
2F8D  0C                 string size (12)
2F8E  736869656C644761+  "shieldGa"
2F96  74656400           "ted\0"
                         const [1]: "shieldGated"
2F9A  00                 const type 0
                         const [2]: nil
2F9B  01                 const type 3
2F9C  B60FEFDB           const [3]: (-605089866)
2FA0  01                 const type 3
2FA1  9B06F6A3           const [4]: (-1544157541)
2FA5  01                 const type 3
2FA6  5EF857BA           const [5]: (-1168639906)
2FAA  03                 const type 3
2FAB  0000803F           const [6]: (0)
                         * functions:
2FAF  00                 sizep (0)
                         * lines:
2FB0  1F                 sizelineinfo (31)
                         [pc] (line)
2FB1  B6                 [01] (-74)
2FB2  01                 [02] (-74)
2FB3  00                 [03] (-74)
2FB4  00                 [04] (-74)
2FB5  B6                 [05] (-73)
2FB6  01                 [06] (-73)
2FB7  00                 [07] (-73)
2FB8  00                 [08] (-70)
2FB9  B6                 [09] (-70)
2FBA  01                 [10] (-69)
2FBB  00                 [11] (-69)
2FBC  00                 [12] (-69)
2FBD  B6                 [13] (-69)
2FBE  01                 [14] (-69)
2FBF  00                 [15] (-68)
2FC0  00                 [16] (-68)
2FC1  B7                 [17] (-68)
2FC2  01                 [18] (-68)
2FC3  00                 [19] (-68)
2FC4  00                 [20] (-67)
2FC5  B7                 [21] (-67)
2FC6  01                 [22] (-67)
2FC7  00                 [23] (-67)
2FC8  00                 [24] (-65)
2FC9  B7                 [25] (-65)
2FCA  01                 [26] (-65)
2FCB  00                 [27] (-65)
2FCC  00                 [28] (-65)
2FCD  BA                 [29] (-65)
2FCE  01                 [30] (-65)
2FCF  00                 [31] (-63)
                         * locals:
302D  00                 sizelocvars (0)
                         * upvalues:
302E  00                 sizeupvalues (0)
                         ** end of function **

                         
302F                     ** function [29] definition (level 2)
                         ** start of function **
302F  00                 string size (0)
                         source name: (none)
3031  03                 line defined (451)
3032  D7                 last line defined (471)
3033  03                 nups (0)
3034  00                 numparams (1)
3035  01                 is_vararg (0)
3036  00                 maxstacksize (5)
                         * code:
3038  2A                 sizecode (42)
3039  5D000000           [01] getglobal  1   0        ; _T
303D  4E40C000           [02] gettable   1   1   257  ; "shieldGated"
fail op	35
3041  2380C000           [03] close      0  
3045  1A000080           [04] jmp        1            ; to [6]
3049  1E008000           [05] return     0   1      
304D  64C04000           [06] self       1   0   259  ; -605089866
3051  62800001           [07] call       1   2   2  
3055  9D000000           [08] getglobal  2   0        ; _T
3059  8E404001           [09] gettable   2   2   257  ; "shieldGated"
305D  8E400001           [10] gettable   2   2   1  
fail op	35
3061  23804001           [11] close      0  
3065  1A000080           [12] jmp        1            ; to [14]
3069  1E008000           [13] return     0   1      
306D  9D000000           [14] getglobal  2   0        ; _T
3071  8E404001           [15] gettable   2   2   257  ; "shieldGated"
3075  DD000000           [16] getglobal  3   0        ; _T
3079  CE40C001           [17] gettable   3   3   257  ; "shieldGated"
307D  CE408001           [18] gettable   3   3   1  
3081  CD00C101           [19] sub        3   3   260  ; 0
3085  8CC08000           [20] settable   2   1   3  
3089  9D000000           [21] getglobal  2   0        ; _T
308D  8E404001           [22] gettable   2   2   257  ; "shieldGated"
3091  8E400001           [23] gettable   2   2   1  
fail op	33
3095  21404101           [24] tforloop   0       261  ; to [26] if exit
3099  1AC00380           [25] jmp        16           ; to [42]
309D  A4804100           [26] self       2   0   262  ; -1544157541
30A1  A2800001           [27] call       2   2   2  
30A5  A4C04101           [28] self       2   2   263  ; -1168639906
30A9  17010000           [29] loadbool   4   0   0    ; false
30AD  A2408001           [30] call       2   3   1  
30B1  9D000000           [31] getglobal  2   0        ; _T
30B5  8E404001           [32] gettable   2   2   257  ; "shieldGated"
30B9  8C80C000           [33] settable   2   1   258  ; nil
30BD  9D000200           [34] getglobal  2   8        ; -1442191459
30C1  DD000000           [35] getglobal  3   0        ; _T
30C5  CE40C001           [36] gettable   3   3   257  ; "shieldGated"
30C9  A2800001           [37] call       2   2   2  
fail op	35
30CD  23804001           [38] close      0  
30D1  1A400080           [39] jmp        2            ; to [42]
30D5  9D000000           [40] getglobal  2   0        ; _T
30D9  8C80C080           [41] settable   2   257 258  ; "shieldGated" nil
30DD  1E008000           [42] return     0   1      
                         * constants:
30E1  09                 sizek (9)
30E2  04                 const type 4
30E3  03                 string size (3)
30E4  5F5400             "_T\0"
                         const [0]: "_T"
30E7  04                 const type 4
30E8  0C                 string size (12)
30E9  736869656C644761+  "shieldGa"
30F1  74656400           "ted\0"
                         const [1]: "shieldGated"
30F5  00                 const type 0
                         const [2]: nil
30F6  01                 const type 3
30F7  B60FEFDB           const [3]: (-605089866)
30FB  03                 const type 3
30FC  0000803F           const [4]: (0)
3100  03                 const type 3
3101  00000000           const [5]: (0)
3105  01                 const type 3
3106  9B06F6A3           const [6]: (-1544157541)
310A  01                 const type 3
310B  5EF857BA           const [7]: (-1168639906)
310F  01                 const type 3
3110  9DE709AA           const [8]: (-1442191459)
                         * functions:
3114  00                 sizep (0)
                         * lines:
3115  2A                 sizelineinfo (42)
                         [pc] (line)
3116  C4                 [01] (-60)
3117  01                 [02] (-60)
3118  00                 [03] (-60)
3119  00                 [04] (-60)
311A  C4                 [05] (-59)
311B  01                 [06] (-56)
311C  00                 [07] (-56)
311D  00                 [08] (-55)
311E  C4                 [09] (-55)
311F  01                 [10] (-55)
3120  00                 [11] (-55)
3121  00                 [12] (-55)
3122  C4                 [13] (-54)
3123  01                 [14] (-51)
3124  00                 [15] (-51)
3125  00                 [16] (-51)
3126  C5                 [17] (-51)
3127  01                 [18] (-51)
3128  00                 [19] (-51)
3129  00                 [20] (-51)
312A  C8                 [21] (-49)
312B  01                 [22] (-49)
312C  00                 [23] (-49)
312D  00                 [24] (-49)
312E  C8                 [25] (-49)
312F  01                 [26] (-48)
3130  00                 [27] (-48)
3131  00                 [28] (-48)
3132  C9                 [29] (-48)
3133  01                 [30] (-48)
3134  00                 [31] (-47)
3135  00                 [32] (-47)
3136  C9                 [33] (-47)
3137  01                 [34] (-45)
3138  00                 [35] (-45)
3139  00                 [36] (-45)
313A  C9                 [37] (-45)
313B  01                 [38] (-45)
313C  00                 [39] (-45)
313D  00                 [40] (-44)
313E  C9                 [41] (-44)
313F  01                 [42] (-41)
                         * locals:
31BE  00                 sizelocvars (0)
                         * upvalues:
31BF  00                 sizeupvalues (0)
                         ** end of function **

                         
31C0                     ** function [30] definition (level 2)
                         ** start of function **
31C0  00                 string size (0)
                         source name: (none)
31C2  03                 line defined (473)
31C3  E1                 last line defined (481)
31C4  03                 nups (0)
31C5  00                 numparams (0)
31C6  00                 is_vararg (0)
31C7  00                 maxstacksize (2)
                         * code:
31C9  11                 sizecode (17)
31CA  1D000000           [01] getglobal  0   0        ; _T
31CE  0E404000           [02] gettable   0   0   257  ; "globalAbilityTimerId"
fail op	35
31D2  23804000           [03] close      0  
31D6  1A800080           [04] jmp        3            ; to [8]
31DA  1D000000           [05] getglobal  0   0        ; _T
31DE  0CC0C080           [06] settable   0   257 259  ; "globalAbilityTimerId" 0
31E2  1A400180           [07] jmp        6            ; to [14]
31E6  1D000000           [08] getglobal  0   0        ; _T
31EA  5D000000           [09] getglobal  1   0        ; _T
31EE  4E40C000           [10] gettable   1   1   257  ; "globalAbilityTimerId"
31F2  4300C100           [11] add        1   1   260  ; 0
31F6  5F40C100           [12] mod        1   1   261  ; 0
31FA  0C408080           [13] settable   0   257 1    ; "globalAbilityTimerId"
31FE  1D000000           [14] getglobal  0   0        ; _T
3202  0E404000           [15] gettable   0   0   257  ; "globalAbilityTimerId"
3206  1E000001           [16] return     0   2      
320A  1E008000           [17] return     0   1      
                         * constants:
320E  06                 sizek (6)
320F  04                 const type 4
3210  03                 string size (3)
3211  5F5400             "_T\0"
                         const [0]: "_T"
3214  04                 const type 4
3215  15                 string size (21)
3216  676C6F62616C4162+  "globalAb"
321E  696C69747954696D+  "ilityTim"
3226  6572496400         "erId\0"
                         const [1]: "globalAbilityTimerId"
322B  00                 const type 0
                         const [2]: nil
322C  03                 const type 3
322D  00000000           const [3]: (0)
3231  03                 const type 3
3232  0000803F           const [4]: (0)
3236  03                 const type 3
3237  00247449           const [5]: (0)
                         * functions:
323B  00                 sizep (0)
                         * lines:
323C  11                 sizelineinfo (17)
                         [pc] (line)
323D  DA                 [01] (-38)
323E  01                 [02] (-38)
323F  00                 [03] (-38)
3240  00                 [04] (-38)
3241  DA                 [05] (-37)
3242  01                 [06] (-37)
3243  00                 [07] (-37)
3244  00                 [08] (-35)
3245  DA                 [09] (-35)
3246  01                 [10] (-35)
3247  00                 [11] (-35)
3248  00                 [12] (-35)
3249  DA                 [13] (-35)
324A  01                 [14] (-32)
324B  00                 [15] (-32)
324C  00                 [16] (-32)
324D  DB                 [17] (-31)
                         * locals:
3281  00                 sizelocvars (0)
                         * upvalues:
3282  00                 sizeupvalues (0)
                         ** end of function **

                         
3283                     ** function [31] definition (level 2)
                         ** start of function **
3283  00                 string size (0)
                         source name: (none)
3285  03                 line defined (483)
3286  97                 last line defined (535)
3287  04                 nups (0)
3288  00                 numparams (2)
3289  02                 is_vararg (0)
328A  00                 maxstacksize (9)
                         * code:
328C  79                 sizecode (121)
328D  9D000000           [001] getglobal  2   0        ; gRegion
3291  A4404001           [002] self       2   2   257  ; -1520831144
3295  A2800001           [003] call       2   2   2  
3299  98400000           [004] test       2       1    ; to [6] if false
329D  1A400080           [005] jmp        2            ; to [8]
32A1  86000001           [006] loadnil    2   2      
32A5  9E000001           [007] return     2   2      
32A9  A4804000           [008] self       2   0   258  ; -1411785325
32AD  A2800001           [009] call       2   2   2  
32B1  DDC00000           [010] getglobal  3   3        ; 1074689893
32B5  12010001           [011] move       4   2      
32B9  E2800001           [012] call       3   2   2  
32BD  D8000000           [013] test       3       0    ; to [15] if true
32C1  1A400080           [014] jmp        2            ; to [17]
32C5  C6008001           [015] loadnil    3   3      
32C9  DE000001           [016] return     3   2      
32CD  D7008000           [017] loadbool   3   1   0    ; true
32D1  58000000           [018] test       1       0    ; to [20] if true
32D5  1A800E80           [019] jmp        59           ; to [79]
32D9  1D010100           [020] getglobal  4   4        ; _T
32DD  0E414102           [021] gettable   4   4   261  ; "aiDirTrackAgent"
fail op	35
32E1  63804102           [022] close      1  
32E5  1A800980           [023] jmp        39           ; to [63]
32E9  24C14100           [024] self       4   0   263  ; -605089866
32ED  22810001           [025] call       4   2   2  
32F1  5D010100           [026] getglobal  5   4        ; _T
32F5  4E41C102           [027] gettable   5   5   261  ; "aiDirTrackAgent"
32F9  4E018102           [028] gettable   5   5   4  
fail op	35
32FD  6380C102           [029] close      1  
3301  1A800580           [030] jmp        23           ; to [54]
3305  5D010100           [031] getglobal  5   4        ; _T
3309  4E41C102           [032] gettable   5   5   261  ; "aiDirTrackAgent"
330D  9D010100           [033] getglobal  6   4        ; _T
3311  8E414103           [034] gettable   6   6   261  ; "aiDirTrackAgent"
3315  8E010103           [035] gettable   6   6   4  
3319  8D014203           [036] sub        6   6   264  ; 0
331D  4C810102           [037] settable   5   4   6  
3321  5D010100           [038] getglobal  5   4        ; _T
3325  4E41C102           [039] gettable   5   5   261  ; "aiDirTrackAgent"
3329  4E018102           [040] gettable   5   5   4  
fail op	33
332D  2140C202           [041] tforloop   0       265  ; to [43] if exit
3331  1A800280           [042] jmp        11           ; to [54]
3335  5D010000           [043] getglobal  5   0        ; gRegion
3339  6481C202           [044] self       5   5   266  ; -774964848
333D  62810001           [045] call       5   2   2  
3341  64C1C202           [046] self       5   5   267  ; 537471347
3345  62810001           [047] call       5   2   2  
3349  6401C302           [048] self       5   5   268  ; -671589828
334D  D2010001           [049] move       7   2      
3351  62418001           [050] call       5   3   1  
3355  5D010100           [051] getglobal  5   4        ; _T
3359  4E41C102           [052] gettable   5   5   261  ; "aiDirTrackAgent"
335D  4C814102           [053] settable   5   4   262  ; nil
3361  5D410300           [054] getglobal  5   13       ; -1442191459
3365  9D010100           [055] getglobal  6   4        ; _T
3369  8E414103           [056] gettable   6   6   261  ; "aiDirTrackAgent"
336D  62810001           [057] call       5   2   2  
fail op	35
3371  2380C102           [058] close      0  
3375  1A800380           [059] jmp        15           ; to [75]
3379  5D010100           [060] getglobal  5   4        ; _T
337D  4C81C182           [061] settable   5   261 262  ; "aiDirTrackAgent" nil
3381  1AC00280           [062] jmp        12           ; to [75]
3385  64814301           [063] self       5   2   270  ; 1298798293
3389  62810001           [064] call       5   2   2  
338D  58010000           [065] test       5       0    ; to [67] if true
3391  1AC00180           [066] jmp        8            ; to [75]
3395  5D010000           [067] getglobal  5   0        ; gRegion
3399  6481C202           [068] self       5   5   266  ; -774964848
339D  62810001           [069] call       5   2   2  
33A1  64C1C202           [070] self       5   5   267  ; 537471347
33A5  62810001           [071] call       5   2   2  
33A9  6401C302           [072] self       5   5   268  ; -671589828
33AD  D2010001           [073] move       7   2      
33B1  62418001           [074] call       5   3   1  
33B5  64814301           [075] self       5   2   270  ; 1298798293
33B9  62810001           [076] call       5   2   2  
33BD  D2008002           [077] move       3   5      
33C1  1A000A80           [078] jmp        41           ; to [120]
33C5  64814301           [079] self       5   2   270  ; 1298798293
33C9  62810001           [080] call       5   2   2  
33CD  D2008002           [081] move       3   5      
33D1  5D010100           [082] getglobal  5   4        ; _T
33D5  4E41C102           [083] gettable   5   5   261  ; "aiDirTrackAgent"
fail op	35
33D9  2380C102           [084] close      0  
33DD  1A800080           [085] jmp        3            ; to [89]
33E1  5D010100           [086] getglobal  5   4        ; _T
33E5  8B010000           [087] newtable   6   0   0    ; array=0, hash=0
33E9  4C818182           [088] settable   5   261 6    ; "aiDirTrackAgent"
33ED  64C14100           [089] self       5   0   263  ; -605089866
33F1  62810001           [090] call       5   2   2  
33F5  9D010100           [091] getglobal  6   4        ; _T
33F9  8E414103           [092] gettable   6   6   261  ; "aiDirTrackAgent"
33FD  8E410103           [093] gettable   6   6   5  
fail op	35
3401  23804103           [094] close      0  
3405  1A000480           [095] jmp        17           ; to [113]
3409  D8000000           [096] test       3       0    ; to [98] if true
340D  1AC00080           [097] jmp        4            ; to [102]
3411  9D010100           [098] getglobal  6   4        ; _T
3415  8E414103           [099] gettable   6   6   261  ; "aiDirTrackAgent"
3419  8C01C202           [100] settable   6   5   264  ; 0
341D  1A800080           [101] jmp        3            ; to [105]
3421  9D010100           [102] getglobal  6   4        ; _T
3425  8E414103           [103] gettable   6   6   261  ; "aiDirTrackAgent"
3429  8C41C202           [104] settable   6   5   265  ; 0
342D  9D010000           [105] getglobal  6   0        ; gRegion
3431  A4814203           [106] self       6   6   266  ; -774964848
3435  A2810001           [107] call       6   2   2  
3439  A4C14203           [108] self       6   6   267  ; 537471347
343D  A2810001           [109] call       6   2   2  
3441  A4C14303           [110] self       6   6   271  ; 2126276160
3445  12020001           [111] move       8   2      
3449  A2418001           [112] call       6   3   1  
344D  9D010100           [113] getglobal  6   4        ; _T
3451  8E414103           [114] gettable   6   6   261  ; "aiDirTrackAgent"
3455  DD010100           [115] getglobal  7   4        ; _T
3459  CE41C103           [116] gettable   7   7   261  ; "aiDirTrackAgent"
345D  CE418103           [117] gettable   7   7   5  
3461  C301C203           [118] add        7   7   264  ; 0
3465  8CC18102           [119] settable   6   5   7  
3469  DE000001           [120] return     3   2      
346D  1E008000           [121] return     0   1      
                         * constants:
3471  10                 sizek (16)
3472  04                 const type 4
3473  08                 string size (8)
3474  67526567696F6E00   "gRegion\0"
                         const [0]: "gRegion"
347C  01                 const type 3
347D  58F559A5           const [1]: (-1520831144)
3481  01                 const type 3
3482  93DDD9AB           const [2]: (-1411785325)
3486  01                 const type 3
3487  65770E40           const [3]: (1074689893)
348B  04                 const type 4
348C  03                 string size (3)
348D  5F5400             "_T\0"
                         const [4]: "_T"
3490  04                 const type 4
3491  10                 string size (16)
3492  6169446972547261+  "aiDirTra"
349A  636B4167656E7400   "ckAgent\0"
                         const [5]: "aiDirTrackAgent"
34A2  00                 const type 0
                         const [6]: nil
34A3  01                 const type 3
34A4  B60FEFDB           const [7]: (-605089866)
34A8  03                 const type 3
34A9  0000803F           const [8]: (0)
34AD  03                 const type 3
34AE  00000000           const [9]: (0)
34B2  01                 const type 3
34B3  90F9CED1           const [10]: (-774964848)
34B7  01                 const type 3
34B8  73290920           const [11]: (537471347)
34BC  01                 const type 3
34BD  3C5AF8D7           const [12]: (-671589828)
34C1  01                 const type 3
34C2  9DE709AA           const [13]: (-1442191459)
34C6  01                 const type 3
34C7  D5166A4D           const [14]: (1298798293)
34CB  01                 const type 3
34CC  4066BC7E           const [15]: (2126276160)
                         * functions:
34D0  00                 sizep (0)
                         * lines:
34D1  79                 sizelineinfo (121)
                         [pc] (line)
34D2  E4                 [001] (-28)
34D3  01                 [002] (-28)
34D4  00                 [003] (-28)
34D5  00                 [004] (-28)
34D6  E4                 [005] (-28)
34D7  01                 [006] (-27)
34D8  00                 [007] (-27)
34D9  00                 [008] (-24)
34DA  E4                 [009] (-24)
34DB  01                 [010] (-23)
34DC  00                 [011] (-23)
34DD  00                 [012] (-23)
34DE  E4                 [013] (-23)
34DF  01                 [014] (-23)
34E0  00                 [015] (-22)
34E1  00                 [016] (-22)
34E2  E4                 [017] (-19)
34E3  01                 [018] (-18)
34E4  00                 [019] (-18)
34E5  00                 [020] (-17)
34E6  E5                 [021] (-17)
34E7  01                 [022] (-17)
34E8  00                 [023] (-17)
34E9  00                 [024] (-16)
34EA  E5                 [025] (-16)
34EB  01                 [026] (-15)
34EC  00                 [027] (-15)
34ED  00                 [028] (-15)
34EE  E8                 [029] (-15)
34EF  01                 [030] (-15)
34F0  00                 [031] (-14)
34F1  00                 [032] (-14)
34F2  E8                 [033] (-14)
34F3  01                 [034] (-14)
34F4  00                 [035] (-14)
34F5  00                 [036] (-14)
34F6  E9                 [037] (-14)
34F7  01                 [038] (-12)
34F8  00                 [039] (-12)
34F9  00                 [040] (-12)
34FA  E9                 [041] (-12)
34FB  01                 [042] (-12)
34FC  00                 [043] (-11)
34FD  00                 [044] (-11)
34FE  E9                 [045] (-11)
34FF  01                 [046] (-11)
3500  00                 [047] (-11)
3501  00                 [048] (-11)
3502  E9                 [049] (-11)
3503  01                 [050] (-11)
3504  00                 [051] (-10)
3505  00                 [052] (-10)
3506  E9                 [053] (-10)
3507  01                 [054] (-6)
3508  00                 [055] (-6)
3509  00                 [056] (-6)
350A  EA                 [057] (-6)
350B  01                 [058] (-6)
350C  00                 [059] (-6)
350D  00                 [060] (-5)
350E  EA                 [061] (-5)
350F  01                 [062] (-4)
3510  00                 [063] (-3)
3511  00                 [064] (-3)
3512  ED                 [065] (-3)
3513  01                 [066] (-3)
3514  00                 [067] (-2)
3515  00                 [068] (-2)
3516  EE                 [069] (-2)
3517  01                 [070] (-2)
3518  00                 [071] (-2)
3519  00                 [072] (-2)
351A  EE                 [073] (-2)
351B  01                 [074] (-2)
351C  00                 [075] (1)
351D  00                 [076] (1)
351E  EF                 [077] (1)
351F  01                 [078] (1)
3520  00                 [079] (3)
3521  00                 [080] (3)
3522  EF                 [081] (3)
3523  01                 [082] (5)
3524  00                 [083] (5)
3525  00                 [084] (5)
3526  EF                 [085] (5)
3527  01                 [086] (6)
3528  00                 [087] (6)
3529  00                 [088] (6)
352A  EF                 [089] (9)
352B  01                 [090] (9)
352C  00                 [091] (10)
352D  00                 [092] (10)
352E  F0                 [093] (10)
352F  01                 [094] (10)
3530  00                 [095] (10)
3531  00                 [096] (11)
3532  F0                 [097] (11)
3533  01                 [098] (12)
3534  00                 [099] (12)
3535  00                 [100] (12)
3536  F1                 [101] (12)
3537  01                 [102] (14)
3538  00                 [103] (14)
3539  00                 [104] (14)
353A  F1                 [105] (16)
353B  01                 [106] (16)
353C  00                 [107] (16)
353D  00                 [108] (16)
353E  F1                 [109] (16)
353F  01                 [110] (16)
3540  00                 [111] (16)
3541  00                 [112] (16)
3542  F1                 [113] (19)
3543  01                 [114] (19)
3544  00                 [115] (19)
3545  00                 [116] (19)
3546  F1                 [117] (19)
3547  01                 [118] (19)
3548  00                 [119] (19)
3549  00                 [120] (22)
354A  F2                 [121] (23)
                         * locals:
36B6  00                 sizelocvars (0)
                         * upvalues:
36B7  00                 sizeupvalues (0)
                         ** end of function **

                         
36B8                     ** function [32] definition (level 2)
                         ** start of function **
36B8  00                 string size (0)
                         source name: (none)
36BA  04                 line defined (537)
36BB  A4                 last line defined (548)
36BC  04                 nups (0)
36BD  00                 numparams (3)
36BE  03                 is_vararg (0)
36BF  00                 maxstacksize (14)
                         * code:
36C1  23                 sizecode (35)
36C2  E4004000           [01] self       3   0   256  ; -1544157541
36C6  E2800001           [02] call       3   2   2  
36CA  E440C001           [03] self       3   3   257  ; -501641340
36CE  5D810000           [04] getglobal  5   2        ; Engine
36D2  4EC1C002           [05] gettable   5   5   259  ; "TORSO"
36D6  E2808001           [06] call       3   3   2  
36DA  0E01C101           [07] gettable   4   3   260  ; "y"
36DE  64414100           [08] self       5   0   261  ; -1947164746
36E2  62810001           [09] call       5   2   2  
36E6  4481C102           [10] mul        5   5   262  ; 0
36EA  0D410102           [11] sub        4   4   5  
36EE  CC000182           [12] settable   3   260 4    ; "y"
36F2  1DC10100           [13] getglobal  4   7        ; 572299008
36F6  22818000           [14] call       4   1   2  
36FA  5D010200           [15] getglobal  5   8        ; gRegion
36FE  6441C202           [16] self       5   5   265  ; 187283819
3702  D2018001           [17] move       7   3      
3706  04420001           [18] mul        8   2   1  
370A  03028201           [19] add        8   3   8  
370E  52020000           [20] move       9   0      
3712  86020005           [21] loadnil    10  10     
3716  D2020002           [22] move       11  4      
371A  17038000           [23] loadbool   12  1   0    ; true
371E  57038000           [24] loadbool   13  1   0    ; true
3722  62818004           [25] call       5   9   2  
3726  58010000           [26] test       5       0    ; to [28] if true
372A  1A000180           [27] jmp        5            ; to [33]
372E  5D810200           [28] getglobal  5   10       ; -1331746705
3732  92018001           [29] move       6   3      
3736  D2010002           [30] move       7   4      
373A  47018001           [31] tailcall   5   3   0  
373E  5E010000           [32] return     5   0      
3742  5DC10200           [33] getglobal  5   11       ; FLT_MAX
3746  5E010001           [34] return     5   2      
374A  1E008000           [35] return     0   1      
                         * constants:
374E  0C                 sizek (12)
374F  01                 const type 3
3750  9B06F6A3           const [0]: (-1544157541)
3754  01                 const type 3
3755  848F19E2           const [1]: (-501641340)
3759  04                 const type 4
375A  07                 string size (7)
375B  456E67696E6500     "Engine\0"
                         const [2]: "Engine"
3762  04                 const type 4
3763  06                 string size (6)
3764  544F52534F00       "TORSO\0"
                         const [3]: "TORSO"
376A  04                 const type 4
376B  02                 string size (2)
376C  7900               "y\0"
                         const [4]: "y"
376E  01                 const type 3
376F  B69FF08B           const [5]: (-1947164746)
3773  03                 const type 3
3774  0000003F           const [6]: (0)
3778  01                 const type 3
3779  00971C22           const [7]: (572299008)
377D  04                 const type 4
377E  08                 string size (8)
377F  67526567696F6E00   "gRegion\0"
                         const [8]: "gRegion"
3787  01                 const type 3
3788  6BB9290B           const [9]: (187283819)
378C  01                 const type 3
378D  6F289FB0           const [10]: (-1331746705)
3791  04                 const type 4
3792  08                 string size (8)
3793  464C545F4D415800   "FLT_MAX\0"
                         const [11]: "FLT_MAX"
                         * functions:
379B  00                 sizep (0)
                         * lines:
379C  23                 sizelineinfo (35)
                         [pc] (line)
379D  1B                 [01] (27)
379E  02                 [02] (27)
379F  00                 [03] (27)
37A0  00                 [04] (27)
37A1  1B                 [05] (27)
37A2  02                 [06] (27)
37A3  00                 [07] (28)
37A4  00                 [08] (28)
37A5  1B                 [09] (28)
37A6  02                 [10] (28)
37A7  00                 [11] (28)
37A8  00                 [12] (28)
37A9  1B                 [13] (30)
37AA  02                 [14] (30)
37AB  00                 [15] (31)
37AC  00                 [16] (31)
37AD  1B                 [17] (31)
37AE  02                 [18] (31)
37AF  00                 [19] (31)
37B0  00                 [20] (31)
37B1  1B                 [21] (31)
37B2  02                 [22] (31)
37B3  00                 [23] (31)
37B4  00                 [24] (31)
37B5  1C                 [25] (31)
37B6  02                 [26] (31)
37B7  00                 [27] (31)
37B8  00                 [28] (32)
37B9  1C                 [29] (32)
37BA  02                 [30] (32)
37BB  00                 [31] (32)
37BC  00                 [32] (32)
37BD  1C                 [33] (35)
37BE  02                 [34] (35)
37BF  00                 [35] (36)
                         * locals:
3829  00                 sizelocvars (0)
                         * upvalues:
382A  00                 sizeupvalues (0)
                         ** end of function **

                         
382B                     ** function [33] definition (level 2)
                         ** start of function **
382B  00                 string size (0)
                         source name: (none)
382D  04                 line defined (550)
382E  A4                 last line defined (676)
382F  05                 nups (2)
3830  02                 numparams (4)
3831  04                 is_vararg (0)
3832  00                 maxstacksize (37)
                         * code:
3835  02                 sizecode (291)
3836  24014000           [001] self       4   0   256  ; -1917464545
383A  22810001           [002] call       4   2   2  
383E  24414002           [003] self       4   4   257  ; 1769516121
3842  22810001           [004] call       4   2   2  
3846  64814002           [005] self       5   4   258  ; 1462893336
384A  62810001           [006] call       5   2   2  
384E  99C10000           [007] loadk      6   3        ; 0
3852  DD010100           [008] getglobal  7   4        ; 1074689893
3856  12028000           [009] move       8   1      
385A  E2810001           [010] call       7   2   2  
385E  D8410000           [011] test       7       1    ; to [13] if false
3862  1A800280           [012] jmp        11           ; to [24]
3866  D3010000           [013] getupval   7   0      
386A  12020002           [014] move       8   4      
386E  52028000           [015] move       9   1      
3872  97020000           [016] loadbool   10  0   0    ; false
3876  DD420100           [017] getglobal  11  5        ; Engine
387A  CE82C105           [018] gettable   11  11  262  ; "ATMM_PHYSICS_DRIVEN"
387E  1D430100           [019] getglobal  12  5        ; Engine
3882  0EC34106           [020] gettable   12  12  263  ; "PRT_FREEZE"
3886  57038000           [021] loadbool   13  1   0    ; true
388A  E2818003           [022] call       7   7   2  
388E  92018003           [023] move       6   7      
3892  D7010000           [024] loadbool   7   0   0    ; false
3896  19C20000           [025] loadk      8   3        ; 0
389A  5D020100           [026] getglobal  9   4        ; 1074689893
389E  92020001           [027] move       10  2      
38A2  62820001           [028] call       9   2   2  
38A6  58420000           [029] test       9       1    ; to [31] if false
38AA  1A000580           [030] jmp        21           ; to [52]
38AE  64024201           [031] self       9   2   264  ; -975772479
38B2  62820001           [032] call       9   2   2  
38B6  A4424201           [033] self       10  2   265  ; -1884828567
38BA  1D830200           [034] getglobal  12  10       ; -332969190
38BE  52038001           [035] move       13  3      
38C2  22030001           [036] call       12  2   0  
38C6  A2820000           [037] call       10  0   2  
38CA  04828204           [038] mul        8   9   10 
38CE  64024000           [039] self       9   0   256  ; -1917464545
38D2  62820001           [040] call       9   2   2  
38D6  64C2C204           [041] self       9   9   267  ; -940929887
38DA  D9020300           [042] loadk      11  12       ; 0
38DE  1D430300           [043] getglobal  12  13       ; Game
38E2  0E834306           [044] gettable   12  12  270  ; "AVATAR_CASTING_SPEED"
38E6  64C34302           [045] self       13  4   271  ; -491574171
38EA  62830001           [046] call       13  2   2  
38EE  92030002           [047] move       14  4      
38F2  62820003           [048] call       9   6   2  
fail op	21
38F6  15408281           [049] concat     0   259 9  
38FA  1A000080           [050] jmp        1            ; to [52]
38FE  1C420204           [051] div        8   8   9  
3902  A4024400           [052] self       10  0   272  ; 417207641
3906  A2820001           [053] call       10  2   2  
390A  98020000           [054] test       10      0    ; to [56] if true
390E  1AC03380           [055] jmp        208          ; to [264]
3912  A4424400           [056] self       10  0   273  ; 1309201817
3916  A2820001           [057] call       10  2   2  
391A  E4824400           [058] self       11  0   274  ; 1292478819
391E  E2820001           [059] call       11  2   2  
3922  24C34400           [060] self       12  0   275  ; 2129303884
3926  22830001           [061] call       12  2   2  
392A  5D430500           [062] getglobal  13  21       ; math
392E  4E83C506           [063] gettable   13  13  278  ; -1962864584
3932  8E034506           [064] gettable   14  12  276  ; "pitch"
3936  D9C30500           [065] loadk      15  23       ; 0
393A  62838001           [066] call       13  3   2  
393E  0C43038A           [067] settable   12  276 13   ; "pitch"
3942  5D030600           [068] getglobal  13  24       ; -1596245111
3946  92030006           [069] move       14  12     
394A  62830001           [070] call       13  2   2  
394E  99430600           [071] loadk      14  25       ; 0
3952  D9830600           [072] loadk      15  26       ; 0
3956  19C40000           [073] loadk      16  3        ; 0
395A  59C40600           [074] loadk      17  27       ; -51
395E  99440600           [075] loadk      18  25       ; 0
3962  D9040700           [076] loadk      19  28       ; -51
3966  19C50000           [077] loadk      20  3        ; 0
396A  59C50600           [078] loadk      21  27       ; -51
396E  99450700           [079] loadk      22  29       ; 51
3972  D7050000           [080] loadbool   23  0   0    ; false
3976  1D860200           [081] getglobal  24  10       ; -332969190
397A  59860700           [082] loadk      25  30       ; "ABILITY_SLAM"
397E  22860001           [083] call       24  2   2  
3982  59060300           [084] loadk      25  12       ; 0
3986  A4C64700           [085] self       26  0   287  ; 196800914
398A  A2860001           [086] call       26  2   2  
398E  8E06480D           [087] gettable   26  26  288  ; "y"
3992  DD460800           [088] getglobal  27  33       ; 849075268
3996  19870800           [089] loadk      28  34       ; "Lotus.Scripts.Libs.EasingLib"
399A  E2860001           [090] call       27  2   2  
399E  24C7C805           [091] self       28  11  291  ; 1417583104
39A2  92070006           [092] move       30  12     
39A6  22478001           [093] call       28  3   1  
39AA  24074900           [094] self       28  0   292  ; -2113194289
39AE  97078000           [095] loadbool   30  1   0    ; true
39B2  22478001           [096] call       28  3   1  
39B6  1D070100           [097] getglobal  28  4        ; 1074689893
39BA  52070000           [098] move       29  0      
39BE  22870001           [099] call       28  2   2  
39C2  18470000           [100] test       28      1    ; to [102] if false
39C6  1AC02280           [101] jmp        140          ; to [242]
39CA  24474900           [102] self       28  0   293  ; 1511086594
39CE  22870001           [103] call       28  2   2  
39D2  18470000           [104] test       28      1    ; to [106] if false
39D6  1AC02180           [105] jmp        136          ; to [242]
39DA  24874900           [106] self       28  0   294  ; -1519595333
39DE  22870001           [107] call       28  2   2  
39E2  18470000           [108] test       28      1    ; to [110] if false
39E6  1AC02080           [109] jmp        132          ; to [242]
39EA  24074400           [110] self       28  0   272  ; 417207641
39EE  22870001           [111] call       28  2   2  
39F2  18070000           [112] test       28      0    ; to [114] if true
39F6  1AC01F80           [113] jmp        128          ; to [242]
39FA  1D070100           [114] getglobal  28  4        ; 1074689893
39FE  52078002           [115] move       29  5      
3A02  22870001           [116] call       28  2   2  
3A06  18470000           [117] test       28      1    ; to [119] if false
3A0A  1A801E80           [118] jmp        123          ; to [242]
3A0E  24C7C902           [119] self       28  5   295  ; -408017483
3A12  22870001           [120] call       28  2   2  
3A16  18470000           [121] test       28      1    ; to [123] if false
3A1A  1A801D80           [122] jmp        119          ; to [242]
3A1E  D8040000           [123] test       19      0    ; to [125] if true
3A22  1AC00680           [124] jmp        28           ; to [153]
3A26  1D470500           [125] getglobal  28  21       ; math
3A2A  0E074A0E           [126] gettable   28  28  296  ; 1710846250
3A2E  5D470A00           [127] getglobal  29  41       ; 1289681407
3A32  62878000           [128] call       29  1   2  
3A36  43470708           [129] add        29  16  29 
3A3A  92078008           [130] move       30  17     
3A3E  22878001           [131] call       28  3   2  
3A42  1204000E           [132] move       16  28     
3A46  1D470500           [133] getglobal  28  21       ; math
3A4A  0E074A0E           [134] gettable   28  28  296  ; 1710846250
3A4E  52078007           [135] move       29  15     
3A52  8E87CA0D           [136] gettable   30  27  298  ; 560762964
3A56  D2070008           [137] move       31  16     
3A5A  19C80000           [138] loadk      32  3        ; 0
3A5E  52080009           [139] move       33  18     
3A62  92088008           [140] move       34  17     
3A66  A2878002           [141] call       30  5   2  
3A6A  DD470A00           [142] getglobal  31  41       ; 1289681407
3A6E  E2878000           [143] call       31  1   2  
3A72  84C7070F           [144] mul        30  30  31 
3A76  83870786           [145] add        30  268 30   ; 0
3A7A  84870707           [146] mul        30  14  30 
3A7E  22878001           [147] call       28  3   2  
3A82  9203000E           [148] move       14  28     
3A86  1D470A00           [149] getglobal  28  41       ; 1289681407
3A8A  22878000           [150] call       28  1   2  
3A8E  CD048709           [151] sub        19  19  28 
3A92  1A800980           [152] jmp        39           ; to [192]
3A96  D8450000           [153] test       23      1    ; to [155] if false
3A9A  1AC00080           [154] jmp        4            ; to [159]
3A9E  24074900           [155] self       28  0   292  ; -2113194289
3AA2  97070000           [156] loadbool   30  0   0    ; false
3AA6  22478001           [157] call       28  3   1  
3AAA  D7058000           [158] loadbool   23  1   0    ; true
3AAE  24C74A00           [159] self       28  0   299  ; -129308537
3AB2  9207000C           [160] move       30  24     
3AB6  D207800C           [161] move       31  25     
3ABA  19080B00           [162] loadk      32  44       ; 0
3ABE  22478002           [163] call       28  5   1  
3AC2  1D470A00           [164] getglobal  28  41       ; 1289681407
3AC6  22878000           [165] call       28  1   2  
3ACA  04474B0E           [166] mul        28  28  301  ; -102
3ACE  4306870C           [167] add        25  25  28 
3AD2  1D470500           [168] getglobal  28  21       ; math
3AD6  0E074A0E           [169] gettable   28  28  296  ; 1710846250
3ADA  5D470A00           [170] getglobal  29  41       ; 1289681407
3ADE  62878000           [171] call       29  1   2  
3AE2  4347070A           [172] add        29  20  29 
3AE6  9207800A           [173] move       30  21     
3AEA  22878001           [174] call       28  3   2  
3AEE  1205000E           [175] move       20  28     
3AF2  1D470500           [176] getglobal  28  21       ; math
3AF6  0E87450E           [177] gettable   28  28  278  ; -1962864584
3AFA  59C70000           [178] loadk      29  3        ; 0
3AFE  8E87CB0D           [179] gettable   30  27  302  ; -2118427603
3B02  D207000A           [180] move       31  20     
3B06  19C80000           [181] loadk      32  3        ; 0
3B0A  5208000B           [182] move       33  22     
3B0E  9208800A           [183] move       34  21     
3B12  A2878002           [184] call       30  5   2  
3B16  DD470A00           [185] getglobal  31  41       ; 1289681407
3B1A  E2878000           [186] call       31  1   2  
3B1E  84C7070F           [187] mul        30  30  31 
3B22  8D870786           [188] sub        30  268 30   ; 0
3B26  84870707           [189] mul        30  14  30 
3B2A  22878001           [190] call       28  3   2  
3B2E  9203000E           [191] move       14  28     
3B32  98020000           [192] test       10      0    ; to [194] if true
3B36  1A800080           [193] jmp        3            ; to [197]
3B3A  24C7CB05           [194] self       28  11  303  ; 176029597
3B3E  84878306           [195] mul        30  13  14 
3B42  22478001           [196] call       28  3   1  
fail op	33
3B46  21C04003           [197] tforloop   0       259  ; to [199] if exit
3B4A  1A000780           [198] jmp        29           ; to [228]
3B4E  D8010000           [199] test       7       0    ; to [201] if true
3B52  1A400080           [200] jmp        2            ; to [203]
3B56  1AC00980           [201] jmp        40           ; to [242]
3B5A  1A000680           [202] jmp        25           ; to [228]
3B5E  1D070100           [203] getglobal  28  4        ; 1074689893
3B62  52070001           [204] move       29  2      
3B66  22870001           [205] call       28  2   2  
3B6A  18470000           [206] test       28      1    ; to [208] if false
3B6E  1AC00480           [207] jmp        20           ; to [228]
3B72  04070207           [208] mul        28  14  8  
3B76  53078000           [209] getupval   29  1      
3B7A  92070000           [210] move       30  0      
3B7E  D207000E           [211] move       31  28     
3B82  12088006           [212] move       32  13     
3B86  62870002           [213] call       29  4   2  
fail op	33
3B8A  2100870E           [214] tforloop   0       28   ; to [216] if exit
3B8E  1AC00280           [215] jmp        12           ; to [228]
3B92  53070000           [216] getupval   29  0      
3B96  92070002           [217] move       30  4      
3B9A  D2070001           [218] move       31  2      
3B9E  17080000           [219] loadbool   32  0   0    ; false
3BA2  5D480100           [220] getglobal  33  5        ; Engine
3BA6  4E08CC10           [221] gettable   33  33  304  ; "ATMM_ANIMATION_HORIZ_PHYSICS_VERT"
3BAA  9D480100           [222] getglobal  34  5        ; Engine
3BAE  8E484C11           [223] gettable   34  34  305  ; "PRT_ONCE"
3BB2  D7088000           [224] loadbool   35  1   0    ; true
3BB6  62478003           [225] call       29  7   1  
3BBA  92010004           [226] move       6   8      
3BBE  D7018000           [227] loadbool   7   1   0    ; true
3BC2  5D870C00           [228] getglobal  29  50       ; 538022378
3BC6  99C70000           [229] loadk      30  3        ; 0
3BCA  62470001           [230] call       29  2   1  
3BCE  64C74700           [231] self       29  0   287  ; 196800914
3BD2  62870001           [232] call       29  2   2  
3BD6  4E07C80E           [233] gettable   29  29  288  ; "y"
fail op	35
3BDA  2380860E           [234] close      0  
3BDE  1A000080           [235] jmp        1            ; to [237]
3BE2  1A000180           [236] jmp        5            ; to [242]
3BE6  9206800E           [237] move       26  29     
3BEA  9D470A00           [238] getglobal  30  41       ; 1289681407
3BEE  A2878000           [239] call       30  1   2  
3BF2  8D810703           [240] sub        6   6   30 
3BF6  1A80DB7F           [241] jmp        -145         ; to [97]
3BFA  98020000           [242] test       10      0    ; to [244] if true
3BFE  1A800080           [243] jmp        3            ; to [247]
3C02  A4C7CB05           [244] self       30  11  303  ; 176029597
3C06  1DC80C00           [245] getglobal  32  51       ; ZERO_VECTOR
3C0A  A2478001           [246] call       30  3   1  
3C0E  9D070100           [247] getglobal  30  4        ; 1074689893
3C12  D2078002           [248] move       31  5      
3C16  A2870001           [249] call       30  2   2  
3C1A  98470000           [250] test       30      1    ; to [252] if false
3C1E  1AC00280           [251] jmp        12           ; to [264]
3C22  A4C7C902           [252] self       30  5   295  ; -408017483
3C26  A2870001           [253] call       30  2   2  
3C2A  98070000           [254] test       30      0    ; to [256] if true
3C2E  1AC00180           [255] jmp        8            ; to [264]
3C32  98020000           [256] test       10      0    ; to [258] if true
3C36  1AC00080           [257] jmp        4            ; to [262]
3C3A  A4074D02           [258] self       30  4   308  ; 33405088
3C3E  24C8C302           [259] self       32  5   271  ; -491574171
3C42  22080001           [260] call       32  2   0  
3C46  A2470000           [261] call       30  0   1  
3C4A  97070000           [262] loadbool   30  0   0    ; false
3C4E  9E070001           [263] return     30  2      
fail op	21
3C52  15808181           [264] concat     0   259 6  
3C56  1A800080           [265] jmp        3            ; to [269]
3C5A  9D870C00           [266] getglobal  30  50       ; 538022378
3C5E  D2070003           [267] move       31  6      
3C62  A2470001           [268] call       30  2   1  
3C66  D8410000           [269] test       7       1    ; to [271] if false
3C6A  1A400480           [270] jmp        18           ; to [289]
3C6E  9D070100           [271] getglobal  30  4        ; 1074689893
3C72  D2070001           [272] move       31  2      
3C76  A2870001           [273] call       30  2   2  
3C7A  98470000           [274] test       30      1    ; to [276] if false
3C7E  1A000380           [275] jmp        13           ; to [289]
3C82  93070000           [276] getupval   30  0      
3C86  D2070002           [277] move       31  4      
3C8A  12080001           [278] move       32  2      
3C8E  57080000           [279] loadbool   33  0   0    ; false
3C92  9D480100           [280] getglobal  34  5        ; Engine
3C96  8E084C11           [281] gettable   34  34  304  ; "ATMM_ANIMATION_HORIZ_PHYSICS_VERT"
3C9A  DD480100           [282] getglobal  35  5        ; Engine
3C9E  CE48CC11           [283] gettable   35  35  305  ; "PRT_ONCE"
3CA2  17098000           [284] loadbool   36  1   0    ; true
3CA6  A2478003           [285] call       30  7   1  
3CAA  9D870C00           [286] getglobal  30  50       ; 538022378
3CAE  D2070004           [287] move       31  8      
3CB2  A2470001           [288] call       30  2   1  
3CB6  97078000           [289] loadbool   30  1   0    ; true
3CBA  9E070001           [290] return     30  2      
3CBE  1E008000           [291] return     0   1      
                         * constants:
3CC2  35                 sizek (53)
3CC3  01                 const type 3
3CC4  1FD0B58D           const [0]: (-1917464545)
3CC8  01                 const type 3
3CC9  59AC7869           const [1]: (1769516121)
3CCD  01                 const type 3
3CCE  18FB3157           const [2]: (1462893336)
3CD2  03                 const type 3
3CD3  00000000           const [3]: (0)
3CD7  01                 const type 3
3CD8  65770E40           const [4]: (1074689893)
3CDC  04                 const type 4
3CDD  07                 string size (7)
3CDE  456E67696E6500     "Engine\0"
                         const [5]: "Engine"
3CE5  04                 const type 4
3CE6  14                 string size (20)
3CE7  41544D4D5F504859+  "ATMM_PHY"
3CEF  534943535F445249+  "SICS_DRI"
3CF7  56454E00           "VEN\0"
                         const [6]: "ATMM_PHYSICS_DRIVEN"
3CFB  04                 const type 4
3CFC  0B                 string size (11)
3CFD  5052545F46524545+  "PRT_FREE"
3D05  5A4500             "ZE\0"
                         const [7]: "PRT_FREEZE"
3D08  01                 const type 3
3D09  C1E4D6C5           const [8]: (-975772479)
3D0D  01                 const type 3
3D0E  69CCA78F           const [9]: (-1884828567)
3D12  01                 const type 3
3D13  1A4B27EC           const [10]: (-332969190)
3D17  01                 const type 3
3D18  A18CEAC7           const [11]: (-940929887)
3D1C  03                 const type 3
3D1D  0000803F           const [12]: (0)
3D21  04                 const type 4
3D22  05                 string size (5)
3D23  47616D6500         "Game\0"
                         const [13]: "Game"
3D28  04                 const type 4
3D29  15                 string size (21)
3D2A  4156415441525F43+  "AVATAR_C"
3D32  415354494E475F53+  "ASTING_S"
3D3A  5045454400         "PEED\0"
                         const [14]: "AVATAR_CASTING_SPEED"
3D3F  01                 const type 3
3D40  652CB3E2           const [15]: (-491574171)
3D44  01                 const type 3
3D45  5915DE18           const [16]: (417207641)
3D49  01                 const type 3
3D4A  99D5084E           const [17]: (1309201817)
3D4E  01                 const type 3
3D4F  63A9094D           const [18]: (1292478819)
3D53  01                 const type 3
3D54  4C99EA7E           const [19]: (2129303884)
3D58  04                 const type 4
3D59  06                 string size (6)
3D5A  706974636800       "pitch\0"
                         const [20]: "pitch"
3D60  04                 const type 4
3D61  05                 string size (5)
3D62  6D61746800         "math\0"
                         const [21]: "math"
3D67  01                 const type 3
3D68  3810018B           const [22]: (-1962864584)
3D6C  03                 const type 3
3D6D  00002042           const [23]: (0)
3D71  01                 const type 3
3D72  893BDBA0           const [24]: (-1596245111)
3D76  03                 const type 3
3D77  00002041           const [25]: (0)
3D7B  03                 const type 3
3D7C  0000A042           const [26]: (0)
3D80  03                 const type 3
3D81  CDCC4C3E           const [27]: (-51)
3D85  03                 const type 3
3D86  CDCCCC3E           const [28]: (-51)
3D8A  03                 const type 3
3D8B  3333333F           const [29]: (51)
3D8F  04                 const type 4
3D90  0D                 string size (13)
3D91  4142494C4954595F+  "ABILITY_"
3D99  534C414D00         "SLAM\0"
                         const [30]: "ABILITY_SLAM"
3D9E  01                 const type 3
3D9F  92F1BA0B           const [31]: (196800914)
3DA3  04                 const type 4
3DA4  02                 string size (2)
3DA5  7900               "y\0"
                         const [32]: "y"
3DA7  01                 const type 3
3DA8  44DC9B32           const [33]: (849075268)
3DAC  04                 const type 4
3DAD  1D                 string size (29)
3DAE  4C6F7475732E5363+  "Lotus.Sc"
3DB6  72697074732E4C69+  "ripts.Li"
3DBE  62732E456173696E+  "bs.Easin"
3DC6  674C696200         "gLib\0"
                         const [34]: "Lotus.Scripts.Libs.EasingLib"
3DCB  01                 const type 3
3DCC  009A7E54           const [35]: (1417583104)
3DD0  01                 const type 3
3DD1  CF360B82           const [36]: (-2113194289)
3DD5  01                 const type 3
3DD6  025A115A           const [37]: (1511086594)
3DDA  01                 const type 3
3DDB  BBD06CA5           const [38]: (-1519595333)
3DDF  01                 const type 3
3DE0  B525AEE7           const [39]: (-408017483)
3DE4  01                 const type 3
3DE5  2A71F965           const [40]: (1710846250)
3DE9  01                 const type 3
3DEA  FFF9DE4C           const [41]: (1289681407)
3DEE  01                 const type 3
3DEF  54906C21           const [42]: (560762964)
3DF3  01                 const type 3
3DF4  87E84AF8           const [43]: (-129308537)
3DF8  03                 const type 3
3DF9  000080BF           const [44]: (0)
3DFD  03                 const type 3
3DFE  9A99993E           const [45]: (-102)
3E02  01                 const type 3
3E03  2D5CBB81           const [46]: (-2118427603)
3E07  01                 const type 3
3E08  9DFF7D0A           const [47]: (176029597)
3E0C  04                 const type 4
3E0D  22                 string size (34)
3E0E  41544D4D5F414E49+  "ATMM_ANI"
3E16  4D4154494F4E5F48+  "MATION_H"
3E1E  4F52495A5F504859+  "ORIZ_PHY"
3E26  534943535F564552+  "SICS_VER"
3E2E  5400               "T\0"
                         const [48]: "ATMM_ANIMATION_HORIZ_PHYSICS_VERT"
3E30  04                 const type 4
3E31  09                 string size (9)
3E32  5052545F4F4E4345+  "PRT_ONCE"
3E3A  00                 "\0"
                         const [49]: "PRT_ONCE"
3E3B  01                 const type 3
3E3C  EA911120           const [50]: (538022378)
3E40  04                 const type 4
3E41  0C                 string size (12)
3E42  5A45524F5F564543+  "ZERO_VEC"
3E4A  544F5200           "TOR\0"
                         const [51]: "ZERO_VECTOR"
3E4E  01                 const type 3
3E4F  A0B8FD01           const [52]: (33405088)
                         * functions:
3E53  00                 sizep (0)
                         * lines:
3E55  02                 sizelineinfo (291)
                         [pc] (line)
3E56  27                 [001] (39)
3E57  02                 [002] (39)
3E58  00                 [003] (39)
3E59  00                 [004] (39)
3E5A  27                 [005] (40)
3E5B  02                 [006] (40)
3E5C  00                 [007] (42)
3E5D  00                 [008] (43)
3E5E  27                 [009] (43)
3E5F  02                 [010] (43)
3E60  00                 [011] (43)
3E61  00                 [012] (43)
3E62  27                 [013] (44)
3E63  02                 [014] (44)
3E64  00                 [015] (44)
3E65  00                 [016] (44)
3E66  28                 [017] (44)
3E67  02                 [018] (44)
3E68  00                 [019] (44)
3E69  00                 [020] (44)
3E6A  28                 [021] (44)
3E6B  02                 [022] (44)
3E6C  00                 [023] (44)
3E6D  00                 [024] (47)
3E6E  2A                 [025] (48)
3E6F  02                 [026] (49)
3E70  00                 [027] (49)
3E71  00                 [028] (49)
3E72  2B                 [029] (49)
3E73  02                 [030] (49)
3E74  00                 [031] (50)
3E75  00                 [032] (50)
3E76  2B                 [033] (50)
3E77  02                 [034] (50)
3E78  00                 [035] (50)
3E79  00                 [036] (50)
3E7A  2B                 [037] (50)
3E7B  02                 [038] (50)
3E7C  00                 [039] (52)
3E7D  00                 [040] (52)
3E7E  2B                 [041] (52)
3E7F  02                 [042] (52)
3E80  00                 [043] (52)
3E81  00                 [044] (52)
3E82  2B                 [045] (52)
3E83  02                 [046] (52)
3E84  00                 [047] (52)
3E85  00                 [048] (52)
3E86  2C                 [049] (53)
3E87  02                 [050] (53)
3E88  00                 [051] (54)
3E89  00                 [052] (58)
3E8A  2C                 [053] (58)
3E8B  02                 [054] (58)
3E8C  00                 [055] (58)
3E8D  00                 [056] (59)
3E8E  2C                 [057] (59)
3E8F  02                 [058] (60)
3E90  00                 [059] (60)
3E91  00                 [060] (62)
3E92  2C                 [061] (62)
3E93  02                 [062] (63)
3E94  00                 [063] (63)
3E95  00                 [064] (63)
3E96  2C                 [065] (63)
3E97  02                 [066] (63)
3E98  00                 [067] (63)
3E99  00                 [068] (65)
3E9A  2C                 [069] (65)
3E9B  02                 [070] (65)
3E9C  00                 [071] (68)
3E9D  00                 [072] (69)
3E9E  2C                 [073] (70)
3E9F  02                 [074] (71)
3EA0  00                 [075] (72)
3EA1  00                 [076] (73)
3EA2  2C                 [077] (74)
3EA3  02                 [078] (75)
3EA4  00                 [079] (76)
3EA5  00                 [080] (77)
3EA6  2C                 [081] (78)
3EA7  02                 [082] (78)
3EA8  00                 [083] (78)
3EA9  00                 [084] (79)
3EAA  2C                 [085] (80)
3EAB  02                 [086] (80)
3EAC  00                 [087] (80)
3EAD  00                 [088] (82)
3EAE  2C                 [089] (82)
3EAF  02                 [090] (82)
3EB0  00                 [091] (84)
3EB1  00                 [092] (84)
3EB2  2F                 [093] (84)
3EB3  02                 [094] (85)
3EB4  00                 [095] (85)
3EB5  00                 [096] (85)
3EB6  30                 [097] (88)
3EB7  02                 [098] (88)
3EB8  00                 [099] (88)
3EB9  00                 [100] (88)
3EBA  31                 [101] (88)
3EBB  02                 [102] (89)
3EBC  00                 [103] (89)
3EBD  00                 [104] (89)
3EBE  31                 [105] (89)
3EBF  02                 [106] (90)
3EC0  00                 [107] (90)
3EC1  00                 [108] (90)
3EC2  31                 [109] (90)
3EC3  02                 [110] (91)
3EC4  00                 [111] (91)
3EC5  00                 [112] (91)
3EC6  31                 [113] (91)
3EC7  02                 [114] (92)
3EC8  00                 [115] (92)
3EC9  00                 [116] (92)
3ECA  31                 [117] (92)
3ECB  02                 [118] (92)
3ECC  00                 [119] (93)
3ECD  00                 [120] (93)
3ECE  32                 [121] (93)
3ECF  02                 [122] (93)
3ED0  00                 [123] (95)
3ED1  00                 [124] (95)
3ED2  32                 [125] (96)
3ED3  02                 [126] (96)
3ED4  00                 [127] (96)
3ED5  00                 [128] (96)
3ED6  32                 [129] (96)
3ED7  02                 [130] (96)
3ED8  00                 [131] (96)
3ED9  00                 [132] (96)
3EDA  32                 [133] (97)
3EDB  02                 [134] (97)
3EDC  00                 [135] (97)
3EDD  00                 [136] (97)
3EDE  32                 [137] (97)
3EDF  02                 [138] (97)
3EE0  00                 [139] (97)
3EE1  00                 [140] (97)
3EE2  32                 [141] (97)
3EE3  02                 [142] (97)
3EE4  00                 [143] (97)
3EE5  00                 [144] (97)
3EE6  32                 [145] (97)
3EE7  02                 [146] (97)
3EE8  00                 [147] (97)
3EE9  00                 [148] (97)
3EEA  32                 [149] (98)
3EEB  02                 [150] (98)
3EEC  00                 [151] (98)
3EED  00                 [152] (98)
3EEE  34                 [153] (100)
3EEF  02                 [154] (100)
3EF0  00                 [155] (101)
3EF1  00                 [156] (101)
3EF2  34                 [157] (101)
3EF3  02                 [158] (102)
3EF4  00                 [159] (105)
3EF5  00                 [160] (105)
3EF6  34                 [161] (105)
3EF7  02                 [162] (105)
3EF8  00                 [163] (105)
3EF9  00                 [164] (106)
3EFA  34                 [165] (106)
3EFB  02                 [166] (106)
3EFC  00                 [167] (106)
3EFD  00                 [168] (108)
3EFE  34                 [169] (108)
3EFF  02                 [170] (108)
3F00  00                 [171] (108)
3F01  00                 [172] (108)
3F02  34                 [173] (108)
3F03  02                 [174] (108)
3F04  00                 [175] (108)
3F05  00                 [176] (109)
3F06  34                 [177] (109)
3F07  02                 [178] (109)
3F08  00                 [179] (109)
3F09  00                 [180] (109)
3F0A  34                 [181] (109)
3F0B  02                 [182] (109)
3F0C  00                 [183] (109)
3F0D  00                 [184] (109)
3F0E  34                 [185] (109)
3F0F  02                 [186] (109)
3F10  00                 [187] (109)
3F11  00                 [188] (109)
3F12  34                 [189] (109)
3F13  02                 [190] (109)
3F14  00                 [191] (109)
3F15  00                 [192] (112)
3F16  35                 [193] (112)
3F17  02                 [194] (113)
3F18  00                 [195] (113)
3F19  00                 [196] (113)
3F1A  35                 [197] (116)
3F1B  02                 [198] (116)
3F1C  00                 [199] (117)
3F1D  00                 [200] (117)
3F1E  36                 [201] (118)
3F1F  02                 [202] (118)
3F20  00                 [203] (119)
3F21  00                 [204] (119)
3F22  3A                 [205] (119)
3F23  02                 [206] (119)
3F24  00                 [207] (119)
3F25  00                 [208] (120)
3F26  3A                 [209] (121)
3F27  02                 [210] (121)
3F28  00                 [211] (121)
3F29  00                 [212] (121)
3F2A  3A                 [213] (121)
3F2B  02                 [214] (121)
3F2C  00                 [215] (121)
3F2D  00                 [216] (122)
3F2E  3A                 [217] (122)
3F2F  02                 [218] (122)
3F30  00                 [219] (122)
3F31  00                 [220] (122)
3F32  3B                 [221] (122)
3F33  02                 [222] (122)
3F34  00                 [223] (122)
3F35  00                 [224] (122)
3F36  3B                 [225] (122)
3F37  02                 [226] (123)
3F38  00                 [227] (124)
3F39  00                 [228] (-127)
3F3A  3C                 [229] (-127)
3F3B  02                 [230] (-127)
3F3C  00                 [231] (-124)
3F3D  00                 [232] (-124)
3F3E  3C                 [233] (-124)
3F3F  02                 [234] (-123)
3F40  00                 [235] (-123)
3F41  00                 [236] (-122)
3F42  3E                 [237] (-120)
3F43  02                 [238] (-118)
3F44  00                 [239] (-118)
3F45  00                 [240] (-118)
3F46  3E                 [241] (-118)
3F47  02                 [242] (-115)
3F48  00                 [243] (-115)
3F49  00                 [244] (-114)
3F4A  3F                 [245] (-114)
3F4B  02                 [246] (-114)
3F4C  00                 [247] (-111)
3F4D  00                 [248] (-111)
3F4E  3F                 [249] (-111)
3F4F  02                 [250] (-111)
3F50  00                 [251] (-111)
3F51  00                 [252] (-111)
3F52  3F                 [253] (-111)
3F53  02                 [254] (-111)
3F54  00                 [255] (-111)
3F55  00                 [256] (-110)
3F56  3F                 [257] (-110)
3F57  02                 [258] (-109)
3F58  00                 [259] (-109)
3F59  00                 [260] (-109)
3F5A  3F                 [261] (-109)
3F5B  02                 [262] (-106)
3F5C  00                 [263] (-106)
3F5D  00                 [264] (-102)
3F5E  3F                 [265] (-102)
3F5F  02                 [266] (-101)
3F60  00                 [267] (-101)
3F61  00                 [268] (-101)
3F62  41                 [269] (-98)
3F63  02                 [270] (-98)
3F64  00                 [271] (-98)
3F65  00                 [272] (-98)
3F66  41                 [273] (-98)
3F67  02                 [274] (-98)
3F68  00                 [275] (-98)
3F69  00                 [276] (-97)
3F6A  41                 [277] (-97)
3F6B  02                 [278] (-97)
3F6C  00                 [279] (-97)
3F6D  00                 [280] (-97)
3F6E  44                 [281] (-97)
3F6F  02                 [282] (-97)
3F70  00                 [283] (-97)
3F71  00                 [284] (-97)
3F72  45                 [285] (-97)
3F73  02                 [286] (-96)
3F74  00                 [287] (-96)
3F75  00                 [288] (-96)
3F76  46                 [289] (-93)
3F77  02                 [290] (-93)
3F78  00                 [291] (-92)
                         * locals:
42E2  00                 sizelocvars (0)
                         * upvalues:
42E3  00                 sizeupvalues (0)
                         ** end of function **

                         
42E4                     ** function [34] definition (level 2)
                         ** start of function **
42E4  00                 string size (0)
                         source name: (none)
42E6  05                 line defined (678)
42E7  BC                 last line defined (700)
42E8  05                 nups (1)
42E9  01                 numparams (3)
42EA  03                 is_vararg (0)
42EB  00                 maxstacksize (11)
                         * code:
42ED  49                 sizecode (73)
42EE  DD000000           [01] getglobal  3   0        ; 1074689893
42F2  12010000           [02] move       4   0      
42F6  E2800001           [03] call       3   2   2  
42FA  D8000000           [04] test       3       0    ; to [6] if true
42FE  1A000080           [05] jmp        1            ; to [7]
4302  1E008000           [06] return     0   1      
4306  E4404000           [07] self       3   0   257  ; 1309201817
430A  E2800001           [08] call       3   2   2  
430E  D8000000           [09] test       3       0    ; to [11] if true
4312  1A000180           [10] jmp        5            ; to [16]
4316  E4804000           [11] self       3   0   258  ; 1292478819
431A  E2800001           [12] call       3   2   2  
431E  E4C0C001           [13] self       3   3   259  ; 176029597
4322  5D010100           [14] getglobal  5   4        ; ZERO_VECTOR
4326  E2408001           [15] call       3   3   1  
432A  E4404100           [16] self       3   0   261  ; 1009063771
432E  5D810100           [17] getglobal  5   6        ; -332969190
4332  99C10100           [18] loadk      6   7        ; "ABILITY_SLAM"
4336  62010001           [19] call       5   2   0  
433A  E2400000           [20] call       3   0   1  
433E  E4004200           [21] self       3   0   264  ; -2113194289
4342  57010000           [22] loadbool   5   0   0    ; false
4346  E2408001           [23] call       3   3   1  
434A  E4404200           [24] self       3   0   265  ; -1917464545
434E  E2800001           [25] call       3   2   2  
4352  E480C201           [26] self       3   3   266  ; 1769516121
4356  E2800001           [27] call       3   2   2  
435A  1D010000           [28] getglobal  4   0        ; 1074689893
435E  52018001           [29] move       5   3      
4362  22810001           [30] call       4   2   2  
4366  18410000           [31] test       4       1    ; to [33] if false
436A  1AC00980           [32] jmp        40           ; to [73]
436E  1D010000           [33] getglobal  4   0        ; 1074689893
4372  52018000           [34] move       5   1      
4376  22810001           [35] call       4   2   2  
437A  18410000           [36] test       4       1    ; to [38] if false
437E  1A800880           [37] jmp        35           ; to [73]
4382  24C14200           [38] self       4   0   267  ; -552384689
4386  92018000           [39] move       6   1      
438A  22818001           [40] call       4   3   2  
438E  18410000           [41] test       4       1    ; to [43] if false
4392  1A000180           [42] jmp        5            ; to [48]
4396  24014300           [43] self       4   0   268  ; -1224103631
439A  92018000           [44] move       6   1      
439E  22818001           [45] call       4   3   2  
43A2  18010000           [46] test       4       0    ; to [48] if true
43A6  1A000680           [47] jmp        25           ; to [73]
43AA  1D010000           [48] getglobal  4   0        ; 1074689893
43AE  52010001           [49] move       5   2      
43B2  22810001           [50] call       4   2   2  
43B6  18410000           [51] test       4       1    ; to [53] if false
43BA  1AC00480           [52] jmp        20           ; to [73]
43BE  24C14200           [53] self       4   0   267  ; -552384689
43C2  92010001           [54] move       6   2      
43C6  22818001           [55] call       4   3   2  
43CA  18410000           [56] test       4       1    ; to [58] if false
43CE  1A800380           [57] jmp        15           ; to [73]
43D2  24014300           [58] self       4   0   268  ; -1224103631
43D6  92010001           [59] move       6   2      
43DA  22818001           [60] call       4   3   2  
43DE  18410000           [61] test       4       1    ; to [63] if false
43E2  1A400280           [62] jmp        10           ; to [73]
43E6  13010000           [63] getupval   4   0      
43EA  52018001           [64] move       5   3      
43EE  92010001           [65] move       6   2      
43F2  D7010000           [66] loadbool   7   0   0    ; false
43F6  1D420300           [67] getglobal  8   13       ; Engine
43FA  0E824304           [68] gettable   8   8   270  ; "ATMM_ANIMATION_HORIZ_PHYSICS_VERT"
43FE  5D420300           [69] getglobal  9   13       ; Engine
4402  4EC2C304           [70] gettable   9   9   271  ; "PRT_ONCE"
4406  97028000           [71] loadbool   10  1   0    ; true
440A  22418003           [72] call       4   7   1  
440E  1E008000           [73] return     0   1      
                         * constants:
4412  10                 sizek (16)
4413  01                 const type 3
4414  65770E40           const [0]: (1074689893)
4418  01                 const type 3
4419  99D5084E           const [1]: (1309201817)
441D  01                 const type 3
441E  63A9094D           const [2]: (1292478819)
4422  01                 const type 3
4423  9DFF7D0A           const [3]: (176029597)
4427  04                 const type 4
4428  0C                 string size (12)
4429  5A45524F5F564543+  "ZERO_VEC"
4431  544F5200           "TOR\0"
                         const [4]: "ZERO_VECTOR"
4435  01                 const type 3
4436  5B17253C           const [5]: (1009063771)
443A  01                 const type 3
443B  1A4B27EC           const [6]: (-332969190)
443F  04                 const type 4
4440  0D                 string size (13)
4441  4142494C4954595F+  "ABILITY_"
4449  534C414D00         "SLAM\0"
                         const [7]: "ABILITY_SLAM"
444E  01                 const type 3
444F  CF360B82           const [8]: (-2113194289)
4453  01                 const type 3
4454  1FD0B58D           const [9]: (-1917464545)
4458  01                 const type 3
4459  59AC7869           const [10]: (1769516121)
445D  01                 const type 3
445E  4F4713DF           const [11]: (-552384689)
4462  01                 const type 3
4463  31A909B7           const [12]: (-1224103631)
4467  04                 const type 4
4468  07                 string size (7)
4469  456E67696E6500     "Engine\0"
                         const [13]: "Engine"
4470  04                 const type 4
4471  22                 string size (34)
4472  41544D4D5F414E49+  "ATMM_ANI"
447A  4D4154494F4E5F48+  "MATION_H"
4482  4F52495A5F504859+  "ORIZ_PHY"
448A  534943535F564552+  "SICS_VER"
4492  5400               "T\0"
                         const [14]: "ATMM_ANIMATION_HORIZ_PHYSICS_VERT"
4494  04                 const type 4
4495  09                 string size (9)
4496  5052545F4F4E4345+  "PRT_ONCE"
449E  00                 "\0"
                         const [15]: "PRT_ONCE"
                         * functions:
449F  00                 sizep (0)
                         * lines:
44A0  49                 sizelineinfo (73)
                         [pc] (line)
44A1  A7                 [01] (-89)
44A2  02                 [02] (-89)
44A3  00                 [03] (-89)
44A4  00                 [04] (-89)
44A5  A7                 [05] (-89)
44A6  02                 [06] (-88)
44A7  00                 [07] (-85)
44A8  00                 [08] (-85)
44A9  A7                 [09] (-85)
44AA  02                 [10] (-85)
44AB  00                 [11] (-84)
44AC  00                 [12] (-84)
44AD  A7                 [13] (-84)
44AE  02                 [14] (-84)
44AF  00                 [15] (-84)
44B0  00                 [16] (-81)
44B1  A7                 [17] (-81)
44B2  02                 [18] (-81)
44B3  00                 [19] (-81)
44B4  00                 [20] (-81)
44B5  A8                 [21] (-80)
44B6  02                 [22] (-80)
44B7  00                 [23] (-80)
44B8  00                 [24] (-78)
44B9  AB                 [25] (-78)
44BA  02                 [26] (-78)
44BB  00                 [27] (-78)
44BC  00                 [28] (-76)
44BD  AB                 [29] (-76)
44BE  02                 [30] (-76)
44BF  00                 [31] (-76)
44C0  00                 [32] (-76)
44C1  AB                 [33] (-75)
44C2  02                 [34] (-75)
44C3  00                 [35] (-75)
44C4  00                 [36] (-75)
44C5  AB                 [37] (-75)
44C6  02                 [38] (-74)
44C7  00                 [39] (-74)
44C8  00                 [40] (-74)
44C9  AC                 [41] (-74)
44CA  02                 [42] (-74)
44CB  00                 [43] (-74)
44CC  00                 [44] (-74)
44CD  AC                 [45] (-74)
44CE  02                 [46] (-74)
44CF  00                 [47] (-74)
44D0  00                 [48] (-73)
44D1  AC                 [49] (-73)
44D2  02                 [50] (-73)
44D3  00                 [51] (-73)
44D4  00                 [52] (-73)
44D5  AC                 [53] (-72)
44D6  02                 [54] (-72)
44D7  00                 [55] (-72)
44D8  00                 [56] (-72)
44D9  AC                 [57] (-72)
44DA  02                 [58] (-72)
44DB  00                 [59] (-72)
44DC  00                 [60] (-72)
44DD  AF                 [61] (-72)
44DE  02                 [62] (-72)
44DF  00                 [63] (-70)
44E0  00                 [64] (-70)
44E1  AF                 [65] (-70)
44E2  02                 [66] (-70)
44E3  00                 [67] (-70)
44E4  00                 [68] (-70)
44E5  AF                 [69] (-70)
44E6  02                 [70] (-70)
44E7  00                 [71] (-70)
44E8  00                 [72] (-70)
44E9  AF                 [73] (-68)
                         * locals:
45C5  00                 sizelocvars (0)
                         * upvalues:
45C6  00                 sizeupvalues (0)
                         ** end of function **

                         
45C7                     ** function [35] definition (level 2)
                         ** start of function **
45C7  00                 string size (0)
                         source name: (none)
45C9  05                 line defined (702)
45CA  F4                 last line defined (756)
45CB  05                 nups (0)
45CC  00                 numparams (6)
45CD  06                 is_vararg (0)
45CE  00                 maxstacksize (34)
                         * code:
45D1  01                 sizecode (159)
45D2  A401C000           [001] self       6   1   256  ; 330393050
45D6  A2810001           [002] call       6   2   2  
45DA  E4414000           [003] self       7   0   257  ; -1917464545
45DE  E2810001           [004] call       7   2   2  
45E2  0B020002           [005] newtable   8   4   0    ; array=4, hash=0
45E6  5D820000           [006] getglobal  9   2        ; Engine
45EA  4EC2C004           [007] gettable   9   9   259  ; "SLOT_1"
45EE  9D820000           [008] getglobal  10  2        ; Engine
45F2  8E024105           [009] gettable   10  10  260  ; "SLOT_2"
45F6  DD820000           [010] getglobal  11  2        ; Engine
45FA  CE42C105           [011] gettable   11  11  261  ; "SLOT_6"
45FE  1D830000           [012] getglobal  12  2        ; Engine
4602  0E834106           [013] gettable   12  12  262  ; "SLOT_8"
4606  1B420002           [014] setlist    8   4   1    ; index 1 to 4
460A  4B020000           [015] newtable   9   0   0    ; array=0, hash=0
460E  9DC20100           [016] getglobal  10  7        ; 1672515847
4612  D2020004           [017] move       11  8      
4616  A2020101           [018] call       10  2   4  
461A  1A400980           [019] jmp        38           ; to [58]
461E  E403C203           [020] self       15  7   264  ; 1674984496
4622  52040007           [021] move       17  14     
4626  E2838001           [022] call       15  3   2  
462A  1D440200           [023] getglobal  16  9        ; 1074689893
462E  52048007           [024] move       17  15     
4632  22840001           [025] call       16  2   2  
4636  18440000           [026] test       16      1    ; to [28] if false
463A  1A400780           [027] jmp        30           ; to [58]
463E  2484C207           [028] self       16  15  266  ; -1664239072
4642  22840001           [029] call       16  2   2  
4646  18440000           [030] test       16      1    ; to [32] if false
464A  1A400680           [031] jmp        26           ; to [58]
464E  24C4C207           [032] self       16  15  267  ; -491574171
4652  22840001           [033] call       16  2   2  
4656  5D040300           [034] getglobal  17  12       ; -332969190
465A  A4444303           [035] self       18  6   269  ; 1590141906
465E  A2840001           [036] call       18  2   2  
4662  D2048006           [037] move       19  13     
4666  82C40409           [038] concat     18  18  19 
466A  62840001           [039] call       17  2   2  
466E  9D840300           [040] getglobal  18  14       ; table
4672  8EC44309           [041] gettable   18  18  271  ; -431682403
4676  D2048004           [042] move       19  9      
467A  0B850000           [043] newtable   20  0   2    ; array=0, hash=2
467E  0C450488           [044] settable   20  272 17   ; "sym"
4682  0C058488           [045] settable   20  273 16   ; "type"
4686  A2448001           [046] call       18  3   1  
468A  A484C403           [047] self       18  7   274  ; 1183180483
468E  12058008           [048] move       20  17     
4692  5DC50400           [049] getglobal  21  19       ; Game
4696  4E05C50A           [050] gettable   21  21  276  ; "WEAPON_PERCENT_BASE_DAMAGE_ADDED"
469A  9DC50400           [051] getglobal  22  19       ; Game
469E  8E45450B           [052] gettable   22  22  277  ; "ADD"
46A2  D2058001           [053] move       23  3      
46A6  12060008           [054] move       24  16     
46AA  4606800C           [055] loadnil    25  25     
46AE  92060001           [056] move       26  2      
46B2  A2448004           [057] call       18  9   1  
46B6  96820000           [058] tforloop   10      2    ; to [60] if exit
46BA  1AC0F57F           [059] jmp        -40          ; to [20]
46BE  A4844500           [060] self       18  0   278  ; -1421644046
46C2  12058002           [061] move       20  5      
46C6  5D050300           [062] getglobal  21  12       ; -332969190
46CA  99C50500           [063] loadk      22  23       ; "GAME_R1_WEAPON1"
46CE  62050001           [064] call       21  2   0  
46D2  A2840000           [065] call       18  0   2  
46D6  DD040600           [066] getglobal  19  24       ; Lotus_Game
46DA  CE44C609           [067] gettable   19  19  281  ; -84065502
46DE  E2848000           [068] call       19  1   2  
46E2  24C5C600           [069] self       20  1   283  ; 923660130
46E6  22850001           [070] call       20  2   2  
46EA  2405470A           [071] self       20  20  284  ; -1538682285
46EE  22850001           [072] call       20  2   2  
46F2  CC04058D           [073] settable   19  282 20   ; "instigator"
46F6  0B058000           [074] newtable   20  1   0    ; array=1, hash=0
46FA  52050000           [075] move       21  0      
46FE  1B458000           [076] setlist    20  1   1    ; index 1 to 1
4702  CC04858E           [077] settable   19  285 20   ; "affected"
4706  24C5C200           [078] self       20  1   267  ; -491574171
470A  22850001           [079] call       20  2   2  
470E  CC04058F           [080] settable   19  286 20   ; "abilityType"
4712  1D050600           [081] getglobal  20  24       ; Lotus_Game
4716  0E05480A           [082] gettable   20  20  288  ; "BT_PERCENT_TIMER"
471A  CC04858F           [083] settable   19  287 20   ; "buffType"
471E  CC048190           [084] settable   19  289 4    ; "buffData"
4722  1D050600           [085] getglobal  20  24       ; Lotus_Game
4726  0EC5480A           [086] gettable   20  20  291  ; "PowerSuit_AUGMENT_ONE"
472A  CC040591           [087] settable   19  290 20   ; "augmentType"
472E  0445C901           [088] mul        20  3   293  ; 0
4732  CC040592           [089] settable   19  292 20   ; "buffDataExtra"
4736  24854900           [090] self       20  0   294  ; 1481577430
473A  92058009           [091] move       22  19     
473E  D7058000           [092] loadbool   23  1   0    ; true
4742  17068000           [093] loadbool   24  1   0    ; true
4746  22458002           [094] call       20  5   1  
fail op	21
474A  15008193           [095] concat     0   295 4  
474E  1A400680           [096] jmp        26           ; to [123]
4752  1D450200           [097] getglobal  20  9        ; 1074689893
4756  52050000           [098] move       21  0      
475A  22850001           [099] call       20  2   2  
475E  18450000           [100] test       20      1    ; to [102] if false
4762  1A000580           [101] jmp        21           ; to [123]
4766  24054A00           [102] self       20  0   296  ; 1511086594
476A  22850001           [103] call       20  2   2  
476E  18450000           [104] test       20      1    ; to [106] if false
4772  1A000480           [105] jmp        17           ; to [123]
4776  1D450200           [106] getglobal  20  9        ; 1074689893
477A  52058000           [107] move       21  1      
477E  22850001           [108] call       20  2   2  
4782  18450000           [109] test       20      1    ; to [111] if false
4786  1AC00280           [110] jmp        12           ; to [123]
478A  2445CA00           [111] self       20  1   297  ; -1646165548
478E  92050000           [112] move       22  0      
4792  22858001           [113] call       20  3   2  
4796  18450000           [114] test       20      1    ; to [116] if false
479A  1A800180           [115] jmp        7            ; to [123]
479E  1D850A00           [116] getglobal  20  42       ; 538022378
47A2  59C50900           [117] loadk      21  39       ; 0
47A6  22450001           [118] call       20  2   1  
47AA  1DC50A00           [119] getglobal  20  43       ; 1289681407
47AE  22858000           [120] call       20  1   2  
47B2  0D010502           [121] sub        4   4   20 
47B6  1AC0F87F           [122] jmp        -28          ; to [95]
47BA  1D450200           [123] getglobal  20  9        ; 1074689893
47BE  52050000           [124] move       21  0      
47C2  22850001           [125] call       20  2   2  
47C6  18450000           [126] test       20      1    ; to [128] if false
47CA  1A800780           [127] jmp        31           ; to [159]
fail op	21
47CE  15008193           [128] concat     0   295 4  
47D2  1A000180           [129] jmp        5            ; to [135]
47D6  24854900           [130] self       20  0   294  ; 1481577430
47DA  92058009           [131] move       22  19     
47DE  D7050000           [132] loadbool   23  0   0    ; false
47E2  17068000           [133] loadbool   24  1   0    ; true
47E6  22458002           [134] call       20  5   1  
47EA  1DC50100           [135] getglobal  20  7        ; 1672515847
47EE  52058004           [136] move       21  9      
47F2  22050101           [137] call       20  2   4  
47F6  1A800280           [138] jmp        11           ; to [150]
47FA  6406CB03           [139] self       25  7   300  ; 1517555237
47FE  CE06440C           [140] gettable   27  24  272  ; "sym"
4802  1DC70400           [141] getglobal  28  19       ; Game
4806  0E07450E           [142] gettable   28  28  276  ; "WEAPON_PERCENT_BASE_DAMAGE_ADDED"
480A  5DC70400           [143] getglobal  29  19       ; Game
480E  4E47C50E           [144] gettable   29  29  277  ; "ADD"
4812  92078001           [145] move       30  3      
4816  CE47440C           [146] gettable   31  24  273  ; "type"
481A  06080010           [147] loadnil    32  32     
481E  52080001           [148] move       33  2      
4822  62468004           [149] call       25  9   1  
4826  16850000           [150] tforloop   20      2    ; to [152] if exit
482A  1A80FC7F           [151] jmp        -13          ; to [139]
482E  5D460200           [152] getglobal  25  9        ; 1074689893
4832  92060009           [153] move       26  18     
4836  62860001           [154] call       25  2   2  
483A  58460000           [155] test       25      1    ; to [157] if false
483E  1A400080           [156] jmp        2            ; to [159]
4842  64464B09           [157] self       25  18  301  ; -725453761
4846  62460001           [158] call       25  2   1  
484A  1E008000           [159] return     0   1      
                         * constants:
484E  2E                 sizek (46)
484F  01                 const type 3
4850  DA65B113           const [0]: (330393050)
4854  01                 const type 3
4855  1FD0B58D           const [1]: (-1917464545)
4859  04                 const type 4
485A  07                 string size (7)
485B  456E67696E6500     "Engine\0"
                         const [2]: "Engine"
4862  04                 const type 4
4863  07                 string size (7)
4864  534C4F545F3100     "SLOT_1\0"
                         const [3]: "SLOT_1"
486B  04                 const type 4
486C  07                 string size (7)
486D  534C4F545F3200     "SLOT_2\0"
                         const [4]: "SLOT_2"
4874  04                 const type 4
4875  07                 string size (7)
4876  534C4F545F3600     "SLOT_6\0"
                         const [5]: "SLOT_6"
487D  04                 const type 4
487E  07                 string size (7)
487F  534C4F545F3800     "SLOT_8\0"
                         const [6]: "SLOT_8"
4886  01                 const type 3
4887  0791B063           const [7]: (1672515847)
488B  01                 const type 3
488C  303CD663           const [8]: (1674984496)
4890  01                 const type 3
4891  65770E40           const [9]: (1074689893)
4895  01                 const type 3
4896  20BACD9C           const [10]: (-1664239072)
489A  01                 const type 3
489B  652CB3E2           const [11]: (-491574171)
489F  01                 const type 3
48A0  1A4B27EC           const [12]: (-332969190)
48A4  01                 const type 3
48A5  D2A3C75E           const [13]: (1590141906)
48A9  04                 const type 4
48AA  06                 string size (6)
48AB  7461626C6500       "table\0"
                         const [14]: "table"
48B1  01                 const type 3
48B2  9D0C45E6           const [15]: (-431682403)
48B6  04                 const type 4
48B7  04                 string size (4)
48B8  73796D00           "sym\0"
                         const [16]: "sym"
48BC  04                 const type 4
48BD  05                 string size (5)
48BE  7479706500         "type\0"
                         const [17]: "type"
48C3  01                 const type 3
48C4  C3E68546           const [18]: (1183180483)
48C8  04                 const type 4
48C9  05                 string size (5)
48CA  47616D6500         "Game\0"
                         const [19]: "Game"
48CF  04                 const type 4
48D0  21                 string size (33)
48D1  574541504F4E5F50+  "WEAPON_P"
48D9  455243454E545F42+  "ERCENT_B"
48E1  4153455F44414D41+  "ASE_DAMA"
48E9  47455F4144444544+  "GE_ADDED"
48F1  00                 "\0"
                         const [20]: "WEAPON_PERCENT_BASE_DAMAGE_ADDED"
48F2  04                 const type 4
48F3  04                 string size (4)
48F4  41444400           "ADD\0"
                         const [21]: "ADD"
48F8  01                 const type 3
48F9  F26E43AB           const [22]: (-1421644046)
48FD  04                 const type 4
48FE  10                 string size (16)
48FF  47414D455F52315F+  "GAME_R1_"
4907  574541504F4E3100   "WEAPON1\0"
                         const [23]: "GAME_R1_WEAPON1"
490F  04                 const type 4
4910  0B                 string size (11)
4911  4C6F7475735F4761+  "Lotus_Ga"
4919  6D6500             "me\0"
                         const [24]: "Lotus_Game"
491C  01                 const type 3
491D  2243FDFA           const [25]: (-84065502)
4921  04                 const type 4
4922  0B                 string size (11)
4923  696E737469676174+  "instigat"
492B  6F7200             "or\0"
                         const [26]: "instigator"
492E  01                 const type 3
492F  62EF0D37           const [27]: (923660130)
4933  01                 const type 3
4934  539249A4           const [28]: (-1538682285)
4938  04                 const type 4
4939  09                 string size (9)
493A  6166666563746564+  "affected"
4942  00                 "\0"
                         const [29]: "affected"
4943  04                 const type 4
4944  0C                 string size (12)
4945  6162696C69747954+  "abilityT"
494D  79706500           "ype\0"
                         const [30]: "abilityType"
4951  04                 const type 4
4952  09                 string size (9)
4953  6275666654797065+  "buffType"
495B  00                 "\0"
                         const [31]: "buffType"
495C  04                 const type 4
495D  11                 string size (17)
495E  42545F5045524345+  "BT_PERCE"
4966  4E545F54494D4552+  "NT_TIMER"
496E  00                 "\0"
                         const [32]: "BT_PERCENT_TIMER"
496F  04                 const type 4
4970  09                 string size (9)
4971  6275666644617461+  "buffData"
4979  00                 "\0"
                         const [33]: "buffData"
497A  04                 const type 4
497B  0C                 string size (12)
497C  6175676D656E7454+  "augmentT"
4984  79706500           "ype\0"
                         const [34]: "augmentType"
4988  04                 const type 4
4989  16                 string size (22)
498A  506F776572537569+  "PowerSui"
4992  745F4155474D454E+  "t_AUGMEN"
499A  545F4F4E4500       "T_ONE\0"
                         const [35]: "PowerSuit_AUGMENT_ONE"
49A0  04                 const type 4
49A1  0E                 string size (14)
49A2  6275666644617461+  "buffData"
49AA  457874726100       "Extra\0"
                         const [36]: "buffDataExtra"
49B0  03                 const type 3
49B1  0000C842           const [37]: (0)
49B5  01                 const type 3
49B6  D6134F58           const [38]: (1481577430)
49BA  03                 const type 3
49BB  00000000           const [39]: (0)
49BF  01                 const type 3
49C0  025A115A           const [40]: (1511086594)
49C4  01                 const type 3
49C5  D481E19D           const [41]: (-1646165548)
49C9  01                 const type 3
49CA  EA911120           const [42]: (538022378)
49CE  01                 const type 3
49CF  FFF9DE4C           const [43]: (1289681407)
49D3  01                 const type 3
49D4  250E745A           const [44]: (1517555237)
49D8  01                 const type 3
49D9  3F74C2D4           const [45]: (-725453761)
                         * functions:
49DD  00                 sizep (0)
                         * lines:
49DF  01                 sizelineinfo (159)
                         [pc] (line)
49E0  BF                 [001] (-65)
49E1  02                 [002] (-65)
49E2  00                 [003] (-64)
49E3  00                 [004] (-64)
49E4  BF                 [005] (-63)
49E5  02                 [006] (-63)
49E6  00                 [007] (-63)
49E7  00                 [008] (-63)
49E8  C0                 [009] (-63)
49E9  02                 [010] (-63)
49EA  00                 [011] (-63)
49EB  00                 [012] (-63)
49EC  C0                 [013] (-63)
49ED  02                 [014] (-63)
49EE  00                 [015] (-62)
49EF  00                 [016] (-60)
49F0  C1                 [017] (-60)
49F1  02                 [018] (-60)
49F2  00                 [019] (-60)
49F3  00                 [020] (-59)
49F4  C1                 [021] (-59)
49F5  02                 [022] (-59)
49F6  00                 [023] (-58)
49F7  00                 [024] (-58)
49F8  C1                 [025] (-58)
49F9  02                 [026] (-58)
49FA  00                 [027] (-58)
49FB  00                 [028] (-58)
49FC  C1                 [029] (-58)
49FD  02                 [030] (-58)
49FE  00                 [031] (-58)
49FF  00                 [032] (-57)
4A00  C1                 [033] (-57)
4A01  02                 [034] (-56)
4A02  00                 [035] (-56)
4A03  00                 [036] (-56)
4A04  C1                 [037] (-56)
4A05  02                 [038] (-56)
4A06  00                 [039] (-56)
4A07  00                 [040] (-55)
4A08  C1                 [041] (-55)
4A09  02                 [042] (-55)
4A0A  00                 [043] (-55)
4A0B  00                 [044] (-55)
4A0C  C1                 [045] (-55)
4A0D  02                 [046] (-55)
4A0E  00                 [047] (-53)
4A0F  00                 [048] (-53)
4A10  C1                 [049] (-53)
4A11  02                 [050] (-53)
4A12  00                 [051] (-53)
4A13  00                 [052] (-53)
4A14  C1                 [053] (-53)
4A15  02                 [054] (-53)
4A16  00                 [055] (-53)
4A17  00                 [056] (-53)
4A18  C2                 [057] (-53)
4A19  02                 [058] (-60)
4A1A  00                 [059] (-52)
4A1B  00                 [060] (-49)
4A1C  C4                 [061] (-49)
4A1D  02                 [062] (-49)
4A1E  00                 [063] (-49)
4A1F  00                 [064] (-49)
4A20  C4                 [065] (-49)
4A21  02                 [066] (-47)
4A22  00                 [067] (-47)
4A23  00                 [068] (-47)
4A24  C4                 [069] (-46)
4A25  02                 [070] (-46)
4A26  00                 [071] (-46)
4A27  00                 [072] (-46)
4A28  C4                 [073] (-46)
4A29  02                 [074] (-45)
4A2A  00                 [075] (-45)
4A2B  00                 [076] (-45)
4A2C  C5                 [077] (-45)
4A2D  02                 [078] (-44)
4A2E  00                 [079] (-44)
4A2F  00                 [080] (-44)
4A30  C5                 [081] (-43)
4A31  02                 [082] (-43)
4A32  00                 [083] (-43)
4A33  00                 [084] (-42)
4A34  C5                 [085] (-41)
4A35  02                 [086] (-41)
4A36  00                 [087] (-41)
4A37  00                 [088] (-40)
4A38  C6                 [089] (-40)
4A39  02                 [090] (-38)
4A3A  00                 [091] (-38)
4A3B  00                 [092] (-38)
4A3C  C6                 [093] (-38)
4A3D  02                 [094] (-38)
4A3E  00                 [095] (-35)
4A3F  00                 [096] (-35)
4A40  C6                 [097] (-34)
4A41  02                 [098] (-34)
4A42  00                 [099] (-34)
4A43  00                 [100] (-34)
4A44  C6                 [101] (-34)
4A45  02                 [102] (-33)
4A46  00                 [103] (-33)
4A47  00                 [104] (-33)
4A48  C6                 [105] (-33)
4A49  02                 [106] (-32)
4A4A  00                 [107] (-32)
4A4B  00                 [108] (-32)
4A4C  C6                 [109] (-32)
4A4D  02                 [110] (-32)
4A4E  00                 [111] (-31)
4A4F  00                 [112] (-31)
4A50  C6                 [113] (-31)
4A51  02                 [114] (-31)
4A52  00                 [115] (-31)
4A53  00                 [116] (-29)
4A54  C6                 [117] (-29)
4A55  02                 [118] (-29)
4A56  00                 [119] (-28)
4A57  00                 [120] (-28)
4A58  C6                 [121] (-28)
4A59  02                 [122] (-28)
4A5A  00                 [123] (-25)
4A5B  00                 [124] (-25)
4A5C  C7                 [125] (-25)
4A5D  02                 [126] (-25)
4A5E  00                 [127] (-25)
4A5F  00                 [128] (-24)
4A60  C7                 [129] (-24)
4A61  02                 [130] (-23)
4A62  00                 [131] (-23)
4A63  00                 [132] (-23)
4A64  C8                 [133] (-23)
4A65  02                 [134] (-23)
4A66  00                 [135] (-20)
4A67  00                 [136] (-20)
4A68  C8                 [137] (-20)
4A69  02                 [138] (-20)
4A6A  00                 [139] (-19)
4A6B  00                 [140] (-19)
4A6C  C8                 [141] (-19)
4A6D  02                 [142] (-19)
4A6E  00                 [143] (-19)
4A6F  00                 [144] (-19)
4A70  C8                 [145] (-19)
4A71  02                 [146] (-19)
4A72  00                 [147] (-19)
4A73  00                 [148] (-19)
4A74  C8                 [149] (-19)
4A75  02                 [150] (-20)
4A76  00                 [151] (-19)
4A77  00                 [152] (-16)
4A78  C8                 [153] (-16)
4A79  02                 [154] (-16)
4A7A  00                 [155] (-16)
4A7B  00                 [156] (-16)
4A7C  C9                 [157] (-15)
4A7D  02                 [158] (-15)
4A7E  00                 [159] (-12)
                         * locals:
4C5C  00                 sizelocvars (0)
                         * upvalues:
4C5D  00                 sizeupvalues (0)
                         ** end of function **

                         
4C5E                     ** function [36] definition (level 2)
                         ** start of function **
4C5E  00                 string size (0)
                         source name: (none)
4C60  05                 line defined (758)
4C61  A4                 last line defined (804)
4C62  06                 nups (0)
4C63  00                 numparams (3)
4C64  03                 is_vararg (0)
4C65  00                 maxstacksize (28)
                         * code:
4C67  6C                 sizecode (108)
4C68  E4004000           [001] self       3   0   256  ; 923660130
4C6C  E2800001           [002] call       3   2   2  
4C70  2441C001           [003] self       4   3   257  ; -1538682285
4C74  22810001           [004] call       4   2   2  
4C78  6481C001           [005] self       5   3   258  ; 1789415806
4C7C  E4C14000           [006] self       7   0   259  ; -491574171
4C80  E2010001           [007] call       7   2   0  
4C84  62810000           [008] call       5   0   2  
4C88  A4014102           [009] self       6   4   260  ; -1544157541
4C8C  A2810001           [010] call       6   2   2  
4C90  D9410100           [011] loadk      7   5        ; -51
4C94  19820100           [012] loadk      8   6        ; 0
4C98  4B020000           [013] newtable   9   0   0    ; array=0, hash=0
4C9C  9DC20100           [014] getglobal  10  7        ; math
4CA0  8E024205           [015] gettable   10  10  264  ; -1124579617
4CA4  C4824104           [016] mul        11  8   262  ; 0
4CA8  A2820001           [017] call       10  2   2  
4CAC  D9420200           [018] loadk      11  9        ; 0
4CB0  12030005           [019] move       12  10     
4CB4  59430200           [020] loadk      13  9        ; 0
4CB8  D0820180           [021] forprep    11  7        ; to [29]
4CBC  DD830200           [022] getglobal  15  10       ; table
4CC0  CEC3C207           [023] gettable   15  15  267  ; -431682403
4CC4  12048004           [024] move       16  9      
4CC8  4B840000           [025] newtable   17  0   2    ; array=0, hash=2
4CCC  4C444386           [026] settable   17  268 269  ; "time" 0
4CD0  4C444287           [027] settable   17  270 265  ; "health" 0
4CD4  E2438001           [028] call       15  3   1  
4CD8  D4C2FD7F           [029] forloop    11  -8       ; to [22] if loop
4CDC  C603000A           [030] loadnil    15  20     
4CE0  5DC50300           [031] getglobal  21  15       ; 1074689893
4CE4  92058001           [032] move       22  3      
4CE8  62850001           [033] call       21  2   2  
4CEC  58450000           [034] test       21      1    ; to [36] if false
4CF0  1AC01180           [035] jmp        72           ; to [108]
4CF4  5DC50300           [036] getglobal  21  15       ; 1074689893
4CF8  92050000           [037] move       22  0      
4CFC  62850001           [038] call       21  2   2  
4D00  58450000           [039] test       21      1    ; to [41] if false
4D04  1A801080           [040] jmp        67           ; to [108]
4D08  64054402           [041] self       21  4   272  ; 1511086594
4D0C  62850001           [042] call       21  2   2  
4D10  58450000           [043] test       21      1    ; to [45] if false
4D14  1A800F80           [044] jmp        63           ; to [108]
4D18  64454400           [045] self       21  0   273  ; 188678183
4D1C  62850001           [046] call       21  2   2  
4D20  58450000           [047] test       21      1    ; to [49] if false
4D24  1A800D80           [048] jmp        55           ; to [104]
4D28  64854402           [049] self       21  4   274  ; 945541886
4D2C  62850001           [050] call       21  2   2  
4D30  A4C54403           [051] self       22  6   275  ; -227502409
4D34  A2850001           [052] call       22  2   2  
4D38  0384850A           [053] add        16  21  22 
4D3C  64054502           [054] self       21  4   276  ; 796523475
4D40  62850001           [055] call       21  2   2  
4D44  A4454503           [056] self       22  6   277  ; -1583259949
4D48  A2850001           [057] call       22  2   2  
4D4C  C383850A           [058] add        15  21  22 
4D50  5C048407           [059] div        17  15  16 
4D54  5D850500           [060] getglobal  21  22       ; 1491452635
4D58  62858000           [061] call       21  1   2  
4D5C  9204800A           [062] move       18  21     
4D60  CD040209           [063] sub        19  18  8  
4D64  52050005           [064] move       21  10     
4D68  99450200           [065] loadk      22  9        ; 0
4D6C  D9C50500           [066] loadk      23  23       ; 0
4D70  50450480           [067] forprep    21  18       ; to [86]
4D74  0E058604           [068] gettable   20  9   24 
4D78  4E06430A           [069] gettable   25  20  268  ; "time"
fail op	21
4D7C  15C0840C           [070] concat     0   25  19 
4D80  1A400080           [071] jmp        2            ; to [74]
4D84  1A400380           [072] jmp        14           ; to [87]
4D88  1AC00280           [073] jmp        12           ; to [86]
4D8C  4E86430A           [074] gettable   25  20  270  ; "health"
4D90  4D46840C           [075] sub        25  25  17 
fail op	33
4D94  21408603           [076] tforloop   0       25   ; to [78] if exit
4D98  1AC00180           [077] jmp        8            ; to [86]
4D9C  4B860000           [078] newtable   25  0   2    ; array=0, hash=2
4DA0  4C860486           [079] settable   25  268 18   ; "time"
4DA4  4C460487           [080] settable   25  270 17   ; "health"
4DA8  4C420605           [081] settable   9   10  25 
4DAC  64064600           [082] self       25  0   280  ; 2011209304
4DB0  D9460300           [083] loadk      27  13       ; 0
4DB4  62468001           [084] call       25  3   1  
4DB8  1A000080           [085] jmp        1            ; to [87]
4DBC  5405FB7F           [086] forloop    21  -19      ; to [68] if loop
4DC0  4E868204           [087] gettable   25  9   10 
4DC4  4E06C30C           [088] gettable   25  25  268  ; "time"
4DC8  4346C20C           [089] add        25  25  265  ; 0
fail op	21
4DCC  1580840C           [090] concat     0   25  18 
4DD0  1AC00280           [091] jmp        12           ; to [104]
4DD4  5D860200           [092] getglobal  25  10       ; table
4DD8  4E46C60C           [093] gettable   25  25  281  ; -843973282
4DDC  92068004           [094] move       26  9      
4DE0  D9460200           [095] loadk      27  9        ; 0
4DE4  62468001           [096] call       25  3   1  
4DE8  5D860200           [097] getglobal  25  10       ; table
4DEC  4EC6C20C           [098] gettable   25  25  267  ; -431682403
4DF0  92068004           [099] move       26  9      
4DF4  CB860000           [100] newtable   27  0   2    ; array=0, hash=2
4DF8  CC860486           [101] settable   27  268 18   ; "time"
4DFC  CC460487           [102] settable   27  270 17   ; "health"
4E00  62468001           [103] call       25  3   1  
4E04  5D860600           [104] getglobal  25  26       ; 538022378
4E08  99460100           [105] loadk      26  5        ; -51
4E0C  62460001           [106] call       25  2   1  
4E10  1A80EC7F           [107] jmp        -77          ; to [31]
4E14  1E008000           [108] return     0   1      
                         * constants:
4E18  1B                 sizek (27)
4E19  01                 const type 3
4E1A  62EF0D37           const [0]: (923660130)
4E1E  01                 const type 3
4E1F  539249A4           const [1]: (-1538682285)
4E23  01                 const type 3
4E24  7E51A86A           const [2]: (1789415806)
4E28  01                 const type 3
4E29  652CB3E2           const [3]: (-491574171)
4E2D  01                 const type 3
4E2E  9B06F6A3           const [4]: (-1544157541)
4E32  03                 const type 3
4E33  CDCCCC3D           const [5]: (-51)
4E37  03                 const type 3
4E38  00000040           const [6]: (0)
4E3C  04                 const type 4
4E3D  05                 string size (5)
4E3E  6D61746800         "math\0"
                         const [7]: "math"
4E43  01                 const type 3
4E44  DF46F8BC           const [8]: (-1124579617)
4E48  03                 const type 3
4E49  0000803F           const [9]: (0)
4E4D  04                 const type 4
4E4E  06                 string size (6)
4E4F  7461626C6500       "table\0"
                         const [10]: "table"
4E55  01                 const type 3
4E56  9D0C45E6           const [11]: (-431682403)
4E5A  04                 const type 4
4E5B  05                 string size (5)
4E5C  74696D6500         "time\0"
                         const [12]: "time"
4E61  03                 const type 3
4E62  00000000           const [13]: (0)
4E66  04                 const type 4
4E67  07                 string size (7)
4E68  6865616C746800     "health\0"
                         const [14]: "health"
4E6F  01                 const type 3
4E70  65770E40           const [15]: (1074689893)
4E74  01                 const type 3
4E75  025A115A           const [16]: (1511086594)
4E79  01                 const type 3
4E7A  27003F0B           const [17]: (188678183)
4E7E  01                 const type 3
4E7F  FED25B38           const [18]: (945541886)
4E83  01                 const type 3
4E84  B79670F2           const [19]: (-227502409)
4E88  01                 const type 3
4E89  D3FB792F           const [20]: (796523475)
4E8D  01                 const type 3
4E8E  D35EA1A1           const [21]: (-1583259949)
4E92  01                 const type 3
4E93  DBC2E558           const [22]: (1491452635)
4E97  03                 const type 3
4E98  000080BF           const [23]: (0)
4E9C  01                 const type 3
4E9D  589EE077           const [24]: (2011209304)
4EA1  01                 const type 3
4EA2  5EFDB1CD           const [25]: (-843973282)
4EA6  01                 const type 3
4EA7  EA911120           const [26]: (538022378)
                         * functions:
4EAB  00                 sizep (0)
                         * lines:
4EAC  6C                 sizelineinfo (108)
                         [pc] (line)
4EAD  F7                 [001] (-9)
4EAE  02                 [002] (-9)
4EAF  00                 [003] (-8)
4EB0  00                 [004] (-8)
4EB1  F7                 [005] (-7)
4EB2  02                 [006] (-7)
4EB3  00                 [007] (-7)
4EB4  00                 [008] (-7)
4EB5  F8                 [009] (-6)
4EB6  02                 [010] (-6)
4EB7  00                 [011] (-4)
4EB8  00                 [012] (-3)
4EB9  F8                 [013] (-1)
4EBA  02                 [014] (0)
4EBB  00                 [015] (0)
4EBC  00                 [016] (0)
4EBD  F9                 [017] (0)
4EBE  02                 [018] (2)
4EBF  00                 [019] (2)
4EC0  00                 [020] (2)
4EC1  F9                 [021] (2)
4EC2  02                 [022] (3)
4EC3  00                 [023] (3)
4EC4  00                 [024] (3)
4EC5  F9                 [025] (3)
4EC6  02                 [026] (3)
4EC7  00                 [027] (3)
4EC8  00                 [028] (3)
4EC9  F9                 [029] (2)
4ECA  02                 [030] (6)
4ECB  00                 [031] (8)
4ECC  00                 [032] (8)
4ECD  FA                 [033] (8)
4ECE  02                 [034] (8)
4ECF  00                 [035] (8)
4ED0  00                 [036] (8)
4ED1  FA                 [037] (8)
4ED2  02                 [038] (8)
4ED3  00                 [039] (8)
4ED4  00                 [040] (8)
4ED5  FC                 [041] (8)
4ED6  02                 [042] (8)
4ED7  00                 [043] (8)
4ED8  00                 [044] (8)
4ED9  FD                 [045] (9)
4EDA  02                 [046] (9)
4EDB  00                 [047] (9)
4EDC  00                 [048] (9)
4EDD  FF                 [049] (10)
4EDE  02                 [050] (10)
4EDF  00                 [051] (10)
4EE0  00                 [052] (10)
4EE1  00                 [053] (10)
4EE2  03                 [054] (11)
4EE3  00                 [055] (11)
4EE4  00                 [056] (11)
4EE5  00                 [057] (11)
4EE6  03                 [058] (11)
4EE7  00                 [059] (12)
4EE8  00                 [060] (13)
4EE9  00                 [061] (13)
4EEA  03                 [062] (13)
4EEB  00                 [063] (14)
4EEC  00                 [064] (16)
4EED  00                 [065] (16)
4EEE  03                 [066] (16)
4EEF  00                 [067] (16)
4EF0  00                 [068] (17)
4EF1  02                 [069] (19)
4EF2  03                 [070] (19)
4EF3  00                 [071] (19)
4EF4  00                 [072] (20)
4EF5  02                 [073] (20)
4EF6  03                 [074] (21)
4EF7  00                 [075] (21)
4EF8  00                 [076] (21)
4EF9  02                 [077] (21)
4EFA  03                 [078] (22)
4EFB  00                 [079] (22)
4EFC  00                 [080] (22)
4EFD  02                 [081] (22)
4EFE  03                 [082] (23)
4EFF  00                 [083] (23)
4F00  00                 [084] (23)
4F01  03                 [085] (24)
4F02  03                 [086] (16)
4F03  00                 [087] (28)
4F04  00                 [088] (28)
4F05  03                 [089] (28)
4F06  03                 [090] (28)
4F07  00                 [091] (28)
4F08  00                 [092] (29)
4F09  03                 [093] (29)
4F0A  03                 [094] (29)
4F0B  00                 [095] (29)
4F0C  00                 [096] (29)
4F0D  03                 [097] (30)
4F0E  03                 [098] (30)
4F0F  00                 [099] (30)
4F10  00                 [100] (30)
4F11  03                 [101] (30)
4F12  03                 [102] (30)
4F13  00                 [103] (30)
4F14  00                 [104] (34)
4F15  03                 [105] (34)
4F16  03                 [106] (34)
4F17  00                 [107] (34)
4F18  00                 [108] (36)
                         * locals:
505D  00                 sizelocvars (0)
                         * upvalues:
505E  00                 sizeupvalues (0)
                         ** end of function **

                         
505F                     ** function [37] definition (level 2)
                         ** start of function **
505F  00                 string size (0)
                         source name: (none)
5061  06                 line defined (809)
5062  E4                 last line defined (868)
5063  06                 nups (1)
5064  01                 numparams (1)
5065  01                 is_vararg (0)
5066  00                 maxstacksize (12)
                         * code:
5069  01                 sizecode (145)
506A  4E004000           [001] gettable   1   0   256  ; "suit"
506E  9D400000           [002] getglobal  2   1        ; 1074689893
5072  D2008000           [003] move       3   1      
5076  A2800001           [004] call       2   2   2  
507A  98000000           [005] test       2       0    ; to [7] if true
507E  1A000080           [006] jmp        1            ; to [8]
5082  1E008000           [007] return     0   1      
5086  A480C000           [008] self       2   1   258  ; -1538682285
508A  A2800001           [009] call       2   2   2  
508E  DD400000           [010] getglobal  3   1        ; 1074689893
5092  12010001           [011] move       4   2      
5096  E2800001           [012] call       3   2   2  
509A  D8400000           [013] test       3       1    ; to [15] if false
509E  1AC00180           [014] jmp        8            ; to [23]
50A2  E4C04001           [015] self       3   2   259  ; 1511086594
50A6  E2800001           [016] call       3   2   2  
50AA  D8400000           [017] test       3       1    ; to [19] if false
50AE  1AC00080           [018] jmp        4            ; to [23]
50B2  E4004101           [019] self       3   2   260  ; -1519595333
50B6  E2800001           [020] call       3   2   2  
50BA  D8000000           [021] test       3       0    ; to [23] if true
50BE  1A000080           [022] jmp        1            ; to [24]
50C2  1E008000           [023] return     0   1      
50C6  E4404101           [024] self       3   2   261  ; -1917464545
50CA  E2800001           [025] call       3   2   2  
50CE  2481C101           [026] self       4   3   262  ; -1331347373
50D2  97010000           [027] loadbool   6   0   0    ; false
50D6  22418001           [028] call       4   3   1  
50DA  24C1C101           [029] self       4   3   263  ; 1815503922
50DE  97010000           [030] loadbool   6   0   0    ; false
50E2  22418001           [031] call       4   3   1  
50E6  24014201           [032] self       4   2   264  ; 1309201817
50EA  22810001           [033] call       4   2   2  
50EE  18010000           [034] test       4       0    ; to [36] if true
50F2  1A400280           [035] jmp        10           ; to [46]
50F6  6441C200           [036] self       5   1   265  ; -721628113
50FA  CE814200           [037] gettable   7   0   266  ; "ability"
50FE  1DC20200           [038] getglobal  8   11       ; -332969190
5102  59020300           [039] loadk      9   12       ; "GiveWeapon"
5106  22820001           [040] call       8   2   2  
510A  5D420300           [041] getglobal  9   13       ; Lotus_Game
510E  4E82C304           [042] gettable   9   9   270  ; 1305134297
5112  97020000           [043] loadbool   10  0   0    ; false
5116  62020001           [044] call       9   2   0  
511A  62410000           [045] call       5   0   1  
511E  4EC14300           [046] gettable   5   0   271  ; "weaponType"
5122  86010003           [047] loadnil    6   6      
5126  DD410000           [048] getglobal  7   1        ; 1074689893
512A  12020001           [049] move       8   2      
512E  E2810001           [050] call       7   2   2  
5132  D8410000           [051] test       7       1    ; to [53] if false
5136  1AC00180           [052] jmp        8            ; to [61]
513A  E4C14001           [053] self       7   2   259  ; 1511086594
513E  E2810001           [054] call       7   2   2  
5142  D8410000           [055] test       7       1    ; to [57] if false
5146  1AC00080           [056] jmp        4            ; to [61]
514A  E4014101           [057] self       7   2   260  ; -1519595333
514E  E2810001           [058] call       7   2   2  
5152  D8010000           [059] test       7       0    ; to [61] if true
5156  1A000080           [060] jmp        1            ; to [62]
515A  1E008000           [061] return     0   1      
515E  E401C401           [062] self       7   3   272  ; 1184786314
5162  5D420400           [063] getglobal  9   17       ; Engine
5166  4E82C404           [064] gettable   9   9   274  ; "MAIN_HAND"
516A  E2818001           [065] call       7   3   2  
516E  92018003           [066] move       6   7      
5172  DD410000           [067] getglobal  7   1        ; 1074689893
5176  12020003           [068] move       8   6      
517A  E2810001           [069] call       7   2   2  
517E  D8410000           [070] test       7       1    ; to [72] if false
5182  1A800980           [071] jmp        39           ; to [111]
5186  E4C14403           [072] self       7   6   275  ; -491574171
518A  E2810001           [073] call       7   2   2  
fail op	35
518E  23408103           [074] close      0  
5192  1A800880           [075] jmp        35           ; to [111]
5196  E4014503           [076] self       7   6   276  ; -803264084
519A  E2810001           [077] call       7   2   2  
519E  1D420400           [078] getglobal  8   17       ; Engine
51A2  0E424504           [079] gettable   8   8   277  ; "WS_EQUIP"
fail op	35
51A6  63008203           [080] close      1  
51AA  1A000780           [081] jmp        29           ; to [111]
51AE  CE814500           [082] gettable   7   0   278  ; "damageAmount"
fail op	35
51B2  63C0C503           [083] close      1  
51B6  1A400380           [084] jmp        14           ; to [99]
51BA  CE014600           [085] gettable   7   0   280  ; "damageType"
fail op	35
51BE  63C0C503           [086] close      1  
51C2  1A800280           [087] jmp        11           ; to [99]
51C6  CE414600           [088] gettable   7   0   281  ; "procChance"
fail op	35
51CA  63C0C503           [089] close      1  
51CE  1AC00180           [090] jmp        8            ; to [99]
51D2  E4814603           [091] self       7   6   282  ; 2028548349
51D6  59C20600           [092] loadk      9   27       ; 0
51DA  E2818001           [093] call       7   3   2  
51DE  E401C703           [094] self       7   7   284  ; -872021692
51E2  4E824500           [095] gettable   9   0   278  ; "damageAmount"
51E6  8E024600           [096] gettable   10  0   280  ; "damageType"
51EA  CE424600           [097] gettable   11  0   281  ; "procChance"
51EE  E2418002           [098] call       7   5   1  
51F2  E4414703           [099] self       7   6   285  ; 1783817004
51F6  52028000           [100] move       9   1      
51FA  E2418001           [101] call       7   3   1  
51FE  CE814700           [102] gettable   7   0   286  ; "weaponEquippedFnc"
fail op	35
5202  63C0C503           [103] close      1  
5206  1A400280           [104] jmp        10           ; to [115]
520A  CEC14700           [105] gettable   7   0   287  ; 970758202
520E  12028000           [106] move       8   1      
5212  52020001           [107] move       9   2      
5216  92020003           [108] move       10  6      
521A  E2410002           [109] call       7   4   1  
521E  1AC00080           [110] jmp        4            ; to [115]
5222  DD010800           [111] getglobal  7   32       ; 538022378
5226  19C20600           [112] loadk      8   27       ; 0
522A  E2410001           [113] call       7   2   1  
522E  1A00EF7F           [114] jmp        -67          ; to [48]
5232  D3010000           [115] getupval   7   0      
5236  CE41C803           [116] gettable   7   7   289  ; -1467086624
523A  E2818000           [117] call       7   1   2  
523E  D8010000           [118] test       7       0    ; to [120] if true
5242  1A000180           [119] jmp        5            ; to [125]
5246  D3010000           [120] getupval   7   0      
524A  CE81C803           [121] gettable   7   7   290  ; 427582550
524E  12020003           [122] move       8   6      
5252  57028000           [123] loadbool   9   1   0    ; true
5256  E2418001           [124] call       7   3   1  
525A  E481C101           [125] self       7   3   262  ; -1331347373
525E  57028000           [126] loadbool   9   1   0    ; true
5262  E2418001           [127] call       7   3   1  
5266  E4C1C101           [128] self       7   3   263  ; 1815503922
526A  57028000           [129] loadbool   9   1   0    ; true
526E  E2418001           [130] call       7   3   1  
5272  E4C14801           [131] self       7   2   291  ; -1201586349
5276  E2810001           [132] call       7   2   2  
527A  D8010000           [133] test       7       0    ; to [135] if true
527E  1A400280           [134] jmp        10           ; to [145]
5282  CE014900           [135] gettable   7   0   292  ; "abilityActiveAnim"
fail op	35
5286  2340C903           [136] close      0  
528A  1A800180           [137] jmp        7            ; to [145]
528E  DD810900           [138] getglobal  7   38       ; _T
5292  CEC1C903           [139] gettable   7   7   295  ; -932837722
5296  2402CA00           [140] self       8   1   296  ; 719059002
529A  8E824200           [141] gettable   10  0   266  ; "ability"
529E  22828001           [142] call       8   3   2  
52A2  57028000           [143] loadbool   9   1   0    ; true
52A6  E2418001           [144] call       7   3   1  
52AA  1E008000           [145] return     0   1      
                         * constants:
52AE  29                 sizek (41)
52AF  04                 const type 4
52B0  05                 string size (5)
52B1  7375697400         "suit\0"
                         const [0]: "suit"
52B6  01                 const type 3
52B7  65770E40           const [1]: (1074689893)
52BB  01                 const type 3
52BC  539249A4           const [2]: (-1538682285)
52C0  01                 const type 3
52C1  025A115A           const [3]: (1511086594)
52C5  01                 const type 3
52C6  BBD06CA5           const [4]: (-1519595333)
52CA  01                 const type 3
52CB  1FD0B58D           const [5]: (-1917464545)
52CF  01                 const type 3
52D0  5340A5B0           const [6]: (-1331347373)
52D4  01                 const type 3
52D5  3264366C           const [7]: (1815503922)
52D9  01                 const type 3
52DA  99D5084E           const [8]: (1309201817)
52DE  01                 const type 3
52DF  2FD4FCD4           const [9]: (-721628113)
52E3  04                 const type 4
52E4  08                 string size (8)
52E5  6162696C69747900   "ability\0"
                         const [10]: "ability"
52ED  01                 const type 3
52EE  1A4B27EC           const [11]: (-332969190)
52F2  04                 const type 4
52F3  0B                 string size (11)
52F4  4769766557656170+  "GiveWeap"
52FC  6F6E00             "on\0"
                         const [12]: "GiveWeapon"
52FF  04                 const type 4
5300  0B                 string size (11)
5301  4C6F7475735F4761+  "Lotus_Ga"
5309  6D6500             "me\0"
                         const [13]: "Lotus_Game"
530C  01                 const type 3
530D  D9C4CA4D           const [14]: (1305134297)
5311  04                 const type 4
5312  0B                 string size (11)
5313  776561706F6E5479+  "weaponTy"
531B  706500             "pe\0"
                         const [15]: "weaponType"
531E  01                 const type 3
531F  8A679E46           const [16]: (1184786314)
5323  04                 const type 4
5324  07                 string size (7)
5325  456E67696E6500     "Engine\0"
                         const [17]: "Engine"
532C  04                 const type 4
532D  0A                 string size (10)
532E  4D41494E5F48414E+  "MAIN_HAN"
5336  4400               "D\0"
                         const [18]: "MAIN_HAND"
5338  01                 const type 3
5339  652CB3E2           const [19]: (-491574171)
533D  01                 const type 3
533E  AC291FD0           const [20]: (-803264084)
5342  04                 const type 4
5343  09                 string size (9)
5344  57535F4551554950+  "WS_EQUIP"
534C  00                 "\0"
                         const [21]: "WS_EQUIP"
534D  04                 const type 4
534E  0D                 string size (13)
534F  64616D616765416D+  "damageAm"
5357  6F756E7400         "ount\0"
                         const [22]: "damageAmount"
535C  00                 const type 0
                         const [23]: nil
535D  04                 const type 4
535E  0B                 string size (11)
535F  64616D6167655479+  "damageTy"
5367  706500             "pe\0"
                         const [24]: "damageType"
536A  04                 const type 4
536B  0B                 string size (11)
536C  70726F634368616E+  "procChan"
5374  636500             "ce\0"
                         const [25]: "procChance"
5377  01                 const type 3
5378  FD30E978           const [26]: (2028548349)
537C  03                 const type 3
537D  00000000           const [27]: (0)
5381  01                 const type 3
5382  440106CC           const [28]: (-872021692)
5386  01                 const type 3
5387  2CE3526A           const [29]: (1783817004)
538B  04                 const type 4
538C  12                 string size (18)
538D  776561706F6E4571+  "weaponEq"
5395  756970706564466E+  "uippedFn"
539D  6300               "c\0"
                         const [30]: "weaponEquippedFnc"
539F  01                 const type 3
53A0  3A98DC39           const [31]: (970758202)
53A4  01                 const type 3
53A5  EA911120           const [32]: (538022378)
53A9  01                 const type 3
53AA  E0088EA8           const [33]: (-1467086624)
53AE  01                 const type 3
53AF  56647C19           const [34]: (427582550)
53B3  01                 const type 3
53B4  533F61B8           const [35]: (-1201586349)
53B8  04                 const type 4
53B9  12                 string size (18)
53BA  6162696C69747941+  "abilityA"
53C2  6374697665416E69+  "ctiveAni"
53CA  6D00               "m\0"
                         const [36]: "abilityActiveAnim"
53CC  01                 const type 3
53CD  01000000           const [37]: (1)
53D1  04                 const type 4
53D2  03                 string size (3)
53D3  5F5400             "_T\0"
                         const [38]: "_T"
53D6  01                 const type 3
53D7  A60666C8           const [39]: (-932837722)
53DB  01                 const type 3
53DC  3AF8DB2A           const [40]: (719059002)
                         * functions:
53E0  00                 sizep (0)
                         * lines:
53E2  01                 sizelineinfo (145)
                         [pc] (line)
53E3  2A                 [001] (42)
53E4  03                 [002] (43)
53E5  00                 [003] (43)
53E6  00                 [004] (43)
53E7  2B                 [005] (43)
53E8  03                 [006] (43)
53E9  00                 [007] (44)
53EA  00                 [008] (47)
53EB  2B                 [009] (47)
53EC  03                 [010] (48)
53ED  00                 [011] (48)
53EE  00                 [012] (48)
53EF  2B                 [013] (48)
53F0  03                 [014] (48)
53F1  00                 [015] (48)
53F2  00                 [016] (48)
53F3  2B                 [017] (48)
53F4  03                 [018] (48)
53F5  00                 [019] (48)
53F6  00                 [020] (48)
53F7  2B                 [021] (48)
53F8  03                 [022] (48)
53F9  00                 [023] (49)
53FA  00                 [024] (52)
53FB  2C                 [025] (52)
53FC  03                 [026] (53)
53FD  00                 [027] (53)
53FE  00                 [028] (53)
53FF  2F                 [029] (54)
5400  03                 [030] (54)
5401  00                 [031] (54)
5402  00                 [032] (56)
5403  2F                 [033] (56)
5404  03                 [034] (57)
5405  00                 [035] (57)
5406  00                 [036] (58)
5407  30                 [037] (58)
5408  03                 [038] (58)
5409  00                 [039] (58)
540A  00                 [040] (58)
540B  30                 [041] (58)
540C  03                 [042] (58)
540D  00                 [043] (58)
540E  00                 [044] (58)
540F  30                 [045] (58)
5410  03                 [046] (61)
5411  00                 [047] (62)
5412  00                 [048] (65)
5413  30                 [049] (65)
5414  03                 [050] (65)
5415  00                 [051] (65)
5416  00                 [052] (65)
5417  30                 [053] (65)
5418  03                 [054] (65)
5419  00                 [055] (65)
541A  00                 [056] (65)
541B  30                 [057] (65)
541C  03                 [058] (65)
541D  00                 [059] (65)
541E  00                 [060] (65)
541F  30                 [061] (66)
5420  03                 [062] (69)
5421  00                 [063] (69)
5422  00                 [064] (69)
5423  30                 [065] (69)
5424  03                 [066] (69)
5425  00                 [067] (71)
5426  00                 [068] (71)
5427  30                 [069] (71)
5428  03                 [070] (71)
5429  00                 [071] (71)
542A  00                 [072] (72)
542B  30                 [073] (72)
542C  03                 [074] (72)
542D  00                 [075] (72)
542E  00                 [076] (73)
542F  30                 [077] (73)
5430  03                 [078] (73)
5431  00                 [079] (73)
5432  00                 [080] (73)
5433  30                 [081] (73)
5434  03                 [082] (75)
5435  00                 [083] (75)
5436  00                 [084] (75)
5437  30                 [085] (75)
5438  03                 [086] (75)
5439  00                 [087] (75)
543A  00                 [088] (75)
543B  31                 [089] (75)
543C  03                 [090] (75)
543D  00                 [091] (76)
543E  00                 [092] (76)
543F  34                 [093] (76)
5440  03                 [094] (76)
5441  00                 [095] (76)
5442  00                 [096] (76)
5443  34                 [097] (76)
5444  03                 [098] (76)
5445  00                 [099] (78)
5446  00                 [100] (78)
5447  35                 [101] (78)
5448  03                 [102] (80)
5449  00                 [103] (80)
544A  00                 [104] (80)
544B  35                 [105] (81)
544C  03                 [106] (81)
544D  00                 [107] (81)
544E  00                 [108] (81)
544F  35                 [109] (81)
5450  03                 [110] (84)
5451  00                 [111] (87)
5452  00                 [112] (87)
5453  36                 [113] (87)
5454  03                 [114] (87)
5455  00                 [115] (90)
5456  00                 [116] (90)
5457  36                 [117] (90)
5458  03                 [118] (90)
5459  00                 [119] (90)
545A  00                 [120] (91)
545B  36                 [121] (91)
545C  03                 [122] (91)
545D  00                 [123] (91)
545E  00                 [124] (91)
545F  38                 [125] (94)
5460  03                 [126] (94)
5461  00                 [127] (94)
5462  00                 [128] (95)
5463  38                 [129] (95)
5464  03                 [130] (95)
5465  00                 [131] (97)
5466  00                 [132] (97)
5467  39                 [133] (97)
5468  03                 [134] (97)
5469  00                 [135] (97)
546A  00                 [136] (97)
546B  39                 [137] (97)
546C  03                 [138] (98)
546D  00                 [139] (98)
546E  00                 [140] (98)
546F  3A                 [141] (98)
5470  03                 [142] (98)
5471  00                 [143] (98)
5472  00                 [144] (98)
5473  3A                 [145] (100)
                         * locals:
5627  00                 sizelocvars (0)
                         * upvalues:
5628  00                 sizeupvalues (0)
                         ** end of function **

                         
5629                     ** function [38] definition (level 2)
                         ** start of function **
5629  00                 string size (0)
                         source name: (none)
562B  06                 line defined (870)
562C  FE                 last line defined (1022)
562D  07                 nups (0)
562E  00                 numparams (1)
562F  01                 is_vararg (0)
5630  00                 maxstacksize (18)
                         * code:
5633  03                 sizecode (405)
5634  4E004000           [001] gettable   1   0   256  ; "suit"
5638  9D400000           [002] getglobal  2   1        ; 1074689893
563C  D2008000           [003] move       3   1      
5640  A2800001           [004] call       2   2   2  
5644  98400000           [005] test       2       1    ; to [7] if false
5648  1AC00180           [006] jmp        8            ; to [15]
564C  A480C000           [007] self       2   1   258  ; 1736221879
5650  A2800001           [008] call       2   2   2  
5654  98000000           [009] test       2       0    ; to [11] if true
5658  1AC00080           [010] jmp        4            ; to [15]
565C  9DC00000           [011] getglobal  2   3        ; 538022378
5660  D9000100           [012] loadk      3   4        ; 0
5664  A2400001           [013] call       2   2   1  
5668  1A80FC7F           [014] jmp        -13          ; to [2]
566C  9D400000           [015] getglobal  2   1        ; 1074689893
5670  D2008000           [016] move       3   1      
5674  A2800001           [017] call       2   2   2  
5678  98000000           [018] test       2       0    ; to [20] if true
567C  1A000080           [019] jmp        1            ; to [21]
5680  1E008000           [020] return     0   1      
5684  A440C100           [021] self       2   1   261  ; -1538682285
5688  A2800001           [022] call       2   2   2  
568C  DD400000           [023] getglobal  3   1        ; 1074689893
5690  12010001           [024] move       4   2      
5694  E2800001           [025] call       3   2   2  
5698  D8000000           [026] test       3       0    ; to [28] if true
569C  1A000080           [027] jmp        1            ; to [29]
56A0  1E008000           [028] return     0   1      
56A4  CE804100           [029] gettable   3   0   262  ; "preRemoveFnc"
fail op	35
56A8  63C0C101           [030] close      1  
56AC  1AC00080           [031] jmp        4            ; to [36]
56B0  CE004200           [032] gettable   3   0   264  ; 1229768650
56B4  12018000           [033] move       4   1      
56B8  52010001           [034] move       5   2      
56BC  E2408001           [035] call       3   3   1  
56C0  E4404201           [036] self       3   2   265  ; -717859730
56C4  E2800001           [037] call       3   2   2  
56C8  D8000000           [038] test       3       0    ; to [40] if true
56CC  1A400280           [039] jmp        10           ; to [50]
56D0  CE804200           [040] gettable   3   0   266  ; "abilityActiveAnim"
fail op	35
56D4  23C0C201           [041] close      0  
56D8  1A800180           [042] jmp        7            ; to [50]
56DC  DD000300           [043] getglobal  3   12       ; _T
56E0  CE40C301           [044] gettable   3   3   269  ; -932837722
56E4  2481C300           [045] self       4   1   270  ; 719059002
56E8  8EC14300           [046] gettable   6   0   271  ; "ability"
56EC  22818001           [047] call       4   3   2  
56F0  57010000           [048] loadbool   5   0   0    ; false
56F4  E2408001           [049] call       3   3   1  
56F8  E4004401           [050] self       3   2   272  ; -1917464545
56FC  E2800001           [051] call       3   2   2  
5700  2441C401           [052] self       4   3   273  ; 339947353
5704  22410001           [053] call       4   2   1  
5708  2481C401           [054] self       4   3   274  ; 1815503922
570C  97010000           [055] loadbool   6   0   0    ; false
5710  22418001           [056] call       4   3   1  
5714  24C14401           [057] self       4   2   275  ; 1309201817
5718  22810001           [058] call       4   2   2  
571C  64014501           [059] self       5   2   276  ; -605089866
5720  62810001           [060] call       5   2   2  
5724  8E414500           [061] gettable   6   0   277  ; "weaponSlot"
5728  CE814500           [062] gettable   7   0   278  ; "skinUnequip"
572C  D8010000           [063] test       7       0    ; to [65] if true
5730  1A800680           [064] jmp        27           ; to [92]
5734  DD010300           [065] getglobal  7   12       ; _T
5738  CEC1C503           [066] gettable   7   7   279  ; "exaltedAbility"
fail op	35
573C  63C0C103           [067] close      1  
5740  1A800880           [068] jmp        35           ; to [104]
5744  DD010300           [069] getglobal  7   12       ; _T
5748  CEC1C503           [070] gettable   7   7   279  ; "exaltedAbility"
574C  CE418103           [071] gettable   7   7   5  
fail op	35
5750  63C0C103           [072] close      1  
5754  1A400780           [073] jmp        30           ; to [104]
5758  DD010300           [074] getglobal  7   12       ; _T
575C  CEC1C503           [075] gettable   7   7   279  ; "exaltedAbility"
5760  CE418103           [076] gettable   7   7   5  
5764  CCC1418C           [077] settable   7   280 263  ; "activated" nil
5768  DD010300           [078] getglobal  7   12       ; _T
576C  CEC1C503           [079] gettable   7   7   279  ; "exaltedAbility"
5770  CE418103           [080] gettable   7   7   5  
5774  CE41C603           [081] gettable   7   7   281  ; "disableSlot"
fail op	35
5778  23C0C203           [082] close      0  
577C  1AC00480           [083] jmp        20           ; to [104]
5780  E481C601           [084] self       7   3   282  ; -1572901801
5784  52020003           [085] move       9   6      
5788  E2418001           [086] call       7   3   1  
578C  DD010300           [087] getglobal  7   12       ; _T
5790  CEC1C503           [088] gettable   7   7   279  ; "exaltedAbility"
5794  CE418103           [089] gettable   7   7   5  
5798  CCC1C18C           [090] settable   7   281 263  ; "disableSlot" nil
579C  1AC00280           [091] jmp        12           ; to [104]
57A0  18010000           [092] test       4       0    ; to [94] if true
57A4  1A400280           [093] jmp        10           ; to [104]
57A8  E4C1C600           [094] self       7   1   283  ; -721628113
57AC  4EC24300           [095] gettable   9   0   271  ; "ability"
57B0  9D020700           [096] getglobal  10  28       ; -332969190
57B4  D9420700           [097] loadk      11  29       ; "RemoveWeapon"
57B8  A2820001           [098] call       10  2   2  
57BC  DD820700           [099] getglobal  11  30       ; Lotus_Game
57C0  CEC2C705           [100] gettable   11  11  287  ; 1305134297
57C4  17030000           [101] loadbool   12  0   0    ; false
57C8  E2020001           [102] call       11  2   0  
57CC  E2410000           [103] call       7   0   1  
57D0  DD010800           [104] getglobal  7   32       ; gRegion
57D4  E441C803           [105] self       7   7   289  ; -1520831144
57D8  E2810001           [106] call       7   2   2  
57DC  D8010000           [107] test       7       0    ; to [109] if true
57E0  1AC00680           [108] jmp        28           ; to [137]
57E4  DD010300           [109] getglobal  7   12       ; _T
57E8  CEC1C503           [110] gettable   7   7   279  ; "exaltedAbility"
fail op	35
57EC  63C0C103           [111] close      1  
57F0  1AC00580           [112] jmp        24           ; to [137]
57F4  DD010300           [113] getglobal  7   12       ; _T
57F8  CEC1C503           [114] gettable   7   7   279  ; "exaltedAbility"
57FC  CE418103           [115] gettable   7   7   5  
fail op	35
5800  63C0C103           [116] close      1  
5804  1A800480           [117] jmp        19           ; to [137]
5808  DD410000           [118] getglobal  7   1        ; 1074689893
580C  12020001           [119] move       8   2      
5810  E2810001           [120] call       7   2   2  
5814  D8410000           [121] test       7       1    ; to [123] if false
5818  1A400380           [122] jmp        14           ; to [137]
581C  E481C801           [123] self       7   3   290  ; -1046454183
5820  E2810001           [124] call       7   2   2  
5824  D8410000           [125] test       7       1    ; to [127] if false
5828  1A400280           [126] jmp        10           ; to [137]
582C  DD010300           [127] getglobal  7   12       ; _T
5830  CEC1C503           [128] gettable   7   7   279  ; "exaltedAbility"
5834  CE418103           [129] gettable   7   7   5  
5838  CE01C603           [130] gettable   7   7   280  ; "activated"
583C  D8010000           [131] test       7       0    ; to [133] if true
5840  1AC00080           [132] jmp        4            ; to [137]
5844  DDC10000           [133] getglobal  7   3        ; 538022378
5848  19020100           [134] loadk      8   4        ; 0
584C  E2410001           [135] call       7   2   1  
5850  1A00FB7F           [136] jmp        -19          ; to [118]
5854  D7010000           [137] loadbool   7   0   0    ; false
5858  0E824500           [138] gettable   8   0   278  ; "skinUnequip"
585C  18420000           [139] test       8       1    ; to [141] if false
5860  1A400F80           [140] jmp        62           ; to [203]
5864  1D420000           [141] getglobal  8   1        ; 1074689893
5868  52020001           [142] move       9   2      
586C  22820001           [143] call       8   2   2  
5870  18420000           [144] test       8       1    ; to [146] if false
5874  1A000E80           [145] jmp        57           ; to [203]
5878  24C24801           [146] self       8   2   291  ; 1511086594
587C  22820001           [147] call       8   2   2  
5880  18420000           [148] test       8       1    ; to [150] if false
5884  1A000D80           [149] jmp        53           ; to [203]
5888  24024901           [150] self       8   2   292  ; -1519595333
588C  22820001           [151] call       8   2   2  
5890  18420000           [152] test       8       1    ; to [154] if false
5894  1A000C80           [153] jmp        49           ; to [203]
5898  2482C801           [154] self       8   3   290  ; -1046454183
589C  22820001           [155] call       8   2   2  
58A0  18420000           [156] test       8       1    ; to [158] if false
58A4  1A000B80           [157] jmp        45           ; to [203]
58A8  2442C901           [158] self       8   3   293  ; 1184786314
58AC  9D820900           [159] getglobal  10  38       ; Engine
58B0  8EC24905           [160] gettable   10  10  295  ; "MAIN_HAND"
58B4  22828001           [161] call       8   3   2  
58B8  5D420000           [162] getglobal  9   1        ; 1074689893
58BC  92020004           [163] move       10  8      
58C0  62820001           [164] call       9   2   2  
58C4  58420000           [165] test       9       1    ; to [167] if false
58C8  1AC00880           [166] jmp        36           ; to [203]
58CC  64024A04           [167] self       9   8   296  ; -491574171
58D0  62820001           [168] call       9   2   2  
58D4  8E424A00           [169] gettable   10  0   297  ; "weaponType"
fail op	35
58D8  63808204           [170] close      1  
58DC  1A400080           [171] jmp        2            ; to [174]
58E0  1A400780           [172] jmp        30           ; to [203]
58E4  1A000680           [173] jmp        25           ; to [199]
58E8  5D020800           [174] getglobal  9   32       ; gRegion
58EC  6442C804           [175] self       9   9   289  ; -1520831144
58F0  62820001           [176] call       9   2   2  
58F4  58020000           [177] test       9       0    ; to [179] if true
58F8  1A400180           [178] jmp        6            ; to [185]
58FC  64824A04           [179] self       9   8   298  ; -803264084
5900  62820001           [180] call       9   2   2  
5904  9D820900           [181] getglobal  10  38       ; Engine
5908  8EC24A05           [182] gettable   10  10  299  ; "WS_EQUIP"
fail op	35
590C  63808204           [183] close      1  
5910  1AC00280           [184] jmp        12           ; to [197]
5914  5D420000           [185] getglobal  9   1        ; 1074689893
5918  A4024B01           [186] self       10  2   300  ; -564624675
591C  A2020001           [187] call       10  2   0  
5920  62820000           [188] call       9   0   2  
5924  58020000           [189] test       9       0    ; to [191] if true
5928  1AC00180           [190] jmp        8            ; to [199]
592C  5D420000           [191] getglobal  9   1        ; 1074689893
5930  A4424B01           [192] self       10  2   301  ; -1764426596
5934  A2020001           [193] call       10  2   0  
5938  62820000           [194] call       9   0   2  
593C  58420000           [195] test       9       1    ; to [197] if false
5940  1A400080           [196] jmp        2            ; to [199]
5944  D7018000           [197] loadbool   7   1   0    ; true
5948  1AC00080           [198] jmp        4            ; to [203]
594C  5DC20000           [199] getglobal  9   3        ; 538022378
5950  99020100           [200] loadk      10  4        ; 0
5954  62420001           [201] call       9   2   1  
5958  1A80EF7F           [202] jmp        -65          ; to [138]
595C  5D420000           [203] getglobal  9   1        ; 1074689893
5960  92020001           [204] move       10  2      
5964  62820001           [205] call       9   2   2  
5968  58420000           [206] test       9       1    ; to [208] if false
596C  1A401080           [207] jmp        66           ; to [274]
5970  4E424A00           [208] gettable   9   0   297  ; "weaponType"
5974  6482CB04           [209] self       9   9   302  ; -1957065004
5978  DDC20B00           [210] getglobal  11  47       ; gLotusMeleeWeaponType
597C  62828001           [211] call       9   3   2  
5980  9D020800           [212] getglobal  10  32       ; gRegion
5984  A4424805           [213] self       10  10  289  ; -1520831144
5988  A2820001           [214] call       10  2   2  
598C  98020000           [215] test       10      0    ; to [217] if true
5990  1A000C80           [216] jmp        49           ; to [266]
5994  A442C901           [217] self       10  3   293  ; 1184786314
5998  1D830900           [218] getglobal  12  38       ; Engine
599C  0EC34906           [219] gettable   12  12  295  ; "MAIN_HAND"
59A0  A2828001           [220] call       10  3   2  
59A4  E402CC01           [221] self       11  3   304  ; -1331347373
59A8  57038000           [222] loadbool   13  1   0    ; true
59AC  E2428001           [223] call       11  3   1  
59B0  E442CC01           [224] self       11  3   305  ; 1997676861
59B4  5D830900           [225] getglobal  13  38       ; Engine
59B8  4E83CC06           [226] gettable   13  13  306  ; "SLOT_8"
59BC  92030003           [227] move       14  6      
59C0  E2420002           [228] call       11  4   1  
59C4  CE824500           [229] gettable   11  0   278  ; "skinUnequip"
59C8  D8420000           [230] test       11      1    ; to [232] if false
59CC  1A400580           [231] jmp        22           ; to [254]
59D0  DD420000           [232] getglobal  11  1        ; 1074689893
59D4  12030005           [233] move       12  10     
59D8  E2820001           [234] call       11  2   2  
59DC  D8420000           [235] test       11      1    ; to [237] if false
59E0  1AC00080           [236] jmp        4            ; to [241]
59E4  E4C24C05           [237] self       11  10  307  ; -1057537912
59E8  E2820001           [238] call       11  2   2  
fail op	35
59EC  63808105           [239] close      1  
59F0  1A400180           [240] jmp        6            ; to [247]
59F4  D8410000           [241] test       7       1    ; to [243] if false
59F8  1AC00080           [242] jmp        4            ; to [247]
59FC  E482C801           [243] self       11  3   290  ; -1046454183
5A00  E2820001           [244] call       11  2   2  
5A04  D8020000           [245] test       11      0    ; to [247] if true
5A08  1A800180           [246] jmp        7            ; to [254]
5A0C  E402CD01           [247] self       11  3   308  ; 688774453
5A10  52030003           [248] move       13  6      
5A14  9D830900           [249] getglobal  14  38       ; Engine
5A18  8EC34907           [250] gettable   14  14  295  ; "MAIN_HAND"
5A1C  DD830900           [251] getglobal  15  38       ; Engine
5A20  CE43CD07           [252] gettable   15  15  309  ; "InventoryControllerBase_ES_INSTANT_EQUIP"
5A24  E2428002           [253] call       11  5   1  
5A28  E4824D01           [254] self       11  2   310  ; -655368910
5A2C  4E434A00           [255] gettable   13  0   297  ; "weaponType"
5A30  E2428001           [256] call       11  3   1  
5A34  58020000           [257] test       9       0    ; to [259] if true
5A38  1AC00080           [258] jmp        4            ; to [263]
5A3C  E4C2CD01           [259] self       11  3   311  ; 655648260
5A40  57038000           [260] loadbool   13  1   0    ; true
5A44  97038000           [261] loadbool   14  1   0    ; true
5A48  E2420002           [262] call       11  4   1  
5A4C  E402CC01           [263] self       11  3   304  ; -1331347373
5A50  57030000           [264] loadbool   13  0   0    ; false
5A54  E2428001           [265] call       11  3   1  
5A58  58020000           [266] test       9       0    ; to [268] if true
5A5C  1A400180           [267] jmp        6            ; to [274]
5A60  E4024E01           [268] self       11  2   312  ; -1302048094
5A64  5D030700           [269] getglobal  13  28       ; -332969190
5A68  99430E00           [270] loadk      14  57       ; "RevertFinishers"
5A6C  62830001           [271] call       13  2   2  
5A70  97030000           [272] loadbool   14  0   0    ; false
5A74  E2420002           [273] call       11  4   1  
5A78  CE824500           [274] gettable   11  0   278  ; "skinUnequip"
5A7C  D8420000           [275] test       11      1    ; to [277] if false
5A80  1A800A80           [276] jmp        43           ; to [320]
5A84  DD420000           [277] getglobal  11  1        ; 1074689893
5A88  12030001           [278] move       12  2      
5A8C  E2820001           [279] call       11  2   2  
5A90  D8420000           [280] test       11      1    ; to [282] if false
5A94  1A400980           [281] jmp        38           ; to [320]
5A98  E4C24801           [282] self       11  2   291  ; 1511086594
5A9C  E2820001           [283] call       11  2   2  
5AA0  D8420000           [284] test       11      1    ; to [286] if false
5AA4  1A400880           [285] jmp        34           ; to [320]
5AA8  E4024901           [286] self       11  2   292  ; -1519595333
5AAC  E2820001           [287] call       11  2   2  
5AB0  D8420000           [288] test       11      1    ; to [290] if false
5AB4  1A400780           [289] jmp        30           ; to [320]
5AB8  E482C801           [290] self       11  3   290  ; -1046454183
5ABC  E2820001           [291] call       11  2   2  
5AC0  D8420000           [292] test       11      1    ; to [294] if false
5AC4  1A400680           [293] jmp        26           ; to [320]
5AC8  E442C901           [294] self       11  3   293  ; 1184786314
5ACC  5D830900           [295] getglobal  13  38       ; Engine
5AD0  4EC3C906           [296] gettable   13  13  295  ; "MAIN_HAND"
5AD4  E2828001           [297] call       11  3   2  
5AD8  1D430000           [298] getglobal  12  1        ; 1074689893
5ADC  52038005           [299] move       13  11     
5AE0  22830001           [300] call       12  2   2  
5AE4  18430000           [301] test       12      1    ; to [303] if false
5AE8  1A000480           [302] jmp        17           ; to [320]
5AEC  2483CA05           [303] self       12  11  298  ; -803264084
5AF0  22830001           [304] call       12  2   2  
5AF4  5D830900           [305] getglobal  13  38       ; Engine
5AF8  4EC3CA06           [306] gettable   13  13  299  ; "WS_EQUIP"
fail op	35
5AFC  63400306           [307] close      1  
5B00  1A800180           [308] jmp        7            ; to [316]
5B04  2483CA05           [309] self       12  11  298  ; -803264084
5B08  22830001           [310] call       12  2   2  
5B0C  5D830900           [311] getglobal  13  38       ; Engine
5B10  4E83CE06           [312] gettable   13  13  314  ; "WS_DORMANT"
fail op	35
5B14  63400306           [313] close      1  
5B18  1A000080           [314] jmp        1            ; to [316]
5B1C  1AC00080           [315] jmp        4            ; to [320]
5B20  1DC30000           [316] getglobal  12  3        ; 538022378
5B24  59030100           [317] loadk      13  4        ; 0
5B28  22430001           [318] call       12  2   1  
5B2C  1A40F47F           [319] jmp        -46          ; to [274]
5B30  1D430000           [320] getglobal  12  1        ; 1074689893
5B34  52030001           [321] move       13  2      
5B38  22830001           [322] call       12  2   2  
5B3C  18430000           [323] test       12      1    ; to [325] if false
5B40  1A001080           [324] jmp        65           ; to [390]
5B44  24C3CE01           [325] self       12  3   315  ; 1976862256
5B48  9D830900           [326] getglobal  14  38       ; Engine
5B4C  8E034F07           [327] gettable   14  14  316  ; "EXTRA2"
5B50  22838001           [328] call       12  3   2  
5B54  5D830900           [329] getglobal  13  38       ; Engine
5B58  4E43CF06           [330] gettable   13  13  317  ; "GRAB"
fail op	35
5B5C  23400306           [331] close      0  
5B60  1A800480           [332] jmp        19           ; to [352]
5B64  2483CF01           [333] self       12  3   318  ; 1856017039
5B68  9D830900           [334] getglobal  14  38       ; Engine
5B6C  8E034F07           [335] gettable   14  14  316  ; "EXTRA2"
5B70  22838001           [336] call       12  3   2  
5B74  5D430000           [337] getglobal  13  1        ; 1074689893
5B78  92030006           [338] move       14  12     
5B7C  62830001           [339] call       13  2   2  
5B80  58430000           [340] test       13      1    ; to [342] if false
5B84  1AC00080           [341] jmp        4            ; to [346]
5B88  64C34F06           [342] self       13  12  319  ; 1049255893
5B8C  62830001           [343] call       13  2   2  
5B90  58430000           [344] test       13      1    ; to [346] if false
5B94  1A400180           [345] jmp        6            ; to [352]
5B98  6403D001           [346] self       13  3   320  ; 664005256
5B9C  DD830900           [347] getglobal  15  38       ; Engine
5BA0  CE03CF07           [348] gettable   15  15  316  ; "EXTRA2"
5BA4  1D840900           [349] getglobal  16  38       ; Engine
5BA8  0E445008           [350] gettable   16  16  321  ; "HOLSTER"
5BAC  62430002           [351] call       13  4   1  
5BB0  6483C401           [352] self       13  3   274  ; 1815503922
5BB4  D7038000           [353] loadbool   15  1   0    ; true
5BB8  62438001           [354] call       13  3   1  
5BBC  6483CF01           [355] self       13  3   318  ; 1856017039
5BC0  DD830900           [356] getglobal  15  38       ; Engine
5BC4  CEC3C907           [357] gettable   15  15  295  ; "MAIN_HAND"
5BC8  62838001           [358] call       13  3   2  
5BCC  9D430000           [359] getglobal  14  1        ; 1074689893
5BD0  D2038006           [360] move       15  13     
5BD4  A2830001           [361] call       14  2   2  
5BD8  98430000           [362] test       14      1    ; to [364] if false
5BDC  1A400380           [363] jmp        14           ; to [378]
5BE0  A4C3CE01           [364] self       14  3   315  ; 1976862256
5BE4  1D840900           [365] getglobal  16  38       ; Engine
5BE8  0EC44908           [366] gettable   16  16  295  ; "MAIN_HAND"
5BEC  A2838001           [367] call       14  3   2  
5BF0  DD830900           [368] getglobal  15  38       ; Engine
5BF4  CE43D007           [369] gettable   15  15  321  ; "HOLSTER"
fail op	35
5BF8  23C00307           [370] close      0  
5BFC  1A400180           [371] jmp        6            ; to [378]
5C00  A403D001           [372] self       14  3   320  ; 664005256
5C04  1D840900           [373] getglobal  16  38       ; Engine
5C08  0EC44908           [374] gettable   16  16  295  ; "MAIN_HAND"
5C0C  5D840900           [375] getglobal  17  38       ; Engine
5C10  4E44CF08           [376] gettable   17  17  317  ; "GRAB"
5C14  A2430002           [377] call       14  4   1  
5C18  9D430000           [378] getglobal  14  1        ; 1074689893
5C1C  D2038006           [379] move       15  13     
5C20  A2830001           [380] call       14  2   2  
5C24  98430000           [381] test       14      1    ; to [383] if false
5C28  1AC00080           [382] jmp        4            ; to [387]
5C2C  A483D006           [383] self       14  13  322  ; -1249812311
5C30  A2830001           [384] call       14  2   2  
5C34  98430000           [385] test       14      1    ; to [387] if false
5C38  1A800080           [386] jmp        3            ; to [390]
5C3C  A403CC01           [387] self       14  3   304  ; -1331347373
5C40  17048000           [388] loadbool   16  1   0    ; true
5C44  A2438001           [389] call       14  3   1  
5C48  9D030300           [390] getglobal  14  12       ; _T
5C4C  8EC34507           [391] gettable   14  14  279  ; "exaltedAbility"
fail op	35
5C50  63C04107           [392] close      1  
5C54  1A800280           [393] jmp        11           ; to [405]
5C58  9D030300           [394] getglobal  14  12       ; _T
5C5C  8EC34507           [395] gettable   14  14  279  ; "exaltedAbility"
5C60  8CC3C102           [396] settable   14  5   263  ; nil
5C64  9DC31000           [397] getglobal  14  67       ; -1442191459
5C68  DD030300           [398] getglobal  15  12       ; _T
5C6C  CEC3C507           [399] gettable   15  15  279  ; "exaltedAbility"
5C70  A2830001           [400] call       14  2   2  
fail op	35
5C74  23C04107           [401] close      0  
5C78  1A400080           [402] jmp        2            ; to [405]
5C7C  9D030300           [403] getglobal  14  12       ; _T
5C80  8CC3C18B           [404] settable   14  279 263  ; "exaltedAbility" nil
5C84  1E008000           [405] return     0   1      
                         * constants:
5C88  44                 sizek (68)
5C89  04                 const type 4
5C8A  05                 string size (5)
5C8B  7375697400         "suit\0"
                         const [0]: "suit"
5C90  01                 const type 3
5C91  65770E40           const [1]: (1074689893)
5C95  01                 const type 3
5C96  B7A47C67           const [2]: (1736221879)
5C9A  01                 const type 3
5C9B  EA911120           const [3]: (538022378)
5C9F  03                 const type 3
5CA0  00000000           const [4]: (0)
5CA4  01                 const type 3
5CA5  539249A4           const [5]: (-1538682285)
5CA9  04                 const type 4
5CAA  0D                 string size (13)
5CAB  70726552656D6F76+  "preRemov"
5CB3  65466E6300         "eFnc\0"
                         const [6]: "preRemoveFnc"
5CB8  00                 const type 0
                         const [7]: nil
5CB9  01                 const type 3
5CBA  CAC74C49           const [8]: (1229768650)
5CBE  01                 const type 3
5CBF  6E5436D5           const [9]: (-717859730)
5CC3  04                 const type 4
5CC4  12                 string size (18)
5CC5  6162696C69747941+  "abilityA"
5CCD  6374697665416E69+  "ctiveAni"
5CD5  6D00               "m\0"
                         const [10]: "abilityActiveAnim"
5CD7  01                 const type 3
5CD8  01000000           const [11]: (1)
5CDC  04                 const type 4
5CDD  03                 string size (3)
5CDE  5F5400             "_T\0"
                         const [12]: "_T"
5CE1  01                 const type 3
5CE2  A60666C8           const [13]: (-932837722)
5CE6  01                 const type 3
5CE7  3AF8DB2A           const [14]: (719059002)
5CEB  04                 const type 4
5CEC  08                 string size (8)
5CED  6162696C69747900   "ability\0"
                         const [15]: "ability"
5CF5  01                 const type 3
5CF6  1FD0B58D           const [16]: (-1917464545)
5CFA  01                 const type 3
5CFB  592F4314           const [17]: (339947353)
5CFF  01                 const type 3
5D00  3264366C           const [18]: (1815503922)
5D04  01                 const type 3
5D05  99D5084E           const [19]: (1309201817)
5D09  01                 const type 3
5D0A  B60FEFDB           const [20]: (-605089866)
5D0E  04                 const type 4
5D0F  0B                 string size (11)
5D10  776561706F6E536C+  "weaponSl"
5D18  6F7400             "ot\0"
                         const [21]: "weaponSlot"
5D1B  04                 const type 4
5D1C  0C                 string size (12)
5D1D  736B696E556E6571+  "skinUneq"
5D25  75697000           "uip\0"
                         const [22]: "skinUnequip"
5D29  04                 const type 4
5D2A  0F                 string size (15)
5D2B  6578616C74656441+  "exaltedA"
5D33  62696C69747900     "bility\0"
                         const [23]: "exaltedAbility"
5D3A  04                 const type 4
5D3B  0A                 string size (10)
5D3C  6163746976617465+  "activate"
5D44  6400               "d\0"
                         const [24]: "activated"
5D46  04                 const type 4
5D47  0C                 string size (12)
5D48  64697361626C6553+  "disableS"
5D50  6C6F7400           "lot\0"
                         const [25]: "disableSlot"
5D54  01                 const type 3
5D55  576C3FA2           const [26]: (-1572901801)
5D59  01                 const type 3
5D5A  2FD4FCD4           const [27]: (-721628113)
5D5E  01                 const type 3
5D5F  1A4B27EC           const [28]: (-332969190)
5D63  04                 const type 4
5D64  0D                 string size (13)
5D65  52656D6F76655765+  "RemoveWe"
5D6D  61706F6E00         "apon\0"
                         const [29]: "RemoveWeapon"
5D72  04                 const type 4
5D73  0B                 string size (11)
5D74  4C6F7475735F4761+  "Lotus_Ga"
5D7C  6D6500             "me\0"
                         const [30]: "Lotus_Game"
5D7F  01                 const type 3
5D80  D9C4CA4D           const [31]: (1305134297)
5D84  04                 const type 4
5D85  08                 string size (8)
5D86  67526567696F6E00   "gRegion\0"
                         const [32]: "gRegion"
5D8E  01                 const type 3
5D8F  58F559A5           const [33]: (-1520831144)
5D93  01                 const type 3
5D94  5960A0C1           const [34]: (-1046454183)
5D98  01                 const type 3
5D99  025A115A           const [35]: (1511086594)
5D9D  01                 const type 3
5D9E  BBD06CA5           const [36]: (-1519595333)
5DA2  01                 const type 3
5DA3  8A679E46           const [37]: (1184786314)
5DA7  04                 const type 4
5DA8  07                 string size (7)
5DA9  456E67696E6500     "Engine\0"
                         const [38]: "Engine"
5DB0  04                 const type 4
5DB1  0A                 string size (10)
5DB2  4D41494E5F48414E+  "MAIN_HAN"
5DBA  4400               "D\0"
                         const [39]: "MAIN_HAND"
5DBC  01                 const type 3
5DBD  652CB3E2           const [40]: (-491574171)
5DC1  04                 const type 4
5DC2  0B                 string size (11)
5DC3  776561706F6E5479+  "weaponTy"
5DCB  706500             "pe\0"
                         const [41]: "weaponType"
5DCE  01                 const type 3
5DCF  AC291FD0           const [42]: (-803264084)
5DD3  04                 const type 4
5DD4  09                 string size (9)
5DD5  57535F4551554950+  "WS_EQUIP"
5DDD  00                 "\0"
                         const [43]: "WS_EQUIP"
5DDE  01                 const type 3
5DDF  DD8258DE           const [44]: (-564624675)
5DE3  01                 const type 3
5DE4  9CFCD496           const [45]: (-1764426596)
5DE8  01                 const type 3
5DE9  D48E598B           const [46]: (-1957065004)
5DED  04                 const type 4
5DEE  16                 string size (22)
5DEF  674C6F7475734D65+  "gLotusMe"
5DF7  6C6565576561706F+  "leeWeapo"
5DFF  6E5479706500       "nType\0"
                         const [47]: "gLotusMeleeWeaponType"
5E05  01                 const type 3
5E06  5340A5B0           const [48]: (-1331347373)
5E0A  01                 const type 3
5E0B  3D211277           const [49]: (1997676861)
5E0F  04                 const type 4
5E10  07                 string size (7)
5E11  534C4F545F3800     "SLOT_8\0"
                         const [50]: "SLOT_8"
5E18  01                 const type 3
5E19  8840F7C0           const [51]: (-1057537912)
5E1D  01                 const type 3
5E1E  35DD0D29           const [52]: (688774453)
5E22  04                 const type 4
5E23  29                 string size (41)
5E24  496E76656E746F72+  "Inventor"
5E2C  79436F6E74726F6C+  "yControl"
5E34  6C6572426173655F+  "lerBase_"
5E3C  45535F494E535441+  "ES_INSTA"
5E44  4E545F4551554950+  "NT_EQUIP"
5E4C  00                 "\0"
                         const [53]: "InventoryControllerBase_ES_INSTANT_EQUIP"
5E4D  01                 const type 3
5E4E  32DDEFD8           const [54]: (-655368910)
5E52  01                 const type 3
5E53  04661427           const [55]: (655648260)
5E57  01                 const type 3
5E58  A25264B2           const [56]: (-1302048094)
5E5C  04                 const type 4
5E5D  10                 string size (16)
5E5E  5265766572744669+  "RevertFi"
5E66  6E69736865727300   "nishers\0"
                         const [57]: "RevertFinishers"
5E6E  04                 const type 4
5E6F  0B                 string size (11)
5E70  57535F444F524D41+  "WS_DORMA"
5E78  4E5400             "NT\0"
                         const [58]: "WS_DORMANT"
5E7B  01                 const type 3
5E7C  3086D475           const [59]: (1976862256)
5E80  04                 const type 4
5E81  07                 string size (7)
5E82  45585452413200     "EXTRA2\0"
                         const [60]: "EXTRA2"
5E89  04                 const type 4
5E8A  05                 string size (5)
5E8B  4752414200         "GRAB\0"
                         const [61]: "GRAB"
5E90  01                 const type 3
5E91  8F92A06E           const [62]: (1856017039)
5E95  01                 const type 3
5E96  D55F8A3E           const [63]: (1049255893)
5E9A  01                 const type 3
5E9B  88EA9327           const [64]: (664005256)
5E9F  04                 const type 4
5EA0  08                 string size (8)
5EA1  484F4C5354455200   "HOLSTER\0"
                         const [65]: "HOLSTER"
5EA9  01                 const type 3
5EAA  A96081B5           const [66]: (-1249812311)
5EAE  01                 const type 3
5EAF  9DE709AA           const [67]: (-1442191459)
                         * functions:
5EB3  00                 sizep (0)
                         * lines:
5EB5  03                 sizelineinfo (405)
                         [pc] (line)
5EB6  67                 [001] (103)
5EB7  03                 [002] (104)
5EB8  00                 [003] (104)
5EB9  00                 [004] (104)
5EBA  68                 [005] (104)
5EBB  03                 [006] (104)
5EBC  00                 [007] (104)
5EBD  00                 [008] (104)
5EBE  68                 [009] (104)
5EBF  03                 [010] (104)
5EC0  00                 [011] (105)
5EC1  00                 [012] (105)
5EC2  68                 [013] (105)
5EC3  03                 [014] (105)
5EC4  00                 [015] (108)
5EC5  00                 [016] (108)
5EC6  68                 [017] (108)
5EC7  03                 [018] (108)
5EC8  00                 [019] (108)
5EC9  00                 [020] (109)
5ECA  68                 [021] (112)
5ECB  03                 [022] (112)
5ECC  00                 [023] (113)
5ECD  00                 [024] (113)
5ECE  68                 [025] (113)
5ECF  03                 [026] (113)
5ED0  00                 [027] (113)
5ED1  00                 [028] (114)
5ED2  68                 [029] (117)
5ED3  03                 [030] (117)
5ED4  00                 [031] (117)
5ED5  00                 [032] (118)
5ED6  68                 [033] (118)
5ED7  03                 [034] (118)
5ED8  00                 [035] (118)
5ED9  00                 [036] (121)
5EDA  68                 [037] (121)
5EDB  03                 [038] (121)
5EDC  00                 [039] (121)
5EDD  00                 [040] (121)
5EDE  69                 [041] (121)
5EDF  03                 [042] (121)
5EE0  00                 [043] (122)
5EE1  00                 [044] (122)
5EE2  69                 [045] (122)
5EE3  03                 [046] (122)
5EE4  00                 [047] (122)
5EE5  00                 [048] (122)
5EE6  69                 [049] (122)
5EE7  03                 [050] (125)
5EE8  00                 [051] (125)
5EE9  00                 [052] (126)
5EEA  69                 [053] (126)
5EEB  03                 [054] (127)
5EEC  00                 [055] (127)
5EED  00                 [056] (127)
5EEE  6C                 [057] (-127)
5EEF  03                 [058] (-127)
5EF0  00                 [059] (-126)
5EF1  00                 [060] (-126)
5EF2  6C                 [061] (-125)
5EF3  03                 [062] (-123)
5EF4  00                 [063] (-123)
5EF5  00                 [064] (-123)
5EF6  6C                 [065] (-122)
5EF7  03                 [066] (-122)
5EF8  00                 [067] (-122)
5EF9  00                 [068] (-122)
5EFA  6C                 [069] (-122)
5EFB  03                 [070] (-122)
5EFC  00                 [071] (-122)
5EFD  00                 [072] (-122)
5EFE  6C                 [073] (-122)
5EFF  03                 [074] (-121)
5F00  00                 [075] (-121)
5F01  00                 [076] (-121)
5F02  6D                 [077] (-121)
5F03  03                 [078] (-119)
5F04  00                 [079] (-119)
5F05  00                 [080] (-119)
5F06  70                 [081] (-119)
5F07  03                 [082] (-119)
5F08  00                 [083] (-119)
5F09  00                 [084] (-118)
5F0A  70                 [085] (-118)
5F0B  03                 [086] (-118)
5F0C  00                 [087] (-117)
5F0D  00                 [088] (-117)
5F0E  71                 [089] (-117)
5F0F  03                 [090] (-117)
5F10  00                 [091] (-115)
5F11  00                 [092] (-114)
5F12  71                 [093] (-114)
5F13  03                 [094] (-113)
5F14  00                 [095] (-113)
5F15  00                 [096] (-113)
5F16  71                 [097] (-113)
5F17  03                 [098] (-113)
5F18  00                 [099] (-113)
5F19  00                 [100] (-113)
5F1A  71                 [101] (-113)
5F1B  03                 [102] (-113)
5F1C  00                 [103] (-113)
5F1D  00                 [104] (-110)
5F1E  71                 [105] (-110)
5F1F  03                 [106] (-110)
5F20  00                 [107] (-110)
5F21  00                 [108] (-110)
5F22  72                 [109] (-110)
5F23  03                 [110] (-110)
5F24  00                 [111] (-110)
5F25  00                 [112] (-110)
5F26  75                 [113] (-110)
5F27  03                 [114] (-110)
5F28  00                 [115] (-110)
5F29  00                 [116] (-110)
5F2A  75                 [117] (-110)
5F2B  03                 [118] (-107)
5F2C  00                 [119] (-107)
5F2D  00                 [120] (-107)
5F2E  75                 [121] (-107)
5F2F  03                 [122] (-107)
5F30  00                 [123] (-106)
5F31  00                 [124] (-106)
5F32  76                 [125] (-106)
5F33  03                 [126] (-106)
5F34  00                 [127] (-105)
5F35  00                 [128] (-105)
5F36  76                 [129] (-105)
5F37  03                 [130] (-105)
5F38  00                 [131] (-105)
5F39  00                 [132] (-105)
5F3A  76                 [133] (-103)
5F3B  03                 [134] (-103)
5F3C  00                 [135] (-103)
5F3D  00                 [136] (-103)
5F3E  76                 [137] (-99)
5F3F  03                 [138] (-97)
5F40  00                 [139] (-97)
5F41  00                 [140] (-97)
5F42  79                 [141] (-96)
5F43  03                 [142] (-96)
5F44  00                 [143] (-96)
5F45  00                 [144] (-96)
5F46  79                 [145] (-96)
5F47  03                 [146] (-95)
5F48  00                 [147] (-95)
5F49  00                 [148] (-95)
5F4A  79                 [149] (-95)
5F4B  03                 [150] (-94)
5F4C  00                 [151] (-94)
5F4D  00                 [152] (-94)
5F4E  79                 [153] (-94)
5F4F  03                 [154] (-93)
5F50  00                 [155] (-93)
5F51  00                 [156] (-93)
5F52  79                 [157] (-93)
5F53  03                 [158] (-91)
5F54  00                 [159] (-91)
5F55  00                 [160] (-91)
5F56  79                 [161] (-91)
5F57  03                 [162] (-90)
5F58  00                 [163] (-90)
5F59  00                 [164] (-90)
5F5A  79                 [165] (-90)
5F5B  03                 [166] (-90)
5F5C  00                 [167] (-90)
5F5D  00                 [168] (-90)
5F5E  7A                 [169] (-90)
5F5F  03                 [170] (-90)
5F60  00                 [171] (-90)
5F61  00                 [172] (-89)
5F62  7A                 [173] (-89)
5F63  03                 [174] (-87)
5F64  00                 [175] (-87)
5F65  00                 [176] (-87)
5F66  7A                 [177] (-87)
5F67  03                 [178] (-87)
5F68  00                 [179] (-87)
5F69  00                 [180] (-87)
5F6A  7A                 [181] (-87)
5F6B  03                 [182] (-87)
5F6C  00                 [183] (-87)
5F6D  00                 [184] (-87)
5F6E  7A                 [185] (-86)
5F6F  03                 [186] (-86)
5F70  00                 [187] (-86)
5F71  00                 [188] (-86)
5F72  7A                 [189] (-86)
5F73  03                 [190] (-86)
5F74  00                 [191] (-86)
5F75  00                 [192] (-86)
5F76  7A                 [193] (-86)
5F77  03                 [194] (-86)
5F78  00                 [195] (-86)
5F79  00                 [196] (-86)
5F7A  7D                 [197] (-84)
5F7B  03                 [198] (-83)
5F7C  00                 [199] (-80)
5F7D  00                 [200] (-80)
5F7E  7D                 [201] (-80)
5F7F  03                 [202] (-80)
5F80  00                 [203] (-77)
5F81  00                 [204] (-77)
5F82  7E                 [205] (-77)
5F83  03                 [206] (-77)
5F84  00                 [207] (-77)
5F85  00                 [208] (-76)
5F86  7E                 [209] (-76)
5F87  03                 [210] (-76)
5F88  00                 [211] (-76)
5F89  00                 [212] (-74)
5F8A  7F                 [213] (-74)
5F8B  03                 [214] (-74)
5F8C  00                 [215] (-74)
5F8D  00                 [216] (-74)
5F8E  7F                 [217] (-73)
5F8F  03                 [218] (-73)
5F90  00                 [219] (-73)
5F91  00                 [220] (-73)
5F92  7F                 [221] (-72)
5F93  03                 [222] (-72)
5F94  00                 [223] (-72)
5F95  00                 [224] (-71)
5F96  81                 [225] (-71)
5F97  03                 [226] (-71)
5F98  00                 [227] (-71)
5F99  00                 [228] (-71)
5F9A  81                 [229] (-68)
5F9B  03                 [230] (-68)
5F9C  00                 [231] (-68)
5F9D  00                 [232] (-66)
5F9E  82                 [233] (-66)
5F9F  03                 [234] (-66)
5FA0  00                 [235] (-66)
5FA1  00                 [236] (-66)
5FA2  82                 [237] (-66)
5FA3  03                 [238] (-66)
5FA4  00                 [239] (-66)
5FA5  00                 [240] (-66)
5FA6  83                 [241] (-65)
5FA7  03                 [242] (-65)
5FA8  00                 [243] (-64)
5FA9  00                 [244] (-64)
5FAA  85                 [245] (-63)
5FAB  03                 [246] (-63)
5FAC  00                 [247] (-61)
5FAD  00                 [248] (-61)
5FAE  85                 [249] (-61)
5FAF  03                 [250] (-61)
5FB0  00                 [251] (-61)
5FB1  00                 [252] (-61)
5FB2  85                 [253] (-61)
5FB3  03                 [254] (-58)
5FB4  00                 [255] (-58)
5FB5  00                 [256] (-58)
5FB6  86                 [257] (-57)
5FB7  03                 [258] (-57)
5FB8  00                 [259] (-56)
5FB9  00                 [260] (-56)
5FBA  86                 [261] (-56)
5FBB  03                 [262] (-56)
5FBC  00                 [263] (-54)
5FBD  00                 [264] (-54)
5FBE  86                 [265] (-54)
5FBF  03                 [266] (-51)
5FC0  00                 [267] (-51)
5FC1  00                 [268] (-50)
5FC2  86                 [269] (-50)
5FC3  03                 [270] (-50)
5FC4  00                 [271] (-50)
5FC5  00                 [272] (-50)
5FC6  86                 [273] (-50)
5FC7  03                 [274] (-45)
5FC8  00                 [275] (-45)
5FC9  00                 [276] (-45)
5FCA  86                 [277] (-44)
5FCB  03                 [278] (-44)
5FCC  00                 [279] (-44)
5FCD  00                 [280] (-44)
5FCE  86                 [281] (-44)
5FCF  03                 [282] (-43)
5FD0  00                 [283] (-43)
5FD1  00                 [284] (-43)
5FD2  86                 [285] (-43)
5FD3  03                 [286] (-42)
5FD4  00                 [287] (-42)
5FD5  00                 [288] (-42)
5FD6  86                 [289] (-42)
5FD7  03                 [290] (-41)
5FD8  00                 [291] (-41)
5FD9  00                 [292] (-41)
5FDA  87                 [293] (-41)
5FDB  03                 [294] (-39)
5FDC  00                 [295] (-39)
5FDD  00                 [296] (-39)
5FDE  87                 [297] (-39)
5FDF  03                 [298] (-38)
5FE0  00                 [299] (-38)
5FE1  00                 [300] (-38)
5FE2  87                 [301] (-38)
5FE3  03                 [302] (-38)
5FE4  00                 [303] (-38)
5FE5  00                 [304] (-38)
5FE6  87                 [305] (-38)
5FE7  03                 [306] (-38)
5FE8  00                 [307] (-38)
5FE9  00                 [308] (-38)
5FEA  89                 [309] (-38)
5FEB  03                 [310] (-38)
5FEC  00                 [311] (-38)
5FED  00                 [312] (-38)
5FEE  89                 [313] (-38)
5FEF  03                 [314] (-38)
5FF0  00                 [315] (-37)
5FF1  00                 [316] (-34)
5FF2  89                 [317] (-34)
5FF3  03                 [318] (-34)
5FF4  00                 [319] (-34)
5FF5  00                 [320] (-31)
5FF6  89                 [321] (-31)
5FF7  03                 [322] (-31)
5FF8  00                 [323] (-31)
5FF9  00                 [324] (-31)
5FFA  89                 [325] (-30)
5FFB  03                 [326] (-30)
5FFC  00                 [327] (-30)
5FFD  00                 [328] (-30)
5FFE  89                 [329] (-30)
5FFF  03                 [330] (-30)
6000  00                 [331] (-30)
6001  00                 [332] (-30)
6002  8A                 [333] (-29)
6003  03                 [334] (-29)
6004  00                 [335] (-29)
6005  00                 [336] (-29)
6006  8A                 [337] (-28)
6007  03                 [338] (-28)
6008  00                 [339] (-28)
6009  00                 [340] (-28)
600A  8A                 [341] (-28)
600B  03                 [342] (-28)
600C  00                 [343] (-28)
600D  00                 [344] (-28)
600E  8B                 [345] (-28)
600F  03                 [346] (-27)
6010  00                 [347] (-27)
6011  00                 [348] (-27)
6012  8B                 [349] (-27)
6013  03                 [350] (-27)
6014  00                 [351] (-27)
6015  00                 [352] (-23)
6016  8B                 [353] (-23)
6017  03                 [354] (-23)
6018  00                 [355] (-21)
6019  00                 [356] (-21)
601A  8B                 [357] (-21)
601B  03                 [358] (-21)
601C  00                 [359] (-20)
601D  00                 [360] (-20)
601E  8D                 [361] (-20)
601F  03                 [362] (-20)
6020  00                 [363] (-20)
6021  00                 [364] (-19)
6022  8E                 [365] (-19)
6023  03                 [366] (-19)
6024  00                 [367] (-19)
6025  00                 [368] (-19)
6026  8E                 [369] (-19)
6027  03                 [370] (-19)
6028  00                 [371] (-19)
6029  00                 [372] (-18)
602A  8F                 [373] (-18)
602B  03                 [374] (-18)
602C  00                 [375] (-18)
602D  00                 [376] (-18)
602E  8F                 [377] (-18)
602F  03                 [378] (-14)
6030  00                 [379] (-14)
6031  00                 [380] (-14)
6032  8F                 [381] (-14)
6033  03                 [382] (-14)
6034  00                 [383] (-14)
6035  00                 [384] (-14)
6036  8F                 [385] (-14)
6037  03                 [386] (-14)
6038  00                 [387] (-13)
6039  00                 [388] (-13)
603A  8F                 [389] (-13)
603B  03                 [390] (-9)
603C  00                 [391] (-9)
603D  00                 [392] (-9)
603E  8F                 [393] (-9)
603F  03                 [394] (-8)
6040  00                 [395] (-8)
6041  00                 [396] (-8)
6042  8F                 [397] (-6)
6043  03                 [398] (-6)
6044  00                 [399] (-6)
6045  00                 [400] (-6)
6046  8F                 [401] (-6)
6047  03                 [402] (-6)
6048  00                 [403] (-5)
6049  00                 [404] (-5)
604A  8F                 [405] (-2)
                         * locals:
650A  00                 sizelocvars (0)
                         * upvalues:
650B  00                 sizeupvalues (0)
                         ** end of function **

                         
650C                     ** function [39] definition (level 2)
                         ** start of function **
650C  00                 string size (0)
                         source name: (none)
650E  08                 line defined (1024)
650F  EA                 last line defined (1130)
6510  08                 nups (1)
6511  01                 numparams (6)
6512  06                 is_vararg (0)
6513  00                 maxstacksize (26)
                         * code:
6516  02                 sizecode (256)
6517  9D010000           [001] getglobal  6   0        ; 1074689893
651B  D2010001           [002] move       7   2      
651F  A2810001           [003] call       6   2   2  
6523  98010000           [004] test       6       0    ; to [6] if true
6527  1A000080           [005] jmp        1            ; to [7]
652B  1E008000           [006] return     0   1      
652F  A4414001           [007] self       6   2   257  ; -605089866
6533  A2810001           [008] call       6   2   2  
6537  DD010000           [009] getglobal  7   0        ; 1074689893
653B  1D820000           [010] getglobal  8   2        ; _T
653F  0EC24004           [011] gettable   8   8   259  ; "exaltedAbility"
6543  E2810001           [012] call       7   2   2  
6547  D8410000           [013] test       7       1    ; to [15] if false
654B  1A000280           [014] jmp        9            ; to [24]
654F  DD810000           [015] getglobal  7   2        ; _T
6553  CEC1C003           [016] gettable   7   7   259  ; "exaltedAbility"
6557  CE818103           [017] gettable   7   7   6  
fail op	35
655B  6300C103           [018] close      1  
655F  1AC00080           [019] jmp        4            ; to [24]
6563  DD410100           [020] getglobal  7   5        ; 538022378
6567  19820100           [021] loadk      8   6        ; 0
656B  E2410001           [022] call       7   2   1  
656F  1A00FC7F           [023] jmp        -15          ; to [9]
6573  DD010000           [024] getglobal  7   0        ; 1074689893
6577  12020001           [025] move       8   2      
657B  E2810001           [026] call       7   2   2  
657F  D8410000           [027] test       7       1    ; to [29] if false
6583  1A000180           [028] jmp        5            ; to [34]
6587  DD010000           [029] getglobal  7   0        ; 1074689893
658B  12020000           [030] move       8   0      
658F  E2810001           [031] call       7   2   2  
6593  D8010000           [032] test       7       0    ; to [34] if true
6597  1A000080           [033] jmp        1            ; to [35]
659B  1E008000           [034] return     0   1      
659F  DD810000           [035] getglobal  7   2        ; _T
65A3  CEC1C003           [036] gettable   7   7   259  ; "exaltedAbility"
fail op	35
65A7  2300C103           [037] close      0  
65AB  1A800080           [038] jmp        3            ; to [42]
65AF  DD810000           [039] getglobal  7   2        ; _T
65B3  0B020000           [040] newtable   8   0   0    ; array=0, hash=0
65B7  CC018281           [041] settable   7   259 8    ; "exaltedAbility"
65BB  DD810000           [042] getglobal  7   2        ; _T
65BF  CEC1C003           [043] gettable   7   7   259  ; "exaltedAbility"
65C3  CE818103           [044] gettable   7   7   6  
fail op	35
65C7  2300C103           [045] close      0  
65CB  1AC00080           [046] jmp        4            ; to [51]
65CF  DD810000           [047] getglobal  7   2        ; _T
65D3  CEC1C003           [048] gettable   7   7   259  ; "exaltedAbility"
65D7  0B020000           [049] newtable   8   0   0    ; array=0, hash=0
65DB  CC010203           [050] settable   7   6   8  
65DF  DD810000           [051] getglobal  7   2        ; _T
65E3  CEC1C003           [052] gettable   7   7   259  ; "exaltedAbility"
65E7  CE818103           [053] gettable   7   7   6  
65EB  CC01C283           [054] settable   7   263 264  ; "activated" 1
65EF  E4414201           [055] self       7   2   265  ; -1917464545
65F3  E2810001           [056] call       7   2   2  
65F7  2482C203           [057] self       8   7   266  ; -627467138
65FB  92020002           [058] move       10  4      
65FF  22828001           [059] call       8   3   2  
6603  18020000           [060] test       8       0    ; to [62] if true
6607  1A800280           [061] jmp        11           ; to [73]
660B  64C2C203           [062] self       9   7   267  ; -1895507148
660F  D2020002           [063] move       11  4      
6613  62428001           [064] call       9   3   1  
6617  5D020300           [065] getglobal  9   12       ; Engine
661B  4E42C304           [066] gettable   9   9   269  ; "SLOT_6"
fail op	35
661F  63400202           [067] close      1  
6623  1AC00080           [068] jmp        4            ; to [73]
6627  6482C303           [069] self       9   7   270  ; -1572901801
662B  DD020300           [070] getglobal  11  12       ; Engine
662F  CEC2C305           [071] gettable   11  11  271  ; "SLOT_8"
6633  62428001           [072] call       9   3   1  
6637  5D020400           [073] getglobal  9   16       ; Lotus_Game
663B  4E42C404           [074] gettable   9   9   273  ; "LOT_NORMAL"
663F  93020000           [075] getupval   10  0      
6643  8E824405           [076] gettable   10  10  274  ; 590154099
6647  A2828000           [077] call       10  1   2  
664B  98020000           [078] test       10      0    ; to [80] if true
664F  1A400080           [079] jmp        2            ; to [82]
6653  DD020400           [080] getglobal  11  16       ; Lotus_Game
6657  4EC2C405           [081] gettable   9   11  275  ; "LOT_NORMAL_PVP"
665B  E4024501           [082] self       11  2   276  ; -564624675
665F  E2820001           [083] call       11  2   2  
6663  1D030000           [084] getglobal  12  0        ; 1074689893
6667  52038005           [085] move       13  11     
666B  22830001           [086] call       12  2   2  
666F  18030000           [087] test       12      0    ; to [89] if true
6673  1A800380           [088] jmp        15           ; to [104]
6677  24434501           [089] self       12  2   277  ; -1957065004
667B  9D830500           [090] getglobal  14  22       ; gLotusNpcAvatarType
667F  22838001           [091] call       12  3   2  
6683  18030000           [092] test       12      0    ; to [94] if true
6687  1A400280           [093] jmp        10           ; to [104]
668B  24C34501           [094] self       12  2   279  ; -1073689042
668F  22830001           [095] call       12  2   2  
6693  5D030000           [096] getglobal  13  0        ; 1074689893
6697  92030006           [097] move       14  12     
669B  62830001           [098] call       13  2   2  
669F  58430000           [099] test       13      1    ; to [101] if false
66A3  1A800080           [100] jmp        3            ; to [104]
66A7  64034506           [101] self       13  12  276  ; -564624675
66AB  62830001           [102] call       13  2   2  
66AF  D2028006           [103] move       11  13     
66B3  5D030000           [104] getglobal  13  0        ; 1074689893
66B7  92038005           [105] move       14  11     
66BB  62830001           [106] call       13  2   2  
66BF  58430000           [107] test       13      1    ; to [109] if false
66C3  1AC00480           [108] jmp        20           ; to [129]
66C7  6403C605           [109] self       13  11  280  ; 51109503
66CB  62830001           [110] call       13  2   2  
66CF  A443C606           [111] self       14  13  281  ; 1644212373
66D3  12048004           [112] move       16  9      
66D7  52048002           [113] move       17  5      
66DB  A2830002           [114] call       14  4   2  
66DF  8E834607           [115] gettable   14  14  282  ; "mItemType"
66E3  DD030000           [116] getglobal  15  0        ; 1074689893
66E7  12040007           [117] move       16  14     
66EB  E2830001           [118] call       15  2   2  
66EF  D8430000           [119] test       15      1    ; to [121] if false
66F3  1AC00180           [120] jmp        8            ; to [129]
fail op	35
66F7  23C00007           [121] close      0  
66FB  1A400180           [122] jmp        6            ; to [129]
66FF  E4C3C603           [123] self       15  7   283  ; 636117120
6703  52048006           [124] move       17  13     
6707  92048004           [125] move       18  9      
670B  D2048002           [126] move       19  5      
670F  17050000           [127] loadbool   20  0   0    ; false
6713  E2430003           [128] call       15  6   1  
6717  E403C703           [129] self       15  7   284  ; 1674984496
671B  5D040300           [130] getglobal  17  12       ; Engine
671F  4EC4C308           [131] gettable   17  17  271  ; "SLOT_8"
6723  E2838001           [132] call       15  3   2  
6727  1D040000           [133] getglobal  16  0        ; 1074689893
672B  52048007           [134] move       17  15     
672F  22840001           [135] call       16  2   2  
6733  18040000           [136] test       16      0    ; to [138] if true
6737  1A400580           [137] jmp        22           ; to [160]
673B  1D440700           [138] getglobal  16  29       ; -1817107093
673F  59840700           [139] loadk      17  30       ; "AbilitiesLib.lua: Failed to build "
6743  A4C4C701           [140] self       18  3   287  ; 880936306
6747  A2840001           [141] call       18  2   2  
674B  D9040800           [142] loadk      19  32       ; " giving temp weapon"
674F  42C48408           [143] concat     17  17  19 
6753  22440001           [144] call       16  2   1  
6757  24444801           [145] self       16  2   289  ; 1479835399
675B  92048001           [146] move       18  3      
675F  D7040000           [147] loadbool   19  0   0    ; false
6763  22840002           [148] call       16  4   2  
6767  D2030008           [149] move       15  16     
676B  1D040000           [150] getglobal  16  0        ; 1074689893
676F  52048007           [151] move       17  15     
6773  22840001           [152] call       16  2   2  
6777  18440000           [153] test       16      1    ; to [155] if false
677B  1A800880           [154] jmp        35           ; to [190]
677F  2484C807           [155] self       16  15  290  ; -67235551
6783  A4C44800           [156] self       18  0   291  ; -1427565139
6787  A2040001           [157] call       18  2   0  
678B  22440000           [158] call       16  0   1  
678F  1A400780           [159] jmp        30           ; to [190]
6793  24044900           [160] self       16  0   292  ; -1909541575
6797  A4444900           [161] self       18  0   293  ; 719059002
679B  12058000           [162] move       20  1      
679F  A2848001           [163] call       18  3   2  
67A3  D9840900           [164] loadk      19  38       ; 0
67A7  22840002           [165] call       16  4   2  
67AB  5DC40900           [166] getglobal  17  39       ; gGameConfig
67AF  6404CA08           [167] self       17  17  296  ; -868817223
67B3  D2040008           [168] move       19  16     
67B7  24454A00           [169] self       20  0   297  ; -491574171
67BB  22050001           [170] call       20  2   0  
67BF  62840000           [171] call       17  0   2  
67C3  A4C44800           [172] self       18  0   291  ; -1427565139
67C7  A2840001           [173] call       18  2   2  
67CB  E484CA03           [174] self       19  7   298  ; 443553304
67CF  52058004           [175] move       21  9      
67D3  92058002           [176] move       22  5      
67D7  D7050000           [177] loadbool   23  0   0    ; false
67DB  17068000           [178] loadbool   24  1   0    ; true
67DF  E2840003           [179] call       19  6   2  
67E3  1DC50A00           [180] getglobal  20  43       ; math
67E7  0E054B0A           [181] gettable   20  20  300  ; 1710846250
67EB  52058009           [182] move       21  19     
67EF  8D450409           [183] sub        22  18  17 
67F3  22858001           [184] call       20  3   2  
fail op	21
67F7  15000583           [185] concat     0   262 20 
67FB  1A800080           [186] jmp        3            ; to [190]
67FF  6445CB07           [187] self       21  15  301  ; 1265262579
6803  D205000A           [188] move       23  20     
6807  62458001           [189] call       21  3   1  
680B  6485CB03           [190] self       21  7   302  ; -1331347373
680F  D7058000           [191] loadbool   23  1   0    ; true
6813  62458001           [192] call       21  3   1  
6817  64C5CB03           [193] self       21  7   303  ; 1997676861
681B  D2050002           [194] move       23  4      
681F  1D060300           [195] getglobal  24  12       ; Engine
6823  0EC6430C           [196] gettable   24  24  271  ; "SLOT_8"
6827  62450002           [197] call       21  4   1  
682B  6445C503           [198] self       21  7   277  ; -1957065004
682F  DD050C00           [199] getglobal  23  48       ; gLotusInventoryControllerType
6833  62858001           [200] call       21  3   2  
6837  58050000           [201] test       21      0    ; to [203] if true
683B  1A400080           [202] jmp        2            ; to [205]
683F  6445CC03           [203] self       21  7   305  ; 1664396525
6843  62450001           [204] call       21  2   1  
6847  6485CC03           [205] self       21  7   306  ; 688774453
684B  D2050002           [206] move       23  4      
684F  1D060300           [207] getglobal  24  12       ; Engine
6853  0EC64C0C           [208] gettable   24  24  307  ; "MAIN_HAND"
6857  5D060300           [209] getglobal  25  12       ; Engine
685B  4E06CD0C           [210] gettable   25  25  308  ; "InventoryControllerBase_ES_INSTANT_EQUIP"
685F  62458002           [211] call       21  5   1  
6863  6445CD03           [212] self       21  7   309  ; -1740876233
6867  DD050300           [213] getglobal  23  12       ; Engine
686B  CE85CD0B           [214] gettable   23  23  310  ; "EXTRA2"
686F  1D060300           [215] getglobal  24  12       ; Engine
6873  0E064D0C           [216] gettable   24  24  308  ; "InventoryControllerBase_ES_INSTANT_EQUIP"
6877  62450002           [217] call       21  4   1  
687B  6485CB03           [218] self       21  7   302  ; -1331347373
687F  D7050000           [219] loadbool   23  0   0    ; false
6883  62458001           [220] call       21  3   1  
6887  18020000           [221] test       8       0    ; to [223] if true
688B  1AC00580           [222] jmp        24           ; to [247]
688F  5D050300           [223] getglobal  21  12       ; Engine
6893  4E45C30A           [224] gettable   21  21  269  ; "SLOT_6"
fail op	35
6897  23400502           [225] close      0  
689B  1AC00480           [226] jmp        20           ; to [247]
689F  5D850000           [227] getglobal  21  2        ; _T
68A3  4EC5C00A           [228] gettable   21  21  259  ; "exaltedAbility"
fail op	35
68A7  6300C10A           [229] close      1  
68AB  1AC00280           [230] jmp        12           ; to [243]
68AF  5D850000           [231] getglobal  21  2        ; _T
68B3  4EC5C00A           [232] gettable   21  21  259  ; "exaltedAbility"
68B7  4E85810A           [233] gettable   21  21  6  
fail op	35
68BB  6300C10A           [234] close      1  
68BF  1A800180           [235] jmp        7            ; to [243]
68C3  98420000           [236] test       10      1    ; to [238] if false
68C7  1A000180           [237] jmp        5            ; to [243]
68CB  5D850000           [238] getglobal  21  2        ; _T
68CF  4EC5C00A           [239] gettable   21  21  259  ; "exaltedAbility"
68D3  4E85810A           [240] gettable   21  21  6  
68D7  4C05C29B           [241] settable   21  311 264  ; "disableSlot" 1
68DB  1AC00080           [242] jmp        4            ; to [247]
68DF  6485C303           [243] self       21  7   270  ; -1572901801
68E3  DD050300           [244] getglobal  23  12       ; Engine
68E7  CE45C30B           [245] gettable   23  23  269  ; "SLOT_6"
68EB  62458001           [246] call       21  3   1  
68EF  64054E01           [247] self       21  2   312  ; -1411785325
68F3  62850001           [248] call       21  2   2  
68F7  9D050000           [249] getglobal  22  0        ; 1074689893
68FB  D205800A           [250] move       23  21     
68FF  A2850001           [251] call       22  2   2  
6903  98450000           [252] test       22      1    ; to [254] if false
6907  1A400080           [253] jmp        2            ; to [256]
690B  A445CE0A           [254] self       22  21  313  ; 286171207
690F  A2450001           [255] call       22  2   1  
6913  1E008000           [256] return     0   1      
                         * constants:
6917  3A                 sizek (58)
6918  01                 const type 3
6919  65770E40           const [0]: (1074689893)
691D  01                 const type 3
691E  B60FEFDB           const [1]: (-605089866)
6922  04                 const type 4
6923  03                 string size (3)
6924  5F5400             "_T\0"
                         const [2]: "_T"
6927  04                 const type 4
6928  0F                 string size (15)
6929  6578616C74656441+  "exaltedA"
6931  62696C69747900     "bility\0"
                         const [3]: "exaltedAbility"
6938  00                 const type 0
                         const [4]: nil
6939  01                 const type 3
693A  EA911120           const [5]: (538022378)
693E  03                 const type 3
693F  00000000           const [6]: (0)
6943  04                 const type 4
6944  0A                 string size (10)
6945  6163746976617465+  "activate"
694D  6400               "d\0"
                         const [7]: "activated"
694F  01                 const type 3
6950  01000000           const [8]: (1)
6954  01                 const type 3
6955  1FD0B58D           const [9]: (-1917464545)
6959  01                 const type 3
695A  7E9C99DA           const [10]: (-627467138)
695E  01                 const type 3
695F  34DB048F           const [11]: (-1895507148)
6963  04                 const type 4
6964  07                 string size (7)
6965  456E67696E6500     "Engine\0"
                         const [12]: "Engine"
696C  04                 const type 4
696D  07                 string size (7)
696E  534C4F545F3600     "SLOT_6\0"
                         const [13]: "SLOT_6"
6975  01                 const type 3
6976  576C3FA2           const [14]: (-1572901801)
697A  04                 const type 4
697B  07                 string size (7)
697C  534C4F545F3800     "SLOT_8\0"
                         const [15]: "SLOT_8"
6983  04                 const type 4
6984  0B                 string size (11)
6985  4C6F7475735F4761+  "Lotus_Ga"
698D  6D6500             "me\0"
                         const [16]: "Lotus_Game"
6990  04                 const type 4
6991  0B                 string size (11)
6992  4C4F545F4E4F524D+  "LOT_NORM"
699A  414C00             "AL\0"
                         const [17]: "LOT_NORMAL"
699D  01                 const type 3
699E  73092D23           const [18]: (590154099)
69A2  04                 const type 4
69A3  0F                 string size (15)
69A4  4C4F545F4E4F524D+  "LOT_NORM"
69AC  414C5F50565000     "AL_PVP\0"
                         const [19]: "LOT_NORMAL_PVP"
69B3  01                 const type 3
69B4  DD8258DE           const [20]: (-564624675)
69B8  01                 const type 3
69B9  D48E598B           const [21]: (-1957065004)
69BD  04                 const type 4
69BE  14                 string size (20)
69BF  674C6F7475734E70+  "gLotusNp"
69C7  6341766174617254+  "cAvatarT"
69CF  79706500           "ype\0"
                         const [22]: "gLotusNpcAvatarType"
69D3  01                 const type 3
69D4  2ECE00C0           const [23]: (-1073689042)
69D8  01                 const type 3
69D9  7FDE0B03           const [24]: (51109503)
69DD  01                 const type 3
69DE  95B00062           const [25]: (1644212373)
69E2  04                 const type 4
69E3  0A                 string size (10)
69E4  6D4974656D547970+  "mItemTyp"
69EC  6500               "e\0"
                         const [26]: "mItemType"
69EE  01                 const type 3
69EF  8060EA25           const [27]: (636117120)
69F3  01                 const type 3
69F4  303CD663           const [28]: (1674984496)
69F8  01                 const type 3
69F9  6B25B193           const [29]: (-1817107093)
69FD  04                 const type 4
69FE  23                 string size (35)
69FF  4162696C69746965+  "Abilitie"
6A07  734C69622E6C7561+  "sLib.lua"
6A0F  3A204661696C6564+  ": Failed"
6A17  20746F206275696C+  " to buil"
6A1F  642000             "d \0"
                         const [30]: "AbilitiesLib.lua: Failed to build "
6A22  01                 const type 3
6A23  72058234           const [31]: (880936306)
6A27  04                 const type 4
6A28  14                 string size (20)
6A29  20676976696E6720+  " giving "
6A31  74656D7020776561+  "temp wea"
6A39  706F6E00           "pon\0"
                         const [32]: " giving temp weapon"
6A3D  01                 const type 3
6A3E  077F3458           const [33]: (1479835399)
6A42  01                 const type 3
6A43  2111FEFB           const [34]: (-67235551)
6A47  01                 const type 3
6A48  AD15E9AA           const [35]: (-1427565139)
6A4C  01                 const type 3
6A4D  39B52E8E           const [36]: (-1909541575)
6A51  01                 const type 3
6A52  3AF8DB2A           const [37]: (719059002)
6A56  03                 const type 3
6A57  0000803F           const [38]: (0)
6A5B  04                 const type 4
6A5C  0C                 string size (12)
6A5D  6747616D65436F6E+  "gGameCon"
6A65  66696700           "fig\0"
                         const [39]: "gGameConfig"
6A69  01                 const type 3
6A6A  B9E636CC           const [40]: (-868817223)
6A6E  01                 const type 3
6A6F  652CB3E2           const [41]: (-491574171)
6A73  01                 const type 3
6A74  1816701A           const [42]: (443553304)
6A78  04                 const type 4
6A79  05                 string size (5)
6A7A  6D61746800         "math\0"
                         const [43]: "math"
6A7F  01                 const type 3
6A80  2A71F965           const [44]: (1710846250)
6A84  01                 const type 3
6A85  F35F6A4B           const [45]: (1265262579)
6A89  01                 const type 3
6A8A  5340A5B0           const [46]: (-1331347373)
6A8E  01                 const type 3
6A8F  3D211277           const [47]: (1997676861)
6A93  04                 const type 4
6A94  1E                 string size (30)
6A95  674C6F747573496E+  "gLotusIn"
6A9D  76656E746F727943+  "ventoryC"
6AA5  6F6E74726F6C6C65+  "ontrolle"
6AAD  725479706500       "rType\0"
                         const [48]: "gLotusInventoryControllerType"
6AB3  01                 const type 3
6AB4  EDAC3463           const [49]: (1664396525)
6AB8  01                 const type 3
6AB9  35DD0D29           const [50]: (688774453)
6ABD  04                 const type 4
6ABE  0A                 string size (10)
6ABF  4D41494E5F48414E+  "MAIN_HAN"
6AC7  4400               "D\0"
                         const [51]: "MAIN_HAND"
6AC9  04                 const type 4
6ACA  29                 string size (41)
6ACB  496E76656E746F72+  "Inventor"
6AD3  79436F6E74726F6C+  "yControl"
6ADB  6C6572426173655F+  "lerBase_"
6AE3  45535F494E535441+  "ES_INSTA"
6AEB  4E545F4551554950+  "NT_EQUIP"
6AF3  00                 "\0"
                         const [52]: "InventoryControllerBase_ES_INSTANT_EQUIP"
6AF4  01                 const type 3
6AF5  37563C98           const [53]: (-1740876233)
6AF9  04                 const type 4
6AFA  07                 string size (7)
6AFB  45585452413200     "EXTRA2\0"
                         const [54]: "EXTRA2"
6B02  04                 const type 4
6B03  0C                 string size (12)
6B04  64697361626C6553+  "disableS"
6B0C  6C6F7400           "lot\0"
                         const [55]: "disableSlot"
6B10  01                 const type 3
6B11  93DDD9AB           const [56]: (-1411785325)
6B15  01                 const type 3
6B16  47A00E11           const [57]: (286171207)
                         * functions:
6B1A  00                 sizep (0)
                         * lines:
6B1C  02                 sizelineinfo (256)
                         [pc] (line)
6B1D  01                 [001] (1)
6B1E  04                 [002] (1)
6B1F  00                 [003] (1)
6B20  00                 [004] (1)
6B21  01                 [005] (1)
6B22  04                 [006] (2)
6B23  00                 [007] (5)
6B24  00                 [008] (5)
6B25  01                 [009] (6)
6B26  04                 [010] (6)
6B27  00                 [011] (6)
6B28  00                 [012] (6)
6B29  01                 [013] (6)
6B2A  04                 [014] (6)
6B2B  00                 [015] (6)
6B2C  00                 [016] (6)
6B2D  01                 [017] (6)
6B2E  04                 [018] (6)
6B2F  00                 [019] (6)
6B30  00                 [020] (9)
6B31  02                 [021] (9)
6B32  04                 [022] (9)
6B33  00                 [023] (9)
6B34  00                 [024] (12)
6B35  05                 [025] (12)
6B36  04                 [026] (12)
6B37  00                 [027] (12)
6B38  00                 [028] (12)
6B39  05                 [029] (12)
6B3A  04                 [030] (12)
6B3B  00                 [031] (12)
6B3C  00                 [032] (12)
6B3D  06                 [033] (12)
6B3E  04                 [034] (13)
6B3F  00                 [035] (16)
6B40  00                 [036] (16)
6B41  06                 [037] (16)
6B42  04                 [038] (16)
6B43  00                 [039] (17)
6B44  00                 [040] (17)
6B45  06                 [041] (17)
6B46  04                 [042] (20)
6B47  00                 [043] (20)
6B48  00                 [044] (20)
6B49  06                 [045] (20)
6B4A  04                 [046] (20)
6B4B  00                 [047] (21)
6B4C  00                 [048] (21)
6B4D  06                 [049] (21)
6B4E  04                 [050] (21)
6B4F  00                 [051] (24)
6B50  00                 [052] (24)
6B51  06                 [053] (24)
6B52  04                 [054] (24)
6B53  00                 [055] (26)
6B54  00                 [056] (26)
6B55  06                 [057] (27)
6B56  04                 [058] (27)
6B57  00                 [059] (27)
6B58  00                 [060] (28)
6B59  06                 [061] (28)
6B5A  04                 [062] (29)
6B5B  00                 [063] (29)
6B5C  00                 [064] (29)
6B5D  06                 [065] (31)
6B5E  04                 [066] (31)
6B5F  00                 [067] (31)
6B60  00                 [068] (31)
6B61  06                 [069] (32)
6B62  04                 [070] (32)
6B63  00                 [071] (32)
6B64  00                 [072] (32)
6B65  06                 [073] (36)
6B66  04                 [074] (36)
6B67  00                 [075] (37)
6B68  00                 [076] (37)
6B69  09                 [077] (37)
6B6A  04                 [078] (38)
6B6B  00                 [079] (38)
6B6C  00                 [080] (39)
6B6D  09                 [081] (39)
6B6E  04                 [082] (42)
6B6F  00                 [083] (42)
6B70  00                 [084] (43)
6B71  09                 [085] (43)
6B72  04                 [086] (43)
6B73  00                 [087] (43)
6B74  00                 [088] (43)
6B75  09                 [089] (43)
6B76  04                 [090] (43)
6B77  00                 [091] (43)
6B78  00                 [092] (43)
6B79  0C                 [093] (43)
6B7A  04                 [094] (44)
6B7B  00                 [095] (44)
6B7C  00                 [096] (45)
6B7D  0C                 [097] (45)
6B7E  04                 [098] (45)
6B7F  00                 [099] (45)
6B80  00                 [100] (45)
6B81  0C                 [101] (46)
6B82  04                 [102] (46)
6B83  00                 [103] (46)
6B84  00                 [104] (50)
6B85  0C                 [105] (50)
6B86  04                 [106] (50)
6B87  00                 [107] (50)
6B88  00                 [108] (50)
6B89  0C                 [109] (51)
6B8A  04                 [110] (51)
6B8B  00                 [111] (52)
6B8C  00                 [112] (52)
6B8D  0C                 [113] (52)
6B8E  04                 [114] (52)
6B8F  00                 [115] (52)
6B90  00                 [116] (53)
6B91  0C                 [117] (53)
6B92  04                 [118] (53)
6B93  00                 [119] (53)
6B94  00                 [120] (53)
6B95  0C                 [121] (53)
6B96  04                 [122] (53)
6B97  00                 [123] (54)
6B98  00                 [124] (54)
6B99  0C                 [125] (54)
6B9A  04                 [126] (54)
6B9B  00                 [127] (54)
6B9C  00                 [128] (54)
6B9D  0C                 [129] (58)
6B9E  04                 [130] (58)
6B9F  00                 [131] (58)
6BA0  00                 [132] (58)
6BA1  0D                 [133] (59)
6BA2  04                 [134] (59)
6BA3  00                 [135] (59)
6BA4  00                 [136] (59)
6BA5  10                 [137] (59)
6BA6  04                 [138] (60)
6BA7  00                 [139] (60)
6BA8  00                 [140] (60)
6BA9  10                 [141] (60)
6BAA  04                 [142] (60)
6BAB  00                 [143] (60)
6BAC  00                 [144] (60)
6BAD  10                 [145] (62)
6BAE  04                 [146] (62)
6BAF  00                 [147] (62)
6BB0  00                 [148] (62)
6BB1  10                 [149] (62)
6BB2  04                 [150] (63)
6BB3  00                 [151] (63)
6BB4  00                 [152] (63)
6BB5  11                 [153] (63)
6BB6  04                 [154] (63)
6BB7  00                 [155] (64)
6BB8  00                 [156] (64)
6BB9  11                 [157] (64)
6BBA  04                 [158] (64)
6BBB  00                 [159] (65)
6BBC  00                 [160] (68)
6BBD  11                 [161] (68)
6BBE  04                 [162] (68)
6BBF  00                 [163] (68)
6BC0  00                 [164] (68)
6BC1  14                 [165] (68)
6BC2  04                 [166] (69)
6BC3  00                 [167] (69)
6BC4  00                 [168] (69)
6BC5  14                 [169] (69)
6BC6  04                 [170] (69)
6BC7  00                 [171] (69)
6BC8  00                 [172] (70)
6BC9  14                 [173] (70)
6BCA  04                 [174] (71)
6BCB  00                 [175] (71)
6BCC  00                 [176] (71)
6BCD  14                 [177] (71)
6BCE  04                 [178] (71)
6BCF  00                 [179] (71)
6BD0  00                 [180] (72)
6BD1  14                 [181] (72)
6BD2  04                 [182] (72)
6BD3  00                 [183] (72)
6BD4  00                 [184] (72)
6BD5  15                 [185] (74)
6BD6  04                 [186] (74)
6BD7  00                 [187] (75)
6BD8  00                 [188] (75)
6BD9  15                 [189] (75)
6BDA  04                 [190] (79)
6BDB  00                 [191] (79)
6BDC  00                 [192] (79)
6BDD  15                 [193] (81)
6BDE  04                 [194] (81)
6BDF  00                 [195] (81)
6BE0  00                 [196] (81)
6BE1  15                 [197] (81)
6BE2  04                 [198] (84)
6BE3  00                 [199] (84)
6BE4  00                 [200] (84)
6BE5  18                 [201] (84)
6BE6  04                 [202] (84)
6BE7  00                 [203] (85)
6BE8  00                 [204] (85)
6BE9  18                 [205] (88)
6BEA  04                 [206] (88)
6BEB  00                 [207] (88)
6BEC  00                 [208] (88)
6BED  18                 [209] (88)
6BEE  04                 [210] (88)
6BEF  00                 [211] (88)
6BF0  00                 [212] (90)
6BF1  18                 [213] (90)
6BF2  04                 [214] (90)
6BF3  00                 [215] (90)
6BF4  00                 [216] (90)
6BF5  1A                 [217] (90)
6BF6  04                 [218] (92)
6BF7  00                 [219] (92)
6BF8  00                 [220] (92)
6BF9  1A                 [221] (94)
6BFA  04                 [222] (94)
6BFB  00                 [223] (94)
6BFC  00                 [224] (94)
6BFD  1B                 [225] (94)
6BFE  04                 [226] (94)
6BFF  00                 [227] (95)
6C00  00                 [228] (95)
6C01  1B                 [229] (95)
6C02  04                 [230] (95)
6C03  00                 [231] (95)
6C04  00                 [232] (95)
6C05  1B                 [233] (95)
6C06  04                 [234] (95)
6C07  00                 [235] (95)
6C08  00                 [236] (95)
6C09  1C                 [237] (95)
6C0A  04                 [238] (96)
6C0B  00                 [239] (96)
6C0C  00                 [240] (96)
6C0D  1C                 [241] (96)
6C0E  04                 [242] (96)
6C0F  00                 [243] (98)
6C10  00                 [244] (98)
6C11  1D                 [245] (98)
6C12  04                 [246] (98)
6C13  00                 [247] (102)
6C14  00                 [248] (102)
6C15  1D                 [249] (103)
6C16  04                 [250] (103)
6C17  00                 [251] (103)
6C18  00                 [252] (103)
6C19  1D                 [253] (103)
6C1A  04                 [254] (104)
6C1B  00                 [255] (104)
6C1C  00                 [256] (106)
                         * locals:
6F1D  00                 sizelocvars (0)
                         * upvalues:
6F1E  00                 sizeupvalues (0)
                         ** end of function **

                         
6F1F                     ** function [40] definition (level 2)
                         ** start of function **
6F1F  00                 string size (0)
                         source name: (none)
6F21  08                 line defined (1132)
6F22  B1                 last line defined (1201)
6F23  09                 nups (0)
6F24  00                 numparams (3)
6F25  03                 is_vararg (0)
6F26  00                 maxstacksize (15)
                         * code:
6F29  01                 sizecode (180)
6F2A  DD000000           [001] getglobal  3   0        ; 1074689893
6F2E  12010000           [002] move       4   0      
6F32  E2800001           [003] call       3   2   2  
6F36  D8000000           [004] test       3       0    ; to [6] if true
6F3A  1A000080           [005] jmp        1            ; to [7]
6F3E  1E008000           [006] return     0   1      
6F42  E4404000           [007] self       3   0   257  ; -1917464545
6F46  E2800001           [008] call       3   2   2  
6F4A  24814000           [009] self       4   0   258  ; -605089866
6F4E  22810001           [010] call       4   2   2  
6F52  64C1C001           [011] self       5   3   259  ; -1046454183
6F56  62810001           [012] call       5   2   2  
6F5A  58410000           [013] test       5       1    ; to [15] if false
6F5E  1A402080           [014] jmp        130          ; to [145]
6F62  6401C101           [015] self       5   3   260  ; 1674984496
6F66  D2010001           [016] move       7   2      
6F6A  62818001           [017] call       5   3   2  
6F6E  9D010000           [018] getglobal  6   0        ; 1074689893
6F72  D2018002           [019] move       7   5      
6F76  A2810001           [020] call       6   2   2  
6F7A  98410000           [021] test       6       1    ; to [23] if false
6F7E  1A401E80           [022] jmp        122          ; to [145]
6F82  A441C102           [023] self       6   5   261  ; -491574171
6F86  A2810001           [024] call       6   2   2  
fail op	35
6F8A  23400003           [025] close      0  
6F8E  1A401D80           [026] jmp        118          ; to [145]
6F92  A481C102           [027] self       6   5   262  ; -1957065004
6F96  1DC20100           [028] getglobal  8   7        ; gLotusMeleeWeaponType
6F9A  A2818001           [029] call       6   3   2  
6F9E  98010000           [030] test       6       0    ; to [32] if true
6FA2  1A400180           [031] jmp        6            ; to [38]
6FA6  A401C202           [032] self       6   5   264  ; 276379415
6FAA  17020000           [033] loadbool   8   0   0    ; false
6FAE  A2418001           [034] call       6   3   1  
6FB2  A441C202           [035] self       6   5   265  ; 1431658499
6FB6  17020000           [036] loadbool   8   0   0    ; false
6FBA  A2418001           [037] call       6   3   1  
6FBE  A481C201           [038] self       6   3   266  ; -627467138
6FC2  12020001           [039] move       8   2      
6FC6  A2818001           [040] call       6   3   2  
6FCA  98010000           [041] test       6       0    ; to [43] if true
6FCE  1A800080           [042] jmp        3            ; to [46]
6FD2  E4C1C201           [043] self       7   3   267  ; -1895507148
6FD6  52020001           [044] move       9   2      
6FDA  E2418001           [045] call       7   3   1  
6FDE  E401C301           [046] self       7   3   268  ; 339947353
6FE2  E2410001           [047] call       7   2   1  
6FE6  E441C301           [048] self       7   3   269  ; 1184786314
6FEA  5D820300           [049] getglobal  9   14       ; Engine
6FEE  4EC2C304           [050] gettable   9   9   271  ; "MAIN_HAND"
6FF2  E2818001           [051] call       7   3   2  
fail op	35
6FF6  23408103           [052] close      0  
6FFA  1AC01280           [053] jmp        76           ; to [130]
6FFE  E401C401           [054] self       7   3   272  ; -1331347373
7002  57028000           [055] loadbool   9   1   0    ; true
7006  E2418001           [056] call       7   3   1  
700A  E401C101           [057] self       7   3   260  ; 1674984496
700E  5D820300           [058] getglobal  9   14       ; Engine
7012  4E42C404           [059] gettable   9   9   273  ; "SLOT_8"
7016  E2818001           [060] call       7   3   2  
701A  1D020000           [061] getglobal  8   0        ; 1074689893
701E  52028003           [062] move       9   7      
7022  22820001           [063] call       8   2   2  
7026  18020000           [064] test       8       0    ; to [66] if true
702A  1A400180           [065] jmp        6            ; to [72]
702E  2482C401           [066] self       8   3   274  ; -340238
7032  97020000           [067] loadbool   10  0   0    ; false
7036  D7020000           [068] loadbool   11  0   0    ; false
703A  17038000           [069] loadbool   12  1   0    ; true
703E  22428002           [070] call       8   5   1  
7042  1A800D80           [071] jmp        55           ; to [127]
7046  17020000           [072] loadbool   8   0   0    ; false
704A  6482C103           [073] self       9   7   262  ; -1957065004
704E  DDC20400           [074] getglobal  11  19       ; gLotusWeaponType
7052  62828001           [075] call       9   3   2  
7056  58020000           [076] test       9       0    ; to [78] if true
705A  1A800980           [077] jmp        39           ; to [117]
705E  6402C503           [078] self       9   7   276  ; 1499410240
7062  62820001           [079] call       9   2   2  
7066  58020000           [080] test       9       0    ; to [82] if true
706A  1A800880           [081] jmp        35           ; to [117]
706E  6402C101           [082] self       9   3   260  ; 1674984496
7072  DD820300           [083] getglobal  11  14       ; Engine
7076  CE42C505           [084] gettable   11  11  277  ; "SLOT_1"
707A  62828001           [085] call       9   3   2  
707E  9D020000           [086] getglobal  10  0        ; 1074689893
7082  D2028004           [087] move       11  9      
7086  A2820001           [088] call       10  2   2  
708A  98420000           [089] test       10      1    ; to [91] if false
708E  1A400680           [090] jmp        26           ; to [117]
7092  A482C104           [091] self       10  9   262  ; -1957065004
7096  1DC30400           [092] getglobal  12  19       ; gLotusWeaponType
709A  A2828001           [093] call       10  3   2  
709E  98020000           [094] test       10      0    ; to [96] if true
70A2  1A000580           [095] jmp        21           ; to [117]
70A6  A402C504           [096] self       10  9   276  ; 1499410240
70AA  A2820001           [097] call       10  2   2  
70AE  98020000           [098] test       10      0    ; to [100] if true
70B2  1A000480           [099] jmp        17           ; to [117]
70B6  A482C501           [100] self       10  3   278  ; 688774453
70BA  1D830300           [101] getglobal  12  14       ; Engine
70BE  0E434506           [102] gettable   12  12  277  ; "SLOT_1"
70C2  5D830300           [103] getglobal  13  14       ; Engine
70C6  4EC3C306           [104] gettable   13  13  271  ; "MAIN_HAND"
70CA  9D830300           [105] getglobal  14  14       ; Engine
70CE  8EC34507           [106] gettable   14  14  279  ; "InventoryControllerBase_ES_PLAY_EQUIP_ANIM"
70D2  A2428002           [107] call       10  5   1  
70D6  A482C501           [108] self       10  3   278  ; 688774453
70DA  1D830300           [109] getglobal  12  14       ; Engine
70DE  0E434406           [110] gettable   12  12  273  ; "SLOT_8"
70E2  5D830300           [111] getglobal  13  14       ; Engine
70E6  4E03C606           [112] gettable   13  13  280  ; "OFF_HAND"
70EA  9D830300           [113] getglobal  14  14       ; Engine
70EE  8EC34507           [114] gettable   14  14  279  ; "InventoryControllerBase_ES_PLAY_EQUIP_ANIM"
70F2  A2428002           [115] call       10  5   1  
70F6  17028000           [116] loadbool   8   1   0    ; true
70FA  18420000           [117] test       8       1    ; to [119] if false
70FE  1AC00180           [118] jmp        8            ; to [127]
7102  A482C501           [119] self       10  3   278  ; 688774453
7106  1D830300           [120] getglobal  12  14       ; Engine
710A  0E434406           [121] gettable   12  12  273  ; "SLOT_8"
710E  5D830300           [122] getglobal  13  14       ; Engine
7112  4EC3C306           [123] gettable   13  13  271  ; "MAIN_HAND"
7116  9D830300           [124] getglobal  14  14       ; Engine
711A  8EC34507           [125] gettable   14  14  279  ; "InventoryControllerBase_ES_PLAY_EQUIP_ANIM"
711E  A2428002           [126] call       10  5   1  
7122  A402C401           [127] self       10  3   272  ; -1331347373
7126  17030000           [128] loadbool   12  0   0    ; false
712A  A2428001           [129] call       10  3   1  
712E  98410000           [130] test       6       1    ; to [132] if false
7132  1A400280           [131] jmp        10           ; to [142]
7136  9D820300           [132] getglobal  10  14       ; Engine
713A  8E424605           [133] gettable   10  10  281  ; "SLOT_2"
fail op	35
713E  23800201           [134] close      0  
7142  1A000280           [135] jmp        9            ; to [145]
7146  A482C201           [136] self       10  3   266  ; -627467138
714A  1D830300           [137] getglobal  12  14       ; Engine
714E  0E434406           [138] gettable   12  12  273  ; "SLOT_8"
7152  A2828001           [139] call       10  3   2  
7156  98020000           [140] test       10      0    ; to [142] if true
715A  1A800080           [141] jmp        3            ; to [145]
715E  A482C601           [142] self       10  3   282  ; -1572901801
7162  12030001           [143] move       12  2      
7166  A2428001           [144] call       10  3   1  
716A  9DC20600           [145] getglobal  10  27       ; _T
716E  8E024705           [146] gettable   10  10  284  ; "exaltedAbility"
fail op	35
7172  63404705           [147] close      1  
7176  1A400580           [148] jmp        22           ; to [171]
717A  9DC20600           [149] getglobal  10  27       ; _T
717E  8E024705           [150] gettable   10  10  284  ; "exaltedAbility"
7182  8E020105           [151] gettable   10  10  4  
fail op	35
7186  63404705           [152] close      1  
718A  1A000480           [153] jmp        17           ; to [171]
718E  9DC20600           [154] getglobal  10  27       ; _T
7192  8E024705           [155] gettable   10  10  284  ; "exaltedAbility"
7196  8E020105           [156] gettable   10  10  4  
719A  8C42478F           [157] settable   10  286 285  ; "activated" nil
719E  9DC20600           [158] getglobal  10  27       ; _T
71A2  8E024705           [159] gettable   10  10  284  ; "exaltedAbility"
71A6  8E020105           [160] gettable   10  10  4  
71AA  8EC24705           [161] gettable   10  10  287  ; "disableSlot"
fail op	35
71AE  23004805           [162] close      0  
71B2  1A800180           [163] jmp        7            ; to [171]
71B6  A482C601           [164] self       10  3   282  ; -1572901801
71BA  12030001           [165] move       12  2      
71BE  A2428001           [166] call       10  3   1  
71C2  9DC20600           [167] getglobal  10  27       ; _T
71C6  8E024705           [168] gettable   10  10  284  ; "exaltedAbility"
71CA  8E020105           [169] gettable   10  10  4  
71CE  8C42C78F           [170] settable   10  287 285  ; "disableSlot" nil
71D2  A4424800           [171] self       10  0   289  ; -1411785325
71D6  A2820001           [172] call       10  2   2  
71DA  DD020000           [173] getglobal  11  0        ; 1074689893
71DE  12030005           [174] move       12  10     
71E2  E2820001           [175] call       11  2   2  
71E6  D8420000           [176] test       11      1    ; to [178] if false
71EA  1A400080           [177] jmp        2            ; to [180]
71EE  E4824805           [178] self       11  10  290  ; 286171207
71F2  E2420001           [179] call       11  2   1  
71F6  1E008000           [180] return     0   1      
                         * constants:
71FA  23                 sizek (35)
71FB  01                 const type 3
71FC  65770E40           const [0]: (1074689893)
7200  01                 const type 3
7201  1FD0B58D           const [1]: (-1917464545)
7205  01                 const type 3
7206  B60FEFDB           const [2]: (-605089866)
720A  01                 const type 3
720B  5960A0C1           const [3]: (-1046454183)
720F  01                 const type 3
7210  303CD663           const [4]: (1674984496)
7214  01                 const type 3
7215  652CB3E2           const [5]: (-491574171)
7219  01                 const type 3
721A  D48E598B           const [6]: (-1957065004)
721E  04                 const type 4
721F  16                 string size (22)
7220  674C6F7475734D65+  "gLotusMe"
7228  6C6565576561706F+  "leeWeapo"
7230  6E5479706500       "nType\0"
                         const [7]: "gLotusMeleeWeaponType"
7236  01                 const type 3
7237  17377910           const [8]: (276379415)
723B  01                 const type 3
723C  03605555           const [9]: (1431658499)
7240  01                 const type 3
7241  7E9C99DA           const [10]: (-627467138)
7245  01                 const type 3
7246  34DB048F           const [11]: (-1895507148)
724A  01                 const type 3
724B  592F4314           const [12]: (339947353)
724F  01                 const type 3
7250  8A679E46           const [13]: (1184786314)
7254  04                 const type 4
7255  07                 string size (7)
7256  456E67696E6500     "Engine\0"
                         const [14]: "Engine"
725D  04                 const type 4
725E  0A                 string size (10)
725F  4D41494E5F48414E+  "MAIN_HAN"
7267  4400               "D\0"
                         const [15]: "MAIN_HAND"
7269  01                 const type 3
726A  5340A5B0           const [16]: (-1331347373)
726E  04                 const type 4
726F  07                 string size (7)
7270  534C4F545F3800     "SLOT_8\0"
                         const [17]: "SLOT_8"
7277  01                 const type 3
7278  F2CEFAFF           const [18]: (-340238)
727C  04                 const type 4
727D  11                 string size (17)
727E  674C6F7475735765+  "gLotusWe"
7286  61706F6E54797065+  "aponType"
728E  00                 "\0"
                         const [19]: "gLotusWeaponType"
728F  01                 const type 3
7290  402F5F59           const [20]: (1499410240)
7294  04                 const type 4
7295  07                 string size (7)
7296  534C4F545F3100     "SLOT_1\0"
                         const [21]: "SLOT_1"
729D  01                 const type 3
729E  35DD0D29           const [22]: (688774453)
72A2  04                 const type 4
72A3  2B                 string size (43)
72A4  496E76656E746F72+  "Inventor"
72AC  79436F6E74726F6C+  "yControl"
72B4  6C6572426173655F+  "lerBase_"
72BC  45535F504C41595F+  "ES_PLAY_"
72C4  45515549505F414E+  "EQUIP_AN"
72CC  494D00             "IM\0"
                         const [23]: "InventoryControllerBase_ES_PLAY_EQUIP_ANIM"
72CF  04                 const type 4
72D0  09                 string size (9)
72D1  4F46465F48414E44+  "OFF_HAND"
72D9  00                 "\0"
                         const [24]: "OFF_HAND"
72DA  04                 const type 4
72DB  07                 string size (7)
72DC  534C4F545F3200     "SLOT_2\0"
                         const [25]: "SLOT_2"
72E3  01                 const type 3
72E4  576C3FA2           const [26]: (-1572901801)
72E8  04                 const type 4
72E9  03                 string size (3)
72EA  5F5400             "_T\0"
                         const [27]: "_T"
72ED  04                 const type 4
72EE  0F                 string size (15)
72EF  6578616C74656441+  "exaltedA"
72F7  62696C69747900     "bility\0"
                         const [28]: "exaltedAbility"
72FE  00                 const type 0
                         const [29]: nil
72FF  04                 const type 4
7300  0A                 string size (10)
7301  6163746976617465+  "activate"
7309  6400               "d\0"
                         const [30]: "activated"
730B  04                 const type 4
730C  0C                 string size (12)
730D  64697361626C6553+  "disableS"
7315  6C6F7400           "lot\0"
                         const [31]: "disableSlot"
7319  01                 const type 3
731A  01000000           const [32]: (1)
731E  01                 const type 3
731F  93DDD9AB           const [33]: (-1411785325)
7323  01                 const type 3
7324  47A00E11           const [34]: (286171207)
                         * functions:
7328  00                 sizep (0)
                         * lines:
732A  01                 sizelineinfo (180)
                         [pc] (line)
732B  6D                 [001] (109)
732C  04                 [002] (109)
732D  00                 [003] (109)
732E  00                 [004] (109)
732F  6D                 [005] (109)
7330  04                 [006] (110)
7331  00                 [007] (113)
7332  00                 [008] (113)
7333  6D                 [009] (114)
7334  04                 [010] (114)
7335  00                 [011] (116)
7336  00                 [012] (116)
7337  6D                 [013] (116)
7338  04                 [014] (116)
7339  00                 [015] (117)
733A  00                 [016] (117)
733B  6D                 [017] (117)
733C  04                 [018] (118)
733D  00                 [019] (118)
733E  00                 [020] (118)
733F  6E                 [021] (118)
7340  04                 [022] (118)
7341  00                 [023] (118)
7342  00                 [024] (118)
7343  71                 [025] (118)
7344  04                 [026] (118)
7345  00                 [027] (119)
7346  00                 [028] (119)
7347  71                 [029] (119)
7348  04                 [030] (119)
7349  00                 [031] (119)
734A  00                 [032] (120)
734B  72                 [033] (120)
734C  04                 [034] (120)
734D  00                 [035] (121)
734E  00                 [036] (121)
734F  72                 [037] (121)
7350  04                 [038] (124)
7351  00                 [039] (124)
7352  00                 [040] (124)
7353  74                 [041] (125)
7354  04                 [042] (125)
7355  00                 [043] (126)
7356  00                 [044] (126)
7357  74                 [045] (126)
7358  04                 [046] (-127)
7359  00                 [047] (-127)
735A  00                 [048] (-125)
735B  74                 [049] (-125)
735C  04                 [050] (-125)
735D  00                 [051] (-125)
735E  00                 [052] (-125)
735F  74                 [053] (-125)
7360  04                 [054] (-124)
7361  00                 [055] (-124)
7362  00                 [056] (-124)
7363  75                 [057] (-122)
7364  04                 [058] (-122)
7365  00                 [059] (-122)
7366  00                 [060] (-122)
7367  75                 [061] (-121)
7368  04                 [062] (-121)
7369  00                 [063] (-121)
736A  00                 [064] (-121)
736B  75                 [065] (-121)
736C  04                 [066] (-120)
736D  00                 [067] (-120)
736E  00                 [068] (-120)
736F  76                 [069] (-120)
7370  04                 [070] (-120)
7371  00                 [071] (-120)
7372  00                 [072] (-118)
7373  76                 [073] (-117)
7374  04                 [074] (-117)
7375  00                 [075] (-117)
7376  00                 [076] (-117)
7377  76                 [077] (-117)
7378  04                 [078] (-117)
7379  00                 [079] (-117)
737A  00                 [080] (-117)
737B  76                 [081] (-117)
737C  04                 [082] (-116)
737D  00                 [083] (-116)
737E  00                 [084] (-116)
737F  76                 [085] (-116)
7380  04                 [086] (-115)
7381  00                 [087] (-115)
7382  00                 [088] (-115)
7383  76                 [089] (-115)
7384  04                 [090] (-115)
7385  00                 [091] (-115)
7386  00                 [092] (-115)
7387  76                 [093] (-115)
7388  04                 [094] (-115)
7389  00                 [095] (-115)
738A  00                 [096] (-115)
738B  76                 [097] (-115)
738C  04                 [098] (-115)
738D  00                 [099] (-115)
738E  00                 [100] (-114)
738F  76                 [101] (-114)
7390  04                 [102] (-114)
7391  00                 [103] (-114)
7392  00                 [104] (-114)
7393  77                 [105] (-114)
7394  04                 [106] (-114)
7395  00                 [107] (-114)
7396  00                 [108] (-113)
7397  77                 [109] (-113)
7398  04                 [110] (-113)
7399  00                 [111] (-113)
739A  00                 [112] (-113)
739B  77                 [113] (-113)
739C  04                 [114] (-113)
739D  00                 [115] (-113)
739E  00                 [116] (-112)
739F  77                 [117] (-109)
73A0  04                 [118] (-109)
73A1  00                 [119] (-108)
73A2  00                 [120] (-108)
73A3  77                 [121] (-108)
73A4  04                 [122] (-108)
73A5  00                 [123] (-108)
73A6  00                 [124] (-108)
73A7  78                 [125] (-108)
73A8  04                 [126] (-108)
73A9  00                 [127] (-104)
73AA  00                 [128] (-104)
73AB  78                 [129] (-104)
73AC  04                 [130] (-100)
73AD  00                 [131] (-100)
73AE  00                 [132] (-99)
73AF  78                 [133] (-99)
73B0  04                 [134] (-99)
73B1  00                 [135] (-99)
73B2  00                 [136] (-99)
73B3  79                 [137] (-99)
73B4  04                 [138] (-99)
73B5  00                 [139] (-99)
73B6  00                 [140] (-99)
73B7  79                 [141] (-99)
73B8  04                 [142] (-97)
73B9  00                 [143] (-97)
73BA  00                 [144] (-97)
73BB  79                 [145] (-92)
73BC  04                 [146] (-92)
73BD  00                 [147] (-92)
73BE  00                 [148] (-92)
73BF  7C                 [149] (-92)
73C0  04                 [150] (-92)
73C1  00                 [151] (-92)
73C2  00                 [152] (-92)
73C3  7C                 [153] (-92)
73C4  04                 [154] (-91)
73C5  00                 [155] (-91)
73C6  00                 [156] (-91)
73C7  7C                 [157] (-91)
73C8  04                 [158] (-89)
73C9  00                 [159] (-89)
73CA  00                 [160] (-89)
73CB  7D                 [161] (-89)
73CC  04                 [162] (-89)
73CD  00                 [163] (-89)
73CE  00                 [164] (-88)
73CF  7D                 [165] (-88)
73D0  04                 [166] (-88)
73D1  00                 [167] (-87)
73D2  00                 [168] (-87)
73D3  7E                 [169] (-87)
73D4  04                 [170] (-87)
73D5  00                 [171] (-83)
73D6  00                 [172] (-83)
73D7  7E                 [173] (-82)
73D8  04                 [174] (-82)
73D9  00                 [175] (-82)
73DA  00                 [176] (-82)
73DB  7E                 [177] (-82)
73DC  04                 [178] (-81)
73DD  00                 [179] (-81)
73DE  00                 [180] (-79)
                         * locals:
75FB  00                 sizelocvars (0)
                         * upvalues:
75FC  00                 sizeupvalues (0)
                         ** end of function **

                         
75FD                     ** function [41] definition (level 2)
                         ** start of function **
75FD  00                 string size (0)
                         source name: (none)
75FF  09                 line defined (1203)
7600  C2                 last line defined (1218)
7601  09                 nups (0)
7602  00                 numparams (3)
7603  03                 is_vararg (0)
7604  00                 maxstacksize (10)
                         * code:
7606  1D                 sizecode (29)
7607  DD000000           [01] getglobal  3   0        ; 1074689893
760B  12010000           [02] move       4   0      
760F  E2800001           [03] call       3   2   2  
7613  D8000000           [04] test       3       0    ; to [6] if true
7617  1A000080           [05] jmp        1            ; to [7]
761B  1E008000           [06] return     0   1      
761F  E4404000           [07] self       3   0   257  ; -1917464545
7623  E2800001           [08] call       3   2   2  
7627  E480C001           [09] self       3   3   258  ; 1769516121
762B  E2800001           [10] call       3   2   2  
762F  1D010000           [11] getglobal  4   0        ; 1074689893
7633  52018001           [12] move       5   3      
7637  22810001           [13] call       4   2   2  
763B  18010000           [14] test       4       0    ; to [16] if true
763F  1A000080           [15] jmp        1            ; to [17]
7643  1E008000           [16] return     0   1      
7647  24C1C001           [17] self       4   3   259  ; 345555894
764B  92010001           [18] move       6   2      
764F  22818001           [19] call       4   3   2  
fail op	21
7653  15000182           [20] concat     0   260 4  
7657  1A800180           [21] jmp        7            ; to [29]
765B  6441C100           [22] self       5   1   261  ; 1979356343
765F  E481C100           [23] self       7   1   262  ; -174427269
7663  4D024102           [24] sub        9   4   260  ; 0
7667  E2018001           [25] call       7   3   0  
766B  62410000           [26] call       5   0   1  
766F  64C1C100           [27] self       5   1   263  ; 516851270
7673  62410001           [28] call       5   2   1  
7677  1E008000           [29] return     0   1      
                         * constants:
767B  08                 sizek (8)
767C  01                 const type 3
767D  65770E40           const [0]: (1074689893)
7681  01                 const type 3
7682  1FD0B58D           const [1]: (-1917464545)
7686  01                 const type 3
7687  59AC7869           const [2]: (1769516121)
768B  01                 const type 3
768C  B6C39814           const [3]: (345555894)
7690  03                 const type 3
7691  0000803F           const [4]: (0)
7695  01                 const type 3
7696  B794FA75           const [5]: (1979356343)
769A  01                 const type 3
769B  7B739AF5           const [6]: (-174427269)
769F  01                 const type 3
76A0  4686CE1E           const [7]: (516851270)
                         * functions:
76A4  00                 sizep (0)
                         * lines:
76A5  1D                 sizelineinfo (29)
                         [pc] (line)
76A6  B4                 [01] (-76)
76A7  04                 [02] (-76)
76A8  00                 [03] (-76)
76A9  00                 [04] (-76)
76AA  B4                 [05] (-76)
76AB  04                 [06] (-75)
76AC  00                 [07] (-72)
76AD  00                 [08] (-72)
76AE  B4                 [09] (-72)
76AF  04                 [10] (-72)
76B0  00                 [11] (-71)
76B1  00                 [12] (-71)
76B2  B4                 [13] (-71)
76B3  04                 [14] (-71)
76B4  00                 [15] (-71)
76B5  00                 [16] (-70)
76B6  B4                 [17] (-67)
76B7  04                 [18] (-67)
76B8  00                 [19] (-67)
76B9  00                 [20] (-66)
76BA  B5                 [21] (-66)
76BB  04                 [22] (-65)
76BC  00                 [23] (-65)
76BD  00                 [24] (-65)
76BE  B8                 [25] (-65)
76BF  04                 [26] (-65)
76C0  00                 [27] (-64)
76C1  00                 [28] (-64)
76C2  B8                 [29] (-62)
                         * locals:
771A  00                 sizelocvars (0)
                         * upvalues:
771B  00                 sizeupvalues (0)
                         ** end of function **

                         
771C                     ** function [42] definition (level 2)
                         ** start of function **
771C  00                 string size (0)
                         source name: (none)
771E  09                 line defined (1220)
771F  D5                 last line defined (1237)
7720  09                 nups (0)
7721  00                 numparams (1)
7722  01                 is_vararg (0)
7723  00                 maxstacksize (6)
                         * code:
7725  2D                 sizecode (45)
7726  64004000           [01] self       1   0   256  ; -1917464545
772A  62800001           [02] call       1   2   2  
772E  9D400000           [03] getglobal  2   1        ; 1074689893
7732  D2008000           [04] move       3   1      
7736  A2800001           [05] call       2   2   2  
773A  98400000           [06] test       2       1    ; to [8] if false
773E  1AC00280           [07] jmp        12           ; to [20]
7742  9D400000           [08] getglobal  2   1        ; 1074689893
7746  E480C000           [09] self       3   1   258  ; 1674984496
774A  5DC10000           [10] getglobal  5   3        ; Engine
774E  4E01C102           [11] gettable   5   5   260  ; "SLOT_8"
7752  E2008001           [12] call       3   3   0  
7756  A2800000           [13] call       2   0   2  
775A  98400000           [14] test       2       1    ; to [16] if false
775E  1AC00080           [15] jmp        4            ; to [20]
7762  9D400100           [16] getglobal  2   5        ; 538022378
7766  D9800100           [17] loadk      3   6        ; 0
776A  A2400001           [18] call       2   2   1  
776E  1A80FB7F           [19] jmp        -17          ; to [3]
7772  9D400000           [20] getglobal  2   1        ; 1074689893
7776  D2008000           [21] move       3   1      
777A  A2800001           [22] call       2   2   2  
777E  98000000           [23] test       2       0    ; to [25] if true
7782  1A000080           [24] jmp        1            ; to [26]
7786  1E008000           [25] return     0   1      
778A  A480C000           [26] self       2   1   258  ; 1674984496
778E  1DC10000           [27] getglobal  4   3        ; Engine
7792  0EC14102           [28] gettable   4   4   263  ; "SLOT_6"
7796  A2808001           [29] call       2   3   2  
779A  DD400000           [30] getglobal  3   1        ; 1074689893
779E  12010001           [31] move       4   2      
77A2  E2800001           [32] call       3   2   2  
77A6  D8400000           [33] test       3       1    ; to [35] if false
77AA  1AC00180           [34] jmp        8            ; to [43]
77AE  E4004201           [35] self       3   2   264  ; -1957065004
77B2  5D410200           [36] getglobal  5   9        ; gLotusMeleeWeaponType
77B6  E2808001           [37] call       3   3   2  
77BA  D8000000           [38] test       3       0    ; to [40] if true
77BE  1A800080           [39] jmp        3            ; to [43]
77C2  E4804201           [40] self       3   2   266  ; 1750428796
77C6  E2400001           [41] call       3   2   1  
77CA  1A400080           [42] jmp        2            ; to [45]
77CE  E4C04200           [43] self       3   0   267  ; -571835109
77D2  E2400001           [44] call       3   2   1  
77D6  1E008000           [45] return     0   1      
                         * constants:
77DA  0C                 sizek (12)
77DB  01                 const type 3
77DC  1FD0B58D           const [0]: (-1917464545)
77E0  01                 const type 3
77E1  65770E40           const [1]: (1074689893)
77E5  01                 const type 3
77E6  303CD663           const [2]: (1674984496)
77EA  04                 const type 4
77EB  07                 string size (7)
77EC  456E67696E6500     "Engine\0"
                         const [3]: "Engine"
77F3  04                 const type 4
77F4  07                 string size (7)
77F5  534C4F545F3800     "SLOT_8\0"
                         const [4]: "SLOT_8"
77FC  01                 const type 3
77FD  EA911120           const [5]: (538022378)
7801  03                 const type 3
7802  00000000           const [6]: (0)
7806  04                 const type 4
7807  07                 string size (7)
7808  534C4F545F3600     "SLOT_6\0"
                         const [7]: "SLOT_6"
780F  01                 const type 3
7810  D48E598B           const [8]: (-1957065004)
7814  04                 const type 4
7815  16                 string size (22)
7816  674C6F7475734D65+  "gLotusMe"
781E  6C6565576561706F+  "leeWeapo"
7826  6E5479706500       "nType\0"
                         const [9]: "gLotusMeleeWeaponType"
782C  01                 const type 3
782D  7C6C5568           const [10]: (1750428796)
7831  01                 const type 3
7832  1B7DEADD           const [11]: (-571835109)
                         * functions:
7836  00                 sizep (0)
                         * lines:
7837  2D                 sizelineinfo (45)
                         [pc] (line)
7838  C5                 [01] (-59)
7839  04                 [02] (-59)
783A  00                 [03] (-58)
783B  00                 [04] (-58)
783C  C5                 [05] (-58)
783D  04                 [06] (-58)
783E  00                 [07] (-58)
783F  00                 [08] (-58)
7840  C6                 [09] (-58)
7841  04                 [10] (-58)
7842  00                 [11] (-58)
7843  00                 [12] (-58)
7844  C6                 [13] (-58)
7845  04                 [14] (-58)
7846  00                 [15] (-58)
7847  00                 [16] (-56)
7848  C6                 [17] (-56)
7849  04                 [18] (-56)
784A  00                 [19] (-56)
784B  00                 [20] (-53)
784C  C6                 [21] (-53)
784D  04                 [22] (-53)
784E  00                 [23] (-53)
784F  00                 [24] (-53)
7850  C6                 [25] (-52)
7851  04                 [26] (-49)
7852  00                 [27] (-49)
7853  00                 [28] (-49)
7854  C6                 [29] (-49)
7855  04                 [30] (-48)
7856  00                 [31] (-48)
7857  00                 [32] (-48)
7858  C6                 [33] (-48)
7859  04                 [34] (-48)
785A  00                 [35] (-48)
785B  00                 [36] (-48)
785C  C6                 [37] (-48)
785D  04                 [38] (-48)
785E  00                 [39] (-48)
785F  00                 [40] (-47)
7860  C6                 [41] (-47)
7861  04                 [42] (-47)
7862  00                 [43] (-45)
7863  00                 [44] (-45)
7864  C6                 [45] (-43)
                         * locals:
78EC  00                 sizelocvars (0)
                         * upvalues:
78ED  00                 sizeupvalues (0)
                         ** end of function **

                         
78EE                     ** function [43] definition (level 2)
                         ** start of function **
78EE  00                 string size (0)
                         source name: (none)
78F0  09                 line defined (1239)
78F1  E1                 last line defined (1249)
78F2  09                 nups (0)
78F3  00                 numparams (3)
78F4  03                 is_vararg (0)
78F5  00                 maxstacksize (9)
                         * code:
78F7  1C                 sizecode (28)
78F8  DD000000           [01] getglobal  3   0        ; gRegion
78FC  E440C001           [02] self       3   3   257  ; -1520831144
7900  E2800001           [03] call       3   2   2  
7904  D8000000           [04] test       3       0    ; to [6] if true
7908  1A400580           [05] jmp        22           ; to [28]
790C  E4804000           [06] self       3   0   258  ; -1917464545
7910  E2800001           [07] call       3   2   2  
7914  24C1C001           [08] self       4   3   259  ; 1674984496
7918  92010001           [09] move       6   2      
791C  22818001           [10] call       4   3   2  
7920  5D010100           [11] getglobal  5   4        ; 1074689893
7924  92010002           [12] move       6   4      
7928  62810001           [13] call       5   2   2  
792C  58410000           [14] test       5       1    ; to [16] if false
7930  1AC00280           [15] jmp        12           ; to [28]
7934  64414102           [16] self       5   4   261  ; -491574171
7938  62810001           [17] call       5   2   2  
fail op	35
793C  23408002           [18] close      0  
7940  1AC00180           [19] jmp        8            ; to [28]
7944  64814100           [20] self       5   0   262  ; -655368910
7948  D2018000           [21] move       7   1      
794C  62418001           [22] call       5   3   1  
7950  64C1C101           [23] self       5   3   263  ; 1997676861
7954  D2010001           [24] move       7   2      
7958  1D020200           [25] getglobal  8   8        ; Engine
795C  0E424204           [26] gettable   8   8   265  ; "SLOT_8"
7960  62410002           [27] call       5   4   1  
7964  1E008000           [28] return     0   1      
                         * constants:
7968  0A                 sizek (10)
7969  04                 const type 4
796A  08                 string size (8)
796B  67526567696F6E00   "gRegion\0"
                         const [0]: "gRegion"
7973  01                 const type 3
7974  58F559A5           const [1]: (-1520831144)
7978  01                 const type 3
7979  1FD0B58D           const [2]: (-1917464545)
797D  01                 const type 3
797E  303CD663           const [3]: (1674984496)
7982  01                 const type 3
7983  65770E40           const [4]: (1074689893)
7987  01                 const type 3
7988  652CB3E2           const [5]: (-491574171)
798C  01                 const type 3
798D  32DDEFD8           const [6]: (-655368910)
7991  01                 const type 3
7992  3D211277           const [7]: (1997676861)
7996  04                 const type 4
7997  07                 string size (7)
7998  456E67696E6500     "Engine\0"
                         const [8]: "Engine"
799F  04                 const type 4
79A0  07                 string size (7)
79A1  534C4F545F3800     "SLOT_8\0"
                         const [9]: "SLOT_8"
                         * functions:
79A8  00                 sizep (0)
                         * lines:
79A9  1C                 sizelineinfo (28)
                         [pc] (line)
79AA  D8                 [01] (-40)
79AB  04                 [02] (-40)
79AC  00                 [03] (-40)
79AD  00                 [04] (-40)
79AE  D8                 [05] (-40)
79AF  04                 [06] (-39)
79B0  00                 [07] (-39)
79B1  00                 [08] (-38)
79B2  D8                 [09] (-38)
79B3  04                 [10] (-38)
79B4  00                 [11] (-36)
79B5  00                 [12] (-36)
79B6  D8                 [13] (-36)
79B7  04                 [14] (-36)
79B8  00                 [15] (-36)
79B9  00                 [16] (-36)
79BA  D8                 [17] (-36)
79BB  04                 [18] (-36)
79BC  00                 [19] (-36)
79BD  00                 [20] (-35)
79BE  D9                 [21] (-35)
79BF  04                 [22] (-35)
79C0  00                 [23] (-34)
79C1  00                 [24] (-34)
79C2  D9                 [25] (-34)
79C3  04                 [26] (-34)
79C4  00                 [27] (-34)
79C5  00                 [28] (-31)
                         * locals:
7A1A  00                 sizelocvars (0)
                         * upvalues:
7A1B  00                 sizeupvalues (0)
                         ** end of function **

                         
7A1C                     ** function [44] definition (level 2)
                         ** start of function **
7A1C  00                 string size (0)
                         source name: (none)
7A1E  09                 line defined (1251)
7A1F  8C                 last line defined (1292)
7A20  0A                 nups (0)
7A21  00                 numparams (2)
7A22  02                 is_vararg (0)
7A23  00                 maxstacksize (9)
                         * code:
7A25  6C                 sizecode (108)
7A26  9D000000           [001] getglobal  2   0        ; 1074689893
7A2A  D2000000           [002] move       3   0      
7A2E  A2800001           [003] call       2   2   2  
7A32  98400000           [004] test       2       1    ; to [6] if false
7A36  1A000180           [005] jmp        5            ; to [11]
7A3A  9D000000           [006] getglobal  2   0        ; 1074689893
7A3E  D2008000           [007] move       3   1      
7A42  A2800001           [008] call       2   2   2  
7A46  98000000           [009] test       2       0    ; to [11] if true
7A4A  1A000080           [010] jmp        1            ; to [12]
7A4E  1E008000           [011] return     0   1      
7A52  A440C000           [012] self       2   1   257  ; -1348043987
7A56  A2800001           [013] call       2   2   2  
7A5A  E4804001           [014] self       3   2   258  ; -479391803
7A5E  5DC10000           [015] getglobal  5   3        ; Lotus_Game
7A62  4E01C102           [016] gettable   5   5   260  ; "PrimaryColors"
7A66  E2808001           [017] call       3   3   2  
7A6A  24414000           [018] self       4   0   257  ; -1348043987
7A6E  22810001           [019] call       4   2   2  
7A72  24814002           [020] self       4   4   258  ; -479391803
7A76  9DC10000           [021] getglobal  6   3        ; Lotus_Game
7A7A  8E014103           [022] gettable   6   6   260  ; "PrimaryColors"
7A7E  22818001           [023] call       4   3   2  
7A82  64414102           [024] self       5   4   261  ; 979293742
7A86  DDC10000           [025] getglobal  7   3        ; Lotus_Game
7A8A  CE81C103           [026] gettable   7   7   262  ; "EmissiveColor0"
7A8E  62818001           [027] call       5   3   2  
7A92  58010000           [028] test       5       0    ; to [30] if true
7A96  1AC00180           [029] jmp        8            ; to [38]
7A9A  4EC14102           [030] gettable   5   4   263  ; "mEmissiveColor0"
7A9E  CC408183           [031] settable   3   263 5    ; "mEmissiveColor0"
7AA2  6401C201           [032] self       5   3   264  ; -1037856321
7AA6  DDC10000           [033] getglobal  7   3        ; Lotus_Game
7AAA  CE81C103           [034] gettable   7   7   262  ; "EmissiveColor0"
7AAE  17028000           [035] loadbool   8   1   0    ; true
7AB2  62410002           [036] call       5   4   1  
7AB6  1A000180           [037] jmp        5            ; to [43]
7ABA  6401C201           [038] self       5   3   264  ; -1037856321
7ABE  DDC10000           [039] getglobal  7   3        ; Lotus_Game
7AC2  CE81C103           [040] gettable   7   7   262  ; "EmissiveColor0"
7AC6  17020000           [041] loadbool   8   0   0    ; false
7ACA  62410002           [042] call       5   4   1  
7ACE  64414102           [043] self       5   4   261  ; 979293742
7AD2  DDC10000           [044] getglobal  7   3        ; Lotus_Game
7AD6  CE41C203           [045] gettable   7   7   265  ; "EmissiveColor1"
7ADA  62818001           [046] call       5   3   2  
7ADE  58010000           [047] test       5       0    ; to [49] if true
7AE2  1AC00180           [048] jmp        8            ; to [57]
7AE6  4E814202           [049] gettable   5   4   266  ; "mEmissiveColor1"
7AEA  CC400185           [050] settable   3   266 5    ; "mEmissiveColor1"
7AEE  6401C201           [051] self       5   3   264  ; -1037856321
7AF2  DDC10000           [052] getglobal  7   3        ; Lotus_Game
7AF6  CE41C203           [053] gettable   7   7   265  ; "EmissiveColor1"
7AFA  17028000           [054] loadbool   8   1   0    ; true
7AFE  62410002           [055] call       5   4   1  
7B02  1A000180           [056] jmp        5            ; to [62]
7B06  6401C201           [057] self       5   3   264  ; -1037856321
7B0A  DDC10000           [058] getglobal  7   3        ; Lotus_Game
7B0E  CE41C203           [059] gettable   7   7   265  ; "EmissiveColor1"
7B12  17020000           [060] loadbool   8   0   0    ; false
7B16  62410002           [061] call       5   4   1  
7B1A  64414102           [062] self       5   4   261  ; 979293742
7B1E  DDC10000           [063] getglobal  7   3        ; Lotus_Game
7B22  CEC1C203           [064] gettable   7   7   267  ; "EnergyColor"
7B26  62818001           [065] call       5   3   2  
7B2A  58010000           [066] test       5       0    ; to [68] if true
7B2E  1AC00180           [067] jmp        8            ; to [76]
7B32  4E014302           [068] gettable   5   4   268  ; "mEnergyColor"
7B36  CC400186           [069] settable   3   268 5    ; "mEnergyColor"
7B3A  6401C201           [070] self       5   3   264  ; -1037856321
7B3E  DDC10000           [071] getglobal  7   3        ; Lotus_Game
7B42  CEC1C203           [072] gettable   7   7   267  ; "EnergyColor"
7B46  17028000           [073] loadbool   8   1   0    ; true
7B4A  62410002           [074] call       5   4   1  
7B4E  1A000180           [075] jmp        5            ; to [81]
7B52  6401C201           [076] self       5   3   264  ; -1037856321
7B56  DDC10000           [077] getglobal  7   3        ; Lotus_Game
7B5A  CEC1C203           [078] gettable   7   7   267  ; "EnergyColor"
7B5E  17020000           [079] loadbool   8   0   0    ; false
7B62  62410002           [080] call       5   4   1  
7B66  64414102           [081] self       5   4   261  ; 979293742
7B6A  DDC10000           [082] getglobal  7   3        ; Lotus_Game
7B6E  CE41C303           [083] gettable   7   7   269  ; "EnergyColor1"
7B72  62818001           [084] call       5   3   2  
7B76  58010000           [085] test       5       0    ; to [87] if true
7B7A  1AC00180           [086] jmp        8            ; to [95]
7B7E  4E814302           [087] gettable   5   4   270  ; "mEnergyColor1"
7B82  CC400187           [088] settable   3   270 5    ; "mEnergyColor1"
7B86  6401C201           [089] self       5   3   264  ; -1037856321
7B8A  DDC10000           [090] getglobal  7   3        ; Lotus_Game
7B8E  CE41C303           [091] gettable   7   7   269  ; "EnergyColor1"
7B92  17028000           [092] loadbool   8   1   0    ; true
7B96  62410002           [093] call       5   4   1  
7B9A  1A000180           [094] jmp        5            ; to [100]
7B9E  6401C201           [095] self       5   3   264  ; -1037856321
7BA2  DDC10000           [096] getglobal  7   3        ; Lotus_Game
7BA6  CE41C303           [097] gettable   7   7   269  ; "EnergyColor1"
7BAA  17020000           [098] loadbool   8   0   0    ; false
7BAE  62410002           [099] call       5   4   1  
7BB2  64C14301           [100] self       5   2   271  ; -1708889336
7BB6  DDC10000           [101] getglobal  7   3        ; Lotus_Game
7BBA  CE01C103           [102] gettable   7   7   260  ; "PrimaryColors"
7BBE  12028001           [103] move       8   3      
7BC2  62410002           [104] call       5   4   1  
7BC6  6401C400           [105] self       5   1   272  ; -1038992139
7BCA  D2010001           [106] move       7   2      
7BCE  62418001           [107] call       5   3   1  
7BD2  1E008000           [108] return     0   1      
                         * constants:
7BD6  11                 sizek (17)
7BD7  01                 const type 3
7BD8  65770E40           const [0]: (1074689893)
7BDC  01                 const type 3
7BDD  2D7BA6AF           const [1]: (-1348043987)
7BE1  01                 const type 3
7BE2  C50F6DE3           const [2]: (-479391803)
7BE6  04                 const type 4
7BE7  0B                 string size (11)
7BE8  4C6F7475735F4761+  "Lotus_Ga"
7BF0  6D6500             "me\0"
                         const [3]: "Lotus_Game"
7BF3  04                 const type 4
7BF4  0E                 string size (14)
7BF5  5072696D61727943+  "PrimaryC"
7BFD  6F6C6F727300       "olors\0"
                         const [4]: "PrimaryColors"
7C03  01                 const type 3
7C04  2ED65E3A           const [5]: (979293742)
7C08  04                 const type 4
7C09  0F                 string size (15)
7C0A  456D697373697665+  "Emissive"
7C12  436F6C6F723000     "Color0\0"
                         const [6]: "EmissiveColor0"
7C19  04                 const type 4
7C1A  10                 string size (16)
7C1B  6D456D6973736976+  "mEmissiv"
7C23  65436F6C6F723000   "eColor0\0"
                         const [7]: "mEmissiveColor0"
7C2B  01                 const type 3
7C2C  BF9123C2           const [8]: (-1037856321)
7C30  04                 const type 4
7C31  0F                 string size (15)
7C32  456D697373697665+  "Emissive"
7C3A  436F6C6F723100     "Color1\0"
                         const [9]: "EmissiveColor1"
7C41  04                 const type 4
7C42  10                 string size (16)
7C43  6D456D6973736976+  "mEmissiv"
7C4B  65436F6C6F723100   "eColor1\0"
                         const [10]: "mEmissiveColor1"
7C53  04                 const type 4
7C54  0C                 string size (12)
7C55  456E65726779436F+  "EnergyCo"
7C5D  6C6F7200           "lor\0"
                         const [11]: "EnergyColor"
7C61  04                 const type 4
7C62  0D                 string size (13)
7C63  6D456E6572677943+  "mEnergyC"
7C6B  6F6C6F7200         "olor\0"
                         const [12]: "mEnergyColor"
7C70  04                 const type 4
7C71  0D                 string size (13)
7C72  456E65726779436F+  "EnergyCo"
7C7A  6C6F723100         "lor1\0"
                         const [13]: "EnergyColor1"
7C7F  04                 const type 4
7C80  0E                 string size (14)
7C81  6D456E6572677943+  "mEnergyC"
7C89  6F6C6F723100       "olor1\0"
                         const [14]: "mEnergyColor1"
7C8F  01                 const type 3
7C90  086B249A           const [15]: (-1708889336)
7C94  01                 const type 3
7C95  F53C12C2           const [16]: (-1038992139)
                         * functions:
7C99  00                 sizep (0)
                         * lines:
7C9A  6C                 sizelineinfo (108)
                         [pc] (line)
7C9B  E4                 [001] (-28)
7C9C  04                 [002] (-28)
7C9D  00                 [003] (-28)
7C9E  00                 [004] (-28)
7C9F  E4                 [005] (-28)
7CA0  04                 [006] (-28)
7CA1  00                 [007] (-28)
7CA2  00                 [008] (-28)
7CA3  E4                 [009] (-28)
7CA4  04                 [010] (-28)
7CA5  00                 [011] (-27)
7CA6  00                 [012] (-24)
7CA7  E4                 [013] (-24)
7CA8  04                 [014] (-23)
7CA9  00                 [015] (-23)
7CAA  00                 [016] (-23)
7CAB  E4                 [017] (-23)
7CAC  04                 [018] (-22)
7CAD  00                 [019] (-22)
7CAE  00                 [020] (-22)
7CAF  E4                 [021] (-22)
7CB0  04                 [022] (-22)
7CB1  00                 [023] (-22)
7CB2  00                 [024] (-19)
7CB3  E4                 [025] (-19)
7CB4  04                 [026] (-19)
7CB5  00                 [027] (-19)
7CB6  00                 [028] (-19)
7CB7  E4                 [029] (-19)
7CB8  04                 [030] (-18)
7CB9  00                 [031] (-18)
7CBA  00                 [032] (-17)
7CBB  E4                 [033] (-17)
7CBC  04                 [034] (-17)
7CBD  00                 [035] (-17)
7CBE  00                 [036] (-17)
7CBF  E4                 [037] (-17)
7CC0  04                 [038] (-15)
7CC1  00                 [039] (-15)
7CC2  00                 [040] (-15)
7CC3  E5                 [041] (-15)
7CC4  04                 [042] (-15)
7CC5  00                 [043] (-12)
7CC6  00                 [044] (-12)
7CC7  E8                 [045] (-12)
7CC8  04                 [046] (-12)
7CC9  00                 [047] (-12)
7CCA  00                 [048] (-12)
7CCB  E8                 [049] (-11)
7CCC  04                 [050] (-11)
7CCD  00                 [051] (-10)
7CCE  00                 [052] (-10)
7CCF  E9                 [053] (-10)
7CD0  04                 [054] (-10)
7CD1  00                 [055] (-10)
7CD2  00                 [056] (-10)
7CD3  E9                 [057] (-8)
7CD4  04                 [058] (-8)
7CD5  00                 [059] (-8)
7CD6  00                 [060] (-8)
7CD7  E9                 [061] (-8)
7CD8  04                 [062] (-4)
7CD9  00                 [063] (-4)
7CDA  00                 [064] (-4)
7CDB  E9                 [065] (-4)
7CDC  04                 [066] (-4)
7CDD  00                 [067] (-4)
7CDE  00                 [068] (-3)
7CDF  EA                 [069] (-3)
7CE0  04                 [070] (-2)
7CE1  00                 [071] (-2)
7CE2  00                 [072] (-2)
7CE3  EA                 [073] (-2)
7CE4  04                 [074] (-2)
7CE5  00                 [075] (-2)
7CE6  00                 [076] (0)
7CE7  EA                 [077] (0)
7CE8  04                 [078] (0)
7CE9  00                 [079] (0)
7CEA  00                 [080] (0)
7CEB  EA                 [081] (3)
7CEC  04                 [082] (3)
7CED  00                 [083] (3)
7CEE  00                 [084] (3)
7CEF  EA                 [085] (3)
7CF0  04                 [086] (3)
7CF1  00                 [087] (4)
7CF2  00                 [088] (4)
7CF3  EA                 [089] (5)
7CF4  04                 [090] (5)
7CF5  00                 [091] (5)
7CF6  00                 [092] (5)
7CF7  ED                 [093] (5)
7CF8  04                 [094] (5)
7CF9  00                 [095] (7)
7CFA  00                 [096] (7)
7CFB  ED                 [097] (7)
7CFC  04                 [098] (7)
7CFD  00                 [099] (7)
7CFE  00                 [100] (10)
7CFF  ED                 [101] (10)
7D00  04                 [102] (10)
7D01  00                 [103] (10)
7D02  00                 [104] (10)
7D03  ED                 [105] (11)
7D04  04                 [106] (11)
7D05  00                 [107] (11)
7D06  00                 [108] (12)
                         * locals:
7E4B  00                 sizelocvars (0)
                         * upvalues:
7E4C  00                 sizeupvalues (0)
                         ** end of function **

                         * lines:
7E4E  01                 sizelineinfo (179)
                         [pc] (line)
7E4F  01                 [001] (1)
7E50  00                 [002] (1)
7E51  00                 [003] (1)
7E52  00                 [004] (1)
7E53  01                 [005] (1)
7E54  00                 [006] (3)
7E55  00                 [007] (3)
7E56  00                 [008] (3)
7E57  01                 [009] (4)
7E58  00                 [010] (4)
7E59  00                 [011] (4)
7E5A  00                 [012] (9)
7E5B  01                 [013] (9)
7E5C  00                 [014] (9)
7E5D  00                 [015] (10)
7E5E  00                 [016] (10)
7E5F  01                 [017] (10)
7E60  00                 [018] (11)
7E61  00                 [019] (11)
7E62  00                 [020] (11)
7E63  03                 [021] (12)
7E64  00                 [022] (12)
7E65  00                 [023] (12)
7E66  00                 [024] (13)
7E67  03                 [025] (13)
7E68  00                 [026] (13)
7E69  00                 [027] (80)
7E6A  00                 [028] (80)
7E6B  03                 [029] (80)
7E6C  00                 [030] (80)
7E6D  00                 [031] (80)
7E6E  00                 [032] (84)
7E6F  04                 [033] (84)
7E70  00                 [034] (84)
7E71  00                 [035] (82)
7E72  00                 [036] (112)
7E73  04                 [037] (112)
7E74  00                 [038] (112)
7E75  00                 [039] (112)
7E76  00                 [040] (112)
7E77  04                 [041] (116)
7E78  00                 [042] (116)
7E79  00                 [043] (116)
7E7A  00                 [044] (114)
7E7B  09                 [045] (125)
7E7C  00                 [046] (125)
7E7D  00                 [047] (125)
7E7E  00                 [048] (118)
7E7F  09                 [049] (-127)
7E80  00                 [050] (-127)
7E81  00                 [051] (-127)
7E82  00                 [052] (127)
7E83  09                 [053] (-112)
7E84  00                 [054] (-112)
7E85  00                 [055] (-112)
7E86  00                 [056] (-125)
7E87  0A                 [057] (-105)
7E88  00                 [058] (-105)
7E89  00                 [059] (-105)
7E8A  00                 [060] (-110)
7E8B  0A                 [061] (-70)
7E8C  00                 [062] (-70)
7E8D  00                 [063] (-66)
7E8E  00                 [064] (-66)
7E8F  0A                 [065] (-66)
7E90  00                 [066] (-68)
7E91  00                 [067] (-55)
7E92  00                 [068] (-55)
7E93  0B                 [069] (-55)
7E94  00                 [070] (-64)
7E95  00                 [071] (-33)
7E96  00                 [072] (-33)
7E97  0B                 [073] (-29)
7E98  00                 [074] (-29)
7E99  00                 [075] (-29)
7E9A  00                 [076] (-31)
7E9B  0B                 [077] (-18)
7E9C  00                 [078] (-18)
7E9D  00                 [079] (-18)
7E9E  00                 [080] (-27)
7E9F  0C                 [081] (7)
7EA0  00                 [082] (7)
7EA1  00                 [083] (-13)
7EA2  00                 [084] (28)
7EA3  0C                 [085] (32)
7EA4  00                 [086] (32)
7EA5  00                 [087] (32)
7EA6  00                 [088] (30)
7EA7  0C                 [089] (49)
7EA8  00                 [090] (49)
7EA9  00                 [091] (49)
7EAA  00                 [092] (34)
7EAB  0D                 [093] (61)
7EAC  00                 [094] (61)
7EAD  00                 [095] (51)
7EAE  00                 [096] (70)
7EAF  0D                 [097] (70)
7EB0  00                 [098] (66)
7EB1  00                 [099] (76)
7EB2  00                 [100] (80)
7EB3  0D                 [101] (80)
7EB4  00                 [102] (80)
7EB5  00                 [103] (78)
7EB6  00                 [104] (90)
7EB7  50                 [105] (90)
7EB8  00                 [106] (90)
7EB9  00                 [107] (82)
7EBA  00                 [108] (114)
7EBB  50                 [109] (114)
7EBC  00                 [110] (92)
7EBD  00                 [111] (124)
7EBE  00                 [112] (124)
7EBF  50                 [113] (116)
7EC0  00                 [114] (-121)
7EC1  00                 [115] (-121)
7EC2  00                 [116] (126)
7EC3  50                 [117] (-117)
7EC4  00                 [118] (-117)
7EC5  00                 [119] (-117)
7EC6  00                 [120] (-117)
7EC7  50                 [121] (-119)
7EC8  00                 [122] (-77)
7EC9  00                 [123] (-77)
7ECA  00                 [124] (-115)
7ECB  54                 [125] (-63)
7ECC  00                 [126] (-63)
7ECD  00                 [127] (-75)
7ECE  00                 [128] (-41)
7ECF  54                 [129] (-41)
7ED0  00                 [130] (-61)
7ED1  00                 [131] (-31)
7ED2  00                 [132] (-31)
7ED3  54                 [133] (-39)
7ED4  00                 [134] (23)
7ED5  00                 [135] (23)
7ED6  00                 [136] (-29)
7ED7  52                 [137] (36)
7ED8  00                 [138] (-92)
7ED9  00                 [139] (-92)
7EDA  00                 [140] (-92)
7EDB  70                 [141] (-92)
7EDC  00                 [142] (38)
7EDD  00                 [143] (-68)
7EDE  00                 [144] (-68)
7EDF  70                 [145] (-68)
7EE0  00                 [146] (-90)
7EE1  00                 [147] (-12)
7EE2  00                 [148] (-12)
7EE3  70                 [149] (-66)
7EE4  00                 [150] (36)
7EE5  00                 [151] (36)
7EE6  00                 [152] (-10)
7EE7  70                 [153] (100)
7EE8  00                 [154] (100)
7EE9  00                 [155] (100)
7EEA  00                 [156] (41)
7EEB  70                 [157] (-2)
7EEC  00                 [158] (-2)
7EED  00                 [159] (102)
7EEE  00                 [160] (106)
7EEF  74                 [161] (106)
7EF0  00                 [162] (106)
7EF1  00                 [163] (0)
7EF2  00                 [164] (-79)
7EF3  74                 [165] (-79)
7EF4  00                 [166] (108)
7EF5  00                 [167] (-62)
7EF6  00                 [168] (-62)
7EF7  74                 [169] (-77)
7EF8  00                 [170] (-43)
7EF9  00                 [171] (-43)
7EFA  00                 [172] (-60)
7EFB  72                 [173] (-31)
7EFC  00                 [174] (-31)
7EFD  00                 [175] (-41)
7EFE  00                 [176] (12)
7EFF  7D                 [177] (12)
7F00  00                 [178] (-29)
7F01  00                 [179] (12)
                         * locals:
811B  00                 sizelocvars (0)
                         * upvalues:
811C  00                 sizeupvalues (0)
                         ** end of function **

811D                     ** end of chunk **
