1	C:\wlua_dump\path\Lotus\Scripts\MissionScriptsInfestedIntroQuestMissions.lua
Pos   Hex Data           Description or Code
------------------------------------------------------------------------
0000                     ** source chunk: C:\wlua_dump\path\Lotus\Scripts\MissionScriptsInfestedIntroQuestMissions.lua
                         ** global header start **
0000  7F                 header signature: ""
0001  00                 version (major:minor hex digits)
0002  00                 format (0=official)
0003  00                 endianness (1=little endian)
0004  00                 size of int (bytes)
0005  00                 size of size_t (bytes)
0006  02                 size of Instruction (bytes)
0007  04                 size of number (bytes)
0008  17                 integral (1=integral)
423
                         * number type: single
                         * x86 standard (32-bit, little endian, doubles)
                         ** global header end **
INTEL_PTS
INTEL_PTS_NEEDED
InfestedIntroIntel
CorpusInfestedIntel
OnPlayerSpawned
gRegion
Execute
Disable
gGameRules
gRegion
Grineer
Infested
InfestedQuestIntelOne
InfestedQuestIntelTwo
gGameRules
gRegion
Corpus
Infested
CorpusInfestedQuestOne
CorpusInfestedQuestTwo
hideDecoTag
gRegion
Hide
showDecoTag
Show
disableObjectTag
Disable
enableObjectTag
Enable
_T
DefenseSpawnOffset
defenseSpawnOffset
                         
0001                     ** function [0] definition (level 1)
                         ** start of function **
0001  00                 string size (0)
                         source name: (none)
0002  00                 line defined (0)
0003  00                 last line defined (0)
0004  00                 nups (0)
0005  00                 numparams (0)
0006  02                 is_vararg (2)
0007  04                 maxstacksize (4)
                         * code:
0008  17                 sizecode (23)
0009  1D000000           [01] getglobal  0   0        ; -332969190
000D  59400000           [02] loadk      1   1        ; "INTEL_PTS"
0011  22800001           [03] call       0   2   2  
0015  5D000000           [04] getglobal  1   0        ; -332969190
0019  99800000           [05] loadk      2   2        ; "INTEL_PTS_NEEDED"
001D  62800001           [06] call       1   2   2  
0021  A5000000           [07] closure    2   0      
0025  E5400000           [08] closure    3   1      
0029  12000000           [09] move       0   0      
002D  12008000           [10] move       0   1      
0031  12000001           [11] move       0   2      
0035  E0C00000           [12] setglobal  3   3        ; InfestedIntroIntel
0039  E0000100           [13] setglobal  3   4        ; -264638291
003D  E5800000           [14] closure    3   2      
0041  12000000           [15] move       0   0      
0045  12008000           [16] move       0   1      
0049  12000001           [17] move       0   2      
004D  E0400100           [18] setglobal  3   5        ; CorpusInfestedIntel
0051  E0800100           [19] setglobal  3   6        ; 464607339
0055  E5C00000           [20] closure    3   3      
0059  E0C00100           [21] setglobal  3   7        ; OnPlayerSpawned
005D  E0000200           [22] setglobal  3   8        ; -2127358586
0061  1E008000           [23] return     0   1      
                         * constants:
0065  09                 sizek (9)
0066  01                 const type 3
0067  1A4B27EC           const [0]: (-332969190)
006B  04                 const type 4
006C  0A                 string size (10)
006D  494E54454C5F5054+  "INTEL_PT"
0075  5300               "S\0"
                         const [1]: "INTEL_PTS"
0077  04                 const type 4
0078  11                 string size (17)
0079  494E54454C5F5054+  "INTEL_PT"
0081  535F4E4545444544+  "S_NEEDED"
0089  00                 "\0"
                         const [2]: "INTEL_PTS_NEEDED"
008A  04                 const type 4
008B  13                 string size (19)
008C  496E666573746564+  "Infested"
0094  496E74726F496E74+  "IntroInt"
009C  656C00             "el\0"
                         const [3]: "InfestedIntroIntel"
009F  01                 const type 3
00A0  ADF039F0           const [4]: (-264638291)
00A4  04                 const type 4
00A5  14                 string size (20)
00A6  436F72707573496E+  "CorpusIn"
00AE  666573746564496E+  "festedIn"
00B6  74656C00           "tel\0"
                         const [5]: "CorpusInfestedIntel"
00BA  01                 const type 3
00BB  6B58B11B           const [6]: (464607339)
00BF  04                 const type 4
00C0  10                 string size (16)
00C1  4F6E506C61796572+  "OnPlayer"
00C9  537061776E656400   "Spawned\0"
                         const [7]: "OnPlayerSpawned"
00D1  01                 const type 3
00D2  86153381           const [8]: (-2127358586)
                         * functions:
00D6  04                 sizep (4)
                         
00D7                     ** function [0] definition (level 2)
                         ** start of function **
00D7  00                 string size (0)
                         source name: (none)
00D8  0B                 line defined (11)
00D9  15                 last line defined (21)
00DA  00                 nups (0)
00DB  02                 numparams (2)
00DC  00                 is_vararg (0)
00DD  0A                 maxstacksize (10)
                         * code:
00DE  19                 sizecode (25)
00DF  9D000000           [01] getglobal  2   0        ; gRegion
00E3  A4404001           [02] self       2   2   257  ; -1485896174
00E7  12010000           [03] move       4   0      
00EB  A2808001           [04] call       2   3   2  
00EF  D9800000           [05] loadk      3   2        ; 0
00F3  0A010001           [06] len        4   2      
00F7  59810000           [07] loadk      5   2        ; 0
00FB  D0800380           [08] forprep    3   15       ; to [24]
00FF  DDC10000           [09] getglobal  7   3        ; 1074689893
0103  0E820101           [10] gettable   8   2   6  
0107  E2810001           [11] call       7   2   2  
010B  D8410000           [12] test       7       1    ; to [14] if false
010F  1A400280           [13] jmp        10           ; to [24]
0113  CE810101           [14] gettable   7   2   6  
0117  E401C103           [15] self       7   7   260  ; -1923578185
011B  59420100           [16] loadk      9   5        ; "Execute"
011F  E2418001           [17] call       7   3   1  
0123  58000000           [18] test       1       0    ; to [20] if true
0127  1AC00080           [19] jmp        4            ; to [24]
012B  CE810101           [20] gettable   7   2   6  
012F  E401C103           [21] self       7   7   260  ; -1923578185
0133  59820100           [22] loadk      9   6        ; "Disable"
0137  E2418001           [23] call       7   3   1  
013B  D4C0FB7F           [24] forloop    3   -16      ; to [9] if loop
013F  1E008000           [25] return     0   1      
                         * constants:
0143  07                 sizek (7)
0144  04                 const type 4
0145  08                 string size (8)
0146  67526567696F6E00   "gRegion\0"
                         const [0]: "gRegion"
014E  01                 const type 3
014F  12066FA7           const [1]: (-1485896174)
0153  03                 const type 3
0154  0000803F           const [2]: (0)
0158  01                 const type 3
0159  65770E40           const [3]: (1074689893)
015D  01                 const type 3
015E  B786588D           const [4]: (-1923578185)
0162  04                 const type 4
0163  08                 string size (8)
0164  4578656375746500   "Execute\0"
                         const [5]: "Execute"
016C  04                 const type 4
016D  08                 string size (8)
016E  44697361626C6500   "Disable\0"
                         const [6]: "Disable"
                         * functions:
0176  00                 sizep (0)
                         * lines:
0177  19                 sizelineinfo (25)
                         [pc] (line)
0178  0C                 [01] (12)
0179  00                 [02] (12)
017A  00                 [03] (12)
017B  00                 [04] (12)
017C  0C                 [05] (13)
017D  00                 [06] (13)
017E  00                 [07] (13)
017F  00                 [08] (13)
0180  0C                 [09] (14)
0181  00                 [10] (14)
0182  00                 [11] (14)
0183  00                 [12] (14)
0184  0C                 [13] (14)
0185  00                 [14] (15)
0186  00                 [15] (15)
0187  00                 [16] (15)
0188  0D                 [17] (15)
0189  00                 [18] (16)
018A  00                 [19] (16)
018B  00                 [20] (17)
018C  0D                 [21] (17)
018D  00                 [22] (17)
018E  00                 [23] (17)
018F  00                 [24] (13)
0190  0D                 [25] (21)
                         * locals:
01DC  00                 sizelocvars (0)
                         * upvalues:
01DD  00                 sizeupvalues (0)
                         ** end of function **

                         
01DE                     ** function [1] definition (level 2)
                         ** start of function **
01DE  00                 string size (0)
                         source name: (none)
01DF  17                 line defined (23)
01E0  3A                 last line defined (58)
01E1  03                 nups (3)
01E2  00                 numparams (0)
01E3  00                 is_vararg (0)
01E4  08                 maxstacksize (8)
                         * code:
01E5  68                 sizecode (104)
01E6  1D000000           [001] getglobal  0   0        ; 538022378
01EA  59400000           [002] loadk      1   1        ; 0
01EE  22400001           [003] call       0   2   1  
01F2  1D800000           [004] getglobal  0   2        ; gGameRules
01F6  5DC00000           [005] getglobal  1   3        ; gRegion
01FA  6400C100           [006] self       1   1   260  ; -774964848
01FE  62800001           [007] call       1   2   2  
0202  6440C100           [008] self       1   1   261  ; 537471347
0206  62800001           [009] call       1   2   2  
020A  A4804100           [010] self       2   0   262  ; -317790213
020E  13010000           [011] getupval   4   0      
0212  59C10100           [012] loadk      5   7        ; 0
0216  A2800002           [013] call       2   4   2  
021A  E4804100           [014] self       3   0   262  ; -317790213
021E  53018000           [015] getupval   5   1      
0222  99C10100           [016] loadk      6   7        ; 0
0226  E2800002           [017] call       3   4   2  
fail op	21
022A  15800084           [018] concat     0   264 2  
022E  1A000280           [019] jmp        9            ; to [29]
0232  1D010000           [020] getglobal  4   0        ; 538022378
0236  59410200           [021] loadk      5   9        ; 0
023A  22410001           [022] call       4   2   1  
023E  24814100           [023] self       4   0   262  ; -317790213
0242  93010000           [024] getupval   6   0      
0246  D9C10100           [025] loadk      7   7        ; 0
024A  22810002           [026] call       4   4   2  
024E  92000002           [027] move       2   4      
0252  1A00FD7F           [028] jmp        -11          ; to [18]
fail op	35
0256  23004201           [029] close      0  
025A  1A400480           [030] jmp        18           ; to [49]
025E  2481C200           [031] self       4   1   266  ; 1075734651
0262  9DC10200           [032] getglobal  6   11       ; -332969190
0266  D9010300           [033] loadk      7   12       ; "Grineer"
026A  A2810001           [034] call       6   2   2  
026E  D9410300           [035] loadk      7   13       ; 0
0272  22410002           [036] call       4   4   1  
0276  2481C200           [037] self       4   1   266  ; 1075734651
027A  9DC10200           [038] getglobal  6   11       ; -332969190
027E  D9810300           [039] loadk      7   14       ; "Infested"
0282  A2810001           [040] call       6   2   2  
0286  D9410300           [041] loadk      7   13       ; 0
028A  22410002           [042] call       4   4   1  
028E  13010001           [043] getupval   4   2      
0292  5DC10200           [044] getglobal  5   11       ; -332969190
0296  99C10300           [045] loadk      6   15       ; "InfestedQuestIntelOne"
029A  62810001           [046] call       5   2   2  
029E  97018000           [047] loadbool   6   1   0    ; true
02A2  22418001           [048] call       4   3   1  
fail op	21
02A6  15808084           [049] concat     0   265 2  
02AA  1A000280           [050] jmp        9            ; to [60]
02AE  1D010000           [051] getglobal  4   0        ; 538022378
02B2  59410200           [052] loadk      5   9        ; 0
02B6  22410001           [053] call       4   2   1  
02BA  24814100           [054] self       4   0   262  ; -317790213
02BE  93010000           [055] getupval   6   0      
02C2  D9C10100           [056] loadk      7   7        ; 0
02C6  22810002           [057] call       4   4   2  
02CA  92000002           [058] move       2   4      
02CE  1A00FD7F           [059] jmp        -11          ; to [49]
fail op	35
02D2  23404201           [060] close      0  
02D6  1AC00280           [061] jmp        12           ; to [74]
02DA  2481C200           [062] self       4   1   266  ; 1075734651
02DE  9DC10200           [063] getglobal  6   11       ; -332969190
02E2  D9010300           [064] loadk      7   12       ; "Grineer"
02E6  A2810001           [065] call       6   2   2  
02EA  D9010400           [066] loadk      7   16       ; 0
02EE  22410002           [067] call       4   4   1  
02F2  2481C200           [068] self       4   1   266  ; 1075734651
02F6  9DC10200           [069] getglobal  6   11       ; -332969190
02FA  D9810300           [070] loadk      7   14       ; "Infested"
02FE  A2810001           [071] call       6   2   2  
0302  D9410400           [072] loadk      7   17       ; 0
0306  22410002           [073] call       4   4   1  
fail op	21
030A  15808080           [074] concat     0   257 2  
030E  1AC00180           [075] jmp        8            ; to [84]
0312  1D010000           [076] getglobal  4   0        ; 538022378
0316  59410200           [077] loadk      5   9        ; 0
031A  22410001           [078] call       4   2   1  
031E  24814100           [079] self       4   0   262  ; -317790213
0322  93010000           [080] getupval   6   0      
0326  22818001           [081] call       4   3   2  
032A  92000002           [082] move       2   4      
032E  1A40FD7F           [083] jmp        -10          ; to [74]
fail op	35
0332  23404001           [084] close      0  
0336  1A400480           [085] jmp        18           ; to [104]
033A  2481C200           [086] self       4   1   266  ; 1075734651
033E  9DC10200           [087] getglobal  6   11       ; -332969190
0342  D9010300           [088] loadk      7   12       ; "Grineer"
0346  A2810001           [089] call       6   2   2  
034A  D9410000           [090] loadk      7   1        ; 0
034E  22410002           [091] call       4   4   1  
0352  2481C200           [092] self       4   1   266  ; 1075734651
0356  9DC10200           [093] getglobal  6   11       ; -332969190
035A  D9810300           [094] loadk      7   14       ; "Infested"
035E  A2810001           [095] call       6   2   2  
0362  D9410200           [096] loadk      7   9        ; 0
0366  22410002           [097] call       4   4   1  
036A  13010001           [098] getupval   4   2      
036E  5DC10200           [099] getglobal  5   11       ; -332969190
0372  99810400           [100] loadk      6   18       ; "InfestedQuestIntelTwo"
0376  62810001           [101] call       5   2   2  
037A  97018000           [102] loadbool   6   1   0    ; true
037E  22418001           [103] call       4   3   1  
0382  1E008000           [104] return     0   1      
                         * constants:
0386  13                 sizek (19)
0387  01                 const type 3
0388  EA911120           const [0]: (538022378)
038C  03                 const type 3
038D  00000000           const [1]: (0)
0391  04                 const type 4
0392  0B                 string size (11)
0393  6747616D6552756C+  "gGameRul"
039B  657300             "es\0"
                         const [2]: "gGameRules"
039E  04                 const type 4
039F  08                 string size (8)
03A0  67526567696F6E00   "gRegion\0"
                         const [3]: "gRegion"
03A8  01                 const type 3
03A9  90F9CED1           const [4]: (-774964848)
03AD  01                 const type 3
03AE  73290920           const [5]: (537471347)
03B2  01                 const type 3
03B3  FBE70EED           const [6]: (-317790213)
03B7  03                 const type 3
03B8  00008040           const [7]: (0)
03BC  03                 const type 3
03BD  00000040           const [8]: (0)
03C1  03                 const type 3
03C2  0000803F           const [9]: (0)
03C6  01                 const type 3
03C7  7B681E40           const [10]: (1075734651)
03CB  01                 const type 3
03CC  1A4B27EC           const [11]: (-332969190)
03D0  04                 const type 4
03D1  08                 string size (8)
03D2  4772696E65657200   "Grineer\0"
                         const [12]: "Grineer"
03DA  03                 const type 3
03DB  0000003F           const [13]: (0)
03DF  04                 const type 4
03E0  09                 string size (9)
03E1  496E666573746564+  "Infested"
03E9  00                 "\0"
                         const [14]: "Infested"
03EA  04                 const type 4
03EB  16                 string size (22)
03EC  496E666573746564+  "Infested"
03F4  5175657374496E74+  "QuestInt"
03FC  656C4F6E6500       "elOne\0"
                         const [15]: "InfestedQuestIntelOne"
0402  03                 const type 3
0403  0000803E           const [16]: (0)
0407  03                 const type 3
0408  0000403F           const [17]: (0)
040C  04                 const type 4
040D  16                 string size (22)
040E  496E666573746564+  "Infested"
0416  5175657374496E74+  "QuestInt"
041E  656C54776F00       "elTwo\0"
                         const [18]: "InfestedQuestIntelTwo"
                         * functions:
0424  00                 sizep (0)
                         * lines:
0425  68                 sizelineinfo (104)
                         [pc] (line)
0426  18                 [001] (24)
0427  00                 [002] (24)
0428  00                 [003] (24)
0429  00                 [004] (25)
042A  18                 [005] (26)
042B  00                 [006] (26)
042C  00                 [007] (26)
042D  00                 [008] (26)
042E  18                 [009] (26)
042F  00                 [010] (27)
0430  00                 [011] (27)
0431  00                 [012] (27)
0432  19                 [013] (27)
0433  00                 [014] (28)
0434  00                 [015] (28)
0435  00                 [016] (28)
0436  1A                 [017] (28)
0437  00                 [018] (30)
0438  00                 [019] (30)
0439  00                 [020] (31)
043A  1A                 [021] (31)
043B  00                 [022] (31)
043C  00                 [023] (32)
043D  00                 [024] (32)
043E  1A                 [025] (32)
043F  00                 [026] (32)
0440  00                 [027] (32)
0441  00                 [028] (32)
0442  1A                 [029] (34)
0443  00                 [030] (34)
0444  00                 [031] (35)
0445  00                 [032] (35)
0446  1A                 [033] (35)
0447  00                 [034] (35)
0448  00                 [035] (35)
0449  00                 [036] (35)
044A  1B                 [037] (36)
044B  00                 [038] (36)
044C  00                 [039] (36)
044D  00                 [040] (36)
044E  1B                 [041] (36)
044F  00                 [042] (36)
0450  00                 [043] (37)
0451  00                 [044] (37)
0452  1B                 [045] (37)
0453  00                 [046] (37)
0454  00                 [047] (37)
0455  00                 [048] (37)
0456  1B                 [049] (40)
0457  00                 [050] (40)
0458  00                 [051] (41)
0459  00                 [052] (41)
045A  1C                 [053] (41)
045B  00                 [054] (42)
045C  00                 [055] (42)
045D  00                 [056] (42)
045E  1C                 [057] (42)
045F  00                 [058] (42)
0460  00                 [059] (42)
0461  00                 [060] (44)
0462  1C                 [061] (44)
0463  00                 [062] (45)
0464  00                 [063] (45)
0465  00                 [064] (45)
0466  1C                 [065] (45)
0467  00                 [066] (45)
0468  00                 [067] (45)
0469  00                 [068] (46)
046A  1E                 [069] (46)
046B  00                 [070] (46)
046C  00                 [071] (46)
046D  00                 [072] (46)
046E  1E                 [073] (46)
046F  00                 [074] (49)
0470  00                 [075] (49)
0471  00                 [076] (50)
0472  1F                 [077] (50)
0473  00                 [078] (50)
0474  00                 [079] (51)
0475  00                 [080] (51)
0476  1F                 [081] (51)
0477  00                 [082] (51)
0478  00                 [083] (51)
0479  00                 [084] (53)
047A  1F                 [085] (53)
047B  00                 [086] (54)
047C  00                 [087] (54)
047D  00                 [088] (54)
047E  20                 [089] (54)
047F  00                 [090] (54)
0480  00                 [091] (54)
0481  00                 [092] (55)
0482  20                 [093] (55)
0483  00                 [094] (55)
0484  00                 [095] (55)
0485  00                 [096] (55)
0486  20                 [097] (55)
0487  00                 [098] (56)
0488  00                 [099] (56)
0489  00                 [100] (56)
048A  20                 [101] (56)
048B  00                 [102] (56)
048C  00                 [103] (56)
048D  00                 [104] (58)
                         * locals:
05C6  00                 sizelocvars (0)
                         * upvalues:
05C7  00                 sizeupvalues (0)
                         ** end of function **

                         
05C8                     ** function [2] definition (level 2)
                         ** start of function **
05C8  00                 string size (0)
                         source name: (none)
05C9  3C                 line defined (60)
05CA  62                 last line defined (98)
05CB  03                 nups (3)
05CC  00                 numparams (0)
05CD  00                 is_vararg (0)
05CE  08                 maxstacksize (8)
                         * code:
05CF  6E                 sizecode (110)
05D0  1D000000           [001] getglobal  0   0        ; 538022378
05D4  59400000           [002] loadk      1   1        ; 0
05D8  22400001           [003] call       0   2   1  
05DC  1D800000           [004] getglobal  0   2        ; gGameRules
05E0  5DC00000           [005] getglobal  1   3        ; gRegion
05E4  6400C100           [006] self       1   1   260  ; -774964848
05E8  62800001           [007] call       1   2   2  
05EC  6440C100           [008] self       1   1   261  ; 537471347
05F0  62800001           [009] call       1   2   2  
05F4  A4804100           [010] self       2   0   262  ; -317790213
05F8  13010000           [011] getupval   4   0      
05FC  59C10100           [012] loadk      5   7        ; 0
0600  A2800002           [013] call       2   4   2  
0604  E4804100           [014] self       3   0   262  ; -317790213
0608  53018000           [015] getupval   5   1      
060C  99C10100           [016] loadk      6   7        ; 0
0610  E2800002           [017] call       3   4   2  
fail op	21
0614  15800084           [018] concat     0   264 2  
0618  1A000280           [019] jmp        9            ; to [29]
061C  1D010000           [020] getglobal  4   0        ; 538022378
0620  59410200           [021] loadk      5   9        ; 0
0624  22410001           [022] call       4   2   1  
0628  24814100           [023] self       4   0   262  ; -317790213
062C  93010000           [024] getupval   6   0      
0630  D9C10100           [025] loadk      7   7        ; 0
0634  22810002           [026] call       4   4   2  
0638  92000002           [027] move       2   4      
063C  1A00FD7F           [028] jmp        -11          ; to [18]
fail op	35
0640  23004201           [029] close      0  
0644  1A400480           [030] jmp        18           ; to [49]
0648  2481C200           [031] self       4   1   266  ; 1075734651
064C  9DC10200           [032] getglobal  6   11       ; -332969190
0650  D9010300           [033] loadk      7   12       ; "Corpus"
0654  A2810001           [034] call       6   2   2  
0658  D9410300           [035] loadk      7   13       ; 0
065C  22410002           [036] call       4   4   1  
0660  2481C200           [037] self       4   1   266  ; 1075734651
0664  9DC10200           [038] getglobal  6   11       ; -332969190
0668  D9810300           [039] loadk      7   14       ; "Infested"
066C  A2810001           [040] call       6   2   2  
0670  D9410300           [041] loadk      7   13       ; 0
0674  22410002           [042] call       4   4   1  
0678  13010001           [043] getupval   4   2      
067C  5DC10200           [044] getglobal  5   11       ; -332969190
0680  99C10300           [045] loadk      6   15       ; "CorpusInfestedQuestOne"
0684  62810001           [046] call       5   2   2  
0688  97018000           [047] loadbool   6   1   0    ; true
068C  22418001           [048] call       4   3   1  
fail op	21
0690  15808084           [049] concat     0   265 2  
0694  1A000280           [050] jmp        9            ; to [60]
0698  1D010000           [051] getglobal  4   0        ; 538022378
069C  59410200           [052] loadk      5   9        ; 0
06A0  22410001           [053] call       4   2   1  
06A4  24814100           [054] self       4   0   262  ; -317790213
06A8  93010000           [055] getupval   6   0      
06AC  D9410200           [056] loadk      7   9        ; 0
06B0  22810002           [057] call       4   4   2  
06B4  92000002           [058] move       2   4      
06B8  1A00FD7F           [059] jmp        -11          ; to [49]
fail op	35
06BC  23404201           [060] close      0  
06C0  1AC00280           [061] jmp        12           ; to [74]
06C4  2481C200           [062] self       4   1   266  ; 1075734651
06C8  9DC10200           [063] getglobal  6   11       ; -332969190
06CC  D9010300           [064] loadk      7   12       ; "Corpus"
06D0  A2810001           [065] call       6   2   2  
06D4  D9010400           [066] loadk      7   16       ; 0
06D8  22410002           [067] call       4   4   1  
06DC  2481C200           [068] self       4   1   266  ; 1075734651
06E0  9DC10200           [069] getglobal  6   11       ; -332969190
06E4  D9810300           [070] loadk      7   14       ; "Infested"
06E8  A2810001           [071] call       6   2   2  
06EC  D9410400           [072] loadk      7   17       ; 0
06F0  22410002           [073] call       4   4   1  
fail op	21
06F4  15808080           [074] concat     0   257 2  
06F8  1AC00280           [075] jmp        12           ; to [88]
06FC  1D010000           [076] getglobal  4   0        ; 538022378
0700  59410200           [077] loadk      5   9        ; 0
0704  22410001           [078] call       4   2   1  
0708  24814100           [079] self       4   0   262  ; -317790213
070C  93010000           [080] getupval   6   0      
0710  D9410000           [081] loadk      7   1        ; 0
0714  22810002           [082] call       4   4   2  
0718  92000002           [083] move       2   4      
fail op	35
071C  23804401           [084] close      0  
0720  1AC0FC7F           [085] jmp        -12          ; to [74]
0724  1A000080           [086] jmp        1            ; to [88]
0728  1A40FC7F           [087] jmp        -14          ; to [74]
fail op	35
072C  63404001           [088] close      1  
0730  1A400080           [089] jmp        2            ; to [92]
fail op	35
0734  23804401           [090] close      0  
0738  1A400480           [091] jmp        18           ; to [110]
073C  2481C200           [092] self       4   1   266  ; 1075734651
0740  9DC10200           [093] getglobal  6   11       ; -332969190
0744  D9010300           [094] loadk      7   12       ; "Corpus"
0748  A2810001           [095] call       6   2   2  
074C  D9410000           [096] loadk      7   1        ; 0
0750  22410002           [097] call       4   4   1  
0754  2481C200           [098] self       4   1   266  ; 1075734651
0758  9DC10200           [099] getglobal  6   11       ; -332969190
075C  D9810300           [100] loadk      7   14       ; "Infested"
0760  A2810001           [101] call       6   2   2  
0764  D9410200           [102] loadk      7   9        ; 0
0768  22410002           [103] call       4   4   1  
076C  13010001           [104] getupval   4   2      
0770  5DC10200           [105] getglobal  5   11       ; -332969190
0774  99C10400           [106] loadk      6   19       ; "CorpusInfestedQuestTwo"
0778  62810001           [107] call       5   2   2  
077C  97018000           [108] loadbool   6   1   0    ; true
0780  22418001           [109] call       4   3   1  
0784  1E008000           [110] return     0   1      
                         * constants:
0788  14                 sizek (20)
0789  01                 const type 3
078A  EA911120           const [0]: (538022378)
078E  03                 const type 3
078F  00000000           const [1]: (0)
0793  04                 const type 4
0794  0B                 string size (11)
0795  6747616D6552756C+  "gGameRul"
079D  657300             "es\0"
                         const [2]: "gGameRules"
07A0  04                 const type 4
07A1  08                 string size (8)
07A2  67526567696F6E00   "gRegion\0"
                         const [3]: "gRegion"
07AA  01                 const type 3
07AB  90F9CED1           const [4]: (-774964848)
07AF  01                 const type 3
07B0  73290920           const [5]: (537471347)
07B4  01                 const type 3
07B5  FBE70EED           const [6]: (-317790213)
07B9  03                 const type 3
07BA  00008040           const [7]: (0)
07BE  03                 const type 3
07BF  00000040           const [8]: (0)
07C3  03                 const type 3
07C4  0000803F           const [9]: (0)
07C8  01                 const type 3
07C9  7B681E40           const [10]: (1075734651)
07CD  01                 const type 3
07CE  1A4B27EC           const [11]: (-332969190)
07D2  04                 const type 4
07D3  07                 string size (7)
07D4  436F7270757300     "Corpus\0"
                         const [12]: "Corpus"
07DB  03                 const type 3
07DC  0000003F           const [13]: (0)
07E0  04                 const type 4
07E1  09                 string size (9)
07E2  496E666573746564+  "Infested"
07EA  00                 "\0"
                         const [14]: "Infested"
07EB  04                 const type 4
07EC  17                 string size (23)
07ED  436F72707573496E+  "CorpusIn"
07F5  6665737465645175+  "festedQu"
07FD  6573744F6E6500     "estOne\0"
                         const [15]: "CorpusInfestedQuestOne"
0804  03                 const type 3
0805  0000803E           const [16]: (0)
0809  03                 const type 3
080A  0000403F           const [17]: (0)
080E  03                 const type 3
080F  00007F43           const [18]: (0)
0813  04                 const type 4
0814  17                 string size (23)
0815  436F72707573496E+  "CorpusIn"
081D  6665737465645175+  "festedQu"
0825  65737454776F00     "estTwo\0"
                         const [19]: "CorpusInfestedQuestTwo"
                         * functions:
082C  00                 sizep (0)
                         * lines:
082D  6E                 sizelineinfo (110)
                         [pc] (line)
082E  3D                 [001] (61)
082F  00                 [002] (61)
0830  00                 [003] (61)
0831  00                 [004] (62)
0832  3D                 [005] (63)
0833  00                 [006] (63)
0834  00                 [007] (63)
0835  00                 [008] (63)
0836  3D                 [009] (63)
0837  00                 [010] (64)
0838  00                 [011] (64)
0839  00                 [012] (64)
083A  3E                 [013] (64)
083B  00                 [014] (65)
083C  00                 [015] (65)
083D  00                 [016] (65)
083E  3F                 [017] (65)
083F  00                 [018] (67)
0840  00                 [019] (67)
0841  00                 [020] (68)
0842  3F                 [021] (68)
0843  00                 [022] (68)
0844  00                 [023] (69)
0845  00                 [024] (69)
0846  3F                 [025] (69)
0847  00                 [026] (69)
0848  00                 [027] (69)
0849  00                 [028] (69)
084A  3F                 [029] (71)
084B  00                 [030] (71)
084C  00                 [031] (72)
084D  00                 [032] (72)
084E  3F                 [033] (72)
084F  00                 [034] (72)
0850  00                 [035] (72)
0851  00                 [036] (72)
0852  40                 [037] (73)
0853  00                 [038] (73)
0854  00                 [039] (73)
0855  00                 [040] (73)
0856  40                 [041] (73)
0857  00                 [042] (73)
0858  00                 [043] (74)
0859  00                 [044] (74)
085A  40                 [045] (74)
085B  00                 [046] (74)
085C  00                 [047] (74)
085D  00                 [048] (74)
085E  40                 [049] (77)
085F  00                 [050] (77)
0860  00                 [051] (78)
0861  00                 [052] (78)
0862  41                 [053] (78)
0863  00                 [054] (79)
0864  00                 [055] (79)
0865  00                 [056] (79)
0866  41                 [057] (79)
0867  00                 [058] (79)
0868  00                 [059] (79)
0869  00                 [060] (81)
086A  41                 [061] (81)
086B  00                 [062] (82)
086C  00                 [063] (82)
086D  00                 [064] (82)
086E  41                 [065] (82)
086F  00                 [066] (82)
0870  00                 [067] (82)
0871  00                 [068] (83)
0872  43                 [069] (83)
0873  00                 [070] (83)
0874  00                 [071] (83)
0875  00                 [072] (83)
0876  43                 [073] (83)
0877  00                 [074] (86)
0878  00                 [075] (86)
0879  00                 [076] (87)
087A  44                 [077] (87)
087B  00                 [078] (87)
087C  00                 [079] (88)
087D  00                 [080] (88)
087E  44                 [081] (88)
087F  00                 [082] (88)
0880  00                 [083] (88)
0881  00                 [084] (89)
0882  44                 [085] (89)
0883  00                 [086] (90)
0884  00                 [087] (91)
0885  00                 [088] (93)
0886  45                 [089] (93)
0887  00                 [090] (93)
0888  00                 [091] (93)
0889  00                 [092] (94)
088A  45                 [093] (94)
088B  00                 [094] (94)
088C  00                 [095] (94)
088D  00                 [096] (94)
088E  45                 [097] (94)
088F  00                 [098] (95)
0890  00                 [099] (95)
0891  00                 [100] (95)
0892  45                 [101] (95)
0893  00                 [102] (95)
0894  00                 [103] (95)
0895  00                 [104] (96)
0896  45                 [105] (96)
0897  00                 [106] (96)
0898  00                 [107] (96)
0899  00                 [108] (96)
089A  45                 [109] (96)
089B  00                 [110] (98)
                         * locals:
09E6  00                 sizelocvars (0)
                         * upvalues:
09E7  00                 sizeupvalues (0)
                         ** end of function **

                         
09E8                     ** function [3] definition (level 2)
                         ** start of function **
09E8  00                 string size (0)
                         source name: (none)
09E9  64                 line defined (100)
09EA  82                 last line defined (130)
09EB  01                 nups (0)
09EC  00                 numparams (2)
09ED  02                 is_vararg (0)
09EE  00                 maxstacksize (29)
                         * code:
09F0  60                 sizecode (96)
09F1  9D000000           [01] getglobal  2   0        ; 1074689893
09F5  DD400000           [02] getglobal  3   1        ; hideDecoTag
09F9  A2800001           [03] call       2   2   2  
09FD  98400000           [04] test       2       1    ; to [6] if false
0A01  1A400480           [05] jmp        18           ; to [24]
0A05  9D400000           [06] getglobal  2   1        ; hideDecoTag
0A09  A4804001           [07] self       2   2   258  ; 828278287
0A0D  A2800001           [08] call       2   2   2  
0A11  98000000           [09] test       2       0    ; to [11] if true
0A15  1A000380           [10] jmp        13           ; to [24]
0A19  9DC00000           [11] getglobal  2   3        ; gRegion
0A1D  A4004101           [12] self       2   2   260  ; -1485896174
0A21  1D410000           [13] getglobal  4   1        ; hideDecoTag
0A25  A2808001           [14] call       2   3   2  
0A29  DD400100           [15] getglobal  3   5        ; 1672515847
0A2D  12010001           [16] move       4   2      
0A31  E2000101           [17] call       3   2   4  
0A35  1A800080           [18] jmp        3            ; to [22]
0A39  2482C103           [19] self       8   7   262  ; -1923578185
0A3D  99C20100           [20] loadk      10  7        ; "Hide"
0A41  22428001           [21] call       8   3   1  
0A45  D6800000           [22] tforloop   3       2    ; to [24] if exit
0A49  1A80FE7F           [23] jmp        -5           ; to [19]
0A4D  1D020000           [24] getglobal  8   0        ; 1074689893
0A51  5D020200           [25] getglobal  9   8        ; showDecoTag
0A55  22820001           [26] call       8   2   2  
0A59  18420000           [27] test       8       1    ; to [29] if false
0A5D  1A400480           [28] jmp        18           ; to [47]
0A61  1D020200           [29] getglobal  8   8        ; showDecoTag
0A65  5D420200           [30] getglobal  9   9        ; -332969190
0A69  62828000           [31] call       9   1   2  
fail op	35
0A6D  63400204           [32] close      1  
0A71  1A000380           [33] jmp        13           ; to [47]
0A75  1DC20000           [34] getglobal  8   3        ; gRegion
0A79  24024104           [35] self       8   8   260  ; -1485896174
0A7D  9D020200           [36] getglobal  10  8        ; showDecoTag
0A81  22828001           [37] call       8   3   2  
0A85  5D420100           [38] getglobal  9   5        ; 1672515847
0A89  92020004           [39] move       10  8      
0A8D  62020101           [40] call       9   2   4  
0A91  1A800080           [41] jmp        3            ; to [45]
0A95  A483C106           [42] self       14  13  262  ; -1923578185
0A99  19840200           [43] loadk      16  10       ; "Show"
0A9D  A2438001           [44] call       14  3   1  
0AA1  56820000           [45] tforloop   9       2    ; to [47] if exit
0AA5  1A80FE7F           [46] jmp        -5           ; to [42]
0AA9  9D030000           [47] getglobal  14  0        ; 1074689893
0AAD  DDC30200           [48] getglobal  15  11       ; disableObjectTag
0AB1  A2830001           [49] call       14  2   2  
0AB5  98430000           [50] test       14      1    ; to [52] if false
0AB9  1A400480           [51] jmp        18           ; to [70]
0ABD  9DC30200           [52] getglobal  14  11       ; disableObjectTag
0AC1  DD430200           [53] getglobal  15  9        ; -332969190
0AC5  E2838000           [54] call       15  1   2  
fail op	35
0AC9  63C00307           [55] close      1  
0ACD  1A000380           [56] jmp        13           ; to [70]
0AD1  9DC30000           [57] getglobal  14  3        ; gRegion
0AD5  A4034107           [58] self       14  14  260  ; -1485896174
0AD9  1DC40200           [59] getglobal  16  11       ; disableObjectTag
0ADD  A2838001           [60] call       14  3   2  
0AE1  DD430100           [61] getglobal  15  5        ; 1672515847
0AE5  12040007           [62] move       16  14     
0AE9  E2030101           [63] call       15  2   4  
0AED  1A800080           [64] jmp        3            ; to [68]
0AF1  2485C109           [65] self       20  19  262  ; -1923578185
0AF5  99050300           [66] loadk      22  12       ; "Disable"
0AF9  22458001           [67] call       20  3   1  
0AFD  D6830000           [68] tforloop   15      2    ; to [70] if exit
0B01  1A80FE7F           [69] jmp        -5           ; to [65]
0B05  1D050000           [70] getglobal  20  0        ; 1074689893
0B09  5D450300           [71] getglobal  21  13       ; enableObjectTag
0B0D  22850001           [72] call       20  2   2  
0B11  18450000           [73] test       20      1    ; to [75] if false
0B15  1A400480           [74] jmp        18           ; to [93]
0B19  1D450300           [75] getglobal  20  13       ; enableObjectTag
0B1D  5D450200           [76] getglobal  21  9        ; -332969190
0B21  62858000           [77] call       21  1   2  
fail op	35
0B25  6340050A           [78] close      1  
0B29  1A000380           [79] jmp        13           ; to [93]
0B2D  1DC50000           [80] getglobal  20  3        ; gRegion
0B31  2405410A           [81] self       20  20  260  ; -1485896174
0B35  9D450300           [82] getglobal  22  13       ; enableObjectTag
0B39  22858001           [83] call       20  3   2  
0B3D  5D450100           [84] getglobal  21  5        ; 1672515847
0B41  9205000A           [85] move       22  20     
0B45  62050101           [86] call       21  2   4  
0B49  1A800080           [87] jmp        3            ; to [91]
0B4D  A486C10C           [88] self       26  25  262  ; -1923578185
0B51  19870300           [89] loadk      28  14       ; "Enable"
0B55  A2468001           [90] call       26  3   1  
0B59  56850000           [91] tforloop   21      2    ; to [93] if exit
0B5D  1A80FE7F           [92] jmp        -5           ; to [88]
0B61  9DC60300           [93] getglobal  26  15       ; _T
0B65  DD460400           [94] getglobal  27  17       ; defenseSpawnOffset
0B69  8CC60688           [95] settable   26  272 27   ; "DefenseSpawnOffset"
0B6D  1E008000           [96] return     0   1      
                         * constants:
0B71  12                 sizek (18)
0B72  01                 const type 3
0B73  65770E40           const [0]: (1074689893)
0B77  04                 const type 4
0B78  0C                 string size (12)
0B79  686964654465636F+  "hideDeco"
0B81  54616700           "Tag\0"
                         const [1]: "hideDecoTag"
0B85  01                 const type 3
0B86  0F865E31           const [2]: (828278287)
0B8A  04                 const type 4
0B8B  08                 string size (8)
0B8C  67526567696F6E00   "gRegion\0"
                         const [3]: "gRegion"
0B94  01                 const type 3
0B95  12066FA7           const [4]: (-1485896174)
0B99  01                 const type 3
0B9A  0791B063           const [5]: (1672515847)
0B9E  01                 const type 3
0B9F  B786588D           const [6]: (-1923578185)
0BA3  04                 const type 4
0BA4  05                 string size (5)
0BA5  4869646500         "Hide\0"
                         const [7]: "Hide"
0BAA  04                 const type 4
0BAB  0C                 string size (12)
0BAC  73686F774465636F+  "showDeco"
0BB4  54616700           "Tag\0"
                         const [8]: "showDecoTag"
0BB8  01                 const type 3
0BB9  1A4B27EC           const [9]: (-332969190)
0BBD  04                 const type 4
0BBE  05                 string size (5)
0BBF  53686F7700         "Show\0"
                         const [10]: "Show"
0BC4  04                 const type 4
0BC5  11                 string size (17)
0BC6  64697361626C654F+  "disableO"
0BCE  626A656374546167+  "bjectTag"
0BD6  00                 "\0"
                         const [11]: "disableObjectTag"
0BD7  04                 const type 4
0BD8  08                 string size (8)
0BD9  44697361626C6500   "Disable\0"
                         const [12]: "Disable"
0BE1  04                 const type 4
0BE2  10                 string size (16)
0BE3  656E61626C654F62+  "enableOb"
0BEB  6A65637454616700   "jectTag\0"
                         const [13]: "enableObjectTag"
0BF3  04                 const type 4
0BF4  07                 string size (7)
0BF5  456E61626C6500     "Enable\0"
                         const [14]: "Enable"
0BFC  04                 const type 4
0BFD  03                 string size (3)
0BFE  5F5400             "_T\0"
                         const [15]: "_T"
0C01  04                 const type 4
0C02  13                 string size (19)
0C03  446566656E736553+  "DefenseS"
0C0B  7061776E4F666673+  "pawnOffs"
0C13  657400             "et\0"
                         const [16]: "DefenseSpawnOffset"
0C16  04                 const type 4
0C17  13                 string size (19)
0C18  646566656E736553+  "defenseS"
0C20  7061776E4F666673+  "pawnOffs"
0C28  657400             "et\0"
                         const [17]: "defenseSpawnOffset"
                         * functions:
0C2B  00                 sizep (0)
                         * lines:
0C2C  60                 sizelineinfo (96)
                         [pc] (line)
0C2D  65                 [01] (101)
0C2E  00                 [02] (101)
0C2F  00                 [03] (101)
0C30  00                 [04] (101)
0C31  65                 [05] (101)
0C32  00                 [06] (101)
0C33  00                 [07] (101)
0C34  00                 [08] (101)
0C35  65                 [09] (101)
0C36  00                 [10] (101)
0C37  00                 [11] (102)
0C38  00                 [12] (102)
0C39  65                 [13] (102)
0C3A  00                 [14] (102)
0C3B  00                 [15] (103)
0C3C  00                 [16] (103)
0C3D  65                 [17] (103)
0C3E  00                 [18] (103)
0C3F  00                 [19] (104)
0C40  00                 [20] (104)
0C41  65                 [21] (104)
0C42  00                 [22] (103)
0C43  00                 [23] (104)
0C44  00                 [24] (108)
0C45  65                 [25] (108)
0C46  00                 [26] (108)
0C47  00                 [27] (108)
0C48  00                 [28] (108)
0C49  65                 [29] (108)
0C4A  00                 [30] (108)
0C4B  00                 [31] (108)
0C4C  00                 [32] (108)
0C4D  65                 [33] (108)
0C4E  00                 [34] (109)
0C4F  00                 [35] (109)
0C50  00                 [36] (109)
0C51  65                 [37] (109)
0C52  00                 [38] (110)
0C53  00                 [39] (110)
0C54  00                 [40] (110)
0C55  66                 [41] (110)
0C56  00                 [42] (111)
0C57  00                 [43] (111)
0C58  00                 [44] (111)
0C59  66                 [45] (110)
0C5A  00                 [46] (111)
0C5B  00                 [47] (115)
0C5C  00                 [48] (115)
0C5D  66                 [49] (115)
0C5E  00                 [50] (115)
0C5F  00                 [51] (115)
0C60  00                 [52] (115)
0C61  66                 [53] (115)
0C62  00                 [54] (115)
0C63  00                 [55] (115)
0C64  00                 [56] (115)
0C65  67                 [57] (116)
0C66  00                 [58] (116)
0C67  00                 [59] (116)
0C68  00                 [60] (116)
0C69  67                 [61] (117)
0C6A  00                 [62] (117)
0C6B  00                 [63] (117)
0C6C  00                 [64] (117)
0C6D  67                 [65] (118)
0C6E  00                 [66] (118)
0C6F  00                 [67] (118)
0C70  00                 [68] (117)
0C71  67                 [69] (118)
0C72  00                 [70] (122)
0C73  00                 [71] (122)
0C74  00                 [72] (122)
0C75  68                 [73] (122)
0C76  00                 [74] (122)
0C77  00                 [75] (122)
0C78  00                 [76] (122)
0C79  68                 [77] (122)
0C7A  00                 [78] (122)
0C7B  00                 [79] (122)
0C7C  00                 [80] (123)
0C7D  68                 [81] (123)
0C7E  00                 [82] (123)
0C7F  00                 [83] (123)
0C80  00                 [84] (124)
0C81  67                 [85] (124)
0C82  00                 [86] (124)
0C83  00                 [87] (124)
0C84  00                 [88] (125)
0C85  68                 [89] (125)
0C86  00                 [90] (125)
0C87  00                 [91] (124)
0C88  00                 [92] (125)
0C89  6C                 [93] (-127)
0C8A  00                 [94] (-127)
0C8B  00                 [95] (-127)
0C8C  00                 [96] (-126)
                         * locals:
0DAD  00                 sizelocvars (0)
                         * upvalues:
0DAE  00                 sizeupvalues (0)
                         ** end of function **

                         * lines:
0DAF  17                 sizelineinfo (23)
                         [pc] (line)
0DB0  08                 [01] (8)
0DB1  00                 [02] (8)
0DB2  00                 [03] (8)
0DB3  00                 [04] (9)
0DB4  08                 [05] (9)
0DB5  00                 [06] (9)
0DB6  00                 [07] (21)
0DB7  00                 [08] (58)
0DB8  08                 [09] (58)
0DB9  00                 [10] (58)
0DBA  00                 [11] (58)
0DBB  00                 [12] (58)
0DBC  09                 [13] (23)
0DBD  00                 [14] (98)
0DBE  00                 [15] (98)
0DBF  00                 [16] (98)
0DC0  09                 [17] (98)
0DC1  00                 [18] (98)
0DC2  00                 [19] (60)
0DC3  00                 [20] (-126)
0DC4  09                 [21] (-126)
0DC5  00                 [22] (100)
0DC6  00                 [23] (-126)
                         * locals:
0E0C  00                 sizelocvars (0)
                         * upvalues:
0E0D  00                 sizeupvalues (0)
                         ** end of function **

0E0E                     ** end of chunk **
