1	C:\wlua_dump\path\Lotus\Scripts\NemesisNemesisMission.lua
Pos   Hex Data           Description or Code
------------------------------------------------------------------------
0000                     ** source chunk: C:\wlua_dump\path\Lotus\Scripts\NemesisNemesisMission.lua
                         ** global header start **
0000  7F                 header signature: ""
0001  00                 version (major:minor hex digits)
0002  00                 format (0=official)
0003  00                 endianness (1=little endian)
0004  00                 size of int (bytes)
0005  00                 size of size_t (bytes)
0006  02                 size of Instruction (bytes)
0007  29                 size of number (bytes)
0008  FD                 integral (1=integral)
4253
                         * number type: single
                         * x86 standard (32-bit, little endian, doubles)
                         ** global header end **
/Lotus/Types/Enemies/Enhancements/Lich/Rank1HenchmenEnhancement
/Lotus/Types/Enemies/Enhancements/Lich/Rank2HenchmenEnhancement
/Lotus/Types/Enemies/Enhancements/Lich/Rank3HenchmenEnhancement
/Lotus/Types/Enemies/Enhancements/Lich/Rank4HenchmenEnhancement
/Lotus/Types/Enemies/Enhancements/Lich/Rank5HenchmenEnhancement
/Lotus/Types/Enemies/Grineer/AIWeek/GrineerRollingDrone
/Lotus/Types/Enemies/Grineer/SpecialEvents/ForestDroneAgent
/Lotus/Types/Enemies/Grineer/SpecialEvents/SurveillanceDroneAgent
/Lotus/Types/Enemies/Grineer/AIWeek/CameraDroneAgent
/Lotus/Types/Enemies/Grineer/AIWeek/CombatKubrowAgent
/Lotus/Types/Enemies/Grineer/AIWeek/CombatCatbrowAgent
/Lotus/Types/Enemies/Grineer/AIWeek/StickyRollingDrone
/Lotus/Types/Enemies/Grineer/ChemStrike/ChemStrikeNoxAgent
/Lotus/Types/Enemies/CaptureTargets/CaptureTargetBaseAgent
/Lotus/Types/Enemies/Corpus/Turrets/SecurityCameraAgent
/Lotus/Types/Enemies/Corpus/Turrets/AutoTurretAgent
/Lotus/Types/Enemies/Grineer/GfsSecurityCameraAgent
Lotus.Scripts.Libs.EncounterLib
Lotus.Scripts.Nemesis.NemesisGenerator
Lotus.Interface.LotusUtilities
Lotus.Interface.LoadoutUtilities
EE.Interface.Utilities
DoNotUse
DroneSpawn
BipedSpecialSpawn
GroupSpawn
TurretSpawn
CameraSpawn
FixedCameraSpawn
dSpawn
hSpawn
DefenseAgentSpawn
henchmenKills
chance
HenchmenCount
HenchmenKilled
NemesisHintProgress
Grineer
/Lotus/Types/Keys/WarWithinQuest/WarWithinQuestKeyChain
/Lotus/Types/Enemies/KuvaLich/KuvaLarvlingAgent
/Lotus/Types/Enemies/KuvaLich/KuvaLarvlingFemaleAgent
/Lotus/Music/KuvaLich/KuvaLichStinger
/Lotus/Music/KuvaLich/KuvaLichThrallStinger
/Lotus/Animations/Tenno/Menu/StandToKneel_anim.fbx
/Lotus/Fx/PowersuitAbilities/Kingpins/FriendlyTeleportSpawn
_T
ConvertToHenchman
SpawnNemesis
OnPasscodeCheck
Start
NemesisHenchmenTest
gRegion
_T
StalkerTargetPlayer
MONITOR_EVENTS
ENEMY_FLEE
ENEMY_KILLED
_T
gNemesis
mission
enemyInfo
gGameRules
Lotus_Game
NE_NEMESIS
NemesisFlee
Engine
DT_ANY
ANY_PART
enemyFleeBehavior
enemyFleeTransmission
ENEMY_BORED
enemyLeaveTransmission
PM_BLOCKING_ANIM
EMPTY_SYMBOL
ATMM_ANIMATION_DRIVEN
PRT_FREEZE
math
gRegion
gRegion
gNpcSpawnPointType
table
gRegion
EMPTY_SYMBOL
Intermediate
Objective
gRegion
NemesisMission.lua -- Failed to spawn Lich henchman, trying CreateAgentNearEntity
/Lotus/Types/Enemies/Grineer/GrineerMarineRifle
ZERO_VECTOR
mRank
gGameRules
mTarget
mManifest
gRegion
math
gGameRules
_T
NemesisAllyIdx
gGameData
mKilled
table
attempted to spawn ally lich but no liches have been converted!
mManifest
gGameRules
UISys
_T
forceSpawnAllyNemesis
forceSpawnNemesis
_T
StalkerTargetPlayer
gRegion
gGameRules
mTarget
mLevel
mAgent
TENNO
mName
Nemesis: spawn (Encounter Type: 
)
Lotus_Game
NE_NEMESIS_ALLY
_T
gNemesis
mission
stalk
isNewEnemy
gGameRules
mTarget
mPlayer
forceSpawnNemesis
forceSpawnHenchmen
_G
ForceSpawnNemesis
firstTime
gFlashMgr
creationMovie
ShowCreation

gRegion
StalkerTargetPlayer
spawnPoint
mLevel
mAgent
Nemesis.lua -- Nemesis got two-framed
Stalk
mRank
NemesisDestroyed
FinisherKill
NemesisConverted
FinisherConvert
RankUp
RankUpMax
Failure
gRegion
mHasActiveNemesis
mKuvaSiphonsUnlocked
gGameRules
faction
Lotus_Game
FC_GRINEER
archwingRequired
NemesisMission: failed to spawn larvling!
/Lotus/Language/Kingpins/KuvaEximusName
cjson
GuessResult
_T
HenchmenTracker
LichKillChoiceMade
gGameRules
activeAvatars
table
vipAgent
spawnCooldown
waitTimer
string
Carrier
gGameData
_T
gNemesis
gGameData
gGameRules
missionType
Lotus_Game
MT_MASTERY
keyChainName
gLotusPhotoBoothGameRulesType
InSimulacrum
string
gMatchingService
NEMESIS_MISSION_TAG
HenchmenTracker
spawnCooldown
activeAvatars
waitTimer
OnAgentSpawnedNemesisCallback
gGameConfig
gRegion
postProcess
fade
gFlashMgr
alertTag
Lich
LichLichLich
LichPal
forceSpawnNemesis
forceSpawnHenchmen
Henchmen
Engine.DeveloperMode
TestHenchmen
TestNemesisAlly
_G
ForceSpawnNemesis
forceSpawnAllyNemesis
NE_NEMESIS_ALLY

cjson
name
mInfluenceNodes
mNode
mHenchmenKilled
chance
henchmenKills
Engine
allyCooldownSeconds
mHints
Spawning Nemesis!
mManifest
UISys
ForceCorrectPasscode
OnPasscodeCheck
NE_NEMESIS
mHintProgress
/Lotus/Language/Game/KuvaMurmur
No active nemesis in account.
_T
forceSpawnAllyNemesis
Lotus_Game
NE_NEMESIS_ALLY
                         
0001                     ** function [0] definition (level 1)
                         ** start of function **
0001  00                 string size (0)
                         source name: (none)
0002  00                 line defined (0)
0003  00                 last line defined (0)
0004  00                 nups (0)
0005  00                 numparams (0)
0006  02                 is_vararg (2)
0007  29                 maxstacksize (41)
                         * code:
0009  01                 sizecode (253)
000A  0B000002           [001] newtable   0   4   0    ; array=4, hash=0
000E  5D000000           [002] getglobal  1   0        ; -895206725
0012  99400000           [003] loadk      2   1        ; "/Lotus/Types/Enemies/Enhancements/Lich/Rank1HenchmenEnhancement"
0016  62800001           [004] call       1   2   2  
001A  9D000000           [005] getglobal  2   0        ; -895206725
001E  D9800000           [006] loadk      3   2        ; "/Lotus/Types/Enemies/Enhancements/Lich/Rank2HenchmenEnhancement"
0022  A2800001           [007] call       2   2   2  
0026  DD000000           [008] getglobal  3   0        ; -895206725
002A  19C10000           [009] loadk      4   3        ; "/Lotus/Types/Enemies/Enhancements/Lich/Rank3HenchmenEnhancement"
002E  E2800001           [010] call       3   2   2  
0032  1D010000           [011] getglobal  4   0        ; -895206725
0036  59010100           [012] loadk      5   4        ; "/Lotus/Types/Enemies/Enhancements/Lich/Rank4HenchmenEnhancement"
003A  22810001           [013] call       4   2   2  
003E  5D010000           [014] getglobal  5   0        ; -895206725
0042  99410100           [015] loadk      6   5        ; "/Lotus/Types/Enemies/Enhancements/Lich/Rank5HenchmenEnhancement"
0046  62010001           [016] call       5   2   0  
004A  1B400000           [017] setlist    0   0   1    ; index 1 to top
004E  4B008005           [018] newtable   1   11  0    ; array=11, hash=0
0052  9D800100           [019] getglobal  2   6        ; 738251817
0056  D9C00100           [020] loadk      3   7        ; "/Lotus/Types/Enemies/Grineer/AIWeek/GrineerRollingDrone"
005A  A2800001           [021] call       2   2   2  
005E  DD800100           [022] getglobal  3   6        ; 738251817
0062  19010200           [023] loadk      4   8        ; "/Lotus/Types/Enemies/Grineer/SpecialEvents/ForestDroneAgent"
0066  E2800001           [024] call       3   2   2  
006A  1D810100           [025] getglobal  4   6        ; 738251817
006E  59410200           [026] loadk      5   9        ; "/Lotus/Types/Enemies/Grineer/SpecialEvents/SurveillanceDroneAgent"
0072  22810001           [027] call       4   2   2  
0076  5D810100           [028] getglobal  5   6        ; 738251817
007A  99810200           [029] loadk      6   10       ; "/Lotus/Types/Enemies/Grineer/AIWeek/CameraDroneAgent"
007E  62810001           [030] call       5   2   2  
0082  9D810100           [031] getglobal  6   6        ; 738251817
0086  D9C10200           [032] loadk      7   11       ; "/Lotus/Types/Enemies/Grineer/AIWeek/CombatKubrowAgent"
008A  A2810001           [033] call       6   2   2  
008E  DD810100           [034] getglobal  7   6        ; 738251817
0092  19020300           [035] loadk      8   12       ; "/Lotus/Types/Enemies/Grineer/AIWeek/CombatCatbrowAgent"
0096  E2810001           [036] call       7   2   2  
009A  1D820100           [037] getglobal  8   6        ; 738251817
009E  59420300           [038] loadk      9   13       ; "/Lotus/Types/Enemies/Grineer/AIWeek/StickyRollingDrone"
00A2  22820001           [039] call       8   2   2  
00A6  5D820100           [040] getglobal  9   6        ; 738251817
00AA  99820300           [041] loadk      10  14       ; "/Lotus/Types/Enemies/Grineer/ChemStrike/ChemStrikeNoxAgent"
00AE  62820001           [042] call       9   2   2  
00B2  9D820100           [043] getglobal  10  6        ; 738251817
00B6  D9C20300           [044] loadk      11  15       ; "/Lotus/Types/Enemies/CaptureTargets/CaptureTargetBaseAgent"
00BA  A2820001           [045] call       10  2   2  
00BE  DD820100           [046] getglobal  11  6        ; 738251817
00C2  19030400           [047] loadk      12  16       ; "/Lotus/Types/Enemies/Corpus/Turrets/SecurityCameraAgent"
00C6  E2820001           [048] call       11  2   2  
00CA  1D830100           [049] getglobal  12  6        ; 738251817
00CE  59430400           [050] loadk      13  17       ; "/Lotus/Types/Enemies/Corpus/Turrets/AutoTurretAgent"
00D2  22830001           [051] call       12  2   2  
00D6  5D830100           [052] getglobal  13  6        ; 738251817
00DA  99830400           [053] loadk      14  18       ; "/Lotus/Types/Enemies/Grineer/GfsSecurityCameraAgent"
00DE  62030001           [054] call       13  2   0  
00E2  5B400000           [055] setlist    1   0   1    ; index 1 to top
00E6  9DC00400           [056] getglobal  2   19       ; 849075268
00EA  D9000500           [057] loadk      3   20       ; "Lotus.Scripts.Libs.EncounterLib"
00EE  A2800001           [058] call       2   2   2  
00F2  DDC00400           [059] getglobal  3   19       ; 849075268
00F6  19410500           [060] loadk      4   21       ; "Lotus.Scripts.Nemesis.NemesisGenerator"
00FA  E2800001           [061] call       3   2   2  
00FE  1DC10400           [062] getglobal  4   19       ; 849075268
0102  59810500           [063] loadk      5   22       ; "Lotus.Interface.LotusUtilities"
0106  22810001           [064] call       4   2   2  
010A  5DC10400           [065] getglobal  5   19       ; 849075268
010E  99C10500           [066] loadk      6   23       ; "Lotus.Interface.LoadoutUtilities"
0112  62810001           [067] call       5   2   2  
0116  9DC10400           [068] getglobal  6   19       ; 849075268
011A  D9010600           [069] loadk      7   24       ; "EE.Interface.Utilities"
011E  A2810001           [070] call       6   2   2  
0122  CB018004           [071] newtable   7   9   0    ; array=9, hash=0
0126  1D420600           [072] getglobal  8   25       ; -332969190
012A  59820600           [073] loadk      9   26       ; "DoNotUse"
012E  22820001           [074] call       8   2   2  
0132  5D420600           [075] getglobal  9   25       ; -332969190
0136  99C20600           [076] loadk      10  27       ; "DroneSpawn"
013A  62820001           [077] call       9   2   2  
013E  9D420600           [078] getglobal  10  25       ; -332969190
0142  D9020700           [079] loadk      11  28       ; "BipedSpecialSpawn"
0146  A2820001           [080] call       10  2   2  
014A  DD420600           [081] getglobal  11  25       ; -332969190
014E  19430700           [082] loadk      12  29       ; "GroupSpawn"
0152  E2820001           [083] call       11  2   2  
0156  1D430600           [084] getglobal  12  25       ; -332969190
015A  59830700           [085] loadk      13  30       ; "TurretSpawn"
015E  22830001           [086] call       12  2   2  
0162  5D430600           [087] getglobal  13  25       ; -332969190
0166  99C30700           [088] loadk      14  31       ; "CameraSpawn"
016A  62830001           [089] call       13  2   2  
016E  9D430600           [090] getglobal  14  25       ; -332969190
0172  D9030800           [091] loadk      15  32       ; "FixedCameraSpawn"
0176  A2830001           [092] call       14  2   2  
017A  DD430600           [093] getglobal  15  25       ; -332969190
017E  19440800           [094] loadk      16  33       ; "dSpawn"
0182  E2830001           [095] call       15  2   2  
0186  1D440600           [096] getglobal  16  25       ; -332969190
018A  59840800           [097] loadk      17  34       ; "hSpawn"
018E  22840001           [098] call       16  2   2  
0192  5D440600           [099] getglobal  17  25       ; -332969190
0196  99C40800           [100] loadk      18  35       ; "DefenseAgentSpawn"
019A  62040001           [101] call       17  2   0  
019E  DB410000           [102] setlist    7   0   1    ; index 1 to top
01A2  19020900           [103] loadk      8   36       ; 0
01A6  59420900           [104] loadk      9   37       ; 0
01AA  8B020001           [105] newtable   10  2   0    ; array=2, hash=0
01AE  D9820900           [106] loadk      11  38       ; 0
01B2  19C30900           [107] loadk      12  39       ; 0
01B6  9B420001           [108] setlist    10  2   1    ; index 1 to 2
01BA  CB020001           [109] newtable   11  2   0    ; array=2, hash=0
01BE  19C30900           [110] loadk      12  39       ; 0
01C2  59030A00           [111] loadk      13  40       ; 0
01C6  DB420001           [112] setlist    11  2   1    ; index 1 to 2
01CA  0B830000           [113] newtable   12  0   2    ; array=0, hash=2
01CE  4B038002           [114] newtable   13  5   0    ; array=5, hash=0
01D2  99830900           [115] loadk      14  38       ; 0
01D6  D9830A00           [116] loadk      15  42       ; 0
01DA  19C40A00           [117] loadk      16  43       ; 0
01DE  59040B00           [118] loadk      17  44       ; 0
01E2  99440B00           [119] loadk      18  45       ; 0
01E6  5B438002           [120] setlist    13  5   1    ; index 1 to 5
01EA  0C438394           [121] settable   12  297 13   ; "henchmenKills"
01EE  4B038002           [122] newtable   13  5   0    ; array=5, hash=0
01F2  99C30B00           [123] loadk      14  47       ; -51
01F6  D9030C00           [124] loadk      15  48       ; -51
01FA  19440C00           [125] loadk      16  49       ; -102
01FE  59840C00           [126] loadk      17  50       ; -51
0202  99C40C00           [127] loadk      18  51       ; -102
0206  5B438002           [128] setlist    13  5   1    ; index 1 to 5
020A  0C430397           [129] settable   12  302 13   ; "chance"
020E  5D430600           [130] getglobal  13  25       ; -332969190
0212  99030D00           [131] loadk      14  52       ; "HenchmenCount"
0216  62830001           [132] call       13  2   2  
021A  9D430600           [133] getglobal  14  25       ; -332969190
021E  D9430D00           [134] loadk      15  53       ; "HenchmenKilled"
0222  A2830001           [135] call       14  2   2  
0226  DD430600           [136] getglobal  15  25       ; -332969190
022A  19840D00           [137] loadk      16  54       ; "NemesisHintProgress"
022E  E2830001           [138] call       15  2   2  
0232  19C40D00           [139] loadk      16  55       ; 0
0236  5D440600           [140] getglobal  17  25       ; -332969190
023A  99040E00           [141] loadk      18  56       ; "Grineer"
023E  62840001           [142] call       17  2   2  
0242  9D840100           [143] getglobal  18  6        ; 738251817
0246  D9440E00           [144] loadk      19  57       ; "/Lotus/Types/Keys/WarWithinQuest/WarWithinQuestKeyChain"
024A  A2840001           [145] call       18  2   2  
024E  CB048000           [146] newtable   19  1   0    ; array=1, hash=0
0252  1D850100           [147] getglobal  20  6        ; 738251817
0256  59850E00           [148] loadk      21  58       ; "/Lotus/Types/Enemies/KuvaLich/KuvaLarvlingAgent"
025A  22850001           [149] call       20  2   2  
025E  5D850100           [150] getglobal  21  6        ; 738251817
0262  99C50E00           [151] loadk      22  59       ; "/Lotus/Types/Enemies/KuvaLich/KuvaLarvlingFemaleAgent"
0266  62050001           [152] call       21  2   0  
026A  DB440000           [153] setlist    19  0   1    ; index 1 to top
026E  1D050F00           [154] getglobal  20  60       ; 2083004503
0272  59450F00           [155] loadk      21  61       ; "/Lotus/Music/KuvaLich/KuvaLichStinger"
0276  22850001           [156] call       20  2   2  
027A  5D050F00           [157] getglobal  21  60       ; 2083004503
027E  99850F00           [158] loadk      22  62       ; "/Lotus/Music/KuvaLich/KuvaLichThrallStinger"
0282  62850001           [159] call       21  2   2  
0286  97050000           [160] loadbool   22  0   0    ; false
028A  D7050000           [161] loadbool   23  0   0    ; false
028E  17060000           [162] loadbool   24  0   0    ; false
0292  4606800C           [163] loadnil    25  25     
0296  9D060F00           [164] getglobal  26  60       ; 2083004503
029A  D9C60F00           [165] loadk      27  63       ; "/Lotus/Animations/Tenno/Menu/StandToKneel_anim.fbx"
029E  A2860001           [166] call       26  2   2  
02A2  DD060000           [167] getglobal  27  0        ; -895206725
02A6  19071000           [168] loadk      28  64       ; "/Lotus/Fx/PowersuitAbilities/Kingpins/FriendlyTeleportSpawn"
02AA  E2860001           [169] call       27  2   2  
02AE  25070000           [170] closure    28  0      
02B2  65470000           [171] closure    29  1      
02B6  12000001           [172] move       0   2      
02BA  1200000E           [173] move       0   28     
02BE  1200800D           [174] move       0   27     
02C2  1200000D           [175] move       0   26     
02C6  A5870000           [176] closure    30  2      
02CA  E5C70000           [177] closure    31  3      
02CE  12008003           [178] move       0   7      
02D2  25080100           [179] closure    32  4      
02D6  1200800F           [180] move       0   31     
02DA  65480100           [181] closure    33  5      
02DE  12000010           [182] move       0   32     
02E2  12008008           [183] move       0   17     
02E6  1200800A           [184] move       0   21     
02EA  12000000           [185] move       0   0      
02EE  9D481000           [186] getglobal  34  65       ; _T
02F2  E5880100           [187] closure    35  6      
02F6  12008010           [188] move       0   33     
02FA  8CC808A1           [189] settable   34  322 35   ; "ConvertToHenchman"
02FE  A5C80100           [190] closure    34  7      
0302  1200000B           [191] move       0   22     
0306  E5080200           [192] closure    35  8      
030A  25490200           [193] closure    36  9      
030E  1200000B           [194] move       0   22     
0312  12008001           [195] move       0   3      
0316  65890200           [196] closure    37  10     
031A  12000012           [197] move       0   36     
031E  12000001           [198] move       0   2      
0322  A5C90200           [199] closure    38  11     
0326  12008012           [200] move       0   37     
032A  1200000C           [201] move       0   24     
032E  1200000F           [202] move       0   30     
0332  12000001           [203] move       0   2      
0336  12008001           [204] move       0   3      
033A  12000010           [205] move       0   32     
033E  12000003           [206] move       0   6      
0342  1200000A           [207] move       0   20     
0346  1200800E           [208] move       0   29     
034A  A0C91000           [209] setglobal  38  67       ; SpawnNemesis
034E  A0091100           [210] setglobal  38  68       ; -759071095
0352  A5090300           [211] closure    38  12     
0356  1200800B           [212] move       0   23     
035A  12008009           [213] move       0   19     
035E  1200000F           [214] move       0   30     
0362  1200800F           [215] move       0   31     
0366  E5490300           [216] closure    39  13     
036A  1200800C           [217] move       0   25     
036E  E0491100           [218] setglobal  39  69       ; OnPasscodeCheck
0372  E0891100           [219] setglobal  39  70       ; 984290395
0376  E5890300           [220] closure    39  14     
037A  12008006           [221] move       0   13     
037E  12008004           [222] move       0   9      
0382  12000007           [223] move       0   14     
0386  12000004           [224] move       0   8      
038A  12008008           [225] move       0   17     
038E  12008000           [226] move       0   1      
0392  12008010           [227] move       0   33     
0396  12000005           [228] move       0   10     
039A  12008005           [229] move       0   11     
039E  25CA0300           [230] closure    40  15     
03A2  12000002           [231] move       0   4      
03A6  12008013           [232] move       0   39     
03AA  1200800B           [233] move       0   23     
03AE  1200000C           [234] move       0   24     
03B2  1200000B           [235] move       0   22     
03B6  12008010           [236] move       0   33     
03BA  12008011           [237] move       0   35     
03BE  12008001           [238] move       0   3      
03C2  12000013           [239] move       0   38     
03C6  12000007           [240] move       0   14     
03CA  12000006           [241] move       0   12     
03CE  12008007           [242] move       0   15     
03D2  1200800C           [243] move       0   25     
03D6  12008002           [244] move       0   5      
03DA  12000011           [245] move       0   34     
03DE  12000008           [246] move       0   16     
03E2  20CA1100           [247] setglobal  40  71       ; Start
03E6  200A1200           [248] setglobal  40  72       ; 1868177976
03EA  250A0400           [249] closure    40  16     
03EE  12008010           [250] move       0   33     
03F2  204A1200           [251] setglobal  40  73       ; NemesisHenchmenTest
03F6  208A1200           [252] setglobal  40  74       ; -1255758251
03FA  1E008000           [253] return     0   1      
                         * constants:
03FE  4B                 sizek (75)
03FF  01                 const type 3
0400  BB3AA4CA           const [0]: (-895206725)
0404  04                 const type 4
0405  40                 string size (64)
0406  2F4C6F7475732F54+  "/Lotus/T"
040E  797065732F456E65+  "ypes/Ene"
0416  6D6965732F456E68+  "mies/Enh"
041E  616E63656D656E74+  "ancement"
0426  732F4C6963682F52+  "s/Lich/R"
042E  616E6B3148656E63+  "ank1Henc"
0436  686D656E456E6861+  "hmenEnha"
043E  6E63656D656E7400   "ncement\0"
                         const [1]: "/Lotus/Types/Enemies/Enhancements/Lich/Rank1HenchmenEnhancement"
0446  04                 const type 4
0447  40                 string size (64)
0448  2F4C6F7475732F54+  "/Lotus/T"
0450  797065732F456E65+  "ypes/Ene"
0458  6D6965732F456E68+  "mies/Enh"
0460  616E63656D656E74+  "ancement"
0468  732F4C6963682F52+  "s/Lich/R"
0470  616E6B3248656E63+  "ank2Henc"
0478  686D656E456E6861+  "hmenEnha"
0480  6E63656D656E7400   "ncement\0"
                         const [2]: "/Lotus/Types/Enemies/Enhancements/Lich/Rank2HenchmenEnhancement"
0488  04                 const type 4
0489  40                 string size (64)
048A  2F4C6F7475732F54+  "/Lotus/T"
0492  797065732F456E65+  "ypes/Ene"
049A  6D6965732F456E68+  "mies/Enh"
04A2  616E63656D656E74+  "ancement"
04AA  732F4C6963682F52+  "s/Lich/R"
04B2  616E6B3348656E63+  "ank3Henc"
04BA  686D656E456E6861+  "hmenEnha"
04C2  6E63656D656E7400   "ncement\0"
                         const [3]: "/Lotus/Types/Enemies/Enhancements/Lich/Rank3HenchmenEnhancement"
04CA  04                 const type 4
04CB  40                 string size (64)
04CC  2F4C6F7475732F54+  "/Lotus/T"
04D4  797065732F456E65+  "ypes/Ene"
04DC  6D6965732F456E68+  "mies/Enh"
04E4  616E63656D656E74+  "ancement"
04EC  732F4C6963682F52+  "s/Lich/R"
04F4  616E6B3448656E63+  "ank4Henc"
04FC  686D656E456E6861+  "hmenEnha"
0504  6E63656D656E7400   "ncement\0"
                         const [4]: "/Lotus/Types/Enemies/Enhancements/Lich/Rank4HenchmenEnhancement"
050C  04                 const type 4
050D  40                 string size (64)
050E  2F4C6F7475732F54+  "/Lotus/T"
0516  797065732F456E65+  "ypes/Ene"
051E  6D6965732F456E68+  "mies/Enh"
0526  616E63656D656E74+  "ancement"
052E  732F4C6963682F52+  "s/Lich/R"
0536  616E6B3548656E63+  "ank5Henc"
053E  686D656E456E6861+  "hmenEnha"
0546  6E63656D656E7400   "ncement\0"
                         const [5]: "/Lotus/Types/Enemies/Enhancements/Lich/Rank5HenchmenEnhancement"
054E  01                 const type 3
054F  29D4002C           const [6]: (738251817)
0553  04                 const type 4
0554  38                 string size (56)
0555  2F4C6F7475732F54+  "/Lotus/T"
055D  797065732F456E65+  "ypes/Ene"
0565  6D6965732F477269+  "mies/Gri"
056D  6E6565722F414957+  "neer/AIW"
0575  65656B2F4772696E+  "eek/Grin"
057D  656572526F6C6C69+  "eerRolli"
0585  6E6744726F6E6500   "ngDrone\0"
                         const [7]: "/Lotus/Types/Enemies/Grineer/AIWeek/GrineerRollingDrone"
058D  04                 const type 4
058E  3C                 string size (60)
058F  2F4C6F7475732F54+  "/Lotus/T"
0597  797065732F456E65+  "ypes/Ene"
059F  6D6965732F477269+  "mies/Gri"
05A7  6E6565722F537065+  "neer/Spe"
05AF  6369616C4576656E+  "cialEven"
05B7  74732F466F726573+  "ts/Fores"
05BF  7444726F6E654167+  "tDroneAg"
05C7  656E7400           "ent\0"
                         const [8]: "/Lotus/Types/Enemies/Grineer/SpecialEvents/ForestDroneAgent"
05CB  04                 const type 4
05CC  42                 string size (66)
05CD  2F4C6F7475732F54+  "/Lotus/T"
05D5  797065732F456E65+  "ypes/Ene"
05DD  6D6965732F477269+  "mies/Gri"
05E5  6E6565722F537065+  "neer/Spe"
05ED  6369616C4576656E+  "cialEven"
05F5  74732F5375727665+  "ts/Surve"
05FD  696C6C616E636544+  "illanceD"
0605  726F6E654167656E+  "roneAgen"
060D  7400               "t\0"
                         const [9]: "/Lotus/Types/Enemies/Grineer/SpecialEvents/SurveillanceDroneAgent"
060F  04                 const type 4
0610  35                 string size (53)
0611  2F4C6F7475732F54+  "/Lotus/T"
0619  797065732F456E65+  "ypes/Ene"
0621  6D6965732F477269+  "mies/Gri"
0629  6E6565722F414957+  "neer/AIW"
0631  65656B2F43616D65+  "eek/Came"
0639  726144726F6E6541+  "raDroneA"
0641  67656E7400         "gent\0"
                         const [10]: "/Lotus/Types/Enemies/Grineer/AIWeek/CameraDroneAgent"
0646  04                 const type 4
0647  36                 string size (54)
0648  2F4C6F7475732F54+  "/Lotus/T"
0650  797065732F456E65+  "ypes/Ene"
0658  6D6965732F477269+  "mies/Gri"
0660  6E6565722F414957+  "neer/AIW"
0668  65656B2F436F6D62+  "eek/Comb"
0670  61744B7562726F77+  "atKubrow"
0678  4167656E7400       "Agent\0"
                         const [11]: "/Lotus/Types/Enemies/Grineer/AIWeek/CombatKubrowAgent"
067E  04                 const type 4
067F  37                 string size (55)
0680  2F4C6F7475732F54+  "/Lotus/T"
0688  797065732F456E65+  "ypes/Ene"
0690  6D6965732F477269+  "mies/Gri"
0698  6E6565722F414957+  "neer/AIW"
06A0  65656B2F436F6D62+  "eek/Comb"
06A8  617443617462726F+  "atCatbro"
06B0  774167656E7400     "wAgent\0"
                         const [12]: "/Lotus/Types/Enemies/Grineer/AIWeek/CombatCatbrowAgent"
06B7  04                 const type 4
06B8  37                 string size (55)
06B9  2F4C6F7475732F54+  "/Lotus/T"
06C1  797065732F456E65+  "ypes/Ene"
06C9  6D6965732F477269+  "mies/Gri"
06D1  6E6565722F414957+  "neer/AIW"
06D9  65656B2F53746963+  "eek/Stic"
06E1  6B79526F6C6C696E+  "kyRollin"
06E9  6744726F6E6500     "gDrone\0"
                         const [13]: "/Lotus/Types/Enemies/Grineer/AIWeek/StickyRollingDrone"
06F0  04                 const type 4
06F1  3B                 string size (59)
06F2  2F4C6F7475732F54+  "/Lotus/T"
06FA  797065732F456E65+  "ypes/Ene"
0702  6D6965732F477269+  "mies/Gri"
070A  6E6565722F436865+  "neer/Che"
0712  6D537472696B652F+  "mStrike/"
071A  4368656D53747269+  "ChemStri"
0722  6B654E6F78416765+  "keNoxAge"
072A  6E7400             "nt\0"
                         const [14]: "/Lotus/Types/Enemies/Grineer/ChemStrike/ChemStrikeNoxAgent"
072D  04                 const type 4
072E  3B                 string size (59)
072F  2F4C6F7475732F54+  "/Lotus/T"
0737  797065732F456E65+  "ypes/Ene"
073F  6D6965732F436170+  "mies/Cap"
0747  7475726554617267+  "tureTarg"
074F  6574732F43617074+  "ets/Capt"
0757  7572655461726765+  "ureTarge"
075F  7442617365416765+  "tBaseAge"
0767  6E7400             "nt\0"
                         const [15]: "/Lotus/Types/Enemies/CaptureTargets/CaptureTargetBaseAgent"
076A  04                 const type 4
076B  38                 string size (56)
076C  2F4C6F7475732F54+  "/Lotus/T"
0774  797065732F456E65+  "ypes/Ene"
077C  6D6965732F436F72+  "mies/Cor"
0784  7075732F54757272+  "pus/Turr"
078C  6574732F53656375+  "ets/Secu"
0794  7269747943616D65+  "rityCame"
079C  72614167656E7400   "raAgent\0"
                         const [16]: "/Lotus/Types/Enemies/Corpus/Turrets/SecurityCameraAgent"
07A4  04                 const type 4
07A5  34                 string size (52)
07A6  2F4C6F7475732F54+  "/Lotus/T"
07AE  797065732F456E65+  "ypes/Ene"
07B6  6D6965732F436F72+  "mies/Cor"
07BE  7075732F54757272+  "pus/Turr"
07C6  6574732F4175746F+  "ets/Auto"
07CE  5475727265744167+  "TurretAg"
07D6  656E7400           "ent\0"
                         const [17]: "/Lotus/Types/Enemies/Corpus/Turrets/AutoTurretAgent"
07DA  04                 const type 4
07DB  34                 string size (52)
07DC  2F4C6F7475732F54+  "/Lotus/T"
07E4  797065732F456E65+  "ypes/Ene"
07EC  6D6965732F477269+  "mies/Gri"
07F4  6E6565722F476673+  "neer/Gfs"
07FC  5365637572697479+  "Security"
0804  43616D6572614167+  "CameraAg"
080C  656E7400           "ent\0"
                         const [18]: "/Lotus/Types/Enemies/Grineer/GfsSecurityCameraAgent"
0810  01                 const type 3
0811  44DC9B32           const [19]: (849075268)
0815  04                 const type 4
0816  20                 string size (32)
0817  4C6F7475732E5363+  "Lotus.Sc"
081F  72697074732E4C69+  "ripts.Li"
0827  62732E456E636F75+  "bs.Encou"
082F  6E7465724C696200   "nterLib\0"
                         const [20]: "Lotus.Scripts.Libs.EncounterLib"
0837  04                 const type 4
0838  27                 string size (39)
0839  4C6F7475732E5363+  "Lotus.Sc"
0841  72697074732E4E65+  "ripts.Ne"
0849  6D657369732E4E65+  "mesis.Ne"
0851  6D6573697347656E+  "mesisGen"
0859  657261746F7200     "erator\0"
                         const [21]: "Lotus.Scripts.Nemesis.NemesisGenerator"
0860  04                 const type 4
0861  1F                 string size (31)
0862  4C6F7475732E496E+  "Lotus.In"
086A  746572666163652E+  "terface."
0872  4C6F747573557469+  "LotusUti"
087A  6C697469657300     "lities\0"
                         const [22]: "Lotus.Interface.LotusUtilities"
0881  04                 const type 4
0882  21                 string size (33)
0883  4C6F7475732E496E+  "Lotus.In"
088B  746572666163652E+  "terface."
0893  4C6F61646F757455+  "LoadoutU"
089B  74696C6974696573+  "tilities"
08A3  00                 "\0"
                         const [23]: "Lotus.Interface.LoadoutUtilities"
08A4  04                 const type 4
08A5  17                 string size (23)
08A6  45452E496E746572+  "EE.Inter"
08AE  666163652E557469+  "face.Uti"
08B6  6C697469657300     "lities\0"
                         const [24]: "EE.Interface.Utilities"
08BD  01                 const type 3
08BE  1A4B27EC           const [25]: (-332969190)
08C2  04                 const type 4
08C3  09                 string size (9)
08C4  446F4E6F74557365+  "DoNotUse"
08CC  00                 "\0"
                         const [26]: "DoNotUse"
08CD  04                 const type 4
08CE  0B                 string size (11)
08CF  44726F6E65537061+  "DroneSpa"
08D7  776E00             "wn\0"
                         const [27]: "DroneSpawn"
08DA  04                 const type 4
08DB  12                 string size (18)
08DC  4269706564537065+  "BipedSpe"
08E4  6369616C53706177+  "cialSpaw"
08EC  6E00               "n\0"
                         const [28]: "BipedSpecialSpawn"
08EE  04                 const type 4
08EF  0B                 string size (11)
08F0  47726F7570537061+  "GroupSpa"
08F8  776E00             "wn\0"
                         const [29]: "GroupSpawn"
08FB  04                 const type 4
08FC  0C                 string size (12)
08FD  5475727265745370+  "TurretSp"
0905  61776E00           "awn\0"
                         const [30]: "TurretSpawn"
0909  04                 const type 4
090A  0C                 string size (12)
090B  43616D6572615370+  "CameraSp"
0913  61776E00           "awn\0"
                         const [31]: "CameraSpawn"
0917  04                 const type 4
0918  11                 string size (17)
0919  466978656443616D+  "FixedCam"
0921  657261537061776E+  "eraSpawn"
0929  00                 "\0"
                         const [32]: "FixedCameraSpawn"
092A  04                 const type 4
092B  07                 string size (7)
092C  64537061776E00     "dSpawn\0"
                         const [33]: "dSpawn"
0933  04                 const type 4
0934  07                 string size (7)
0935  68537061776E00     "hSpawn\0"
                         const [34]: "hSpawn"
093C  04                 const type 4
093D  12                 string size (18)
093E  446566656E736541+  "DefenseA"
0946  67656E7453706177+  "gentSpaw"
094E  6E00               "n\0"
                         const [35]: "DefenseAgentSpawn"
0950  03                 const type 3
0951  00000040           const [36]: (0)
0955  03                 const type 3
0956  00002041           const [37]: (0)
095A  03                 const type 3
095B  00004041           const [38]: (0)
095F  03                 const type 3
0960  0000A041           const [39]: (0)
0964  03                 const type 3
0965  0000F041           const [40]: (0)
0969  04                 const type 4
096A  0E                 string size (14)
096B  68656E63686D656E+  "henchmen"
0973  4B696C6C7300       "Kills\0"
                         const [41]: "henchmenKills"
0979  03                 const type 3
097A  0000C041           const [42]: (0)
097E  03                 const type 3
097F  00001042           const [43]: (0)
0983  03                 const type 3
0984  00004042           const [44]: (0)
0988  03                 const type 3
0989  00007042           const [45]: (0)
098D  04                 const type 4
098E  07                 string size (7)
098F  6368616E636500     "chance\0"
                         const [46]: "chance"
0996  03                 const type 3
0997  CDCC4C3D           const [47]: (-51)
099B  03                 const type 3
099C  CDCCCC3D           const [48]: (-51)
09A0  03                 const type 3
09A1  9A99193E           const [49]: (-102)
09A5  03                 const type 3
09A6  CDCC4C3E           const [50]: (-51)
09AA  03                 const type 3
09AB  9A99993E           const [51]: (-102)
09AF  04                 const type 4
09B0  0E                 string size (14)
09B1  48656E63686D656E+  "Henchmen"
09B9  436F756E7400       "Count\0"
                         const [52]: "HenchmenCount"
09BF  04                 const type 4
09C0  0F                 string size (15)
09C1  48656E63686D656E+  "Henchmen"
09C9  4B696C6C656400     "Killed\0"
                         const [53]: "HenchmenKilled"
09D0  04                 const type 4
09D1  14                 string size (20)
09D2  4E656D6573697348+  "NemesisH"
09DA  696E7450726F6772+  "intProgr"
09E2  65737300           "ess\0"
                         const [54]: "NemesisHintProgress"
09E6  03                 const type 3
09E7  00000000           const [55]: (0)
09EB  04                 const type 4
09EC  08                 string size (8)
09ED  4772696E65657200   "Grineer\0"
                         const [56]: "Grineer"
09F5  04                 const type 4
09F6  38                 string size (56)
09F7  2F4C6F7475732F54+  "/Lotus/T"
09FF  797065732F4B6579+  "ypes/Key"
0A07  732F576172576974+  "s/WarWit"
0A0F  68696E5175657374+  "hinQuest"
0A17  2F57617257697468+  "/WarWith"
0A1F  696E51756573744B+  "inQuestK"
0A27  6579436861696E00   "eyChain\0"
                         const [57]: "/Lotus/Types/Keys/WarWithinQuest/WarWithinQuestKeyChain"
0A2F  04                 const type 4
0A30  30                 string size (48)
0A31  2F4C6F7475732F54+  "/Lotus/T"
0A39  797065732F456E65+  "ypes/Ene"
0A41  6D6965732F4B7576+  "mies/Kuv"
0A49  614C6963682F4B75+  "aLich/Ku"
0A51  76614C6172766C69+  "vaLarvli"
0A59  6E674167656E7400   "ngAgent\0"
                         const [58]: "/Lotus/Types/Enemies/KuvaLich/KuvaLarvlingAgent"
0A61  04                 const type 4
0A62  36                 string size (54)
0A63  2F4C6F7475732F54+  "/Lotus/T"
0A6B  797065732F456E65+  "ypes/Ene"
0A73  6D6965732F4B7576+  "mies/Kuv"
0A7B  614C6963682F4B75+  "aLich/Ku"
0A83  76614C6172766C69+  "vaLarvli"
0A8B  6E6746656D616C65+  "ngFemale"
0A93  4167656E7400       "Agent\0"
                         const [59]: "/Lotus/Types/Enemies/KuvaLich/KuvaLarvlingFemaleAgent"
0A99  01                 const type 3
0A9A  5720287C           const [60]: (2083004503)
0A9E  04                 const type 4
0A9F  26                 string size (38)
0AA0  2F4C6F7475732F4D+  "/Lotus/M"
0AA8  757369632F4B7576+  "usic/Kuv"
0AB0  614C6963682F4B75+  "aLich/Ku"
0AB8  76614C6963685374+  "vaLichSt"
0AC0  696E67657200       "inger\0"
                         const [61]: "/Lotus/Music/KuvaLich/KuvaLichStinger"
0AC6  04                 const type 4
0AC7  2C                 string size (44)
0AC8  2F4C6F7475732F4D+  "/Lotus/M"
0AD0  757369632F4B7576+  "usic/Kuv"
0AD8  614C6963682F4B75+  "aLich/Ku"
0AE0  76614C6963685468+  "vaLichTh"
0AE8  72616C6C5374696E+  "rallStin"
0AF0  67657200           "ger\0"
                         const [62]: "/Lotus/Music/KuvaLich/KuvaLichThrallStinger"
0AF4  04                 const type 4
0AF5  33                 string size (51)
0AF6  2F4C6F7475732F41+  "/Lotus/A"
0AFE  6E696D6174696F6E+  "nimation"
0B06  732F54656E6E6F2F+  "s/Tenno/"
0B0E  4D656E752F537461+  "Menu/Sta"
0B16  6E64546F4B6E6565+  "ndToKnee"
0B1E  6C5F616E696D2E66+  "l_anim.f"
0B26  627800             "bx\0"
                         const [63]: "/Lotus/Animations/Tenno/Menu/StandToKneel_anim.fbx"
0B29  04                 const type 4
0B2A  3C                 string size (60)
0B2B  2F4C6F7475732F46+  "/Lotus/F"
0B33  782F506F77657273+  "x/Powers"
0B3B  7569744162696C69+  "uitAbili"
0B43  746965732F4B696E+  "ties/Kin"
0B4B  6770696E732F4672+  "gpins/Fr"
0B53  69656E646C795465+  "iendlyTe"
0B5B  6C65706F72745370+  "leportSp"
0B63  61776E00           "awn\0"
                         const [64]: "/Lotus/Fx/PowersuitAbilities/Kingpins/FriendlyTeleportSpawn"
0B67  04                 const type 4
0B68  03                 string size (3)
0B69  5F5400             "_T\0"
                         const [65]: "_T"
0B6C  04                 const type 4
0B6D  12                 string size (18)
0B6E  436F6E7665727454+  "ConvertT"
0B76  6F48656E63686D61+  "oHenchma"
0B7E  6E00               "n\0"
                         const [66]: "ConvertToHenchman"
0B80  04                 const type 4
0B81  0D                 string size (13)
0B82  537061776E4E656D+  "SpawnNem"
0B8A  6573697300         "esis\0"
                         const [67]: "SpawnNemesis"
0B8F  01                 const type 3
0B90  897EC1D2           const [68]: (-759071095)
0B94  04                 const type 4
0B95  10                 string size (16)
0B96  4F6E50617373636F+  "OnPassco"
0B9E  6465436865636B00   "deCheck\0"
                         const [69]: "OnPasscodeCheck"
0BA6  01                 const type 3
0BA7  5B14AB3A           const [70]: (984290395)
0BAB  04                 const type 4
0BAC  06                 string size (6)
0BAD  537461727400       "Start\0"
                         const [71]: "Start"
0BB3  01                 const type 3
0BB4  38225A6F           const [72]: (1868177976)
0BB8  04                 const type 4
0BB9  14                 string size (20)
0BBA  4E656D6573697348+  "NemesisH"
0BC2  656E63686D656E54+  "enchmenT"
0BCA  65737400           "est\0"
                         const [73]: "NemesisHenchmenTest"
0BCE  01                 const type 3
0BCF  55A626B5           const [74]: (-1255758251)
                         * functions:
0BD3  11                 sizep (17)
                         
0BD4                     ** function [0] definition (level 2)
                         ** start of function **
0BD4  00                 string size (0)
                         source name: (none)
0BD5  4B                 line defined (75)
0BD6  58                 last line defined (88)
0BD7  00                 nups (0)
0BD8  02                 numparams (2)
0BD9  00                 is_vararg (0)
0BDA  0A                 maxstacksize (10)
                         * code:
0BDB  28                 sizecode (40)
0BDC  58000000           [01] test       1       0    ; to [3] if true
0BE0  1A400580           [02] jmp        22           ; to [25]
0BE4  9D000000           [03] getglobal  2   0        ; gRegion
0BE8  A4404001           [04] self       2   2   257  ; 1224466847
0BEC  A2800001           [05] call       2   2   2  
0BF0  D9800000           [06] loadk      3   2        ; 0
0BF4  0A010001           [07] len        4   2      
0BF8  59810000           [08] loadk      5   2        ; 0
0BFC  D0000380           [09] forprep    3   13       ; to [23]
0C00  DDC10000           [10] getglobal  7   3        ; 1074689893
0C04  0E820101           [11] gettable   8   2   6  
0C08  24024104           [12] self       8   8   260  ; -2135866365
0C0C  22020001           [13] call       8   2   0  
0C10  E2810000           [14] call       7   0   2  
0C14  D8410000           [15] test       7       1    ; to [17] if false
0C18  1A400180           [16] jmp        6            ; to [23]
0C1C  CE810101           [17] gettable   7   2   6  
0C20  E401C103           [18] self       7   7   260  ; -2135866365
0C24  E2810001           [19] call       7   2   2  
0C28  E441C103           [20] self       7   7   261  ; 145557915
0C2C  52020000           [21] move       9   0      
0C30  E2418001           [22] call       7   3   1  
0C34  D440FC7F           [23] forloop    3   -14      ; to [10] if loop
0C38  1A800380           [24] jmp        15           ; to [40]
0C3C  DDC10000           [25] getglobal  7   3        ; 1074689893
0C40  1D820100           [26] getglobal  8   6        ; _T
0C44  0EC24104           [27] gettable   8   8   263  ; "StalkerTargetPlayer"
0C48  24024104           [28] self       8   8   260  ; -2135866365
0C4C  22020001           [29] call       8   2   0  
0C50  E2810000           [30] call       7   0   2  
0C54  D8410000           [31] test       7       1    ; to [33] if false
0C58  1A800180           [32] jmp        7            ; to [40]
0C5C  DD810100           [33] getglobal  7   6        ; _T
0C60  CEC1C103           [34] gettable   7   7   263  ; "StalkerTargetPlayer"
0C64  E401C103           [35] self       7   7   260  ; -2135866365
0C68  E2810001           [36] call       7   2   2  
0C6C  E441C103           [37] self       7   7   261  ; 145557915
0C70  52020000           [38] move       9   0      
0C74  E2418001           [39] call       7   3   1  
0C78  1E008000           [40] return     0   1      
                         * constants:
0C7C  08                 sizek (8)
0C7D  04                 const type 4
0C7E  08                 string size (8)
0C7F  67526567696F6E00   "gRegion\0"
                         const [0]: "gRegion"
0C87  01                 const type 3
0C88  9FE1FB48           const [1]: (1224466847)
0C8C  03                 const type 3
0C8D  0000803F           const [2]: (0)
0C91  01                 const type 3
0C92  65770E40           const [3]: (1074689893)
0C96  01                 const type 3
0C97  0344B180           const [4]: (-2135866365)
0C9B  01                 const type 3
0C9C  9B09AD08           const [5]: (145557915)
0CA0  04                 const type 4
0CA1  03                 string size (3)
0CA2  5F5400             "_T\0"
                         const [6]: "_T"
0CA5  04                 const type 4
0CA6  14                 string size (20)
0CA7  5374616C6B657254+  "StalkerT"
0CAF  6172676574506C61+  "argetPla"
0CB7  79657200           "yer\0"
                         const [7]: "StalkerTargetPlayer"
                         * functions:
0CBB  00                 sizep (0)
                         * lines:
0CBC  28                 sizelineinfo (40)
                         [pc] (line)
0CBD  4C                 [01] (76)
0CBE  00                 [02] (76)
0CBF  00                 [03] (77)
0CC0  00                 [04] (77)
0CC1  4C                 [05] (77)
0CC2  00                 [06] (78)
0CC3  00                 [07] (78)
0CC4  00                 [08] (78)
0CC5  4D                 [09] (78)
0CC6  00                 [10] (79)
0CC7  00                 [11] (79)
0CC8  00                 [12] (79)
0CC9  4D                 [13] (79)
0CCA  00                 [14] (79)
0CCB  00                 [15] (79)
0CCC  00                 [16] (79)
0CCD  4D                 [17] (80)
0CCE  00                 [18] (80)
0CCF  00                 [19] (80)
0CD0  00                 [20] (80)
0CD1  4E                 [21] (80)
0CD2  00                 [22] (80)
0CD3  00                 [23] (78)
0CD4  00                 [24] (82)
0CD5  4E                 [25] (84)
0CD6  00                 [26] (84)
0CD7  00                 [27] (84)
0CD8  00                 [28] (84)
0CD9  4E                 [29] (84)
0CDA  00                 [30] (84)
0CDB  00                 [31] (84)
0CDC  00                 [32] (84)
0CDD  4E                 [33] (85)
0CDE  00                 [34] (85)
0CDF  00                 [35] (85)
0CE0  00                 [36] (85)
0CE1  4F                 [37] (85)
0CE2  00                 [38] (85)
0CE3  00                 [39] (85)
0CE4  00                 [40] (88)
                         * locals:
0D5D  00                 sizelocvars (0)
                         * upvalues:
0D5E  00                 sizeupvalues (0)
                         ** end of function **

                         
0D5F                     ** function [1] definition (level 2)
                         ** start of function **
0D5F  00                 string size (0)
                         source name: (none)
0D60  5A                 line defined (90)
0D61  C7                 last line defined (199)
0D62  01                 nups (4)
0D63  04                 numparams (2)
0D64  02                 is_vararg (0)
0D65  00                 maxstacksize (14)
                         * code:
0D68  01                 sizecode (203)
0D69  93000000           [001] getupval   2   0      
0D6D  8E004001           [002] gettable   2   2   256  ; 1431962927
0D71  A2408000           [003] call       2   1   1  
0D75  9D400000           [004] getglobal  2   1        ; 1074689893
0D79  D2000000           [005] move       3   0      
0D7D  A2800001           [006] call       2   2   2  
0D81  98000000           [007] test       2       0    ; to [9] if true
0D85  1A000080           [008] jmp        1            ; to [10]
0D89  1E008000           [009] return     0   1      
0D8D  A4804000           [010] self       2   0   258  ; -2135866365
0D91  A2800001           [011] call       2   2   2  
0D95  DD400000           [012] getglobal  3   1        ; 1074689893
0D99  12010001           [013] move       4   2      
0D9D  E2800001           [014] call       3   2   2  
0DA1  D8000000           [015] test       3       0    ; to [17] if true
0DA5  1A000080           [016] jmp        1            ; to [18]
0DA9  1E008000           [017] return     0   1      
0DAD  D3000000           [018] getupval   3   0      
0DB1  CEC0C001           [019] gettable   3   3   259  ; "MONITOR_EVENTS"
0DB5  CE00C101           [020] gettable   3   3   260  ; "ENEMY_FLEE"
fail op	35
0DB9  63C08000           [021] close      1  
0DBD  1A400180           [022] jmp        6            ; to [29]
0DC1  D3000000           [023] getupval   3   0      
0DC5  CEC0C001           [024] gettable   3   3   259  ; "MONITOR_EVENTS"
0DC9  CE40C101           [025] gettable   3   3   261  ; "ENEMY_KILLED"
fail op	35
0DCD  63C08000           [026] close      1  
0DD1  1A000080           [027] jmp        1            ; to [29]
0DD5  D7400000           [028] loadbool   3   0   1    ; false, to [30]
0DD9  D7008000           [029] loadbool   3   1   0    ; true
0DDD  1D810100           [030] getglobal  4   6        ; _T
0DE1  0EC14102           [031] gettable   4   4   263  ; "gNemesis"
0DE5  0E014202           [032] gettable   4   4   264  ; "mission"
0DE9  0E414202           [033] gettable   4   4   265  ; "enemyInfo"
0DED  5D810200           [034] getglobal  5   10       ; gGameRules
0DF1  64C1C202           [035] self       5   5   267  ; 440196053
0DF5  DD010300           [036] getglobal  7   12       ; Lotus_Game
0DF9  CE41C303           [037] gettable   7   7   269  ; "NE_NEMESIS"
0DFD  62418001           [038] call       5   3   1  
0E01  64814301           [039] self       5   2   270  ; -1917464545
0E05  62810001           [040] call       5   2   2  
0E09  9D410000           [041] getglobal  6   1        ; 1074689893
0E0D  D2018002           [042] move       7   5      
0E11  A2810001           [043] call       6   2   2  
0E15  98410000           [044] test       6       1    ; to [46] if false
0E19  1A000280           [045] jmp        9            ; to [55]
0E1D  A4C1C302           [046] self       6   5   271  ; 1769516121
0E21  A2810001           [047] call       6   2   2  
0E25  DD410000           [048] getglobal  7   1        ; 1074689893
0E29  12020003           [049] move       8   6      
0E2D  E2810001           [050] call       7   2   2  
0E31  D8410000           [051] test       7       1    ; to [53] if false
0E35  1A400080           [052] jmp        2            ; to [55]
0E39  E4014403           [053] self       7   6   272  ; 2109494018
0E3D  E2410001           [054] call       7   2   1  
0E41  E4414401           [055] self       7   2   273  ; -1544157541
0E45  E2810001           [056] call       7   2   2  
0E49  E481C403           [057] self       7   7   274  ; -1844106636
0E4D  5DC20400           [058] getglobal  9   19       ; -332969190
0E51  99020500           [059] loadk      10  20       ; "NemesisFlee"
0E55  62820001           [060] call       9   2   2  
0E59  9D420500           [061] getglobal  10  21       ; Engine
0E5D  8E824505           [062] gettable   10  10  278  ; "DT_ANY"
0E61  DD420500           [063] getglobal  11  21       ; Engine
0E65  CEC2C505           [064] gettable   11  11  279  ; "ANY_PART"
0E69  19030600           [065] loadk      12  24       ; 0
0E6D  E2410003           [066] call       7   6   1  
0E71  E4414600           [067] self       7   0   281  ; -1187710491
0E75  57020000           [068] loadbool   9   0   0    ; false
0E79  E2418001           [069] call       7   3   1  
0E7D  E4814600           [070] self       7   0   282  ; 1594371397
0E81  57020000           [071] loadbool   9   0   0    ; false
0E85  E2418001           [072] call       7   3   1  
0E89  E4C14600           [073] self       7   0   283  ; -2010255519
0E8D  57020000           [074] loadbool   9   0   0    ; false
0E91  E2418001           [075] call       7   3   1  
0E95  E4014700           [076] self       7   0   284  ; 265918238
0E99  57020000           [077] loadbool   9   0   0    ; false
0E9D  99020600           [078] loadk      10  24       ; 0
0EA1  E2410002           [079] call       7   4   1  
0EA5  E4414700           [080] self       7   0   285  ; 1740880848
0EA9  5D820700           [081] getglobal  9   30       ; 2083004503
0EAD  9DC20700           [082] getglobal  10  31       ; enemyFleeBehavior
0EB1  62820001           [083] call       9   2   2  
0EB5  97020000           [084] loadbool   10  0   0    ; false
0EB9  E2410002           [085] call       7   4   1  
0EBD  DD010800           [086] getglobal  7   32       ; 538022378
0EC1  19420800           [087] loadk      8   33       ; 0
0EC5  E2410001           [088] call       7   2   1  
0EC9  D8000000           [089] test       3       0    ; to [91] if true
0ECD  1A400280           [090] jmp        10           ; to [101]
0ED1  DD410000           [091] getglobal  7   1        ; 1074689893
0ED5  1D820800           [092] getglobal  8   34       ; enemyFleeTransmission
0ED9  E2810001           [093] call       7   2   2  
0EDD  D8410000           [094] test       7       1    ; to [96] if false
0EE1  1A000180           [095] jmp        5            ; to [101]
0EE5  D3018000           [096] getupval   7   1      
0EE9  1D820800           [097] getglobal  8   34       ; enemyFleeTransmission
0EED  57028000           [098] loadbool   9   1   0    ; true
0EF1  E2418001           [099] call       7   3   1  
0EF5  1A400380           [100] jmp        14           ; to [115]
0EF9  D3010000           [101] getupval   7   0      
0EFD  CEC1C003           [102] gettable   7   7   259  ; "MONITOR_EVENTS"
0F01  CEC1C803           [103] gettable   7   7   291  ; "ENEMY_BORED"
fail op	35
0F05  23C08100           [104] close      0  
0F09  1A000280           [105] jmp        9            ; to [115]
0F0D  DD410000           [106] getglobal  7   1        ; 1074689893
0F11  1D020900           [107] getglobal  8   36       ; enemyLeaveTransmission
0F15  E2810001           [108] call       7   2   2  
0F19  D8410000           [109] test       7       1    ; to [111] if false
0F1D  1AC00080           [110] jmp        4            ; to [115]
0F21  D3018000           [111] getupval   7   1      
0F25  1D020900           [112] getglobal  8   36       ; enemyLeaveTransmission
0F29  57028000           [113] loadbool   9   1   0    ; true
0F2D  E2418001           [114] call       7   3   1  
0F31  DD010800           [115] getglobal  7   32       ; 538022378
0F35  19420800           [116] loadk      8   33       ; 0
0F39  E2410001           [117] call       7   2   1  
0F3D  DD410000           [118] getglobal  7   1        ; 1074689893
0F41  12020000           [119] move       8   0      
0F45  E2810001           [120] call       7   2   2  
0F49  D8410000           [121] test       7       1    ; to [123] if false
0F4D  1AC01380           [122] jmp        80           ; to [203]
0F51  DD410000           [123] getglobal  7   1        ; 1074689893
0F55  12020001           [124] move       8   2      
0F59  E2810001           [125] call       7   2   2  
0F5D  D8410000           [126] test       7       1    ; to [128] if false
0F61  1A801280           [127] jmp        75           ; to [203]
0F65  D8000000           [128] test       3       0    ; to [130] if true
0F69  1A000180           [129] jmp        5            ; to [135]
0F6D  E4814301           [130] self       7   2   270  ; -1917464545
0F71  E2810001           [131] call       7   2   2  
0F75  E441C903           [132] self       7   7   293  ; -306683006
0F79  E2410001           [133] call       7   2   1  
0F7D  1A000F80           [134] jmp        61           ; to [196]
0F81  DD410000           [135] getglobal  7   1        ; 1074689893
0F85  12020001           [136] move       8   2      
0F89  E2810001           [137] call       7   2   2  
0F8D  D8410000           [138] test       7       1    ; to [140] if false
0F91  1A400280           [139] jmp        10           ; to [150]
0F95  E4814901           [140] self       7   2   294  ; -214694299
0F99  5D420500           [141] getglobal  9   21       ; Engine
0F9D  4EC2C904           [142] gettable   9   9   295  ; "PM_BLOCKING_ANIM"
0FA1  E2818001           [143] call       7   3   2  
0FA5  D8010000           [144] test       7       0    ; to [146] if true
0FA9  1AC00080           [145] jmp        4            ; to [150]
0FAD  DD010800           [146] getglobal  7   32       ; 538022378
0FB1  19020600           [147] loadk      8   24       ; 0
0FB5  E2410001           [148] call       7   2   1  
0FB9  1A00FC7F           [149] jmp        -15          ; to [135]
0FBD  DD410000           [150] getglobal  7   1        ; 1074689893
0FC1  12020001           [151] move       8   2      
0FC5  E2810001           [152] call       7   2   2  
0FC9  D8410000           [153] test       7       1    ; to [155] if false
0FCD  1A000A80           [154] jmp        41           ; to [196]
0FD1  E4014A01           [155] self       7   2   296  ; -1421644046
0FD5  53020001           [156] getupval   9   2      
0FD9  9D420A00           [157] getglobal  10  41       ; EMPTY_SYMBOL
0FDD  E2410002           [158] call       7   4   1  
0FE1  E4814A01           [159] self       7   2   298  ; 2056776437
0FE5  53028001           [160] getupval   9   3      
0FE9  97020000           [161] loadbool   10  0   0    ; false
0FED  DD420500           [162] getglobal  11  21       ; Engine
0FF1  CEC2CA05           [163] gettable   11  11  299  ; "ATMM_ANIMATION_DRIVEN"
0FF5  1D430500           [164] getglobal  12  21       ; Engine
0FF9  0E034B06           [165] gettable   12  12  300  ; "PRT_FREEZE"
0FFD  57038000           [166] loadbool   13  1   0    ; true
1001  E2418003           [167] call       7   7   1  
1005  E4414B01           [168] self       7   2   301  ; -1107906782
1009  E2810001           [169] call       7   2   2  
100D  1D020800           [170] getglobal  8   32       ; 538022378
1011  59420800           [171] loadk      9   33       ; 0
1015  22420001           [172] call       8   2   1  
1019  1D420000           [173] getglobal  8   1        ; 1074689893
101D  52020001           [174] move       9   2      
1021  22820001           [175] call       8   2   2  
1025  18420000           [176] test       8       1    ; to [178] if false
1029  1A400480           [177] jmp        18           ; to [196]
fail op	21
102D  1540C803           [178] concat     0   7   289
1031  1AC00380           [179] jmp        16           ; to [196]
1035  1D820B00           [180] getglobal  8   46       ; math
1039  0EC24B04           [181] gettable   8   8   303  ; 1710846250
103D  59420800           [182] loadk      9   33       ; 0
1041  9D020C00           [183] getglobal  10  48       ; 1661359502
1045  A2828000           [184] call       10  1   2  
1049  84424C05           [185] mul        10  10  305  ; 51
104D  83828203           [186] add        10  7   10 
1051  22828001           [187] call       8   3   2  
1055  D2010004           [188] move       7   8      
1059  24824C01           [189] self       8   2   306  ; -703571861
105D  92028003           [190] move       10  7      
1061  22428001           [191] call       8   3   1  
1065  1D020800           [192] getglobal  8   32       ; 538022378
1069  59020600           [193] loadk      9   24       ; 0
106D  22420001           [194] call       8   2   1  
1071  1A00FA7F           [195] jmp        -23          ; to [173]
1075  1D420000           [196] getglobal  8   1        ; 1074689893
1079  52020001           [197] move       9   2      
107D  22820001           [198] call       8   2   2  
1081  18420000           [199] test       8       1    ; to [201] if false
1085  1A400080           [200] jmp        2            ; to [203]
1089  24C24C01           [201] self       8   2   307  ; -725453761
108D  22420001           [202] call       8   2   1  
1091  1E008000           [203] return     0   1      
                         * constants:
1095  34                 sizek (52)
1096  01                 const type 3
1097  2F055A55           const [0]: (1431962927)
109B  01                 const type 3
109C  65770E40           const [1]: (1074689893)
10A0  01                 const type 3
10A1  0344B180           const [2]: (-2135866365)
10A5  04                 const type 4
10A6  0F                 string size (15)
10A7  4D4F4E49544F525F+  "MONITOR_"
10AF  4556454E545300     "EVENTS\0"
                         const [3]: "MONITOR_EVENTS"
10B6  04                 const type 4
10B7  0B                 string size (11)
10B8  454E454D595F464C+  "ENEMY_FL"
10C0  454500             "EE\0"
                         const [4]: "ENEMY_FLEE"
10C3  04                 const type 4
10C4  0D                 string size (13)
10C5  454E454D595F4B49+  "ENEMY_KI"
10CD  4C4C454400         "LLED\0"
                         const [5]: "ENEMY_KILLED"
10D2  04                 const type 4
10D3  03                 string size (3)
10D4  5F5400             "_T\0"
                         const [6]: "_T"
10D7  04                 const type 4
10D8  09                 string size (9)
10D9  674E656D65736973+  "gNemesis"
10E1  00                 "\0"
                         const [7]: "gNemesis"
10E2  04                 const type 4
10E3  08                 string size (8)
10E4  6D697373696F6E00   "mission\0"
                         const [8]: "mission"
10EC  04                 const type 4
10ED  0A                 string size (10)
10EE  656E656D79496E66+  "enemyInf"
10F6  6F00               "o\0"
                         const [9]: "enemyInfo"
10F8  04                 const type 4
10F9  0B                 string size (11)
10FA  6747616D6552756C+  "gGameRul"
1102  657300             "es\0"
                         const [10]: "gGameRules"
1105  01                 const type 3
1106  D5DB3C1A           const [11]: (440196053)
110A  04                 const type 4
110B  0B                 string size (11)
110C  4C6F7475735F4761+  "Lotus_Ga"
1114  6D6500             "me\0"
                         const [12]: "Lotus_Game"
1117  04                 const type 4
1118  0B                 string size (11)
1119  4E455F4E454D4553+  "NE_NEMES"
1121  495300             "IS\0"
                         const [13]: "NE_NEMESIS"
1124  01                 const type 3
1125  1FD0B58D           const [14]: (-1917464545)
1129  01                 const type 3
112A  59AC7869           const [15]: (1769516121)
112E  01                 const type 3
112F  0253BC7D           const [16]: (2109494018)
1133  01                 const type 3
1134  9B06F6A3           const [17]: (-1544157541)
1138  01                 const type 3
1139  742A1592           const [18]: (-1844106636)
113D  01                 const type 3
113E  1A4B27EC           const [19]: (-332969190)
1142  04                 const type 4
1143  0C                 string size (12)
1144  4E656D6573697346+  "NemesisF"
114C  6C656500           "lee\0"
                         const [20]: "NemesisFlee"
1150  04                 const type 4
1151  07                 string size (7)
1152  456E67696E6500     "Engine\0"
                         const [21]: "Engine"
1159  04                 const type 4
115A  07                 string size (7)
115B  44545F414E5900     "DT_ANY\0"
                         const [22]: "DT_ANY"
1162  04                 const type 4
1163  09                 string size (9)
1164  414E595F50415254+  "ANY_PART"
116C  00                 "\0"
                         const [23]: "ANY_PART"
116D  03                 const type 3
116E  00000000           const [24]: (0)
1172  01                 const type 3
1173  E5F934B9           const [25]: (-1187710491)
1177  01                 const type 3
1178  452D085F           const [26]: (1594371397)
117C  01                 const type 3
117D  61EF2D88           const [27]: (-2010255519)
1181  01                 const type 3
1182  1E97D90F           const [28]: (265918238)
1186  01                 const type 3
1187  D0BBC367           const [29]: (1740880848)
118B  01                 const type 3
118C  5720287C           const [30]: (2083004503)
1190  04                 const type 4
1191  12                 string size (18)
1192  656E656D79466C65+  "enemyFle"
119A  654265686176696F+  "eBehavio"
11A2  7200               "r\0"
                         const [31]: "enemyFleeBehavior"
11A4  01                 const type 3
11A5  EA911120           const [32]: (538022378)
11A9  03                 const type 3
11AA  0000803F           const [33]: (0)
11AE  04                 const type 4
11AF  16                 string size (22)
11B0  656E656D79466C65+  "enemyFle"
11B8  655472616E736D69+  "eTransmi"
11C0  7373696F6E00       "ssion\0"
                         const [34]: "enemyFleeTransmission"
11C6  04                 const type 4
11C7  0C                 string size (12)
11C8  454E454D595F424F+  "ENEMY_BO"
11D0  52454400           "RED\0"
                         const [35]: "ENEMY_BORED"
11D4  04                 const type 4
11D5  17                 string size (23)
11D6  656E656D794C6561+  "enemyLea"
11DE  76655472616E736D+  "veTransm"
11E6  697373696F6E00     "ission\0"
                         const [36]: "enemyLeaveTransmission"
11ED  01                 const type 3
11EE  8263B8ED           const [37]: (-306683006)
11F2  01                 const type 3
11F3  650634F3           const [38]: (-214694299)
11F7  04                 const type 4
11F8  11                 string size (17)
11F9  504D5F424C4F434B+  "PM_BLOCK"
1201  494E475F414E494D+  "ING_ANIM"
1209  00                 "\0"
                         const [39]: "PM_BLOCKING_ANIM"
120A  01                 const type 3
120B  F26E43AB           const [40]: (-1421644046)
120F  04                 const type 4
1210  0D                 string size (13)
1211  454D5054595F5359+  "EMPTY_SY"
1219  4D424F4C00         "MBOL\0"
                         const [41]: "EMPTY_SYMBOL"
121E  01                 const type 3
121F  F5EA977A           const [42]: (2056776437)
1223  04                 const type 4
1224  16                 string size (22)
1225  41544D4D5F414E49+  "ATMM_ANI"
122D  4D4154494F4E5F44+  "MATION_D"
1235  524956454E00       "RIVEN\0"
                         const [43]: "ATMM_ANIMATION_DRIVEN"
123B  04                 const type 4
123C  0B                 string size (11)
123D  5052545F46524545+  "PRT_FREE"
1245  5A4500             "ZE\0"
                         const [44]: "PRT_FREEZE"
1248  01                 const type 3
1249  22AFF6BD           const [45]: (-1107906782)
124D  04                 const type 4
124E  05                 string size (5)
124F  6D61746800         "math\0"
                         const [46]: "math"
1254  01                 const type 3
1255  2A71F965           const [47]: (1710846250)
1259  01                 const type 3
125A  8E550663           const [48]: (1661359502)
125E  03                 const type 3
125F  3333333F           const [49]: (51)
1263  01                 const type 3
1264  6B5810D6           const [50]: (-703571861)
1268  01                 const type 3
1269  3F74C2D4           const [51]: (-725453761)
                         * functions:
126D  00                 sizep (0)
                         * lines:
126F  01                 sizelineinfo (203)
                         [pc] (line)
1270  5C                 [001] (92)
1271  00                 [002] (92)
1272  00                 [003] (92)
1273  00                 [004] (94)
1274  5C                 [005] (94)
1275  00                 [006] (94)
1276  00                 [007] (94)
1277  00                 [008] (94)
1278  5C                 [009] (95)
1279  00                 [010] (98)
127A  00                 [011] (98)
127B  00                 [012] (100)
127C  5E                 [013] (100)
127D  00                 [014] (100)
127E  00                 [015] (100)
127F  00                 [016] (100)
1280  5E                 [017] (101)
1281  00                 [018] (105)
1282  00                 [019] (105)
1283  00                 [020] (105)
1284  5E                 [021] (105)
1285  00                 [022] (105)
1286  00                 [023] (105)
1287  00                 [024] (105)
1288  5E                 [025] (105)
1289  00                 [026] (105)
128A  00                 [027] (105)
128B  00                 [028] (105)
128C  5E                 [029] (105)
128D  00                 [030] (106)
128E  00                 [031] (106)
128F  00                 [032] (106)
1290  5F                 [033] (106)
1291  00                 [034] (108)
1292  00                 [035] (108)
1293  00                 [036] (108)
1294  62                 [037] (108)
1295  00                 [038] (108)
1296  00                 [039] (111)
1297  00                 [040] (111)
1298  62                 [041] (112)
1299  00                 [042] (112)
129A  00                 [043] (112)
129B  00                 [044] (112)
129C  64                 [045] (112)
129D  00                 [046] (113)
129E  00                 [047] (113)
129F  00                 [048] (114)
12A0  64                 [049] (114)
12A1  00                 [050] (114)
12A2  00                 [051] (114)
12A3  00                 [052] (114)
12A4  64                 [053] (115)
12A5  00                 [054] (115)
12A6  00                 [055] (120)
12A7  00                 [056] (120)
12A8  64                 [057] (120)
12A9  00                 [058] (120)
12AA  00                 [059] (120)
12AB  00                 [060] (120)
12AC  64                 [061] (120)
12AD  00                 [062] (120)
12AE  00                 [063] (120)
12AF  00                 [064] (120)
12B0  65                 [065] (120)
12B1  00                 [066] (120)
12B2  00                 [067] (121)
12B3  00                 [068] (121)
12B4  69                 [069] (121)
12B5  00                 [070] (122)
12B6  00                 [071] (122)
12B7  00                 [072] (122)
12B8  69                 [073] (123)
12B9  00                 [074] (123)
12BA  00                 [075] (123)
12BB  00                 [076] (124)
12BC  69                 [077] (124)
12BD  00                 [078] (124)
12BE  00                 [079] (124)
12BF  00                 [080] (125)
12C0  69                 [081] (125)
12C1  00                 [082] (125)
12C2  00                 [083] (125)
12C3  00                 [084] (125)
12C4  69                 [085] (125)
12C5  00                 [086] (127)
12C6  00                 [087] (127)
12C7  00                 [088] (127)
12C8  69                 [089] (-127)
12C9  00                 [090] (-127)
12CA  00                 [091] (-127)
12CB  00                 [092] (-127)
12CC  69                 [093] (-127)
12CD  00                 [094] (-127)
12CE  00                 [095] (-127)
12CF  00                 [096] (-126)
12D0  69                 [097] (-126)
12D1  00                 [098] (-126)
12D2  00                 [099] (-126)
12D3  00                 [100] (-126)
12D4  69                 [101] (-125)
12D5  00                 [102] (-125)
12D6  00                 [103] (-125)
12D7  00                 [104] (-125)
12D8  69                 [105] (-125)
12D9  00                 [106] (-125)
12DA  00                 [107] (-125)
12DB  00                 [108] (-125)
12DC  69                 [109] (-125)
12DD  00                 [110] (-125)
12DE  00                 [111] (-124)
12DF  00                 [112] (-124)
12E0  69                 [113] (-124)
12E1  00                 [114] (-124)
12E2  00                 [115] (-121)
12E3  00                 [116] (-121)
12E4  6A                 [117] (-121)
12E5  00                 [118] (-119)
12E6  00                 [119] (-119)
12E7  00                 [120] (-119)
12E8  6A                 [121] (-119)
12E9  00                 [122] (-119)
12EA  00                 [123] (-119)
12EB  00                 [124] (-119)
12EC  6A                 [125] (-119)
12ED  00                 [126] (-119)
12EE  00                 [127] (-119)
12EF  00                 [128] (-92)
12F0  6A                 [129] (-92)
12F1  00                 [130] (-91)
12F2  00                 [131] (-91)
12F3  00                 [132] (-91)
12F4  6C                 [133] (-91)
12F5  00                 [134] (-91)
12F6  00                 [135] (-89)
12F7  00                 [136] (-89)
12F8  6C                 [137] (-89)
12F9  00                 [138] (-89)
12FA  00                 [139] (-89)
12FB  00                 [140] (-89)
12FC  6C                 [141] (-89)
12FD  00                 [142] (-89)
12FE  00                 [143] (-89)
12FF  00                 [144] (-89)
1300  6C                 [145] (-89)
1301  00                 [146] (-88)
1302  00                 [147] (-88)
1303  00                 [148] (-88)
1304  6C                 [149] (-88)
1305  00                 [150] (-84)
1306  00                 [151] (-84)
1307  00                 [152] (-84)
1308  6F                 [153] (-84)
1309  00                 [154] (-84)
130A  00                 [155] (-83)
130B  00                 [156] (-83)
130C  6F                 [157] (-83)
130D  00                 [158] (-83)
130E  00                 [159] (-82)
130F  00                 [160] (-82)
1310  70                 [161] (-82)
1311  00                 [162] (-82)
1312  00                 [163] (-82)
1313  00                 [164] (-82)
1314  70                 [165] (-82)
1315  00                 [166] (-82)
1316  00                 [167] (-82)
1317  00                 [168] (-81)
1318  70                 [169] (-81)
1319  00                 [170] (-80)
131A  00                 [171] (-80)
131B  00                 [172] (-80)
131C  70                 [173] (-79)
131D  00                 [174] (-79)
131E  00                 [175] (-79)
131F  00                 [176] (-79)
1320  70                 [177] (-79)
1321  00                 [178] (-79)
1322  00                 [179] (-79)
1323  00                 [180] (-78)
1324  71                 [181] (-78)
1325  00                 [182] (-78)
1326  00                 [183] (-78)
1327  00                 [184] (-78)
1328  71                 [185] (-78)
1329  00                 [186] (-78)
132A  00                 [187] (-78)
132B  00                 [188] (-78)
132C  72                 [189] (-77)
132D  00                 [190] (-77)
132E  00                 [191] (-77)
132F  00                 [192] (-76)
1330  72                 [193] (-76)
1331  00                 [194] (-76)
1332  00                 [195] (-76)
1333  00                 [196] (-71)
1334  72                 [197] (-71)
1335  00                 [198] (-71)
1336  00                 [199] (-71)
1337  00                 [200] (-71)
1338  72                 [201] (-70)
1339  00                 [202] (-70)
133A  00                 [203] (-57)
                         * locals:
159C  00                 sizelocvars (0)
                         * upvalues:
159D  00                 sizeupvalues (0)
                         ** end of function **

                         
159E                     ** function [2] definition (level 2)
                         ** start of function **
159E  00                 string size (0)
                         source name: (none)
15A0  01                 line defined (201)
15A1  DE                 last line defined (222)
15A2  01                 nups (0)
15A3  00                 numparams (0)
15A4  00                 is_vararg (0)
15A5  00                 maxstacksize (6)
                         * code:
15A7  1C                 sizecode (28)
15A8  19000000           [01] loadk      0   0        ; 0
15AC  5D400000           [02] getglobal  1   1        ; gRegion
15B0  6480C000           [03] self       1   1   258  ; 65205951
15B4  62800001           [04] call       1   2   2  
15B8  9D400000           [05] getglobal  2   1        ; gRegion
15BC  A4C04001           [06] self       2   2   259  ; -774964848
15C0  A2800001           [07] call       2   2   2  
15C4  A4004101           [08] self       2   2   260  ; 537471347
15C8  A2800001           [09] call       2   2   2  
15CC  E4404101           [10] self       3   2   261  ; 1016787375
15D0  52018000           [11] move       5   1      
15D4  E2808001           [12] call       3   3   2  
fail op	21
15D8  15C00083           [13] concat     0   262 3  
15DC  1A800080           [14] jmp        3            ; to [18]
fail op	21
15E0  15C0C101           [15] concat     0   3   263
15E4  1A000080           [16] jmp        1            ; to [18]
15E8  1A000280           [17] jmp        9            ; to [27]
fail op	21
15EC  15000084           [18] concat     0   264 0  
15F0  1AC0FF7F           [19] jmp        0            ; to [20]
15F4  1D410200           [20] getglobal  4   9        ; 1289681407
15F8  22818000           [21] call       4   1   2  
15FC  03000100           [22] add        0   0   4  
1600  1D810200           [23] getglobal  4   10       ; 538022378
1604  59010000           [24] loadk      5   0        ; 0
1608  22410001           [25] call       4   2   1  
160C  1A80FB7F           [26] jmp        -17          ; to [10]
1610  19000000           [27] loadk      0   0        ; 0
1614  1E008000           [28] return     0   1      
                         * constants:
1618  0B                 sizek (11)
1619  03                 const type 3
161A  00000000           const [0]: (0)
161E  04                 const type 4
161F  08                 string size (8)
1620  67526567696F6E00   "gRegion\0"
                         const [1]: "gRegion"
1628  01                 const type 3
1629  BFF6E203           const [2]: (65205951)
162D  01                 const type 3
162E  90F9CED1           const [3]: (-774964848)
1632  01                 const type 3
1633  73290920           const [4]: (537471347)
1637  01                 const type 3
1638  AFF19A3C           const [5]: (1016787375)
163C  03                 const type 3
163D  000080BF           const [6]: (0)
1641  03                 const type 3
1642  00009643           const [7]: (0)
1646  03                 const type 3
1647  00002041           const [8]: (0)
164B  01                 const type 3
164C  FFF9DE4C           const [9]: (1289681407)
1650  01                 const type 3
1651  EA911120           const [10]: (538022378)
                         * functions:
1655  00                 sizep (0)
                         * lines:
1656  1C                 sizelineinfo (28)
                         [pc] (line)
1657  CA                 [01] (-54)
1658  00                 [02] (-53)
1659  00                 [03] (-53)
165A  00                 [04] (-53)
165B  CB                 [05] (-51)
165C  00                 [06] (-51)
165D  00                 [07] (-51)
165E  00                 [08] (-51)
165F  CB                 [09] (-51)
1660  00                 [10] (-49)
1661  00                 [11] (-49)
1662  00                 [12] (-49)
1663  CB                 [13] (-47)
1664  00                 [14] (-47)
1665  00                 [15] (-47)
1666  00                 [16] (-47)
1667  CD                 [17] (-46)
1668  00                 [18] (-43)
1669  00                 [19] (-43)
166A  00                 [20] (-39)
166B  CD                 [21] (-39)
166C  00                 [22] (-39)
166D  00                 [23] (-38)
166E  00                 [24] (-38)
166F  CD                 [25] (-38)
1670  00                 [26] (-38)
1671  00                 [27] (-35)
1672  00                 [28] (-34)
                         * locals:
16C7  00                 sizelocvars (0)
                         * upvalues:
16C8  00                 sizeupvalues (0)
                         ** end of function **

                         
16C9                     ** function [3] definition (level 2)
                         ** start of function **
16C9  00                 string size (0)
                         source name: (none)
16CB  01                 line defined (224)
16CC  F2                 last line defined (242)
16CD  01                 nups (1)
16CE  01                 numparams (2)
16CF  02                 is_vararg (0)
16D0  00                 maxstacksize (19)
                         * code:
16D2  24                 sizecode (36)
16D3  8B000000           [01] newtable   2   0   0    ; array=0, hash=0
16D7  DD000000           [02] getglobal  3   0        ; gRegion
16DB  E440C001           [03] self       3   3   257  ; 152279552
16DF  5D810000           [04] getglobal  5   2        ; gNpcSpawnPointType
16E3  92010000           [05] move       6   0      
16E7  D9C10000           [06] loadk      7   3        ; 0
16EB  12028000           [07] move       8   1      
16EF  E2800003           [08] call       3   6   2  
16F3  1D010100           [09] getglobal  4   4        ; 248503575
16F7  52018001           [10] move       5   3      
16FB  22010101           [11] call       4   2   4  
16FF  1AC00480           [12] jmp        20           ; to [33]
1703  64424104           [13] self       9   8   261  ; -830264577
1707  62820001           [14] call       9   2   2  
170B  97028000           [15] loadbool   10  1   0    ; true
170F  DD020100           [16] getglobal  11  4        ; 248503575
1713  13030000           [17] getupval   12  0      
1717  E2020101           [18] call       11  2   4  
171B  1AC00080           [19] jmp        4            ; to [24]
fail op	35
171F  23C08304           [20] close      0  
1723  1A400080           [21] jmp        2            ; to [24]
1727  97020000           [22] loadbool   10  0   0    ; false
172B  1A400080           [23] jmp        2            ; to [26]
172F  D6820000           [24] tforloop   11      2    ; to [26] if exit
1733  1A40FE7F           [25] jmp        -6           ; to [20]
1737  98020000           [26] test       10      0    ; to [28] if true
173B  1A000180           [27] jmp        5            ; to [33]
173F  1D840100           [28] getglobal  16  6        ; table
1743  0EC44108           [29] gettable   16  16  263  ; -431682403
1747  52040001           [30] move       17  2      
174B  92040004           [31] move       18  8      
174F  22448001           [32] call       16  3   1  
1753  16810000           [33] tforloop   4       2    ; to [35] if exit
1757  1A40FA7F           [34] jmp        -22          ; to [13]
175B  9E000001           [35] return     2   2      
175F  1E008000           [36] return     0   1      
                         * constants:
1763  08                 sizek (8)
1764  04                 const type 4
1765  08                 string size (8)
1766  67526567696F6E00   "gRegion\0"
                         const [0]: "gRegion"
176E  01                 const type 3
176F  009A1309           const [1]: (152279552)
1773  04                 const type 4
1774  13                 string size (19)
1775  674E706353706177+  "gNpcSpaw"
177D  6E506F696E745479+  "nPointTy"
1785  706500             "pe\0"
                         const [2]: "gNpcSpawnPointType"
1788  03                 const type 3
1789  00000000           const [3]: (0)
178D  01                 const type 3
178E  17DDCF0E           const [4]: (248503575)
1792  01                 const type 3
1793  FF2A83CE           const [5]: (-830264577)
1797  04                 const type 4
1798  06                 string size (6)
1799  7461626C6500       "table\0"
                         const [6]: "table"
179F  01                 const type 3
17A0  9D0C45E6           const [7]: (-431682403)
                         * functions:
17A4  00                 sizep (0)
                         * lines:
17A5  24                 sizelineinfo (36)
                         [pc] (line)
17A6  E1                 [01] (-31)
17A7  00                 [02] (-30)
17A8  00                 [03] (-30)
17A9  00                 [04] (-30)
17AA  E2                 [05] (-30)
17AB  00                 [06] (-30)
17AC  00                 [07] (-30)
17AD  00                 [08] (-30)
17AE  E2                 [09] (-29)
17AF  00                 [10] (-29)
17B0  00                 [11] (-29)
17B1  00                 [12] (-29)
17B2  E2                 [13] (-28)
17B3  00                 [14] (-28)
17B4  00                 [15] (-27)
17B5  00                 [16] (-26)
17B6  E2                 [17] (-26)
17B7  00                 [18] (-26)
17B8  00                 [19] (-26)
17B9  00                 [20] (-25)
17BA  E2                 [21] (-25)
17BB  00                 [22] (-24)
17BC  00                 [23] (-23)
17BD  00                 [24] (-26)
17BE  E2                 [25] (-22)
17BF  00                 [26] (-20)
17C0  00                 [27] (-20)
17C1  00                 [28] (-19)
17C2  E2                 [29] (-19)
17C3  00                 [30] (-19)
17C4  00                 [31] (-19)
17C5  00                 [32] (-19)
17C6  E3                 [33] (-29)
17C7  00                 [34] (-18)
17C8  00                 [35] (-15)
17C9  00                 [36] (-14)
                         * locals:
1836  00                 sizelocvars (0)
                         * upvalues:
1837  00                 sizeupvalues (0)
                         ** end of function **

                         
1838                     ** function [4] definition (level 2)
                         ** start of function **
1838  00                 string size (0)
                         source name: (none)
183A  01                 line defined (244)
183B  94                 last line defined (276)
183C  02                 nups (1)
183D  01                 numparams (1)
183E  01                 is_vararg (0)
183F  00                 maxstacksize (14)
                         * code:
1841  39                 sizecode (57)
1842  5D000000           [01] getglobal  1   0        ; gRegion
1846  6440C000           [02] self       1   1   257  ; 65205951
184A  62800001           [03] call       1   2   2  
184E  93000000           [04] getupval   2   0      
1852  E480C000           [05] self       3   1   258  ; 1839670529
1856  E2800001           [06] call       3   2   2  
185A  19C10000           [07] loadk      4   3        ; 0
185E  A2808001           [08] call       2   3   2  
1862  C6008001           [09] loadnil    3   3      
1866  1D010100           [10] getglobal  4   4        ; EMPTY_SYMBOL
186A  6441C100           [11] self       5   1   261  ; 1927666530
186E  62810001           [12] call       5   2   2  
1872  9D810100           [13] getglobal  6   6        ; 1074689893
1876  D2018002           [14] move       7   5      
187A  A2810001           [15] call       6   2   2  
187E  98410000           [16] test       6       1    ; to [18] if false
1882  1A800080           [17] jmp        3            ; to [21]
1886  A4C1C102           [18] self       6   5   263  ; -830264577
188A  A2810001           [19] call       6   2   2  
188E  12010003           [20] move       4   6      
1892  99010200           [21] loadk      6   8        ; 0
1896  CA010001           [22] len        7   2      
189A  19020200           [23] loadk      8   8        ; 0
189E  90410780           [24] forprep    6   30       ; to [55]
18A2  8E420201           [25] gettable   10  2   9  
18A6  A4424105           [26] self       10  10  261  ; 1927666530
18AA  A2820001           [27] call       10  2   2  
18AE  C6028005           [28] loadnil    11  11     
18B2  1D830100           [29] getglobal  12  6        ; 1074689893
18B6  52030005           [30] move       13  10     
18BA  22830001           [31] call       12  2   2  
18BE  18430000           [32] test       12      1    ; to [34] if false
18C2  1A000580           [33] jmp        21           ; to [55]
18C6  24C34105           [34] self       12  10  263  ; -830264577
18CA  22830001           [35] call       12  2   2  
18CE  D2020006           [36] move       11  12     
18D2  18000000           [37] test       0       0    ; to [39] if true
18D6  1AC00280           [38] jmp        12           ; to [51]
18DA  1D430200           [39] getglobal  12  9        ; -332969190
18DE  59830200           [40] loadk      13  10       ; "Intermediate"
18E2  22830001           [41] call       12  2   2  
fail op	35
18E6  63008305           [42] close      1  
18EA  1A000180           [43] jmp        5            ; to [49]
18EE  1D430200           [44] getglobal  12  9        ; -332969190
18F2  59C30200           [45] loadk      13  11       ; "Objective"
18F6  22830001           [46] call       12  2   2  
fail op	35
18FA  23008305           [47] close      0  
18FE  1A400180           [48] jmp        6            ; to [55]
1902  CE400201           [49] gettable   3   2   9  
1906  1AC00080           [50] jmp        4            ; to [55]
fail op	35
190A  23008105           [51] close      0  
190E  1A400080           [52] jmp        2            ; to [55]
1912  CE400201           [53] gettable   3   2   9  
1916  1A000080           [54] jmp        1            ; to [56]
191A  9401F87F           [55] forloop    6   -31      ; to [25] if loop
191E  DE000001           [56] return     3   2      
1922  1E008000           [57] return     0   1      
                         * constants:
1926  0C                 sizek (12)
1927  04                 const type 4
1928  08                 string size (8)
1929  67526567696F6E00   "gRegion\0"
                         const [0]: "gRegion"
1931  01                 const type 3
1932  BFF6E203           const [1]: (65205951)
1936  01                 const type 3
1937  0125A76D           const [2]: (1839670529)
193B  03                 const type 3
193C  0000C842           const [3]: (0)
1940  04                 const type 4
1941  0D                 string size (13)
1942  454D5054595F5359+  "EMPTY_SY"
194A  4D424F4C00         "MBOL\0"
                         const [4]: "EMPTY_SYMBOL"
194F  01                 const type 3
1950  62DBE572           const [5]: (1927666530)
1954  01                 const type 3
1955  65770E40           const [6]: (1074689893)
1959  01                 const type 3
195A  FF2A83CE           const [7]: (-830264577)
195E  03                 const type 3
195F  0000803F           const [8]: (0)
1963  01                 const type 3
1964  1A4B27EC           const [9]: (-332969190)
1968  04                 const type 4
1969  0D                 string size (13)
196A  496E7465726D6564+  "Intermed"
1972  6961746500         "iate\0"
                         const [10]: "Intermediate"
1977  04                 const type 4
1978  0A                 string size (10)
1979  4F626A6563746976+  "Objectiv"
1981  6500               "e\0"
                         const [11]: "Objective"
                         * functions:
1983  00                 sizep (0)
                         * lines:
1984  39                 sizelineinfo (57)
                         [pc] (line)
1985  F6                 [01] (-10)
1986  00                 [02] (-10)
1987  00                 [03] (-10)
1988  00                 [04] (-9)
1989  F6                 [05] (-9)
198A  00                 [06] (-9)
198B  00                 [07] (-9)
198C  00                 [08] (-9)
198D  F6                 [09] (-7)
198E  00                 [10] (-5)
198F  00                 [11] (-4)
1990  00                 [12] (-4)
1991  F7                 [13] (-3)
1992  00                 [14] (-3)
1993  00                 [15] (-3)
1994  00                 [16] (-3)
1995  F7                 [17] (-3)
1996  00                 [18] (-2)
1997  00                 [19] (-2)
1998  00                 [20] (-2)
1999  F7                 [21] (1)
199A  00                 [22] (1)
199B  00                 [23] (1)
199C  00                 [24] (1)
199D  F7                 [25] (2)
199E  00                 [26] (2)
199F  00                 [27] (2)
19A0  00                 [28] (3)
19A1  F7                 [29] (4)
19A2  00                 [30] (4)
19A3  00                 [31] (4)
19A4  00                 [32] (4)
19A5  F9                 [33] (4)
19A6  00                 [34] (5)
19A7  00                 [35] (5)
19A8  00                 [36] (5)
19A9  FB                 [37] (6)
19AA  00                 [38] (6)
19AB  00                 [39] (7)
19AC  00                 [40] (7)
19AD  FC                 [41] (7)
19AE  00                 [42] (7)
19AF  00                 [43] (7)
19B0  00                 [44] (7)
19B1  FC                 [45] (7)
19B2  00                 [46] (7)
19B3  00                 [47] (7)
19B4  00                 [48] (7)
19B5  FD                 [49] (8)
19B6  00                 [50] (9)
19B7  00                 [51] (11)
19B8  00                 [52] (11)
19B9  FD                 [53] (12)
19BA  00                 [54] (13)
19BB  00                 [55] (1)
19BC  00                 [56] (19)
19BD  FD                 [57] (20)
                         * locals:
1A69  00                 sizelocvars (0)
                         * upvalues:
1A6A  00                 sizeupvalues (0)
                         ** end of function **

                         
1A6B                     ** function [5] definition (level 2)
                         ** start of function **
1A6B  00                 string size (0)
                         source name: (none)
1A6D  02                 line defined (278)
1A6E  B7                 last line defined (311)
1A6F  02                 nups (4)
1A70  04                 numparams (2)
1A71  02                 is_vararg (0)
1A72  00                 maxstacksize (15)
                         * code:
1A74  4D                 sizecode (77)
1A75  92008000           [01] move       2   1      
1A79  DD000000           [02] getglobal  3   0        ; 1074689893
1A7D  12010001           [03] move       4   2      
1A81  E2800001           [04] call       3   2   2  
1A85  D8000000           [05] test       3       0    ; to [7] if true
1A89  1AC00B80           [06] jmp        48           ; to [55]
1A8D  DD400000           [07] getglobal  3   1        ; gRegion
1A91  E480C001           [08] self       3   3   258  ; -774964848
1A95  E2800001           [09] call       3   2   2  
1A99  E4C0C001           [10] self       3   3   259  ; 537471347
1A9D  E2800001           [11] call       3   2   2  
1AA1  1D410000           [12] getglobal  4   1        ; gRegion
1AA5  24014102           [13] self       4   4   260  ; 65205951
1AA9  22810001           [14] call       4   2   2  
1AAD  53010000           [15] getupval   5   0      
1AB1  97018000           [16] loadbool   6   1   0    ; true
1AB5  62810001           [17] call       5   2   2  
1AB9  9D010000           [18] getglobal  6   0        ; 1074689893
1ABD  D2018002           [19] move       7   5      
1AC1  A2810001           [20] call       6   2   2  
1AC5  98410000           [21] test       6       1    ; to [23] if false
1AC9  1A400180           [22] jmp        6            ; to [29]
1ACD  A441C101           [23] self       6   3   261  ; 387241288
1AD1  12028002           [24] move       8   5      
1AD5  53028000           [25] getupval   9   1      
1AD9  A2810002           [26] call       6   4   2  
1ADD  92000003           [27] move       2   6      
1AE1  1A400180           [28] jmp        6            ; to [35]
1AE5  A481C101           [29] self       6   3   262  ; 1074164446
1AE9  12020002           [30] move       8   4      
1AED  59C20100           [31] loadk      9   7        ; 0
1AF1  93028000           [32] getupval   10  1      
1AF5  A2818002           [33] call       6   5   2  
1AF9  92000003           [34] move       2   6      
1AFD  9D010000           [35] getglobal  6   0        ; 1074689893
1B01  D2010001           [36] move       7   2      
1B05  A2810001           [37] call       6   2   2  
1B09  98010000           [38] test       6       0    ; to [40] if true
1B0D  1A800380           [39] jmp        15           ; to [55]
1B11  9D010200           [40] getglobal  6   8        ; -1817107093
1B15  D9410200           [41] loadk      7   9        ; "NemesisMission.lua -- Failed to spawn Lich henchman, trying CreateAgentNearEntity"
1B19  A2410001           [42] call       6   2   1  
1B1D  9D810200           [43] getglobal  6   10       ; 738251817
1B21  D9C10200           [44] loadk      7   11       ; "/Lotus/Types/Enemies/Grineer/GrineerMarineRifle"
1B25  A2810001           [45] call       6   2   2  
1B29  E401C301           [46] self       7   3   268  ; -2120903900
1B2D  5D420300           [47] getglobal  9   13       ; -895206725
1B31  92020003           [48] move       10  6      
1B35  62820001           [49] call       9   2   2  
1B39  92020002           [50] move       10  4      
1B3D  D9820300           [51] loadk      11  14       ; 0
1B41  13038000           [52] getupval   12  1      
1B45  E2810003           [53] call       7   6   2  
1B49  92008003           [54] move       2   7      
1B4D  DD410000           [55] getglobal  7   1        ; gRegion
1B51  E4C1C303           [56] self       7   7   271  ; 630793108
1B55  53020001           [57] getupval   9   2      
1B59  9D020400           [58] getglobal  10  16       ; ZERO_VECTOR
1B5D  D7020000           [59] loadbool   11  0   0    ; false
1B61  E2818002           [60] call       7   5   2  
1B65  24424401           [61] self       8   2   273  ; -2135866365
1B69  22820001           [62] call       8   2   2  
1B6D  5D820400           [63] getglobal  9   18       ; 1668611480
1B71  8EC24400           [64] gettable   10  0   275  ; "mRank"
1B75  83024505           [65] add        10  10  276  ; 0
1B79  D9020500           [66] loadk      11  20       ; 0
1B7D  13038001           [67] getupval   12  3      
1B81  0A030006           [68] len        12  12     
1B85  62820002           [69] call       9   4   2  
1B89  93028001           [70] getupval   10  3      
1B8D  8E420205           [71] gettable   10  10  9  
1B91  E4424504           [72] self       11  8   277  ; -372871396
1B95  52030005           [73] move       13  10     
1B99  97030000           [74] loadbool   14  0   0    ; false
1B9D  E2420002           [75] call       11  4   1  
1BA1  1E020001           [76] return     8   2      
1BA5  1E008000           [77] return     0   1      
                         * constants:
1BA9  16                 sizek (22)
1BAA  01                 const type 3
1BAB  65770E40           const [0]: (1074689893)
1BAF  04                 const type 4
1BB0  08                 string size (8)
1BB1  67526567696F6E00   "gRegion\0"
                         const [1]: "gRegion"
1BB9  01                 const type 3
1BBA  90F9CED1           const [2]: (-774964848)
1BBE  01                 const type 3
1BBF  73290920           const [3]: (537471347)
1BC3  01                 const type 3
1BC4  BFF6E203           const [4]: (65205951)
1BC8  01                 const type 3
1BC9  48D51417           const [5]: (387241288)
1BCD  01                 const type 3
1BCE  DE720640           const [6]: (1074164446)
1BD2  03                 const type 3
1BD3  00009642           const [7]: (0)
1BD7  01                 const type 3
1BD8  6B25B193           const [8]: (-1817107093)
1BDC  04                 const type 4
1BDD  52                 string size (82)
1BDE  4E656D657369734D+  "NemesisM"
1BE6  697373696F6E2E6C+  "ission.l"
1BEE  7561202D2D204661+  "ua -- Fa"
1BF6  696C656420746F20+  "iled to "
1BFE  737061776E204C69+  "spawn Li"
1C06  63682068656E6368+  "ch hench"
1C0E  6D616E2C20747279+  "man, try"
1C16  696E672043726561+  "ing Crea"
1C1E  74654167656E744E+  "teAgentN"
1C26  656172456E746974+  "earEntit"
1C2E  7900               "y\0"
                         const [9]: "NemesisMission.lua -- Failed to spawn Lich henchman, trying CreateAgentNearEntity"
1C30  01                 const type 3
1C31  29D4002C           const [10]: (738251817)
1C35  04                 const type 4
1C36  30                 string size (48)
1C37  2F4C6F7475732F54+  "/Lotus/T"
1C3F  797065732F456E65+  "ypes/Ene"
1C47  6D6965732F477269+  "mies/Gri"
1C4F  6E6565722F477269+  "neer/Gri"
1C57  6E6565724D617269+  "neerMari"
1C5F  6E655269666C6500   "neRifle\0"
                         const [11]: "/Lotus/Types/Enemies/Grineer/GrineerMarineRifle"
1C67  01                 const type 3
1C68  24939581           const [12]: (-2120903900)
1C6C  01                 const type 3
1C6D  BB3AA4CA           const [13]: (-895206725)
1C71  03                 const type 3
1C72  0000F041           const [14]: (0)
1C76  01                 const type 3
1C77  94239925           const [15]: (630793108)
1C7B  04                 const type 4
1C7C  0C                 string size (12)
1C7D  5A45524F5F564543+  "ZERO_VEC"
1C85  544F5200           "TOR\0"
                         const [16]: "ZERO_VECTOR"
1C89  01                 const type 3
1C8A  0344B180           const [17]: (-2135866365)
1C8E  01                 const type 3
1C8F  98FD7463           const [18]: (1668611480)
1C93  04                 const type 4
1C94  06                 string size (6)
1C95  6D52616E6B00       "mRank\0"
                         const [19]: "mRank"
1C9B  03                 const type 3
1C9C  0000803F           const [20]: (0)
1CA0  01                 const type 3
1CA1  1C6FC6E9           const [21]: (-372871396)
                         * functions:
1CA5  00                 sizep (0)
                         * lines:
1CA6  4D                 sizelineinfo (77)
                         [pc] (line)
1CA7  18                 [01] (24)
1CA8  01                 [02] (26)
1CA9  00                 [03] (26)
1CAA  00                 [04] (26)
1CAB  1A                 [05] (26)
1CAC  01                 [06] (26)
1CAD  00                 [07] (28)
1CAE  00                 [08] (28)
1CAF  1A                 [09] (28)
1CB0  01                 [10] (28)
1CB1  00                 [11] (28)
1CB2  00                 [12] (29)
1CB3  1A                 [13] (29)
1CB4  01                 [14] (29)
1CB5  00                 [15] (30)
1CB6  00                 [16] (30)
1CB7  1A                 [17] (30)
1CB8  01                 [18] (32)
1CB9  00                 [19] (32)
1CBA  00                 [20] (32)
1CBB  1A                 [21] (32)
1CBC  01                 [22] (32)
1CBD  00                 [23] (33)
1CBE  00                 [24] (33)
1CBF  1C                 [25] (33)
1CC0  01                 [26] (33)
1CC1  00                 [27] (33)
1CC2  00                 [28] (33)
1CC3  1C                 [29] (35)
1CC4  01                 [30] (35)
1CC5  00                 [31] (35)
1CC6  00                 [32] (35)
1CC7  1C                 [33] (35)
1CC8  01                 [34] (35)
1CC9  00                 [35] (38)
1CCA  00                 [36] (38)
1CCB  1C                 [37] (38)
1CCC  01                 [38] (38)
1CCD  00                 [39] (38)
1CCE  00                 [40] (39)
1CCF  1C                 [41] (39)
1CD0  01                 [42] (39)
1CD1  00                 [43] (40)
1CD2  00                 [44] (40)
1CD3  1D                 [45] (40)
1CD4  01                 [46] (41)
1CD5  00                 [47] (41)
1CD6  00                 [48] (41)
1CD7  1D                 [49] (41)
1CD8  01                 [50] (41)
1CD9  00                 [51] (41)
1CDA  00                 [52] (41)
1CDB  1D                 [53] (41)
1CDC  01                 [54] (41)
1CDD  00                 [55] (46)
1CDE  00                 [56] (46)
1CDF  1E                 [57] (46)
1CE0  01                 [58] (46)
1CE1  00                 [59] (46)
1CE2  00                 [60] (46)
1CE3  1E                 [61] (48)
1CE4  01                 [62] (48)
1CE5  00                 [63] (50)
1CE6  00                 [64] (50)
1CE7  1E                 [65] (50)
1CE8  01                 [66] (50)
1CE9  00                 [67] (50)
1CEA  00                 [68] (50)
1CEB  20                 [69] (50)
1CEC  01                 [70] (51)
1CED  00                 [71] (51)
1CEE  00                 [72] (52)
1CEF  20                 [73] (52)
1CF0  01                 [74] (52)
1CF1  00                 [75] (52)
1CF2  00                 [76] (54)
1CF3  20                 [77] (55)
                         * locals:
1DDB  00                 sizelocvars (0)
                         * upvalues:
1DDC  00                 sizeupvalues (0)
                         ** end of function **

                         
1DDD                     ** function [6] definition (level 2)
                         ** start of function **
1DDD  00                 string size (0)
                         source name: (none)
1DDF  02                 line defined (313)
1DE0  C5                 last line defined (325)
1DE1  02                 nups (1)
1DE2  01                 numparams (1)
1DE3  01                 is_vararg (0)
1DE4  00                 maxstacksize (6)
                         * code:
1DE6  21                 sizecode (33)
1DE7  5D000000           [01] getglobal  1   0        ; 1074689893
1DEB  92000000           [02] move       2   0      
1DEF  62800001           [03] call       1   2   2  
1DF3  58400000           [04] test       1       1    ; to [6] if false
1DF7  1A400180           [05] jmp        6            ; to [12]
1DFB  5D000000           [06] getglobal  1   0        ; 1074689893
1DFF  A4404000           [07] self       2   0   257  ; -1411785325
1E03  A2000001           [08] call       2   2   0  
1E07  62800000           [09] call       1   0   2  
1E0B  58000000           [10] test       1       0    ; to [12] if true
1E0F  1A000080           [11] jmp        1            ; to [13]
1E13  1E008000           [12] return     0   1      
1E17  5D800000           [13] getglobal  1   2        ; gGameRules
1E1B  64C0C000           [14] self       1   1   259  ; -2136864363
1E1F  62800001           [15] call       1   2   2  
1E23  9D000000           [16] getglobal  2   0        ; 1074689893
1E27  D2008000           [17] move       3   1      
1E2B  A2800001           [18] call       2   2   2  
1E2F  98400000           [19] test       2       1    ; to [21] if false
1E33  1A400180           [20] jmp        6            ; to [27]
1E37  9D000000           [21] getglobal  2   0        ; 1074689893
1E3B  CE00C100           [22] gettable   3   1   260  ; "mTarget"
1E3F  CE40C101           [23] gettable   3   3   261  ; "mManifest"
1E43  A2800001           [24] call       2   2   2  
1E47  98000000           [25] test       2       0    ; to [27] if true
1E4B  1A000080           [26] jmp        1            ; to [28]
1E4F  1E008000           [27] return     0   1      
1E53  93000000           [28] getupval   2   0      
1E57  CE00C100           [29] gettable   3   1   260  ; "mTarget"
1E5B  24414000           [30] self       4   0   257  ; -1411785325
1E5F  22010001           [31] call       4   2   0  
1E63  A2400000           [32] call       2   0   1  
1E67  1E008000           [33] return     0   1      
                         * constants:
1E6B  06                 sizek (6)
1E6C  01                 const type 3
1E6D  65770E40           const [0]: (1074689893)
1E71  01                 const type 3
1E72  93DDD9AB           const [1]: (-1411785325)
1E76  04                 const type 4
1E77  0B                 string size (11)
1E78  6747616D6552756C+  "gGameRul"
1E80  657300             "es\0"
                         const [2]: "gGameRules"
1E83  01                 const type 3
1E84  9509A280           const [3]: (-2136864363)
1E88  04                 const type 4
1E89  08                 string size (8)
1E8A  6D54617267657400   "mTarget\0"
                         const [4]: "mTarget"
1E92  04                 const type 4
1E93  0A                 string size (10)
1E94  6D4D616E69666573+  "mManifes"
1E9C  7400               "t\0"
                         const [5]: "mManifest"
                         * functions:
1E9E  00                 sizep (0)
                         * lines:
1E9F  21                 sizelineinfo (33)
                         [pc] (line)
1EA0  3A                 [01] (58)
1EA1  01                 [02] (58)
1EA2  00                 [03] (58)
1EA3  00                 [04] (58)
1EA4  3A                 [05] (58)
1EA5  01                 [06] (58)
1EA6  00                 [07] (58)
1EA7  00                 [08] (58)
1EA8  3A                 [09] (58)
1EA9  01                 [10] (58)
1EAA  00                 [11] (58)
1EAB  00                 [12] (59)
1EAC  3A                 [13] (62)
1EAD  01                 [14] (62)
1EAE  00                 [15] (62)
1EAF  00                 [16] (63)
1EB0  3A                 [17] (63)
1EB1  01                 [18] (63)
1EB2  00                 [19] (63)
1EB3  00                 [20] (63)
1EB4  3A                 [21] (63)
1EB5  01                 [22] (63)
1EB6  00                 [23] (63)
1EB7  00                 [24] (63)
1EB8  3A                 [25] (63)
1EB9  01                 [26] (63)
1EBA  00                 [27] (65)
1EBB  00                 [28] (68)
1EBC  3A                 [29] (68)
1EBD  01                 [30] (68)
1EBE  00                 [31] (68)
1EBF  00                 [32] (68)
1EC0  3A                 [33] (69)
                         * locals:
1F24  00                 sizelocvars (0)
                         * upvalues:
1F25  00                 sizeupvalues (0)
                         ** end of function **

                         
1F26                     ** function [7] definition (level 2)
                         ** start of function **
1F26  00                 string size (0)
                         source name: (none)
1F28  02                 line defined (327)
1F29  F8                 last line defined (376)
1F2A  02                 nups (1)
1F2B  01                 numparams (2)
1F2C  02                 is_vararg (0)
1F2D  00                 maxstacksize (20)
                         * code:
1F2F  51                 sizecode (81)
1F30  99000000           [01] loadk      2   0        ; 0
1F34  D9400000           [02] loadk      3   1        ; -51
1F38  19410000           [03] loadk      4   1        ; -51
1F3C  59810000           [04] loadk      5   2        ; -51
1F40  99C10000           [05] loadk      6   3        ; 10
1F44  D9410000           [06] loadk      7   1        ; -51
1F48  19020100           [07] loadk      8   4        ; -51
1F4C  64424100           [08] self       9   0   261  ; 1735387039
1F50  62820001           [09] call       9   2   2  
fail op	33
1F54  2100C004           [10] tforloop   0       256  ; to [12] if exit
1F58  1A400080           [11] jmp        2            ; to [14]
1F5C  97020000           [12] loadbool   10  0   0    ; false
1F60  9E020001           [13] return     10  2      
1F64  84028104           [14] mul        10  9   4  
1F68  83800201           [15] add        2   2   10 
1F6C  9D820100           [16] getglobal  10  6        ; gRegion
1F70  A4C24105           [17] self       10  10  263  ; -774964848
1F74  A2820001           [18] call       10  2   2  
1F78  A4024205           [19] self       10  10  264  ; 537471347
1F7C  A2820001           [20] call       10  2   2  
1F80  E4424200           [21] self       11  0   265  ; -564624675
1F84  E2820001           [22] call       11  2   2  
1F88  24834205           [23] self       12  10  266  ; 1556657938
1F8C  92038005           [24] move       14  11     
1F90  22838001           [25] call       12  3   2  
1F94  64C34205           [26] self       13  10  267  ; -1484037462
1F98  D2038005           [27] move       15  11     
1F9C  62838001           [28] call       13  3   2  
1FA0  84430106           [29] mul        14  12  5  
1FA4  83800301           [30] add        2   2   14 
1FA8  A4034300           [31] self       14  0   268  ; -1903333237
1FAC  A2830001           [32] call       14  2   2  
1FB0  8D838386           [33] sub        14  269 14   ; 0
1FB4  84C30007           [34] mul        14  14  3  
1FB8  83800301           [35] add        2   2   14 
1FBC  A483C300           [36] self       14  1   270  ; 1722612532
1FC0  A2830001           [37] call       14  2   2  
1FC4  DDC30300           [38] getglobal  15  15       ; math
1FC8  CE03C407           [39] gettable   15  15  272  ; -1962864584
1FCC  19040000           [40] loadk      16  0        ; 0
1FD0  4D848388           [41] sub        17  273 14   ; 0
1FD4  E2838001           [42] call       15  3   2  
1FD8  C4838107           [43] mul        15  15  6  
1FDC  83C00301           [44] add        2   2   15 
1FE0  DD830400           [45] getglobal  15  18       ; gGameRules
1FE4  E4C3C407           [46] self       15  15  275  ; 1154264260
1FE8  E2830001           [47] call       15  2   2  
1FEC  2404C507           [48] self       16  15  276  ; 188678183
1FF0  22840001           [49] call       16  2   2  
1FF4  18040000           [50] test       16      0    ; to [52] if true
1FF8  1A000080           [51] jmp        1            ; to [53]
1FFC  83C00101           [52] add        2   2   7  
2000  1D440500           [53] getglobal  16  21       ; 1668611480
2004  52040001           [54] move       17  2      
2008  99040000           [55] loadk      18  0        ; 0
200C  D9440300           [56] loadk      19  13       ; 0
2010  22840002           [57] call       16  4   2  
2014  92000008           [58] move       2   16     
fail op	21
2018  15000201           [59] concat     0   2   8  
201C  1A400080           [60] jmp        2            ; to [63]
2020  17040000           [61] loadbool   16  0   0    ; false
2024  1E040001           [62] return     16  2      
2028  1D840500           [63] getglobal  16  22       ; -1828500651
202C  59C40500           [64] loadk      17  23       ; -51
2030  99040600           [65] loadk      18  24       ; 0
2034  CD040201           [66] sub        19  2   8  
2038  C444C609           [67] mul        19  19  281  ; 0
203C  22840002           [68] call       16  4   2  
2040  53040000           [69] getupval   17  0      
2044  58440000           [70] test       17      1    ; to [72] if false
2048  1AC00180           [71] jmp        8            ; to [80]
204C  5D840600           [72] getglobal  17  26       ; -1941280958
2050  99040000           [73] loadk      18  0        ; 0
2054  D9440300           [74] loadk      19  13       ; 0
2058  62848001           [75] call       17  3   2  
fail op	21
205C  55008408           [76] concat     1   17  16 
2060  1A000080           [77] jmp        1            ; to [79]
2064  57440000           [78] loadbool   17  0   1    ; false, to [80]
2068  57048000           [79] loadbool   17  1   0    ; true
206C  5E040001           [80] return     17  2      
2070  1E008000           [81] return     0   1      
                         * constants:
2074  1B                 sizek (27)
2075  03                 const type 3
2076  00000000           const [0]: (0)
207A  03                 const type 3
207B  CDCC4C3E           const [1]: (-51)
207F  03                 const type 3
2080  CDCC4C3D           const [2]: (-51)
2084  03                 const type 3
2085  0AD7233C           const [3]: (10)
2089  03                 const type 3
208A  CDCC4C3F           const [4]: (-51)
208E  01                 const type 3
208F  9FE76F67           const [5]: (1735387039)
2093  04                 const type 4
2094  08                 string size (8)
2095  67526567696F6E00   "gRegion\0"
                         const [6]: "gRegion"
209D  01                 const type 3
209E  90F9CED1           const [7]: (-774964848)
20A2  01                 const type 3
20A3  73290920           const [8]: (537471347)
20A7  01                 const type 3
20A8  DD8258DE           const [9]: (-564624675)
20AC  01                 const type 3
20AD  12B7C85C           const [10]: (1556657938)
20B1  01                 const type 3
20B2  AA628BA7           const [11]: (-1484037462)
20B6  01                 const type 3
20B7  8B708D8E           const [12]: (-1903333237)
20BB  03                 const type 3
20BC  0000803F           const [13]: (0)
20C0  01                 const type 3
20C1  34FBAC66           const [14]: (1722612532)
20C5  04                 const type 4
20C6  05                 string size (5)
20C7  6D61746800         "math\0"
                         const [15]: "math"
20CC  01                 const type 3
20CD  3810018B           const [16]: (-1962864584)
20D1  03                 const type 3
20D2  0000C841           const [17]: (0)
20D6  04                 const type 4
20D7  0B                 string size (11)
20D8  6747616D6552756C+  "gGameRul"
20E0  657300             "es\0"
                         const [18]: "gGameRules"
20E3  01                 const type 3
20E4  C4ACCC44           const [19]: (1154264260)
20E8  01                 const type 3
20E9  27003F0B           const [20]: (188678183)
20ED  01                 const type 3
20EE  98FD7463           const [21]: (1668611480)
20F2  01                 const type 3
20F3  554B0393           const [22]: (-1828500651)
20F7  03                 const type 3
20F8  CDCCCC3D           const [23]: (-51)
20FC  03                 const type 3
20FD  0000003F           const [24]: (0)
2101  03                 const type 3
2102  0000A040           const [25]: (0)
2106  01                 const type 3
2107  42674A8C           const [26]: (-1941280958)
                         * functions:
210B  00                 sizep (0)
                         * lines:
210C  51                 sizelineinfo (81)
                         [pc] (line)
210D  4B                 [01] (75)
210E  01                 [02] (78)
210F  00                 [03] (79)
2110  00                 [04] (80)
2111  4E                 [05] (81)
2112  01                 [06] (82)
2113  00                 [07] (83)
2114  00                 [08] (85)
2115  4F                 [09] (85)
2116  01                 [10] (86)
2117  00                 [11] (86)
2118  00                 [12] (87)
2119  50                 [13] (87)
211A  01                 [14] (89)
211B  00                 [15] (89)
211C  00                 [16] (91)
211D  51                 [17] (91)
211E  01                 [18] (91)
211F  00                 [19] (91)
2120  00                 [20] (91)
2121  52                 [21] (92)
2122  01                 [22] (92)
2123  00                 [23] (93)
2124  00                 [24] (93)
2125  53                 [25] (93)
2126  01                 [26] (96)
2127  00                 [27] (96)
2128  00                 [28] (96)
2129  55                 [29] (99)
212A  01                 [30] (99)
212B  00                 [31] (101)
212C  00                 [32] (101)
212D  55                 [33] (101)
212E  01                 [34] (101)
212F  00                 [35] (101)
2130  00                 [36] (103)
2131  56                 [37] (103)
2132  01                 [38] (104)
2133  00                 [39] (104)
2134  00                 [40] (104)
2135  56                 [41] (104)
2136  01                 [42] (104)
2137  00                 [43] (104)
2138  00                 [44] (104)
2139  57                 [45] (106)
213A  01                 [46] (106)
213B  00                 [47] (106)
213C  00                 [48] (107)
213D  57                 [49] (107)
213E  01                 [50] (107)
213F  00                 [51] (107)
2140  00                 [52] (108)
2141  59                 [53] (111)
2142  01                 [54] (111)
2143  00                 [55] (111)
2144  00                 [56] (111)
2145  59                 [57] (111)
2146  01                 [58] (111)
2147  00                 [59] (113)
2148  00                 [60] (113)
2149  5B                 [61] (114)
214A  01                 [62] (114)
214B  00                 [63] (117)
214C  00                 [64] (117)
214D  5B                 [65] (117)
214E  01                 [66] (117)
214F  00                 [67] (117)
2150  00                 [68] (117)
2151  5B                 [69] (119)
2152  01                 [70] (119)
2153  00                 [71] (119)
2154  00                 [72] (119)
2155  5B                 [73] (119)
2156  01                 [74] (119)
2157  00                 [75] (119)
2158  00                 [76] (119)
2159  5B                 [77] (119)
215A  01                 [78] (119)
215B  00                 [79] (119)
215C  00                 [80] (119)
215D  5C                 [81] (120)
                         * locals:
2251  00                 sizelocvars (0)
                         * upvalues:
2252  00                 sizeupvalues (0)
                         ** end of function **

                         
2253                     ** function [8] definition (level 2)
                         ** start of function **
2253  00                 string size (0)
                         source name: (none)
2255  02                 line defined (378)
2256  8F                 last line defined (399)
2257  03                 nups (0)
2258  00                 numparams (0)
2259  00                 is_vararg (0)
225A  00                 maxstacksize (9)
                         * code:
225C  2D                 sizecode (45)
225D  1D000000           [01] getglobal  0   0        ; _T
2261  0E404000           [02] gettable   0   0   257  ; "NemesisAllyIdx"
fail op	35
2265  23804000           [03] close      0  
2269  1A000880           [04] jmp        33           ; to [38]
226D  1DC00000           [05] getglobal  0   3        ; gGameData
2271  24004100           [06] self       0   0   260  ; 1412214576
2275  22800001           [07] call       0   2   2  
2279  4B000000           [08] newtable   1   0   0    ; array=0, hash=0
227D  99400100           [09] loadk      2   5        ; 0
2281  CA000000           [10] len        3   0      
2285  19410100           [11] loadk      4   5        ; 0
2289  90000280           [12] forprep    2   9        ; to [22]
228D  8E410100           [13] gettable   6   0   5  
2291  8E814103           [14] gettable   6   6   262  ; "mKilled"
2295  98410000           [15] test       6       1    ; to [17] if false
2299  1A000180           [16] jmp        5            ; to [22]
229D  9DC10100           [17] getglobal  6   7        ; table
22A1  8E014203           [18] gettable   6   6   264  ; -431682403
22A5  D2018000           [19] move       7   1      
22A9  12028002           [20] move       8   5      
22AD  A2418001           [21] call       6   3   1  
22B1  9440FD7F           [22] forloop    2   -10      ; to [13] if loop
22B5  8A018000           [23] len        6   1      
fail op	35
22B9  23404203           [24] close      0  
22BD  1A000180           [25] jmp        5            ; to [31]
22C1  9D810200           [26] getglobal  6   10       ; -1817107093
22C5  D9C10200           [27] loadk      7   11       ; "attempted to spawn ally lich but no liches have been converted!"
22C9  A2410001           [28] call       6   2   1  
22CD  86010003           [29] loadnil    6   6      
22D1  9E010001           [30] return     6   2      
22D5  9D010300           [31] getglobal  6   12       ; 2144646525
22D9  D9410100           [32] loadk      7   5        ; 0
22DD  0A028000           [33] len        8   1      
22E1  A2818001           [34] call       6   3   2  
22E5  DD010000           [35] getglobal  7   0        ; _T
22E9  0E828100           [36] gettable   8   1   6  
22ED  CC018280           [37] settable   7   257 8    ; "NemesisAllyIdx"
22F1  DDC10000           [38] getglobal  7   3        ; gGameData
22F5  E401C103           [39] self       7   7   260  ; 1412214576
22F9  E2810001           [40] call       7   2   2  
22FD  1D020000           [41] getglobal  8   0        ; _T
2301  0E424004           [42] gettable   8   8   257  ; "NemesisAllyIdx"
2305  CE018203           [43] gettable   7   7   8  
2309  DE010001           [44] return     7   2      
230D  1E008000           [45] return     0   1      
                         * constants:
2311  0D                 sizek (13)
2312  04                 const type 4
2313  03                 string size (3)
2314  5F5400             "_T\0"
                         const [0]: "_T"
2317  04                 const type 4
2318  0F                 string size (15)
2319  4E656D6573697341+  "NemesisA"
2321  6C6C7949647800     "llyIdx\0"
                         const [1]: "NemesisAllyIdx"
2328  00                 const type 0
                         const [2]: nil
2329  04                 const type 4
232A  0A                 string size (10)
232B  6747616D65446174+  "gGameDat"
2333  6100               "a\0"
                         const [3]: "gGameData"
2335  01                 const type 3
2336  30AF2C54           const [4]: (1412214576)
233A  03                 const type 3
233B  0000803F           const [5]: (0)
233F  04                 const type 4
2340  08                 string size (8)
2341  6D4B696C6C656400   "mKilled\0"
                         const [6]: "mKilled"
2349  04                 const type 4
234A  06                 string size (6)
234B  7461626C6500       "table\0"
                         const [7]: "table"
2351  01                 const type 3
2352  9D0C45E6           const [8]: (-431682403)
2356  03                 const type 3
2357  00000000           const [9]: (0)
235B  01                 const type 3
235C  6B25B193           const [10]: (-1817107093)
2360  04                 const type 4
2361  40                 string size (64)
2362  617474656D707465+  "attempte"
236A  6420746F20737061+  "d to spa"
2372  776E20616C6C7920+  "wn ally "
237A  6C69636820627574+  "lich but"
2382  206E6F206C696368+  " no lich"
238A  6573206861766520+  "es have "
2392  6265656E20636F6E+  "been con"
239A  7665727465642100   "verted!\0"
                         const [11]: "attempted to spawn ally lich but no liches have been converted!"
23A2  01                 const type 3
23A3  7DB5D47F           const [12]: (2144646525)
                         * functions:
23A7  00                 sizep (0)
                         * lines:
23A8  2D                 sizelineinfo (45)
                         [pc] (line)
23A9  7C                 [01] (124)
23AA  01                 [02] (124)
23AB  00                 [03] (124)
23AC  00                 [04] (124)
23AD  7C                 [05] (125)
23AE  01                 [06] (125)
23AF  00                 [07] (125)
23B0  00                 [08] (126)
23B1  7C                 [09] (127)
23B2  01                 [10] (127)
23B3  00                 [11] (127)
23B4  00                 [12] (127)
23B5  7C                 [13] (-128)
23B6  01                 [14] (-128)
23B7  00                 [15] (-128)
23B8  00                 [16] (-128)
23B9  7D                 [17] (-127)
23BA  01                 [18] (-127)
23BB  00                 [19] (-127)
23BC  00                 [20] (-127)
23BD  7D                 [21] (-127)
23BE  01                 [22] (127)
23BF  00                 [23] (-123)
23C0  00                 [24] (-123)
23C1  7D                 [25] (-123)
23C2  01                 [26] (-122)
23C3  00                 [27] (-122)
23C4  00                 [28] (-122)
23C5  7E                 [29] (-121)
23C6  01                 [30] (-121)
23C7  00                 [31] (-118)
23C8  00                 [32] (-118)
23C9  7F                 [33] (-118)
23CA  01                 [34] (-118)
23CB  00                 [35] (-117)
23CC  00                 [36] (-117)
23CD  7F                 [37] (-117)
23CE  01                 [38] (-114)
23CF  00                 [39] (-114)
23D0  00                 [40] (-114)
23D1  7F                 [41] (-114)
23D2  01                 [42] (-114)
23D3  00                 [43] (-114)
23D4  00                 [44] (-114)
23D5  7F                 [45] (-113)
                         * locals:
245D  00                 sizelocvars (0)
                         * upvalues:
245E  00                 sizeupvalues (0)
                         ** end of function **

                         
245F                     ** function [9] definition (level 2)
                         ** start of function **
245F  00                 string size (0)
                         source name: (none)
2461  03                 line defined (401)
2462  B0                 last line defined (432)
2463  03                 nups (2)
2464  02                 numparams (1)
2465  01                 is_vararg (0)
2466  00                 maxstacksize (8)
                         * code:
2468  55                 sizecode (85)
2469  4B000000           [01] newtable   1   0   0    ; array=0, hash=0
246D  8E004000           [02] gettable   2   0   256  ; "mManifest"
2471  A4404001           [03] self       2   2   257  ; 455421500
2475  A2000001           [04] call       2   2   0  
2479  5B400000           [05] setlist    1   0   1    ; index 1 to top
247D  9D800000           [06] getglobal  2   2        ; gGameRules
2481  A4C04001           [07] self       2   2   259  ; 127295906
2485  12018000           [08] move       4   1      
2489  A2408001           [09] call       2   3   1  
248D  9D000100           [10] getglobal  2   4        ; UISys
2491  8E404101           [11] gettable   2   2   261  ; 1151030240
2495  D2008000           [12] move       3   1      
2499  A2800001           [13] call       2   2   2  
249D  DD800100           [14] getglobal  3   6        ; 1074689893
24A1  12010001           [15] move       4   2      
24A5  E2800001           [16] call       3   2   2  
24A9  D8400000           [17] test       3       1    ; to [19] if false
24AD  1AC00180           [18] jmp        8            ; to [27]
24B1  E4C04101           [19] self       3   2   263  ; -1344420604
24B5  E2800001           [20] call       3   2   2  
24B9  D8400000           [21] test       3       1    ; to [23] if false
24BD  1AC00080           [22] jmp        4            ; to [27]
24C1  DD000200           [23] getglobal  3   8        ; 538022378
24C5  19410200           [24] loadk      4   9        ; 0
24C9  E2400001           [25] call       3   2   1  
24CD  1A80FC7F           [26] jmp        -13          ; to [14]
24D1  D3000000           [27] getupval   3   0      
24D5  D8400000           [28] test       3       1    ; to [30] if false
24D9  1A800280           [29] jmp        11           ; to [41]
24DD  DD800200           [30] getglobal  3   10       ; _T
24E1  CEC0C201           [31] gettable   3   3   267  ; "forceSpawnAllyNemesis"
24E5  D8400000           [32] test       3       1    ; to [34] if false
24E9  1A800180           [33] jmp        7            ; to [41]
24ED  DD800200           [34] getglobal  3   10       ; _T
24F1  CE00C301           [35] gettable   3   3   268  ; "forceSpawnNemesis"
24F5  D8400000           [36] test       3       1    ; to [38] if false
24F9  1A800080           [37] jmp        3            ; to [41]
24FD  DD000200           [38] getglobal  3   8        ; 538022378
2501  19410300           [39] loadk      4   13       ; 0
2505  E2400001           [40] call       3   2   1  
2509  D3008000           [41] getupval   3   1      
250D  CE80C301           [42] gettable   3   3   270  ; -2079289879
2511  12010000           [43] move       4   0      
2515  E2800001           [44] call       3   2   2  
2519  13018000           [45] getupval   4   1      
251D  0EC14302           [46] gettable   4   4   271  ; -1186560387
2521  52018001           [47] move       5   3      
2525  22810001           [48] call       4   2   2  
2529  5D810000           [49] getglobal  5   2        ; gGameRules
252D  64C1C002           [50] self       5   5   259  ; 127295906
2531  D2010002           [51] move       7   4      
2535  62418001           [52] call       5   3   1  
2539  5D010100           [53] getglobal  5   4        ; UISys
253D  4E41C102           [54] gettable   5   5   261  ; 1151030240
2541  92010002           [55] move       6   4      
2545  62810001           [56] call       5   2   2  
2549  9D810100           [57] getglobal  6   6        ; 1074689893
254D  D2018002           [58] move       7   5      
2551  A2810001           [59] call       6   2   2  
2555  98410000           [60] test       6       1    ; to [62] if false
2559  1AC00180           [61] jmp        8            ; to [70]
255D  A4C1C102           [62] self       6   5   263  ; -1344420604
2561  A2810001           [63] call       6   2   2  
2565  98410000           [64] test       6       1    ; to [66] if false
2569  1AC00080           [65] jmp        4            ; to [70]
256D  9D010200           [66] getglobal  6   8        ; 538022378
2571  D9410200           [67] loadk      7   9        ; 0
2575  A2410001           [68] call       6   2   1  
2579  1A80FC7F           [69] jmp        -13          ; to [57]
257D  93010000           [70] getupval   6   0      
2581  98410000           [71] test       6       1    ; to [73] if false
2585  1A800280           [72] jmp        11           ; to [84]
2589  9D810200           [73] getglobal  6   10       ; _T
258D  8EC14203           [74] gettable   6   6   267  ; "forceSpawnAllyNemesis"
2591  98410000           [75] test       6       1    ; to [77] if false
2595  1A800180           [76] jmp        7            ; to [84]
2599  9D810200           [77] getglobal  6   10       ; _T
259D  8E014303           [78] gettable   6   6   268  ; "forceSpawnNemesis"
25A1  98410000           [79] test       6       1    ; to [81] if false
25A5  1A800080           [80] jmp        3            ; to [84]
25A9  9D010200           [81] getglobal  6   8        ; 538022378
25AD  D9010400           [82] loadk      7   16       ; 0
25B1  A2410001           [83] call       6   2   1  
25B5  DE000001           [84] return     3   2      
25B9  1E008000           [85] return     0   1      
                         * constants:
25BD  11                 sizek (17)
25BE  04                 const type 4
25BF  0A                 string size (10)
25C0  6D4D616E69666573+  "mManifes"
25C8  7400               "t\0"
                         const [0]: "mManifest"
25CA  01                 const type 3
25CB  3C2E251B           const [1]: (455421500)
25CF  04                 const type 4
25D0  0B                 string size (11)
25D1  6747616D6552756C+  "gGameRul"
25D9  657300             "es\0"
                         const [2]: "gGameRules"
25DC  01                 const type 3
25DD  A2619607           const [3]: (127295906)
25E1  04                 const type 4
25E2  06                 string size (6)
25E3  554953797300       "UISys\0"
                         const [4]: "UISys"
25E9  01                 const type 3
25EA  E0539B44           const [5]: (1151030240)
25EE  01                 const type 3
25EF  65770E40           const [6]: (1074689893)
25F3  01                 const type 3
25F4  04C5DDAF           const [7]: (-1344420604)
25F8  01                 const type 3
25F9  EA911120           const [8]: (538022378)
25FD  03                 const type 3
25FE  00000000           const [9]: (0)
2602  04                 const type 4
2603  03                 string size (3)
2604  5F5400             "_T\0"
                         const [10]: "_T"
2607  04                 const type 4
2608  16                 string size (22)
2609  666F726365537061+  "forceSpa"
2611  776E416C6C794E65+  "wnAllyNe"
2619  6D6573697300       "mesis\0"
                         const [11]: "forceSpawnAllyNemesis"
261F  04                 const type 4
2620  12                 string size (18)
2621  666F726365537061+  "forceSpa"
2629  776E4E656D657369+  "wnNemesi"
2631  7300               "s\0"
                         const [12]: "forceSpawnNemesis"
2633  03                 const type 3
2634  0000A040           const [13]: (0)
2638  01                 const type 3
2639  E98D1084           const [14]: (-2079289879)
263D  01                 const type 3
263E  7D8646B9           const [15]: (-1186560387)
2642  03                 const type 3
2643  00002041           const [16]: (0)
                         * functions:
2647  00                 sizep (0)
                         * lines:
2648  55                 sizelineinfo (85)
                         [pc] (line)
2649  93                 [01] (-109)
264A  01                 [02] (-109)
264B  00                 [03] (-109)
264C  00                 [04] (-109)
264D  93                 [05] (-109)
264E  01                 [06] (-108)
264F  00                 [07] (-108)
2650  00                 [08] (-108)
2651  93                 [09] (-108)
2652  01                 [10] (-107)
2653  00                 [11] (-107)
2654  00                 [12] (-107)
2655  93                 [13] (-107)
2656  01                 [14] (-106)
2657  00                 [15] (-106)
2658  00                 [16] (-106)
2659  93                 [17] (-106)
265A  01                 [18] (-106)
265B  00                 [19] (-106)
265C  00                 [20] (-106)
265D  94                 [21] (-106)
265E  01                 [22] (-106)
265F  00                 [23] (-105)
2660  00                 [24] (-105)
2661  94                 [25] (-105)
2662  01                 [26] (-105)
2663  00                 [27] (-101)
2664  00                 [28] (-101)
2665  94                 [29] (-101)
2666  01                 [30] (-101)
2667  00                 [31] (-101)
2668  00                 [32] (-101)
2669  94                 [33] (-101)
266A  01                 [34] (-101)
266B  00                 [35] (-101)
266C  00                 [36] (-101)
266D  95                 [37] (-101)
266E  01                 [38] (-100)
266F  00                 [39] (-100)
2670  00                 [40] (-100)
2671  95                 [41] (-96)
2672  01                 [42] (-96)
2673  00                 [43] (-96)
2674  00                 [44] (-96)
2675  95                 [45] (-93)
2676  01                 [46] (-93)
2677  00                 [47] (-93)
2678  00                 [48] (-93)
2679  95                 [49] (-92)
267A  01                 [50] (-92)
267B  00                 [51] (-92)
267C  00                 [52] (-92)
267D  96                 [53] (-91)
267E  01                 [54] (-91)
267F  00                 [55] (-91)
2680  00                 [56] (-91)
2681  96                 [57] (-90)
2682  01                 [58] (-90)
2683  00                 [59] (-90)
2684  00                 [60] (-90)
2685  96                 [61] (-90)
2686  01                 [62] (-90)
2687  00                 [63] (-90)
2688  00                 [64] (-90)
2689  96                 [65] (-90)
268A  01                 [66] (-89)
268B  00                 [67] (-89)
268C  00                 [68] (-89)
268D  96                 [69] (-89)
268E  01                 [70] (-85)
268F  00                 [71] (-85)
2690  00                 [72] (-85)
2691  96                 [73] (-85)
2692  01                 [74] (-85)
2693  00                 [75] (-85)
2694  00                 [76] (-85)
2695  96                 [77] (-85)
2696  01                 [78] (-85)
2697  00                 [79] (-85)
2698  00                 [80] (-85)
2699  96                 [81] (-84)
269A  01                 [82] (-84)
269B  00                 [83] (-84)
269C  00                 [84] (-81)
269D  96                 [85] (-80)
                         * locals:
279D  00                 sizelocvars (0)
                         * upvalues:
279E  00                 sizeupvalues (0)
                         ** end of function **

                         
279F                     ** function [10] definition (level 2)
                         ** start of function **
279F  00                 string size (0)
                         source name: (none)
27A1  03                 line defined (434)
27A2  CE                 last line defined (462)
27A3  03                 nups (2)
27A4  02                 numparams (0)
27A5  00                 is_vararg (0)
27A6  00                 maxstacksize (9)
                         * code:
27A8  3F                 sizecode (63)
27A9  1D000000           [01] getglobal  0   0        ; _T
27AD  5D800000           [02] getglobal  1   2        ; gRegion
27B1  64C0C000           [03] self       1   1   259  ; 925677844
27B5  62800001           [04] call       1   2   2  
27B9  0C408080           [05] settable   0   257 1    ; "StalkerTargetPlayer"
27BD  1D000100           [06] getglobal  0   4        ; gGameRules
27C1  24404100           [07] self       0   0   261  ; 659469169
27C5  22800001           [08] call       0   2   2  
27C9  53000000           [09] getupval   1   0      
27CD  8E804100           [10] gettable   2   0   262  ; "mTarget"
27D1  62800001           [11] call       1   2   2  
27D5  8EC0C100           [12] gettable   2   1   263  ; "mLevel"
27D9  D3008000           [13] getupval   3   1      
27DD  CE00C201           [14] gettable   3   3   264  ; -188161244
27E1  1D410200           [15] getglobal  4   9        ; -895206725
27E5  4E81C200           [16] gettable   5   1   266  ; "mAgent"
27E9  22810001           [17] call       4   2   2  
27ED  46018002           [18] loadnil    5   5      
27F1  9DC10200           [19] getglobal  6   11       ; -332969190
27F5  D9010300           [20] loadk      7   12       ; "TENNO"
27F9  A2810001           [21] call       6   2   2  
27FD  D2010001           [22] move       7   2      
2801  E2808002           [23] call       3   5   2  
2805  1D410300           [24] getglobal  4   13       ; 1074689893
2809  52018001           [25] move       5   3      
280D  22810001           [26] call       4   2   2  
2811  18010000           [27] test       4       0    ; to [29] if true
2815  1A000080           [28] jmp        1            ; to [30]
2819  1E008000           [29] return     0   1      
281D  2481C301           [30] self       4   3   270  ; -2135866365
2821  22810001           [31] call       4   2   2  
2825  5D410300           [32] getglobal  5   13       ; 1074689893
2829  92010002           [33] move       6   4      
282D  62810001           [34] call       5   2   2  
2831  58010000           [35] test       5       0    ; to [37] if true
2835  1A000080           [36] jmp        1            ; to [38]
2839  1E008000           [37] return     0   1      
283D  5DC10300           [38] getglobal  5   15       ; 538022378
2841  99010400           [39] loadk      6   16       ; 0
2845  62410001           [40] call       5   2   1  
2849  64414402           [41] self       5   4   273  ; 1888920740
284D  DDC10200           [42] getglobal  7   11       ; -332969190
2851  0E82C400           [43] gettable   8   1   274  ; "mName"
2855  E2010001           [44] call       7   2   0  
2859  62410000           [45] call       5   0   1  
285D  64C14402           [46] self       5   4   275  ; -1338608417
2861  DDC10200           [47] getglobal  7   11       ; -332969190
2865  19020300           [48] loadk      8   12       ; "TENNO"
2869  E2010001           [49] call       7   2   0  
286D  62410000           [50] call       5   0   1  
2871  64014502           [51] self       5   4   276  ; 155743781
2875  D9410500           [52] loadk      7   21       ; 0
2879  62418001           [53] call       5   3   1  
287D  64814502           [54] self       5   4   278  ; -1329333704
2881  D7010000           [55] loadbool   7   0   0    ; false
2885  62418001           [56] call       5   3   1  
2889  64C1C501           [57] self       5   3   279  ; 1755388072
288D  DD010000           [58] getglobal  7   0        ; _T
2891  CE41C003           [59] gettable   7   7   257  ; "StalkerTargetPlayer"
2895  E481C303           [60] self       7   7   270  ; -2135866365
2899  E2010001           [61] call       7   2   0  
289D  62410000           [62] call       5   0   1  
28A1  1E008000           [63] return     0   1      
                         * constants:
28A5  18                 sizek (24)
28A6  04                 const type 4
28A7  03                 string size (3)
28A8  5F5400             "_T\0"
                         const [0]: "_T"
28AB  04                 const type 4
28AC  14                 string size (20)
28AD  5374616C6B657254+  "StalkerT"
28B5  6172676574506C61+  "argetPla"
28BD  79657200           "yer\0"
                         const [1]: "StalkerTargetPlayer"
28C1  04                 const type 4
28C2  08                 string size (8)
28C3  67526567696F6E00   "gRegion\0"
                         const [2]: "gRegion"
28CB  01                 const type 3
28CC  14B92C37           const [3]: (925677844)
28D0  04                 const type 4
28D1  0B                 string size (11)
28D2  6747616D6552756C+  "gGameRul"
28DA  657300             "es\0"
                         const [4]: "gGameRules"
28DD  01                 const type 3
28DE  71B34E27           const [5]: (659469169)
28E2  04                 const type 4
28E3  08                 string size (8)
28E4  6D54617267657400   "mTarget\0"
                         const [6]: "mTarget"
28EC  04                 const type 4
28ED  07                 string size (7)
28EE  6D4C6576656C00     "mLevel\0"
                         const [7]: "mLevel"
28F5  01                 const type 3
28F6  24E3C8F4           const [8]: (-188161244)
28FA  01                 const type 3
28FB  BB3AA4CA           const [9]: (-895206725)
28FF  04                 const type 4
2900  07                 string size (7)
2901  6D4167656E7400     "mAgent\0"
                         const [10]: "mAgent"
2908  01                 const type 3
2909  1A4B27EC           const [11]: (-332969190)
290D  04                 const type 4
290E  06                 string size (6)
290F  54454E4E4F00       "TENNO\0"
                         const [12]: "TENNO"
2915  01                 const type 3
2916  65770E40           const [13]: (1074689893)
291A  01                 const type 3
291B  0344B180           const [14]: (-2135866365)
291F  01                 const type 3
2920  EA911120           const [15]: (538022378)
2924  03                 const type 3
2925  00000000           const [16]: (0)
2929  01                 const type 3
292A  A4A49670           const [17]: (1888920740)
292E  04                 const type 4
292F  06                 string size (6)
2930  6D4E616D6500       "mName\0"
                         const [18]: "mName"
2936  01                 const type 3
2937  DF7436B0           const [19]: (-1338608417)
293B  01                 const type 3
293C  25764809           const [20]: (155743781)
2940  03                 const type 3
2941  0000A0C0           const [21]: (0)
2945  01                 const type 3
2946  38FAC3B0           const [22]: (-1329333704)
294A  01                 const type 3
294B  A818A168           const [23]: (1755388072)
                         * functions:
294F  00                 sizep (0)
                         * lines:
2950  3F                 sizelineinfo (63)
                         [pc] (line)
2951  B7                 [01] (-73)
2952  01                 [02] (-73)
2953  00                 [03] (-73)
2954  00                 [04] (-73)
2955  B7                 [05] (-73)
2956  01                 [06] (-71)
2957  00                 [07] (-71)
2958  00                 [08] (-71)
2959  B7                 [09] (-70)
295A  01                 [10] (-70)
295B  00                 [11] (-70)
295C  00                 [12] (-69)
295D  B7                 [13] (-68)
295E  01                 [14] (-68)
295F  00                 [15] (-68)
2960  00                 [16] (-68)
2961  B7                 [17] (-68)
2962  01                 [18] (-68)
2963  00                 [19] (-68)
2964  00                 [20] (-68)
2965  B9                 [21] (-68)
2966  01                 [22] (-68)
2967  00                 [23] (-68)
2968  00                 [24] (-67)
2969  B9                 [25] (-67)
296A  01                 [26] (-67)
296B  00                 [27] (-67)
296C  00                 [28] (-67)
296D  B9                 [29] (-66)
296E  01                 [30] (-63)
296F  00                 [31] (-63)
2970  00                 [32] (-62)
2971  BA                 [33] (-62)
2972  01                 [34] (-62)
2973  00                 [35] (-62)
2974  00                 [36] (-62)
2975  BA                 [37] (-61)
2976  01                 [38] (-57)
2977  00                 [39] (-57)
2978  00                 [40] (-57)
2979  BA                 [41] (-55)
297A  01                 [42] (-55)
297B  00                 [43] (-55)
297C  00                 [44] (-55)
297D  BB                 [45] (-55)
297E  01                 [46] (-54)
297F  00                 [47] (-54)
2980  00                 [48] (-54)
2981  BC                 [49] (-54)
2982  01                 [50] (-54)
2983  00                 [51] (-53)
2984  00                 [52] (-53)
2985  BC                 [53] (-53)
2986  01                 [54] (-52)
2987  00                 [55] (-52)
2988  00                 [56] (-52)
2989  BC                 [57] (-51)
298A  01                 [58] (-51)
298B  00                 [59] (-51)
298C  00                 [60] (-51)
298D  BC                 [61] (-51)
298E  01                 [62] (-51)
298F  00                 [63] (-50)
                         * locals:
2A4D  00                 sizelocvars (0)
                         * upvalues:
2A4E  00                 sizeupvalues (0)
                         ** end of function **

                         
2A4F                     ** function [11] definition (level 2)
                         ** start of function **
2A4F  00                 string size (0)
                         source name: (none)
2A51  03                 line defined (464)
2A52  CD                 last line defined (589)
2A53  04                 nups (9)
2A54  09                 numparams (1)
2A55  01                 is_vararg (0)
2A56  00                 maxstacksize (29)
                         * code:
2A59  01                 sizecode (249)
2A5A  5D000000           [001] getglobal  1   0        ; -1817107093
2A5E  99400000           [002] loadk      2   1        ; "Nemesis: spawn (Encounter Type: "
2A62  DD800000           [003] getglobal  3   2        ; -1615931716
2A66  12010000           [004] move       4   0      
2A6A  E2800001           [005] call       3   2   2  
2A6E  19C10000           [006] loadk      4   3        ; ")"
2A72  82000101           [007] concat     2   2   4  
2A76  62400001           [008] call       1   2   1  
2A7A  5D000100           [009] getglobal  1   4        ; Lotus_Game
2A7E  4E40C100           [010] gettable   1   1   261  ; "NE_NEMESIS_ALLY"
fail op	35
2A82  23400000           [011] close      0  
2A86  1A800080           [012] jmp        3            ; to [16]
2A8A  53000000           [013] getupval   1   0      
2A8E  62408000           [014] call       1   1   1  
2A92  1E008000           [015] return     0   1      
2A96  5D800100           [016] getglobal  1   6        ; _T
2A9A  4EC0C100           [017] gettable   1   1   263  ; "gNemesis"
2A9E  8B400000           [018] newtable   2   0   1    ; array=0, hash=1
2AA2  8C80C284           [019] settable   2   265 266  ; "stalk" 1
2AA6  4C800084           [020] settable   1   264 2    ; "mission"
2AAA  5D800100           [021] getglobal  1   6        ; _T
2AAE  4EC0C100           [022] gettable   1   1   263  ; "gNemesis"
2AB2  8E00C200           [023] gettable   2   1   264  ; "mission"
fail op	5
2AB6  C5000001           [024] getglobal  3   1024     ; nil
2ABA  1A000080           [025] jmp        1            ; to [27]
2ABE  CEC04201           [026] gettable   3   2   267  ; "isNewEnemy"
2AC2  17010000           [027] loadbool   4   0   0    ; false
2AC6  57010000           [028] loadbool   5   0   0    ; false
2ACA  9D010300           [029] getglobal  6   12       ; gGameRules
2ACE  A4414303           [030] self       6   6   269  ; -2136864363
2AD2  A2810001           [031] call       6   2   2  
2AD6  CE814303           [032] gettable   7   6   270  ; "mTarget"
2ADA  0EC24303           [033] gettable   8   6   271  ; "mPlayer"
2ADE  6402C403           [034] self       9   7   272  ; -881195448
2AE2  62820001           [035] call       9   2   2  
2AE6  9D420400           [036] getglobal  10  17       ; -849773159
2AEA  D9820400           [037] loadk      11  18       ; 0
2AEE  A2820001           [038] call       10  2   2  
fail op	35
2AF2  23808204           [039] close      0  
2AF6  1A000080           [040] jmp        1            ; to [42]
2AFA  1E008000           [041] return     0   1      
2AFE  93028000           [042] getupval   10  1      
2B02  98420000           [043] test       10      1    ; to [45] if false
2B06  1A400380           [044] jmp        14           ; to [59]
2B0A  9D820100           [045] getglobal  10  6        ; _T
2B0E  8EC24405           [046] gettable   10  10  275  ; "forceSpawnNemesis"
2B12  98420000           [047] test       10      1    ; to [49] if false
2B16  1A400280           [048] jmp        10           ; to [59]
2B1A  9D820100           [049] getglobal  10  6        ; _T
2B1E  8E024505           [050] gettable   10  10  276  ; "forceSpawnHenchmen"
2B22  98420000           [051] test       10      1    ; to [53] if false
2B26  1A400180           [052] jmp        6            ; to [59]
2B2A  9D420500           [053] getglobal  10  21       ; _G
2B2E  8E824505           [054] gettable   10  10  278  ; "ForceSpawnNemesis"
2B32  98420000           [055] test       10      1    ; to [57] if false
2B36  1A400080           [056] jmp        2            ; to [59]
2B3A  93020001           [057] getupval   10  2      
2B3E  A2428000           [058] call       10  1   1  
2B42  8EC2C500           [059] gettable   10  1   279  ; "firstTime"
2B46  98020000           [060] test       10      0    ; to [62] if true
2B4A  1A000280           [061] jmp        9            ; to [71]
2B4E  4C00C68B           [062] settable   1   279 280  ; "firstTime" nil
2B52  9D420600           [063] getglobal  10  25       ; gFlashMgr
2B56  A4824605           [064] self       10  10  282  ; 38794118
2B5A  1DC30600           [065] getglobal  12  27       ; creationMovie
2B5E  A2828001           [066] call       10  3   2  
2B62  E4024705           [067] self       11  10  284  ; 1167009705
2B66  59430700           [068] loadk      13  29       ; "ShowCreation"
2B6A  99830700           [069] loadk      14  30       ; ""
2B6E  E2420002           [070] call       11  4   1  
2B72  58010000           [071] test       5       0    ; to [73] if true
2B76  1A000080           [072] jmp        1            ; to [74]
2B7A  1E008000           [073] return     0   1      
2B7E  D3028001           [074] getupval   11  3      
2B82  CEC2C705           [075] gettable   11  11  287  ; -155362804
2B86  E2828000           [076] call       11  1   2  
2B8A  D8420000           [077] test       11      1    ; to [79] if false
2B8E  1A000080           [078] jmp        1            ; to [80]
2B92  1E008000           [079] return     0   1      
2B96  1D030800           [080] getglobal  12  32       ; 1074689893
2B9A  5D430800           [081] getglobal  13  33       ; gRegion
2B9E  6483C806           [082] self       13  13  290  ; 2066713391
2BA2  62030001           [083] call       13  2   0  
2BA6  22830000           [084] call       12  0   2  
2BAA  18430000           [085] test       12      1    ; to [87] if false
2BAE  1AC00080           [086] jmp        4            ; to [91]
2BB2  1DC30800           [087] getglobal  12  35       ; 538022378
2BB6  59030900           [088] loadk      13  36       ; -51
2BBA  22430001           [089] call       12  2   1  
2BBE  1A00FD7F           [090] jmp        -11          ; to [80]
2BC2  1D030800           [091] getglobal  12  32       ; 1074689893
2BC6  52030004           [092] move       13  8      
2BCA  22830001           [093] call       12  2   2  
2BCE  18030000           [094] test       12      0    ; to [96] if true
2BD2  1A000080           [095] jmp        1            ; to [97]
2BD6  1E008000           [096] return     0   1      
2BDA  13030002           [097] getupval   12  4      
2BDE  0E434906           [098] gettable   12  12  293  ; -2079289879
2BE2  52038003           [099] move       13  7      
2BE6  22830001           [100] call       12  2   2  
2BEA  5D830100           [101] getglobal  13  6        ; _T
2BEE  4C030293           [102] settable   13  294 8    ; "StalkerTargetPlayer"
2BF2  5D430800           [103] getglobal  13  33       ; gRegion
2BF6  64C3C906           [104] self       13  13  295  ; 65205951
2BFA  62830001           [105] call       13  2   2  
2BFE  9D830100           [106] getglobal  14  6        ; _T
2C02  8EC34107           [107] gettable   14  14  263  ; "gNemesis"
2C06  8E034207           [108] gettable   14  14  264  ; "mission"
2C0A  8E034A07           [109] gettable   14  14  296  ; "spawnPoint"
2C0E  DD030800           [110] getglobal  15  32       ; 1074689893
2C12  12040007           [111] move       16  14     
2C16  E2830001           [112] call       15  2   2  
2C1A  D8030000           [113] test       15      0    ; to [115] if true
2C1E  1A800080           [114] jmp        3            ; to [118]
2C22  D3038002           [115] getupval   15  5      
2C26  E2838000           [116] call       15  1   2  
2C2A  92038007           [117] move       14  15     
2C2E  CE434A06           [118] gettable   15  12  297  ; "mLevel"
2C32  06040008           [119] loadnil    16  16     
2C36  5D040800           [120] getglobal  17  32       ; 1074689893
2C3A  92040007           [121] move       18  14     
2C3E  62840001           [122] call       17  2   2  
2C42  58440000           [123] test       17      1    ; to [125] if false
2C46  1A000380           [124] jmp        13           ; to [138]
2C4A  53048001           [125] getupval   17  3      
2C4E  4E84CA08           [126] gettable   17  17  298  ; -188161244
2C52  9DC40A00           [127] getglobal  18  43       ; -895206725
2C56  CE044B06           [128] gettable   19  12  300  ; "mAgent"
2C5A  A2840001           [129] call       18  2   2  
2C5E  D2040007           [130] move       19  14     
2C62  0605000A           [131] loadnil    20  20     
2C66  52058007           [132] move       21  15     
2C6A  62848002           [133] call       17  5   2  
2C6E  12048008           [134] move       16  17     
2C72  64444B07           [135] self       17  14  301  ; -725453761
2C76  62440001           [136] call       17  2   1  
2C7A  1A000280           [137] jmp        9            ; to [147]
2C7E  53048001           [138] getupval   17  3      
2C82  4E84CA08           [139] gettable   17  17  298  ; -188161244
2C86  9DC40A00           [140] getglobal  18  43       ; -895206725
2C8A  CE044B06           [141] gettable   19  12  300  ; "mAgent"
2C8E  A2840001           [142] call       18  2   2  
2C92  C604000A           [143] loadnil    19  20     
2C96  52058007           [144] move       21  15     
2C9A  62848002           [145] call       17  5   2  
2C9E  12048008           [146] move       16  17     
2CA2  53040003           [147] getupval   17  6      
2CA6  4E84CB08           [148] gettable   17  17  302  ; 630793108
2CAA  93048003           [149] getupval   18  7      
2CAE  62440001           [150] call       17  2   1  
2CB2  5D040800           [151] getglobal  17  32       ; 1074689893
2CB6  92040008           [152] move       18  16     
2CBA  62840001           [153] call       17  2   2  
2CBE  58040000           [154] test       17      0    ; to [156] if true
2CC2  1A000080           [155] jmp        1            ; to [157]
2CC6  1E008000           [156] return     0   1      
2CCA  64C44B08           [157] self       17  16  303  ; -2135866365
2CCE  62840001           [158] call       17  2   2  
2CD2  9D040800           [159] getglobal  18  32       ; 1074689893
2CD6  D2048008           [160] move       19  17     
2CDA  A2840001           [161] call       18  2   2  
2CDE  98040000           [162] test       18      0    ; to [164] if true
2CE2  1A000080           [163] jmp        1            ; to [165]
2CE6  1E008000           [164] return     0   1      
2CEA  A4044C08           [165] self       18  16  304  ; -1850937571
2CEE  A2440001           [166] call       18  2   1  
2CF2  9DC40800           [167] getglobal  18  35       ; 538022378
2CF6  D9840400           [168] loadk      19  18       ; 0
2CFA  A2440001           [169] call       18  2   1  
2CFE  9DC40800           [170] getglobal  18  35       ; 538022378
2D02  D9840400           [171] loadk      19  18       ; 0
2D06  A2440001           [172] call       18  2   1  
2D0A  9D040800           [173] getglobal  18  32       ; 1074689893
2D0E  D2048008           [174] move       19  17     
2D12  A2840001           [175] call       18  2   2  
2D16  98040000           [176] test       18      0    ; to [178] if true
2D1A  1AC00080           [177] jmp        4            ; to [182]
2D1E  9D040000           [178] getglobal  18  0        ; -1817107093
2D22  D9440C00           [179] loadk      19  49       ; "Nemesis.lua -- Nemesis got two-framed"
2D26  A2440001           [180] call       18  2   1  
2D2A  1E008000           [181] return     0   1      
2D2E  93040002           [182] getupval   18  4      
2D32  8E844C09           [183] gettable   18  18  306  ; -2060281269
2D36  DDC40C00           [184] getglobal  19  51       ; -332969190
2D3A  19050D00           [185] loadk      20  52       ; "Stalk"
2D3E  E2040001           [186] call       19  2   0  
2D42  A2440000           [187] call       18  0   1  
2D46  8E44CD03           [188] gettable   18  7   309  ; "mRank"
2D4A  98440000           [189] test       18      1    ; to [191] if false
2D4E  1A000080           [190] jmp        1            ; to [192]
2D52  99840D00           [191] loadk      18  54       ; 0
2D56  D9840400           [192] loadk      19  18       ; 0
2D5A  19C50D00           [193] loadk      20  55       ; 0
2D5E  4605800A           [194] loadnil    21  21     
2D62  93058001           [195] getupval   22  3      
2D66  A4054E0B           [196] self       22  22  312  ; -1048544078
2D6A  12060008           [197] move       24  16     
2D6E  5206000A           [198] move       25  20     
2D72  92068009           [199] move       26  19     
2D76  D206800A           [200] move       27  21     
2D7A  13070004           [201] getupval   28  8      
2D7E  A2458003           [202] call       22  7   1  
2D82  9D850100           [203] getglobal  22  6        ; _T
2D86  8E454E0B           [204] gettable   22  22  313  ; "NemesisDestroyed"
2D8A  98050000           [205] test       22      0    ; to [207] if true
2D8E  1A800180           [206] jmp        7            ; to [214]
2D92  93050002           [207] getupval   22  4      
2D96  8E854C0B           [208] gettable   22  22  306  ; -2060281269
2D9A  DDC50C00           [209] getglobal  23  51       ; -332969190
2D9E  19860E00           [210] loadk      24  58       ; "FinisherKill"
2DA2  E2050001           [211] call       23  2   0  
2DA6  A2450000           [212] call       22  0   1  
2DAA  1A800880           [213] jmp        35           ; to [249]
2DAE  9D850100           [214] getglobal  22  6        ; _T
2DB2  8EC54E0B           [215] gettable   22  22  315  ; "NemesisConverted"
2DB6  98050000           [216] test       22      0    ; to [218] if true
2DBA  1A800180           [217] jmp        7            ; to [225]
2DBE  93050002           [218] getupval   22  4      
2DC2  8E854C0B           [219] gettable   22  22  306  ; -2060281269
2DC6  DDC50C00           [220] getglobal  23  51       ; -332969190
2DCA  19060F00           [221] loadk      24  60       ; "FinisherConvert"
2DCE  E2050001           [222] call       23  2   0  
2DD2  A2450000           [223] call       22  0   1  
2DD6  1AC00580           [224] jmp        24           ; to [249]
fail op	21
2DDA  15404F09           [225] concat     0   18  317
2DDE  1A800180           [226] jmp        7            ; to [234]
2DE2  93050002           [227] getupval   22  4      
2DE6  8E854C0B           [228] gettable   22  22  306  ; -2060281269
2DEA  DDC50C00           [229] getglobal  23  51       ; -332969190
2DEE  19860F00           [230] loadk      24  62       ; "RankUp"
2DF2  E2050001           [231] call       23  2   0  
2DF6  A2450000           [232] call       22  0   1  
2DFA  1A800380           [233] jmp        15           ; to [249]
fail op	21
2DFE  15C04F09           [234] concat     0   18  319
2E02  1A800180           [235] jmp        7            ; to [243]
2E06  93050002           [236] getupval   22  4      
2E0A  8E854C0B           [237] gettable   22  22  306  ; -2060281269
2E0E  DDC50C00           [238] getglobal  23  51       ; -332969190
2E12  19061000           [239] loadk      24  64       ; "RankUpMax"
2E16  E2050001           [240] call       23  2   0  
2E1A  A2450000           [241] call       22  0   1  
2E1E  1A400180           [242] jmp        6            ; to [249]
2E22  93050002           [243] getupval   22  4      
2E26  8E854C0B           [244] gettable   22  22  306  ; -2060281269
2E2A  DDC50C00           [245] getglobal  23  51       ; -332969190
2E2E  19461000           [246] loadk      24  65       ; "Failure"
2E32  E2050001           [247] call       23  2   0  
2E36  A2450000           [248] call       22  0   1  
2E3A  1E008000           [249] return     0   1      
                         * constants:
2E3E  42                 sizek (66)
2E3F  01                 const type 3
2E40  6B25B193           const [0]: (-1817107093)
2E44  04                 const type 4
2E45  21                 string size (33)
2E46  4E656D657369733A+  "Nemesis:"
2E4E  20737061776E2028+  " spawn ("
2E56  456E636F756E7465+  "Encounte"
2E5E  7220547970653A20+  "r Type: "
2E66  00                 "\0"
                         const [1]: "Nemesis: spawn (Encounter Type: "
2E67  01                 const type 3
2E68  BCD6AE9F           const [2]: (-1615931716)
2E6C  04                 const type 4
2E6D  02                 string size (2)
2E6E  2900               ")\0"
                         const [3]: ")"
2E70  04                 const type 4
2E71  0B                 string size (11)
2E72  4C6F7475735F4761+  "Lotus_Ga"
2E7A  6D6500             "me\0"
                         const [4]: "Lotus_Game"
2E7D  04                 const type 4
2E7E  10                 string size (16)
2E7F  4E455F4E454D4553+  "NE_NEMES"
2E87  49535F414C4C5900   "IS_ALLY\0"
                         const [5]: "NE_NEMESIS_ALLY"
2E8F  04                 const type 4
2E90  03                 string size (3)
2E91  5F5400             "_T\0"
                         const [6]: "_T"
2E94  04                 const type 4
2E95  09                 string size (9)
2E96  674E656D65736973+  "gNemesis"
2E9E  00                 "\0"
                         const [7]: "gNemesis"
2E9F  04                 const type 4
2EA0  08                 string size (8)
2EA1  6D697373696F6E00   "mission\0"
                         const [8]: "mission"
2EA9  04                 const type 4
2EAA  06                 string size (6)
2EAB  7374616C6B00       "stalk\0"
                         const [9]: "stalk"
2EB1  01                 const type 3
2EB2  01000000           const [10]: (1)
2EB6  04                 const type 4
2EB7  0B                 string size (11)
2EB8  69734E6577456E65+  "isNewEne"
2EC0  6D7900             "my\0"
                         const [11]: "isNewEnemy"
2EC3  04                 const type 4
2EC4  0B                 string size (11)
2EC5  6747616D6552756C+  "gGameRul"
2ECD  657300             "es\0"
                         const [12]: "gGameRules"
2ED0  01                 const type 3
2ED1  9509A280           const [13]: (-2136864363)
2ED5  04                 const type 4
2ED6  08                 string size (8)
2ED7  6D54617267657400   "mTarget\0"
                         const [14]: "mTarget"
2EDF  04                 const type 4
2EE0  08                 string size (8)
2EE1  6D506C6179657200   "mPlayer\0"
                         const [15]: "mPlayer"
2EE9  01                 const type 3
2EEA  48067ACB           const [16]: (-881195448)
2EEE  01                 const type 3
2EEF  997D59CD           const [17]: (-849773159)
2EF3  03                 const type 3
2EF4  00000000           const [18]: (0)
2EF8  04                 const type 4
2EF9  12                 string size (18)
2EFA  666F726365537061+  "forceSpa"
2F02  776E4E656D657369+  "wnNemesi"
2F0A  7300               "s\0"
                         const [19]: "forceSpawnNemesis"
2F0C  04                 const type 4
2F0D  13                 string size (19)
2F0E  666F726365537061+  "forceSpa"
2F16  776E48656E63686D+  "wnHenchm"
2F1E  656E00             "en\0"
                         const [20]: "forceSpawnHenchmen"
2F21  04                 const type 4
2F22  03                 string size (3)
2F23  5F4700             "_G\0"
                         const [21]: "_G"
2F26  04                 const type 4
2F27  12                 string size (18)
2F28  466F726365537061+  "ForceSpa"
2F30  776E4E656D657369+  "wnNemesi"
2F38  7300               "s\0"
                         const [22]: "ForceSpawnNemesis"
2F3A  04                 const type 4
2F3B  0A                 string size (10)
2F3C  666972737454696D+  "firstTim"
2F44  6500               "e\0"
                         const [23]: "firstTime"
2F46  00                 const type 0
                         const [24]: nil
2F47  04                 const type 4
2F48  0A                 string size (10)
2F49  67466C6173684D67+  "gFlashMg"
2F51  7200               "r\0"
                         const [25]: "gFlashMgr"
2F53  01                 const type 3
2F54  86F34F02           const [26]: (38794118)
2F58  04                 const type 4
2F59  0E                 string size (14)
2F5A  6372656174696F6E+  "creation"
2F62  4D6F76696500       "Movie\0"
                         const [27]: "creationMovie"
2F68  01                 const type 3
2F69  A9278F45           const [28]: (1167009705)
2F6D  04                 const type 4
2F6E  0D                 string size (13)
2F6F  53686F7743726561+  "ShowCrea"
2F77  74696F6E00         "tion\0"
                         const [29]: "ShowCreation"
2F7C  04                 const type 4
2F7D  01                 string size (0)
                         const [30]: ""
2F7F  01                 const type 3
2F80  0C5ABDF6           const [31]: (-155362804)
2F84  01                 const type 3
2F85  65770E40           const [32]: (1074689893)
2F89  04                 const type 4
2F8A  08                 string size (8)
2F8B  67526567696F6E00   "gRegion\0"
                         const [33]: "gRegion"
2F93  01                 const type 3
2F94  2F8B2F7B           const [34]: (2066713391)
2F98  01                 const type 3
2F99  EA911120           const [35]: (538022378)
2F9D  03                 const type 3
2F9E  CDCCCC3D           const [36]: (-51)
2FA2  01                 const type 3
2FA3  E98D1084           const [37]: (-2079289879)
2FA7  04                 const type 4
2FA8  14                 string size (20)
2FA9  5374616C6B657254+  "StalkerT"
2FB1  6172676574506C61+  "argetPla"
2FB9  79657200           "yer\0"
                         const [38]: "StalkerTargetPlayer"
2FBD  01                 const type 3
2FBE  BFF6E203           const [39]: (65205951)
2FC2  04                 const type 4
2FC3  0B                 string size (11)
2FC4  737061776E506F69+  "spawnPoi"
2FCC  6E7400             "nt\0"
                         const [40]: "spawnPoint"
2FCF  04                 const type 4
2FD0  07                 string size (7)
2FD1  6D4C6576656C00     "mLevel\0"
                         const [41]: "mLevel"
2FD8  01                 const type 3
2FD9  24E3C8F4           const [42]: (-188161244)
2FDD  01                 const type 3
2FDE  BB3AA4CA           const [43]: (-895206725)
2FE2  04                 const type 4
2FE3  07                 string size (7)
2FE4  6D4167656E7400     "mAgent\0"
                         const [44]: "mAgent"
2FEB  01                 const type 3
2FEC  3F74C2D4           const [45]: (-725453761)
2FF0  01                 const type 3
2FF1  94239925           const [46]: (630793108)
2FF5  01                 const type 3
2FF6  0344B180           const [47]: (-2135866365)
2FFA  01                 const type 3
2FFB  1DEFAC91           const [48]: (-1850937571)
2FFF  04                 const type 4
3000  26                 string size (38)
3001  4E656D657369732E+  "Nemesis."
3009  6C7561202D2D204E+  "lua -- N"
3011  656D657369732067+  "emesis g"
3019  6F742074776F2D66+  "ot two-f"
3021  72616D656400       "ramed\0"
                         const [49]: "Nemesis.lua -- Nemesis got two-framed"
3027  01                 const type 3
3028  4B9A3285           const [50]: (-2060281269)
302C  01                 const type 3
302D  1A4B27EC           const [51]: (-332969190)
3031  04                 const type 4
3032  06                 string size (6)
3033  5374616C6B00       "Stalk\0"
                         const [52]: "Stalk"
3039  04                 const type 4
303A  06                 string size (6)
303B  6D52616E6B00       "mRank\0"
                         const [53]: "mRank"
3041  03                 const type 3
3042  0000A040           const [54]: (0)
3046  03                 const type 3
3047  00007A44           const [55]: (0)
304B  01                 const type 3
304C  B27C80C1           const [56]: (-1048544078)
3050  04                 const type 4
3051  11                 string size (17)
3052  4E656D6573697344+  "NemesisD"
305A  657374726F796564+  "estroyed"
3062  00                 "\0"
                         const [57]: "NemesisDestroyed"
3063  04                 const type 4
3064  0D                 string size (13)
3065  46696E6973686572+  "Finisher"
306D  4B696C6C00         "Kill\0"
                         const [58]: "FinisherKill"
3072  04                 const type 4
3073  11                 string size (17)
3074  4E656D6573697343+  "NemesisC"
307C  6F6E766572746564+  "onverted"
3084  00                 "\0"
                         const [59]: "NemesisConverted"
3085  04                 const type 4
3086  10                 string size (16)
3087  46696E6973686572+  "Finisher"
308F  436F6E7665727400   "Convert\0"
                         const [60]: "FinisherConvert"
3097  03                 const type 3
3098  00004040           const [61]: (0)
309C  04                 const type 4
309D  07                 string size (7)
309E  52616E6B557000     "RankUp\0"
                         const [62]: "RankUp"
30A5  03                 const type 3
30A6  00008040           const [63]: (0)
30AA  04                 const type 4
30AB  0A                 string size (10)
30AC  52616E6B55704D61+  "RankUpMa"
30B4  7800               "x\0"
                         const [64]: "RankUpMax"
30B6  04                 const type 4
30B7  08                 string size (8)
30B8  4661696C75726500   "Failure\0"
                         const [65]: "Failure"
                         * functions:
30C0  00                 sizep (0)
                         * lines:
30C2  01                 sizelineinfo (249)
                         [pc] (line)
30C3  D2                 [001] (-46)
30C4  01                 [002] (-46)
30C5  00                 [003] (-46)
30C6  00                 [004] (-46)
30C7  D2                 [005] (-46)
30C8  01                 [006] (-46)
30C9  00                 [007] (-46)
30CA  00                 [008] (-46)
30CB  D2                 [009] (-44)
30CC  01                 [010] (-44)
30CD  00                 [011] (-44)
30CE  00                 [012] (-44)
30CF  D2                 [013] (-43)
30D0  01                 [014] (-43)
30D1  00                 [015] (-42)
30D2  00                 [016] (-39)
30D3  D2                 [017] (-39)
30D4  01                 [018] (-39)
30D5  00                 [019] (-39)
30D6  00                 [020] (-39)
30D7  D2                 [021] (-37)
30D8  01                 [022] (-37)
30D9  00                 [023] (-36)
30DA  00                 [024] (-35)
30DB  D2                 [025] (-35)
30DC  01                 [026] (-35)
30DD  00                 [027] (-34)
30DE  00                 [028] (-33)
30DF  D2                 [029] (-31)
30E0  01                 [030] (-31)
30E1  00                 [031] (-31)
30E2  00                 [032] (-30)
30E3  D4                 [033] (-29)
30E4  01                 [034] (-28)
30E5  00                 [035] (-28)
30E6  00                 [036] (-27)
30E7  D4                 [037] (-27)
30E8  01                 [038] (-27)
30E9  00                 [039] (-27)
30EA  00                 [040] (-27)
30EB  D4                 [041] (-25)
30EC  01                 [042] (-22)
30ED  00                 [043] (-22)
30EE  00                 [044] (-22)
30EF  D4                 [045] (-22)
30F0  01                 [046] (-22)
30F1  00                 [047] (-22)
30F2  00                 [048] (-22)
30F3  D5                 [049] (-22)
30F4  01                 [050] (-22)
30F5  00                 [051] (-22)
30F6  00                 [052] (-22)
30F7  D5                 [053] (-22)
30F8  01                 [054] (-22)
30F9  00                 [055] (-22)
30FA  00                 [056] (-22)
30FB  D6                 [057] (-21)
30FC  01                 [058] (-21)
30FD  00                 [059] (-18)
30FE  00                 [060] (-18)
30FF  D9                 [061] (-18)
3100  01                 [062] (-17)
3101  00                 [063] (-16)
3102  00                 [064] (-16)
3103  D9                 [065] (-16)
3104  01                 [066] (-16)
3105  00                 [067] (-15)
3106  00                 [068] (-15)
3107  D9                 [069] (-15)
3108  01                 [070] (-15)
3109  00                 [071] (-12)
310A  00                 [072] (-12)
310B  D9                 [073] (-11)
310C  01                 [074] (-8)
310D  00                 [075] (-8)
310E  00                 [076] (-8)
310F  D9                 [077] (-7)
3110  01                 [078] (-7)
3111  00                 [079] (-6)
3112  00                 [080] (-3)
3113  DB                 [081] (-3)
3114  01                 [082] (-3)
3115  00                 [083] (-3)
3116  00                 [084] (-3)
3117  DB                 [085] (-3)
3118  01                 [086] (-3)
3119  00                 [087] (-2)
311A  00                 [088] (-2)
311B  DC                 [089] (-2)
311C  01                 [090] (-2)
311D  00                 [091] (1)
311E  00                 [092] (1)
311F  DD                 [093] (1)
3120  01                 [094] (1)
3121  00                 [095] (1)
3122  00                 [096] (2)
3123  DD                 [097] (5)
3124  01                 [098] (5)
3125  00                 [099] (5)
3126  00                 [100] (5)
3127  DD                 [101] (7)
3128  01                 [102] (7)
3129  00                 [103] (14)
312A  00                 [104] (14)
312B  DE                 [105] (14)
312C  01                 [106] (17)
312D  00                 [107] (17)
312E  00                 [108] (17)
312F  DF                 [109] (17)
3130  01                 [110] (18)
3131  00                 [111] (18)
3132  00                 [112] (18)
3133  E1                 [113] (18)
3134  01                 [114] (18)
3135  00                 [115] (19)
3136  00                 [116] (19)
3137  E1                 [117] (19)
3138  01                 [118] (22)
3139  00                 [119] (23)
313A  00                 [120] (24)
313B  E1                 [121] (24)
313C  01                 [122] (24)
313D  00                 [123] (24)
313E  00                 [124] (24)
313F  E2                 [125] (25)
3140  01                 [126] (25)
3141  00                 [127] (25)
3142  00                 [128] (25)
3143  E3                 [129] (25)
3144  01                 [130] (25)
3145  00                 [131] (25)
3146  00                 [132] (25)
3147  E4                 [133] (25)
3148  01                 [134] (25)
3149  00                 [135] (26)
314A  00                 [136] (26)
314B  E4                 [137] (26)
314C  01                 [138] (28)
314D  00                 [139] (28)
314E  00                 [140] (28)
314F  E5                 [141] (28)
3150  01                 [142] (28)
3151  00                 [143] (28)
3152  00                 [144] (28)
3153  E5                 [145] (28)
3154  01                 [146] (28)
3155  00                 [147] (31)
3156  00                 [148] (31)
3157  E5                 [149] (31)
3158  01                 [150] (31)
3159  00                 [151] (33)
315A  00                 [152] (33)
315B  E5                 [153] (33)
315C  01                 [154] (33)
315D  00                 [155] (33)
315E  00                 [156] (34)
315F  E5                 [157] (37)
3160  01                 [158] (37)
3161  00                 [159] (38)
3162  00                 [160] (38)
3163  E7                 [161] (38)
3164  01                 [162] (38)
3165  00                 [163] (38)
3166  00                 [164] (39)
3167  EA                 [165] (42)
3168  01                 [166] (42)
3169  00                 [167] (45)
316A  00                 [168] (45)
316B  EA                 [169] (45)
316C  01                 [170] (46)
316D  00                 [171] (46)
316E  00                 [172] (46)
316F  EA                 [173] (48)
3170  01                 [174] (48)
3171  00                 [175] (48)
3172  00                 [176] (48)
3173  EA                 [177] (48)
3174  01                 [178] (49)
3175  00                 [179] (49)
3176  00                 [180] (49)
3177  EA                 [181] (50)
3178  01                 [182] (53)
3179  00                 [183] (53)
317A  00                 [184] (53)
317B  EA                 [185] (53)
317C  01                 [186] (53)
317D  00                 [187] (53)
317E  00                 [188] (55)
317F  EA                 [189] (55)
3180  01                 [190] (55)
3181  00                 [191] (55)
3182  00                 [192] (57)
3183  EA                 [193] (60)
3184  01                 [194] (61)
3185  00                 [195] (62)
3186  00                 [196] (62)
3187  EA                 [197] (62)
3188  01                 [198] (62)
3189  00                 [199] (62)
318A  00                 [200] (62)
318B  EA                 [201] (62)
318C  01                 [202] (62)
318D  00                 [203] (64)
318E  00                 [204] (64)
318F  EA                 [205] (64)
3190  01                 [206] (64)
3191  00                 [207] (65)
3192  00                 [208] (65)
3193  EA                 [209] (65)
3194  01                 [210] (65)
3195  00                 [211] (65)
3196  00                 [212] (65)
3197  EA                 [213] (65)
3198  01                 [214] (66)
3199  00                 [215] (66)
319A  00                 [216] (66)
319B  EA                 [217] (66)
319C  01                 [218] (67)
319D  00                 [219] (67)
319E  00                 [220] (67)
319F  EA                 [221] (67)
31A0  01                 [222] (67)
31A1  00                 [223] (67)
31A2  00                 [224] (67)
31A3  EB                 [225] (68)
31A4  01                 [226] (68)
31A5  00                 [227] (69)
31A6  00                 [228] (69)
31A7  EB                 [229] (69)
31A8  01                 [230] (69)
31A9  00                 [231] (69)
31AA  00                 [232] (69)
31AB  EE                 [233] (69)
31AC  01                 [234] (70)
31AD  00                 [235] (70)
31AE  00                 [236] (71)
31AF  EE                 [237] (71)
31B0  01                 [238] (71)
31B1  00                 [239] (71)
31B2  00                 [240] (71)
31B3  EE                 [241] (71)
31B4  01                 [242] (71)
31B5  00                 [243] (73)
31B6  00                 [244] (73)
31B7  EF                 [245] (73)
31B8  01                 [246] (73)
31B9  00                 [247] (73)
31BA  00                 [248] (73)
31BB  F0                 [249] (77)
                         * locals:
34A7  00                 sizelocvars (0)
                         * upvalues:
34A8  00                 sizeupvalues (0)
                         ** end of function **

                         
34A9                     ** function [12] definition (level 2)
                         ** start of function **
34A9  00                 string size (0)
                         source name: (none)
34AB  04                 line defined (591)
34AC  8C                 last line defined (652)
34AD  05                 nups (4)
34AE  04                 numparams (0)
34AF  00                 is_vararg (0)
34B0  00                 maxstacksize (25)
                         * code:
34B3  01                 sizecode (167)
34B4  17008000           [001] loadbool   0   1   0    ; true
34B8  57000000           [002] loadbool   1   0   0    ; false
34BC  9D000000           [003] getglobal  2   0        ; gRegion
34C0  A4404001           [004] self       2   2   257  ; 1224466847
34C4  A2800001           [005] call       2   2   2  
34C8  D9800000           [006] loadk      3   2        ; 0
34CC  0A010001           [007] len        4   2      
34D0  59810000           [008] loadk      5   2        ; 0
34D4  D0800280           [009] forprep    3   11       ; to [21]
34D8  CE810101           [010] gettable   7   2   6  
34DC  E4C1C003           [011] self       7   7   259  ; 51109503
34E0  E2810001           [012] call       7   2   2  
34E4  0E02C103           [013] gettable   8   7   260  ; "mHasActiveNemesis"
34E8  18420000           [014] test       8       1    ; to [16] if false
34EC  1A000080           [015] jmp        1            ; to [17]
34F0  17000000           [016] loadbool   0   0   0    ; false
34F4  0E42C103           [017] gettable   8   7   261  ; "mKuvaSiphonsUnlocked"
34F8  18020000           [018] test       8       0    ; to [20] if true
34FC  1A000080           [019] jmp        1            ; to [21]
3500  57008000           [020] loadbool   1   1   0    ; true
3504  D4C0FC7F           [021] forloop    3   -12      ; to [10] if loop
3508  1D820100           [022] getglobal  8   6        ; gGameRules
350C  24C24104           [023] self       8   8   263  ; -1201441975
3510  22820001           [024] call       8   2   2  
3514  53020000           [025] getupval   9   0      
3518  58420000           [026] test       9       1    ; to [28] if false
351C  1A800480           [027] jmp        19           ; to [47]
3520  18400000           [028] test       0       1    ; to [30] if false
3524  1AC00380           [029] jmp        16           ; to [46]
3528  4E024204           [030] gettable   9   8   264  ; "faction"
352C  9D420200           [031] getglobal  10  9        ; Lotus_Game
3530  8E824205           [032] gettable   10  10  266  ; "FC_GRINEER"
fail op	35
3534  23808204           [033] close      0  
3538  1A800280           [034] jmp        11           ; to [46]
353C  4EC24204           [035] gettable   9   8   267  ; "archwingRequired"
3540  58420000           [036] test       9       1    ; to [38] if false
3544  1AC00180           [037] jmp        8            ; to [46]
3548  58000000           [038] test       1       0    ; to [40] if true
354C  1A400180           [039] jmp        6            ; to [46]
3550  5D020300           [040] getglobal  9   12       ; -1941280958
3554  99420300           [041] loadk      10  13       ; 0
3558  D9820000           [042] loadk      11  2        ; 0
355C  62828001           [043] call       9   3   2  
fail op	21
3560  15400287           [044] concat     0   270 9  
3564  1A000080           [045] jmp        1            ; to [47]
3568  1E008000           [046] return     0   1      
356C  5DC20300           [047] getglobal  9   15       ; 2144646525
3570  99820000           [048] loadk      10  2        ; 0
3574  D3028000           [049] getupval   11  1      
3578  CA028005           [050] len        11  11     
357C  62828001           [051] call       9   3   2  
3580  93028000           [052] getupval   10  1      
3584  8E420205           [053] gettable   10  10  9  
3588  DD820100           [054] getglobal  11  6        ; gGameRules
358C  E402C405           [055] self       11  11  272  ; 127295906
3590  4B030000           [056] newtable   13  0   0    ; array=0, hash=0
3594  A4434405           [057] self       14  10  273  ; 455421500
3598  A2030001           [058] call       14  2   0  
359C  5B430000           [059] setlist    13  0   1    ; index 1 to top
35A0  E2428001           [060] call       11  3   1  
35A4  D3020000           [061] getupval   11  0      
35A8  D8420000           [062] test       11      1    ; to [64] if false
35AC  1A800080           [063] jmp        3            ; to [67]
35B0  D3020001           [064] getupval   11  2      
35B4  E2428000           [065] call       11  1   1  
35B8  1A800080           [066] jmp        3            ; to [70]
35BC  DD820400           [067] getglobal  11  18       ; 538022378
35C0  19C30400           [068] loadk      12  19       ; 0
35C4  E2420001           [069] call       11  2   1  
35C8  DD020000           [070] getglobal  11  0        ; gRegion
35CC  E402C505           [071] self       11  11  276  ; -774964848
35D0  E2820001           [072] call       11  2   2  
35D4  E442C505           [073] self       11  11  277  ; 537471347
35D8  E2820001           [074] call       11  2   2  
35DC  2483C505           [075] self       12  11  278  ; -1553799614
35E0  22830001           [076] call       12  2   2  
35E4  46038006           [077] loadnil    13  13     
35E8  9D030000           [078] getglobal  14  0        ; gRegion
35EC  A4C34507           [079] self       14  14  279  ; 65205951
35F0  A2830001           [080] call       14  2   2  
35F4  A4034607           [081] self       14  14  280  ; 1839670529
35F8  A2830001           [082] call       14  2   2  
35FC  DD430600           [083] getglobal  15  25       ; 1074689893
3600  12040006           [084] move       16  12     
3604  E2830001           [085] call       15  2   2  
3608  D8430000           [086] test       15      1    ; to [88] if false
360C  1A800180           [087] jmp        7            ; to [95]
3610  D3030000           [088] getupval   15  0      
3614  D8430000           [089] test       15      1    ; to [91] if false
3618  1AC00080           [090] jmp        4            ; to [95]
361C  E4034606           [091] self       15  12  280  ; 1839670529
3620  E2830001           [092] call       15  2   2  
3624  52038007           [093] move       13  15     
3628  1A000080           [094] jmp        1            ; to [96]
362C  52030007           [095] move       13  14     
3630  D3038001           [096] getupval   15  3      
3634  12048006           [097] move       16  13     
3638  59840600           [098] loadk      17  26       ; 0
363C  E2838001           [099] call       15  3   2  
3640  06040008           [100] loadnil    16  16     
3644  4A048007           [101] len        17  15     
fail op	21
3648  15408486           [102] concat     0   269 17 
364C  1AC00280           [103] jmp        12           ; to [116]
3650  53040000           [104] getupval   17  0      
3654  58440000           [105] test       17      1    ; to [107] if false
3658  1A000280           [106] jmp        9            ; to [116]
365C  5DC40300           [107] getglobal  17  15       ; 2144646525
3660  99840000           [108] loadk      18  2        ; 0
3664  CA048007           [109] len        19  15     
3668  62848001           [110] call       17  3   2  
366C  4E448407           [111] gettable   17  15  17 
3670  6404C608           [112] self       17  17  280  ; 1839670529
3674  62840001           [113] call       17  2   2  
3678  12048008           [114] move       16  17     
367C  1AC00180           [115] jmp        8            ; to [124]
3680  64C4C605           [116] self       17  11  283  ; -898367557
3684  D2048006           [117] move       19  13     
3688  19050700           [118] loadk      20  28       ; 0
368C  59450700           [119] loadk      21  29       ; 0
3690  97058000           [120] loadbool   22  1   0    ; true
3694  D9850000           [121] loadk      23  2        ; 0
3698  62848003           [122] call       17  7   2  
369C  12048008           [123] move       16  17     
36A0  6484C705           [124] self       17  11  286  ; 436282865
36A4  DDC40700           [125] getglobal  19  31       ; -895206725
36A8  12050005           [126] move       20  10     
36AC  E2840001           [127] call       19  2   2  
36B0  12050008           [128] move       20  16     
36B4  5D050800           [129] getglobal  21  32       ; -304944129
36B8  92050008           [130] move       22  16     
36BC  D2050007           [131] move       23  14     
36C0  62858001           [132] call       21  3   2  
36C4  9D850100           [133] getglobal  22  6        ; gGameRules
36C8  A4C5410B           [134] self       22  22  263  ; -1201441975
36CC  A2850001           [135] call       22  2   2  
36D0  A445480B           [136] self       22  22  289  ; -272348948
36D4  A2850001           [137] call       22  2   2  
36D8  E485C805           [138] self       23  11  290  ; -354168336
36DC  E2850001           [139] call       23  2   2  
36E0  0606000C           [140] loadnil    24  24     
36E4  62840004           [141] call       17  8   2  
36E8  9D840400           [142] getglobal  18  18       ; 538022378
36EC  D9440300           [143] loadk      19  13       ; 0
36F0  A2440001           [144] call       18  2   1  
36F4  9D440600           [145] getglobal  18  25       ; 1074689893
36F8  D2048008           [146] move       19  17     
36FC  A2840001           [147] call       18  2   2  
3700  98440000           [148] test       18      1    ; to [150] if false
3704  1A400180           [149] jmp        6            ; to [156]
3708  9D440600           [150] getglobal  18  25       ; 1074689893
370C  E4C4C808           [151] self       19  17  291  ; -2135866365
3710  E2040001           [152] call       19  2   0  
3714  A2840000           [153] call       18  0   2  
3718  98040000           [154] test       18      0    ; to [156] if true
371C  1AC00080           [155] jmp        4            ; to [160]
3720  9D040900           [156] getglobal  18  36       ; -1817107093
3724  D9440900           [157] loadk      19  37       ; "NemesisMission: failed to spawn larvling!"
3728  A2440001           [158] call       18  2   1  
372C  1E008000           [159] return     0   1      
3730  A4C4C808           [160] self       18  17  291  ; -2135866365
3734  A2840001           [161] call       18  2   2  
3738  E4844909           [162] self       19  18  294  ; 1262724647
373C  5DC50900           [163] getglobal  21  39       ; -332969190
3740  99050A00           [164] loadk      22  40       ; "/Lotus/Language/Kingpins/KuvaEximusName"
3744  62050001           [165] call       21  2   0  
3748  E2440000           [166] call       19  0   1  
374C  1E008000           [167] return     0   1      
                         * constants:
3750  29                 sizek (41)
3751  04                 const type 4
3752  08                 string size (8)
3753  67526567696F6E00   "gRegion\0"
                         const [0]: "gRegion"
375B  01                 const type 3
375C  9FE1FB48           const [1]: (1224466847)
3760  03                 const type 3
3761  0000803F           const [2]: (0)
3765  01                 const type 3
3766  7FDE0B03           const [3]: (51109503)
376A  04                 const type 4
376B  12                 string size (18)
376C  6D48617341637469+  "mHasActi"
3774  76654E656D657369+  "veNemesi"
377C  7300               "s\0"
                         const [4]: "mHasActiveNemesis"
377E  04                 const type 4
377F  15                 string size (21)
3780  6D4B757661536970+  "mKuvaSip"
3788  686F6E73556E6C6F+  "honsUnlo"
3790  636B656400         "cked\0"
                         const [5]: "mKuvaSiphonsUnlocked"
3795  04                 const type 4
3796  0B                 string size (11)
3797  6747616D6552756C+  "gGameRul"
379F  657300             "es\0"
                         const [6]: "gGameRules"
37A2  01                 const type 3
37A3  497363B8           const [7]: (-1201441975)
37A7  04                 const type 4
37A8  08                 string size (8)
37A9  66616374696F6E00   "faction\0"
                         const [8]: "faction"
37B1  04                 const type 4
37B2  0B                 string size (11)
37B3  4C6F7475735F4761+  "Lotus_Ga"
37BB  6D6500             "me\0"
                         const [9]: "Lotus_Game"
37BE  04                 const type 4
37BF  0B                 string size (11)
37C0  46435F4752494E45+  "FC_GRINE"
37C8  455200             "ER\0"
                         const [10]: "FC_GRINEER"
37CB  04                 const type 4
37CC  11                 string size (17)
37CD  6172636877696E67+  "archwing"
37D5  5265717569726564+  "Required"
37DD  00                 "\0"
                         const [11]: "archwingRequired"
37DE  01                 const type 3
37DF  42674A8C           const [12]: (-1941280958)
37E3  03                 const type 3
37E4  00000000           const [13]: (0)
37E8  03                 const type 3
37E9  CDCC4C3D           const [14]: (-51)
37ED  01                 const type 3
37EE  7DB5D47F           const [15]: (2144646525)
37F2  01                 const type 3
37F3  A2619607           const [16]: (127295906)
37F7  01                 const type 3
37F8  3C2E251B           const [17]: (455421500)
37FC  01                 const type 3
37FD  EA911120           const [18]: (538022378)
3801  03                 const type 3
3802  0000A040           const [19]: (0)
3806  01                 const type 3
3807  90F9CED1           const [20]: (-774964848)
380B  01                 const type 3
380C  73290920           const [21]: (537471347)
3810  01                 const type 3
3811  42E662A3           const [22]: (-1553799614)
3815  01                 const type 3
3816  BFF6E203           const [23]: (65205951)
381A  01                 const type 3
381B  0125A76D           const [24]: (1839670529)
381F  01                 const type 3
3820  65770E40           const [25]: (1074689893)
3824  03                 const type 3
3825  0000A041           const [26]: (0)
3829  01                 const type 3
382A  BBFF73CA           const [27]: (-898367557)
382E  03                 const type 3
382F  00002041           const [28]: (0)
3833  03                 const type 3
3834  00007041           const [29]: (0)
3838  01                 const type 3
3839  F125011A           const [30]: (436282865)
383D  01                 const type 3
383E  BB3AA4CA           const [31]: (-895206725)
3842  01                 const type 3
3843  FFEBD2ED           const [32]: (-304944129)
3847  01                 const type 3
3848  EC48C4EF           const [33]: (-272348948)
384C  01                 const type 3
384D  F0D1E3EA           const [34]: (-354168336)
3851  01                 const type 3
3852  0344B180           const [35]: (-2135866365)
3856  01                 const type 3
3857  6B25B193           const [36]: (-1817107093)
385B  04                 const type 4
385C  2A                 string size (42)
385D  4E656D657369734D+  "NemesisM"
3865  697373696F6E3A20+  "ission: "
386D  6661696C65642074+  "failed t"
3875  6F20737061776E20+  "o spawn "
387D  6C6172766C696E67+  "larvling"
3885  2100               "!\0"
                         const [37]: "NemesisMission: failed to spawn larvling!"
3887  01                 const type 3
3888  27A6434B           const [38]: (1262724647)
388C  01                 const type 3
388D  1A4B27EC           const [39]: (-332969190)
3891  04                 const type 4
3892  28                 string size (40)
3893  2F4C6F7475732F4C+  "/Lotus/L"
389B  616E67756167652F+  "anguage/"
38A3  4B696E6770696E73+  "Kingpins"
38AB  2F4B757661457869+  "/KuvaExi"
38B3  6D75734E616D6500   "musName\0"
                         const [40]: "/Lotus/Language/Kingpins/KuvaEximusName"
                         * functions:
38BB  00                 sizep (0)
                         * lines:
38BD  01                 sizelineinfo (167)
                         [pc] (line)
38BE  50                 [001] (80)
38BF  02                 [002] (81)
38C0  00                 [003] (82)
38C1  00                 [004] (82)
38C2  51                 [005] (82)
38C3  02                 [006] (83)
38C4  00                 [007] (83)
38C5  00                 [008] (83)
38C6  52                 [009] (83)
38C7  02                 [010] (84)
38C8  00                 [011] (84)
38C9  00                 [012] (84)
38CA  52                 [013] (85)
38CB  02                 [014] (85)
38CC  00                 [015] (85)
38CD  00                 [016] (86)
38CE  52                 [017] (89)
38CF  02                 [018] (89)
38D0  00                 [019] (89)
38D1  00                 [020] (90)
38D2  53                 [021] (83)
38D3  02                 [022] (95)
38D4  00                 [023] (95)
38D5  00                 [024] (95)
38D6  53                 [025] (96)
38D7  02                 [026] (96)
38D8  00                 [027] (96)
38D9  00                 [028] (96)
38DA  53                 [029] (96)
38DB  02                 [030] (96)
38DC  00                 [031] (96)
38DD  00                 [032] (96)
38DE  53                 [033] (96)
38DF  02                 [034] (96)
38E0  00                 [035] (96)
38E1  00                 [036] (96)
38E2  54                 [037] (96)
38E3  02                 [038] (96)
38E4  00                 [039] (96)
38E5  00                 [040] (96)
38E6  54                 [041] (96)
38E7  02                 [042] (96)
38E8  00                 [043] (96)
38E9  00                 [044] (96)
38EA  54                 [045] (96)
38EB  02                 [046] (97)
38EC  00                 [047] (100)
38ED  00                 [048] (100)
38EE  55                 [049] (100)
38EF  02                 [050] (100)
38F0  00                 [051] (100)
38F1  00                 [052] (101)
38F2  55                 [053] (101)
38F3  02                 [054] (104)
38F4  00                 [055] (104)
38F5  00                 [056] (104)
38F6  55                 [057] (104)
38F7  02                 [058] (104)
38F8  00                 [059] (104)
38F9  00                 [060] (104)
38FA  56                 [061] (106)
38FB  02                 [062] (106)
38FC  00                 [063] (106)
38FD  00                 [064] (107)
38FE  59                 [065] (107)
38FF  02                 [066] (107)
3900  00                 [067] (109)
3901  00                 [068] (109)
3902  59                 [069] (109)
3903  02                 [070] (112)
3904  00                 [071] (112)
3905  00                 [072] (112)
3906  59                 [073] (112)
3907  02                 [074] (112)
3908  00                 [075] (113)
3909  00                 [076] (113)
390A  5A                 [077] (114)
390B  02                 [078] (115)
390C  00                 [079] (115)
390D  00                 [080] (115)
390E  53                 [081] (115)
390F  02                 [082] (115)
3910  00                 [083] (117)
3911  00                 [084] (117)
3912  5F                 [085] (117)
3913  02                 [086] (117)
3914  00                 [087] (117)
3915  00                 [088] (117)
3916  5F                 [089] (117)
3917  02                 [090] (117)
3918  00                 [091] (118)
3919  00                 [092] (118)
391A  5F                 [093] (118)
391B  02                 [094] (118)
391C  00                 [095] (120)
391D  00                 [096] (123)
391E  60                 [097] (123)
391F  02                 [098] (123)
3920  00                 [099] (123)
3921  00                 [100] (124)
3922  60                 [101] (125)
3923  02                 [102] (125)
3924  00                 [103] (125)
3925  00                 [104] (125)
3926  60                 [105] (125)
3927  02                 [106] (125)
3928  00                 [107] (126)
3929  00                 [108] (126)
392A  60                 [109] (126)
392B  02                 [110] (126)
392C  00                 [111] (126)
392D  00                 [112] (126)
392E  60                 [113] (126)
392F  02                 [114] (126)
3930  00                 [115] (126)
3931  00                 [116] (-128)
3932  60                 [117] (-128)
3933  02                 [118] (-128)
3934  00                 [119] (-128)
3935  00                 [120] (-128)
3936  60                 [121] (-128)
3937  02                 [122] (-128)
3938  00                 [123] (-128)
3939  00                 [124] (-125)
393A  60                 [125] (-125)
393B  02                 [126] (-125)
393C  00                 [127] (-125)
393D  00                 [128] (-125)
393E  60                 [129] (-125)
393F  02                 [130] (-125)
3940  00                 [131] (-125)
3941  00                 [132] (-125)
3942  60                 [133] (-125)
3943  02                 [134] (-125)
3944  00                 [135] (-125)
3945  00                 [136] (-125)
3946  60                 [137] (-125)
3947  02                 [138] (-125)
3948  00                 [139] (-125)
3949  00                 [140] (-125)
394A  60                 [141] (-125)
394B  02                 [142] (-124)
394C  00                 [143] (-124)
394D  00                 [144] (-124)
394E  60                 [145] (-123)
394F  02                 [146] (-123)
3950  00                 [147] (-123)
3951  00                 [148] (-123)
3952  60                 [149] (-123)
3953  02                 [150] (-123)
3954  00                 [151] (-123)
3955  00                 [152] (-123)
3956  60                 [153] (-123)
3957  02                 [154] (-123)
3958  00                 [155] (-123)
3959  00                 [156] (-122)
395A  60                 [157] (-122)
395B  02                 [158] (-122)
395C  00                 [159] (-121)
395D  00                 [160] (-118)
395E  60                 [161] (-118)
395F  02                 [162] (-117)
3960  00                 [163] (-117)
3961  00                 [164] (-117)
3962  60                 [165] (-117)
3963  02                 [166] (-117)
3964  00                 [167] (-116)
                         * locals:
3B5A  00                 sizelocvars (0)
                         * upvalues:
3B5B  00                 sizeupvalues (0)
                         ** end of function **

                         
3B5C                     ** function [13] definition (level 2)
                         ** start of function **
3B5C  00                 string size (0)
                         source name: (none)
3B5E  05                 line defined (654)
3B5F  93                 last line defined (659)
3B60  05                 nups (1)
3B61  01                 numparams (2)
3B62  02                 is_vararg (0)
3B63  00                 maxstacksize (4)
                         * code:
3B65  09                 sizecode (9)
3B66  18000000           [1] test       0       0    ; to [3] if true
3B6A  1A400180           [2] jmp        6            ; to [9]
3B6E  9D000000           [3] getglobal  2   0        ; cjson
3B72  8E404001           [4] gettable   2   2   257  ; -1976663275
3B76  D2008000           [5] move       3   1      
3B7A  A2800001           [6] call       2   2   2  
3B7E  CE804001           [7] gettable   3   2   258  ; "GuessResult"
fail op	8
3B82  C8000000           [8] setupval   3   0      
3B86  1E008000           [9] return     0   1      
                         * constants:
3B8A  03                 sizek (3)
3B8B  04                 const type 4
3B8C  06                 string size (6)
3B8D  636A736F6E00       "cjson\0"
                         const [0]: "cjson"
3B93  01                 const type 3
3B94  15832E8A           const [1]: (-1976663275)
3B98  04                 const type 4
3B99  0C                 string size (12)
3B9A  4775657373526573+  "GuessRes"
3BA2  756C7400           "ult\0"
                         const [2]: "GuessResult"
                         * functions:
3BA6  00                 sizep (0)
                         * lines:
3BA7  09                 sizelineinfo (9)
                         [pc] (line)
3BA8  8F                 [1] (-113)
3BA9  02                 [2] (-113)
3BAA  00                 [3] (-112)
3BAB  00                 [4] (-112)
3BAC  8F                 [5] (-112)
3BAD  02                 [6] (-112)
3BAE  00                 [7] (-111)
3BAF  00                 [8] (-111)
3BB0  90                 [9] (-109)
                         * locals:
3BCC  00                 sizelocvars (0)
                         * upvalues:
3BCD  00                 sizeupvalues (0)
                         ** end of function **

                         
3BCE                     ** function [14] definition (level 2)
                         ** start of function **
3BCE  00                 string size (0)
                         source name: (none)
3BD0  05                 line defined (661)
3BD1  DB                 last line defined (731)
3BD2  05                 nups (9)
3BD3  09                 numparams (2)
3BD4  02                 is_vararg (0)
3BD5  00                 maxstacksize (23)
                         * code:
3BD8  01                 sizecode (178)
3BD9  A400C000           [001] self       2   1   256  ; 1298798293
3BDD  A2800001           [002] call       2   2   2  
3BE1  98000000           [003] test       2       0    ; to [5] if true
3BE5  1A000080           [004] jmp        1            ; to [6]
3BE9  1E008000           [005] return     0   1      
3BED  9D400000           [006] getglobal  2   1        ; _T
3BF1  8E804001           [007] gettable   2   2   258  ; "HenchmenTracker"
3BF5  98000000           [008] test       2       0    ; to [10] if true
3BF9  1AC00080           [009] jmp        4            ; to [14]
3BFD  9D400000           [010] getglobal  2   1        ; _T
3C01  8EC04001           [011] gettable   2   2   259  ; "LichKillChoiceMade"
fail op	35
3C05  63004101           [012] close      1  
3C09  1A000080           [013] jmp        1            ; to [15]
3C0D  1E008000           [014] return     0   1      
3C11  9D400100           [015] getglobal  2   5        ; gGameRules
3C15  A4804101           [016] self       2   2   262  ; -317790213
3C19  13010000           [017] getupval   4   0      
3C1D  59C10100           [018] loadk      5   7        ; 0
3C21  A2800002           [019] call       2   4   2  
3C25  D3008000           [020] getupval   3   1      
fail op	33
3C29  21808001           [021] tforloop   0       2    ; to [23] if exit
3C2D  1A000080           [022] jmp        1            ; to [24]
3C31  1E008000           [023] return     0   1      
3C35  99C00100           [024] loadk      2   7        ; 0
3C39  DD000200           [025] getglobal  3   8        ; 248503575
3C3D  1D410000           [026] getglobal  4   1        ; _T
3C41  0E814002           [027] gettable   4   4   258  ; "HenchmenTracker"
3C45  0E414202           [028] gettable   4   4   265  ; "activeAvatars"
3C49  E2000101           [029] call       3   2   4  
3C4D  1AC00680           [030] jmp        28           ; to [59]
3C51  1D820200           [031] getglobal  8   10       ; 1074689893
3C55  52028003           [032] move       9   7      
3C59  22820001           [033] call       8   2   2  
3C5D  18420000           [034] test       8       1    ; to [36] if false
3C61  1AC00080           [035] jmp        4            ; to [40]
3C65  24C2C203           [036] self       8   7   267  ; 1511086594
3C69  22820001           [037] call       8   2   2  
3C6D  18020000           [038] test       8       0    ; to [40] if true
3C71  1A400480           [039] jmp        18           ; to [58]
3C75  1D020300           [040] getglobal  8   12       ; table
3C79  0E424304           [041] gettable   8   8   269  ; -843973282
3C7D  5D420000           [042] getglobal  9   1        ; _T
3C81  4E82C004           [043] gettable   9   9   258  ; "HenchmenTracker"
3C85  4E42C204           [044] gettable   9   9   265  ; "activeAvatars"
3C89  92020003           [045] move       10  6      
3C8D  22428001           [046] call       8   3   1  
3C91  1D420100           [047] getglobal  8   5        ; gGameRules
3C95  24824304           [048] self       8   8   270  ; -803877924
3C99  93020001           [049] getupval   10  2      
3C9D  DD420100           [050] getglobal  11  5        ; gGameRules
3CA1  E482C105           [051] self       11  11  262  ; -317790213
3CA5  53030001           [052] getupval   13  2      
3CA9  99C30100           [053] loadk      14  7        ; 0
3CAD  E2820002           [054] call       11  4   2  
3CB1  C3C2C305           [055] add        11  11  271  ; 0
3CB5  22420002           [056] call       8   4   1  
3CB9  1A000080           [057] jmp        1            ; to [59]
3CBD  83C04301           [058] add        2   2   271  ; 0
3CC1  D6800000           [059] tforloop   3       2    ; to [61] if exit
3CC5  1A40F87F           [060] jmp        -30          ; to [31]
3CC9  13028001           [061] getupval   8   3      
fail op	33
3CCD  21800004           [062] tforloop   0       2    ; to [64] if exit
3CD1  1A000080           [063] jmp        1            ; to [65]
3CD5  1E008000           [064] return     0   1      
3CD9  2402C400           [065] self       8   1   272  ; -2135866365
3CDD  22820001           [066] call       8   2   2  
3CE1  64424404           [067] self       9   8   273  ; -1081228973
3CE5  62820001           [068] call       9   2   2  
3CE9  93020002           [069] getupval   10  4      
fail op	35
3CED  63808204           [070] close      1  
3CF1  1A000480           [071] jmp        17           ; to [89]
3CF5  64824404           [072] self       9   8   274  ; -1238811972
3CF9  62820001           [073] call       9   2   2  
3CFD  58420000           [074] test       9       1    ; to [76] if false
3D01  1A000380           [075] jmp        13           ; to [89]
3D05  64C2C400           [076] self       9   1   275  ; -1957065004
3D09  DD420100           [077] getglobal  11  5        ; gGameRules
3D0D  E402C505           [078] self       11  11  276  ; -1201441975
3D11  E2820001           [079] call       11  2   2  
3D15  CE42C505           [080] gettable   11  11  277  ; "vipAgent"
3D19  62828001           [081] call       9   3   2  
3D1D  58420000           [082] test       9       1    ; to [84] if false
3D21  1A000180           [083] jmp        5            ; to [89]
3D25  64824504           [084] self       9   8   278  ; 2111000415
3D29  62820001           [085] call       9   2   2  
3D2D  58420000           [086] test       9       1    ; to [88] if false
3D31  1A000080           [087] jmp        1            ; to [89]
3D35  1E008000           [088] return     0   1      
3D39  5D420000           [089] getglobal  9   1        ; _T
3D3D  4E82C004           [090] gettable   9   9   258  ; "HenchmenTracker"
3D41  4EC2C504           [091] gettable   9   9   279  ; "spawnCooldown"
fail op	21
3D45  15408283           [092] concat     0   263 9  
3D49  1AC00180           [093] jmp        8            ; to [102]
3D4D  5D420000           [094] getglobal  9   1        ; _T
3D51  4E82C004           [095] gettable   9   9   258  ; "HenchmenTracker"
3D55  9D420000           [096] getglobal  10  1        ; _T
3D59  8E824005           [097] gettable   10  10  258  ; "HenchmenTracker"
3D5D  8EC24505           [098] gettable   10  10  279  ; "spawnCooldown"
3D61  8DC24305           [099] sub        10  10  271  ; 0
3D65  4C82828B           [100] settable   9   279 10   ; "spawnCooldown"
3D69  1E008000           [101] return     0   1      
3D6D  5D420000           [102] getglobal  9   1        ; _T
3D71  4E82C004           [103] gettable   9   9   258  ; "HenchmenTracker"
3D75  4E02C604           [104] gettable   9   9   280  ; "waitTimer"
fail op	21
3D79  15408283           [105] concat     0   263 9  
3D7D  1A000080           [106] jmp        1            ; to [108]
3D81  1E008000           [107] return     0   1      
3D85  5D020200           [108] getglobal  9   8        ; 248503575
3D89  93028002           [109] getupval   10  5      
3D8D  62020101           [110] call       9   2   4  
3D91  1A400180           [111] jmp        6            ; to [118]
3D95  A4C3C400           [112] self       14  1   275  ; -1957065004
3D99  12048006           [113] move       16  13     
3D9D  A2838001           [114] call       14  3   2  
3DA1  98030000           [115] test       14      0    ; to [117] if true
3DA5  1A000080           [116] jmp        1            ; to [118]
3DA9  1E008000           [117] return     0   1      
3DAD  56820000           [118] tforloop   9       2    ; to [120] if exit
3DB1  1AC0FD7F           [119] jmp        -8           ; to [112]
3DB5  9D430600           [120] getglobal  14  25       ; string
3DB9  8E834607           [121] gettable   14  14  282  ; -565905820
3DBD  DDC30600           [122] getglobal  15  27       ; -1615931716
3DC1  2404C700           [123] self       16  1   284  ; 455421500
3DC5  22040001           [124] call       16  2   0  
3DC9  E2830000           [125] call       15  0   2  
3DCD  19440700           [126] loadk      16  29       ; "Carrier"
3DD1  A2838001           [127] call       14  3   2  
fail op	35
3DD5  63004107           [128] close      1  
3DD9  1A000080           [129] jmp        1            ; to [131]
3DDD  1E008000           [130] return     0   1      
3DE1  9D830700           [131] getglobal  14  30       ; gGameData
3DE5  A4C34707           [132] self       14  14  287  ; 389385621
3DE9  A2830001           [133] call       14  2   2  
3DED  D3030003           [134] getupval   15  6      
3DF1  12040007           [135] move       16  14     
3DF5  52048000           [136] move       17  1      
3DF9  E2838001           [137] call       15  3   2  
3DFD  1D840200           [138] getglobal  16  10       ; 1074689893
3E01  52048007           [139] move       17  15     
3E05  22840001           [140] call       16  2   2  
3E09  18440000           [141] test       16      1    ; to [143] if false
3E0D  1A800880           [142] jmp        35           ; to [178]
3E11  1D040300           [143] getglobal  16  12       ; table
3E15  0E044808           [144] gettable   16  16  288  ; -431682403
3E19  5D440000           [145] getglobal  17  1        ; _T
3E1D  4E84C008           [146] gettable   17  17  258  ; "HenchmenTracker"
3E21  4E44C208           [147] gettable   17  17  265  ; "activeAvatars"
3E25  92048007           [148] move       18  15     
3E29  22448001           [149] call       16  3   1  
3E2D  1D440100           [150] getglobal  16  5        ; gGameRules
3E31  24844308           [151] self       16  16  270  ; -803877924
3E35  93040000           [152] getupval   18  0      
3E39  DD440100           [153] getglobal  19  5        ; gGameRules
3E3D  E484C109           [154] self       19  19  262  ; -317790213
3E41  53050000           [155] getupval   21  0      
3E45  99C50100           [156] loadk      22  7        ; 0
3E49  E2840002           [157] call       19  4   2  
3E4D  C3C4C309           [158] add        19  19  271  ; 0
3E51  22440002           [159] call       16  4   1  
3E55  1D440000           [160] getglobal  16  1        ; _T
3E59  0E844008           [161] gettable   16  16  258  ; "HenchmenTracker"
3E5D  5D440800           [162] getglobal  17  33       ; 2144646525
3E61  93048003           [163] getupval   18  7      
3E65  8EC44309           [164] gettable   18  18  271  ; 0
3E69  D3048003           [165] getupval   19  7      
3E6D  CE84C809           [166] gettable   19  19  290  ; 0
3E71  62848001           [167] call       17  3   2  
3E75  0C44848B           [168] settable   16  279 17   ; "spawnCooldown"
3E79  1D440000           [169] getglobal  16  1        ; _T
3E7D  0E844008           [170] gettable   16  16  258  ; "HenchmenTracker"
3E81  5D440800           [171] getglobal  17  33       ; 2144646525
3E85  93040004           [172] getupval   18  8      
3E89  8EC44309           [173] gettable   18  18  271  ; 0
3E8D  D3040004           [174] getupval   19  8      
3E91  CE84C809           [175] gettable   19  19  290  ; 0
3E95  62848001           [176] call       17  3   2  
3E99  0C44048C           [177] settable   16  280 17   ; "waitTimer"
3E9D  1E008000           [178] return     0   1      
                         * constants:
3EA1  23                 sizek (35)
3EA2  01                 const type 3
3EA3  D5166A4D           const [0]: (1298798293)
3EA7  04                 const type 4
3EA8  03                 string size (3)
3EA9  5F5400             "_T\0"
                         const [1]: "_T"
3EAC  04                 const type 4
3EAD  10                 string size (16)
3EAE  48656E63686D656E+  "Henchmen"
3EB6  547261636B657200   "Tracker\0"
                         const [2]: "HenchmenTracker"
3EBE  04                 const type 4
3EBF  13                 string size (19)
3EC0  4C6963684B696C6C+  "LichKill"
3EC8  43686F6963654D61+  "ChoiceMa"
3ED0  646500             "de\0"
                         const [3]: "LichKillChoiceMade"
3ED3  00                 const type 0
                         const [4]: nil
3ED4  04                 const type 4
3ED5  0B                 string size (11)
3ED6  6747616D6552756C+  "gGameRul"
3EDE  657300             "es\0"
                         const [5]: "gGameRules"
3EE1  01                 const type 3
3EE2  FBE70EED           const [6]: (-317790213)
3EE6  03                 const type 3
3EE7  00000000           const [7]: (0)
3EEB  01                 const type 3
3EEC  17DDCF0E           const [8]: (248503575)
3EF0  04                 const type 4
3EF1  0E                 string size (14)
3EF2  6163746976654176+  "activeAv"
3EFA  617461727300       "atars\0"
                         const [9]: "activeAvatars"
3F00  01                 const type 3
3F01  65770E40           const [10]: (1074689893)
3F05  01                 const type 3
3F06  025A115A           const [11]: (1511086594)
3F0A  04                 const type 4
3F0B  06                 string size (6)
3F0C  7461626C6500       "table\0"
                         const [12]: "table"
3F12  01                 const type 3
3F13  5EFDB1CD           const [13]: (-843973282)
3F17  01                 const type 3
3F18  DCCB15D0           const [14]: (-803877924)
3F1C  03                 const type 3
3F1D  0000803F           const [15]: (0)
3F21  01                 const type 3
3F22  0344B180           const [16]: (-2135866365)
3F26  01                 const type 3
3F27  53C18DBF           const [17]: (-1081228973)
3F2B  01                 const type 3
3F2C  BC3A29B6           const [18]: (-1238811972)
3F30  01                 const type 3
3F31  D48E598B           const [19]: (-1957065004)
3F35  01                 const type 3
3F36  497363B8           const [20]: (-1201441975)
3F3A  04                 const type 4
3F3B  09                 string size (9)
3F3C  7669704167656E74+  "vipAgent"
3F44  00                 "\0"
                         const [21]: "vipAgent"
3F45  01                 const type 3
3F46  5F4FD37D           const [22]: (2111000415)
3F4A  04                 const type 4
3F4B  0E                 string size (14)
3F4C  737061776E436F6F+  "spawnCoo"
3F54  6C646F776E00       "ldown\0"
                         const [23]: "spawnCooldown"
3F5A  04                 const type 4
3F5B  0A                 string size (10)
3F5C  7761697454696D65+  "waitTime"
3F64  7200               "r\0"
                         const [24]: "waitTimer"
3F66  04                 const type 4
3F67  07                 string size (7)
3F68  737472696E6700     "string\0"
                         const [25]: "string"
3F6F  01                 const type 3
3F70  64F644DE           const [26]: (-565905820)
3F74  01                 const type 3
3F75  BCD6AE9F           const [27]: (-1615931716)
3F79  01                 const type 3
3F7A  3C2E251B           const [28]: (455421500)
3F7E  04                 const type 4
3F7F  08                 string size (8)
3F80  4361727269657200   "Carrier\0"
                         const [29]: "Carrier"
3F88  04                 const type 4
3F89  0A                 string size (10)
3F8A  6747616D65446174+  "gGameDat"
3F92  6100               "a\0"
                         const [30]: "gGameData"
3F94  01                 const type 3
3F95  958D3517           const [31]: (389385621)
3F99  01                 const type 3
3F9A  9D0C45E6           const [32]: (-431682403)
3F9E  01                 const type 3
3F9F  7DB5D47F           const [33]: (2144646525)
3FA3  03                 const type 3
3FA4  00000040           const [34]: (0)
                         * functions:
3FA8  00                 sizep (0)
                         * lines:
3FAA  01                 sizelineinfo (178)
                         [pc] (line)
3FAB  96                 [001] (-106)
3FAC  02                 [002] (-106)
3FAD  00                 [003] (-106)
3FAE  00                 [004] (-106)
3FAF  96                 [005] (-105)
3FB0  02                 [006] (-101)
3FB1  00                 [007] (-101)
3FB2  00                 [008] (-101)
3FB3  96                 [009] (-101)
3FB4  02                 [010] (-101)
3FB5  00                 [011] (-101)
3FB6  00                 [012] (-101)
3FB7  96                 [013] (-101)
3FB8  02                 [014] (-100)
3FB9  00                 [015] (-96)
3FBA  00                 [016] (-96)
3FBB  97                 [017] (-96)
3FBC  02                 [018] (-96)
3FBD  00                 [019] (-96)
3FBE  00                 [020] (-96)
3FBF  9B                 [021] (-96)
3FC0  02                 [022] (-96)
3FC1  00                 [023] (-95)
3FC2  00                 [024] (-92)
3FC3  9B                 [025] (-91)
3FC4  02                 [026] (-91)
3FC5  00                 [027] (-91)
3FC6  00                 [028] (-91)
3FC7  9B                 [029] (-91)
3FC8  02                 [030] (-91)
3FC9  00                 [031] (-90)
3FCA  00                 [032] (-90)
3FCB  9B                 [033] (-90)
3FCC  02                 [034] (-90)
3FCD  00                 [035] (-90)
3FCE  00                 [036] (-90)
3FCF  9B                 [037] (-90)
3FD0  02                 [038] (-90)
3FD1  00                 [039] (-90)
3FD2  00                 [040] (-89)
3FD3  9B                 [041] (-89)
3FD4  02                 [042] (-89)
3FD5  00                 [043] (-89)
3FD6  00                 [044] (-89)
3FD7  9B                 [045] (-89)
3FD8  02                 [046] (-89)
3FD9  00                 [047] (-88)
3FDA  00                 [048] (-88)
3FDB  9B                 [049] (-88)
3FDC  02                 [050] (-88)
3FDD  00                 [051] (-88)
3FDE  00                 [052] (-88)
3FDF  9C                 [053] (-88)
3FE0  02                 [054] (-88)
3FE1  00                 [055] (-88)
3FE2  00                 [056] (-88)
3FE3  A0                 [057] (-88)
3FE4  02                 [058] (-86)
3FE5  00                 [059] (-91)
3FE6  00                 [060] (-85)
3FE7  A0                 [061] (-82)
3FE8  02                 [062] (-82)
3FE9  00                 [063] (-82)
3FEA  00                 [064] (-81)
3FEB  A0                 [065] (-77)
3FEC  02                 [066] (-77)
3FED  00                 [067] (-76)
3FEE  00                 [068] (-76)
3FEF  A0                 [069] (-76)
3FF0  02                 [070] (-76)
3FF1  00                 [071] (-76)
3FF2  00                 [072] (-76)
3FF3  A0                 [073] (-76)
3FF4  02                 [074] (-76)
3FF5  00                 [075] (-76)
3FF6  00                 [076] (-76)
3FF7  A0                 [077] (-76)
3FF8  02                 [078] (-76)
3FF9  00                 [079] (-76)
3FFA  00                 [080] (-76)
3FFB  A0                 [081] (-76)
3FFC  02                 [082] (-76)
3FFD  00                 [083] (-76)
3FFE  00                 [084] (-76)
3FFF  A0                 [085] (-76)
4000  02                 [086] (-76)
4001  00                 [087] (-76)
4002  00                 [088] (-75)
4003  A1                 [089] (-71)
4004  02                 [090] (-71)
4005  00                 [091] (-71)
4006  00                 [092] (-71)
4007  A4                 [093] (-71)
4008  02                 [094] (-70)
4009  00                 [095] (-70)
400A  00                 [096] (-70)
400B  A5                 [097] (-70)
400C  02                 [098] (-70)
400D  00                 [099] (-70)
400E  00                 [100] (-70)
400F  A5                 [101] (-69)
4010  02                 [102] (-65)
4011  00                 [103] (-65)
4012  00                 [104] (-65)
4013  A5                 [105] (-65)
4014  02                 [106] (-65)
4015  00                 [107] (-64)
4016  00                 [108] (-60)
4017  A5                 [109] (-60)
4018  02                 [110] (-60)
4019  00                 [111] (-60)
401A  00                 [112] (-59)
401B  A5                 [113] (-59)
401C  02                 [114] (-59)
401D  00                 [115] (-59)
401E  00                 [116] (-59)
401F  A5                 [117] (-58)
4020  02                 [118] (-60)
4021  00                 [119] (-57)
4022  00                 [120] (-54)
4023  A6                 [121] (-54)
4024  02                 [122] (-54)
4025  00                 [123] (-54)
4026  00                 [124] (-54)
4027  A6                 [125] (-54)
4028  02                 [126] (-54)
4029  00                 [127] (-54)
402A  00                 [128] (-54)
402B  A6                 [129] (-54)
402C  02                 [130] (-52)
402D  00                 [131] (-48)
402E  00                 [132] (-48)
402F  A6                 [133] (-48)
4030  02                 [134] (-46)
4031  00                 [135] (-46)
4032  00                 [136] (-46)
4033  A6                 [137] (-46)
4034  02                 [138] (-44)
4035  00                 [139] (-44)
4036  00                 [140] (-44)
4037  A6                 [141] (-44)
4038  02                 [142] (-44)
4039  00                 [143] (-43)
403A  00                 [144] (-43)
403B  A6                 [145] (-43)
403C  02                 [146] (-43)
403D  00                 [147] (-43)
403E  00                 [148] (-43)
403F  A6                 [149] (-43)
4040  02                 [150] (-42)
4041  00                 [151] (-42)
4042  00                 [152] (-42)
4043  A6                 [153] (-42)
4044  02                 [154] (-42)
4045  00                 [155] (-42)
4046  00                 [156] (-42)
4047  A7                 [157] (-42)
4048  02                 [158] (-42)
4049  00                 [159] (-42)
404A  00                 [160] (-41)
404B  A7                 [161] (-41)
404C  02                 [162] (-41)
404D  00                 [163] (-41)
404E  00                 [164] (-41)
404F  A7                 [165] (-41)
4050  02                 [166] (-41)
4051  00                 [167] (-41)
4052  00                 [168] (-41)
4053  A7                 [169] (-40)
4054  02                 [170] (-40)
4055  00                 [171] (-40)
4056  00                 [172] (-40)
4057  A7                 [173] (-40)
4058  02                 [174] (-40)
4059  00                 [175] (-40)
405A  00                 [176] (-40)
405B  A7                 [177] (-40)
405C  02                 [178] (-37)
                         * locals:
4273  00                 sizelocvars (0)
                         * upvalues:
4274  00                 sizeupvalues (0)
                         ** end of function **

                         
4275                     ** function [15] definition (level 2)
                         ** start of function **
4275  00                 string size (0)
                         source name: (none)
4277  05                 line defined (733)
4278  DD                 last line defined (989)
4279  07                 nups (16)
427A  10                 numparams (0)
427B  00                 is_vararg (0)
427C  00                 maxstacksize (67)
                         * code:
427F  04                 sizecode (639)
4280  1D000000           [001] getglobal  0   0        ; _T
4284  4B000000           [002] newtable   1   0   0    ; array=0, hash=0
4288  0C408080           [003] settable   0   257 1    ; "gNemesis"
428C  1D800000           [004] getglobal  0   2        ; 1074689893
4290  5DC00000           [005] getglobal  1   3        ; gGameData
4294  22800001           [006] call       0   2   2  
4298  18000000           [007] test       0       0    ; to [9] if true
429C  1A000080           [008] jmp        1            ; to [10]
42A0  1E008000           [009] return     0   1      
42A4  1D000100           [010] getglobal  0   4        ; gGameRules
42A8  24404100           [011] self       0   0   261  ; -1201441975
42AC  22800001           [012] call       0   2   2  
42B0  4E804100           [013] gettable   1   0   262  ; "missionType"
42B4  9DC00100           [014] getglobal  2   7        ; Lotus_Game
42B8  8E004201           [015] gettable   2   2   264  ; "MT_MASTERY"
fail op	35
42BC  63808000           [016] close      1  
42C0  1A800380           [017] jmp        15           ; to [33]
42C4  9D800000           [018] getglobal  2   2        ; 1074689893
42C8  CE404200           [019] gettable   3   0   265  ; "keyChainName"
42CC  A2800001           [020] call       2   2   2  
42D0  98000000           [021] test       2       0    ; to [23] if true
42D4  1A400280           [022] jmp        10           ; to [33]
42D8  9D000100           [023] getglobal  2   4        ; gGameRules
42DC  A4804201           [024] self       2   2   266  ; -1957065004
42E0  1DC10200           [025] getglobal  4   11       ; gLotusPhotoBoothGameRulesType
42E4  A2808001           [026] call       2   3   2  
42E8  98400000           [027] test       2       1    ; to [29] if false
42EC  1AC00080           [028] jmp        4            ; to [33]
42F0  9D000000           [029] getglobal  2   0        ; _T
42F4  8E004301           [030] gettable   2   2   268  ; "InSimulacrum"
42F8  98000000           [031] test       2       0    ; to [33] if true
42FC  1A000080           [032] jmp        1            ; to [34]
4300  1E008000           [033] return     0   1      
4304  9D400300           [034] getglobal  2   13       ; string
4308  8E804301           [035] gettable   2   2   270  ; -565905820
430C  DDC00300           [036] getglobal  3   15       ; gMatchingService
4310  E400C401           [037] self       3   3   272  ; -142036619
4314  E2800001           [038] call       3   2   2  
4318  13010000           [039] getupval   4   0      
431C  0E414402           [040] gettable   4   4   273  ; "NEMESIS_MISSION_TAG"
4320  A2808001           [041] call       2   3   2  
4324  98000000           [042] test       2       0    ; to [44] if true
4328  1A400380           [043] jmp        14           ; to [58]
432C  9D000000           [044] getglobal  2   0        ; _T
4330  CBC00000           [045] newtable   3   0   3    ; array=0, hash=3
4334  1D010500           [046] getglobal  4   20       ; 2144646525
4338  59410500           [047] loadk      5   21       ; 0
433C  99810500           [048] loadk      6   22       ; 0
4340  22818001           [049] call       4   3   2  
4344  CC008189           [050] settable   3   275 4    ; "spawnCooldown"
4348  0B010000           [051] newtable   4   0   0    ; array=0, hash=0
434C  CC00818B           [052] settable   3   279 4    ; "activeAvatars"
4350  CC40468C           [053] settable   3   280 281  ; "waitTimer" 0
4354  8CC00089           [054] settable   2   274 3    ; "HenchmenTracker"
4358  9D000000           [055] getglobal  2   0        ; _T
435C  D3008000           [056] getupval   3   1      
4360  8CC0008D           [057] settable   2   282 3    ; "OnAgentSpawnedNemesisCallback"
4364  9DC00600           [058] getglobal  2   27       ; gGameConfig
4368  A4004701           [059] self       2   2   284  ; -1554164580
436C  A2800001           [060] call       2   2   2  
4370  DD400700           [061] getglobal  3   29       ; gRegion
4374  E480C701           [062] self       3   3   286  ; -1456226250
4378  E2800001           [063] call       3   2   2  
437C  CEC0C701           [064] gettable   3   3   287  ; "postProcess"
4380  0E01C801           [065] gettable   4   3   288  ; "fade"
fail op	35
4384  23404602           [066] close      0  
4388  1A400780           [067] jmp        30           ; to [98]
438C  1D810000           [068] getglobal  4   2        ; 1074689893
4390  5D410700           [069] getglobal  5   29       ; gRegion
4394  6441C802           [070] self       5   5   289  ; 2066713391
4398  62010001           [071] call       5   2   0  
439C  22810000           [072] call       4   0   2  
43A0  18010000           [073] test       4       0    ; to [75] if true
43A4  1A800580           [074] jmp        23           ; to [98]
43A8  1D010100           [075] getglobal  4   4        ; gGameRules
43AC  24814802           [076] self       4   4   290  ; 1388115628
43B0  22810001           [077] call       4   2   2  
43B4  18410000           [078] test       4       1    ; to [80] if false
43B8  1A400480           [079] jmp        18           ; to [98]
43BC  1D810000           [080] getglobal  4   2        ; 1074689893
43C0  5D410700           [081] getglobal  5   29       ; gRegion
43C4  64C1C802           [082] self       5   5   291  ; -2071158816
43C8  62010001           [083] call       5   2   0  
43CC  22810000           [084] call       4   0   2  
43D0  18410000           [085] test       4       1    ; to [87] if false
43D4  1A800280           [086] jmp        11           ; to [98]
43D8  1D410700           [087] getglobal  4   29       ; gRegion
43DC  24014902           [088] self       4   4   292  ; 1395335411
43E0  22810001           [089] call       4   2   2  
fail op	35
43E4  63404602           [090] close      1  
43E8  1A400180           [091] jmp        6            ; to [98]
43EC  1D410900           [092] getglobal  4   37       ; gFlashMgr
43F0  24814902           [093] self       4   4   294  ; 1634586770
43F4  92010001           [094] move       6   2      
43F8  22818001           [095] call       4   3   2  
43FC  18010000           [096] test       4       0    ; to [98] if true
4400  1AC00080           [097] jmp        4            ; to [102]
4404  1DC10900           [098] getglobal  4   39       ; 538022378
4408  59010A00           [099] loadk      5   40       ; -51
440C  22410001           [100] call       4   2   1  
4410  1A80F67F           [101] jmp        -37          ; to [65]
4414  1DC10000           [102] getglobal  4   3        ; gGameData
4418  24414A02           [103] self       4   4   297  ; 389385621
441C  22810001           [104] call       4   2   2  
4420  5D810000           [105] getglobal  5   2        ; 1074689893
4424  92010002           [106] move       6   4      
4428  62810001           [107] call       5   2   2  
442C  58410000           [108] test       5       1    ; to [110] if false
4430  1A800080           [109] jmp        3            ; to [113]
4434  64814A02           [110] self       5   4   298  ; 188678183
4438  62810001           [111] call       5   2   2  
443C  1A400080           [112] jmp        2            ; to [115]
4440  57410000           [113] loadbool   5   0   1    ; false, to [115]
4444  57018000           [114] loadbool   5   1   0    ; true
4448  9DC10A00           [115] getglobal  6   43       ; -332969190
444C  DD010100           [116] getglobal  7   4        ; gGameRules
4450  E441C103           [117] self       7   7   261  ; -1201441975
4454  E2810001           [118] call       7   2   2  
4458  CE01CB03           [119] gettable   7   7   300  ; "alertTag"
445C  A2810001           [120] call       6   2   2  
4460  D3010001           [121] getupval   7   2      
4464  D8410000           [122] test       7       1    ; to [124] if false
4468  1A800180           [123] jmp        7            ; to [131]
446C  DDC10A00           [124] getglobal  7   43       ; -332969190
4470  19420B00           [125] loadk      8   45       ; "Lich"
4474  E2810001           [126] call       7   2   2  
fail op	35
4478  63C00103           [127] close      1  
447C  1A000080           [128] jmp        1            ; to [130]
4480  D7410000           [129] loadbool   7   0   1    ; false, to [131]
4484  D7018000           [130] loadbool   7   1   0    ; true
fail op	8
4488  C8010001           [131] setupval   7   2      
448C  D3018001           [132] getupval   7   3      
4490  D8410000           [133] test       7       1    ; to [135] if false
4494  1A800180           [134] jmp        7            ; to [142]
4498  DDC10A00           [135] getglobal  7   43       ; -332969190
449C  19820B00           [136] loadk      8   46       ; "LichLichLich"
44A0  E2810001           [137] call       7   2   2  
fail op	35
44A4  63C00103           [138] close      1  
44A8  1A000080           [139] jmp        1            ; to [141]
44AC  D7410000           [140] loadbool   7   0   1    ; false, to [142]
44B0  D7018000           [141] loadbool   7   1   0    ; true
fail op	8
44B4  C8018001           [142] setupval   7   3      
44B8  D3010002           [143] getupval   7   4      
44BC  D8410000           [144] test       7       1    ; to [146] if false
44C0  1A800180           [145] jmp        7            ; to [153]
44C4  DDC10A00           [146] getglobal  7   43       ; -332969190
44C8  19C20B00           [147] loadk      8   47       ; "LichPal"
44CC  E2810001           [148] call       7   2   2  
fail op	35
44D0  63C00103           [149] close      1  
44D4  1A000080           [150] jmp        1            ; to [152]
44D8  D7410000           [151] loadbool   7   0   1    ; false, to [153]
44DC  D7018000           [152] loadbool   7   1   0    ; true
fail op	8
44E0  C8010002           [153] setupval   7   4      
44E4  DD010000           [154] getglobal  7   0        ; _T
44E8  13028001           [155] getupval   8   3      
44EC  CC010298           [156] settable   7   304 8    ; "forceSpawnNemesis"
44F0  DD010000           [157] getglobal  7   0        ; _T
44F4  1DC20A00           [158] getglobal  8   43       ; -332969190
44F8  59820C00           [159] loadk      9   50       ; "Henchmen"
44FC  22820001           [160] call       8   2   2  
fail op	35
4500  63000203           [161] close      1  
4504  1A000080           [162] jmp        1            ; to [164]
4508  17420000           [163] loadbool   8   0   1    ; false, to [165]
450C  17028000           [164] loadbool   8   1   0    ; true
4510  CC018298           [165] settable   7   305 8    ; "forceSpawnHenchmen"
4514  DD410900           [166] getglobal  7   37       ; gFlashMgr
4518  E4C1CC03           [167] self       7   7   307  ; 277467219
451C  59020D00           [168] loadk      9   52       ; "Engine.DeveloperMode"
4520  97020000           [169] loadbool   10  0   0    ; false
4524  E2810002           [170] call       7   4   2  
4528  D8010000           [171] test       7       0    ; to [173] if true
452C  1A000480           [172] jmp        17           ; to [190]
4530  DD010000           [173] getglobal  7   0        ; _T
4534  25020000           [174] closure    8   0      
4538  12008002           [175] move       0   5      
453C  13008002           [176] getupval   0   5      
4540  12000002           [177] move       0   4      
4544  CC01829A           [178] settable   7   309 8    ; "TestHenchmen"
4548  DD010000           [179] getglobal  7   0        ; _T
454C  25420000           [180] closure    8   1      
4550  13000003           [181] getupval   0   6      
4554  13008003           [182] getupval   0   7      
4558  CC01029B           [183] settable   7   310 8    ; "TestNemesisAlly"
455C  DDC10D00           [184] getglobal  7   55       ; _G
4560  CE01CE03           [185] gettable   7   7   312  ; "ForceSpawnNemesis"
4564  D8410000           [186] test       7       1    ; to [188] if false
4568  1A000080           [187] jmp        1            ; to [189]
456C  D3018001           [188] getupval   7   3      
fail op	8
4570  C8018001           [189] setupval   7   3      
4574  D3010001           [190] getupval   7   2      
4578  D8010000           [191] test       7       0    ; to [193] if true
457C  1A400080           [192] jmp        2            ; to [195]
4580  D3010004           [193] getupval   7   8      
4584  E2418000           [194] call       7   1   1  
4588  D3010002           [195] getupval   7   4      
458C  D8010000           [196] test       7       0    ; to [198] if true
4590  1A400480           [197] jmp        18           ; to [216]
4594  DDC10900           [198] getglobal  7   39       ; 538022378
4598  19420E00           [199] loadk      8   57       ; 0
459C  E2410001           [200] call       7   2   1  
45A0  DD010000           [201] getglobal  7   0        ; _T
45A4  CCC14E9D           [202] settable   7   314 315  ; "forceSpawnAllyNemesis" 1
45A8  D3010003           [203] getupval   7   6      
45AC  E2818000           [204] call       7   1   2  
45B0  1D820000           [205] getglobal  8   2        ; 1074689893
45B4  52028003           [206] move       9   7      
45B8  22820001           [207] call       8   2   2  
45BC  18420000           [208] test       8       1    ; to [210] if false
45C0  1A400180           [209] jmp        6            ; to [216]
45C4  13028003           [210] getupval   8   7      
45C8  0E024F04           [211] gettable   8   8   316  ; -478047289
45CC  52028003           [212] move       9   7      
45D0  9DC20100           [213] getglobal  10  7        ; Lotus_Game
45D4  8E424F05           [214] gettable   10  10  317  ; "NE_NEMESIS_ALLY"
45D8  22428001           [215] call       8   3   1  
45DC  1D020000           [216] getglobal  8   0        ; _T
45E0  0E424C04           [217] gettable   8   8   305  ; "forceSpawnHenchmen"
45E4  18020000           [218] test       8       0    ; to [220] if true
45E8  1AC00080           [219] jmp        4            ; to [224]
45EC  13028002           [220] getupval   8   5      
45F0  52020002           [221] move       9   4      
45F4  22420001           [222] call       8   2   1  
45F8  1E008000           [223] return     0   1      
45FC  17020000           [224] loadbool   8   0   0    ; false
4600  5DC20300           [225] getglobal  9   15       ; gMatchingService
4604  6402C404           [226] self       9   9   272  ; -142036619
4608  62820001           [227] call       9   2   2  
fail op	35
460C  6380CF04           [228] close      1  
4610  1A800880           [229] jmp        35           ; to [265]
4614  9DC20F00           [230] getglobal  10  63       ; cjson
4618  8E025005           [231] gettable   10  10  320  ; -1976663275
461C  D2028004           [232] move       11  9      
4620  A2820001           [233] call       10  2   2  
4624  CE425005           [234] gettable   11  10  321  ; "name"
fail op	35
4628  6380D005           [235] close      1  
462C  1AC00680           [236] jmp        28           ; to [265]
4630  DD420300           [237] getglobal  11  13       ; string
4634  CE82C305           [238] gettable   11  11  270  ; -565905820
4638  0E435005           [239] gettable   12  10  321  ; "name"
463C  53030000           [240] getupval   13  0      
4640  4E43C406           [241] gettable   13  13  273  ; "NEMESIS_MISSION_TAG"
4644  E2828001           [242] call       11  3   2  
fail op	35
4648  6380D005           [243] close      1  
464C  1AC00480           [244] jmp        20           ; to [265]
4650  1D430300           [245] getglobal  12  13       ; string
4654  0EC35006           [246] gettable   12  12  323  ; 2071470131
4658  4E435005           [247] gettable   13  10  321  ; "name"
465C  99430500           [248] loadk      14  21       ; 0
4660  CD43C505           [249] sub        15  11  277  ; 0
4664  22830002           [250] call       12  4   2  
4668  4E035102           [251] gettable   13  4   324  ; "mInfluenceNodes"
466C  99430500           [252] loadk      14  21       ; 0
4670  CA038006           [253] len        15  13     
4674  19440500           [254] loadk      16  21       ; 0
4678  90C30180           [255] forprep    14  8        ; to [264]
467C  8E448406           [256] gettable   18  13  17 
4680  8E445109           [257] gettable   18  18  325  ; "mNode"
4684  A4845109           [258] self       18  18  326  ; 1590141906
4688  A2840001           [259] call       18  2   2  
fail op	35
468C  23000309           [260] close      0  
4690  1A400080           [261] jmp        2            ; to [264]
4694  17028000           [262] loadbool   8   1   0    ; true
4698  1A000080           [263] jmp        1            ; to [265]
469C  9483FD7F           [264] forloop    14  -9       ; to [256] if loop
46A0  A4844A02           [265] self       18  4   298  ; 188678183
46A4  A2840001           [266] call       18  2   2  
fail op	5
46A8  C5440004           [267] getglobal  19  4097     ; nil
46AC  1AC00080           [268] jmp        4            ; to [273]
46B0  D3048001           [269] getupval   19  3      
46B4  D8040000           [270] test       19      0    ; to [272] if true
46B8  1A000080           [271] jmp        1            ; to [273]
46BC  D2040009           [272] move       19  18     
46C0  0EC55102           [273] gettable   20  4   327  ; "mHenchmenKilled"
46C4  5D050100           [274] getglobal  21  4        ; gGameRules
46C8  6405D20A           [275] self       21  21  328  ; -317790213
46CC  D3058004           [276] getupval   23  9      
46D0  19460600           [277] loadk      24  25       ; 0
46D4  62850002           [278] call       21  4   2  
46D8  0345050A           [279] add        20  20  21 
46DC  59450600           [280] loadk      21  25       ; 0
46E0  D8040000           [281] test       19      0    ; to [283] if true
46E4  1A000C80           [282] jmp        49           ; to [332]
46E8  8E055102           [283] gettable   22  4   324  ; "mInfluenceNodes"
46EC  8A05000B           [284] len        22  22     
fail op	35
46F0  2340450B           [285] close      0  
46F4  1A400080           [286] jmp        2            ; to [289]
46F8  59450500           [287] loadk      21  21       ; 0
46FC  1A800A80           [288] jmp        43           ; to [332]
4700  99450600           [289] loadk      22  25       ; 0
4704  D3050005           [290] getupval   23  10     
4708  CE45D20B           [291] gettable   23  23  329  ; "chance"
470C  13060005           [292] getupval   24  10     
4710  0E46520C           [293] gettable   24  24  329  ; "chance"
4714  0A06000C           [294] len        24  24     
4718  CE05860B           [295] gettable   23  23  24 
471C  19460600           [296] loadk      24  25       ; 0
4720  59460600           [297] loadk      25  25       ; 0
4724  99460500           [298] loadk      26  21       ; 0
4728  D3060005           [299] getupval   27  10     
472C  CE86D20D           [300] gettable   27  27  330  ; "henchmenKills"
4730  CA06800D           [301] len        27  27     
4734  19470500           [302] loadk      28  21       ; 0
4738  90060580           [303] forprep    26  21       ; to [325]
473C  93070005           [304] getupval   30  10     
4740  8E87520F           [305] gettable   30  30  330  ; "henchmenKills"
4744  8E47070F           [306] gettable   30  30  29 
4748  D3070005           [307] getupval   31  10     
474C  CE47D20F           [308] gettable   31  31  329  ; "chance"
4750  CE47870F           [309] gettable   31  31  29 
fail op	33
4754  2180070A           [310] tforloop   0       30   ; to [312] if exit
4758  1A800280           [311] jmp        11           ; to [323]
475C  D205800F           [312] move       23  31     
4760  1DC81200           [313] getglobal  32  75       ; 1668611480
4764  4D48060A           [314] sub        33  20  25 
4768  8D48060F           [315] sub        34  30  25 
476C  5C888810           [316] div        33  33  34 
4770  99480600           [317] loadk      34  25       ; 0
4774  D9480500           [318] loadk      35  21       ; 0
4778  22880002           [319] call       32  4   2  
477C  12060010           [320] move       24  32     
4780  1AC00080           [321] jmp        4            ; to [326]
4784  1A400080           [322] jmp        2            ; to [325]
4788  9205800F           [323] move       22  31     
478C  5206000F           [324] move       25  30     
4790  9446FA7F           [325] forloop    26  -22      ; to [304] if loop
4794  1D081300           [326] getglobal  32  76       ; -1828500651
4798  5208000B           [327] move       33  22     
479C  9208800B           [328] move       34  23     
47A0  D208000C           [329] move       35  24     
47A4  22880002           [330] call       32  4   2  
47A8  52050010           [331] move       21  32     
47AC  1DC80000           [332] getglobal  32  3        ; gGameData
47B0  24485310           [333] self       32  32  333  ; -1961092854
47B4  22880001           [334] call       32  2   2  
47B8  5D881300           [335] getglobal  33  78       ; Engine
47BC  4EC8D310           [336] gettable   33  33  335  ; -794986224
47C0  92080010           [337] move       34  32     
47C4  62880001           [338] call       33  2   2  
fail op	0
47C8  40088010           [339] move       33  33     
47CC  9DC81200           [340] getglobal  34  75       ; 1668611480
47D0  DD081400           [341] getglobal  35  80       ; allyCooldownSeconds
47D4  DCC88810           [342] div        35  33  35 
47D8  19490600           [343] loadk      36  25       ; 0
47DC  59490500           [344] loadk      37  21       ; 0
47E0  A2880002           [345] call       34  4   2  
47E4  DD880000           [346] getglobal  35  2        ; 1074689893
47E8  1DC90000           [347] getglobal  36  3        ; gGameData
47EC  E2880001           [348] call       35  2   2  
47F0  D8480000           [349] test       35      1    ; to [351] if false
47F4  1AC00280           [350] jmp        12           ; to [363]
47F8  DDC80000           [351] getglobal  35  3        ; gGameData
47FC  E448D411           [352] self       35  35  337  ; 1412214576
4800  E2880001           [353] call       35  2   2  
4804  CA088011           [354] len        35  35     
fail op	21
4808  15C0888C           [355] concat     0   281 35 
480C  1A400180           [356] jmp        6            ; to [363]
4810  DD881400           [357] getglobal  35  82       ; -1941280958
4814  19490600           [358] loadk      36  25       ; 0
4818  59490500           [359] loadk      37  21       ; 0
481C  E2888001           [360] call       35  3   2  
fail op	21
4820  55808811           [361] concat     1   35  34 
4824  1A000080           [362] jmp        1            ; to [364]
4828  D7480000           [363] loadbool   35  0   1    ; false, to [365]
482C  D7088000           [364] loadbool   35  1   0    ; true
4830  19490600           [365] loadk      36  25       ; 0
4834  59490600           [366] loadk      37  25       ; 0
4838  8EC95402           [367] gettable   38  4   339  ; "mHints"
483C  8A090013           [368] len        38  38     
4840  DDC90A00           [369] getglobal  39  43       ; -332969190
4844  1D4A0700           [370] getglobal  40  29       ; gRegion
4848  240A5514           [371] self       40  40  340  ; 925677844
484C  228A0001           [372] call       40  2   2  
4850  244A5514           [373] self       40  40  341  ; 340404473
4854  228A0001           [374] call       40  2   2  
4858  5D8A1500           [375] getglobal  41  86       ; -1615931716
485C  930A8005           [376] getupval   42  11     
4860  628A0001           [377] call       41  2   2  
4864  024A0A14           [378] concat     40  40  41 
4868  E2890001           [379] call       39  2   2  
486C  1DCA0900           [380] getglobal  40  39       ; 538022378
4870  594A0600           [381] loadk      41  25       ; 0
4874  224A0001           [382] call       40  2   1  
4878  D8040000           [383] test       19      0    ; to [385] if true
487C  1AC01780           [384] jmp        96           ; to [481]
4880  130A8001           [385] getupval   40  3      
4884  184A0000           [386] test       40      1    ; to [388] if false
4888  1A800180           [387] jmp        7            ; to [395]
488C  1D0A0100           [388] getglobal  40  4        ; gGameRules
4890  240A5214           [389] self       40  40  328  ; -317790213
4894  930A8004           [390] getupval   42  9      
4898  D94A0600           [391] loadk      43  25       ; 0
489C  228A0002           [392] call       40  4   2  
fail op	21
48A0  15008A12           [393] concat     0   37  40 
48A4  1A401580           [394] jmp        86           ; to [481]
48A8  1D0A0100           [395] getglobal  40  4        ; gGameRules
48AC  240A5214           [396] self       40  40  328  ; -317790213
48B0  930A8004           [397] getupval   42  9      
48B4  D94A0600           [398] loadk      43  25       ; 0
48B8  228A0002           [399] call       40  4   2  
48BC  52090014           [400] move       37  40     
48C0  1D8A1400           [401] getglobal  40  82       ; -1941280958
48C4  594A0600           [402] loadk      41  25       ; 0
48C8  994A0500           [403] loadk      42  21       ; 0
48CC  228A8001           [404] call       40  3   2  
48D0  530A8001           [405] getupval   41  3      
48D4  584A0000           [406] test       41      1    ; to [408] if false
48D8  1A400080           [407] jmp        2            ; to [410]
fail op	33
48DC  21400514           [408] tforloop   0       21   ; to [410] if exit
48E0  1A801180           [409] jmp        71           ; to [481]
48E4  5DCA1500           [410] getglobal  41  87       ; -1817107093
48E8  990A1600           [411] loadk      42  88       ; "Spawning Nemesis!"
48EC  624A0001           [412] call       41  2   1  
48F0  4E4A5602           [413] gettable   41  4   345  ; "mManifest"
48F4  9D8A1600           [414] getglobal  42  90       ; UISys
48F8  8ECA5615           [415] gettable   42  42  347  ; 1151030240
48FC  CB0A0000           [416] newtable   43  0   0    ; array=0, hash=0
4900  240BD714           [417] self       44  41  348  ; 455421500
4904  220B0001           [418] call       44  2   0  
4908  DB4A0000           [419] setlist    43  0   1    ; index 1 to top
490C  A28A0001           [420] call       42  2   2  
4910  E44A5715           [421] self       43  42  349  ; -1344420604
4914  E28A0001           [422] call       43  2   2  
4918  D84A0000           [423] test       43      1    ; to [425] if false
491C  1AC00080           [424] jmp        4            ; to [429]
4920  DDCA0900           [425] getglobal  43  39       ; 538022378
4924  194B0600           [426] loadk      44  25       ; 0
4928  E24A0001           [427] call       43  2   1  
492C  1AC0FD7F           [428] jmp        -8           ; to [421]
4930  DDCA0D00           [429] getglobal  43  55       ; _G
4934  CE8AD715           [430] gettable   43  43  350  ; "ForceCorrectPasscode"
4938  D84A0000           [431] test       43      1    ; to [433] if false
493C  1AC00580           [432] jmp        24           ; to [457]
4940  C60A8015           [433] loadnil    43  43     
fail op	8
4944  C80A0006           [434] setupval   43  12     
4948  D30A8006           [435] getupval   43  13     
494C  CECAD715           [436] gettable   43  43  351  ; -124143215
4950  E28A8000           [437] call       43  1   2  
4954  1D0B1800           [438] getglobal  44  96       ; 2083004503
4958  4E4B5602           [439] gettable   45  4   345  ; "mManifest"
495C  228B0001           [440] call       44  2   2  
4960  244B5816           [441] self       44  44  353  ; -350057302
4964  920B8015           [442] move       46  43     
4968  228B8001           [443] call       44  3   2  
496C  5DCB0000           [444] getglobal  45  3        ; gGameData
4970  648BD816           [445] self       45  45  354  ; -1556083999
4974  D20B0016           [446] move       47  44     
4978  19CC1800           [447] loadk      48  99       ; "OnPasscodeCheck"
497C  624B0002           [448] call       45  4   1  
4980  530B0006           [449] getupval   45  12     
4984  584B0000           [450] test       45      1    ; to [452] if false
4988  1A800180           [451] jmp        7            ; to [459]
498C  5DCB0900           [452] getglobal  45  39       ; 538022378
4990  994B0600           [453] loadk      46  25       ; 0
4994  624B0001           [454] call       45  2   1  
4998  1A00FE7F           [455] jmp        -7           ; to [449]
499C  1A400080           [456] jmp        2            ; to [459]
49A0  590B1900           [457] loadk      45  100      ; 0
fail op	8
49A4  480B0006           [458] setupval   45  12     
49A8  530B8003           [459] getupval   45  7      
49AC  4E0BCF16           [460] gettable   45  45  316  ; -478047289
49B0  920B0002           [461] move       46  4      
49B4  DDCB0100           [462] getglobal  47  7        ; Lotus_Game
49B8  CE4BD917           [463] gettable   47  47  357  ; "NE_NEMESIS"
49BC  130C0006           [464] getupval   48  12     
fail op	33
49C0  61008C8A           [465] tforloop   1       48   ; to [467] if exit
49C4  1A000080           [466] jmp        1            ; to [468]
49C8  174C0000           [467] loadbool   48  0   1    ; false, to [469]
49CC  170C8000           [468] loadbool   48  1   0    ; true
49D0  530C0006           [469] getupval   49  12     
fail op	33
49D4  61400CB3           [470] tforloop   1       49   ; to [472] if exit
49D8  1A000080           [471] jmp        1            ; to [473]
49DC  574C0000           [472] loadbool   49  0   1    ; false, to [474]
49E0  570C8000           [473] loadbool   49  1   0    ; true
49E4  930C0006           [474] getupval   50  12     
fail op	33
49E8  61800CB2           [475] tforloop   1       50   ; to [477] if exit
49EC  1A000080           [476] jmp        1            ; to [478]
49F0  974C0000           [477] loadbool   50  0   1    ; false, to [479]
49F4  970C8000           [478] loadbool   50  1   0    ; true
49F8  624B0003           [479] call       45  6   1  
49FC  D7040000           [480] loadbool   19  0   0    ; false
4A00  D8080000           [481] test       35      0    ; to [483] if true
4A04  1A800A80           [482] jmp        43           ; to [526]
4A08  5DCB1900           [483] getglobal  45  103      ; 1289681407
4A0C  628B8000           [484] call       45  1   2  
4A10  03490B12           [485] add        36  36  45 
fail op	21
4A14  150009B2           [486] concat     0   356 36 
4A18  1A400980           [487] jmp        38           ; to [526]
4A1C  19490600           [488] loadk      36  25       ; 0
4A20  5D4B0700           [489] getglobal  45  29       ; gRegion
4A24  640BDA16           [490] self       45  45  360  ; 65205951
4A28  628B0001           [491] call       45  2   2  
4A2C  9D8B0000           [492] getglobal  46  2        ; 1074689893
4A30  D20B8016           [493] move       47  45     
4A34  A28B0001           [494] call       46  2   2  
4A38  984B0000           [495] test       46      1    ; to [497] if false
4A3C  1A000780           [496] jmp        29           ; to [526]
4A40  A44BDA16           [497] self       46  45  361  ; -1917464545
4A44  A28B0001           [498] call       46  2   2  
4A48  A48B5A17           [499] self       46  46  362  ; 1769516121
4A4C  A28B0001           [500] call       46  2   2  
4A50  DD8B0000           [501] getglobal  47  2        ; 1074689893
4A54  120C0017           [502] move       48  46     
4A58  E28B0001           [503] call       47  2   2  
4A5C  D84B0000           [504] test       47      1    ; to [506] if false
4A60  1AC00480           [505] jmp        20           ; to [526]
4A64  D30B0007           [506] getupval   47  14     
4A68  120C8016           [507] move       48  45     
4A6C  520C0017           [508] move       49  46     
4A70  E28B8001           [509] call       47  3   2  
4A74  D80B0000           [510] test       47      0    ; to [512] if true
4A78  1A400380           [511] jmp        14           ; to [526]
4A7C  D30B0003           [512] getupval   47  6      
4A80  E28B8000           [513] call       47  1   2  
4A84  1D8C0000           [514] getglobal  48  2        ; 1074689893
4A88  520C8017           [515] move       49  47     
4A8C  228C0001           [516] call       48  2   2  
4A90  184C0000           [517] test       48      1    ; to [519] if false
4A94  1A400180           [518] jmp        6            ; to [525]
4A98  130C8003           [519] getupval   48  7      
4A9C  0E0C4F18           [520] gettable   48  48  316  ; -478047289
4AA0  520C8017           [521] move       49  47     
4AA4  9DCC0100           [522] getglobal  50  7        ; Lotus_Game
4AA8  8E4C4F19           [523] gettable   50  50  317  ; "NE_NEMESIS_ALLY"
4AAC  224C8001           [524] call       48  3   1  
4AB0  D7080000           [525] loadbool   35  0   0    ; false
4AB4  1D0C0000           [526] getglobal  48  0        ; _T
4AB8  0E8C4418           [527] gettable   48  48  274  ; "HenchmenTracker"
4ABC  180C0000           [528] test       48      0    ; to [530] if true
4AC0  1A800480           [529] jmp        19           ; to [549]
4AC4  1D0C0100           [530] getglobal  48  4        ; gGameRules
4AC8  24CC5A18           [531] self       48  48  363  ; -2059104209
4ACC  228C0001           [532] call       48  2   2  
4AD0  184C0000           [533] test       48      1    ; to [535] if false
4AD4  1A400380           [534] jmp        14           ; to [549]
4AD8  1D0C0000           [535] getglobal  48  0        ; _T
4ADC  0E8C4418           [536] gettable   48  48  274  ; "HenchmenTracker"
4AE0  0E0C4618           [537] gettable   48  48  280  ; "waitTimer"
fail op	21
4AE4  15008C8C           [538] concat     0   281 48 
4AE8  1A000280           [539] jmp        9            ; to [549]
4AEC  1D0C0000           [540] getglobal  48  0        ; _T
4AF0  0E8C4418           [541] gettable   48  48  274  ; "HenchmenTracker"
4AF4  5D0C0000           [542] getglobal  49  0        ; _T
4AF8  4E8CC418           [543] gettable   49  49  274  ; "HenchmenTracker"
4AFC  4E0CC618           [544] gettable   49  49  280  ; "waitTimer"
4B00  9D0C1B00           [545] getglobal  50  108      ; 1661359502
4B04  A28C8000           [546] call       50  1   2  
4B08  4D8C8C18           [547] sub        49  49  50 
4B0C  0C4C0C8C           [548] settable   48  280 49   ; "waitTimer"
4B10  98040000           [549] test       18      0    ; to [551] if true
4B14  1A00D57F           [550] jmp        -171         ; to [380]
fail op	21
4B18  15005913           [551] concat     0   38  356
4B1C  1A80D47F           [552] jmp        -173         ; to [380]
4B20  1D0C0100           [553] getglobal  48  4        ; gGameRules
4B24  240C5218           [554] self       48  48  328  ; -317790213
4B28  930C8005           [555] getupval   50  11     
4B2C  D94C0600           [556] loadk      51  25       ; 0
4B30  228C0002           [557] call       48  4   2  
4B34  5D0C0100           [558] getglobal  49  4        ; gGameRules
4B38  640CD218           [559] self       49  49  328  ; -317790213
4B3C  D20C8013           [560] move       51  39     
4B40  194D0600           [561] loadk      52  25       ; 0
4B44  628C0002           [562] call       49  4   2  
4B48  034C0C18           [563] add        48  48  49 
4B4C  530C8007           [564] getupval   49  15     
fail op	21
4B50  15008C18           [565] concat     0   49  48 
4B54  1A00D17F           [566] jmp        -187         ; to [380]
4B58  4ECC5402           [567] gettable   49  4   339  ; "mHints"
4B5C  8A098018           [568] len        38  49     
fail op	21
4B60  15005913           [569] concat     0   38  356
4B64  1A00D07F           [570] jmp        -191         ; to [380]
4B68  520C0013           [571] move       49  38     
4B6C  8E4C5B02           [572] gettable   50  4   365  ; "mHintProgress"
4B70  838C0C18           [573] add        50  48  50 
4B74  D30C8007           [574] getupval   51  15     
4B78  0E4D5B02           [575] gettable   52  4   365  ; "mHintProgress"
4B7C  C30C8D19           [576] add        51  51  52 
4B80  120D0019           [577] move       52  50     
4B84  530D8003           [578] getupval   53  7      
4B88  4E8DDB1A           [579] gettable   53  53  366  ; 70204522
4B8C  920D8018           [580] move       54  49     
4B90  628D0001           [581] call       53  2   2  
fail op	33
4B94  21008D1A           [582] tforloop   0       52   ; to [584] if exit
4B98  1A000380           [583] jmp        13           ; to [597]
4B9C  0D4D0D1A           [584] sub        52  52  53 
4BA0  CD4C8D19           [585] sub        51  51  53 
4BA4  434CC518           [586] add        49  49  277  ; 0
fail op	33
4BA8  21400CB2           [587] tforloop   0       49   ; to [589] if exit
4BAC  1A400080           [588] jmp        2            ; to [591]
4BB0  99091900           [589] loadk      38  100      ; 0
4BB4  1A400180           [590] jmp        6            ; to [597]
4BB8  930D8003           [591] getupval   54  7      
4BBC  8E8D5B1B           [592] gettable   54  54  366  ; 70204522
4BC0  D20D8018           [593] move       55  49     
4BC4  A28D0001           [594] call       54  2   2  
4BC8  520D001B           [595] move       53  54     
4BCC  1A00FC7F           [596] jmp        -15          ; to [582]
4BD0  860D801B           [597] loadnil    54  55     
4BD4  120E0013           [598] move       56  38     
fail op	21
4BD8  1540C619           [599] concat     0   51  281
4BDC  1A000280           [600] jmp        9            ; to [610]
4BE0  530E8003           [601] getupval   57  7      
4BE4  4E8EDB1C           [602] gettable   57  57  366  ; 70204522
4BE8  8D4EC518           [603] sub        58  49  277  ; 0
4BEC  628E0001           [604] call       57  2   2  
4BF0  834E8E19           [605] add        58  51  57 
4BF4  9C4E0E1D           [606] div        58  58  57 
4BF8  C4CD5B1D           [607] mul        55  58  367  ; 0
4BFC  99CD1B00           [608] loadk      54  111      ; 0
4C00  1A000180           [609] jmp        5            ; to [615]
4C04  9C4E0D1A           [610] div        58  52  53 
4C08  84CD5B1D           [611] mul        54  58  367  ; 0
4C0C  9C4E8D19           [612] div        58  51  53 
4C10  C4CD5B1D           [613] mul        55  58  367  ; 0
4C14  034E451C           [614] add        56  56  277  ; 0
4C18  84CE5B1C           [615] mul        58  56  367  ; 0
4C1C  DDCE1200           [616] getglobal  59  75       ; 1668611480
4C20  120F001B           [617] move       60  54     
4C24  594F0600           [618] loadk      61  25       ; 0
4C28  99CF1B00           [619] loadk      62  111      ; 0
4C2C  E28E0002           [620] call       59  4   2  
4C30  83CE0E1D           [621] add        58  58  59 
4C34  DD0E0100           [622] getglobal  59  4        ; gGameRules
4C38  E40EDC1D           [623] self       59  59  368  ; 311459921
4C3C  5D4F1C00           [624] getglobal  61  113      ; -421772368
4C40  998F1C00           [625] loadk      62  114      ; "/Lotus/Language/Game/KuvaMurmur"
4C44  CB0F0000           [626] newtable   63  0   0    ; array=0, hash=0
4C48  628F8001           [627] call       61  3   2  
4C4C  920F001D           [628] move       62  58     
4C50  DDCF1200           [629] getglobal  63  75       ; 1668611480
4C54  1210801B           [630] move       64  55     
4C58  59500600           [631] loadk      65  25       ; 0
4C5C  99D01B00           [632] loadk      66  111      ; 0
4C60  E28F0002           [633] call       63  4   2  
4C64  17100000           [634] loadbool   64  0   0    ; false
4C68  59500E00           [635] loadk      65  57       ; 0
4C6C  E24E8003           [636] call       59  7   1  
fail op	8
4C70  080C8007           [637] setupval   48  15     
4C74  1A00BF7F           [638] jmp        -259         ; to [380]
4C78  1E008000           [639] return     0   1      
                         * constants:
4C7C  73                 sizek (115)
4C7D  04                 const type 4
4C7E  03                 string size (3)
4C7F  5F5400             "_T\0"
                         const [0]: "_T"
4C82  04                 const type 4
4C83  09                 string size (9)
4C84  674E656D65736973+  "gNemesis"
4C8C  00                 "\0"
                         const [1]: "gNemesis"
4C8D  01                 const type 3
4C8E  65770E40           const [2]: (1074689893)
4C92  04                 const type 4
4C93  0A                 string size (10)
4C94  6747616D65446174+  "gGameDat"
4C9C  6100               "a\0"
                         const [3]: "gGameData"
4C9E  04                 const type 4
4C9F  0B                 string size (11)
4CA0  6747616D6552756C+  "gGameRul"
4CA8  657300             "es\0"
                         const [4]: "gGameRules"
4CAB  01                 const type 3
4CAC  497363B8           const [5]: (-1201441975)
4CB0  04                 const type 4
4CB1  0C                 string size (12)
4CB2  6D697373696F6E54+  "missionT"
4CBA  79706500           "ype\0"
                         const [6]: "missionType"
4CBE  04                 const type 4
4CBF  0B                 string size (11)
4CC0  4C6F7475735F4761+  "Lotus_Ga"
4CC8  6D6500             "me\0"
                         const [7]: "Lotus_Game"
4CCB  04                 const type 4
4CCC  0B                 string size (11)
4CCD  4D545F4D41535445+  "MT_MASTE"
4CD5  525900             "RY\0"
                         const [8]: "MT_MASTERY"
4CD8  04                 const type 4
4CD9  0D                 string size (13)
4CDA  6B6579436861696E+  "keyChain"
4CE2  4E616D6500         "Name\0"
                         const [9]: "keyChainName"
4CE7  01                 const type 3
4CE8  D48E598B           const [10]: (-1957065004)
4CEC  04                 const type 4
4CED  1E                 string size (30)
4CEE  674C6F7475735068+  "gLotusPh"
4CF6  6F746F426F6F7468+  "otoBooth"
4CFE  47616D6552756C65+  "GameRule"
4D06  735479706500       "sType\0"
                         const [11]: "gLotusPhotoBoothGameRulesType"
4D0C  04                 const type 4
4D0D  0D                 string size (13)
4D0E  496E53696D756C61+  "InSimula"
4D16  6372756D00         "crum\0"
                         const [12]: "InSimulacrum"
4D1B  04                 const type 4
4D1C  07                 string size (7)
4D1D  737472696E6700     "string\0"
                         const [13]: "string"
4D24  01                 const type 3
4D25  64F644DE           const [14]: (-565905820)
4D29  04                 const type 4
4D2A  11                 string size (17)
4D2B  674D61746368696E+  "gMatchin"
4D33  6753657276696365+  "gService"
4D3B  00                 "\0"
                         const [15]: "gMatchingService"
4D3C  01                 const type 3
4D3D  75B188F7           const [16]: (-142036619)
4D41  04                 const type 4
4D42  14                 string size (20)
4D43  4E454D455349535F+  "NEMESIS_"
4D4B  4D495353494F4E5F+  "MISSION_"
4D53  54414700           "TAG\0"
                         const [17]: "NEMESIS_MISSION_TAG"
4D57  04                 const type 4
4D58  10                 string size (16)
4D59  48656E63686D656E+  "Henchmen"
4D61  547261636B657200   "Tracker\0"
                         const [18]: "HenchmenTracker"
4D69  04                 const type 4
4D6A  0E                 string size (14)
4D6B  737061776E436F6F+  "spawnCoo"
4D73  6C646F776E00       "ldown\0"
                         const [19]: "spawnCooldown"
4D79  01                 const type 3
4D7A  7DB5D47F           const [20]: (2144646525)
4D7E  03                 const type 3
4D7F  0000803F           const [21]: (0)
4D83  03                 const type 3
4D84  0000C040           const [22]: (0)
4D88  04                 const type 4
4D89  0E                 string size (14)
4D8A  6163746976654176+  "activeAv"
4D92  617461727300       "atars\0"
                         const [23]: "activeAvatars"
4D98  04                 const type 4
4D99  0A                 string size (10)
4D9A  7761697454696D65+  "waitTime"
4DA2  7200               "r\0"
                         const [24]: "waitTimer"
4DA4  03                 const type 3
4DA5  00000000           const [25]: (0)
4DA9  04                 const type 4
4DAA  1E                 string size (30)
4DAB  4F6E4167656E7453+  "OnAgentS"
4DB3  7061776E65644E65+  "pawnedNe"
4DBB  6D6573697343616C+  "mesisCal"
4DC3  6C6261636B00       "lback\0"
                         const [26]: "OnAgentSpawnedNemesisCallback"
4DC9  04                 const type 4
4DCA  0C                 string size (12)
4DCB  6747616D65436F6E+  "gGameCon"
4DD3  66696700           "fig\0"
                         const [27]: "gGameConfig"
4DD7  01                 const type 3
4DD8  9C545DA3           const [28]: (-1554164580)
4DDC  04                 const type 4
4DDD  08                 string size (8)
4DDE  67526567696F6E00   "gRegion\0"
                         const [29]: "gRegion"
4DE6  01                 const type 3
4DE7  36C033A9           const [30]: (-1456226250)
4DEB  04                 const type 4
4DEC  0C                 string size (12)
4DED  706F737450726F63+  "postProc"
4DF5  65737300           "ess\0"
                         const [31]: "postProcess"
4DF9  04                 const type 4
4DFA  05                 string size (5)
4DFB  6661646500         "fade\0"
                         const [32]: "fade"
4E00  01                 const type 3
4E01  2F8B2F7B           const [33]: (2066713391)
4E05  01                 const type 3
4E06  ACF6BC52           const [34]: (1388115628)
4E0A  01                 const type 3
4E0B  E09F8C84           const [35]: (-2071158816)
4E0F  01                 const type 3
4E10  F3202B53           const [36]: (1395335411)
4E14  04                 const type 4
4E15  0A                 string size (10)
4E16  67466C6173684D67+  "gFlashMg"
4E1E  7200               "r\0"
                         const [37]: "gFlashMgr"
4E20  01                 const type 3
4E21  92D06D61           const [38]: (1634586770)
4E25  01                 const type 3
4E26  EA911120           const [39]: (538022378)
4E2A  03                 const type 3
4E2B  CDCCCC3D           const [40]: (-51)
4E2F  01                 const type 3
4E30  958D3517           const [41]: (389385621)
4E34  01                 const type 3
4E35  27003F0B           const [42]: (188678183)
4E39  01                 const type 3
4E3A  1A4B27EC           const [43]: (-332969190)
4E3E  04                 const type 4
4E3F  09                 string size (9)
4E40  616C657274546167+  "alertTag"
4E48  00                 "\0"
                         const [44]: "alertTag"
4E49  04                 const type 4
4E4A  05                 string size (5)
4E4B  4C69636800         "Lich\0"
                         const [45]: "Lich"
4E50  04                 const type 4
4E51  0D                 string size (13)
4E52  4C6963684C696368+  "LichLich"
4E5A  4C69636800         "Lich\0"
                         const [46]: "LichLichLich"
4E5F  04                 const type 4
4E60  08                 string size (8)
4E61  4C69636850616C00   "LichPal\0"
                         const [47]: "LichPal"
4E69  04                 const type 4
4E6A  12                 string size (18)
4E6B  666F726365537061+  "forceSpa"
4E73  776E4E656D657369+  "wnNemesi"
4E7B  7300               "s\0"
                         const [48]: "forceSpawnNemesis"
4E7D  04                 const type 4
4E7E  13                 string size (19)
4E7F  666F726365537061+  "forceSpa"
4E87  776E48656E63686D+  "wnHenchm"
4E8F  656E00             "en\0"
                         const [49]: "forceSpawnHenchmen"
4E92  04                 const type 4
4E93  09                 string size (9)
4E94  48656E63686D656E+  "Henchmen"
4E9C  00                 "\0"
                         const [50]: "Henchmen"
4E9D  01                 const type 3
4E9E  53D08910           const [51]: (277467219)
4EA2  04                 const type 4
4EA3  15                 string size (21)
4EA4  456E67696E652E44+  "Engine.D"
4EAC  6576656C6F706572+  "eveloper"
4EB4  4D6F646500         "Mode\0"
                         const [52]: "Engine.DeveloperMode"
4EB9  04                 const type 4
4EBA  0D                 string size (13)
4EBB  5465737448656E63+  "TestHenc"
4EC3  686D656E00         "hmen\0"
                         const [53]: "TestHenchmen"
4EC8  04                 const type 4
4EC9  10                 string size (16)
4ECA  546573744E656D65+  "TestNeme"
4ED2  736973416C6C7900   "sisAlly\0"
                         const [54]: "TestNemesisAlly"
4EDA  04                 const type 4
4EDB  03                 string size (3)
4EDC  5F4700             "_G\0"
                         const [55]: "_G"
4EDF  04                 const type 4
4EE0  12                 string size (18)
4EE1  466F726365537061+  "ForceSpa"
4EE9  776E4E656D657369+  "wnNemesi"
4EF1  7300               "s\0"
                         const [56]: "ForceSpawnNemesis"
4EF3  03                 const type 3
4EF4  0000A040           const [57]: (0)
4EF8  04                 const type 4
4EF9  16                 string size (22)
4EFA  666F726365537061+  "forceSpa"
4F02  776E416C6C794E65+  "wnAllyNe"
4F0A  6D6573697300       "mesis\0"
                         const [58]: "forceSpawnAllyNemesis"
4F10  01                 const type 3
4F11  01000000           const [59]: (1)
4F15  01                 const type 3
4F16  C79381E3           const [60]: (-478047289)
4F1A  04                 const type 4
4F1B  10                 string size (16)
4F1C  4E455F4E454D4553+  "NE_NEMES"
4F24  49535F414C4C5900   "IS_ALLY\0"
                         const [61]: "NE_NEMESIS_ALLY"
4F2C  04                 const type 4
4F2D  01                 string size (0)
                         const [62]: ""
4F2F  04                 const type 4
4F30  06                 string size (6)
4F31  636A736F6E00       "cjson\0"
                         const [63]: "cjson"
4F37  01                 const type 3
4F38  15832E8A           const [64]: (-1976663275)
4F3C  04                 const type 4
4F3D  05                 string size (5)
4F3E  6E616D6500         "name\0"
                         const [65]: "name"
4F43  00                 const type 0
                         const [66]: nil
4F44  01                 const type 3
4F45  3320787B           const [67]: (2071470131)
4F49  04                 const type 4
4F4A  10                 string size (16)
4F4B  6D496E666C75656E+  "mInfluen"
4F53  63654E6F64657300   "ceNodes\0"
                         const [68]: "mInfluenceNodes"
4F5B  04                 const type 4
4F5C  06                 string size (6)
4F5D  6D4E6F646500       "mNode\0"
                         const [69]: "mNode"
4F63  01                 const type 3
4F64  D2A3C75E           const [70]: (1590141906)
4F68  04                 const type 4
4F69  10                 string size (16)
4F6A  6D48656E63686D65+  "mHenchme"
4F72  6E4B696C6C656400   "nKilled\0"
                         const [71]: "mHenchmenKilled"
4F7A  01                 const type 3
4F7B  FBE70EED           const [72]: (-317790213)
4F7F  04                 const type 4
4F80  07                 string size (7)
4F81  6368616E636500     "chance\0"
                         const [73]: "chance"
4F88  04                 const type 4
4F89  0E                 string size (14)
4F8A  68656E63686D656E+  "henchmen"
4F92  4B696C6C7300       "Kills\0"
                         const [74]: "henchmenKills"
4F98  01                 const type 3
4F99  98FD7463           const [75]: (1668611480)
4F9D  01                 const type 3
4F9E  554B0393           const [76]: (-1828500651)
4FA2  01                 const type 3
4FA3  0A191C8B           const [77]: (-1961092854)
4FA7  04                 const type 4
4FA8  07                 string size (7)
4FA9  456E67696E6500     "Engine\0"
                         const [78]: "Engine"
4FB0  01                 const type 3
4FB1  10799DD0           const [79]: (-794986224)
4FB5  04                 const type 4
4FB6  14                 string size (20)
4FB7  616C6C79436F6F6C+  "allyCool"
4FBF  646F776E5365636F+  "downSeco"
4FC7  6E647300           "nds\0"
                         const [80]: "allyCooldownSeconds"
4FCB  01                 const type 3
4FCC  30AF2C54           const [81]: (1412214576)
4FD0  01                 const type 3
4FD1  42674A8C           const [82]: (-1941280958)
4FD5  04                 const type 4
4FD6  07                 string size (7)
4FD7  6D48696E747300     "mHints\0"
                         const [83]: "mHints"
4FDE  01                 const type 3
4FDF  14B92C37           const [84]: (925677844)
4FE3  01                 const type 3
4FE4  F9284A14           const [85]: (340404473)
4FE8  01                 const type 3
4FE9  BCD6AE9F           const [86]: (-1615931716)
4FED  01                 const type 3
4FEE  6B25B193           const [87]: (-1817107093)
4FF2  04                 const type 4
4FF3  12                 string size (18)
4FF4  537061776E696E67+  "Spawning"
4FFC  204E656D65736973+  " Nemesis"
5004  2100               "!\0"
                         const [88]: "Spawning Nemesis!"
5006  04                 const type 4
5007  0A                 string size (10)
5008  6D4D616E69666573+  "mManifes"
5010  7400               "t\0"
                         const [89]: "mManifest"
5012  04                 const type 4
5013  06                 string size (6)
5014  554953797300       "UISys\0"
                         const [90]: "UISys"
501A  01                 const type 3
501B  E0539B44           const [91]: (1151030240)
501F  01                 const type 3
5020  3C2E251B           const [92]: (455421500)
5024  01                 const type 3
5025  04C5DDAF           const [93]: (-1344420604)
5029  04                 const type 4
502A  15                 string size (21)
502B  466F726365436F72+  "ForceCor"
5033  7265637450617373+  "rectPass"
503B  636F646500         "code\0"
                         const [94]: "ForceCorrectPasscode"
5040  01                 const type 3
5041  91B999F8           const [95]: (-124143215)
5045  01                 const type 3
5046  5720287C           const [96]: (2083004503)
504A  01                 const type 3
504B  AA8C22EB           const [97]: (-350057302)
504F  01                 const type 3
5050  E10A40A3           const [98]: (-1556083999)
5054  04                 const type 4
5055  10                 string size (16)
5056  4F6E50617373636F+  "OnPassco"
505E  6465436865636B00   "deCheck\0"
                         const [99]: "OnPasscodeCheck"
5066  03                 const type 3
5067  00004040           const [100]: (0)
506B  04                 const type 4
506C  0B                 string size (11)
506D  4E455F4E454D4553+  "NE_NEMES"
5075  495300             "IS\0"
                         const [101]: "NE_NEMESIS"
5078  03                 const type 3
5079  00000040           const [102]: (0)
507D  01                 const type 3
507E  FFF9DE4C           const [103]: (1289681407)
5082  01                 const type 3
5083  BFF6E203           const [104]: (65205951)
5087  01                 const type 3
5088  1FD0B58D           const [105]: (-1917464545)
508C  01                 const type 3
508D  59AC7869           const [106]: (1769516121)
5091  01                 const type 3
5092  2F904485           const [107]: (-2059104209)
5096  01                 const type 3
5097  8E550663           const [108]: (1661359502)
509B  04                 const type 4
509C  0E                 string size (14)
509D  6D48696E7450726F+  "mHintPro"
50A5  677265737300       "gress\0"
                         const [109]: "mHintProgress"
50AB  01                 const type 3
50AC  6A3C2F04           const [110]: (70204522)
50B0  03                 const type 3
50B1  0000C842           const [111]: (0)
50B5  01                 const type 3
50B6  51809012           const [112]: (311459921)
50BA  01                 const type 3
50BB  B043DCE6           const [113]: (-421772368)
50BF  04                 const type 4
50C0  20                 string size (32)
50C1  2F4C6F7475732F4C+  "/Lotus/L"
50C9  616E67756167652F+  "anguage/"
50D1  47616D652F4B7576+  "Game/Kuv"
50D9  614D75726D757200   "aMurmur\0"
                         const [114]: "/Lotus/Language/Game/KuvaMurmur"
                         * functions:
50E1  02                 sizep (2)
                         
50E2                     ** function [0] definition (level 3)
                         ** start of function **
50E2  00                 string size (0)
                         source name: (none)
50E4  06                 line defined (779)
50E5  91                 last line defined (785)
50E6  06                 nups (3)
50E7  03                 numparams (0)
50E8  00                 is_vararg (0)
50E9  00                 maxstacksize (2)
                         * code:
50EB  0B                 sizecode (11)
50EC  13000000           [01] getupval   0   0      
50F0  18000000           [02] test       0       0    ; to [4] if true
50F4  1AC00080           [03] jmp        4            ; to [8]
50F8  13008000           [04] getupval   0   1      
50FC  53000001           [05] getupval   1   2      
5100  22400001           [06] call       0   2   1  
5104  1A800080           [07] jmp        3            ; to [11]
5108  1D000000           [08] getglobal  0   0        ; -469071827
510C  59400000           [09] loadk      1   1        ; "No active nemesis in account."
5110  22400001           [10] call       0   2   1  
5114  1E008000           [11] return     0   1      
                         * constants:
5118  02                 sizek (2)
5119  01                 const type 3
511A  2D880AE4           const [0]: (-469071827)
511E  04                 const type 4
511F  1E                 string size (30)
5120  4E6F206163746976+  "No activ"
5128  65206E656D657369+  "e nemesi"
5130  7320696E20616363+  "s in acc"
5138  6F756E742E00       "ount.\0"
                         const [1]: "No active nemesis in account."
                         * functions:
513E  00                 sizep (0)
                         * lines:
513F  0B                 sizelineinfo (11)
                         [pc] (line)
5140  0C                 [01] (12)
5141  03                 [02] (12)
5142  00                 [03] (12)
5143  00                 [04] (13)
5144  0C                 [05] (13)
5145  03                 [06] (13)
5146  00                 [07] (13)
5147  00                 [08] (15)
5148  0C                 [09] (15)
5149  03                 [10] (15)
514A  00                 [11] (17)
                         * locals:
516C  00                 sizelocvars (0)
                         * upvalues:
516D  00                 sizeupvalues (0)
                         ** end of function **

                         
516E                     ** function [1] definition (level 3)
                         ** start of function **
516E  00                 string size (0)
                         source name: (none)
5170  06                 line defined (787)
5171  99                 last line defined (793)
5172  06                 nups (2)
5173  02                 numparams (0)
5174  00                 is_vararg (0)
5175  00                 maxstacksize (4)
                         * code:
5177  10                 sizecode (16)
5178  1D000000           [01] getglobal  0   0        ; _T
517C  0C80C080           [02] settable   0   257 258  ; "forceSpawnAllyNemesis" 1
5180  13000000           [03] getupval   0   0      
5184  22808000           [04] call       0   1   2  
5188  5DC00000           [05] getglobal  1   3        ; 1074689893
518C  92000000           [06] move       2   0      
5190  62800001           [07] call       1   2   2  
5194  58400000           [08] test       1       1    ; to [10] if false
5198  1A400180           [09] jmp        6            ; to [16]
519C  53008000           [10] getupval   1   1      
51A0  4E00C100           [11] gettable   1   1   260  ; -478047289
51A4  92000000           [12] move       2   0      
51A8  DD400100           [13] getglobal  3   5        ; Lotus_Game
51AC  CE80C101           [14] gettable   3   3   262  ; "NE_NEMESIS_ALLY"
51B0  62408001           [15] call       1   3   1  
51B4  1E008000           [16] return     0   1      
                         * constants:
51B8  07                 sizek (7)
51B9  04                 const type 4
51BA  03                 string size (3)
51BB  5F5400             "_T\0"
                         const [0]: "_T"
51BE  04                 const type 4
51BF  16                 string size (22)
51C0  666F726365537061+  "forceSpa"
51C8  776E416C6C794E65+  "wnAllyNe"
51D0  6D6573697300       "mesis\0"
                         const [1]: "forceSpawnAllyNemesis"
51D6  01                 const type 3
51D7  01000000           const [2]: (1)
51DB  01                 const type 3
51DC  65770E40           const [3]: (1074689893)
51E0  01                 const type 3
51E1  C79381E3           const [4]: (-478047289)
51E5  04                 const type 4
51E6  0B                 string size (11)
51E7  4C6F7475735F4761+  "Lotus_Ga"
51EF  6D6500             "me\0"
                         const [5]: "Lotus_Game"
51F2  04                 const type 4
51F3  10                 string size (16)
51F4  4E455F4E454D4553+  "NE_NEMES"
51FC  49535F414C4C5900   "IS_ALLY\0"
                         const [6]: "NE_NEMESIS_ALLY"
                         * functions:
5204  00                 sizep (0)
                         * lines:
5205  10                 sizelineinfo (16)
                         [pc] (line)
5206  14                 [01] (20)
5207  03                 [02] (20)
5208  00                 [03] (21)
5209  00                 [04] (21)
520A  14                 [05] (22)
520B  03                 [06] (22)
520C  00                 [07] (22)
520D  00                 [08] (22)
520E  15                 [09] (22)
520F  03                 [10] (23)
5210  00                 [11] (23)
5211  00                 [12] (23)
5212  15                 [13] (23)
5213  03                 [14] (23)
5214  00                 [15] (23)
5215  00                 [16] (25)
                         * locals:
5246  00                 sizelocvars (0)
                         * upvalues:
5247  00                 sizeupvalues (0)
                         ** end of function **

                         * lines:
5249  04                 sizelineinfo (639)
                         [pc] (line)
524A  DF                 [001] (-33)
524B  02                 [002] (-33)
524C  00                 [003] (-33)
524D  00                 [004] (-31)
524E  DF                 [005] (-31)
524F  02                 [006] (-31)
5250  00                 [007] (-31)
5251  00                 [008] (-31)
5252  DF                 [009] (-30)
5253  02                 [010] (-27)
5254  00                 [011] (-27)
5255  00                 [012] (-27)
5256  E1                 [013] (-26)
5257  02                 [014] (-24)
5258  00                 [015] (-24)
5259  00                 [016] (-24)
525A  E1                 [017] (-24)
525B  02                 [018] (-24)
525C  00                 [019] (-24)
525D  00                 [020] (-24)
525E  E1                 [021] (-24)
525F  02                 [022] (-24)
5260  00                 [023] (-24)
5261  00                 [024] (-24)
5262  E1                 [025] (-24)
5263  02                 [026] (-24)
5264  00                 [027] (-24)
5265  00                 [028] (-24)
5266  E1                 [029] (-24)
5267  02                 [030] (-24)
5268  00                 [031] (-24)
5269  00                 [032] (-24)
526A  E2                 [033] (-23)
526B  02                 [034] (-20)
526C  00                 [035] (-20)
526D  00                 [036] (-20)
526E  E5                 [037] (-20)
526F  02                 [038] (-20)
5270  00                 [039] (-20)
5271  00                 [040] (-20)
5272  E5                 [041] (-20)
5273  02                 [042] (-20)
5274  00                 [043] (-20)
5275  00                 [044] (-18)
5276  E5                 [045] (-18)
5277  02                 [046] (-17)
5278  00                 [047] (-17)
5279  00                 [048] (-17)
527A  E6                 [049] (-17)
527B  02                 [050] (-17)
527C  00                 [051] (-16)
527D  00                 [052] (-16)
527E  E8                 [053] (-15)
527F  02                 [054] (-14)
5280  00                 [055] (-12)
5281  00                 [056] (-12)
5282  E8                 [057] (-12)
5283  02                 [058] (-8)
5284  00                 [059] (-8)
5285  00                 [060] (-8)
5286  E8                 [061] (-7)
5287  02                 [062] (-7)
5288  00                 [063] (-7)
5289  00                 [064] (-7)
528A  E8                 [065] (-6)
528B  02                 [066] (-6)
528C  00                 [067] (-6)
528D  00                 [068] (-6)
528E  E8                 [069] (-6)
528F  02                 [070] (-6)
5290  00                 [071] (-6)
5291  00                 [072] (-6)
5292  E8                 [073] (-6)
5293  02                 [074] (-6)
5294  00                 [075] (-6)
5295  00                 [076] (-6)
5296  E8                 [077] (-6)
5297  02                 [078] (-6)
5298  00                 [079] (-6)
5299  00                 [080] (-6)
529A  E8                 [081] (-6)
529B  02                 [082] (-6)
529C  00                 [083] (-6)
529D  00                 [084] (-6)
529E  E8                 [085] (-6)
529F  02                 [086] (-6)
52A0  00                 [087] (-6)
52A1  00                 [088] (-6)
52A2  E8                 [089] (-6)
52A3  02                 [090] (-6)
52A4  00                 [091] (-6)
52A5  00                 [092] (-6)
52A6  E8                 [093] (-6)
52A7  02                 [094] (-6)
52A8  00                 [095] (-6)
52A9  00                 [096] (-6)
52AA  E8                 [097] (-6)
52AB  02                 [098] (-5)
52AC  00                 [099] (-5)
52AD  00                 [100] (-5)
52AE  E8                 [101] (-5)
52AF  02                 [102] (-2)
52B0  00                 [103] (-2)
52B1  00                 [104] (-2)
52B2  E8                 [105] (-1)
52B3  02                 [106] (-1)
52B4  00                 [107] (-1)
52B5  00                 [108] (-1)
52B6  E8                 [109] (-1)
52B7  02                 [110] (-1)
52B8  00                 [111] (-1)
52B9  00                 [112] (-1)
52BA  E8                 [113] (-1)
52BB  02                 [114] (-1)
52BC  00                 [115] (2)
52BD  00                 [116] (2)
52BE  E8                 [117] (2)
52BF  02                 [118] (2)
52C0  00                 [119] (2)
52C1  00                 [120] (2)
52C2  E8                 [121] (3)
52C3  02                 [122] (3)
52C4  00                 [123] (3)
52C5  00                 [124] (3)
52C6  E8                 [125] (3)
52C7  02                 [126] (3)
52C8  00                 [127] (3)
52C9  00                 [128] (3)
52CA  E9                 [129] (3)
52CB  02                 [130] (3)
52CC  00                 [131] (3)
52CD  00                 [132] (4)
52CE  EC                 [133] (4)
52CF  02                 [134] (4)
52D0  00                 [135] (4)
52D1  00                 [136] (4)
52D2  EC                 [137] (4)
52D3  02                 [138] (4)
52D4  00                 [139] (4)
52D5  00                 [140] (4)
52D6  EC                 [141] (4)
52D7  02                 [142] (4)
52D8  00                 [143] (5)
52D9  00                 [144] (5)
52DA  EC                 [145] (5)
52DB  02                 [146] (5)
52DC  00                 [147] (5)
52DD  00                 [148] (5)
52DE  EC                 [149] (5)
52DF  02                 [150] (5)
52E0  00                 [151] (5)
52E1  00                 [152] (5)
52E2  EC                 [153] (5)
52E3  02                 [154] (6)
52E4  00                 [155] (6)
52E5  00                 [156] (6)
52E6  EC                 [157] (7)
52E7  02                 [158] (7)
52E8  00                 [159] (7)
52E9  00                 [160] (7)
52EA  EC                 [161] (7)
52EB  02                 [162] (7)
52EC  00                 [163] (7)
52ED  00                 [164] (7)
52EE  EC                 [165] (7)
52EF  02                 [166] (10)
52F0  00                 [167] (10)
52F1  00                 [168] (10)
52F2  EC                 [169] (10)
52F3  02                 [170] (10)
52F4  00                 [171] (10)
52F5  00                 [172] (10)
52F6  EE                 [173] (11)
52F7  02                 [174] (17)
52F8  00                 [175] (17)
52F9  00                 [176] (17)
52FA  EE                 [177] (17)
52FB  02                 [178] (17)
52FC  00                 [179] (19)
52FD  00                 [180] (25)
52FE  EF                 [181] (25)
52FF  02                 [182] (25)
5300  00                 [183] (25)
5301  00                 [184] (27)
5302  EF                 [185] (27)
5303  02                 [186] (27)
5304  00                 [187] (27)
5305  00                 [188] (27)
5306  EF                 [189] (27)
5307  02                 [190] (30)
5308  00                 [191] (30)
5309  00                 [192] (30)
530A  EF                 [193] (31)
530B  02                 [194] (31)
530C  00                 [195] (34)
530D  00                 [196] (34)
530E  EF                 [197] (34)
530F  02                 [198] (35)
5310  00                 [199] (35)
5311  00                 [200] (35)
5312  F0                 [201] (36)
5313  02                 [202] (36)
5314  00                 [203] (37)
5315  00                 [204] (37)
5316  F0                 [205] (38)
5317  02                 [206] (38)
5318  00                 [207] (38)
5319  00                 [208] (38)
531A  F1                 [209] (38)
531B  02                 [210] (39)
531C  00                 [211] (39)
531D  00                 [212] (39)
531E  F2                 [213] (39)
531F  02                 [214] (39)
5320  00                 [215] (39)
5321  00                 [216] (43)
5322  F4                 [217] (43)
5323  02                 [218] (43)
5324  00                 [219] (43)
5325  00                 [220] (44)
5326  F4                 [221] (44)
5327  02                 [222] (44)
5328  00                 [223] (45)
5329  00                 [224] (48)
532A  F4                 [225] (49)
532B  02                 [226] (49)
532C  00                 [227] (49)
532D  00                 [228] (50)
532E  F8                 [229] (50)
532F  02                 [230] (51)
5330  00                 [231] (51)
5331  00                 [232] (51)
5332  F8                 [233] (51)
5333  02                 [234] (52)
5334  00                 [235] (52)
5335  00                 [236] (52)
5336  F8                 [237] (53)
5337  02                 [238] (53)
5338  00                 [239] (53)
5339  00                 [240] (53)
533A  F9                 [241] (53)
533B  02                 [242] (53)
533C  00                 [243] (54)
533D  00                 [244] (54)
533E  F9                 [245] (55)
533F  02                 [246] (55)
5340  00                 [247] (55)
5341  00                 [248] (55)
5342  F9                 [249] (55)
5343  02                 [250] (55)
5344  00                 [251] (56)
5345  00                 [252] (57)
5346  F9                 [253] (57)
5347  02                 [254] (57)
5348  00                 [255] (57)
5349  00                 [256] (58)
534A  FA                 [257] (58)
534B  02                 [258] (58)
534C  00                 [259] (58)
534D  00                 [260] (58)
534E  FA                 [261] (58)
534F  02                 [262] (59)
5350  00                 [263] (60)
5351  00                 [264] (57)
5352  FA                 [265] (67)
5353  02                 [266] (67)
5354  00                 [267] (68)
5355  00                 [268] (68)
5356  FA                 [269] (68)
5357  02                 [270] (68)
5358  00                 [271] (68)
5359  00                 [272] (68)
535A  FA                 [273] (69)
535B  02                 [274] (69)
535C  00                 [275] (69)
535D  00                 [276] (69)
535E  FA                 [277] (69)
535F  02                 [278] (69)
5360  00                 [279] (69)
5361  00                 [280] (70)
5362  FA                 [281] (72)
5363  02                 [282] (72)
5364  00                 [283] (73)
5365  00                 [284] (73)
5366  FA                 [285] (73)
5367  02                 [286] (73)
5368  00                 [287] (75)
5369  00                 [288] (75)
536A  FA                 [289] (77)
536B  02                 [290] (78)
536C  00                 [291] (78)
536D  00                 [292] (78)
536E  FA                 [293] (78)
536F  02                 [294] (78)
5370  00                 [295] (78)
5371  00                 [296] (79)
5372  FA                 [297] (80)
5373  02                 [298] (82)
5374  00                 [299] (82)
5375  00                 [300] (82)
5376  FA                 [301] (82)
5377  02                 [302] (82)
5378  00                 [303] (82)
5379  00                 [304] (83)
537A  FA                 [305] (83)
537B  02                 [306] (83)
537C  00                 [307] (84)
537D  00                 [308] (84)
537E  FA                 [309] (84)
537F  02                 [310] (85)
5380  00                 [311] (85)
5381  00                 [312] (86)
5382  FA                 [313] (87)
5383  02                 [314] (87)
5384  00                 [315] (87)
5385  00                 [316] (87)
5386  FA                 [317] (87)
5387  02                 [318] (87)
5388  00                 [319] (87)
5389  00                 [320] (87)
538A  FA                 [321] (88)
538B  02                 [322] (88)
538C  00                 [323] (90)
538D  00                 [324] (91)
538E  FA                 [325] (82)
538F  02                 [326] (95)
5390  00                 [327] (95)
5391  00                 [328] (95)
5392  FA                 [329] (95)
5393  02                 [330] (95)
5394  00                 [331] (95)
5395  00                 [332] (99)
5396  FA                 [333] (99)
5397  02                 [334] (99)
5398  00                 [335] (100)
5399  00                 [336] (100)
539A  FA                 [337] (100)
539B  02                 [338] (100)
539C  00                 [339] (100)
539D  00                 [340] (101)
539E  FA                 [341] (101)
539F  02                 [342] (101)
53A0  00                 [343] (101)
53A1  00                 [344] (101)
53A2  FA                 [345] (101)
53A3  02                 [346] (102)
53A4  00                 [347] (102)
53A5  00                 [348] (102)
53A6  FA                 [349] (102)
53A7  02                 [350] (102)
53A8  00                 [351] (102)
53A9  00                 [352] (102)
53AA  FA                 [353] (102)
53AB  02                 [354] (102)
53AC  00                 [355] (102)
53AD  00                 [356] (102)
53AE  FA                 [357] (102)
53AF  02                 [358] (102)
53B0  00                 [359] (102)
53B1  00                 [360] (102)
53B2  FA                 [361] (102)
53B3  02                 [362] (102)
53B4  00                 [363] (102)
53B5  00                 [364] (102)
53B6  FA                 [365] (103)
53B7  02                 [366] (104)
53B8  00                 [367] (105)
53B9  00                 [368] (105)
53BA  FA                 [369] (106)
53BB  02                 [370] (106)
53BC  00                 [371] (106)
53BD  00                 [372] (106)
53BE  FA                 [373] (106)
53BF  02                 [374] (106)
53C0  00                 [375] (106)
53C1  00                 [376] (106)
53C2  FA                 [377] (106)
53C3  02                 [378] (106)
53C4  00                 [379] (106)
53C5  00                 [380] (111)
53C6  FA                 [381] (111)
53C7  02                 [382] (111)
53C8  00                 [383] (113)
53C9  00                 [384] (113)
53CA  FA                 [385] (113)
53CB  02                 [386] (113)
53CC  00                 [387] (113)
53CD  00                 [388] (113)
53CE  FB                 [389] (113)
53CF  02                 [390] (113)
53D0  00                 [391] (113)
53D1  00                 [392] (113)
53D2  FB                 [393] (113)
53D3  02                 [394] (113)
53D4  00                 [395] (115)
53D5  00                 [396] (115)
53D6  FB                 [397] (115)
53D7  02                 [398] (115)
53D8  00                 [399] (115)
53D9  00                 [400] (115)
53DA  FB                 [401] (117)
53DB  02                 [402] (117)
53DC  00                 [403] (117)
53DD  00                 [404] (117)
53DE  FE                 [405] (118)
53DF  02                 [406] (118)
53E0  00                 [407] (118)
53E1  00                 [408] (118)
53E2  FE                 [409] (118)
53E3  02                 [410] (120)
53E4  00                 [411] (120)
53E5  00                 [412] (120)
53E6  FE                 [413] (122)
53E7  02                 [414] (123)
53E8  00                 [415] (123)
53E9  00                 [416] (123)
53EA  FF                 [417] (123)
53EB  02                 [418] (123)
53EC  00                 [419] (123)
53ED  00                 [420] (123)
53EE  FF                 [421] (124)
53EF  02                 [422] (124)
53F0  00                 [423] (124)
53F1  00                 [424] (124)
53F2  FF                 [425] (125)
53F3  02                 [426] (125)
53F4  00                 [427] (125)
53F5  00                 [428] (125)
53F6  FF                 [429] (-128)
53F7  02                 [430] (-128)
53F8  00                 [431] (-128)
53F9  00                 [432] (-128)
53FA  FF                 [433] (-126)
53FB  02                 [434] (-126)
53FC  00                 [435] (-125)
53FD  00                 [436] (-125)
53FE  FF                 [437] (-125)
53FF  02                 [438] (-124)
5400  00                 [439] (-124)
5401  00                 [440] (-124)
5402  FF                 [441] (-124)
5403  02                 [442] (-124)
5404  00                 [443] (-124)
5405  00                 [444] (-122)
5406  FF                 [445] (-122)
5407  02                 [446] (-122)
5408  00                 [447] (-122)
5409  00                 [448] (-122)
540A  FF                 [449] (-120)
540B  02                 [450] (-120)
540C  00                 [451] (-120)
540D  00                 [452] (-119)
540E  FF                 [453] (-119)
540F  02                 [454] (-119)
5410  00                 [455] (-119)
5411  00                 [456] (-118)
5412  02                 [457] (-116)
5413  03                 [458] (-116)
5414  00                 [459] (-113)
5415  00                 [460] (-113)
5416  02                 [461] (-113)
5417  03                 [462] (-113)
5418  00                 [463] (-113)
5419  00                 [464] (-113)
541A  02                 [465] (-113)
541B  03                 [466] (-113)
541C  00                 [467] (-113)
541D  00                 [468] (-113)
541E  02                 [469] (-113)
541F  03                 [470] (-113)
5420  00                 [471] (-113)
5421  00                 [472] (-113)
5422  02                 [473] (-113)
5423  03                 [474] (-113)
5424  00                 [475] (-113)
5425  00                 [476] (-113)
5426  02                 [477] (-113)
5427  03                 [478] (-113)
5428  00                 [479] (-113)
5429  00                 [480] (-111)
542A  03                 [481] (-107)
542B  03                 [482] (-107)
542C  00                 [483] (-106)
542D  00                 [484] (-106)
542E  03                 [485] (-106)
542F  03                 [486] (-105)
5430  00                 [487] (-105)
5431  00                 [488] (-104)
5432  03                 [489] (-102)
5433  03                 [490] (-102)
5434  00                 [491] (-102)
5435  00                 [492] (-101)
5436  03                 [493] (-101)
5437  03                 [494] (-101)
5438  00                 [495] (-101)
5439  00                 [496] (-101)
543A  03                 [497] (-100)
543B  03                 [498] (-100)
543C  00                 [499] (-100)
543D  00                 [500] (-100)
543E  03                 [501] (-99)
543F  03                 [502] (-99)
5440  00                 [503] (-99)
5441  00                 [504] (-99)
5442  03                 [505] (-99)
5443  03                 [506] (-98)
5444  00                 [507] (-98)
5445  00                 [508] (-98)
5446  03                 [509] (-98)
5447  03                 [510] (-98)
5448  00                 [511] (-98)
5449  00                 [512] (-97)
544A  03                 [513] (-97)
544B  03                 [514] (-96)
544C  00                 [515] (-96)
544D  00                 [516] (-96)
544E  03                 [517] (-96)
544F  03                 [518] (-96)
5450  00                 [519] (-95)
5451  00                 [520] (-95)
5452  03                 [521] (-95)
5453  03                 [522] (-95)
5454  00                 [523] (-95)
5455  00                 [524] (-95)
5456  04                 [525] (-92)
5457  03                 [526] (-85)
5458  00                 [527] (-85)
5459  00                 [528] (-85)
545A  04                 [529] (-85)
545B  03                 [530] (-84)
545C  00                 [531] (-84)
545D  00                 [532] (-84)
545E  04                 [533] (-84)
545F  03                 [534] (-84)
5460  00                 [535] (-84)
5461  00                 [536] (-84)
5462  04                 [537] (-84)
5463  03                 [538] (-84)
5464  00                 [539] (-84)
5465  00                 [540] (-83)
5466  04                 [541] (-83)
5467  03                 [542] (-83)
5468  00                 [543] (-83)
5469  00                 [544] (-83)
546A  04                 [545] (-83)
546B  03                 [546] (-83)
546C  00                 [547] (-83)
546D  00                 [548] (-83)
546E  04                 [549] (-78)
546F  03                 [550] (-78)
5470  00                 [551] (-78)
5471  00                 [552] (-78)
5472  04                 [553] (-77)
5473  03                 [554] (-77)
5474  00                 [555] (-77)
5475  00                 [556] (-77)
5476  04                 [557] (-77)
5477  03                 [558] (-77)
5478  00                 [559] (-77)
5479  00                 [560] (-77)
547A  04                 [561] (-77)
547B  03                 [562] (-77)
547C  00                 [563] (-77)
547D  00                 [564] (-76)
547E  04                 [565] (-76)
547F  03                 [566] (-76)
5480  00                 [567] (-75)
5481  00                 [568] (-75)
5482  05                 [569] (-74)
5483  03                 [570] (-74)
5484  00                 [571] (-73)
5485  00                 [572] (-72)
5486  05                 [573] (-72)
5487  03                 [574] (-70)
5488  00                 [575] (-70)
5489  00                 [576] (-70)
548A  05                 [577] (-69)
548B  03                 [578] (-68)
548C  00                 [579] (-68)
548D  00                 [580] (-68)
548E  05                 [581] (-68)
548F  03                 [582] (-67)
5490  00                 [583] (-67)
5491  00                 [584] (-66)
5492  05                 [585] (-65)
5493  03                 [586] (-64)
5494  00                 [587] (-63)
5495  00                 [588] (-63)
5496  05                 [589] (-62)
5497  03                 [590] (-61)
5498  00                 [591] (-59)
5499  00                 [592] (-59)
549A  05                 [593] (-59)
549B  03                 [594] (-59)
549C  00                 [595] (-59)
549D  00                 [596] (-59)
549E  05                 [597] (-56)
549F  03                 [598] (-54)
54A0  00                 [599] (-53)
54A1  00                 [600] (-53)
54A2  05                 [601] (-52)
54A3  03                 [602] (-52)
54A4  00                 [603] (-52)
54A5  00                 [604] (-52)
54A6  05                 [605] (-51)
54A7  03                 [606] (-51)
54A8  00                 [607] (-51)
54A9  00                 [608] (-50)
54AA  05                 [609] (-50)
54AB  03                 [610] (-48)
54AC  00                 [611] (-48)
54AD  00                 [612] (-47)
54AE  06                 [613] (-47)
54AF  03                 [614] (-46)
54B0  00                 [615] (-43)
54B1  00                 [616] (-43)
54B2  06                 [617] (-43)
54B3  03                 [618] (-43)
54B4  00                 [619] (-43)
54B5  00                 [620] (-43)
54B6  06                 [621] (-43)
54B7  03                 [622] (-42)
54B8  00                 [623] (-42)
54B9  00                 [624] (-42)
54BA  07                 [625] (-42)
54BB  03                 [626] (-42)
54BC  00                 [627] (-42)
54BD  00                 [628] (-42)
54BE  07                 [629] (-42)
54BF  03                 [630] (-42)
54C0  00                 [631] (-42)
54C1  00                 [632] (-42)
54C2  07                 [633] (-42)
54C3  03                 [634] (-42)
54C4  00                 [635] (-42)
54C5  00                 [636] (-42)
54C6  07                 [637] (-41)
54C7  03                 [638] (-38)
54C8  00                 [639] (-35)
                         * locals:
5C46  00                 sizelocvars (0)
                         * upvalues:
5C47  00                 sizeupvalues (0)
                         ** end of function **

                         
5C48                     ** function [16] definition (level 2)
                         ** start of function **
5C48  00                 string size (0)
                         source name: (none)
5C4A  07                 line defined (991)
5C4B  E5                 last line defined (997)
5C4C  07                 nups (1)
5C4D  01                 numparams (0)
5C4E  00                 is_vararg (0)
5C4F  00                 maxstacksize (2)
                         * code:
5C51  07                 sizecode (7)
5C52  1D000000           [1] getglobal  0   0        ; 538022378
5C56  59400000           [2] loadk      1   1        ; 0
5C5A  22400001           [3] call       0   2   1  
5C5E  13000000           [4] getupval   0   0      
5C62  46008000           [5] loadnil    1   1      
5C66  22400001           [6] call       0   2   1  
5C6A  1E008000           [7] return     0   1      
                         * constants:
5C6E  02                 sizek (2)
5C6F  01                 const type 3
5C70  EA911120           const [0]: (538022378)
5C74  03                 const type 3
5C75  0000803F           const [1]: (0)
                         * functions:
5C79  00                 sizep (0)
                         * lines:
5C7A  07                 sizelineinfo (7)
                         [pc] (line)
5C7B  E2                 [1] (-30)
5C7C  03                 [2] (-30)
5C7D  00                 [3] (-30)
5C7E  00                 [4] (-29)
5C7F  E2                 [5] (-29)
5C80  03                 [6] (-29)
5C81  00                 [7] (-27)
                         * locals:
5C97  00                 sizelocvars (0)
                         * upvalues:
5C98  00                 sizeupvalues (0)
                         ** end of function **

                         * lines:
5C9A  01                 sizelineinfo (253)
                         [pc] (line)
5C9B  07                 [001] (7)
5C9C  00                 [002] (8)
5C9D  00                 [003] (8)
5C9E  00                 [004] (8)
5C9F  08                 [005] (9)
5CA0  00                 [006] (9)
5CA1  00                 [007] (9)
5CA2  00                 [008] (10)
5CA3  08                 [009] (10)
5CA4  00                 [010] (10)
5CA5  00                 [011] (11)
5CA6  00                 [012] (11)
5CA7  08                 [013] (11)
5CA8  00                 [014] (12)
5CA9  00                 [015] (12)
5CAA  00                 [016] (12)
5CAB  09                 [017] (13)
5CAC  00                 [018] (15)
5CAD  00                 [019] (16)
5CAE  00                 [020] (16)
5CAF  09                 [021] (16)
5CB0  00                 [022] (17)
5CB1  00                 [023] (17)
5CB2  00                 [024] (17)
5CB3  09                 [025] (18)
5CB4  00                 [026] (18)
5CB5  00                 [027] (18)
5CB6  00                 [028] (19)
5CB7  0A                 [029] (19)
5CB8  00                 [030] (19)
5CB9  00                 [031] (20)
5CBA  00                 [032] (20)
5CBB  0A                 [033] (20)
5CBC  00                 [034] (21)
5CBD  00                 [035] (21)
5CBE  00                 [036] (21)
5CBF  0A                 [037] (22)
5CC0  00                 [038] (22)
5CC1  00                 [039] (22)
5CC2  00                 [040] (23)
5CC3  0B                 [041] (23)
5CC4  00                 [042] (23)
5CC5  00                 [043] (24)
5CC6  00                 [044] (24)
5CC7  0B                 [045] (24)
5CC8  00                 [046] (25)
5CC9  00                 [047] (25)
5CCA  00                 [048] (25)
5CCB  0B                 [049] (26)
5CCC  00                 [050] (26)
5CCD  00                 [051] (26)
5CCE  00                 [052] (27)
5CCF  0C                 [053] (27)
5CD0  00                 [054] (27)
5CD1  00                 [055] (28)
5CD2  00                 [056] (34)
5CD3  0C                 [057] (34)
5CD4  00                 [058] (34)
5CD5  00                 [059] (35)
5CD6  00                 [060] (35)
5CD7  0C                 [061] (35)
5CD8  00                 [062] (36)
5CD9  00                 [063] (36)
5CDA  00                 [064] (36)
5CDB  0D                 [065] (37)
5CDC  00                 [066] (37)
5CDD  00                 [067] (37)
5CDE  00                 [068] (38)
5CDF  0F                 [069] (38)
5CE0  00                 [070] (38)
5CE1  00                 [071] (40)
5CE2  00                 [072] (40)
5CE3  10                 [073] (40)
5CE4  00                 [074] (40)
5CE5  00                 [075] (40)
5CE6  00                 [076] (40)
5CE7  10                 [077] (40)
5CE8  00                 [078] (40)
5CE9  00                 [079] (40)
5CEA  00                 [080] (40)
5CEB  10                 [081] (40)
5CEC  00                 [082] (40)
5CED  00                 [083] (40)
5CEE  00                 [084] (40)
5CEF  11                 [085] (40)
5CF0  00                 [086] (40)
5CF1  00                 [087] (40)
5CF2  00                 [088] (40)
5CF3  11                 [089] (40)
5CF4  00                 [090] (40)
5CF5  00                 [091] (40)
5CF6  00                 [092] (40)
5CF7  11                 [093] (40)
5CF8  00                 [094] (40)
5CF9  00                 [095] (40)
5CFA  00                 [096] (40)
5CFB  12                 [097] (40)
5CFC  00                 [098] (40)
5CFD  00                 [099] (40)
5CFE  00                 [100] (40)
5CFF  12                 [101] (40)
5D00  00                 [102] (40)
5D01  00                 [103] (42)
5D02  00                 [104] (43)
5D03  12                 [105] (44)
5D04  00                 [106] (44)
5D05  00                 [107] (44)
5D06  00                 [108] (44)
5D07  13                 [109] (45)
5D08  00                 [110] (45)
5D09  00                 [111] (45)
5D0A  00                 [112] (45)
5D0B  13                 [113] (48)
5D0C  00                 [114] (49)
5D0D  00                 [115] (49)
5D0E  00                 [116] (49)
5D0F  13                 [117] (49)
5D10  00                 [118] (49)
5D11  00                 [119] (49)
5D12  00                 [120] (49)
5D13  14                 [121] (49)
5D14  00                 [122] (50)
5D15  00                 [123] (50)
5D16  00                 [124] (50)
5D17  14                 [125] (50)
5D18  00                 [126] (50)
5D19  00                 [127] (50)
5D1A  00                 [128] (50)
5D1B  14                 [129] (50)
5D1C  00                 [130] (53)
5D1D  00                 [131] (53)
5D1E  00                 [132] (53)
5D1F  15                 [133] (54)
5D20  00                 [134] (54)
5D21  00                 [135] (54)
5D22  00                 [136] (55)
5D23  15                 [137] (55)
5D24  00                 [138] (55)
5D25  00                 [139] (56)
5D26  00                 [140] (58)
5D27  15                 [141] (58)
5D28  00                 [142] (58)
5D29  00                 [143] (60)
5D2A  00                 [144] (60)
5D2B  16                 [145] (60)
5D2C  00                 [146] (61)
5D2D  00                 [147] (61)
5D2E  00                 [148] (61)
5D2F  16                 [149] (61)
5D30  00                 [150] (61)
5D31  00                 [151] (61)
5D32  00                 [152] (61)
5D33  16                 [153] (61)
5D34  00                 [154] (63)
5D35  00                 [155] (63)
5D36  00                 [156] (63)
5D37  17                 [157] (64)
5D38  00                 [158] (64)
5D39  00                 [159] (64)
5D3A  00                 [160] (66)
5D3B  17                 [161] (67)
5D3C  00                 [162] (68)
5D3D  00                 [163] (70)
5D3E  00                 [164] (72)
5D3F  17                 [165] (72)
5D40  00                 [166] (72)
5D41  00                 [167] (73)
5D42  00                 [168] (73)
5D43  18                 [169] (73)
5D44  00                 [170] (88)
5D45  00                 [171] (-57)
5D46  00                 [172] (-57)
5D47  18                 [173] (-57)
5D48  00                 [174] (-57)
5D49  00                 [175] (-57)
5D4A  00                 [176] (-34)
5D4B  18                 [177] (-14)
5D4C  00                 [178] (-14)
5D4D  00                 [179] (20)
5D4E  00                 [180] (20)
5D4F  19                 [181] (55)
5D50  00                 [182] (55)
5D51  00                 [183] (55)
5D52  00                 [184] (55)
5D53  19                 [185] (55)
5D54  00                 [186] (57)
5D55  00                 [187] (69)
5D56  00                 [188] (69)
5D57  19                 [189] (69)
5D58  00                 [190] (120)
5D59  00                 [191] (120)
5D5A  00                 [192] (-113)
5D5B  1A                 [193] (-80)
5D5C  00                 [194] (-80)
5D5D  00                 [195] (-80)
5D5E  00                 [196] (-50)
5D5F  1A                 [197] (-50)
5D60  00                 [198] (-50)
5D61  00                 [199] (77)
5D62  00                 [200] (77)
5D63  1A                 [201] (77)
5D64  00                 [202] (77)
5D65  00                 [203] (77)
5D66  00                 [204] (77)
5D67  1B                 [205] (77)
5D68  00                 [206] (77)
5D69  00                 [207] (77)
5D6A  00                 [208] (77)
5D6B  1B                 [209] (77)
5D6C  00                 [210] (-48)
5D6D  00                 [211] (-116)
5D6E  00                 [212] (-116)
5D6F  1B                 [213] (-116)
5D70  00                 [214] (-116)
5D71  00                 [215] (-116)
5D72  00                 [216] (-109)
5D73  1C                 [217] (-109)
5D74  00                 [218] (-109)
5D75  00                 [219] (-114)
5D76  00                 [220] (-37)
5D77  22                 [221] (-37)
5D78  00                 [222] (-37)
5D79  00                 [223] (-37)
5D7A  00                 [224] (-37)
5D7B  22                 [225] (-37)
5D7C  00                 [226] (-37)
5D7D  00                 [227] (-37)
5D7E  00                 [228] (-37)
5D7F  22                 [229] (-37)
5D80  00                 [230] (-35)
5D81  00                 [231] (-35)
5D82  00                 [232] (-35)
5D83  23                 [233] (-35)
5D84  00                 [234] (-35)
5D85  00                 [235] (-35)
5D86  00                 [236] (-35)
5D87  23                 [237] (-35)
5D88  00                 [238] (-35)
5D89  00                 [239] (-35)
5D8A  00                 [240] (-35)
5D8B  23                 [241] (-35)
5D8C  00                 [242] (-35)
5D8D  00                 [243] (-35)
5D8E  00                 [244] (-35)
5D8F  24                 [245] (-35)
5D90  00                 [246] (-35)
5D91  00                 [247] (-35)
5D92  00                 [248] (-35)
5D93  24                 [249] (-27)
5D94  00                 [250] (-27)
5D95  00                 [251] (-27)
5D96  00                 [252] (-33)
5D97  24                 [253] (-27)
                         * locals:
608F  00                 sizelocvars (0)
                         * upvalues:
6090  00                 sizeupvalues (0)
                         ** end of function **

6091                     ** end of chunk **
