1	C:\wlua_dump\path\Lotus\Scripts\NemesisNemesisShipTransmissions.lua
Pos   Hex Data           Description or Code
------------------------------------------------------------------------
0000                     ** source chunk: C:\wlua_dump\path\Lotus\Scripts\NemesisNemesisShipTransmissions.lua
                         ** global header start **
0000  7F                 header signature: ""
0001  00                 version (major:minor hex digits)
0002  00                 format (0=official)
0003  00                 endianness (1=little endian)
0004  00                 size of int (bytes)
0005  00                 size of size_t (bytes)
0006  02                 size of Instruction (bytes)
0007  03                 size of number (bytes)
0008  0A                 integral (1=integral)
410
                         * number type: single
                         * x86 standard (32-bit, little endian, doubles)
                         ** global header end **
Lotus.Scripts.Nemesis.NemesisGenerator
NemesisShipTransmissions
gRegion
postProcess
fade
saturation
desaturateColor
gGameData
_T
uiConsoleTriggersInitialized
_G
NemesisPopup_Info
IsCreationPopup
NemesisTaunt
gGameRules
gRegion
gUIConsoleTriggerType
table
Disable
/Lotus/Interface/EndOfMatch.swf
gFlashMgr
curTransmission
NemesisReminderPlayed
Reminder
OpenScreen
nemesisPopupMovie
Enable
                         
0001                     ** function [0] definition (level 1)
                         ** start of function **
0001  00                 string size (0)
                         source name: (none)
0002  00                 line defined (0)
0003  00                 last line defined (0)
0004  00                 nups (0)
0005  00                 numparams (0)
0006  02                 is_vararg (2)
0007  03                 maxstacksize (3)
                         * code:
0008  0A                 sizecode (10)
0009  1D000000           [01] getglobal  0   0        ; 849075268
000D  59400000           [02] loadk      1   1        ; "Lotus.Scripts.Nemesis.NemesisGenerator"
0011  22800001           [03] call       0   2   2  
0015  65000000           [04] closure    1   0      
0019  A5400000           [05] closure    2   1      
001D  12008000           [06] move       0   1      
0021  12000000           [07] move       0   0      
0025  A0800000           [08] setglobal  2   2        ; NemesisShipTransmissions
0029  A0C00000           [09] setglobal  2   3        ; 346632395
002D  1E008000           [10] return     0   1      
                         * constants:
0031  04                 sizek (4)
0032  01                 const type 3
0033  44DC9B32           const [0]: (849075268)
0037  04                 const type 4
0038  27                 string size (39)
0039  4C6F7475732E5363+  "Lotus.Sc"
0041  72697074732E4E65+  "ripts.Ne"
0049  6D657369732E4E65+  "mesis.Ne"
0051  6D6573697347656E+  "mesisGen"
0059  657261746F7200     "erator\0"
                         const [1]: "Lotus.Scripts.Nemesis.NemesisGenerator"
0060  04                 const type 4
0061  19                 string size (25)
0062  4E656D6573697353+  "NemesisS"
006A  6869705472616E73+  "hipTrans"
0072  6D697373696F6E73+  "missions"
007A  00                 "\0"
                         const [2]: "NemesisShipTransmissions"
007B  01                 const type 3
007C  CB30A914           const [3]: (346632395)
                         * functions:
0080  02                 sizep (2)
                         
0081                     ** function [0] definition (level 2)
                         ** start of function **
0081  00                 string size (0)
                         source name: (none)
0082  05                 line defined (5)
0083  16                 last line defined (22)
0084  00                 nups (0)
0085  04                 numparams (4)
0086  00                 is_vararg (0)
0087  0E                 maxstacksize (14)
                         * code:
0088  24                 sizecode (36)
0089  12010000           [01] move       4   0      
008D  5D010000           [02] getglobal  5   0        ; gRegion
0091  6441C002           [03] self       5   5   257  ; -1456226250
0095  62810001           [04] call       5   2   2  
0099  4E81C002           [05] gettable   5   5   258  ; "postProcess"
009D  8EC1C002           [06] gettable   6   5   259  ; "fade"
00A1  CE01C102           [07] gettable   7   5   260  ; "saturation"
00A5  4CC18082           [08] settable   5   261 3    ; "desaturateColor"
00A9  19820100           [09] loadk      8   6        ; 0
fail op	21
00AD  15000004           [10] concat     0   8   0  
00B1  1AC00580           [11] jmp        24           ; to [36]
00B5  5DC20100           [12] getglobal  9   7        ; 538022378
00B9  99820100           [13] loadk      10  6        ; 0
00BD  62420001           [14] call       9   2   1  
00C1  5D020200           [15] getglobal  9   8        ; 1661359502
00C5  62828000           [16] call       9   1   2  
00C9  03420204           [17] add        8   8   9  
00CD  5D420200           [18] getglobal  9   9        ; 1668611480
00D1  9C020004           [19] div        10  8   0  
00D5  D9820100           [20] loadk      11  6        ; 0
00D9  19830200           [21] loadk      12  10       ; 0
00DD  62820002           [22] call       9   4   2  
00E1  9DC20200           [23] getglobal  10  11       ; -1828500651
00E5  D2020003           [24] move       11  6      
00E9  12038000           [25] move       12  1      
00ED  52038004           [26] move       13  9      
00F1  A2820002           [27] call       10  4   2  
00F5  4C818281           [28] settable   5   259 10   ; "fade"
00F9  9DC20200           [29] getglobal  10  11       ; -1828500651
00FD  D2028003           [30] move       11  7      
0101  12030001           [31] move       12  2      
0105  52038004           [32] move       13  9      
0109  A2820002           [33] call       10  4   2  
010D  4C810282           [34] settable   5   260 10   ; "saturation"
0111  1A40F97F           [35] jmp        -26          ; to [10]
0115  1E008000           [36] return     0   1      
                         * constants:
0119  0C                 sizek (12)
011A  04                 const type 4
011B  08                 string size (8)
011C  67526567696F6E00   "gRegion\0"
                         const [0]: "gRegion"
0124  01                 const type 3
0125  36C033A9           const [1]: (-1456226250)
0129  04                 const type 4
012A  0C                 string size (12)
012B  706F737450726F63+  "postProc"
0133  65737300           "ess\0"
                         const [2]: "postProcess"
0137  04                 const type 4
0138  05                 string size (5)
0139  6661646500         "fade\0"
                         const [3]: "fade"
013E  04                 const type 4
013F  0B                 string size (11)
0140  7361747572617469+  "saturati"
0148  6F6E00             "on\0"
                         const [4]: "saturation"
014B  04                 const type 4
014C  10                 string size (16)
014D  6465736174757261+  "desatura"
0155  7465436F6C6F7200   "teColor\0"
                         const [5]: "desaturateColor"
015D  03                 const type 3
015E  00000000           const [6]: (0)
0162  01                 const type 3
0163  EA911120           const [7]: (538022378)
0167  01                 const type 3
0168  8E550663           const [8]: (1661359502)
016C  01                 const type 3
016D  98FD7463           const [9]: (1668611480)
0171  03                 const type 3
0172  0000803F           const [10]: (0)
0176  01                 const type 3
0177  554B0393           const [11]: (-1828500651)
                         * functions:
017B  00                 sizep (0)
                         * lines:
017C  24                 sizelineinfo (36)
                         [pc] (line)
017D  06                 [01] (6)
017E  00                 [02] (7)
017F  00                 [03] (7)
0180  00                 [04] (7)
0181  07                 [05] (7)
0182  00                 [06] (8)
0183  00                 [07] (9)
0184  00                 [08] (11)
0185  07                 [09] (13)
0186  00                 [10] (14)
0187  00                 [11] (14)
0188  00                 [12] (15)
0189  07                 [13] (15)
018A  00                 [14] (15)
018B  00                 [15] (16)
018C  00                 [16] (16)
018D  07                 [17] (16)
018E  00                 [18] (18)
018F  00                 [19] (18)
0190  00                 [20] (18)
0191  08                 [21] (18)
0192  00                 [22] (18)
0193  00                 [23] (19)
0194  00                 [24] (19)
0195  09                 [25] (19)
0196  00                 [26] (19)
0197  00                 [27] (19)
0198  00                 [28] (19)
0199  0B                 [29] (20)
019A  00                 [30] (20)
019B  00                 [31] (20)
019C  00                 [32] (20)
019D  0D                 [33] (20)
019E  00                 [34] (20)
019F  00                 [35] (20)
01A0  00                 [36] (22)
                         * locals:
020D  00                 sizelocvars (0)
                         * upvalues:
020E  00                 sizeupvalues (0)
                         ** end of function **

                         
020F                     ** function [1] definition (level 2)
                         ** start of function **
020F  00                 string size (0)
                         source name: (none)
0210  18                 line defined (24)
0211  67                 last line defined (103)
0212  02                 nups (2)
0213  00                 numparams (0)
0214  00                 is_vararg (0)
0215  14                 maxstacksize (20)
                         * code:
0217  01                 sizecode (239)
0218  1D000000           [001] getglobal  0   0        ; 1074689893
021C  5D400000           [002] getglobal  1   1        ; gGameData
0220  22800001           [003] call       0   2   2  
0224  18400000           [004] test       0       1    ; to [6] if false
0228  1AC00080           [005] jmp        4            ; to [10]
022C  1D800000           [006] getglobal  0   2        ; _T
0230  0EC04000           [007] gettable   0   0   259  ; "uiConsoleTriggersInitialized"
0234  18400000           [008] test       0       1    ; to [10] if false
0238  1AC00080           [009] jmp        4            ; to [14]
023C  1D000100           [010] getglobal  0   4        ; 538022378
0240  59400100           [011] loadk      1   5        ; 0
0244  22400001           [012] call       0   2   1  
0248  1A80FC7F           [013] jmp        -13          ; to [1]
024C  1D000000           [014] getglobal  0   0        ; 1074689893
0250  5D800100           [015] getglobal  1   6        ; _G
0254  4EC0C100           [016] gettable   1   1   263  ; "NemesisPopup_Info"
0258  22800001           [017] call       0   2   2  
025C  18400000           [018] test       0       1    ; to [20] if false
0260  1A400380           [019] jmp        14           ; to [34]
0264  1D800100           [020] getglobal  0   6        ; _G
0268  0EC04100           [021] gettable   0   0   263  ; "NemesisPopup_Info"
026C  0E004200           [022] gettable   0   0   264  ; "IsCreationPopup"
0270  18000000           [023] test       0       0    ; to [25] if true
0274  1A800280           [024] jmp        11           ; to [36]
0278  1D800100           [025] getglobal  0   6        ; _G
027C  0E404200           [026] gettable   0   0   265  ; "NemesisTaunt"
0280  18000000           [027] test       0       0    ; to [29] if true
0284  1A800180           [028] jmp        7            ; to [36]
0288  1D800100           [029] getglobal  0   6        ; _G
028C  0E404200           [030] gettable   0   0   265  ; "NemesisTaunt"
0290  24804200           [031] self       0   0   266  ; 828278287
0294  22800001           [032] call       0   2   2  
0298  1A400080           [033] jmp        2            ; to [36]
029C  17400000           [034] loadbool   0   0   1    ; false, to [36]
02A0  17008000           [035] loadbool   0   1   0    ; true
02A4  4B000000           [036] newtable   1   0   0    ; array=0, hash=0
02A8  18000000           [037] test       0       0    ; to [39] if true
02AC  1A400680           [038] jmp        26           ; to [65]
02B0  9DC00200           [039] getglobal  2   11       ; gGameRules
02B4  A4004301           [040] self       2   2   268  ; 1861369943
02B8  17018000           [041] loadbool   4   1   0    ; true
02BC  A2408001           [042] call       2   3   1  
02C0  9D400300           [043] getglobal  2   13       ; gRegion
02C4  A4804301           [044] self       2   2   270  ; 152279552
02C8  1DC10300           [045] getglobal  4   15       ; gUIConsoleTriggerType
02CC  A2808001           [046] call       2   3   2  
02D0  DD000400           [047] getglobal  3   16       ; 248503575
02D4  12010001           [048] move       4   2      
02D8  E2000101           [049] call       3   2   4  
02DC  1AC00280           [050] jmp        12           ; to [63]
02E0  2442C403           [051] self       8   7   273  ; 736906611
02E4  22820001           [052] call       8   2   2  
02E8  18020000           [053] test       8       0    ; to [55] if true
02EC  1AC00180           [054] jmp        8            ; to [63]
02F0  1D820400           [055] getglobal  8   18       ; table
02F4  0EC24404           [056] gettable   8   8   275  ; -431682403
02F8  52028000           [057] move       9   1      
02FC  92028003           [058] move       10  7      
0300  22428001           [059] call       8   3   1  
0304  2402C503           [060] self       8   7   276  ; -1923578185
0308  99420500           [061] loadk      10  21       ; "Disable"
030C  22428001           [062] call       8   3   1  
0310  D6800000           [063] tforloop   3       2    ; to [65] if exit
0314  1A40FC7F           [064] jmp        -14          ; to [51]
0318  1D020100           [065] getglobal  8   4        ; 538022378
031C  59820500           [066] loadk      9   22       ; 0
0320  22420001           [067] call       8   2   1  
0324  1DC20500           [068] getglobal  8   23       ; 738251817
0328  59020600           [069] loadk      9   24       ; "/Lotus/Interface/EndOfMatch.swf"
032C  22820001           [070] call       8   2   2  
0330  5D020000           [071] getglobal  9   0        ; 1074689893
0334  9D420600           [072] getglobal  10  25       ; gFlashMgr
0338  A4824605           [073] self       10  10  282  ; 1634586770
033C  12030004           [074] move       12  8      
0340  A2028001           [075] call       10  3   0  
0344  62820000           [076] call       9   0   2  
0348  58020000           [077] test       9       0    ; to [79] if true
034C  1A000380           [078] jmp        13           ; to [92]
0350  5D020000           [079] getglobal  9   0        ; 1074689893
0354  9D420300           [080] getglobal  10  13       ; gRegion
0358  A4C24605           [081] self       10  10  283  ; 65205951
035C  A2020001           [082] call       10  2   0  
0360  62820000           [083] call       9   0   2  
0364  58420000           [084] test       9       1    ; to [86] if false
0368  1A400180           [085] jmp        6            ; to [92]
036C  5D020000           [086] getglobal  9   0        ; 1074689893
0370  9D820000           [087] getglobal  10  2        ; _T
0374  8E024705           [088] gettable   10  10  284  ; "curTransmission"
0378  62820001           [089] call       9   2   2  
037C  58420000           [090] test       9       1    ; to [92] if false
0380  1AC00080           [091] jmp        4            ; to [96]
0384  5D020100           [092] getglobal  9   4        ; 538022378
0388  99420100           [093] loadk      10  5        ; 0
038C  62420001           [094] call       9   2   1  
0390  1A80F97F           [095] jmp        -25          ; to [71]
0394  18000000           [096] test       0       0    ; to [98] if true
0398  1A800280           [097] jmp        11           ; to [109]
039C  53020000           [098] getupval   9   0      
03A0  99420700           [099] loadk      10  29       ; 0
03A4  D9820700           [100] loadk      11  30       ; -51
03A8  19C30700           [101] loadk      12  31       ; -102
03AC  5D030800           [102] getglobal  13  32       ; -1247440829
03B0  99430800           [103] loadk      14  33       ; 0
03B4  D9830800           [104] loadk      15  34       ; 0
03B8  19840800           [105] loadk      16  34       ; 0
03BC  59C40800           [106] loadk      17  35       ; 0
03C0  62038002           [107] call       13  5   0  
03C4  62420000           [108] call       9   0   1  
03C8  57020000           [109] loadbool   9   0   0    ; false
03CC  9D820100           [110] getglobal  10  6        ; _G
03D0  8E424205           [111] gettable   10  10  265  ; "NemesisTaunt"
03D4  98020000           [112] test       10      0    ; to [114] if true
03D8  1A800380           [113] jmp        15           ; to [129]
03DC  9D820100           [114] getglobal  10  6        ; _G
03E0  8E424205           [115] gettable   10  10  265  ; "NemesisTaunt"
03E4  A4824205           [116] self       10  10  266  ; 828278287
03E8  A2820001           [117] call       10  2   2  
03EC  98020000           [118] test       10      0    ; to [120] if true
03F0  1A000280           [119] jmp        9            ; to [129]
03F4  93028000           [120] getupval   10  1      
03F8  8E024905           [121] gettable   10  10  292  ; -2060281269
03FC  DD820100           [122] getglobal  11  6        ; _G
0400  CE42C205           [123] gettable   11  11  265  ; "NemesisTaunt"
0404  A2820001           [124] call       10  2   2  
0408  52020005           [125] move       9   10     
040C  9D820100           [126] getglobal  10  6        ; _G
0410  8C42C984           [127] settable   10  265 293  ; "NemesisTaunt" nil
0414  1A000680           [128] jmp        25           ; to [154]
0418  9D820100           [129] getglobal  10  6        ; _G
041C  8E824905           [130] gettable   10  10  294  ; "NemesisReminderPlayed"
0420  98420000           [131] test       10      1    ; to [133] if false
0424  1A000580           [132] jmp        21           ; to [154]
0428  9D020000           [133] getglobal  10  0        ; 1074689893
042C  DD420000           [134] getglobal  11  1        ; gGameData
0430  A2820001           [135] call       10  2   2  
0434  98420000           [136] test       10      1    ; to [138] if false
0438  1AC00380           [137] jmp        16           ; to [154]
043C  9D020000           [138] getglobal  10  0        ; 1074689893
0440  DD420000           [139] getglobal  11  1        ; gGameData
0444  E4C2C905           [140] self       11  11  295  ; 389385621
0448  E2020001           [141] call       11  2   0  
044C  A2820000           [142] call       10  0   2  
0450  98420000           [143] test       10      1    ; to [145] if false
0454  1A000280           [144] jmp        9            ; to [154]
0458  93028000           [145] getupval   10  1      
045C  8E024905           [146] gettable   10  10  292  ; -2060281269
0460  DD020A00           [147] getglobal  11  40       ; -332969190
0464  19430A00           [148] loadk      12  41       ; "Reminder"
0468  E2020001           [149] call       11  2   0  
046C  A2820000           [150] call       10  0   2  
0470  52020005           [151] move       9   10     
0474  9D820100           [152] getglobal  10  6        ; _G
0478  8C824A93           [153] settable   10  294 298  ; "NemesisReminderPlayed" 1
047C  9D020000           [154] getglobal  10  0        ; 1074689893
0480  DD820100           [155] getglobal  11  6        ; _G
0484  CEC2C105           [156] gettable   11  11  263  ; "NemesisPopup_Info"
0488  A2820001           [157] call       10  2   2  
048C  98420000           [158] test       10      1    ; to [160] if false
0490  1A400580           [159] jmp        22           ; to [182]
0494  9D820100           [160] getglobal  10  6        ; _G
0498  8EC24105           [161] gettable   10  10  263  ; "NemesisPopup_Info"
049C  8EC24A05           [162] gettable   10  10  299  ; "OpenScreen"
04A0  98020000           [163] test       10      0    ; to [165] if true
04A4  1A000480           [164] jmp        17           ; to [182]
04A8  9D020000           [165] getglobal  10  0        ; 1074689893
04AC  DD020B00           [166] getglobal  11  44       ; nemesisPopupMovie
04B0  A2820001           [167] call       10  2   2  
04B4  98420000           [168] test       10      1    ; to [170] if false
04B8  1AC00280           [169] jmp        12           ; to [182]
04BC  9D020000           [170] getglobal  10  0        ; 1074689893
04C0  DD420600           [171] getglobal  11  25       ; gFlashMgr
04C4  A2820001           [172] call       10  2   2  
04C8  98420000           [173] test       10      1    ; to [175] if false
04CC  1A800180           [174] jmp        7            ; to [182]
04D0  9D820100           [175] getglobal  10  6        ; _G
04D4  8EC24105           [176] gettable   10  10  263  ; "NemesisPopup_Info"
04D8  8C42CB95           [177] settable   10  299 301  ; "OpenScreen" 0
04DC  9D420600           [178] getglobal  10  25       ; gFlashMgr
04E0  A4824B05           [179] self       10  10  302  ; 1967690300
04E4  1D030B00           [180] getglobal  12  44       ; nemesisPopupMovie
04E8  A2828001           [181] call       10  3   2  
04EC  18000000           [182] test       0       0    ; to [184] if true
04F0  1A800D80           [183] jmp        55           ; to [239]
04F4  58020000           [184] test       9       0    ; to [186] if true
04F8  1AC00480           [185] jmp        20           ; to [206]
04FC  DD020000           [186] getglobal  11  0        ; 1074689893
0500  1D830000           [187] getglobal  12  2        ; _T
0504  0E034706           [188] gettable   12  12  284  ; "curTransmission"
0508  E2820001           [189] call       11  2   2  
050C  D8020000           [190] test       11      0    ; to [192] if true
0510  1AC00080           [191] jmp        4            ; to [196]
0514  DD020100           [192] getglobal  11  4        ; 538022378
0518  19430100           [193] loadk      12  5        ; 0
051C  E2420001           [194] call       11  2   1  
0520  1A40FD7F           [195] jmp        -10          ; to [186]
0524  DD020000           [196] getglobal  11  0        ; 1074689893
0528  1D830000           [197] getglobal  12  2        ; _T
052C  0E034706           [198] gettable   12  12  284  ; "curTransmission"
0530  E2820001           [199] call       11  2   2  
0534  D8420000           [200] test       11      1    ; to [202] if false
0538  1AC00080           [201] jmp        4            ; to [206]
053C  DD020100           [202] getglobal  11  4        ; 538022378
0540  19430100           [203] loadk      12  5        ; 0
0544  E2420001           [204] call       11  2   1  
0548  1A40FD7F           [205] jmp        -10          ; to [196]
054C  D3020000           [206] getupval   11  0      
0550  19430700           [207] loadk      12  29       ; 0
0554  59430100           [208] loadk      13  5        ; 0
0558  99430700           [209] loadk      14  29       ; 0
055C  DD030800           [210] getglobal  15  32       ; -1247440829
0560  19C40800           [211] loadk      16  35       ; 0
0564  59C40800           [212] loadk      17  35       ; 0
0568  99C40800           [213] loadk      18  35       ; 0
056C  D9C40800           [214] loadk      19  35       ; 0
0570  E2038002           [215] call       15  5   0  
0574  E2420000           [216] call       11  0   1  
0578  DD020400           [217] getglobal  11  16       ; 248503575
057C  12038000           [218] move       12  1      
0580  E2020101           [219] call       11  2   4  
0584  1A800080           [220] jmp        3            ; to [224]
0588  2404C507           [221] self       16  15  276  ; -1923578185
058C  99C40B00           [222] loadk      18  47       ; "Enable"
0590  22448001           [223] call       16  3   1  
0594  D6820000           [224] tforloop   11      2    ; to [226] if exit
0598  1A80FE7F           [225] jmp        -5           ; to [221]
059C  1DC40200           [226] getglobal  16  11       ; gGameRules
05A0  24044308           [227] self       16  16  268  ; 1861369943
05A4  97040000           [228] loadbool   18  0   0    ; false
05A8  22448001           [229] call       16  3   1  
05AC  1D040000           [230] getglobal  16  0        ; 1074689893
05B0  5D840100           [231] getglobal  17  6        ; _G
05B4  4EC4C108           [232] gettable   17  17  263  ; "NemesisPopup_Info"
05B8  22840001           [233] call       16  2   2  
05BC  18440000           [234] test       16      1    ; to [236] if false
05C0  1A800080           [235] jmp        3            ; to [239]
05C4  1D840100           [236] getglobal  16  6        ; _G
05C8  0EC44108           [237] gettable   16  16  263  ; "NemesisPopup_Info"
05CC  0C444B84           [238] settable   16  264 301  ; "IsCreationPopup" 0
05D0  1E008000           [239] return     0   1      
                         * constants:
05D4  30                 sizek (48)
05D5  01                 const type 3
05D6  65770E40           const [0]: (1074689893)
05DA  04                 const type 4
05DB  0A                 string size (10)
05DC  6747616D65446174+  "gGameDat"
05E4  6100               "a\0"
                         const [1]: "gGameData"
05E6  04                 const type 4
05E7  03                 string size (3)
05E8  5F5400             "_T\0"
                         const [2]: "_T"
05EB  04                 const type 4
05EC  1D                 string size (29)
05ED  7569436F6E736F6C+  "uiConsol"
05F5  6554726967676572+  "eTrigger"
05FD  73496E697469616C+  "sInitial"
0605  697A656400         "ized\0"
                         const [3]: "uiConsoleTriggersInitialized"
060A  01                 const type 3
060B  EA911120           const [4]: (538022378)
060F  03                 const type 3
0610  00000000           const [5]: (0)
0614  04                 const type 4
0615  03                 string size (3)
0616  5F4700             "_G\0"
                         const [6]: "_G"
0619  04                 const type 4
061A  12                 string size (18)
061B  4E656D6573697350+  "NemesisP"
0623  6F7075705F496E66+  "opup_Inf"
062B  6F00               "o\0"
                         const [7]: "NemesisPopup_Info"
062D  04                 const type 4
062E  10                 string size (16)
062F  4973437265617469+  "IsCreati"
0637  6F6E506F70757000   "onPopup\0"
                         const [8]: "IsCreationPopup"
063F  04                 const type 4
0640  0D                 string size (13)
0641  4E656D6573697354+  "NemesisT"
0649  61756E7400         "aunt\0"
                         const [9]: "NemesisTaunt"
064E  01                 const type 3
064F  0F865E31           const [10]: (828278287)
0653  04                 const type 4
0654  0B                 string size (11)
0655  6747616D6552756C+  "gGameRul"
065D  657300             "es\0"
                         const [11]: "gGameRules"
0660  01                 const type 3
0661  5740F26E           const [12]: (1861369943)
0665  04                 const type 4
0666  08                 string size (8)
0667  67526567696F6E00   "gRegion\0"
                         const [13]: "gRegion"
066F  01                 const type 3
0670  009A1309           const [14]: (152279552)
0674  04                 const type 4
0675  16                 string size (22)
0676  675549436F6E736F+  "gUIConso"
067E  6C65547269676765+  "leTrigge"
0686  725479706500       "rType\0"
                         const [15]: "gUIConsoleTriggerType"
068C  01                 const type 3
068D  17DDCF0E           const [16]: (248503575)
0691  01                 const type 3
0692  734DEC2B           const [17]: (736906611)
0696  04                 const type 4
0697  06                 string size (6)
0698  7461626C6500       "table\0"
                         const [18]: "table"
069E  01                 const type 3
069F  9D0C45E6           const [19]: (-431682403)
06A3  01                 const type 3
06A4  B786588D           const [20]: (-1923578185)
06A8  04                 const type 4
06A9  08                 string size (8)
06AA  44697361626C6500   "Disable\0"
                         const [21]: "Disable"
06B2  03                 const type 3
06B3  00000040           const [22]: (0)
06B7  01                 const type 3
06B8  29D4002C           const [23]: (738251817)
06BC  04                 const type 4
06BD  20                 string size (32)
06BE  2F4C6F7475732F49+  "/Lotus/I"
06C6  6E74657266616365+  "nterface"
06CE  2F456E644F664D61+  "/EndOfMa"
06D6  7463682E73776600   "tch.swf\0"
                         const [24]: "/Lotus/Interface/EndOfMatch.swf"
06DE  04                 const type 4
06DF  0A                 string size (10)
06E0  67466C6173684D67+  "gFlashMg"
06E8  7200               "r\0"
                         const [25]: "gFlashMgr"
06EA  01                 const type 3
06EB  92D06D61           const [26]: (1634586770)
06EF  01                 const type 3
06F0  BFF6E203           const [27]: (65205951)
06F4  04                 const type 4
06F5  10                 string size (16)
06F6  6375725472616E73+  "curTrans"
06FE  6D697373696F6E00   "mission\0"
                         const [28]: "curTransmission"
0706  03                 const type 3
0707  0000803F           const [29]: (0)
070B  03                 const type 3
070C  CDCC4C3E           const [30]: (-51)
0710  03                 const type 3
0711  9A99993E           const [31]: (-102)
0715  01                 const type 3
0716  4390A5B5           const [32]: (-1247440829)
071A  03                 const type 3
071B  00004843           const [33]: (0)
071F  03                 const type 3
0720  00000042           const [34]: (0)
0724  03                 const type 3
0725  00007F43           const [35]: (0)
0729  01                 const type 3
072A  4B9A3285           const [36]: (-2060281269)
072E  00                 const type 0
                         const [37]: nil
072F  04                 const type 4
0730  16                 string size (22)
0731  4E656D6573697352+  "NemesisR"
0739  656D696E64657250+  "eminderP"
0741  6C6179656400       "layed\0"
                         const [38]: "NemesisReminderPlayed"
0747  01                 const type 3
0748  958D3517           const [39]: (389385621)
074C  01                 const type 3
074D  1A4B27EC           const [40]: (-332969190)
0751  04                 const type 4
0752  09                 string size (9)
0753  52656D696E646572+  "Reminder"
075B  00                 "\0"
                         const [41]: "Reminder"
075C  01                 const type 3
075D  01000000           const [42]: (1)
0761  04                 const type 4
0762  0B                 string size (11)
0763  4F70656E53637265+  "OpenScre"
076B  656E00             "en\0"
                         const [43]: "OpenScreen"
076E  04                 const type 4
076F  12                 string size (18)
0770  6E656D6573697350+  "nemesisP"
0778  6F7075704D6F7669+  "opupMovi"
0780  6500               "e\0"
                         const [44]: "nemesisPopupMovie"
0782  01                 const type 3
0783  00000000           const [45]: (0)
0787  01                 const type 3
0788  3C924875           const [46]: (1967690300)
078C  04                 const type 4
078D  07                 string size (7)
078E  456E61626C6500     "Enable\0"
                         const [47]: "Enable"
                         * functions:
0795  00                 sizep (0)
                         * lines:
0797  01                 sizelineinfo (239)
                         [pc] (line)
0798  19                 [001] (25)
0799  00                 [002] (25)
079A  00                 [003] (25)
079B  00                 [004] (25)
079C  19                 [005] (25)
079D  00                 [006] (25)
079E  00                 [007] (25)
079F  00                 [008] (25)
07A0  19                 [009] (25)
07A1  00                 [010] (26)
07A2  00                 [011] (26)
07A3  00                 [012] (26)
07A4  19                 [013] (26)
07A5  00                 [014] (29)
07A6  00                 [015] (29)
07A7  00                 [016] (29)
07A8  19                 [017] (29)
07A9  00                 [018] (29)
07AA  00                 [019] (29)
07AB  00                 [020] (29)
07AC  19                 [021] (29)
07AD  00                 [022] (29)
07AE  00                 [023] (29)
07AF  00                 [024] (29)
07B0  19                 [025] (29)
07B1  00                 [026] (29)
07B2  00                 [027] (29)
07B3  00                 [028] (29)
07B4  19                 [029] (29)
07B5  00                 [030] (29)
07B6  00                 [031] (29)
07B7  00                 [032] (29)
07B8  19                 [033] (29)
07B9  00                 [034] (29)
07BA  00                 [035] (29)
07BB  00                 [036] (30)
07BC  1A                 [037] (32)
07BD  00                 [038] (32)
07BE  00                 [039] (34)
07BF  00                 [040] (34)
07C0  1A                 [041] (34)
07C1  00                 [042] (34)
07C2  00                 [043] (36)
07C3  00                 [044] (36)
07C4  1A                 [045] (36)
07C5  00                 [046] (36)
07C6  00                 [047] (37)
07C7  00                 [048] (37)
07C8  1A                 [049] (37)
07C9  00                 [050] (37)
07CA  00                 [051] (38)
07CB  00                 [052] (38)
07CC  1D                 [053] (38)
07CD  00                 [054] (38)
07CE  00                 [055] (39)
07CF  00                 [056] (39)
07D0  1D                 [057] (39)
07D1  00                 [058] (39)
07D2  00                 [059] (39)
07D3  00                 [060] (40)
07D4  1D                 [061] (40)
07D5  00                 [062] (40)
07D6  00                 [063] (37)
07D7  00                 [064] (41)
07D8  1D                 [065] (46)
07D9  00                 [066] (46)
07DA  00                 [067] (46)
07DB  00                 [068] (49)
07DC  1D                 [069] (49)
07DD  00                 [070] (49)
07DE  00                 [071] (50)
07DF  00                 [072] (50)
07E0  1D                 [073] (50)
07E1  00                 [074] (50)
07E2  00                 [075] (50)
07E3  00                 [076] (50)
07E4  1D                 [077] (50)
07E5  00                 [078] (50)
07E6  00                 [079] (50)
07E7  00                 [080] (50)
07E8  1D                 [081] (50)
07E9  00                 [082] (50)
07EA  00                 [083] (50)
07EB  00                 [084] (50)
07EC  1D                 [085] (50)
07ED  00                 [086] (50)
07EE  00                 [087] (50)
07EF  00                 [088] (50)
07F0  1D                 [089] (50)
07F1  00                 [090] (50)
07F2  00                 [091] (50)
07F3  00                 [092] (51)
07F4  1D                 [093] (51)
07F5  00                 [094] (51)
07F6  00                 [095] (51)
07F7  00                 [096] (54)
07F8  1D                 [097] (54)
07F9  00                 [098] (56)
07FA  00                 [099] (56)
07FB  00                 [100] (56)
07FC  1D                 [101] (56)
07FD  00                 [102] (56)
07FE  00                 [103] (56)
07FF  00                 [104] (56)
0800  1D                 [105] (56)
0801  00                 [106] (56)
0802  00                 [107] (56)
0803  00                 [108] (56)
0804  1D                 [109] (59)
0805  00                 [110] (61)
0806  00                 [111] (61)
0807  00                 [112] (61)
0808  1D                 [113] (61)
0809  00                 [114] (61)
080A  00                 [115] (61)
080B  00                 [116] (61)
080C  1D                 [117] (61)
080D  00                 [118] (61)
080E  00                 [119] (61)
080F  00                 [120] (62)
0810  1D                 [121] (62)
0811  00                 [122] (62)
0812  00                 [123] (62)
0813  00                 [124] (62)
0814  1D                 [125] (62)
0815  00                 [126] (63)
0816  00                 [127] (63)
0817  00                 [128] (63)
0818  1D                 [129] (64)
0819  00                 [130] (64)
081A  00                 [131] (64)
081B  00                 [132] (64)
081C  1D                 [133] (64)
081D  00                 [134] (64)
081E  00                 [135] (64)
081F  00                 [136] (64)
0820  1D                 [137] (64)
0821  00                 [138] (64)
0822  00                 [139] (64)
0823  00                 [140] (64)
0824  1E                 [141] (64)
0825  00                 [142] (64)
0826  00                 [143] (64)
0827  00                 [144] (64)
0828  20                 [145] (65)
0829  00                 [146] (65)
082A  00                 [147] (65)
082B  00                 [148] (65)
082C  20                 [149] (65)
082D  00                 [150] (65)
082E  00                 [151] (65)
082F  00                 [152] (66)
0830  22                 [153] (66)
0831  00                 [154] (69)
0832  00                 [155] (69)
0833  00                 [156] (69)
0834  22                 [157] (69)
0835  00                 [158] (69)
0836  00                 [159] (69)
0837  00                 [160] (70)
0838  22                 [161] (70)
0839  00                 [162] (70)
083A  00                 [163] (70)
083B  00                 [164] (70)
083C  22                 [165] (71)
083D  00                 [166] (71)
083E  00                 [167] (71)
083F  00                 [168] (71)
0840  24                 [169] (71)
0841  00                 [170] (72)
0842  00                 [171] (72)
0843  00                 [172] (72)
0844  24                 [173] (72)
0845  00                 [174] (72)
0846  00                 [175] (74)
0847  00                 [176] (74)
0848  24                 [177] (74)
0849  00                 [178] (75)
084A  00                 [179] (75)
084B  00                 [180] (75)
084C  24                 [181] (75)
084D  00                 [182] (78)
084E  00                 [183] (78)
084F  00                 [184] (79)
0850  25                 [185] (79)
0851  00                 [186] (81)
0852  00                 [187] (81)
0853  00                 [188] (81)
0854  25                 [189] (81)
0855  00                 [190] (81)
0856  00                 [191] (81)
0857  00                 [192] (82)
0858  25                 [193] (82)
0859  00                 [194] (82)
085A  00                 [195] (82)
085B  00                 [196] (86)
085C  25                 [197] (86)
085D  00                 [198] (86)
085E  00                 [199] (86)
085F  00                 [200] (86)
0860  26                 [201] (86)
0861  00                 [202] (87)
0862  00                 [203] (87)
0863  00                 [204] (87)
0864  26                 [205] (87)
0865  00                 [206] (91)
0866  00                 [207] (91)
0867  00                 [208] (91)
0868  26                 [209] (91)
0869  00                 [210] (91)
086A  00                 [211] (91)
086B  00                 [212] (91)
086C  26                 [213] (91)
086D  00                 [214] (91)
086E  00                 [215] (91)
086F  00                 [216] (91)
0870  27                 [217] (93)
0871  00                 [218] (93)
0872  00                 [219] (93)
0873  00                 [220] (93)
0874  27                 [221] (94)
0875  00                 [222] (94)
0876  00                 [223] (94)
0877  00                 [224] (93)
0878  27                 [225] (94)
0879  00                 [226] (97)
087A  00                 [227] (97)
087B  00                 [228] (97)
087C  27                 [229] (97)
087D  00                 [230] (99)
087E  00                 [231] (99)
087F  00                 [232] (99)
0880  27                 [233] (99)
0881  00                 [234] (99)
0882  00                 [235] (99)
0883  00                 [236] (100)
0884  28                 [237] (100)
0885  00                 [238] (100)
0886  00                 [239] (103)
                         * locals:
0B54  00                 sizelocvars (0)
                         * upvalues:
0B55  00                 sizeupvalues (0)
                         ** end of function **

                         * lines:
0B56  0A                 sizelineinfo (10)
                         [pc] (line)
0B57  03                 [01] (3)
0B58  00                 [02] (3)
0B59  00                 [03] (3)
0B5A  00                 [04] (22)
0B5B  03                 [05] (103)
0B5C  00                 [06] (103)
0B5D  00                 [07] (103)
0B5E  00                 [08] (103)
0B5F  03                 [09] (24)
0B60  00                 [10] (103)
                         * locals:
0B7F  00                 sizelocvars (0)
                         * upvalues:
0B80  00                 sizeupvalues (0)
                         ** end of function **

0B81                     ** end of chunk **
