1	C:\wlua_dump\path\Lotus\Scripts\NemesisSetupNemesis.lua
Pos   Hex Data           Description or Code
------------------------------------------------------------------------
0000                     ** source chunk: C:\wlua_dump\path\Lotus\Scripts\NemesisSetupNemesis.lua
                         ** global header start **
0000  7F                 header signature: ""
0001  00                 version (major:minor hex digits)
0002  00                 format (0=official)
0003  00                 endianness (1=little endian)
0004  00                 size of int (bytes)
0005  00                 size of size_t (bytes)
0006  02                 size of Instruction (bytes)
0007  14                 size of number (bytes)
0008  50                 integral (1=integral)
480
                         * number type: single
                         * x86 standard (32-bit, little endian, doubles)
                         ** global header end **
Lotus.Scripts.Libs.EncounterLib
Lotus.Interface.LotusUtilities
Lotus.Scripts.Nemesis.NemesisGenerator
Lotus.Scripts.Effects.EffectsColorUtilities
Engagement
/Lotus/Types/Enemies/CaptureTargets/KuvaLichObjectiveMarker
/Lotus/Types/Enemies/CaptureTargets/KuvaLichAllyMarker
/Lotus/Music/DynamicMusic/KuvaLich/KuvaLichOneMusicSequencer
/Lotus/Animations/Tenno/Menu/KneelToStand_anim.fbx
/Lotus/Fx/PowersuitAbilities/Kingpins/FriendlyTeleportSpawn
/Lotus/Animations/Tenno/Menu/StandToKneel_anim.fbx
KuvaHenchmanVIPImmunity
OnUpdateAllySpawnTime
Setup
SetupHenchmen
GenerateNemesisName
TransmissionPortrait
gGameRules
MONITOR_EVENTS
ENEMY_FLEE
Engine
STUN
KNOCKDOWN
RAGDOLL
gRegion
gGameRules
math
EMPTY_SYMBOL
Engine
ATMM_ANIMATION_DRIVEN
PRT_ONCE
_T
DespawnNemesisAlly
AllyIntro
gGameRules
gRegion
gEngineNpcAgentType
AllyVictory
AllyKilled
EMPTY_SYMBOL
Engine
ATMM_ANIMATION_DRIVEN
PRT_FREEZE
failed to update ally spawn time
setting up nemesis
TENNO
isTransmissionPortrait
portrait
_T
curTransmission
NemesisAlly
gGameRules
mTarget
NemesisTransmissionPortraitUseLocal
gGameData
LastNemesisHack
avatar
generatedProfile
rank
mRank
gBackgroundRegion
looking for nemesis from screen
gNemesis
set in _T
properties
name
gRegion
ally encounter
mPlayer
OnUpdateAllySpawnTime
enemy encounter
mManifest
generating profile from current encounter
nemesis has no generated profile!
NemesisResLoader
UISys
mName
GAME_C1_SPINE3
mLevel
Tenno
mHead
mPowerSuit
mScaledMovementSpeed
mExtraAbility
enthrallAbilityType
mArmor
mTraits
mWeapon
mWeaponUpgrade
mWeaponFingerprint
Engine
MAIN_HAND
InventoryControllerBase_ES_INSTANT_EQUIP
mWeaknesses
Game
AVATAR_DAMAGE_RESISTANCE
ADD
mResistances
mImmunities
mQuirk
mScaledHealth
mScaledShield
mScaledArmor
/Lotus/Types/Enemies/Kingpins/KingpinEngagementBehaviorSelector
mCustomization
mVoiceBox
mDspEffect
mEphemera
mShoulderHelmetDeco
mShoulderHelmetCustomization
shoulderHelmetDecoType
EMPTY_SYMBOL
helmetProjector
ZERO_VECTOR
ZERO_ROTATION
THIRD_PERSON
mType
KuvaLichBackgroundDeco
TintColor0
TintColor1
Lotus_Game
PrimaryColors
mTintColor0
mTintColor1
PLAY_MENU_TAUNT
TransmissionSoundInstance
nemesisTransmissionType
manifest
_T
gNemesis
mission
enemyInfo
nemesis has no enemy info!
gameplayProfile
gRegion
primaryWeapon
secondaryPower
avatarType
                         
0001                     ** function [0] definition (level 1)
                         ** start of function **
0001  00                 string size (0)
                         source name: (none)
0002  00                 line defined (0)
0003  00                 last line defined (0)
0004  00                 nups (0)
0005  00                 numparams (0)
0006  02                 is_vararg (2)
0007  14                 maxstacksize (20)
                         * code:
0008  50                 sizecode (80)
0009  1D000000           [01] getglobal  0   0        ; 849075268
000D  59400000           [02] loadk      1   1        ; "Lotus.Scripts.Libs.EncounterLib"
0011  22800001           [03] call       0   2   2  
0015  5D000000           [04] getglobal  1   0        ; 849075268
0019  99800000           [05] loadk      2   2        ; "Lotus.Interface.LotusUtilities"
001D  62800001           [06] call       1   2   2  
0021  9D000000           [07] getglobal  2   0        ; 849075268
0025  D9C00000           [08] loadk      3   3        ; "Lotus.Scripts.Nemesis.NemesisGenerator"
0029  A2800001           [09] call       2   2   2  
002D  DD000000           [10] getglobal  3   0        ; 849075268
0031  19010100           [11] loadk      4   4        ; "Lotus.Scripts.Effects.EffectsColorUtilities"
0035  E2800001           [12] call       3   2   2  
0039  1D410100           [13] getglobal  4   5        ; -332969190
003D  59810100           [14] loadk      5   6        ; "Engagement"
0041  22810001           [15] call       4   2   2  
0045  5DC10100           [16] getglobal  5   7        ; -895206725
0049  99010200           [17] loadk      6   8        ; "/Lotus/Types/Enemies/CaptureTargets/KuvaLichObjectiveMarker"
004D  62810001           [18] call       5   2   2  
0051  9DC10100           [19] getglobal  6   7        ; -895206725
0055  D9410200           [20] loadk      7   9        ; "/Lotus/Types/Enemies/CaptureTargets/KuvaLichAllyMarker"
0059  A2810001           [21] call       6   2   2  
005D  DD810200           [22] getglobal  7   10       ; 738251817
0061  19C20200           [23] loadk      8   11       ; "/Lotus/Music/DynamicMusic/KuvaLich/KuvaLichOneMusicSequencer"
0065  E2810001           [24] call       7   2   2  
0069  19020300           [25] loadk      8   12       ; 0
006D  59420300           [26] loadk      9   13       ; 0
0071  9D820300           [27] getglobal  10  14       ; 2083004503
0075  D9C20300           [28] loadk      11  15       ; "/Lotus/Animations/Tenno/Menu/KneelToStand_anim.fbx"
0079  A2820001           [29] call       10  2   2  
007D  DDC20100           [30] getglobal  11  7        ; -895206725
0081  19030400           [31] loadk      12  16       ; "/Lotus/Fx/PowersuitAbilities/Kingpins/FriendlyTeleportSpawn"
0085  E2820001           [32] call       11  2   2  
0089  1D830300           [33] getglobal  12  14       ; 2083004503
008D  59430400           [34] loadk      13  17       ; "/Lotus/Animations/Tenno/Menu/StandToKneel_anim.fbx"
0091  22830001           [35] call       12  2   2  
0095  5DC30100           [36] getglobal  13  7        ; -895206725
0099  99030400           [37] loadk      14  16       ; "/Lotus/Fx/PowersuitAbilities/Kingpins/FriendlyTeleportSpawn"
009D  62830001           [38] call       13  2   2  
00A1  9D430100           [39] getglobal  14  5        ; -332969190
00A5  D9830400           [40] loadk      15  18       ; "KuvaHenchmanVIPImmunity"
00A9  A2830001           [41] call       14  2   2  
00AD  E5030000           [42] closure    15  0      
00B1  25440000           [43] closure    16  1      
00B5  12000000           [44] move       0   0      
00B9  65840000           [45] closure    17  2      
00BD  12000007           [46] move       0   14     
00C1  12008003           [47] move       0   7      
00C5  12008004           [48] move       0   9      
00C9  12000004           [49] move       0   8      
00CD  A5C40000           [50] closure    18  3      
00D1  12008005           [51] move       0   11     
00D5  12000005           [52] move       0   10     
00D9  12000001           [53] move       0   2      
00DD  12008006           [54] move       0   13     
00E1  12000006           [55] move       0   12     
00E5  E5040100           [56] closure    19  4      
00E9  E0C40400           [57] setglobal  19  19       ; OnUpdateAllySpawnTime
00ED  E0040500           [58] setglobal  19  20       ; -1104884282
00F1  E5440100           [59] closure    19  5      
00F5  12008000           [60] move       0   1      
00F9  12000001           [61] move       0   2      
00FD  12000003           [62] move       0   6      
0101  12008002           [63] move       0   5      
0105  12000002           [64] move       0   4      
0109  12008001           [65] move       0   3      
010D  12000009           [66] move       0   18     
0111  12008008           [67] move       0   17     
0115  E0440500           [68] setglobal  19  21       ; Setup
0119  E0840500           [69] setglobal  19  22       ; 1717877961
011D  E5840100           [70] closure    19  6      
0121  E0C40500           [71] setglobal  19  23       ; SetupHenchmen
0125  E0040600           [72] setglobal  19  24       ; 405089074
0129  E5C40100           [73] closure    19  7      
012D  12000001           [74] move       0   2      
0131  E0440600           [75] setglobal  19  25       ; GenerateNemesisName
0135  E0840600           [76] setglobal  19  26       ; 37226143
0139  E5040200           [77] closure    19  8      
013D  E0C40600           [78] setglobal  19  27       ; TransmissionPortrait
0141  E0040700           [79] setglobal  19  28       ; -236791263
0145  1E008000           [80] return     0   1      
                         * constants:
0149  1D                 sizek (29)
014A  01                 const type 3
014B  44DC9B32           const [0]: (849075268)
014F  04                 const type 4
0150  20                 string size (32)
0151  4C6F7475732E5363+  "Lotus.Sc"
0159  72697074732E4C69+  "ripts.Li"
0161  62732E456E636F75+  "bs.Encou"
0169  6E7465724C696200   "nterLib\0"
                         const [1]: "Lotus.Scripts.Libs.EncounterLib"
0171  04                 const type 4
0172  1F                 string size (31)
0173  4C6F7475732E496E+  "Lotus.In"
017B  746572666163652E+  "terface."
0183  4C6F747573557469+  "LotusUti"
018B  6C697469657300     "lities\0"
                         const [2]: "Lotus.Interface.LotusUtilities"
0192  04                 const type 4
0193  27                 string size (39)
0194  4C6F7475732E5363+  "Lotus.Sc"
019C  72697074732E4E65+  "ripts.Ne"
01A4  6D657369732E4E65+  "mesis.Ne"
01AC  6D6573697347656E+  "mesisGen"
01B4  657261746F7200     "erator\0"
                         const [3]: "Lotus.Scripts.Nemesis.NemesisGenerator"
01BB  04                 const type 4
01BC  2C                 string size (44)
01BD  4C6F7475732E5363+  "Lotus.Sc"
01C5  72697074732E4566+  "ripts.Ef"
01CD  66656374732E4566+  "fects.Ef"
01D5  6665637473436F6C+  "fectsCol"
01DD  6F725574696C6974+  "orUtilit"
01E5  69657300           "ies\0"
                         const [4]: "Lotus.Scripts.Effects.EffectsColorUtilities"
01E9  01                 const type 3
01EA  1A4B27EC           const [5]: (-332969190)
01EE  04                 const type 4
01EF  0B                 string size (11)
01F0  456E676167656D65+  "Engageme"
01F8  6E7400             "nt\0"
                         const [6]: "Engagement"
01FB  01                 const type 3
01FC  BB3AA4CA           const [7]: (-895206725)
0200  04                 const type 4
0201  3C                 string size (60)
0202  2F4C6F7475732F54+  "/Lotus/T"
020A  797065732F456E65+  "ypes/Ene"
0212  6D6965732F436170+  "mies/Cap"
021A  7475726554617267+  "tureTarg"
0222  6574732F4B757661+  "ets/Kuva"
022A  4C6963684F626A65+  "LichObje"
0232  63746976654D6172+  "ctiveMar"
023A  6B657200           "ker\0"
                         const [8]: "/Lotus/Types/Enemies/CaptureTargets/KuvaLichObjectiveMarker"
023E  04                 const type 4
023F  37                 string size (55)
0240  2F4C6F7475732F54+  "/Lotus/T"
0248  797065732F456E65+  "ypes/Ene"
0250  6D6965732F436170+  "mies/Cap"
0258  7475726554617267+  "tureTarg"
0260  6574732F4B757661+  "ets/Kuva"
0268  4C696368416C6C79+  "LichAlly"
0270  4D61726B657200     "Marker\0"
                         const [9]: "/Lotus/Types/Enemies/CaptureTargets/KuvaLichAllyMarker"
0277  01                 const type 3
0278  29D4002C           const [10]: (738251817)
027C  04                 const type 4
027D  3D                 string size (61)
027E  2F4C6F7475732F4D+  "/Lotus/M"
0286  757369632F44796E+  "usic/Dyn"
028E  616D69634D757369+  "amicMusi"
0296  632F4B7576614C69+  "c/KuvaLi"
029E  63682F4B7576614C+  "ch/KuvaL"
02A6  6963684F6E654D75+  "ichOneMu"
02AE  7369635365717565+  "sicSeque"
02B6  6E63657200         "ncer\0"
                         const [11]: "/Lotus/Music/DynamicMusic/KuvaLich/KuvaLichOneMusicSequencer"
02BB  03                 const type 3
02BC  00007042           const [12]: (0)
02C0  03                 const type 3
02C1  00008C42           const [13]: (0)
02C5  01                 const type 3
02C6  5720287C           const [14]: (2083004503)
02CA  04                 const type 4
02CB  33                 string size (51)
02CC  2F4C6F7475732F41+  "/Lotus/A"
02D4  6E696D6174696F6E+  "nimation"
02DC  732F54656E6E6F2F+  "s/Tenno/"
02E4  4D656E752F4B6E65+  "Menu/Kne"
02EC  656C546F5374616E+  "elToStan"
02F4  645F616E696D2E66+  "d_anim.f"
02FC  627800             "bx\0"
                         const [15]: "/Lotus/Animations/Tenno/Menu/KneelToStand_anim.fbx"
02FF  04                 const type 4
0300  3C                 string size (60)
0301  2F4C6F7475732F46+  "/Lotus/F"
0309  782F506F77657273+  "x/Powers"
0311  7569744162696C69+  "uitAbili"
0319  746965732F4B696E+  "ties/Kin"
0321  6770696E732F4672+  "gpins/Fr"
0329  69656E646C795465+  "iendlyTe"
0331  6C65706F72745370+  "leportSp"
0339  61776E00           "awn\0"
                         const [16]: "/Lotus/Fx/PowersuitAbilities/Kingpins/FriendlyTeleportSpawn"
033D  04                 const type 4
033E  33                 string size (51)
033F  2F4C6F7475732F41+  "/Lotus/A"
0347  6E696D6174696F6E+  "nimation"
034F  732F54656E6E6F2F+  "s/Tenno/"
0357  4D656E752F537461+  "Menu/Sta"
035F  6E64546F4B6E6565+  "ndToKnee"
0367  6C5F616E696D2E66+  "l_anim.f"
036F  627800             "bx\0"
                         const [17]: "/Lotus/Animations/Tenno/Menu/StandToKneel_anim.fbx"
0372  04                 const type 4
0373  18                 string size (24)
0374  4B75766148656E63+  "KuvaHenc"
037C  686D616E56495049+  "hmanVIPI"
0384  6D6D756E69747900   "mmunity\0"
                         const [18]: "KuvaHenchmanVIPImmunity"
038C  04                 const type 4
038D  16                 string size (22)
038E  4F6E557064617465+  "OnUpdate"
0396  416C6C7953706177+  "AllySpaw"
039E  6E54696D6500       "nTime\0"
                         const [19]: "OnUpdateAllySpawnTime"
03A4  01                 const type 3
03A5  C6CD24BE           const [20]: (-1104884282)
03A9  04                 const type 4
03AA  06                 string size (6)
03AB  536574757000       "Setup\0"
                         const [21]: "Setup"
03B1  01                 const type 3
03B2  C9BC6466           const [22]: (1717877961)
03B6  04                 const type 4
03B7  0E                 string size (14)
03B8  536574757048656E+  "SetupHen"
03C0  63686D656E00       "chmen\0"
                         const [23]: "SetupHenchmen"
03C6  01                 const type 3
03C7  322B2518           const [24]: (405089074)
03CB  04                 const type 4
03CC  14                 string size (20)
03CD  47656E6572617465+  "Generate"
03D5  4E656D657369734E+  "NemesisN"
03DD  616D6500           "ame\0"
                         const [25]: "GenerateNemesisName"
03E1  01                 const type 3
03E2  9F063802           const [26]: (37226143)
03E6  04                 const type 4
03E7  15                 string size (21)
03E8  5472616E736D6973+  "Transmis"
03F0  73696F6E506F7274+  "sionPort"
03F8  7261697400         "rait\0"
                         const [27]: "TransmissionPortrait"
03FD  01                 const type 3
03FE  21DAE2F1           const [28]: (-236791263)
                         * functions:
0402  09                 sizep (9)
                         
0403                     ** function [0] definition (level 2)
                         ** start of function **
0403  00                 string size (0)
                         source name: (none)
0404  1D                 line defined (29)
0405  22                 last line defined (34)
0406  00                 nups (0)
0407  03                 numparams (3)
0408  00                 is_vararg (0)
0409  09                 maxstacksize (9)
                         * code:
040A  0E                 sizecode (14)
040B  DD000000           [01] getglobal  3   0        ; 1074689893
040F  12010000           [02] move       4   0      
0413  E2800001           [03] call       3   2   2  
0417  D8400000           [04] test       3       1    ; to [6] if false
041B  1AC00180           [05] jmp        8            ; to [14]
041F  E4404000           [06] self       3   0   257  ; -1903333237
0423  E2800001           [07] call       3   2   2  
0427  1D810000           [08] getglobal  4   2        ; gGameRules
042B  24C14002           [09] self       4   4   259  ; -592609719
042F  92018001           [10] move       6   3      
0433  D2018000           [11] move       7   1      
0437  12020001           [12] move       8   2      
043B  22418002           [13] call       4   5   1  
043F  1E008000           [14] return     0   1      
                         * constants:
0443  04                 sizek (4)
0444  01                 const type 3
0445  65770E40           const [0]: (1074689893)
0449  01                 const type 3
044A  8B708D8E           const [1]: (-1903333237)
044E  04                 const type 4
044F  0B                 string size (11)
0450  6747616D6552756C+  "gGameRul"
0458  657300             "es\0"
                         const [2]: "gGameRules"
045B  01                 const type 3
045C  497EADDC           const [3]: (-592609719)
                         * functions:
0460  00                 sizep (0)
                         * lines:
0461  0E                 sizelineinfo (14)
                         [pc] (line)
0462  1E                 [01] (30)
0463  00                 [02] (30)
0464  00                 [03] (30)
0465  00                 [04] (30)
0466  1E                 [05] (30)
0467  00                 [06] (31)
0468  00                 [07] (31)
0469  00                 [08] (32)
046A  1E                 [09] (32)
046B  00                 [10] (32)
046C  00                 [11] (32)
046D  00                 [12] (32)
046E  1E                 [13] (32)
046F  00                 [14] (34)
                         * locals:
049A  00                 sizelocvars (0)
                         * upvalues:
049B  00                 sizeupvalues (0)
                         ** end of function **

                         
049C                     ** function [1] definition (level 2)
                         ** start of function **
049C  00                 string size (0)
                         source name: (none)
049D  24                 line defined (36)
049E  2C                 last line defined (44)
049F  01                 nups (1)
04A0  02                 numparams (2)
04A1  00                 is_vararg (0)
04A2  05                 maxstacksize (5)
                         * code:
04A3  0F                 sizecode (15)
04A4  93000000           [01] getupval   2   0      
04A8  8E004001           [02] gettable   2   2   256  ; "MONITOR_EVENTS"
04AC  8E404001           [03] gettable   2   2   257  ; "ENEMY_FLEE"
fail op	35
04B0  23808000           [04] close      0  
04B4  1A000280           [05] jmp        9            ; to [15]
04B8  A4804000           [06] self       2   0   258  ; -2135866365
04BC  A2800001           [07] call       2   2   2  
04C0  DDC00000           [08] getglobal  3   3        ; 1074689893
04C4  12010001           [09] move       4   2      
04C8  E2800001           [10] call       3   2   2  
04CC  D8400000           [11] test       3       1    ; to [13] if false
04D0  1A400080           [12] jmp        2            ; to [15]
04D4  E4004101           [13] self       3   2   260  ; -725453761
04D8  E2400001           [14] call       3   2   1  
04DC  1E008000           [15] return     0   1      
                         * constants:
04E0  05                 sizek (5)
04E1  04                 const type 4
04E2  0F                 string size (15)
04E3  4D4F4E49544F525F+  "MONITOR_"
04EB  4556454E545300     "EVENTS\0"
                         const [0]: "MONITOR_EVENTS"
04F2  04                 const type 4
04F3  0B                 string size (11)
04F4  454E454D595F464C+  "ENEMY_FL"
04FC  454500             "EE\0"
                         const [1]: "ENEMY_FLEE"
04FF  01                 const type 3
0500  0344B180           const [2]: (-2135866365)
0504  01                 const type 3
0505  65770E40           const [3]: (1074689893)
0509  01                 const type 3
050A  3F74C2D4           const [4]: (-725453761)
                         * functions:
050E  00                 sizep (0)
                         * lines:
050F  0F                 sizelineinfo (15)
                         [pc] (line)
0510  25                 [01] (37)
0511  00                 [02] (37)
0512  00                 [03] (37)
0513  00                 [04] (37)
0514  25                 [05] (37)
0515  00                 [06] (38)
0516  00                 [07] (38)
0517  00                 [08] (39)
0518  25                 [09] (39)
0519  00                 [10] (39)
051A  00                 [11] (39)
051B  00                 [12] (39)
051C  25                 [13] (40)
051D  00                 [14] (40)
051E  00                 [15] (44)
                         * locals:
054C  00                 sizelocvars (0)
                         * upvalues:
054D  00                 sizeupvalues (0)
                         ** end of function **

                         
054E                     ** function [2] definition (level 2)
                         ** start of function **
054E  00                 string size (0)
                         source name: (none)
054F  2E                 line defined (46)
0550  66                 last line defined (102)
0551  04                 nups (4)
0552  01                 numparams (1)
0553  00                 is_vararg (0)
0554  11                 maxstacksize (17)
                         * code:
0556  01                 sizecode (139)
0557  5D000000           [001] getglobal  1   0        ; 1074689893
055B  92000000           [002] move       2   0      
055F  62800001           [003] call       1   2   2  
0563  58000000           [004] test       1       0    ; to [6] if true
0567  1A000080           [005] jmp        1            ; to [7]
056B  1E008000           [006] return     0   1      
056F  64404000           [007] self       1   0   257  ; -1544157541
0573  62800001           [008] call       1   2   2  
0577  A480C000           [009] self       2   1   258  ; 1685228074
057B  1DC10000           [010] getglobal  4   3        ; Engine
057F  0E014102           [011] gettable   4   4   260  ; "STUN"
0583  53010000           [012] getupval   5   0      
0587  A2400002           [013] call       2   4   1  
058B  A480C000           [014] self       2   1   258  ; 1685228074
058F  1DC10000           [015] getglobal  4   3        ; Engine
0593  0E414102           [016] gettable   4   4   261  ; "KNOCKDOWN"
0597  53010000           [017] getupval   5   0      
059B  A2400002           [018] call       2   4   1  
059F  A480C000           [019] self       2   1   258  ; 1685228074
05A3  1DC10000           [020] getglobal  4   3        ; Engine
05A7  0E814102           [021] gettable   4   4   262  ; "RAGDOLL"
05AB  53010000           [022] getupval   5   0      
05AF  A2400002           [023] call       2   4   1  
05B3  A4C0C100           [024] self       2   1   263  ; 17344149
05B7  13010000           [025] getupval   4   0      
05BB  A2408001           [026] call       2   3   1  
05BF  97000000           [027] loadbool   2   0   0    ; false
05C3  DD000200           [028] getglobal  3   8        ; gRegion
05C7  E440C201           [029] self       3   3   265  ; -1520831144
05CB  E2800001           [030] call       3   2   2  
05CF  D8000000           [031] test       3       0    ; to [33] if true
05D3  1A401A80           [032] jmp        106          ; to [139]
05D7  DD800200           [033] getglobal  3   10       ; gGameRules
05DB  E4C0C201           [034] self       3   3   267  ; 127295906
05DF  4B010000           [035] newtable   5   0   0    ; array=0, hash=0
05E3  9D010300           [036] getglobal  6   12       ; -1615931716
05E7  D3018000           [037] getupval   7   1      
05EB  E441C303           [038] self       7   7   269  ; 455421500
05EF  E2010001           [039] call       7   2   0  
05F3  A2010000           [040] call       6   0   0  
05F7  5B410000           [041] setlist    5   0   1    ; index 1 to top
05FB  E2408001           [042] call       3   3   1  
05FF  DD800300           [043] getglobal  3   14       ; 538022378
0603  19C10300           [044] loadk      4   15       ; 0
0607  E2400001           [045] call       3   2   1  
060B  DD000000           [046] getglobal  3   0        ; 1074689893
060F  12010000           [047] move       4   0      
0613  E2800001           [048] call       3   2   2  
0617  D8400000           [049] test       3       1    ; to [51] if false
061B  1A001380           [050] jmp        77           ; to [128]
061F  E4004400           [051] self       3   0   272  ; 1511086594
0623  E2800001           [052] call       3   2   2  
0627  D8000000           [053] test       3       0    ; to [55] if true
062B  1A000080           [054] jmp        1            ; to [56]
062F  1AC01180           [055] jmp        72           ; to [128]
0633  DD000200           [056] getglobal  3   8        ; gRegion
0637  E440C401           [057] self       3   3   273  ; -2071158816
063B  E2800001           [058] call       3   2   2  
063F  13010001           [059] getupval   4   2      
0643  03814402           [060] add        4   4   274  ; 0
0647  5DC10400           [061] getglobal  5   19       ; 1672515847
064B  92018001           [062] move       6   3      
064F  62010101           [063] call       5   2   4  
0653  1A000280           [064] jmp        9            ; to [74]
0657  A402C504           [065] self       10  9   276  ; -2082918326
065B  12030000           [066] move       12  0      
065F  A2828001           [067] call       10  3   2  
0663  DD420500           [068] getglobal  11  21       ; math
0667  CE82C505           [069] gettable   11  11  278  ; 1710846250
066B  12030005           [070] move       12  10     
066F  52030002           [071] move       13  4      
0673  E2828001           [072] call       11  3   2  
0677  12018005           [073] move       4   11     
067B  56810000           [074] tforloop   5       2    ; to [76] if exit
067F  1A00FD7F           [075] jmp        -11          ; to [65]
0683  D3020001           [076] getupval   11  2      
fail op	21
0687  15008105           [077] concat     0   11  4  
068B  1A000380           [078] jmp        13           ; to [92]
068F  98000000           [079] test       2       0    ; to [81] if true
0693  1A40F67F           [080] jmp        -38          ; to [43]
0697  DD820200           [081] getglobal  11  10       ; gGameRules
069B  E4C2C505           [082] self       11  11  279  ; 516385015
069F  E2820001           [083] call       11  2   2  
06A3  2403C605           [084] self       12  11  280  ; -1105824
06A7  97038000           [085] loadbool   14  1   0    ; true
06AB  22438001           [086] call       12  3   1  
06AF  2443C605           [087] self       12  11  281  ; 2143938515
06B3  86030007           [088] loadnil    14  14     
06B7  22438001           [089] call       12  3   1  
06BB  97000000           [090] loadbool   2   0   0    ; false
06BF  1A80F37F           [091] jmp        -49          ; to [43]
06C3  13038001           [092] getupval   12  3      
fail op	21
06C7  15000302           [093] concat     0   4   12 
06CB  1AC0F27F           [094] jmp        -52          ; to [43]
06CF  98400000           [095] test       2       1    ; to [97] if false
06D3  1A40F27F           [096] jmp        -54          ; to [43]
06D7  1D030000           [097] getglobal  12  0        ; 1074689893
06DB  64834600           [098] self       13  0   282  ; -1411785325
06DF  62030001           [099] call       13  2   0  
06E3  22830000           [100] call       12  0   2  
06E7  18430000           [101] test       12      1    ; to [103] if false
06EB  1AC0F07F           [102] jmp        -60          ; to [43]
06EF  24834600           [103] self       12  0   282  ; -1411785325
06F3  22830001           [104] call       12  2   2  
06F7  24C34606           [105] self       12  12  283  ; -1276975617
06FB  22830001           [106] call       12  2   2  
06FF  18030000           [107] test       12      0    ; to [109] if true
0703  1A40EF7F           [108] jmp        -66          ; to [43]
0707  97008000           [109] loadbool   2   1   0    ; true
070B  1D830200           [110] getglobal  12  10       ; gGameRules
070F  24C34506           [111] self       12  12  279  ; 516385015
0713  22830001           [112] call       12  2   2  
0717  64434606           [113] self       13  12  281  ; 2143938515
071B  DD030700           [114] getglobal  15  28       ; -895206725
071F  13048000           [115] getupval   16  1      
0723  E2030001           [116] call       15  2   0  
0727  62430000           [117] call       13  0   1  
072B  64034606           [118] self       13  12  280  ; -1105824
072F  D7030000           [119] loadbool   15  0   0    ; false
0733  62438001           [120] call       13  3   1  
0737  5D830300           [121] getglobal  13  14       ; 538022378
073B  99430700           [122] loadk      14  29       ; 0
073F  62430001           [123] call       13  2   1  
0743  64834706           [124] self       13  12  286  ; 1209012877
0747  D9C30300           [125] loadk      15  15       ; 0
074B  62438001           [126] call       13  3   1  
074F  1A80EA7F           [127] jmp        -85          ; to [43]
0753  98000000           [128] test       2       0    ; to [130] if true
0757  1A000280           [129] jmp        9            ; to [139]
075B  5D830200           [130] getglobal  13  10       ; gGameRules
075F  64C3C506           [131] self       13  13  279  ; 516385015
0763  62830001           [132] call       13  2   2  
0767  A403C606           [133] self       14  13  280  ; -1105824
076B  17048000           [134] loadbool   16  1   0    ; true
076F  A2438001           [135] call       14  3   1  
0773  A443C606           [136] self       14  13  281  ; 2143938515
0777  06040008           [137] loadnil    16  16     
077B  A2438001           [138] call       14  3   1  
077F  1E008000           [139] return     0   1      
                         * constants:
0783  1F                 sizek (31)
0784  01                 const type 3
0785  65770E40           const [0]: (1074689893)
0789  01                 const type 3
078A  9B06F6A3           const [1]: (-1544157541)
078E  01                 const type 3
078F  2A8A7264           const [2]: (1685228074)
0793  04                 const type 4
0794  07                 string size (7)
0795  456E67696E6500     "Engine\0"
                         const [3]: "Engine"
079C  04                 const type 4
079D  05                 string size (5)
079E  5354554E00         "STUN\0"
                         const [4]: "STUN"
07A3  04                 const type 4
07A4  0A                 string size (10)
07A5  4B4E4F434B444F57+  "KNOCKDOW"
07AD  4E00               "N\0"
                         const [5]: "KNOCKDOWN"
07AF  04                 const type 4
07B0  08                 string size (8)
07B1  524147444F4C4C00   "RAGDOLL\0"
                         const [6]: "RAGDOLL"
07B9  01                 const type 3
07BA  95A60801           const [7]: (17344149)
07BE  04                 const type 4
07BF  08                 string size (8)
07C0  67526567696F6E00   "gRegion\0"
                         const [8]: "gRegion"
07C8  01                 const type 3
07C9  58F559A5           const [9]: (-1520831144)
07CD  04                 const type 4
07CE  0B                 string size (11)
07CF  6747616D6552756C+  "gGameRul"
07D7  657300             "es\0"
                         const [10]: "gGameRules"
07DA  01                 const type 3
07DB  A2619607           const [11]: (127295906)
07DF  01                 const type 3
07E0  BCD6AE9F           const [12]: (-1615931716)
07E4  01                 const type 3
07E5  3C2E251B           const [13]: (455421500)
07E9  01                 const type 3
07EA  EA911120           const [14]: (538022378)
07EE  03                 const type 3
07EF  00000000           const [15]: (0)
07F3  01                 const type 3
07F4  025A115A           const [16]: (1511086594)
07F8  01                 const type 3
07F9  E09F8C84           const [17]: (-2071158816)
07FD  03                 const type 3
07FE  00002041           const [18]: (0)
0802  01                 const type 3
0803  0791B063           const [19]: (1672515847)
0807  01                 const type 3
0808  4A30D983           const [20]: (-2082918326)
080C  04                 const type 4
080D  05                 string size (5)
080E  6D61746800         "math\0"
                         const [21]: "math"
0813  01                 const type 3
0814  2A71F965           const [22]: (1710846250)
0818  01                 const type 3
0819  F768C71E           const [23]: (516385015)
081D  01                 const type 3
081E  6020EFFF           const [24]: (-1105824)
0822  01                 const type 3
0823  D3E7C97F           const [25]: (2143938515)
0827  01                 const type 3
0828  93DDD9AB           const [26]: (-1411785325)
082C  01                 const type 3
082D  FFE5E2B3           const [27]: (-1276975617)
0831  01                 const type 3
0832  BB3AA4CA           const [28]: (-895206725)
0836  03                 const type 3
0837  0000003F           const [29]: (0)
083B  01                 const type 3
083C  8D121048           const [30]: (1209012877)
                         * functions:
0840  00                 sizep (0)
                         * lines:
0842  01                 sizelineinfo (139)
                         [pc] (line)
0843  2F                 [001] (47)
0844  00                 [002] (47)
0845  00                 [003] (47)
0846  00                 [004] (47)
0847  2F                 [005] (47)
0848  00                 [006] (48)
0849  00                 [007] (52)
084A  00                 [008] (52)
084B  2F                 [009] (53)
084C  00                 [010] (53)
084D  00                 [011] (53)
084E  00                 [012] (53)
084F  2F                 [013] (53)
0850  00                 [014] (54)
0851  00                 [015] (54)
0852  00                 [016] (54)
0853  2F                 [017] (54)
0854  00                 [018] (54)
0855  00                 [019] (55)
0856  00                 [020] (55)
0857  30                 [021] (55)
0858  00                 [022] (55)
0859  00                 [023] (55)
085A  00                 [024] (56)
085B  34                 [025] (56)
085C  00                 [026] (56)
085D  00                 [027] (58)
085E  00                 [028] (60)
085F  34                 [029] (60)
0860  00                 [030] (60)
0861  00                 [031] (60)
0862  00                 [032] (60)
0863  35                 [033] (61)
0864  00                 [034] (61)
0865  00                 [035] (61)
0866  00                 [036] (61)
0867  35                 [037] (61)
0868  00                 [038] (61)
0869  00                 [039] (61)
086A  00                 [040] (61)
086B  35                 [041] (61)
086C  00                 [042] (61)
086D  00                 [043] (65)
086E  00                 [044] (65)
086F  35                 [045] (65)
0870  00                 [046] (67)
0871  00                 [047] (67)
0872  00                 [048] (67)
0873  35                 [049] (67)
0874  00                 [050] (67)
0875  00                 [051] (67)
0876  00                 [052] (67)
0877  36                 [053] (67)
0878  00                 [054] (67)
0879  00                 [055] (68)
087A  00                 [056] (71)
087B  36                 [057] (71)
087C  00                 [058] (71)
087D  00                 [059] (72)
087E  00                 [060] (72)
087F  36                 [061] (73)
0880  00                 [062] (73)
0881  00                 [063] (73)
0882  00                 [064] (73)
0883  36                 [065] (74)
0884  00                 [066] (74)
0885  00                 [067] (74)
0886  00                 [068] (75)
0887  36                 [069] (75)
0888  00                 [070] (75)
0889  00                 [071] (75)
088A  00                 [072] (75)
088B  37                 [073] (75)
088C  00                 [074] (73)
088D  00                 [075] (75)
088E  00                 [076] (78)
088F  37                 [077] (78)
0890  00                 [078] (78)
0891  00                 [079] (79)
0892  00                 [080] (79)
0893  37                 [081] (80)
0894  00                 [082] (80)
0895  00                 [083] (80)
0896  00                 [084] (81)
0897  37                 [085] (81)
0898  00                 [086] (81)
0899  00                 [087] (82)
089A  00                 [088] (82)
089B  37                 [089] (82)
089C  00                 [090] (83)
089D  00                 [091] (84)
089E  00                 [092] (85)
089F  38                 [093] (85)
08A0  00                 [094] (85)
08A1  00                 [095] (85)
08A2  00                 [096] (85)
08A3  38                 [097] (85)
08A4  00                 [098] (85)
08A5  00                 [099] (85)
08A6  00                 [100] (85)
08A7  38                 [101] (85)
08A8  00                 [102] (85)
08A9  00                 [103] (85)
08AA  00                 [104] (85)
08AB  3A                 [105] (85)
08AC  00                 [106] (85)
08AD  00                 [107] (85)
08AE  00                 [108] (85)
08AF  3C                 [109] (87)
08B0  00                 [110] (88)
08B1  00                 [111] (88)
08B2  00                 [112] (88)
08B3  3C                 [113] (89)
08B4  00                 [114] (89)
08B5  00                 [115] (89)
08B6  00                 [116] (89)
08B7  3C                 [117] (89)
08B8  00                 [118] (90)
08B9  00                 [119] (90)
08BA  00                 [120] (90)
08BB  3C                 [121] (91)
08BC  00                 [122] (91)
08BD  00                 [123] (91)
08BE  00                 [124] (92)
08BF  3C                 [125] (92)
08C0  00                 [126] (92)
08C1  00                 [127] (93)
08C2  00                 [128] (96)
08C3  3D                 [129] (96)
08C4  00                 [130] (97)
08C5  00                 [131] (97)
08C6  00                 [132] (97)
08C7  3D                 [133] (98)
08C8  00                 [134] (98)
08C9  00                 [135] (98)
08CA  00                 [136] (99)
08CB  3D                 [137] (99)
08CC  00                 [138] (99)
08CD  00                 [139] (102)
                         * locals:
0A6F  00                 sizelocvars (0)
                         * upvalues:
0A70  00                 sizeupvalues (0)
                         ** end of function **

                         
0A71                     ** function [3] definition (level 2)
                         ** start of function **
0A71  00                 string size (0)
                         source name: (none)
0A72  68                 line defined (104)
0A73  A6                 last line defined (166)
0A74  01                 nups (5)
0A75  05                 numparams (1)
0A76  01                 is_vararg (0)
0A77  00                 maxstacksize (11)
                         * code:
0A79  68                 sizecode (104)
0A7A  5D000000           [001] getglobal  1   0        ; 1074689893
0A7E  92000000           [002] move       2   0      
0A82  62800001           [003] call       1   2   2  
0A86  58000000           [004] test       1       0    ; to [6] if true
0A8A  1A000080           [005] jmp        1            ; to [7]
0A8E  1E008000           [006] return     0   1      
0A92  64404000           [007] self       1   0   257  ; -703571861
0A96  D9800000           [008] loadk      3   2        ; 0
0A9A  62408001           [009] call       1   3   1  
0A9E  64C04000           [010] self       1   0   259  ; -1421644046
0AA2  D3000000           [011] getupval   3   0      
0AA6  1D010100           [012] getglobal  4   4        ; EMPTY_SYMBOL
0AAA  62400002           [013] call       1   4   1  
0AAE  64404100           [014] self       1   0   261  ; 2056776437
0AB2  D3008000           [015] getupval   3   1      
0AB6  17010000           [016] loadbool   4   0   0    ; false
0ABA  5D810100           [017] getglobal  5   6        ; Engine
0ABE  4EC1C102           [018] gettable   5   5   263  ; "ATMM_ANIMATION_DRIVEN"
0AC2  9D810100           [019] getglobal  6   6        ; Engine
0AC6  8E014203           [020] gettable   6   6   264  ; "PRT_ONCE"
0ACA  D7018000           [021] loadbool   7   1   0    ; true
0ACE  62408003           [022] call       1   7   1  
0AD2  64404200           [023] self       1   0   265  ; -1107906782
0AD6  62800001           [024] call       1   2   2  
fail op	21
0ADA  15400085           [025] concat     0   266 1  
0ADE  1AC00280           [026] jmp        12           ; to [39]
0AE2  5DC00200           [027] getglobal  1   11       ; 538022378
0AE6  99800200           [028] loadk      2   10       ; 0
0AEA  62400001           [029] call       1   2   1  
0AEE  64404000           [030] self       1   0   257  ; -703571861
0AF2  E4404200           [031] self       3   0   265  ; -1107906782
0AF6  E2800001           [032] call       3   2   2  
0AFA  1D010300           [033] getglobal  4   12       ; 1661359502
0AFE  22818000           [034] call       4   1   2  
0B02  04414302           [035] mul        4   4   269  ; 51
0B06  CD008101           [036] sub        3   3   4  
0B0A  62408001           [037] call       1   3   1  
0B0E  1AC0FB7F           [038] jmp        -16          ; to [23]
0B12  5D800300           [039] getglobal  1   14       ; _T
0B16  A5000000           [040] closure    2   0      
0B1A  12000000           [041] move       0   0      
0B1E  13000001           [042] getupval   0   2      
0B22  13008001           [043] getupval   0   3      
0B26  13000002           [044] getupval   0   4      
0B2A  4C808087           [045] settable   1   271 2    ; "DespawnNemesisAlly"
0B2E  53000001           [046] getupval   1   2      
0B32  4E00C400           [047] gettable   1   1   272  ; -2060281269
0B36  9D400400           [048] getglobal  2   17       ; -332969190
0B3A  D9800400           [049] loadk      3   18       ; "AllyIntro"
0B3E  A2800001           [050] call       2   2   2  
0B42  D7000000           [051] loadbool   3   0   0    ; false
0B46  17018000           [052] loadbool   4   1   0    ; true
0B4A  62400002           [053] call       1   4   1  
0B4E  59800200           [054] loadk      1   10       ; 0
0B52  9DC00200           [055] getglobal  2   11       ; 538022378
0B56  D9800200           [056] loadk      3   10       ; 0
0B5A  A2400001           [057] call       2   2   1  
0B5E  9D000000           [058] getglobal  2   0        ; 1074689893
0B62  D2000000           [059] move       3   0      
0B66  A2800001           [060] call       2   2   2  
0B6A  98400000           [061] test       2       1    ; to [63] if false
0B6E  1A000A80           [062] jmp        41           ; to [104]
0B72  A4C04400           [063] self       2   0   275  ; 1511086594
0B76  A2800001           [064] call       2   2   2  
0B7A  98400000           [065] test       2       1    ; to [67] if false
0B7E  1A000980           [066] jmp        37           ; to [104]
0B82  A4004500           [067] self       2   0   276  ; -1519595333
0B86  A2800001           [068] call       2   2   2  
0B8A  98000000           [069] test       2       0    ; to [71] if true
0B8E  1A400080           [070] jmp        2            ; to [73]
0B92  1AC00780           [071] jmp        32           ; to [104]
0B96  1A40FB7F           [072] jmp        -18          ; to [55]
0B9A  9D000300           [073] getglobal  2   12       ; 1661359502
0B9E  A2808000           [074] call       2   1   2  
0BA2  43808000           [075] add        1   1   2  
fail op	21
0BA6  1540808A           [076] concat     0   277 1  
0BAA  1A00FA7F           [077] jmp        -23          ; to [55]
0BAE  9D800500           [078] getglobal  2   22       ; gGameRules
0BB2  A4C04501           [079] self       2   2   279  ; -1201441975
0BB6  A2800001           [080] call       2   2   2  
0BBA  A4004601           [081] self       2   2   280  ; -272348948
0BBE  A2800001           [082] call       2   2   2  
0BC2  DD400600           [083] getglobal  3   25       ; gRegion
0BC6  E480C601           [084] self       3   3   282  ; -774964848
0BCA  E2800001           [085] call       3   2   2  
0BCE  E4C0C601           [086] self       3   3   283  ; 537471347
0BD2  E2800001           [087] call       3   2   2  
0BD6  E400C701           [088] self       3   3   284  ; 1179381323
0BDA  52010000           [089] move       5   0      
0BDE  99410700           [090] loadk      6   29       ; 0
0BE2  D7010000           [091] loadbool   7   0   0    ; false
0BE6  17020000           [092] loadbool   8   0   0    ; false
0BEA  5D820700           [093] getglobal  9   30       ; gEngineNpcAgentType
0BEE  92020001           [094] move       10  2      
0BF2  E2800004           [095] call       3   8   2  
fail op	35
0BF6  2380C201           [096] close      0  
0BFA  1A00F57F           [097] jmp        -43          ; to [55]
0BFE  1D810300           [098] getglobal  4   14       ; _T
0C02  0EC14702           [099] gettable   4   4   287  ; -809289664
0C06  57018000           [100] loadbool   5   1   0    ; true
0C0A  22410001           [101] call       4   2   1  
0C0E  1A000080           [102] jmp        1            ; to [104]
0C12  1A80F37F           [103] jmp        -49          ; to [55]
0C16  1E008000           [104] return     0   1      
                         * constants:
0C1A  20                 sizek (32)
0C1B  01                 const type 3
0C1C  65770E40           const [0]: (1074689893)
0C20  01                 const type 3
0C21  6B5810D6           const [1]: (-703571861)
0C25  03                 const type 3
0C26  0000803F           const [2]: (0)
0C2A  01                 const type 3
0C2B  F26E43AB           const [3]: (-1421644046)
0C2F  04                 const type 4
0C30  0D                 string size (13)
0C31  454D5054595F5359+  "EMPTY_SY"
0C39  4D424F4C00         "MBOL\0"
                         const [4]: "EMPTY_SYMBOL"
0C3E  01                 const type 3
0C3F  F5EA977A           const [5]: (2056776437)
0C43  04                 const type 4
0C44  07                 string size (7)
0C45  456E67696E6500     "Engine\0"
                         const [6]: "Engine"
0C4C  04                 const type 4
0C4D  16                 string size (22)
0C4E  41544D4D5F414E49+  "ATMM_ANI"
0C56  4D4154494F4E5F44+  "MATION_D"
0C5E  524956454E00       "RIVEN\0"
                         const [7]: "ATMM_ANIMATION_DRIVEN"
0C64  04                 const type 4
0C65  09                 string size (9)
0C66  5052545F4F4E4345+  "PRT_ONCE"
0C6E  00                 "\0"
                         const [8]: "PRT_ONCE"
0C6F  01                 const type 3
0C70  22AFF6BD           const [9]: (-1107906782)
0C74  03                 const type 3
0C75  00000000           const [10]: (0)
0C79  01                 const type 3
0C7A  EA911120           const [11]: (538022378)
0C7E  01                 const type 3
0C7F  8E550663           const [12]: (1661359502)
0C83  03                 const type 3
0C84  3333333F           const [13]: (51)
0C88  04                 const type 4
0C89  03                 string size (3)
0C8A  5F5400             "_T\0"
                         const [14]: "_T"
0C8D  04                 const type 4
0C8E  13                 string size (19)
0C8F  4465737061776E4E+  "DespawnN"
0C97  656D65736973416C+  "emesisAl"
0C9F  6C7900             "ly\0"
                         const [15]: "DespawnNemesisAlly"
0CA2  01                 const type 3
0CA3  4B9A3285           const [16]: (-2060281269)
0CA7  01                 const type 3
0CA8  1A4B27EC           const [17]: (-332969190)
0CAC  04                 const type 4
0CAD  0A                 string size (10)
0CAE  416C6C79496E7472+  "AllyIntr"
0CB6  6F00               "o\0"
                         const [18]: "AllyIntro"
0CB8  01                 const type 3
0CB9  025A115A           const [19]: (1511086594)
0CBD  01                 const type 3
0CBE  BBD06CA5           const [20]: (-1519595333)
0CC2  03                 const type 3
0CC3  00007042           const [21]: (0)
0CC7  04                 const type 4
0CC8  0B                 string size (11)
0CC9  6747616D6552756C+  "gGameRul"
0CD1  657300             "es\0"
                         const [22]: "gGameRules"
0CD4  01                 const type 3
0CD5  497363B8           const [23]: (-1201441975)
0CD9  01                 const type 3
0CDA  EC48C4EF           const [24]: (-272348948)
0CDE  04                 const type 4
0CDF  08                 string size (8)
0CE0  67526567696F6E00   "gRegion\0"
                         const [25]: "gRegion"
0CE8  01                 const type 3
0CE9  90F9CED1           const [26]: (-774964848)
0CED  01                 const type 3
0CEE  73290920           const [27]: (537471347)
0CF2  01                 const type 3
0CF3  4BEE4B46           const [28]: (1179381323)
0CF7  03                 const type 3
0CF8  0000F041           const [29]: (0)
0CFC  04                 const type 4
0CFD  14                 string size (20)
0CFE  67456E67696E654E+  "gEngineN"
0D06  70634167656E7454+  "pcAgentT"
0D0E  79706500           "ype\0"
                         const [30]: "gEngineNpcAgentType"
0D12  01                 const type 3
0D13  4038C3CF           const [31]: (-809289664)
                         * functions:
0D17  01                 sizep (1)
                         
0D18                     ** function [0] definition (level 3)
                         ** start of function **
0D18  00                 string size (0)
                         source name: (none)
0D19  77                 line defined (119)
0D1A  8E                 last line defined (142)
0D1B  01                 nups (4)
0D1C  04                 numparams (1)
0D1D  01                 is_vararg (0)
0D1E  00                 maxstacksize (8)
                         * code:
0D20  46                 sizecode (70)
0D21  5D000000           [01] getglobal  1   0        ; 1074689893
0D25  93000000           [02] getupval   2   0      
0D29  62800001           [03] call       1   2   2  
0D2D  58000000           [04] test       1       0    ; to [6] if true
0D31  1A000080           [05] jmp        1            ; to [7]
0D35  1E008000           [06] return     0   1      
0D39  18000000           [07] test       0       0    ; to [9] if true
0D3D  1A000280           [08] jmp        9            ; to [18]
0D41  53008000           [09] getupval   1   1      
0D45  4E40C000           [10] gettable   1   1   257  ; -2060281269
0D49  9D800000           [11] getglobal  2   2        ; -332969190
0D4D  D9C00000           [12] loadk      3   3        ; "AllyVictory"
0D51  A2800001           [13] call       2   2   2  
0D55  D7000000           [14] loadbool   3   0   0    ; false
0D59  17018000           [15] loadbool   4   1   0    ; true
0D5D  62400002           [16] call       1   4   1  
0D61  1AC00180           [17] jmp        8            ; to [26]
0D65  53008000           [18] getupval   1   1      
0D69  4E40C000           [19] gettable   1   1   257  ; -2060281269
0D6D  9D800000           [20] getglobal  2   2        ; -332969190
0D71  D9000100           [21] loadk      3   4        ; "AllyKilled"
0D75  A2800001           [22] call       2   2   2  
0D79  D7000000           [23] loadbool   3   0   0    ; false
0D7D  17018000           [24] loadbool   4   1   0    ; true
0D81  62400002           [25] call       1   4   1  
0D85  53000000           [26] getupval   1   0      
0D89  6440C100           [27] self       1   1   261  ; -1329333704
0D8D  D7000000           [28] loadbool   3   0   0    ; false
0D91  62408001           [29] call       1   3   1  
0D95  53000000           [30] getupval   1   0      
0D99  6480C100           [31] self       1   1   262  ; -1421644046
0D9D  D3000001           [32] getupval   3   2      
0DA1  1DC10100           [33] getglobal  4   7        ; EMPTY_SYMBOL
0DA5  62400002           [34] call       1   4   1  
0DA9  53000000           [35] getupval   1   0      
0DAD  6400C200           [36] self       1   1   264  ; 2056776437
0DB1  D3008001           [37] getupval   3   3      
0DB5  17010000           [38] loadbool   4   0   0    ; false
0DB9  5D410200           [39] getglobal  5   9        ; Engine
0DBD  4E81C202           [40] gettable   5   5   266  ; "ATMM_ANIMATION_DRIVEN"
0DC1  9D410200           [41] getglobal  6   9        ; Engine
0DC5  8EC14203           [42] gettable   6   6   267  ; "PRT_FREEZE"
0DC9  D7018000           [43] loadbool   7   1   0    ; true
0DCD  62408003           [44] call       1   7   1  
0DD1  5D000300           [45] getglobal  1   12       ; 538022378
0DD5  99400300           [46] loadk      2   13       ; 0
0DD9  62400001           [47] call       1   2   1  
0DDD  53000000           [48] getupval   1   0      
0DE1  6480C300           [49] self       1   1   270  ; -1107906782
0DE5  62800001           [50] call       1   2   2  
fail op	21
0DE9  1540C300           [51] concat     0   1   269
0DED  1A400380           [52] jmp        14           ; to [67]
0DF1  5D000300           [53] getglobal  1   12       ; 538022378
0DF5  99C00300           [54] loadk      2   15       ; 0
0DF9  62400001           [55] call       1   2   1  
0DFD  53000000           [56] getupval   1   0      
0E01  6400C400           [57] self       1   1   272  ; -703571861
0E05  D3000000           [58] getupval   3   0      
0E09  E480C301           [59] self       3   3   270  ; -1107906782
0E0D  E2800001           [60] call       3   2   2  
0E11  1D410400           [61] getglobal  4   17       ; 1661359502
0E15  22818000           [62] call       4   1   2  
0E19  04814402           [63] mul        4   4   274  ; 51
0E1D  C3008101           [64] add        3   3   4  
0E21  62408001           [65] call       1   3   1  
0E25  1A00FB7F           [66] jmp        -19          ; to [48]
0E29  53000000           [67] getupval   1   0      
0E2D  64C0C400           [68] self       1   1   275  ; -725453761
0E31  62400001           [69] call       1   2   1  
0E35  1E008000           [70] return     0   1      
                         * constants:
0E39  14                 sizek (20)
0E3A  01                 const type 3
0E3B  65770E40           const [0]: (1074689893)
0E3F  01                 const type 3
0E40  4B9A3285           const [1]: (-2060281269)
0E44  01                 const type 3
0E45  1A4B27EC           const [2]: (-332969190)
0E49  04                 const type 4
0E4A  0C                 string size (12)
0E4B  416C6C7956696374+  "AllyVict"
0E53  6F727900           "ory\0"
                         const [3]: "AllyVictory"
0E57  04                 const type 4
0E58  0B                 string size (11)
0E59  416C6C794B696C6C+  "AllyKill"
0E61  656400             "ed\0"
                         const [4]: "AllyKilled"
0E64  01                 const type 3
0E65  38FAC3B0           const [5]: (-1329333704)
0E69  01                 const type 3
0E6A  F26E43AB           const [6]: (-1421644046)
0E6E  04                 const type 4
0E6F  0D                 string size (13)
0E70  454D5054595F5359+  "EMPTY_SY"
0E78  4D424F4C00         "MBOL\0"
                         const [7]: "EMPTY_SYMBOL"
0E7D  01                 const type 3
0E7E  F5EA977A           const [8]: (2056776437)
0E82  04                 const type 4
0E83  07                 string size (7)
0E84  456E67696E6500     "Engine\0"
                         const [9]: "Engine"
0E8B  04                 const type 4
0E8C  16                 string size (22)
0E8D  41544D4D5F414E49+  "ATMM_ANI"
0E95  4D4154494F4E5F44+  "MATION_D"
0E9D  524956454E00       "RIVEN\0"
                         const [10]: "ATMM_ANIMATION_DRIVEN"
0EA3  04                 const type 4
0EA4  0B                 string size (11)
0EA5  5052545F46524545+  "PRT_FREE"
0EAD  5A4500             "ZE\0"
                         const [11]: "PRT_FREEZE"
0EB0  01                 const type 3
0EB1  EA911120           const [12]: (538022378)
0EB5  03                 const type 3
0EB6  0000803F           const [13]: (0)
0EBA  01                 const type 3
0EBB  22AFF6BD           const [14]: (-1107906782)
0EBF  03                 const type 3
0EC0  00000000           const [15]: (0)
0EC4  01                 const type 3
0EC5  6B5810D6           const [16]: (-703571861)
0EC9  01                 const type 3
0ECA  8E550663           const [17]: (1661359502)
0ECE  03                 const type 3
0ECF  3333333F           const [18]: (51)
0ED3  01                 const type 3
0ED4  3F74C2D4           const [19]: (-725453761)
                         * functions:
0ED8  00                 sizep (0)
                         * lines:
0ED9  46                 sizelineinfo (70)
                         [pc] (line)
0EDA  78                 [01] (120)
0EDB  00                 [02] (120)
0EDC  00                 [03] (120)
0EDD  00                 [04] (120)
0EDE  78                 [05] (120)
0EDF  00                 [06] (121)
0EE0  00                 [07] (124)
0EE1  00                 [08] (124)
0EE2  78                 [09] (125)
0EE3  00                 [10] (125)
0EE4  00                 [11] (125)
0EE5  00                 [12] (125)
0EE6  78                 [13] (125)
0EE7  00                 [14] (125)
0EE8  00                 [15] (125)
0EE9  00                 [16] (125)
0EEA  78                 [17] (125)
0EEB  00                 [18] (127)
0EEC  00                 [19] (127)
0EED  00                 [20] (127)
0EEE  79                 [21] (127)
0EEF  00                 [22] (127)
0EF0  00                 [23] (127)
0EF1  00                 [24] (127)
0EF2  7C                 [25] (127)
0EF3  00                 [26] (-125)
0EF4  00                 [27] (-125)
0EF5  00                 [28] (-125)
0EF6  7C                 [29] (-125)
0EF7  00                 [30] (-124)
0EF8  00                 [31] (-124)
0EF9  00                 [32] (-124)
0EFA  7D                 [33] (-124)
0EFB  00                 [34] (-124)
0EFC  00                 [35] (-123)
0EFD  00                 [36] (-123)
0EFE  7D                 [37] (-123)
0EFF  00                 [38] (-123)
0F00  00                 [39] (-123)
0F01  00                 [40] (-123)
0F02  7D                 [41] (-123)
0F03  00                 [42] (-123)
0F04  00                 [43] (-123)
0F05  00                 [44] (-123)
0F06  7D                 [45] (-121)
0F07  00                 [46] (-121)
0F08  00                 [47] (-121)
0F09  00                 [48] (-120)
0F0A  7D                 [49] (-120)
0F0B  00                 [50] (-120)
0F0C  00                 [51] (-120)
0F0D  00                 [52] (-120)
0F0E  7D                 [53] (-119)
0F0F  00                 [54] (-119)
0F10  00                 [55] (-119)
0F11  00                 [56] (-118)
0F12  7D                 [57] (-118)
0F13  00                 [58] (-118)
0F14  00                 [59] (-118)
0F15  00                 [60] (-118)
0F16  7D                 [61] (-118)
0F17  00                 [62] (-118)
0F18  00                 [63] (-118)
0F19  00                 [64] (-118)
0F1A  7D                 [65] (-118)
0F1B  00                 [66] (-118)
0F1C  00                 [67] (-115)
0F1D  00                 [68] (-115)
0F1E  7F                 [69] (-115)
0F1F  00                 [70] (-114)
                         * locals:
0FF2  00                 sizelocvars (0)
                         * upvalues:
0FF3  00                 sizeupvalues (0)
                         ** end of function **

                         * lines:
0FF4  68                 sizelineinfo (104)
                         [pc] (line)
0FF5  69                 [001] (105)
0FF6  00                 [002] (105)
0FF7  00                 [003] (105)
0FF8  00                 [004] (105)
0FF9  69                 [005] (105)
0FFA  00                 [006] (106)
0FFB  00                 [007] (110)
0FFC  00                 [008] (110)
0FFD  69                 [009] (110)
0FFE  00                 [010] (111)
0FFF  00                 [011] (111)
1000  00                 [012] (111)
1001  69                 [013] (111)
1002  00                 [014] (112)
1003  00                 [015] (112)
1004  00                 [016] (112)
1005  69                 [017] (112)
1006  00                 [018] (112)
1007  00                 [019] (112)
1008  00                 [020] (112)
1009  6A                 [021] (112)
100A  00                 [022] (112)
100B  00                 [023] (113)
100C  00                 [024] (113)
100D  6E                 [025] (113)
100E  00                 [026] (113)
100F  00                 [027] (114)
1010  00                 [028] (114)
1011  6E                 [029] (114)
1012  00                 [030] (115)
1013  00                 [031] (115)
1014  00                 [032] (115)
1015  6E                 [033] (115)
1016  00                 [034] (115)
1017  00                 [035] (115)
1018  00                 [036] (115)
1019  6F                 [037] (115)
101A  00                 [038] (115)
101B  00                 [039] (119)
101C  00                 [040] (-114)
101D  6F                 [041] (-114)
101E  00                 [042] (-114)
101F  00                 [043] (-114)
1020  00                 [044] (-114)
1021  6F                 [045] (-114)
1022  00                 [046] (-111)
1023  00                 [047] (-111)
1024  00                 [048] (-111)
1025  6F                 [049] (-111)
1026  00                 [050] (-111)
1027  00                 [051] (-111)
1028  00                 [052] (-111)
1029  70                 [053] (-111)
102A  00                 [054] (-108)
102B  00                 [055] (-106)
102C  00                 [056] (-106)
102D  70                 [057] (-106)
102E  00                 [058] (-104)
102F  00                 [059] (-104)
1030  00                 [060] (-104)
1031  70                 [061] (-104)
1032  00                 [062] (-104)
1033  00                 [063] (-104)
1034  00                 [064] (-104)
1035  70                 [065] (-104)
1036  00                 [066] (-104)
1037  00                 [067] (-104)
1038  00                 [068] (-104)
1039  70                 [069] (-104)
103A  00                 [070] (-104)
103B  00                 [071] (-103)
103C  00                 [072] (-103)
103D  70                 [073] (-101)
103E  00                 [074] (-101)
103F  00                 [075] (-101)
1040  00                 [076] (-100)
1041  70                 [077] (-100)
1042  00                 [078] (-99)
1043  00                 [079] (-99)
1044  00                 [080] (-99)
1045  70                 [081] (-99)
1046  00                 [082] (-99)
1047  00                 [083] (-98)
1048  00                 [084] (-98)
1049  70                 [085] (-98)
104A  00                 [086] (-98)
104B  00                 [087] (-98)
104C  00                 [088] (-98)
104D  71                 [089] (-98)
104E  00                 [090] (-98)
104F  00                 [091] (-98)
1050  00                 [092] (-98)
1051  71                 [093] (-98)
1052  00                 [094] (-98)
1053  00                 [095] (-98)
1054  00                 [096] (-97)
1055  71                 [097] (-97)
1056  00                 [098] (-96)
1057  00                 [099] (-96)
1058  00                 [100] (-96)
1059  71                 [101] (-96)
105A  00                 [102] (-95)
105B  00                 [103] (-92)
105C  00                 [104] (-90)
                         * locals:
1195  00                 sizelocvars (0)
                         * upvalues:
1196  00                 sizeupvalues (0)
                         ** end of function **

                         
1197                     ** function [4] definition (level 2)
                         ** start of function **
1197  00                 string size (0)
                         source name: (none)
1199  01                 line defined (168)
119A  AC                 last line defined (172)
119B  01                 nups (0)
119C  00                 numparams (2)
119D  02                 is_vararg (0)
119E  00                 maxstacksize (4)
                         * code:
11A0  06                 sizecode (6)
11A1  18400000           [1] test       0       1    ; to [3] if false
11A5  1A800080           [2] jmp        3            ; to [6]
11A9  9D000000           [3] getglobal  2   0        ; -1817107093
11AD  D9400000           [4] loadk      3   1        ; "failed to update ally spawn time"
11B1  A2400001           [5] call       2   2   1  
11B5  1E008000           [6] return     0   1      
                         * constants:
11B9  02                 sizek (2)
11BA  01                 const type 3
11BB  6B25B193           const [0]: (-1817107093)
11BF  04                 const type 4
11C0  21                 string size (33)
11C1  6661696C65642074+  "failed t"
11C9  6F20757064617465+  "o update"
11D1  20616C6C79207370+  " ally sp"
11D9  61776E2074696D65+  "awn time"
11E1  00                 "\0"
                         const [1]: "failed to update ally spawn time"
                         * functions:
11E2  00                 sizep (0)
                         * lines:
11E3  06                 sizelineinfo (6)
                         [pc] (line)
11E4  A9                 [1] (-87)
11E5  00                 [2] (-87)
11E6  00                 [3] (-86)
11E7  00                 [4] (-86)
11E8  A9                 [5] (-86)
11E9  00                 [6] (-84)
                         * locals:
11FC  00                 sizelocvars (0)
                         * upvalues:
11FD  00                 sizeupvalues (0)
                         ** end of function **

                         
11FE                     ** function [5] definition (level 2)
                         ** start of function **
11FE  00                 string size (0)
                         source name: (none)
1200  01                 line defined (174)
1201  D9                 last line defined (601)
1202  04                 nups (8)
1203  08                 numparams (1)
1204  01                 is_vararg (0)
1205  00                 maxstacksize (97)
                         * code:
1208  08                 sizecode (1030)
1209  5D000000           [0001] getglobal  1   0        ; -1817107093
120D  99400000           [0002] loadk      2   1        ; "setting up nemesis"
1211  62400001           [0003] call       1   2   1  
1215  64804000           [0004] self       1   0   258  ; 2109594123
1219  D7000000           [0005] loadbool   3   0   0    ; false
121D  62408001           [0006] call       1   3   1  
1221  5DC00000           [0007] getglobal  1   3        ; 538022378
1225  99000100           [0008] loadk      2   4        ; 0
1229  62400001           [0009] call       1   2   1  
122D  5D400100           [0010] getglobal  1   5        ; 1074689893
1231  92000000           [0011] move       2   0      
1235  62800001           [0012] call       1   2   2  
1239  58000000           [0013] test       1       0    ; to [15] if true
123D  1A000080           [0014] jmp        1            ; to [16]
1241  1E008000           [0015] return     0   1      
1245  64804100           [0016] self       1   0   262  ; -578871469
1249  62800001           [0017] call       1   2   2  
124D  93000000           [0018] getupval   2   0      
1251  8EC04101           [0019] gettable   2   2   263  ; -2016270516
1255  A2808000           [0020] call       2   1   2  
fail op	5
1259  C5000001           [0021] getglobal  3   1024     ; nil
125D  1A000280           [0022] jmp        9            ; to [32]
1261  E4004200           [0023] self       3   0   264  ; -2031737093
1265  E2800001           [0024] call       3   2   2  
1269  1D410200           [0025] getglobal  4   9        ; -332969190
126D  59810200           [0026] loadk      5   10       ; "TENNO"
1271  22810001           [0027] call       4   2   2  
fail op	35
1275  63008101           [0028] close      1  
1279  1A000080           [0029] jmp        1            ; to [31]
127D  D7400000           [0030] loadbool   3   0   1    ; false, to [32]
1281  D7008000           [0031] loadbool   3   1   0    ; true
1285  06010003           [0032] loadnil    4   6      
1289  D9C10200           [0033] loadk      7   11       ; 0
128D  06020004           [0034] loadnil    8   8      
1291  5D020300           [0035] getglobal  9   12       ; isTransmissionPortrait
1295  58020000           [0036] test       9       0    ; to [38] if true
1299  1A401480           [0037] jmp        82           ; to [120]
129D  5D020000           [0038] getglobal  9   0        ; -1817107093
12A1  99420300           [0039] loadk      10  13       ; "portrait"
12A5  62420001           [0040] call       9   2   1  
12A9  46028004           [0041] loadnil    9   9      
12AD  9D420100           [0042] getglobal  10  5        ; 1074689893
12B1  DD820300           [0043] getglobal  11  14       ; _T
12B5  CEC2C305           [0044] gettable   11  11  271  ; "curTransmission"
12B9  A2820001           [0045] call       10  2   2  
12BD  98420000           [0046] test       10      1    ; to [48] if false
12C1  1A400580           [0047] jmp        22           ; to [70]
12C5  9D820300           [0048] getglobal  10  14       ; _T
12C9  8EC24305           [0049] gettable   10  10  271  ; "curTransmission"
12CD  A4024405           [0050] self       10  10  272  ; -830264577
12D1  A2820001           [0051] call       10  2   2  
12D5  DD420200           [0052] getglobal  11  9        ; -332969190
12D9  19430400           [0053] loadk      12  17       ; "NemesisAlly"
12DD  E2820001           [0054] call       11  2   2  
fail op	35
12E1  23C00205           [0055] close      0  
12E5  1A000380           [0056] jmp        13           ; to [70]
12E9  9D820400           [0057] getglobal  10  18       ; gGameRules
12ED  A4C24405           [0058] self       10  10  275  ; 659469169
12F1  A2820001           [0059] call       10  2   2  
12F5  52020005           [0060] move       9   10     
12F9  9D420100           [0061] getglobal  10  5        ; 1074689893
12FD  D2028004           [0062] move       11  9      
1301  A2820001           [0063] call       10  2   2  
1305  98020000           [0064] test       10      0    ; to [66] if true
1309  1A400080           [0065] jmp        2            ; to [68]
130D  46028004           [0066] loadnil    9   9      
1311  1A800880           [0067] jmp        35           ; to [103]
1315  4E02C504           [0068] gettable   9   9   276  ; "mTarget"
1319  1A000880           [0069] jmp        33           ; to [103]
131D  9D820300           [0070] getglobal  10  14       ; _T
1321  8E424505           [0071] gettable   10  10  277  ; "NemesisTransmissionPortraitUseLocal"
1325  98420000           [0072] test       10      1    ; to [74] if false
1329  1A400080           [0073] jmp        2            ; to [76]
132D  98400000           [0074] test       2       1    ; to [76] if false
1331  1A000180           [0075] jmp        5            ; to [81]
1335  9D820500           [0076] getglobal  10  22       ; gGameData
1339  A4C24505           [0077] self       10  10  279  ; 389385621
133D  A2820001           [0078] call       10  2   2  
1341  52020005           [0079] move       9   10     
1345  1A400580           [0080] jmp        22           ; to [103]
1349  9D820300           [0081] getglobal  10  14       ; _T
134D  8E024605           [0082] gettable   10  10  280  ; "LastNemesisHack"
1351  98020000           [0083] test       10      0    ; to [85] if true
1355  1A400380           [0084] jmp        14           ; to [99]
1359  9D420100           [0085] getglobal  10  5        ; 1074689893
135D  DD820300           [0086] getglobal  11  14       ; _T
1361  CE02C605           [0087] gettable   11  11  280  ; "LastNemesisHack"
1365  CE42C605           [0088] gettable   11  11  281  ; "avatar"
1369  A2820001           [0089] call       10  2   2  
136D  98020000           [0090] test       10      0    ; to [92] if true
1371  1A800180           [0091] jmp        7            ; to [99]
1375  9D820300           [0092] getglobal  10  14       ; _T
1379  8E024605           [0093] gettable   10  10  280  ; "LastNemesisHack"
137D  4E814605           [0094] gettable   5   10  282  ; "generatedProfile"
1381  9D820300           [0095] getglobal  10  14       ; _T
1385  8E024605           [0096] gettable   10  10  280  ; "LastNemesisHack"
1389  CEC14605           [0097] gettable   7   10  283  ; "rank"
138D  1AC00080           [0098] jmp        4            ; to [103]
1391  9D820400           [0099] getglobal  10  18       ; gGameRules
1395  A4024705           [0100] self       10  10  284  ; 1154264260
1399  A2820001           [0101] call       10  2   2  
139D  52020005           [0102] move       9   10     
13A1  9D420100           [0103] getglobal  10  5        ; 1074689893
13A5  D2028002           [0104] move       11  5      
13A9  A2820001           [0105] call       10  2   2  
13AD  98020000           [0106] test       10      0    ; to [108] if true
13B1  1A401F80           [0107] jmp        126          ; to [234]
13B5  9D420100           [0108] getglobal  10  5        ; 1074689893
13B9  D2028004           [0109] move       11  9      
13BD  A2820001           [0110] call       10  2   2  
13C1  98420000           [0111] test       10      1    ; to [113] if false
13C5  1A001E80           [0112] jmp        121          ; to [234]
13C9  93028000           [0113] getupval   10  1      
13CD  8E424705           [0114] gettable   10  10  285  ; -2079289879
13D1  D2028004           [0115] move       11  9      
13D5  A2820001           [0116] call       10  2   2  
13D9  52010005           [0117] move       5   10     
13DD  CE81C704           [0118] gettable   7   9   286  ; "mRank"
13E1  1A401C80           [0119] jmp        114          ; to [234]
13E5  9D420100           [0120] getglobal  10  5        ; 1074689893
13E9  DDC20700           [0121] getglobal  11  31       ; gBackgroundRegion
13ED  A2820001           [0122] call       10  2   2  
13F1  98420000           [0123] test       10      1    ; to [125] if false
13F5  1A000980           [0124] jmp        37           ; to [162]
13F9  9DC20700           [0125] getglobal  10  31       ; gBackgroundRegion
fail op	35
13FD  23808200           [0126] close      0  
1401  1A400880           [0127] jmp        34           ; to [162]
1405  9D020000           [0128] getglobal  10  0        ; -1817107093
1409  D9020800           [0129] loadk      11  32       ; "looking for nemesis from screen"
140D  A2420001           [0130] call       10  2   1  
1411  9D820300           [0131] getglobal  10  14       ; _T
1415  8E424805           [0132] gettable   10  10  289  ; "gNemesis"
1419  98020000           [0133] test       10      0    ; to [135] if true
141D  1A400580           [0134] jmp        22           ; to [157]
1421  9D420100           [0135] getglobal  10  5        ; 1074689893
1425  DD820300           [0136] getglobal  11  14       ; _T
1429  CE42C805           [0137] gettable   11  11  289  ; "gNemesis"
142D  CE82C605           [0138] gettable   11  11  282  ; "generatedProfile"
1431  A2820001           [0139] call       10  2   2  
1435  98420000           [0140] test       10      1    ; to [142] if false
1439  1A800380           [0141] jmp        15           ; to [157]
143D  9D020000           [0142] getglobal  10  0        ; -1817107093
1441  D9820800           [0143] loadk      11  34       ; "set in _T"
1445  A2420001           [0144] call       10  2   1  
1449  9D820300           [0145] getglobal  10  14       ; _T
144D  8E424805           [0146] gettable   10  10  289  ; "gNemesis"
1451  4E814605           [0147] gettable   5   10  282  ; "generatedProfile"
1455  9D820300           [0148] getglobal  10  14       ; _T
1459  8E424805           [0149] gettable   10  10  289  ; "gNemesis"
145D  8EC14805           [0150] gettable   6   10  291  ; "properties"
1461  A4024900           [0151] self       10  0   292  ; 1888920740
1465  1D430200           [0152] getglobal  12  9        ; -332969190
1469  4E434903           [0153] gettable   13  6   293  ; "name"
146D  22030001           [0154] call       12  2   0  
1471  A2420000           [0155] call       10  0   1  
1475  CEC14603           [0156] gettable   7   6   283  ; "rank"
1479  9D820900           [0157] getglobal  10  38       ; gRegion
147D  A4C24905           [0158] self       10  10  295  ; 925677844
1481  A2820001           [0159] call       10  2   2  
1485  12020005           [0160] move       8   10     
1489  1AC01180           [0161] jmp        72           ; to [234]
148D  98000000           [0162] test       2       0    ; to [164] if true
1491  1A401180           [0163] jmp        70           ; to [234]
1495  86020005           [0164] loadnil    10  10     
1499  D8000000           [0165] test       3       0    ; to [167] if true
149D  1A800580           [0166] jmp        23           ; to [190]
14A1  DD020000           [0167] getglobal  11  0        ; -1817107093
14A5  19030A00           [0168] loadk      12  40       ; "ally encounter"
14A9  E2420001           [0169] call       11  2   1  
14AD  DD820400           [0170] getglobal  11  18       ; gGameRules
14B1  E4C2C405           [0171] self       11  11  275  ; 659469169
14B5  E2820001           [0172] call       11  2   2  
14B9  92028005           [0173] move       10  11     
14BD  CE424A05           [0174] gettable   11  10  297  ; "mPlayer"
14C1  1D830900           [0175] getglobal  12  38       ; gRegion
14C5  24C34906           [0176] self       12  12  295  ; 925677844
14C9  22830001           [0177] call       12  2   2  
fail op	35
14CD  23008305           [0178] close      0  
14D1  1A000480           [0179] jmp        17           ; to [197]
14D5  DD420100           [0180] getglobal  11  5        ; 1074689893
14D9  1D830500           [0181] getglobal  12  22       ; gGameData
14DD  E2820001           [0182] call       11  2   2  
14E1  D8420000           [0183] test       11      1    ; to [185] if false
14E5  1AC00280           [0184] jmp        12           ; to [197]
14E9  DD820500           [0185] getglobal  11  22       ; gGameData
14ED  E482CA05           [0186] self       11  11  298  ; 209138197
14F1  59C30A00           [0187] loadk      13  43       ; "OnUpdateAllySpawnTime"
14F5  E2428001           [0188] call       11  3   1  
14F9  1A800180           [0189] jmp        7            ; to [197]
14FD  DD020000           [0190] getglobal  11  0        ; -1817107093
1501  19030B00           [0191] loadk      12  44       ; "enemy encounter"
1505  E2420001           [0192] call       11  2   1  
1509  DD820400           [0193] getglobal  11  18       ; gGameRules
150D  E442CB05           [0194] self       11  11  301  ; -2136864363
1511  E2820001           [0195] call       11  2   2  
1515  92028005           [0196] move       10  11     
1519  CE024505           [0197] gettable   11  10  276  ; "mTarget"
151D  2483CB05           [0198] self       12  11  302  ; 188678183
1521  22830001           [0199] call       12  2   2  
1525  18030000           [0200] test       12      0    ; to [202] if true
1529  1A000180           [0201] jmp        5            ; to [207]
152D  1D430100           [0202] getglobal  12  5        ; 1074689893
1531  4EC3CB05           [0203] gettable   13  11  303  ; "mManifest"
1535  22830001           [0204] call       12  2   2  
1539  18030000           [0205] test       12      0    ; to [207] if true
153D  1AC00380           [0206] jmp        16           ; to [223]
1541  1DC30000           [0207] getglobal  12  3        ; 538022378
1545  59030100           [0208] loadk      13  4        ; 0
1549  22430001           [0209] call       12  2   1  
154D  D8000000           [0210] test       3       0    ; to [212] if true
1551  1A000180           [0211] jmp        5            ; to [217]
1555  1D830400           [0212] getglobal  12  18       ; gGameRules
1559  24C34406           [0213] self       12  12  275  ; 659469169
155D  22830001           [0214] call       12  2   2  
1561  92020006           [0215] move       10  12     
1565  1AC00080           [0216] jmp        4            ; to [221]
1569  1D830400           [0217] getglobal  12  18       ; gGameRules
156D  24434B06           [0218] self       12  12  301  ; -2136864363
1571  22830001           [0219] call       12  2   2  
1575  92020006           [0220] move       10  12     
1579  CE024505           [0221] gettable   11  10  276  ; "mTarget"
157D  1A80F97F           [0222] jmp        -25          ; to [198]
1581  1D030000           [0223] getglobal  12  0        ; -1817107093
1585  59030C00           [0224] loadk      13  48       ; "generating profile from current encounter"
1589  22430001           [0225] call       12  2   1  
158D  CE81C705           [0226] gettable   7   11  286  ; "mRank"
1591  13038000           [0227] getupval   12  1      
1595  0E434706           [0228] gettable   12  12  285  ; -2079289879
1599  52038005           [0229] move       13  11     
159D  22830001           [0230] call       12  2   2  
15A1  52010006           [0231] move       5   12     
15A5  0E424A05           [0232] gettable   8   10  297  ; "mPlayer"
15A9  0EC1CB05           [0233] gettable   4   11  303  ; "mManifest"
15AD  58410000           [0234] test       5       1    ; to [236] if false
15B1  1AC00080           [0235] jmp        4            ; to [240]
15B5  1D030000           [0236] getglobal  12  0        ; -1817107093
15B9  59430C00           [0237] loadk      13  49       ; "nemesis has no generated profile!"
15BD  22430001           [0238] call       12  2   1  
15C1  1E008000           [0239] return     0   1      
15C5  06030006           [0240] loadnil    12  12     
15C9  5D030300           [0241] getglobal  13  12       ; isTransmissionPortrait
15CD  58030000           [0242] test       13      0    ; to [244] if true
15D1  1A000580           [0243] jmp        21           ; to [265]
15D5  5D430100           [0244] getglobal  13  5        ; 1074689893
15D9  9D830300           [0245] getglobal  14  14       ; _T
15DD  8E834C07           [0246] gettable   14  14  306  ; "NemesisResLoader"
15E1  62830001           [0247] call       13  2   2  
15E5  58430000           [0248] test       13      1    ; to [250] if false
15E9  1A400280           [0249] jmp        10           ; to [260]
15ED  5D830300           [0250] getglobal  13  14       ; _T
15F1  4E83CC06           [0251] gettable   13  13  306  ; "NemesisResLoader"
15F5  64C3CC06           [0252] self       13  13  307  ; -1344420604
15F9  62830001           [0253] call       13  2   2  
15FD  58430000           [0254] test       13      1    ; to [256] if false
1601  1AC00080           [0255] jmp        4            ; to [260]
1605  5DC30000           [0256] getglobal  13  3        ; 538022378
1609  99030100           [0257] loadk      14  4        ; 0
160D  62430001           [0258] call       13  2   1  
1611  1AC0FB7F           [0259] jmp        -16          ; to [244]
1615  5D830300           [0260] getglobal  13  14       ; _T
1619  0E83CC06           [0261] gettable   12  13  306  ; "NemesisResLoader"
161D  5D830300           [0262] getglobal  13  14       ; _T
1621  4C034D99           [0263] settable   13  306 308  ; "NemesisResLoader" nil
1625  1AC00380           [0264] jmp        16           ; to [281]
1629  53038000           [0265] getupval   13  1      
162D  4E43CD06           [0266] gettable   13  13  309  ; -1186560387
1631  92038002           [0267] move       14  5      
1635  62830001           [0268] call       13  2   2  
1639  9D830D00           [0269] getglobal  14  54       ; UISys
163D  8EC34D07           [0270] gettable   14  14  311  ; 1151030240
1641  D2038006           [0271] move       15  13     
1645  A2830001           [0272] call       14  2   2  
1649  E4C34C07           [0273] self       15  14  307  ; -1344420604
164D  E2830001           [0274] call       15  2   2  
1651  D8430000           [0275] test       15      1    ; to [277] if false
1655  1AC00080           [0276] jmp        4            ; to [281]
1659  DDC30000           [0277] getglobal  15  3        ; 538022378
165D  19040100           [0278] loadk      16  4        ; 0
1661  E2430001           [0279] call       15  2   1  
1665  1AC0FD7F           [0280] jmp        -8           ; to [273]
1669  E4034E00           [0281] self       15  0   312  ; -1917464545
166D  E2830001           [0282] call       15  2   2  
1671  24444E00           [0283] self       16  0   313  ; -1544157541
1675  22840001           [0284] call       16  2   2  
1679  64844E00           [0285] self       17  0   314  ; -786839083
167D  CEC4CE02           [0286] gettable   19  5   315  ; "mName"
1681  62448001           [0287] call       17  3   1  
1685  5D040300           [0288] getglobal  17  12       ; isTransmissionPortrait
1689  58440000           [0289] test       17      1    ; to [291] if false
168D  1AC00E80           [0290] jmp        60           ; to [351]
1691  64844100           [0291] self       17  0   262  ; -578871469
1695  62840001           [0292] call       17  2   2  
1699  9DC40700           [0293] getglobal  18  31       ; gBackgroundRegion
fail op	35
169D  63808408           [0294] close      1  
16A1  1A800D80           [0295] jmp        55           ; to [351]
16A5  D8000000           [0296] test       3       0    ; to [298] if true
16A9  1A800180           [0297] jmp        7            ; to [305]
16AD  64044F00           [0298] self       17  0   316  ; -1421644046
16B1  D3040001           [0299] getupval   19  2      
16B5  1D450200           [0300] getglobal  20  9        ; -332969190
16B9  59450F00           [0301] loadk      21  61       ; "GAME_C1_SPINE3"
16BD  22050001           [0302] call       20  2   0  
16C1  62440000           [0303] call       17  0   1  
16C5  1A400180           [0304] jmp        6            ; to [311]
16C9  64044F00           [0305] self       17  0   316  ; -1421644046
16CD  D3048001           [0306] getupval   19  3      
16D1  1D450200           [0307] getglobal  20  9        ; -332969190
16D5  59450F00           [0308] loadk      21  61       ; "GAME_C1_SPINE3"
16D9  22050001           [0309] call       20  2   0  
16DD  62440000           [0310] call       17  0   1  
16E1  6484CF00           [0311] self       17  1   318  ; -1520831144
16E5  62840001           [0312] call       17  2   2  
16E9  58040000           [0313] test       17      0    ; to [315] if true
16ED  1A800080           [0314] jmp        3            ; to [318]
16F1  64C44F00           [0315] self       17  0   319  ; -378851698
16F5  CE04D002           [0316] gettable   19  5   320  ; "mLevel"
16F9  62448001           [0317] call       17  3   1  
16FD  D8000000           [0318] test       3       0    ; to [320] if true
1701  1AC00080           [0319] jmp        4            ; to [324]
1705  64445008           [0320] self       17  16  321  ; -1287818803
1709  D9841000           [0321] loadk      19  66       ; -51
170D  62448001           [0322] call       17  3   1  
1711  1A800680           [0323] jmp        27           ; to [351]
1715  64C45008           [0324] self       17  16  323  ; 453126795
1719  62440001           [0325] call       17  2   1  
171D  5D440100           [0326] getglobal  17  5        ; 1074689893
1721  92040004           [0327] move       18  8      
1725  62840001           [0328] call       17  2   2  
1729  58440000           [0329] test       17      1    ; to [331] if false
172D  1A800380           [0330] jmp        15           ; to [346]
1731  64045108           [0331] self       17  16  324  ; -540152408
1735  D2040004           [0332] move       19  8      
1739  62448001           [0333] call       17  3   1  
173D  64445104           [0334] self       17  8   325  ; -2135866365
1741  62840001           [0335] call       17  2   2  
1745  9D440100           [0336] getglobal  18  5        ; 1074689893
1749  D2048008           [0337] move       19  17     
174D  A2840001           [0338] call       18  2   2  
1751  98440000           [0339] test       18      1    ; to [341] if false
1755  1A000180           [0340] jmp        5            ; to [346]
1759  A484D108           [0341] self       18  17  326  ; 1032339126
175D  1D450200           [0342] getglobal  20  9        ; -332969190
1761  59C51100           [0343] loadk      21  71       ; "Tenno"
1765  22050001           [0344] call       20  2   0  
1769  A2440000           [0345] call       18  0   1  
176D  9D840300           [0346] getglobal  18  14       ; _T
1771  8E045209           [0347] gettable   18  18  328  ; 883332573
1775  D2040000           [0348] move       19  0      
1779  03C5C203           [0349] add        20  7   267  ; 0
177D  A2448001           [0350] call       18  3   1  
1781  86040009           [0351] loadnil    18  18     
1785  DD440100           [0352] getglobal  19  5        ; 1074689893
1789  0E45D202           [0353] gettable   20  5   329  ; "mHead"
178D  E2840001           [0354] call       19  2   2  
1791  D8440000           [0355] test       19      1    ; to [357] if false
1795  1A400680           [0356] jmp        26           ; to [383]
1799  DD841200           [0357] getglobal  19  74       ; 2083004503
179D  0E45D202           [0358] gettable   20  5   329  ; "mHead"
17A1  E2840001           [0359] call       19  2   2  
17A5  24C55200           [0360] self       20  0   331  ; 919598577
17A9  A405D309           [0361] self       22  19  332  ; -1298130151
17AD  A2850001           [0362] call       22  2   2  
17B1  D7058000           [0363] loadbool   23  1   0    ; true
17B5  17068000           [0364] loadbool   24  1   0    ; true
17B9  22458002           [0365] call       20  5   1  
17BD  19050100           [0366] loadk      20  4        ; 0
17C1  6445D309           [0367] self       21  19  333  ; -1446451954
17C5  62850001           [0368] call       21  2   2  
17C9  4DC5C20A           [0369] sub        21  21  267  ; 0
17CD  99C50200           [0370] loadk      22  11       ; 0
17D1  10850180           [0371] forprep    20  7        ; to [379]
17D5  24865300           [0372] self       24  0   334  ; 1728877662
17D9  9206800B           [0373] move       26  23     
17DD  E4C6D309           [0374] self       27  19  335  ; -748264490
17E1  5207800B           [0375] move       29  23     
17E5  E2868001           [0376] call       27  3   2  
17E9  17070000           [0377] loadbool   28  0   0    ; false
17ED  22468002           [0378] call       24  5   1  
17F1  14C5FD7F           [0379] forloop    20  -8       ; to [372] if loop
17F5  24065400           [0380] self       24  0   336  ; 848075659
17F9  92068009           [0381] move       26  19     
17FD  22468001           [0382] call       24  3   1  
1801  2486CF00           [0383] self       24  1   318  ; -1520831144
1805  22860001           [0384] call       24  2   2  
1809  18460000           [0385] test       24      1    ; to [387] if false
180D  1A800080           [0386] jmp        3            ; to [390]
1811  1D060300           [0387] getglobal  24  12       ; isTransmissionPortrait
1815  18060000           [0388] test       24      0    ; to [390] if true
1819  1A004880           [0389] jmp        289          ; to [679]
181D  0E46D402           [0390] gettable   24  5   337  ; "mPowerSuit"
1821  6486D400           [0391] self       25  1   338  ; -1151016513
1825  DDC61400           [0392] getglobal  27  83       ; -895206725
1829  1207000C           [0393] move       28  24     
182D  E2860001           [0394] call       27  2   2  
1831  12070000           [0395] move       28  0      
1835  62860002           [0396] call       25  4   2  
1839  9204800C           [0397] move       18  25     
183D  5D460100           [0398] getglobal  25  5        ; 1074689893
1841  92060009           [0399] move       26  18     
1845  62860001           [0400] call       25  2   2  
1849  58460000           [0401] test       25      1    ; to [403] if false
184D  1A800180           [0402] jmp        7            ; to [410]
1851  64065509           [0403] self       25  18  340  ; -1308765353
1855  CE46D502           [0404] gettable   27  5   341  ; "mScaledMovementSpeed"
1859  62468001           [0405] call       25  3   1  
185D  6486D507           [0406] self       25  15  342  ; 1479835399
1861  D2060009           [0407] move       27  18     
1865  17078000           [0408] loadbool   28  1   0    ; true
1869  62460002           [0409] call       25  4   1  
186D  64C6D507           [0410] self       25  15  343  ; 1769516121
1871  62860001           [0411] call       25  2   2  
1875  9204800C           [0412] move       18  25     
1879  5D460100           [0413] getglobal  25  5        ; 1074689893
187D  92060009           [0414] move       26  18     
1881  62860001           [0415] call       25  2   2  
1885  58460000           [0416] test       25      1    ; to [418] if false
1889  1AC00480           [0417] jmp        20           ; to [438]
188D  5D460100           [0418] getglobal  25  5        ; 1074689893
1891  8E06D602           [0419] gettable   26  5   344  ; "mExtraAbility"
1895  62860001           [0420] call       25  2   2  
1899  58460000           [0421] test       25      1    ; to [423] if false
189D  1A400180           [0422] jmp        6            ; to [429]
18A1  5DC61400           [0423] getglobal  25  83       ; -895206725
18A5  8E06D602           [0424] gettable   26  5   344  ; "mExtraAbility"
18A9  62860001           [0425] call       25  2   2  
18AD  A4465609           [0426] self       26  18  345  ; -380227431
18B1  1207800C           [0427] move       28  25     
18B5  A2468001           [0428] call       26  3   1  
18B9  A4465609           [0429] self       26  18  345  ; -380227431
18BD  1D871600           [0430] getglobal  28  90       ; enthrallAbilityType
18C1  A2468001           [0431] call       26  3   1  
18C5  A4C65609           [0432] self       26  18  347  ; 868102503
18C9  19C70200           [0433] loadk      28  11       ; 0
18CD  64075709           [0434] self       29  18  348  ; 1789415806
18D1  DD871600           [0435] getglobal  31  90       ; enthrallAbilityType
18D5  62078001           [0436] call       29  3   0  
18D9  A2460000           [0437] call       26  0   1  
18DD  9D460100           [0438] getglobal  26  5        ; 1074689893
18E1  D2060009           [0439] move       27  18     
18E5  A2860001           [0440] call       26  2   2  
18E9  98460000           [0441] test       26      1    ; to [443] if false
18ED  1A800480           [0442] jmp        19           ; to [462]
18F1  8E46D702           [0443] gettable   26  5   349  ; "mArmor"
18F5  8A06000D           [0444] len        26  26     
fail op	21
18F9  15800682           [0445] concat     0   260 26 
18FD  1A800380           [0446] jmp        15           ; to [462]
1901  9D861700           [0447] getglobal  26  94       ; 1672515847
1905  CE46D702           [0448] gettable   27  5   349  ; "mArmor"
1909  A2060101           [0449] call       26  2   4  
190D  1A000280           [0450] jmp        9            ; to [460]
1911  E487D400           [0451] self       31  1   338  ; -1151016513
1915  5DC81400           [0452] getglobal  33  83       ; -895206725
1919  9208000F           [0453] move       34  30     
191D  62880001           [0454] call       33  2   2  
1921  92080009           [0455] move       34  18     
1925  E2870002           [0456] call       31  4   2  
1929  24C85709           [0457] self       32  18  351  ; 991629753
192D  9208800F           [0458] move       34  31     
1931  22488001           [0459] call       32  3   1  
1935  96860000           [0460] tforloop   26      2    ; to [462] if exit
1939  1A00FD7F           [0461] jmp        -11          ; to [451]
193D  1D480100           [0462] getglobal  32  5        ; 1074689893
1941  52080009           [0463] move       33  18     
1945  22880001           [0464] call       32  2   2  
1949  18480000           [0465] test       32      1    ; to [467] if false
194D  1AC00380           [0466] jmp        16           ; to [483]
1951  0E08D802           [0467] gettable   32  5   352  ; "mTraits"
1955  59C80200           [0468] loadk      33  11       ; 0
1959  8A080010           [0469] len        34  32     
195D  D9C80200           [0470] loadk      35  11       ; 0
1961  50480280           [0471] forprep    33  10       ; to [482]
1965  4E090910           [0472] gettable   37  32  36 
1969  A489D400           [0473] self       38  1   338  ; -1151016513
196D  1DCA1400           [0474] getglobal  40  83       ; -895206725
1971  4E0A0910           [0475] gettable   41  32  36 
1975  228A0001           [0476] call       40  2   2  
1979  520A0009           [0477] move       41  18     
197D  A2890002           [0478] call       38  4   2  
1981  E4C95709           [0479] self       39  18  351  ; 991629753
1985  520A0013           [0480] move       41  38     
1989  E2498001           [0481] call       39  3   1  
198D  5408FD7F           [0482] forloop    33  -11      ; to [472] if loop
1991  E4895500           [0483] self       39  0   342  ; 1479835399
1995  5DCA1400           [0484] getglobal  41  83       ; -895206725
1999  8E4AD802           [0485] gettable   42  5   353  ; "mWeapon"
199D  628A0001           [0486] call       41  2   2  
19A1  970A8000           [0487] loadbool   42  1   0    ; true
19A5  E2890002           [0488] call       39  4   2  
19A9  1D4A0100           [0489] getglobal  40  5        ; 1074689893
19AD  520A8013           [0490] move       41  39     
19B1  228A0001           [0491] call       40  2   2  
19B5  184A0000           [0492] test       40      1    ; to [494] if false
19B9  1A400580           [0493] jmp        22           ; to [516]
19BD  1D4A0100           [0494] getglobal  40  5        ; 1074689893
19C1  4E8AD802           [0495] gettable   41  5   354  ; "mWeaponUpgrade"
19C5  228A0001           [0496] call       40  2   2  
19C9  184A0000           [0497] test       40      1    ; to [499] if false
19CD  1A000480           [0498] jmp        17           ; to [516]
19D1  248AD400           [0499] self       40  1   338  ; -1151016513
19D5  9DCA1400           [0500] getglobal  42  83       ; -895206725
19D9  CE8AD802           [0501] gettable   43  5   354  ; "mWeaponUpgrade"
19DD  A28A0001           [0502] call       42  2   2  
19E1  D20A0000           [0503] move       43  0      
19E5  228A0002           [0504] call       40  4   2  
19E9  5D4A0100           [0505] getglobal  41  5        ; 1074689893
19ED  920A0014           [0506] move       42  40     
19F1  628A0001           [0507] call       41  2   2  
19F5  584A0000           [0508] test       41      1    ; to [510] if false
19F9  1A400180           [0509] jmp        6            ; to [516]
19FD  64CA5814           [0510] self       41  40  355  ; 1979356343
1A01  CE0AD902           [0511] gettable   43  5   356  ; "mWeaponFingerprint"
1A05  624A8001           [0512] call       41  3   1  
1A09  64CAD713           [0513] self       41  39  351  ; 991629753
1A0D  D20A0014           [0514] move       43  40     
1A11  624A8001           [0515] call       41  3   1  
1A15  5D4A0100           [0516] getglobal  41  5        ; 1074689893
1A19  920A8013           [0517] move       42  39     
1A1D  628A0001           [0518] call       41  2   2  
1A21  584A0000           [0519] test       41      1    ; to [521] if false
1A25  1AC00380           [0520] jmp        16           ; to [537]
1A29  644AD913           [0521] self       41  39  357  ; -1057537912
1A2D  628A0001           [0522] call       41  2   2  
1A31  9D4A0100           [0523] getglobal  42  5        ; 1074689893
1A35  D20A8014           [0524] move       43  41     
1A39  A28A0001           [0525] call       42  2   2  
1A3D  984A0000           [0526] test       42      1    ; to [528] if false
1A41  1A000280           [0527] jmp        9            ; to [537]
1A45  A40A4E00           [0528] self       42  0   312  ; -1917464545
1A49  A28A0001           [0529] call       42  2   2  
1A4D  A48A5915           [0530] self       42  42  358  ; 688774453
1A51  120B8014           [0531] move       44  41     
1A55  5DCB1900           [0532] getglobal  45  103      ; Engine
1A59  4E0BDA16           [0533] gettable   45  45  360  ; "MAIN_HAND"
1A5D  9DCB1900           [0534] getglobal  46  103      ; Engine
1A61  8E4B5A17           [0535] gettable   46  46  361  ; "InventoryControllerBase_ES_INSTANT_EQUIP"
1A65  A24A8002           [0536] call       42  5   1  
1A69  9D0A0300           [0537] getglobal  42  12       ; isTransmissionPortrait
1A6D  984A0000           [0538] test       42      1    ; to [540] if false
1A71  1AC02B80           [0539] jmp        176          ; to [716]
1A75  9D8A0400           [0540] getglobal  42  18       ; gGameRules
1A79  CE8ADA02           [0541] gettable   43  5   362  ; "mWeaknesses"
1A7D  19CB0200           [0542] loadk      44  11       ; 0
1A81  4A0B8015           [0543] len        45  43     
1A85  99CB0200           [0544] loadk      46  11       ; 0
1A89  104B0280           [0545] forprep    44  10       ; to [556]
1A8D  0ECC8B15           [0546] gettable   48  43  47 
1A91  64CCD707           [0547] self       49  15  351  ; 991629753
1A95  DDCC1A00           [0548] getglobal  51  107      ; Game
1A99  CE0CDB19           [0549] gettable   51  51  364  ; "AVATAR_DAMAGE_RESISTANCE"
1A9D  1DCD1A00           [0550] getglobal  52  107      ; Game
1AA1  0E4D5B1A           [0551] gettable   52  52  365  ; "ADD"
1AA5  598D1B00           [0552] loadk      53  110      ; -51
1AA9  860D801B           [0553] loadnil    54  55     
1AAD  120E0018           [0554] move       56  48     
1AB1  624C0004           [0555] call       49  8   1  
1AB5  140BFD7F           [0556] forloop    44  -11      ; to [546] if loop
1AB9  4ECCDB02           [0557] gettable   49  5   367  ; "mResistances"
1ABD  99CC0200           [0558] loadk      50  11       ; 0
1AC1  CA0C8018           [0559] len        51  49     
1AC5  19CD0200           [0560] loadk      52  11       ; 0
1AC9  904C0280           [0561] forprep    50  10       ; to [572]
1ACD  8E4D8D18           [0562] gettable   54  49  53 
1AD1  E4CDD707           [0563] self       55  15  351  ; 991629753
1AD5  5DCE1A00           [0564] getglobal  57  107      ; Game
1AD9  4E0EDB1C           [0565] gettable   57  57  364  ; "AVATAR_DAMAGE_RESISTANCE"
1ADD  9DCE1A00           [0566] getglobal  58  107      ; Game
1AE1  8E4E5B1D           [0567] gettable   58  58  365  ; "ADD"
1AE5  D90E1C00           [0568] loadk      59  112      ; 0
1AE9  060F801E           [0569] loadnil    60  61     
1AED  920F001B           [0570] move       62  54     
1AF1  E24D0004           [0571] call       55  8   1  
1AF5  940CFD7F           [0572] forloop    50  -11      ; to [562] if loop
1AF9  CE4DDC02           [0573] gettable   55  5   369  ; "mImmunities"
1AFD  19CE0200           [0574] loadk      56  11       ; 0
1B01  4A0E801B           [0575] len        57  55     
1B05  99CE0200           [0576] loadk      58  11       ; 0
1B09  104E0280           [0577] forprep    56  10       ; to [588]
1B0D  0ECF8E1B           [0578] gettable   60  55  59 
1B11  64CFD707           [0579] self       61  15  351  ; 991629753
1B15  DDCF1A00           [0580] getglobal  63  107      ; Game
1B19  CE0FDB1F           [0581] gettable   63  63  364  ; "AVATAR_DAMAGE_RESISTANCE"
1B1D  1DD01A00           [0582] getglobal  64  107      ; Game
1B21  0E505B20           [0583] gettable   64  64  365  ; "ADD"
1B25  59D00200           [0584] loadk      65  11       ; 0
1B29  86108021           [0585] loadnil    66  67     
1B2D  1211001E           [0586] move       68  60     
1B31  624F0004           [0587] call       61  8   1  
1B35  140EFD7F           [0588] forloop    56  -11      ; to [578] if loop
1B39  4E0FD802           [0589] gettable   61  5   352  ; "mTraits"
1B3D  99CF0200           [0590] loadk      62  11       ; 0
1B41  CA0F801E           [0591] len        63  61     
1B45  19D00200           [0592] loadk      64  11       ; 0
1B49  908F0380           [0593] forprep    62  15       ; to [609]
1B4D  9DD01400           [0594] getglobal  66  83       ; -895206725
1B51  CE50901E           [0595] gettable   67  61  65 
1B55  A2900001           [0596] call       66  2   2  
1B59  DD500100           [0597] getglobal  67  5        ; 1074689893
1B5D  12110021           [0598] move       68  66     
1B61  E2900001           [0599] call       67  2   2  
1B65  D8500000           [0600] test       67      1    ; to [602] if false
1B69  1A800180           [0601] jmp        7            ; to [609]
1B6D  E490D400           [0602] self       67  1   338  ; -1151016513
1B71  52110021           [0603] move       69  66     
1B75  92110009           [0604] move       70  18     
1B79  E2900002           [0605] call       67  4   2  
1B7D  24D15709           [0606] self       68  18  351  ; 991629753
1B81  92118021           [0607] move       70  67     
1B85  22518001           [0608] call       68  3   1  
1B89  94CFFB7F           [0609] forloop    62  -16      ; to [594] if loop
1B8D  1D910900           [0610] getglobal  68  38       ; gRegion
fail op	35
1B91  23009100           [0611] close      0  
1B95  1A400380           [0612] jmp        14           ; to [627]
1B99  1D510100           [0613] getglobal  68  5        ; 1074689893
1B9D  4E91DC02           [0614] gettable   69  5   370  ; "mQuirk"
1BA1  22910001           [0615] call       68  2   2  
1BA5  18510000           [0616] test       68      1    ; to [618] if false
1BA9  1A000280           [0617] jmp        9            ; to [627]
1BAD  2491D400           [0618] self       68  1   338  ; -1151016513
1BB1  9DD11400           [0619] getglobal  70  83       ; -895206725
1BB5  CE91DC02           [0620] gettable   71  5   370  ; "mQuirk"
1BB9  A2910001           [0621] call       70  2   2  
1BBD  D2110009           [0622] move       71  18     
1BC1  22910002           [0623] call       68  4   2  
1BC5  64D15709           [0624] self       69  18  351  ; 991629753
1BC9  D2110022           [0625] move       71  68     
1BCD  62518001           [0626] call       69  3   1  
1BD1  64D15C00           [0627] self       69  0   371  ; 2090114668
1BD5  CE11DD02           [0628] gettable   71  5   372  ; "mScaledHealth"
1BD9  62518001           [0629] call       69  3   1  
1BDD  64515D00           [0630] self       69  0   373  ; 1992436207
1BE1  E4915D00           [0631] self       71  0   374  ; 945541886
1BE5  E2110001           [0632] call       71  2   0  
1BE9  62510000           [0633] call       69  0   1  
1BED  64D15D08           [0634] self       69  16  375  ; -1814078075
1BF1  CE11DE02           [0635] gettable   71  5   376  ; "mScaledShield"
1BF5  62518001           [0636] call       69  3   1  
1BF9  64515E08           [0637] self       69  16  377  ; -1992773175
1BFD  E4915E08           [0638] self       71  16  378  ; -227502409
1C01  E2110001           [0639] call       71  2   0  
1C05  62510000           [0640] call       69  0   1  
1C09  64D15E08           [0641] self       69  16  379  ; 82273917
1C0D  CE11DF02           [0642] gettable   71  5   380  ; "mScaledArmor"
1C11  62518001           [0643] call       69  3   1  
1C15  64515F00           [0644] self       69  0   381  ; -1411785325
1C19  62910001           [0645] call       69  2   2  
1C1D  9D510100           [0646] getglobal  70  5        ; 1074689893
1C21  D2118022           [0647] move       71  69     
1C25  A2910001           [0648] call       70  2   2  
1C29  98510000           [0649] test       70      1    ; to [651] if false
1C2D  1A001080           [0650] jmp        65           ; to [716]
1C31  9DD11400           [0651] getglobal  70  83       ; -895206725
1C35  D9911F00           [0652] loadk      71  126      ; "/Lotus/Types/Enemies/Kingpins/KingpinEngagementBehaviorSelector"
1C39  A2910001           [0653] call       70  2   2  
1C3D  DD510100           [0654] getglobal  71  5        ; 1074689893
1C41  12120023           [0655] move       72  70     
1C45  E2910001           [0656] call       71  2   2  
1C49  D8510000           [0657] test       71      1    ; to [659] if false
1C4D  1A000480           [0658] jmp        17           ; to [676]
1C51  E4D1DF22           [0659] self       71  69  383  ; 1857636735
1C55  E2910001           [0660] call       71  2   2  
1C59  1D520100           [0661] getglobal  72  5        ; 1074689893
1C5D  52128023           [0662] move       73  71     
1C61  22920001           [0663] call       72  2   2  
1C65  18520000           [0664] test       72      1    ; to [666] if false
1C69  1A400280           [0665] jmp        10           ; to [676]
1C6D  1D520100           [0666] getglobal  72  5        ; 1074689893
1C71  52120009           [0667] move       73  18     
1C75  22920001           [0668] call       72  2   2  
1C79  18520000           [0669] test       72      1    ; to [671] if false
1C7D  1A000180           [0670] jmp        5            ; to [676]
1C81  2412E023           [0671] self       72  71  384  ; -1071462232
1C85  93120002           [0672] getupval   74  4      
1C89  D2120023           [0673] move       75  70     
1C8D  12130009           [0674] move       76  18     
1C91  22528002           [0675] call       72  5   1  
1C95  2452E022           [0676] self       72  69  385  ; 286171207
1C99  22520001           [0677] call       72  2   1  
1C9D  1A000980           [0678] jmp        37           ; to [716]
1CA1  86040009           [0679] loadnil    18  18     
1CA5  24D2D507           [0680] self       72  15  343  ; 1769516121
1CA9  22920001           [0681] call       72  2   2  
1CAD  92040024           [0682] move       18  72     
1CB1  1DD20000           [0683] getglobal  72  3        ; 538022378
1CB5  59120100           [0684] loadk      73  4        ; 0
1CB9  22520001           [0685] call       72  2   1  
1CBD  1D520100           [0686] getglobal  72  5        ; 1074689893
1CC1  52120009           [0687] move       73  18     
1CC5  22920001           [0688] call       72  2   2  
1CC9  18520000           [0689] test       72      1    ; to [691] if false
1CCD  1A00FD7F           [0690] jmp        -11          ; to [680]
1CD1  1D520100           [0691] getglobal  72  5        ; 1074689893
1CD5  52120009           [0692] move       73  18     
1CD9  22920001           [0693] call       72  2   2  
1CDD  18520000           [0694] test       72      1    ; to [696] if false
1CE1  1AC00480           [0695] jmp        20           ; to [716]
1CE5  1D520100           [0696] getglobal  72  5        ; 1074689893
1CE9  4E12D602           [0697] gettable   73  5   344  ; "mExtraAbility"
1CED  22920001           [0698] call       72  2   2  
1CF1  18520000           [0699] test       72      1    ; to [701] if false
1CF5  1A400180           [0700] jmp        6            ; to [707]
1CF9  1DD21400           [0701] getglobal  72  83       ; -895206725
1CFD  4E12D602           [0702] gettable   73  5   344  ; "mExtraAbility"
1D01  22920001           [0703] call       72  2   2  
1D05  64525609           [0704] self       73  18  345  ; -380227431
1D09  D2120024           [0705] move       75  72     
1D0D  62528001           [0706] call       73  3   1  
1D11  64525609           [0707] self       73  18  345  ; -380227431
1D15  DD921600           [0708] getglobal  75  90       ; enthrallAbilityType
1D19  62528001           [0709] call       73  3   1  
1D1D  64D25609           [0710] self       73  18  347  ; 868102503
1D21  D9D20200           [0711] loadk      75  11       ; 0
1D25  24135709           [0712] self       76  18  348  ; 1789415806
1D29  9D931600           [0713] getglobal  78  90       ; enthrallAbilityType
1D2D  22138001           [0714] call       76  3   0  
1D31  62520000           [0715] call       73  0   1  
1D35  64124E00           [0716] self       73  0   312  ; -1917464545
1D39  62920001           [0717] call       73  2   2  
1D3D  6492E024           [0718] self       73  73  386  ; -1938777623
1D41  D9120100           [0719] loadk      75  4        ; 0
1D45  62528001           [0720] call       73  3   1  
1D49  64D26000           [0721] self       73  0   387  ; 99927773
1D4D  62520001           [0722] call       73  2   1  
1D51  5DD20000           [0723] getglobal  73  3        ; 538022378
1D55  99120100           [0724] loadk      74  4        ; 0
1D59  62520001           [0725] call       73  2   1  
1D5D  5DD20000           [0726] getglobal  73  3        ; 538022378
1D61  99120100           [0727] loadk      74  4        ; 0
1D65  62520001           [0728] call       73  2   1  
1D69  5DD20000           [0729] getglobal  73  3        ; 538022378
1D6D  99120100           [0730] loadk      74  4        ; 0
1D71  62520001           [0731] call       73  2   1  
1D75  5D520100           [0732] getglobal  73  5        ; 1074689893
1D79  92120009           [0733] move       74  18     
1D7D  62920001           [0734] call       73  2   2  
1D81  58520000           [0735] test       73      1    ; to [737] if false
1D85  1A400180           [0736] jmp        6            ; to [743]
1D89  64126109           [0737] self       73  18  388  ; -1038992139
1D8D  CE52E102           [0738] gettable   75  5   389  ; "mCustomization"
1D91  62528001           [0739] call       73  3   1  
1D95  5DD20000           [0740] getglobal  73  3        ; 538022378
1D99  99120100           [0741] loadk      74  4        ; 0
1D9D  62520001           [0742] call       73  2   1  
1DA1  64924000           [0743] self       73  0   258  ; 2109594123
1DA5  D7128000           [0744] loadbool   75  1   0    ; true
1DA9  62528001           [0745] call       73  3   1  
1DAD  64926100           [0746] self       73  0   390  ; -1526590235
1DB1  DD921200           [0747] getglobal  75  74       ; 2083004503
1DB5  0ED3E102           [0748] gettable   76  5   391  ; "mVoiceBox"
1DB9  E2120001           [0749] call       75  2   0  
1DBD  62520000           [0750] call       73  0   1  
1DC1  64126200           [0751] self       73  0   392  ; 1126975219
1DC5  DD921200           [0752] getglobal  75  74       ; 2083004503
1DC9  0E53E202           [0753] gettable   76  5   393  ; "mDspEffect"
1DCD  E2120001           [0754] call       75  2   0  
1DD1  62520000           [0755] call       73  0   1  
1DD5  5D520100           [0756] getglobal  73  5        ; 1074689893
1DD9  92120009           [0757] move       74  18     
1DDD  62920001           [0758] call       73  2   2  
1DE1  58520000           [0759] test       73      1    ; to [761] if false
1DE5  1A000780           [0760] jmp        29           ; to [790]
1DE9  5D520100           [0761] getglobal  73  5        ; 1074689893
1DED  8E92E202           [0762] gettable   74  5   394  ; "mEphemera"
1DF1  62920001           [0763] call       73  2   2  
1DF5  58520000           [0764] test       73      1    ; to [766] if false
1DF9  1AC00580           [0765] jmp        24           ; to [790]
1DFD  6492CF00           [0766] self       73  1   318  ; -1520831144
1E01  62920001           [0767] call       73  2   2  
1E05  58520000           [0768] test       73      1    ; to [770] if false
1E09  1A800080           [0769] jmp        3            ; to [773]
1E0D  5D120300           [0770] getglobal  73  12       ; isTransmissionPortrait
1E11  58120000           [0771] test       73      0    ; to [773] if true
1E15  1A000480           [0772] jmp        17           ; to [790]
1E19  6492D400           [0773] self       73  1   338  ; -1151016513
1E1D  DDD21400           [0774] getglobal  75  83       ; -895206725
1E21  0E93E202           [0775] gettable   76  5   394  ; "mEphemera"
1E25  E2920001           [0776] call       75  2   2  
1E29  12130009           [0777] move       76  18     
1E2D  62920002           [0778] call       73  4   2  
1E31  9D520100           [0779] getglobal  74  5        ; 1074689893
1E35  D2128024           [0780] move       75  73     
1E39  A2920001           [0781] call       74  2   2  
1E3D  98520000           [0782] test       74      1    ; to [784] if false
1E41  1A400180           [0783] jmp        6            ; to [790]
1E45  A4D25709           [0784] self       74  18  351  ; 991629753
1E49  12138024           [0785] move       76  73     
1E4D  A2528001           [0786] call       74  3   1  
1E51  9DD20000           [0787] getglobal  74  3        ; 538022378
1E55  D9120100           [0788] loadk      75  4        ; 0
1E59  A2520001           [0789] call       74  2   1  
1E5D  9D520100           [0790] getglobal  74  5        ; 1074689893
1E61  D2120009           [0791] move       75  18     
1E65  A2920001           [0792] call       74  2   2  
1E69  98520000           [0793] test       74      1    ; to [795] if false
1E6D  1A801680           [0794] jmp        91           ; to [886]
1E71  86128025           [0795] loadnil    74  75     
1E75  1D530100           [0796] getglobal  76  5        ; 1074689893
1E79  4ED3E202           [0797] gettable   77  5   395  ; "mShoulderHelmetDeco"
1E7D  22930001           [0798] call       76  2   2  
1E81  18530000           [0799] test       76      1    ; to [801] if false
1E85  1A800080           [0800] jmp        3            ; to [804]
1E89  8ED2E202           [0801] gettable   74  5   395  ; "mShoulderHelmetDeco"
1E8D  D7128000           [0802] loadbool   75  1   0    ; true
1E91  1A400080           [0803] jmp        2            ; to [806]
1E95  8E12E302           [0804] gettable   74  5   396  ; "mShoulderHelmetCustomization"
1E99  D7120000           [0805] loadbool   75  0   0    ; false
1E9D  1D530100           [0806] getglobal  76  5        ; 1074689893
1EA1  52130025           [0807] move       77  74     
1EA5  22930001           [0808] call       76  2   2  
1EA9  18530000           [0809] test       76      1    ; to [811] if false
1EAD  1A801280           [0810] jmp        75           ; to [886]
1EB1  24536300           [0811] self       76  0   397  ; -1625438872
1EB5  9D932300           [0812] getglobal  78  142      ; shoulderHelmetDecoType
1EB9  22938001           [0813] call       76  3   2  
1EBD  5D530100           [0814] getglobal  77  5        ; 1074689893
1EC1  92130026           [0815] move       78  76     
1EC5  62930001           [0816] call       77  2   2  
1EC9  58530000           [0817] test       77      1    ; to [819] if false
1ECD  1A801080           [0818] jmp        67           ; to [886]
1ED1  64D36326           [0819] self       77  76  399  ; -1870903749
1ED5  62930001           [0820] call       77  2   2  
1ED9  D8120000           [0821] test       75      0    ; to [823] if true
1EDD  1AC00480           [0822] jmp        20           ; to [843]
1EE1  A413CF26           [0823] self       78  77  316  ; -1421644046
1EE5  1DD41400           [0824] getglobal  80  83       ; -895206725
1EE9  52140025           [0825] move       81  74     
1EED  22940001           [0826] call       80  2   2  
1EF1  5D142400           [0827] getglobal  81  144      ; EMPTY_SYMBOL
1EF5  A4546426           [0828] self       82  76  401  ; 917683095
1EF9  A2940001           [0829] call       82  2   2  
1EFD  E4946426           [0830] self       83  76  402  ; 578679216
1F01  E2140001           [0831] call       83  2   0  
1F05  A2930000           [0832] call       78  0   2  
1F09  E4134F27           [0833] self       79  78  316  ; -1421644046
1F0D  5DD42400           [0834] getglobal  81  147      ; helmetProjector
1F11  9D142400           [0835] getglobal  82  144      ; EMPTY_SYMBOL
1F15  DD142500           [0836] getglobal  83  148      ; ZERO_VECTOR
1F19  1D552500           [0837] getglobal  84  149      ; ZERO_ROTATION
1F1D  E2530003           [0838] call       79  6   1  
1F21  E493E500           [0839] self       79  1   406  ; -1693828985
1F25  52140026           [0840] move       81  76     
1F29  E2538001           [0841] call       79  3   1  
1F2D  1A800A80           [0842] jmp        43           ; to [886]
1F31  DD931200           [0843] getglobal  79  74       ; 2083004503
1F35  12140025           [0844] move       80  74     
1F39  E2930001           [0845] call       79  2   2  
1F3D  1D540100           [0846] getglobal  80  5        ; 1074689893
1F41  52148027           [0847] move       81  79     
1F45  22940001           [0848] call       80  2   2  
1F49  18540000           [0849] test       80      1    ; to [851] if false
1F4D  1A800880           [0850] jmp        35           ; to [886]
1F51  24D4E527           [0851] self       80  79  407  ; -2082059990
1F55  9DD41900           [0852] getglobal  82  103      ; Engine
1F59  8E146629           [0853] gettable   82  82  408  ; "THIRD_PERSON"
1F5D  DDD41900           [0854] getglobal  83  103      ; Engine
1F61  CE14DA29           [0855] gettable   83  83  360  ; "MAIN_HAND"
1F65  22940002           [0856] call       80  4   2  
1F69  59D40200           [0857] loadk      81  11       ; 0
1F6D  8A140028           [0858] len        82  80     
1F71  D9D40200           [0859] loadk      83  11       ; 0
1F75  50940380           [0860] forprep    81  15       ; to [876]
1F79  4E151528           [0861] gettable   85  80  84 
1F7D  4E55E62A           [0862] gettable   85  85  409  ; "mType"
1F81  9D550100           [0863] getglobal  86  5        ; 1074689893
1F85  D215802A           [0864] move       87  85     
1F89  A2950001           [0865] call       86  2   2  
1F8D  98550000           [0866] test       86      1    ; to [868] if false
1F91  1AC00180           [0867] jmp        8            ; to [876]
1F95  A415CF26           [0868] self       86  77  316  ; -1421644046
1F99  1216802A           [0869] move       88  85     
1F9D  5D162400           [0870] getglobal  89  144      ; EMPTY_SYMBOL
1FA1  A4566426           [0871] self       90  76  401  ; 917683095
1FA5  A2960001           [0872] call       90  2   2  
1FA9  E4966426           [0873] self       91  76  402  ; 578679216
1FAD  E2160001           [0874] call       91  2   0  
1FB1  A2550000           [0875] call       86  0   1  
1FB5  54D4FB7F           [0876] forloop    81  -16      ; to [861] if loop
1FB9  A415CF26           [0877] self       86  77  316  ; -1421644046
1FBD  1DD62400           [0878] getglobal  88  147      ; helmetProjector
1FC1  5D162400           [0879] getglobal  89  144      ; EMPTY_SYMBOL
1FC5  9D162500           [0880] getglobal  90  148      ; ZERO_VECTOR
1FC9  DD562500           [0881] getglobal  91  149      ; ZERO_ROTATION
1FCD  A2550003           [0882] call       86  6   1  
1FD1  A495E500           [0883] self       86  1   406  ; -1693828985
1FD5  12160026           [0884] move       88  76     
1FD9  A2558001           [0885] call       86  3   1  
1FDD  A495E600           [0886] self       86  1   410  ; -1875307917
1FE1  1D560200           [0887] getglobal  88  9        ; -332969190
1FE5  59D62600           [0888] loadk      89  155      ; "KuvaLichBackgroundDeco"
1FE9  22160001           [0889] call       88  2   0  
1FED  A2950000           [0890] call       86  0   2  
1FF1  DD550100           [0891] getglobal  87  5        ; 1074689893
1FF5  1216002B           [0892] move       88  86     
1FF9  E2950001           [0893] call       87  2   2  
1FFD  D8550000           [0894] test       87      1    ; to [896] if false
2001  1A800880           [0895] jmp        35           ; to [931]
2005  DD152700           [0896] getglobal  87  156      ; -1247440829
2009  E2958000           [0897] call       87  1   2  
200D  1D560200           [0898] getglobal  88  9        ; -332969190
2011  59562700           [0899] loadk      89  157      ; "TintColor0"
2015  22960001           [0900] call       88  2   2  
2019  5D560200           [0901] getglobal  89  9        ; -332969190
201D  99962700           [0902] loadk      90  158      ; "TintColor1"
2021  62960001           [0903] call       89  2   2  
2025  8E56E102           [0904] gettable   90  5   389  ; "mCustomization"
2029  A4D6672D           [0905] self       90  90  415  ; -479391803
202D  1D172800           [0906] getglobal  92  160      ; Lotus_Game
2031  0E57682E           [0907] gettable   92  92  417  ; "PrimaryColors"
2035  A2968001           [0908] call       90  3   2  
2039  E496682D           [0909] self       91  90  418  ; 979293742
203D  5D172800           [0910] getglobal  93  160      ; Lotus_Game
2041  4E57E72E           [0911] gettable   93  93  413  ; "TintColor0"
2045  E2968001           [0912] call       91  3   2  
2049  D8160000           [0913] test       91      0    ; to [915] if true
204D  1A000180           [0914] jmp        5            ; to [920]
2051  D3168002           [0915] getupval   91  5      
2055  CED6E82D           [0916] gettable   91  91  419  ; 1694384241
2059  0E17692D           [0917] gettable   92  90  420  ; "mTintColor0"
205D  E2960001           [0918] call       91  2   2  
2061  D215802D           [0919] move       87  91     
2065  E496682D           [0920] self       91  90  418  ; 979293742
2069  5D172800           [0921] getglobal  93  160      ; Lotus_Game
206D  4E97E72E           [0922] gettable   93  93  414  ; "TintColor1"
2071  E2968001           [0923] call       91  3   2  
2075  D8160000           [0924] test       91      0    ; to [926] if true
2079  1A000180           [0925] jmp        5            ; to [931]
207D  D3168002           [0926] getupval   91  5      
2081  CED6E82D           [0927] gettable   91  91  419  ; 1694384241
2085  0E57692D           [0928] gettable   92  90  421  ; "mTintColor1"
2089  E2960001           [0929] call       91  2   2  
208D  D215802D           [0930] move       87  91     
2091  DD160300           [0931] getglobal  91  12       ; isTransmissionPortrait
2095  D8160000           [0932] test       91      0    ; to [934] if true
2099  1A001080           [0933] jmp        65           ; to [999]
209D  E4966900           [0934] self       91  0   422  ; 677420169
20A1  5D570200           [0935] getglobal  93  9        ; -332969190
20A5  99D72900           [0936] loadk      94  167      ; "PLAY_MENU_TAUNT"
20A9  62170001           [0937] call       93  2   0  
20AD  E2560000           [0938] call       91  0   1  
20B1  DD560100           [0939] getglobal  91  5        ; 1074689893
20B5  12170000           [0940] move       92  0      
20B9  E2960001           [0941] call       91  2   2  
20BD  D8560000           [0942] test       91      1    ; to [944] if false
20C1  1A800D80           [0943] jmp        55           ; to [999]
20C5  DDD60000           [0944] getglobal  91  3        ; 538022378
20C9  19170100           [0945] loadk      92  4        ; 0
20CD  E2560001           [0946] call       91  2   1  
20D1  DD960300           [0947] getglobal  91  14       ; _T
20D5  CE16EA2D           [0948] gettable   91  91  424  ; "TransmissionSoundInstance"
20D9  1D570100           [0949] getglobal  92  5        ; 1074689893
20DD  5217802D           [0950] move       93  91     
20E1  22970001           [0951] call       92  2   2  
20E5  18170000           [0952] test       92      0    ; to [954] if true
20E9  1A400180           [0953] jmp        6            ; to [960]
20ED  1DD70000           [0954] getglobal  92  3        ; 538022378
20F1  59170100           [0955] loadk      93  4        ; 0
20F5  22570001           [0956] call       92  2   1  
20F9  1D970300           [0957] getglobal  92  14       ; _T
20FD  CE166A2E           [0958] gettable   91  92  424  ; "TransmissionSoundInstance"
2101  1A00FD7F           [0959] jmp        -11          ; to [949]
2105  0617002E           [0960] loadnil    92  92     
2109  5D570100           [0961] getglobal  93  5        ; 1074689893
210D  9D970300           [0962] getglobal  94  14       ; _T
2111  8ED7432F           [0963] gettable   94  94  271  ; "curTransmission"
2115  62970001           [0964] call       93  2   2  
2119  58570000           [0965] test       93      1    ; to [967] if false
211D  1AC00280           [0966] jmp        12           ; to [979]
2121  5D970300           [0967] getglobal  93  14       ; _T
2125  4ED7C32E           [0968] gettable   93  93  271  ; "curTransmission"
2129  6457EA2E           [0969] self       93  93  425  ; -1957065004
212D  DD972A00           [0970] getglobal  95  170      ; nemesisTransmissionType
2131  62978001           [0971] call       93  3   2  
2135  58170000           [0972] test       93      0    ; to [974] if true
2139  1A000180           [0973] jmp        5            ; to [979]
213D  64D76A00           [0974] self       93  0   427  ; 2076587185
2141  D217802D           [0975] move       95  91     
2145  62578001           [0976] call       93  3   1  
2149  5D970300           [0977] getglobal  93  14       ; _T
214D  0ED7C32E           [0978] gettable   92  93  271  ; "curTransmission"
2151  5D570100           [0979] getglobal  93  5        ; 1074689893
2155  9217802D           [0980] move       94  91     
2159  62970001           [0981] call       93  2   2  
215D  58570000           [0982] test       93      1    ; to [984] if false
2161  1AC00080           [0983] jmp        4            ; to [988]
2165  5DD70000           [0984] getglobal  93  3        ; 538022378
2169  99170100           [0985] loadk      94  4        ; 0
216D  62570001           [0986] call       93  2   1  
2171  1A80FD7F           [0987] jmp        -9           ; to [979]
2175  5D970300           [0988] getglobal  93  14       ; _T
2179  4ED7C32E           [0989] gettable   93  93  271  ; "curTransmission"
fail op	35
217D  2340172E           [0990] close      0  
2181  1AC00080           [0991] jmp        4            ; to [996]
2185  5DD70000           [0992] getglobal  93  3        ; 538022378
2189  99170100           [0993] loadk      94  4        ; 0
218D  62570001           [0994] call       93  2   1  
2191  1AC0FD7F           [0995] jmp        -8           ; to [988]
2195  64176B00           [0996] self       93  0   428  ; -725453761
2199  62570001           [0997] call       93  2   1  
219D  1AC0F07F           [0998] jmp        -60          ; to [939]
21A1  D8400000           [0999] test       3       1    ; to [1001] if false
21A5  1A400480           [1000] jmp        18           ; to [1019]
21A9  5D170300           [1001] getglobal  93  12       ; isTransmissionPortrait
21AD  58570000           [1002] test       93      1    ; to [1004] if false
21B1  1A800380           [1003] jmp        15           ; to [1019]
21B5  64974100           [1004] self       93  0   262  ; -578871469
21B9  62970001           [1005] call       93  2   2  
21BD  9DD70700           [1006] getglobal  94  31       ; gBackgroundRegion
fail op	35
21C1  6380972E           [1007] close      1  
21C5  1A400280           [1008] jmp        10           ; to [1019]
21C9  5D970300           [1009] getglobal  93  14       ; _T
21CD  8B170100           [1010] newtable   94  0   4    ; array=0, hash=4
21D1  8C17808C           [1011] settable   94  281 0    ; "avatar"
21D5  8C57018D           [1012] settable   94  282 5    ; "generatedProfile"
21D9  8CD7818D           [1013] settable   94  283 7    ; "rank"
21DD  DDD71400           [1014] getglobal  95  83       ; -895206725
21E1  12180002           [1015] move       96  4      
21E5  E2970001           [1016] call       95  2   2  
21E9  8CD797D6           [1017] settable   94  429 95   ; "manifest"
21ED  4C97178C           [1018] settable   93  280 94   ; "LastNemesisHack"
21F1  98000000           [1019] test       2       0    ; to [1021] if true
21F5  1A000280           [1020] jmp        9            ; to [1030]
21F9  D8000000           [1021] test       3       0    ; to [1023] if true
21FD  1AC00080           [1022] jmp        4            ; to [1027]
2201  53170003           [1023] getupval   93  6      
2205  92170000           [1024] move       94  0      
2209  62570001           [1025] call       93  2   1  
220D  1A800080           [1026] jmp        3            ; to [1030]
2211  53178003           [1027] getupval   93  7      
2215  92170000           [1028] move       94  0      
2219  62570001           [1029] call       93  2   1  
221D  1E008000           [1030] return     0   1      
                         * constants:
2222  01                 sizek (174)
2223  01                 const type 3
2224  6B25B193           const [0]: (-1817107093)
2228  04                 const type 4
2229  13                 string size (19)
222A  73657474696E6720+  "setting "
2232  7570206E656D6573+  "up nemes"
223A  697300             "is\0"
                         const [1]: "setting up nemesis"
223D  01                 const type 3
223E  0BDABD7D           const [2]: (2109594123)
2242  01                 const type 3
2243  EA911120           const [3]: (538022378)
2247  03                 const type 3
2248  00000000           const [4]: (0)
224C  01                 const type 3
224D  65770E40           const [5]: (1074689893)
2251  01                 const type 3
2252  531F7FDD           const [6]: (-578871469)
2256  01                 const type 3
2257  4C27D287           const [7]: (-2016270516)
225B  01                 const type 3
225C  FB26E686           const [8]: (-2031737093)
2260  01                 const type 3
2261  1A4B27EC           const [9]: (-332969190)
2265  04                 const type 4
2266  06                 string size (6)
2267  54454E4E4F00       "TENNO\0"
                         const [10]: "TENNO"
226D  03                 const type 3
226E  0000803F           const [11]: (0)
2272  04                 const type 4
2273  17                 string size (23)
2274  69735472616E736D+  "isTransm"
227C  697373696F6E506F+  "issionPo"
2284  72747261697400     "rtrait\0"
                         const [12]: "isTransmissionPortrait"
228B  04                 const type 4
228C  09                 string size (9)
228D  706F727472616974+  "portrait"
2295  00                 "\0"
                         const [13]: "portrait"
2296  04                 const type 4
2297  03                 string size (3)
2298  5F5400             "_T\0"
                         const [14]: "_T"
229B  04                 const type 4
229C  10                 string size (16)
229D  6375725472616E73+  "curTrans"
22A5  6D697373696F6E00   "mission\0"
                         const [15]: "curTransmission"
22AD  01                 const type 3
22AE  FF2A83CE           const [16]: (-830264577)
22B2  04                 const type 4
22B3  0C                 string size (12)
22B4  4E656D6573697341+  "NemesisA"
22BC  6C6C7900           "lly\0"
                         const [17]: "NemesisAlly"
22C0  04                 const type 4
22C1  0B                 string size (11)
22C2  6747616D6552756C+  "gGameRul"
22CA  657300             "es\0"
                         const [18]: "gGameRules"
22CD  01                 const type 3
22CE  71B34E27           const [19]: (659469169)
22D2  04                 const type 4
22D3  08                 string size (8)
22D4  6D54617267657400   "mTarget\0"
                         const [20]: "mTarget"
22DC  04                 const type 4
22DD  24                 string size (36)
22DE  4E656D6573697354+  "NemesisT"
22E6  72616E736D697373+  "ransmiss"
22EE  696F6E506F727472+  "ionPortr"
22F6  6169745573654C6F+  "aitUseLo"
22FE  63616C00           "cal\0"
                         const [21]: "NemesisTransmissionPortraitUseLocal"
2302  04                 const type 4
2303  0A                 string size (10)
2304  6747616D65446174+  "gGameDat"
230C  6100               "a\0"
                         const [22]: "gGameData"
230E  01                 const type 3
230F  958D3517           const [23]: (389385621)
2313  04                 const type 4
2314  10                 string size (16)
2315  4C6173744E656D65+  "LastNeme"
231D  7369734861636B00   "sisHack\0"
                         const [24]: "LastNemesisHack"
2325  04                 const type 4
2326  07                 string size (7)
2327  61766174617200     "avatar\0"
                         const [25]: "avatar"
232E  04                 const type 4
232F  11                 string size (17)
2330  67656E6572617465+  "generate"
2338  6450726F66696C65+  "dProfile"
2340  00                 "\0"
                         const [26]: "generatedProfile"
2341  04                 const type 4
2342  05                 string size (5)
2343  72616E6B00         "rank\0"
                         const [27]: "rank"
2348  01                 const type 3
2349  C4ACCC44           const [28]: (1154264260)
234D  01                 const type 3
234E  E98D1084           const [29]: (-2079289879)
2352  04                 const type 4
2353  06                 string size (6)
2354  6D52616E6B00       "mRank\0"
                         const [30]: "mRank"
235A  04                 const type 4
235B  12                 string size (18)
235C  674261636B67726F+  "gBackgro"
2364  756E64526567696F+  "undRegio"
236C  6E00               "n\0"
                         const [31]: "gBackgroundRegion"
236E  04                 const type 4
236F  20                 string size (32)
2370  6C6F6F6B696E6720+  "looking "
2378  666F72206E656D65+  "for neme"
2380  7369732066726F6D+  "sis from"
2388  2073637265656E00   " screen\0"
                         const [32]: "looking for nemesis from screen"
2390  04                 const type 4
2391  09                 string size (9)
2392  674E656D65736973+  "gNemesis"
239A  00                 "\0"
                         const [33]: "gNemesis"
239B  04                 const type 4
239C  0A                 string size (10)
239D  73657420696E205F+  "set in _"
23A5  5400               "T\0"
                         const [34]: "set in _T"
23A7  04                 const type 4
23A8  0B                 string size (11)
23A9  70726F7065727469+  "properti"
23B1  657300             "es\0"
                         const [35]: "properties"
23B4  01                 const type 3
23B5  A4A49670           const [36]: (1888920740)
23B9  04                 const type 4
23BA  05                 string size (5)
23BB  6E616D6500         "name\0"
                         const [37]: "name"
23C0  04                 const type 4
23C1  08                 string size (8)
23C2  67526567696F6E00   "gRegion\0"
                         const [38]: "gRegion"
23CA  01                 const type 3
23CB  14B92C37           const [39]: (925677844)
23CF  04                 const type 4
23D0  0F                 string size (15)
23D1  616C6C7920656E63+  "ally enc"
23D9  6F756E74657200     "ounter\0"
                         const [40]: "ally encounter"
23E0  04                 const type 4
23E1  08                 string size (8)
23E2  6D506C6179657200   "mPlayer\0"
                         const [41]: "mPlayer"
23EA  01                 const type 3
23EB  1532770C           const [42]: (209138197)
23EF  04                 const type 4
23F0  16                 string size (22)
23F1  4F6E557064617465+  "OnUpdate"
23F9  416C6C7953706177+  "AllySpaw"
2401  6E54696D6500       "nTime\0"
                         const [43]: "OnUpdateAllySpawnTime"
2407  04                 const type 4
2408  10                 string size (16)
2409  656E656D7920656E+  "enemy en"
2411  636F756E74657200   "counter\0"
                         const [44]: "enemy encounter"
2419  01                 const type 3
241A  9509A280           const [45]: (-2136864363)
241E  01                 const type 3
241F  27003F0B           const [46]: (188678183)
2423  04                 const type 4
2424  0A                 string size (10)
2425  6D4D616E69666573+  "mManifes"
242D  7400               "t\0"
                         const [47]: "mManifest"
242F  04                 const type 4
2430  2A                 string size (42)
2431  67656E6572617469+  "generati"
2439  6E672070726F6669+  "ng profi"
2441  6C652066726F6D20+  "le from "
2449  63757272656E7420+  "current "
2451  656E636F756E7465+  "encounte"
2459  7200               "r\0"
                         const [48]: "generating profile from current encounter"
245B  04                 const type 4
245C  22                 string size (34)
245D  6E656D6573697320+  "nemesis "
2465  686173206E6F2067+  "has no g"
246D  656E657261746564+  "enerated"
2475  2070726F66696C65+  " profile"
247D  2100               "!\0"
                         const [49]: "nemesis has no generated profile!"
247F  04                 const type 4
2480  11                 string size (17)
2481  4E656D6573697352+  "NemesisR"
2489  65734C6F61646572+  "esLoader"
2491  00                 "\0"
                         const [50]: "NemesisResLoader"
2492  01                 const type 3
2493  04C5DDAF           const [51]: (-1344420604)
2497  00                 const type 0
                         const [52]: nil
2498  01                 const type 3
2499  7D8646B9           const [53]: (-1186560387)
249D  04                 const type 4
249E  06                 string size (6)
249F  554953797300       "UISys\0"
                         const [54]: "UISys"
24A5  01                 const type 3
24A6  E0539B44           const [55]: (1151030240)
24AA  01                 const type 3
24AB  1FD0B58D           const [56]: (-1917464545)
24AF  01                 const type 3
24B0  9B06F6A3           const [57]: (-1544157541)
24B4  01                 const type 3
24B5  D5C919D1           const [58]: (-786839083)
24B9  04                 const type 4
24BA  06                 string size (6)
24BB  6D4E616D6500       "mName\0"
                         const [59]: "mName"
24C1  01                 const type 3
24C2  F26E43AB           const [60]: (-1421644046)
24C6  04                 const type 4
24C7  0F                 string size (15)
24C8  47414D455F43315F+  "GAME_C1_"
24D0  5350494E453300     "SPINE3\0"
                         const [61]: "GAME_C1_SPINE3"
24D7  01                 const type 3
24D8  58F559A5           const [62]: (-1520831144)
24DC  01                 const type 3
24DD  8E2E6BE9           const [63]: (-378851698)
24E1  04                 const type 4
24E2  07                 string size (7)
24E3  6D4C6576656C00     "mLevel\0"
                         const [64]: "mLevel"
24EA  01                 const type 3
24EB  CD713DB3           const [65]: (-1287818803)
24EF  03                 const type 3
24F0  CDCC4C3D           const [66]: (-51)
24F4  01                 const type 3
24F5  8B2A021B           const [67]: (453126795)
24F9  01                 const type 3
24FA  A8EDCDDF           const [68]: (-540152408)
24FE  01                 const type 3
24FF  0344B180           const [69]: (-2135866365)
2503  01                 const type 3
2504  B63E883D           const [70]: (1032339126)
2508  04                 const type 4
2509  06                 string size (6)
250A  54656E6E6F00       "Tenno\0"
                         const [71]: "Tenno"
2510  01                 const type 3
2511  DD95A634           const [72]: (883332573)
2515  04                 const type 4
2516  06                 string size (6)
2517  6D4865616400       "mHead\0"
                         const [73]: "mHead"
251D  01                 const type 3
251E  5720287C           const [74]: (2083004503)
2522  01                 const type 3
2523  F1F5CF36           const [75]: (919598577)
2527  01                 const type 3
2528  191BA0B2           const [76]: (-1298130151)
252C  01                 const type 3
252D  0EE5C8A9           const [77]: (-1446451954)
2531  01                 const type 3
2532  5E940C67           const [78]: (1728877662)
2536  01                 const type 3
2537  D66366D3           const [79]: (-748264490)
253B  01                 const type 3
253C  8B9B8C32           const [80]: (848075659)
2540  04                 const type 4
2541  0B                 string size (11)
2542  6D506F7765725375+  "mPowerSu"
254A  697400             "it\0"
                         const [81]: "mPowerSuit"
254D  01                 const type 3
254E  BFE164BB           const [82]: (-1151016513)
2552  01                 const type 3
2553  BB3AA4CA           const [83]: (-895206725)
2557  01                 const type 3
2558  57D3FDB1           const [84]: (-1308765353)
255C  04                 const type 4
255D  15                 string size (21)
255E  6D5363616C65644D+  "mScaledM"
2566  6F76656D656E7453+  "ovementS"
256E  7065656400         "peed\0"
                         const [85]: "mScaledMovementSpeed"
2573  01                 const type 3
2574  077F3458           const [86]: (1479835399)
2578  01                 const type 3
2579  59AC7869           const [87]: (1769516121)
257D  04                 const type 4
257E  0E                 string size (14)
257F  6D45787472614162+  "mExtraAb"
2587  696C69747900       "ility\0"
                         const [88]: "mExtraAbility"
258D  01                 const type 3
258E  993056E9           const [89]: (-380227431)
2592  04                 const type 4
2593  14                 string size (20)
2594  656E746872616C6C+  "enthrall"
259C  4162696C69747954+  "AbilityT"
25A4  79706500           "ype\0"
                         const [90]: "enthrallAbilityType"
25A8  01                 const type 3
25A9  6731BE33           const [91]: (868102503)
25AD  01                 const type 3
25AE  7E51A86A           const [92]: (1789415806)
25B2  04                 const type 4
25B3  07                 string size (7)
25B4  6D41726D6F7200     "mArmor\0"
                         const [93]: "mArmor"
25BB  01                 const type 3
25BC  0791B063           const [94]: (1672515847)
25C0  01                 const type 3
25C1  B9111B3B           const [95]: (991629753)
25C5  04                 const type 4
25C6  08                 string size (8)
25C7  6D54726169747300   "mTraits\0"
                         const [96]: "mTraits"
25CF  04                 const type 4
25D0  08                 string size (8)
25D1  6D576561706F6E00   "mWeapon\0"
                         const [97]: "mWeapon"
25D9  04                 const type 4
25DA  0F                 string size (15)
25DB  6D576561706F6E55+  "mWeaponU"
25E3  70677261646500     "pgrade\0"
                         const [98]: "mWeaponUpgrade"
25EA  01                 const type 3
25EB  B794FA75           const [99]: (1979356343)
25EF  04                 const type 4
25F0  13                 string size (19)
25F1  6D576561706F6E46+  "mWeaponF"
25F9  696E676572707269+  "ingerpri"
2601  6E7400             "nt\0"
                         const [100]: "mWeaponFingerprint"
2604  01                 const type 3
2605  8840F7C0           const [101]: (-1057537912)
2609  01                 const type 3
260A  35DD0D29           const [102]: (688774453)
260E  04                 const type 4
260F  07                 string size (7)
2610  456E67696E6500     "Engine\0"
                         const [103]: "Engine"
2617  04                 const type 4
2618  0A                 string size (10)
2619  4D41494E5F48414E+  "MAIN_HAN"
2621  4400               "D\0"
                         const [104]: "MAIN_HAND"
2623  04                 const type 4
2624  29                 string size (41)
2625  496E76656E746F72+  "Inventor"
262D  79436F6E74726F6C+  "yControl"
2635  6C6572426173655F+  "lerBase_"
263D  45535F494E535441+  "ES_INSTA"
2645  4E545F4551554950+  "NT_EQUIP"
264D  00                 "\0"
                         const [105]: "InventoryControllerBase_ES_INSTANT_EQUIP"
264E  04                 const type 4
264F  0C                 string size (12)
2650  6D5765616B6E6573+  "mWeaknes"
2658  73657300           "ses\0"
                         const [106]: "mWeaknesses"
265C  04                 const type 4
265D  05                 string size (5)
265E  47616D6500         "Game\0"
                         const [107]: "Game"
2663  04                 const type 4
2664  19                 string size (25)
2665  4156415441525F44+  "AVATAR_D"
266D  414D4147455F5245+  "AMAGE_RE"
2675  53495354414E4345+  "SISTANCE"
267D  00                 "\0"
                         const [108]: "AVATAR_DAMAGE_RESISTANCE"
267E  04                 const type 4
267F  04                 string size (4)
2680  41444400           "ADD\0"
                         const [109]: "ADD"
2684  03                 const type 3
2685  CDCC4CBE           const [110]: (-51)
2689  04                 const type 4
268A  0D                 string size (13)
268B  6D52657369737461+  "mResista"
2693  6E63657300         "nces\0"
                         const [111]: "mResistances"
2698  03                 const type 3
2699  0000003F           const [112]: (0)
269D  04                 const type 4
269E  0C                 string size (12)
269F  6D496D6D756E6974+  "mImmunit"
26A7  69657300           "ies\0"
                         const [113]: "mImmunities"
26AB  04                 const type 4
26AC  07                 string size (7)
26AD  6D517569726B00     "mQuirk\0"
                         const [114]: "mQuirk"
26B4  01                 const type 3
26B5  6C9E947C           const [115]: (2090114668)
26B9  04                 const type 4
26BA  0E                 string size (14)
26BB  6D5363616C656448+  "mScaledH"
26C3  65616C746800       "ealth\0"
                         const [116]: "mScaledHealth"
26C9  01                 const type 3
26CA  EF29C276           const [117]: (1992436207)
26CE  01                 const type 3
26CF  FED25B38           const [118]: (945541886)
26D3  01                 const type 3
26D4  855DDF93           const [119]: (-1814078075)
26D8  04                 const type 4
26D9  0E                 string size (14)
26DA  6D5363616C656453+  "mScaledS"
26E2  6869656C6400       "hield\0"
                         const [120]: "mScaledShield"
26E8  01                 const type 3
26E9  C9B13889           const [121]: (-1992773175)
26ED  01                 const type 3
26EE  B79670F2           const [122]: (-227502409)
26F2  01                 const type 3
26F3  7D66E704           const [123]: (82273917)
26F7  04                 const type 4
26F8  0D                 string size (13)
26F9  6D5363616C656441+  "mScaledA"
2701  726D6F7200         "rmor\0"
                         const [124]: "mScaledArmor"
2706  01                 const type 3
2707  93DDD9AB           const [125]: (-1411785325)
270B  04                 const type 4
270C  40                 string size (64)
270D  2F4C6F7475732F54+  "/Lotus/T"
2715  797065732F456E65+  "ypes/Ene"
271D  6D6965732F4B696E+  "mies/Kin"
2725  6770696E732F4B69+  "gpins/Ki"
272D  6E6770696E456E67+  "ngpinEng"
2735  6167656D656E7442+  "agementB"
273D  65686176696F7253+  "ehaviorS"
2745  656C6563746F7200   "elector\0"
                         const [126]: "/Lotus/Types/Enemies/Kingpins/KingpinEngagementBehaviorSelector"
274D  01                 const type 3
274E  7F49B96E           const [127]: (1857636735)
2752  01                 const type 3
2753  A8C822C0           const [128]: (-1071462232)
2757  01                 const type 3
2758  47A00E11           const [129]: (286171207)
275C  01                 const type 3
275D  E999708C           const [130]: (-1938777623)
2761  01                 const type 3
2762  DDC6F405           const [131]: (99927773)
2766  01                 const type 3
2767  F53C12C2           const [132]: (-1038992139)
276B  04                 const type 4
276C  0F                 string size (15)
276D  6D437573746F6D69+  "mCustomi"
2775  7A6174696F6E00     "zation\0"
                         const [133]: "mCustomization"
277C  01                 const type 3
277D  E51402A5           const [134]: (-1526590235)
2781  04                 const type 4
2782  0A                 string size (10)
2783  6D566F696365426F+  "mVoiceBo"
278B  7800               "x\0"
                         const [135]: "mVoiceBox"
278D  01                 const type 3
278E  F3462C43           const [136]: (1126975219)
2792  04                 const type 4
2793  0B                 string size (11)
2794  6D44737045666665+  "mDspEffe"
279C  637400             "ct\0"
                         const [137]: "mDspEffect"
279F  04                 const type 4
27A0  0A                 string size (10)
27A1  6D457068656D6572+  "mEphemer"
27A9  6100               "a\0"
                         const [138]: "mEphemera"
27AB  04                 const type 4
27AC  14                 string size (20)
27AD  6D53686F756C6465+  "mShoulde"
27B5  7248656C6D657444+  "rHelmetD"
27BD  65636F00           "eco\0"
                         const [139]: "mShoulderHelmetDeco"
27C1  04                 const type 4
27C2  1D                 string size (29)
27C3  6D53686F756C6465+  "mShoulde"
27CB  7248656C6D657443+  "rHelmetC"
27D3  7573746F6D697A61+  "ustomiza"
27DB  74696F6E00         "tion\0"
                         const [140]: "mShoulderHelmetCustomization"
27E0  01                 const type 3
27E1  68C51D9F           const [141]: (-1625438872)
27E5  04                 const type 4
27E6  17                 string size (23)
27E7  73686F756C646572+  "shoulder"
27EF  48656C6D65744465+  "HelmetDe"
27F7  636F5479706500     "coType\0"
                         const [142]: "shoulderHelmetDecoType"
27FE  01                 const type 3
27FF  3B467C90           const [143]: (-1870903749)
2803  04                 const type 4
2804  0D                 string size (13)
2805  454D5054595F5359+  "EMPTY_SY"
280D  4D424F4C00         "MBOL\0"
                         const [144]: "EMPTY_SYMBOL"
2812  01                 const type 3
2813  97BBB236           const [145]: (917683095)
2817  01                 const type 3
2818  B0F17D22           const [146]: (578679216)
281C  04                 const type 4
281D  10                 string size (16)
281E  68656C6D65745072+  "helmetPr"
2826  6F6A6563746F7200   "ojector\0"
                         const [147]: "helmetProjector"
282E  04                 const type 4
282F  0C                 string size (12)
2830  5A45524F5F564543+  "ZERO_VEC"
2838  544F5200           "TOR\0"
                         const [148]: "ZERO_VECTOR"
283C  04                 const type 4
283D  0E                 string size (14)
283E  5A45524F5F524F54+  "ZERO_ROT"
2846  4154494F4E00       "ATION\0"
                         const [149]: "ZERO_ROTATION"
284C  01                 const type 3
284D  87380A9B           const [150]: (-1693828985)
2851  01                 const type 3
2852  2A49E683           const [151]: (-2082059990)
2856  04                 const type 4
2857  0D                 string size (13)
2858  54484952445F5045+  "THIRD_PE"
2860  52534F4E00         "RSON\0"
                         const [152]: "THIRD_PERSON"
2865  04                 const type 4
2866  06                 string size (6)
2867  6D5479706500       "mType\0"
                         const [153]: "mType"
286D  01                 const type 3
286E  73123990           const [154]: (-1875307917)
2872  04                 const type 4
2873  17                 string size (23)
2874  4B7576614C696368+  "KuvaLich"
287C  4261636B67726F75+  "Backgrou"
2884  6E644465636F00     "ndDeco\0"
                         const [155]: "KuvaLichBackgroundDeco"
288B  01                 const type 3
288C  4390A5B5           const [156]: (-1247440829)
2890  04                 const type 4
2891  0B                 string size (11)
2892  54696E74436F6C6F+  "TintColo"
289A  723000             "r0\0"
                         const [157]: "TintColor0"
289D  04                 const type 4
289E  0B                 string size (11)
289F  54696E74436F6C6F+  "TintColo"
28A7  723100             "r1\0"
                         const [158]: "TintColor1"
28AA  01                 const type 3
28AB  C50F6DE3           const [159]: (-479391803)
28AF  04                 const type 4
28B0  0B                 string size (11)
28B1  4C6F7475735F4761+  "Lotus_Ga"
28B9  6D6500             "me\0"
                         const [160]: "Lotus_Game"
28BC  04                 const type 4
28BD  0E                 string size (14)
28BE  5072696D61727943+  "PrimaryC"
28C6  6F6C6F727300       "olors\0"
                         const [161]: "PrimaryColors"
28CC  01                 const type 3
28CD  2ED65E3A           const [162]: (979293742)
28D1  01                 const type 3
28D2  7140FE64           const [163]: (1694384241)
28D6  04                 const type 4
28D7  0C                 string size (12)
28D8  6D54696E74436F6C+  "mTintCol"
28E0  6F723000           "or0\0"
                         const [164]: "mTintColor0"
28E4  04                 const type 4
28E5  0C                 string size (12)
28E6  6D54696E74436F6C+  "mTintCol"
28EE  6F723100           "or1\0"
                         const [165]: "mTintColor1"
28F2  01                 const type 3
28F3  899C6028           const [166]: (677420169)
28F7  04                 const type 4
28F8  10                 string size (16)
28F9  504C41595F4D454E+  "PLAY_MEN"
2901  555F5441554E5400   "U_TAUNT\0"
                         const [167]: "PLAY_MENU_TAUNT"
2909  04                 const type 4
290A  1A                 string size (26)
290B  5472616E736D6973+  "Transmis"
2913  73696F6E536F756E+  "sionSoun"
291B  64496E7374616E63+  "dInstanc"
2923  6500               "e\0"
                         const [168]: "TransmissionSoundInstance"
2925  01                 const type 3
2926  D48E598B           const [169]: (-1957065004)
292A  04                 const type 4
292B  18                 string size (24)
292C  6E656D6573697354+  "nemesisT"
2934  72616E736D697373+  "ransmiss"
293C  696F6E5479706500   "ionType\0"
                         const [170]: "nemesisTransmissionType"
2944  01                 const type 3
2945  B134C67B           const [171]: (2076587185)
2949  01                 const type 3
294A  3F74C2D4           const [172]: (-725453761)
294E  04                 const type 4
294F  09                 string size (9)
2950  6D616E6966657374+  "manifest"
2958  00                 "\0"
                         const [173]: "manifest"
                         * functions:
2959  00                 sizep (0)
                         * lines:
295B  08                 sizelineinfo (1030)
                         [pc] (line)
295C  AF                 [0001] (-81)
295D  00                 [0002] (-81)
295E  00                 [0003] (-81)
295F  00                 [0004] (-79)
2960  AF                 [0005] (-79)
2961  00                 [0006] (-79)
2962  00                 [0007] (-77)
2963  00                 [0008] (-77)
2964  AF                 [0009] (-77)
2965  00                 [0010] (-75)
2966  00                 [0011] (-75)
2967  00                 [0012] (-75)
2968  B1                 [0013] (-75)
2969  00                 [0014] (-75)
296A  00                 [0015] (-74)
296B  00                 [0016] (-71)
296C  B1                 [0017] (-71)
296D  00                 [0018] (-69)
296E  00                 [0019] (-69)
296F  00                 [0020] (-69)
2970  B1                 [0021] (-68)
2971  00                 [0022] (-68)
2972  00                 [0023] (-68)
2973  00                 [0024] (-68)
2974  B3                 [0025] (-68)
2975  00                 [0026] (-68)
2976  00                 [0027] (-68)
2977  00                 [0028] (-68)
2978  B3                 [0029] (-68)
2979  00                 [0030] (-68)
297A  00                 [0031] (-68)
297B  00                 [0032] (-66)
297C  B3                 [0033] (-63)
297D  00                 [0034] (-62)
297E  00                 [0035] (-60)
297F  00                 [0036] (-60)
2980  B5                 [0037] (-60)
2981  00                 [0038] (-59)
2982  00                 [0039] (-59)
2983  00                 [0040] (-59)
2984  B5                 [0041] (-58)
2985  00                 [0042] (-57)
2986  00                 [0043] (-57)
2987  00                 [0044] (-57)
2988  B5                 [0045] (-57)
2989  00                 [0046] (-57)
298A  00                 [0047] (-57)
298B  00                 [0048] (-57)
298C  B5                 [0049] (-57)
298D  00                 [0050] (-57)
298E  00                 [0051] (-57)
298F  00                 [0052] (-57)
2990  B5                 [0053] (-57)
2991  00                 [0054] (-57)
2992  00                 [0055] (-57)
2993  00                 [0056] (-57)
2994  B6                 [0057] (-56)
2995  00                 [0058] (-56)
2996  00                 [0059] (-56)
2997  00                 [0060] (-56)
2998  B9                 [0061] (-55)
2999  00                 [0062] (-55)
299A  00                 [0063] (-55)
299B  00                 [0064] (-55)
299C  B9                 [0065] (-55)
299D  00                 [0066] (-54)
299E  00                 [0067] (-54)
299F  00                 [0068] (-52)
29A0  BB                 [0069] (-51)
29A1  00                 [0070] (-50)
29A2  00                 [0071] (-50)
29A3  00                 [0072] (-50)
29A4  BB                 [0073] (-50)
29A5  00                 [0074] (-50)
29A6  00                 [0075] (-50)
29A7  00                 [0076] (-48)
29A8  BB                 [0077] (-48)
29A9  00                 [0078] (-48)
29AA  00                 [0079] (-48)
29AB  00                 [0080] (-48)
29AC  BC                 [0081] (-47)
29AD  00                 [0082] (-47)
29AE  00                 [0083] (-47)
29AF  00                 [0084] (-47)
29B0  BC                 [0085] (-47)
29B1  00                 [0086] (-47)
29B2  00                 [0087] (-47)
29B3  00                 [0088] (-47)
29B4  BC                 [0089] (-47)
29B5  00                 [0090] (-47)
29B6  00                 [0091] (-47)
29B7  00                 [0092] (-46)
29B8  BC                 [0093] (-46)
29B9  00                 [0094] (-46)
29BA  00                 [0095] (-45)
29BB  00                 [0096] (-45)
29BC  BC                 [0097] (-45)
29BD  00                 [0098] (-45)
29BE  00                 [0099] (-43)
29BF  00                 [0100] (-43)
29C0  BC                 [0101] (-43)
29C1  00                 [0102] (-43)
29C2  00                 [0103] (-41)
29C3  00                 [0104] (-41)
29C4  BC                 [0105] (-41)
29C5  00                 [0106] (-41)
29C6  00                 [0107] (-41)
29C7  00                 [0108] (-41)
29C8  BC                 [0109] (-41)
29C9  00                 [0110] (-41)
29CA  00                 [0111] (-41)
29CB  00                 [0112] (-41)
29CC  BC                 [0113] (-40)
29CD  00                 [0114] (-40)
29CE  00                 [0115] (-40)
29CF  00                 [0116] (-40)
29D0  BC                 [0117] (-40)
29D1  00                 [0118] (-39)
29D2  00                 [0119] (-38)
29D3  00                 [0120] (-37)
29D4  BC                 [0121] (-37)
29D5  00                 [0122] (-37)
29D6  00                 [0123] (-37)
29D7  00                 [0124] (-37)
29D8  BE                 [0125] (-37)
29D9  00                 [0126] (-37)
29DA  00                 [0127] (-37)
29DB  00                 [0128] (-36)
29DC  C1                 [0129] (-36)
29DD  00                 [0130] (-36)
29DE  00                 [0131] (-35)
29DF  00                 [0132] (-35)
29E0  C2                 [0133] (-35)
29E1  00                 [0134] (-35)
29E2  00                 [0135] (-35)
29E3  00                 [0136] (-35)
29E4  C4                 [0137] (-35)
29E5  00                 [0138] (-35)
29E6  00                 [0139] (-35)
29E7  00                 [0140] (-35)
29E8  C4                 [0141] (-35)
29E9  00                 [0142] (-34)
29EA  00                 [0143] (-34)
29EB  00                 [0144] (-34)
29EC  C4                 [0145] (-33)
29ED  00                 [0146] (-33)
29EE  00                 [0147] (-33)
29EF  00                 [0148] (-32)
29F0  C5                 [0149] (-32)
29F1  00                 [0150] (-32)
29F2  00                 [0151] (-31)
29F3  00                 [0152] (-31)
29F4  C5                 [0153] (-31)
29F5  00                 [0154] (-31)
29F6  00                 [0155] (-31)
29F7  00                 [0156] (-30)
29F8  C5                 [0157] (-28)
29F9  00                 [0158] (-28)
29FA  00                 [0159] (-28)
29FB  00                 [0160] (-28)
29FC  C6                 [0161] (-28)
29FD  00                 [0162] (-27)
29FE  00                 [0163] (-27)
29FF  00                 [0164] (-26)
2A00  C7                 [0165] (-25)
2A01  00                 [0166] (-25)
2A02  00                 [0167] (-24)
2A03  00                 [0168] (-24)
2A04  C7                 [0169] (-24)
2A05  00                 [0170] (-23)
2A06  00                 [0171] (-23)
2A07  00                 [0172] (-23)
2A08  C7                 [0173] (-23)
2A09  00                 [0174] (-21)
2A0A  00                 [0175] (-21)
2A0B  00                 [0176] (-21)
2A0C  C7                 [0177] (-21)
2A0D  00                 [0178] (-21)
2A0E  00                 [0179] (-21)
2A0F  00                 [0180] (-20)
2A10  C7                 [0181] (-20)
2A11  00                 [0182] (-20)
2A12  00                 [0183] (-20)
2A13  00                 [0184] (-20)
2A14  C7                 [0185] (-19)
2A15  00                 [0186] (-19)
2A16  00                 [0187] (-19)
2A17  00                 [0188] (-19)
2A18  C7                 [0189] (-17)
2A19  00                 [0190] (-14)
2A1A  00                 [0191] (-14)
2A1B  00                 [0192] (-14)
2A1C  C7                 [0193] (-13)
2A1D  00                 [0194] (-13)
2A1E  00                 [0195] (-13)
2A1F  00                 [0196] (-13)
2A20  C7                 [0197] (-11)
2A21  00                 [0198] (-9)
2A22  00                 [0199] (-9)
2A23  00                 [0200] (-9)
2A24  C7                 [0201] (-9)
2A25  00                 [0202] (-9)
2A26  00                 [0203] (-9)
2A27  00                 [0204] (-9)
2A28  C7                 [0205] (-9)
2A29  00                 [0206] (-9)
2A2A  00                 [0207] (-7)
2A2B  00                 [0208] (-7)
2A2C  C7                 [0209] (-7)
2A2D  00                 [0210] (-6)
2A2E  00                 [0211] (-6)
2A2F  00                 [0212] (-5)
2A30  C7                 [0213] (-5)
2A31  00                 [0214] (-5)
2A32  00                 [0215] (-5)
2A33  00                 [0216] (-5)
2A34  C7                 [0217] (-3)
2A35  00                 [0218] (-3)
2A36  00                 [0219] (-3)
2A37  00                 [0220] (-3)
2A38  C7                 [0221] (-1)
2A39  00                 [0222] (-1)
2A3A  00                 [0223] (2)
2A3B  00                 [0224] (2)
2A3C  C8                 [0225] (2)
2A3D  00                 [0226] (3)
2A3E  00                 [0227] (4)
2A3F  00                 [0228] (4)
2A40  C8                 [0229] (4)
2A41  00                 [0230] (4)
2A42  00                 [0231] (4)
2A43  00                 [0232] (5)
2A44  C8                 [0233] (6)
2A45  00                 [0234] (9)
2A46  00                 [0235] (9)
2A47  00                 [0236] (10)
2A48  C8                 [0237] (10)
2A49  00                 [0238] (10)
2A4A  00                 [0239] (11)
2A4B  00                 [0240] (14)
2A4C  C9                 [0241] (15)
2A4D  00                 [0242] (15)
2A4E  00                 [0243] (15)
2A4F  00                 [0244] (16)
2A50  C9                 [0245] (16)
2A51  00                 [0246] (16)
2A52  00                 [0247] (16)
2A53  00                 [0248] (16)
2A54  C9                 [0249] (16)
2A55  00                 [0250] (16)
2A56  00                 [0251] (16)
2A57  00                 [0252] (16)
2A58  C9                 [0253] (16)
2A59  00                 [0254] (16)
2A5A  00                 [0255] (16)
2A5B  00                 [0256] (17)
2A5C  C9                 [0257] (17)
2A5D  00                 [0258] (17)
2A5E  00                 [0259] (17)
2A5F  00                 [0260] (19)
2A60  CA                 [0261] (19)
2A61  00                 [0262] (20)
2A62  00                 [0263] (20)
2A63  00                 [0264] (20)
2A64  CA                 [0265] (22)
2A65  00                 [0266] (22)
2A66  00                 [0267] (22)
2A67  00                 [0268] (22)
2A68  CC                 [0269] (23)
2A69  00                 [0270] (23)
2A6A  00                 [0271] (23)
2A6B  00                 [0272] (23)
2A6C  CD                 [0273] (25)
2A6D  00                 [0274] (25)
2A6E  00                 [0275] (25)
2A6F  00                 [0276] (25)
2A70  CE                 [0277] (26)
2A71  00                 [0278] (26)
2A72  00                 [0279] (26)
2A73  00                 [0280] (26)
2A74  CE                 [0281] (30)
2A75  00                 [0282] (30)
2A76  00                 [0283] (31)
2A77  00                 [0284] (31)
2A78  CE                 [0285] (33)
2A79  00                 [0286] (33)
2A7A  00                 [0287] (33)
2A7B  00                 [0288] (35)
2A7C  CE                 [0289] (35)
2A7D  00                 [0290] (35)
2A7E  00                 [0291] (35)
2A7F  00                 [0292] (35)
2A80  CE                 [0293] (35)
2A81  00                 [0294] (35)
2A82  00                 [0295] (35)
2A83  00                 [0296] (36)
2A84  CE                 [0297] (36)
2A85  00                 [0298] (37)
2A86  00                 [0299] (37)
2A87  00                 [0300] (37)
2A88  D0                 [0301] (37)
2A89  00                 [0302] (37)
2A8A  00                 [0303] (37)
2A8B  00                 [0304] (37)
2A8C  D0                 [0305] (39)
2A8D  00                 [0306] (39)
2A8E  00                 [0307] (39)
2A8F  00                 [0308] (39)
2A90  D0                 [0309] (39)
2A91  00                 [0310] (39)
2A92  00                 [0311] (42)
2A93  00                 [0312] (42)
2A94  D0                 [0313] (42)
2A95  00                 [0314] (42)
2A96  00                 [0315] (43)
2A97  00                 [0316] (43)
2A98  D0                 [0317] (43)
2A99  00                 [0318] (46)
2A9A  00                 [0319] (46)
2A9B  00                 [0320] (47)
2A9C  D1                 [0321] (47)
2A9D  00                 [0322] (47)
2A9E  00                 [0323] (47)
2A9F  00                 [0324] (49)
2AA0  D1                 [0325] (49)
2AA1  00                 [0326] (51)
2AA2  00                 [0327] (51)
2AA3  00                 [0328] (51)
2AA4  D1                 [0329] (51)
2AA5  00                 [0330] (51)
2AA6  00                 [0331] (52)
2AA7  00                 [0332] (52)
2AA8  D1                 [0333] (52)
2AA9  00                 [0334] (54)
2AAA  00                 [0335] (54)
2AAB  00                 [0336] (55)
2AAC  D1                 [0337] (55)
2AAD  00                 [0338] (55)
2AAE  00                 [0339] (55)
2AAF  00                 [0340] (55)
2AB0  D1                 [0341] (56)
2AB1  00                 [0342] (56)
2AB2  00                 [0343] (56)
2AB3  00                 [0344] (56)
2AB4  D1                 [0345] (56)
2AB5  00                 [0346] (60)
2AB6  00                 [0347] (60)
2AB7  00                 [0348] (60)
2AB8  D1                 [0349] (60)
2AB9  00                 [0350] (60)
2ABA  00                 [0351] (64)
2ABB  00                 [0352] (66)
2ABC  D1                 [0353] (66)
2ABD  00                 [0354] (66)
2ABE  00                 [0355] (66)
2ABF  00                 [0356] (66)
2AC0  D1                 [0357] (67)
2AC1  00                 [0358] (67)
2AC2  00                 [0359] (67)
2AC3  00                 [0360] (68)
2AC4  D1                 [0361] (68)
2AC5  00                 [0362] (68)
2AC6  00                 [0363] (68)
2AC7  00                 [0364] (68)
2AC8  D2                 [0365] (68)
2AC9  00                 [0366] (69)
2ACA  00                 [0367] (69)
2ACB  00                 [0368] (69)
2ACC  D2                 [0369] (69)
2ACD  00                 [0370] (69)
2ACE  00                 [0371] (69)
2ACF  00                 [0372] (70)
2AD0  D2                 [0373] (70)
2AD1  00                 [0374] (70)
2AD2  00                 [0375] (70)
2AD3  00                 [0376] (70)
2AD4  D3                 [0377] (70)
2AD5  00                 [0378] (70)
2AD6  00                 [0379] (69)
2AD7  00                 [0380] (72)
2AD8  D3                 [0381] (72)
2AD9  00                 [0382] (72)
2ADA  00                 [0383] (75)
2ADB  00                 [0384] (75)
2ADC  D3                 [0385] (75)
2ADD  00                 [0386] (75)
2ADE  00                 [0387] (75)
2ADF  00                 [0388] (75)
2AE0  D3                 [0389] (75)
2AE1  00                 [0390] (79)
2AE2  00                 [0391] (81)
2AE3  00                 [0392] (81)
2AE4  D5                 [0393] (81)
2AE5  00                 [0394] (81)
2AE6  00                 [0395] (81)
2AE7  00                 [0396] (81)
2AE8  D5                 [0397] (81)
2AE9  00                 [0398] (82)
2AEA  00                 [0399] (82)
2AEB  00                 [0400] (82)
2AEC  D5                 [0401] (82)
2AED  00                 [0402] (82)
2AEE  00                 [0403] (83)
2AEF  00                 [0404] (83)
2AF0  D5                 [0405] (83)
2AF1  00                 [0406] (84)
2AF2  00                 [0407] (84)
2AF3  00                 [0408] (84)
2AF4  D7                 [0409] (84)
2AF5  00                 [0410] (87)
2AF6  00                 [0411] (87)
2AF7  00                 [0412] (87)
2AF8  D7                 [0413] (89)
2AF9  00                 [0414] (89)
2AFA  00                 [0415] (89)
2AFB  00                 [0416] (89)
2AFC  D7                 [0417] (89)
2AFD  00                 [0418] (90)
2AFE  00                 [0419] (90)
2AFF  00                 [0420] (90)
2B00  D7                 [0421] (90)
2B01  00                 [0422] (90)
2B02  00                 [0423] (91)
2B03  00                 [0424] (91)
2B04  D7                 [0425] (91)
2B05  00                 [0426] (92)
2B06  00                 [0427] (92)
2B07  00                 [0428] (92)
2B08  D7                 [0429] (95)
2B09  00                 [0430] (95)
2B0A  00                 [0431] (95)
2B0B  00                 [0432] (96)
2B0C  D7                 [0433] (96)
2B0D  00                 [0434] (96)
2B0E  00                 [0435] (96)
2B0F  00                 [0436] (96)
2B10  D7                 [0437] (96)
2B11  00                 [0438] (99)
2B12  00                 [0439] (99)
2B13  00                 [0440] (99)
2B14  D7                 [0441] (99)
2B15  00                 [0442] (99)
2B16  00                 [0443] (99)
2B17  00                 [0444] (99)
2B18  D7                 [0445] (99)
2B19  00                 [0446] (99)
2B1A  00                 [0447] (100)
2B1B  00                 [0448] (100)
2B1C  D8                 [0449] (100)
2B1D  00                 [0450] (100)
2B1E  00                 [0451] (101)
2B1F  00                 [0452] (101)
2B20  D8                 [0453] (101)
2B21  00                 [0454] (101)
2B22  00                 [0455] (101)
2B23  00                 [0456] (101)
2B24  D8                 [0457] (102)
2B25  00                 [0458] (102)
2B26  00                 [0459] (102)
2B27  00                 [0460] (100)
2B28  D8                 [0461] (102)
2B29  00                 [0462] (106)
2B2A  00                 [0463] (106)
2B2B  00                 [0464] (106)
2B2C  D8                 [0465] (106)
2B2D  00                 [0466] (106)
2B2E  00                 [0467] (107)
2B2F  00                 [0468] (108)
2B30  D9                 [0469] (108)
2B31  00                 [0470] (108)
2B32  00                 [0471] (108)
2B33  00                 [0472] (109)
2B34  DA                 [0473] (110)
2B35  00                 [0474] (110)
2B36  00                 [0475] (110)
2B37  00                 [0476] (110)
2B38  DB                 [0477] (110)
2B39  00                 [0478] (110)
2B3A  00                 [0479] (111)
2B3B  00                 [0480] (111)
2B3C  DB                 [0481] (111)
2B3D  00                 [0482] (108)
2B3E  00                 [0483] (116)
2B3F  00                 [0484] (116)
2B40  DB                 [0485] (116)
2B41  00                 [0486] (116)
2B42  00                 [0487] (116)
2B43  00                 [0488] (116)
2B44  DB                 [0489] (117)
2B45  00                 [0490] (117)
2B46  00                 [0491] (117)
2B47  00                 [0492] (117)
2B48  DB                 [0493] (117)
2B49  00                 [0494] (117)
2B4A  00                 [0495] (117)
2B4B  00                 [0496] (117)
2B4C  DB                 [0497] (117)
2B4D  00                 [0498] (117)
2B4E  00                 [0499] (118)
2B4F  00                 [0500] (118)
2B50  DB                 [0501] (118)
2B51  00                 [0502] (118)
2B52  00                 [0503] (118)
2B53  00                 [0504] (118)
2B54  DB                 [0505] (119)
2B55  00                 [0506] (119)
2B56  00                 [0507] (119)
2B57  00                 [0508] (119)
2B58  DC                 [0509] (119)
2B59  00                 [0510] (120)
2B5A  00                 [0511] (120)
2B5B  00                 [0512] (120)
2B5C  DC                 [0513] (121)
2B5D  00                 [0514] (121)
2B5E  00                 [0515] (121)
2B5F  00                 [0516] (125)
2B60  DC                 [0517] (125)
2B61  00                 [0518] (125)
2B62  00                 [0519] (125)
2B63  00                 [0520] (125)
2B64  DD                 [0521] (126)
2B65  00                 [0522] (126)
2B66  00                 [0523] (127)
2B67  00                 [0524] (127)
2B68  DD                 [0525] (127)
2B69  00                 [0526] (127)
2B6A  00                 [0527] (127)
2B6B  00                 [0528] (-128)
2B6C  DD                 [0529] (-128)
2B6D  00                 [0530] (-128)
2B6E  00                 [0531] (-128)
2B6F  00                 [0532] (-128)
2B70  DD                 [0533] (-128)
2B71  00                 [0534] (-128)
2B72  00                 [0535] (-128)
2B73  00                 [0536] (-128)
2B74  DD                 [0537] (-124)
2B75  00                 [0538] (-124)
2B76  00                 [0539] (-124)
2B77  00                 [0540] (-123)
2B78  DD                 [0541] (-121)
2B79  00                 [0542] (-120)
2B7A  00                 [0543] (-120)
2B7B  00                 [0544] (-120)
2B7C  DD                 [0545] (-120)
2B7D  00                 [0546] (-119)
2B7E  00                 [0547] (-118)
2B7F  00                 [0548] (-118)
2B80  DD                 [0549] (-118)
2B81  00                 [0550] (-118)
2B82  00                 [0551] (-118)
2B83  00                 [0552] (-118)
2B84  DD                 [0553] (-118)
2B85  00                 [0554] (-118)
2B86  00                 [0555] (-118)
2B87  00                 [0556] (-120)
2B88  DD                 [0557] (-115)
2B89  00                 [0558] (-114)
2B8A  00                 [0559] (-114)
2B8B  00                 [0560] (-114)
2B8C  DD                 [0561] (-114)
2B8D  00                 [0562] (-113)
2B8E  00                 [0563] (-112)
2B8F  00                 [0564] (-112)
2B90  DE                 [0565] (-112)
2B91  00                 [0566] (-112)
2B92  00                 [0567] (-112)
2B93  00                 [0568] (-112)
2B94  DE                 [0569] (-112)
2B95  00                 [0570] (-112)
2B96  00                 [0571] (-112)
2B97  00                 [0572] (-114)
2B98  DE                 [0573] (-109)
2B99  00                 [0574] (-108)
2B9A  00                 [0575] (-108)
2B9B  00                 [0576] (-108)
2B9C  DF                 [0577] (-108)
2B9D  00                 [0578] (-107)
2B9E  00                 [0579] (-106)
2B9F  00                 [0580] (-106)
2BA0  DF                 [0581] (-106)
2BA1  00                 [0582] (-106)
2BA2  00                 [0583] (-106)
2BA3  00                 [0584] (-106)
2BA4  DF                 [0585] (-106)
2BA5  00                 [0586] (-106)
2BA6  00                 [0587] (-106)
2BA7  00                 [0588] (-108)
2BA8  E0                 [0589] (-103)
2BA9  00                 [0590] (-102)
2BAA  00                 [0591] (-102)
2BAB  00                 [0592] (-102)
2BAC  E0                 [0593] (-102)
2BAD  00                 [0594] (-101)
2BAE  00                 [0595] (-101)
2BAF  00                 [0596] (-101)
2BB0  E0                 [0597] (-100)
2BB1  00                 [0598] (-100)
2BB2  00                 [0599] (-100)
2BB3  00                 [0600] (-100)
2BB4  E1                 [0601] (-100)
2BB5  00                 [0602] (-99)
2BB6  00                 [0603] (-99)
2BB7  00                 [0604] (-99)
2BB8  E1                 [0605] (-99)
2BB9  00                 [0606] (-98)
2BBA  00                 [0607] (-98)
2BBB  00                 [0608] (-98)
2BBC  E1                 [0609] (-102)
2BBD  00                 [0610] (-93)
2BBE  00                 [0611] (-93)
2BBF  00                 [0612] (-93)
2BC0  E1                 [0613] (-92)
2BC1  00                 [0614] (-92)
2BC2  00                 [0615] (-92)
2BC3  00                 [0616] (-92)
2BC4  E1                 [0617] (-92)
2BC5  00                 [0618] (-91)
2BC6  00                 [0619] (-91)
2BC7  00                 [0620] (-91)
2BC8  E2                 [0621] (-91)
2BC9  00                 [0622] (-91)
2BCA  00                 [0623] (-91)
2BCB  00                 [0624] (-90)
2BCC  E4                 [0625] (-90)
2BCD  00                 [0626] (-90)
2BCE  00                 [0627] (-85)
2BCF  00                 [0628] (-85)
2BD0  E4                 [0629] (-85)
2BD1  00                 [0630] (-84)
2BD2  00                 [0631] (-84)
2BD3  00                 [0632] (-84)
2BD4  E4                 [0633] (-84)
2BD5  00                 [0634] (-83)
2BD6  00                 [0635] (-83)
2BD7  00                 [0636] (-83)
2BD8  E4                 [0637] (-82)
2BD9  00                 [0638] (-82)
2BDA  00                 [0639] (-82)
2BDB  00                 [0640] (-82)
2BDC  E4                 [0641] (-81)
2BDD  00                 [0642] (-81)
2BDE  00                 [0643] (-81)
2BDF  00                 [0644] (-79)
2BE0  E5                 [0645] (-79)
2BE1  00                 [0646] (-78)
2BE2  00                 [0647] (-78)
2BE3  00                 [0648] (-78)
2BE4  E5                 [0649] (-78)
2BE5  00                 [0650] (-78)
2BE6  00                 [0651] (-75)
2BE7  00                 [0652] (-75)
2BE8  E6                 [0653] (-75)
2BE9  00                 [0654] (-73)
2BEA  00                 [0655] (-73)
2BEB  00                 [0656] (-73)
2BEC  E7                 [0657] (-73)
2BED  00                 [0658] (-73)
2BEE  00                 [0659] (-72)
2BEF  00                 [0660] (-72)
2BF0  E7                 [0661] (-71)
2BF1  00                 [0662] (-71)
2BF2  00                 [0663] (-71)
2BF3  00                 [0664] (-71)
2BF4  E8                 [0665] (-71)
2BF5  00                 [0666] (-71)
2BF6  00                 [0667] (-71)
2BF7  00                 [0668] (-71)
2BF8  E8                 [0669] (-71)
2BF9  00                 [0670] (-71)
2BFA  00                 [0671] (-70)
2BFB  00                 [0672] (-70)
2BFC  E8                 [0673] (-70)
2BFD  00                 [0674] (-70)
2BFE  00                 [0675] (-70)
2BFF  00                 [0676] (-66)
2C00  E9                 [0677] (-66)
2C01  00                 [0678] (-64)
2C02  00                 [0679] (-61)
2C03  00                 [0680] (-59)
2C04  E9                 [0681] (-59)
2C05  00                 [0682] (-59)
2C06  00                 [0683] (-58)
2C07  00                 [0684] (-58)
2C08  E9                 [0685] (-58)
2C09  00                 [0686] (-57)
2C0A  00                 [0687] (-57)
2C0B  00                 [0688] (-57)
2C0C  E9                 [0689] (-57)
2C0D  00                 [0690] (-57)
2C0E  00                 [0691] (-54)
2C0F  00                 [0692] (-54)
2C10  EB                 [0693] (-54)
2C11  00                 [0694] (-54)
2C12  00                 [0695] (-54)
2C13  00                 [0696] (-53)
2C14  EB                 [0697] (-53)
2C15  00                 [0698] (-53)
2C16  00                 [0699] (-53)
2C17  00                 [0700] (-53)
2C18  EB                 [0701] (-52)
2C19  00                 [0702] (-52)
2C1A  00                 [0703] (-52)
2C1B  00                 [0704] (-51)
2C1C  EB                 [0705] (-51)
2C1D  00                 [0706] (-51)
2C1E  00                 [0707] (-48)
2C1F  00                 [0708] (-48)
2C20  EB                 [0709] (-48)
2C21  00                 [0710] (-47)
2C22  00                 [0711] (-47)
2C23  00                 [0712] (-47)
2C24  EB                 [0713] (-47)
2C25  00                 [0714] (-47)
2C26  00                 [0715] (-47)
2C27  00                 [0716] (-42)
2C28  EC                 [0717] (-42)
2C29  00                 [0718] (-42)
2C2A  00                 [0719] (-42)
2C2B  00                 [0720] (-42)
2C2C  EC                 [0721] (-41)
2C2D  00                 [0722] (-41)
2C2E  00                 [0723] (-38)
2C2F  00                 [0724] (-38)
2C30  EC                 [0725] (-38)
2C31  00                 [0726] (-37)
2C32  00                 [0727] (-37)
2C33  00                 [0728] (-37)
2C34  EC                 [0729] (-36)
2C35  00                 [0730] (-36)
2C36  00                 [0731] (-36)
2C37  00                 [0732] (-34)
2C38  EC                 [0733] (-34)
2C39  00                 [0734] (-34)
2C3A  00                 [0735] (-34)
2C3B  00                 [0736] (-34)
2C3C  ED                 [0737] (-33)
2C3D  00                 [0738] (-33)
2C3E  00                 [0739] (-33)
2C3F  00                 [0740] (-32)
2C40  ED                 [0741] (-32)
2C41  00                 [0742] (-32)
2C42  00                 [0743] (-29)
2C43  00                 [0744] (-29)
2C44  ED                 [0745] (-29)
2C45  00                 [0746] (-27)
2C46  00                 [0747] (-27)
2C47  00                 [0748] (-27)
2C48  ED                 [0749] (-27)
2C49  00                 [0750] (-27)
2C4A  00                 [0751] (-26)
2C4B  00                 [0752] (-26)
2C4C  EF                 [0753] (-26)
2C4D  00                 [0754] (-26)
2C4E  00                 [0755] (-26)
2C4F  00                 [0756] (-24)
2C50  F2                 [0757] (-24)
2C51  00                 [0758] (-24)
2C52  00                 [0759] (-24)
2C53  00                 [0760] (-24)
2C54  F2                 [0761] (-24)
2C55  00                 [0762] (-24)
2C56  00                 [0763] (-24)
2C57  00                 [0764] (-24)
2C58  F2                 [0765] (-24)
2C59  00                 [0766] (-23)
2C5A  00                 [0767] (-23)
2C5B  00                 [0768] (-23)
2C5C  F3                 [0769] (-23)
2C5D  00                 [0770] (-23)
2C5E  00                 [0771] (-23)
2C5F  00                 [0772] (-23)
2C60  F3                 [0773] (-22)
2C61  00                 [0774] (-22)
2C62  00                 [0775] (-22)
2C63  00                 [0776] (-22)
2C64  F3                 [0777] (-22)
2C65  00                 [0778] (-22)
2C66  00                 [0779] (-21)
2C67  00                 [0780] (-21)
2C68  F3                 [0781] (-21)
2C69  00                 [0782] (-21)
2C6A  00                 [0783] (-21)
2C6B  00                 [0784] (-20)
2C6C  F5                 [0785] (-20)
2C6D  00                 [0786] (-20)
2C6E  00                 [0787] (-19)
2C6F  00                 [0788] (-19)
2C70  F7                 [0789] (-19)
2C71  00                 [0790] (-14)
2C72  00                 [0791] (-14)
2C73  00                 [0792] (-14)
2C74  F7                 [0793] (-14)
2C75  00                 [0794] (-14)
2C76  00                 [0795] (-12)
2C77  00                 [0796] (-10)
2C78  F7                 [0797] (-10)
2C79  00                 [0798] (-10)
2C7A  00                 [0799] (-10)
2C7B  00                 [0800] (-10)
2C7C  F7                 [0801] (-9)
2C7D  00                 [0802] (-8)
2C7E  00                 [0803] (-8)
2C7F  00                 [0804] (-6)
2C80  F7                 [0805] (-5)
2C81  00                 [0806] (-2)
2C82  00                 [0807] (-2)
2C83  00                 [0808] (-2)
2C84  F7                 [0809] (-2)
2C85  00                 [0810] (-2)
2C86  00                 [0811] (-1)
2C87  00                 [0812] (-1)
2C88  F7                 [0813] (-1)
2C89  00                 [0814] (0)
2C8A  00                 [0815] (0)
2C8B  00                 [0816] (0)
2C8C  F7                 [0817] (0)
2C8D  00                 [0818] (0)
2C8E  00                 [0819] (1)
2C8F  00                 [0820] (1)
2C90  F7                 [0821] (2)
2C91  00                 [0822] (2)
2C92  00                 [0823] (3)
2C93  00                 [0824] (3)
2C94  F9                 [0825] (3)
2C95  00                 [0826] (3)
2C96  00                 [0827] (3)
2C97  00                 [0828] (3)
2C98  F9                 [0829] (3)
2C99  00                 [0830] (3)
2C9A  00                 [0831] (3)
2C9B  00                 [0832] (3)
2C9C  F9                 [0833] (4)
2C9D  00                 [0834] (4)
2C9E  00                 [0835] (4)
2C9F  00                 [0836] (4)
2CA0  FA                 [0837] (4)
2CA1  00                 [0838] (4)
2CA2  00                 [0839] (5)
2CA3  00                 [0840] (5)
2CA4  FA                 [0841] (5)
2CA5  00                 [0842] (5)
2CA6  00                 [0843] (9)
2CA7  00                 [0844] (9)
2CA8  FB                 [0845] (9)
2CA9  00                 [0846] (10)
2CAA  00                 [0847] (10)
2CAB  00                 [0848] (10)
2CAC  FB                 [0849] (10)
2CAD  00                 [0850] (10)
2CAE  00                 [0851] (11)
2CAF  00                 [0852] (11)
2CB0  FB                 [0853] (11)
2CB1  00                 [0854] (11)
2CB2  00                 [0855] (11)
2CB3  00                 [0856] (11)
2CB4  FB                 [0857] (12)
2CB5  00                 [0858] (12)
2CB6  00                 [0859] (12)
2CB7  00                 [0860] (12)
2CB8  FB                 [0861] (13)
2CB9  00                 [0862] (13)
2CBA  00                 [0863] (14)
2CBB  00                 [0864] (14)
2CBC  FD                 [0865] (14)
2CBD  00                 [0866] (14)
2CBE  00                 [0867] (14)
2CBF  00                 [0868] (15)
2CC0  FD                 [0869] (15)
2CC1  00                 [0870] (15)
2CC2  00                 [0871] (15)
2CC3  00                 [0872] (15)
2CC4  FD                 [0873] (15)
2CC5  00                 [0874] (15)
2CC6  00                 [0875] (15)
2CC7  00                 [0876] (12)
2CC8  FD                 [0877] (18)
2CC9  00                 [0878] (18)
2CCA  00                 [0879] (18)
2CCB  00                 [0880] (18)
2CCC  FF                 [0881] (18)
2CCD  00                 [0882] (18)
2CCE  00                 [0883] (19)
2CCF  00                 [0884] (19)
2CD0  FF                 [0885] (19)
2CD1  00                 [0886] (26)
2CD2  00                 [0887] (26)
2CD3  00                 [0888] (26)
2CD4  02                 [0889] (26)
2CD5  01                 [0890] (26)
2CD6  00                 [0891] (27)
2CD7  00                 [0892] (27)
2CD8  02                 [0893] (27)
2CD9  01                 [0894] (27)
2CDA  00                 [0895] (27)
2CDB  00                 [0896] (28)
2CDC  02                 [0897] (28)
2CDD  01                 [0898] (29)
2CDE  00                 [0899] (29)
2CDF  00                 [0900] (29)
2CE0  03                 [0901] (30)
2CE1  01                 [0902] (30)
2CE2  00                 [0903] (30)
2CE3  00                 [0904] (31)
2CE4  04                 [0905] (31)
2CE5  01                 [0906] (31)
2CE6  00                 [0907] (31)
2CE7  00                 [0908] (31)
2CE8  04                 [0909] (32)
2CE9  01                 [0910] (32)
2CEA  00                 [0911] (32)
2CEB  00                 [0912] (32)
2CEC  04                 [0913] (32)
2CED  01                 [0914] (32)
2CEE  00                 [0915] (33)
2CEF  00                 [0916] (33)
2CF0  04                 [0917] (33)
2CF1  01                 [0918] (33)
2CF2  00                 [0919] (33)
2CF3  00                 [0920] (36)
2CF4  04                 [0921] (36)
2CF5  01                 [0922] (36)
2CF6  00                 [0923] (36)
2CF7  00                 [0924] (36)
2CF8  05                 [0925] (36)
2CF9  01                 [0926] (37)
2CFA  00                 [0927] (37)
2CFB  00                 [0928] (37)
2CFC  06                 [0929] (37)
2CFD  01                 [0930] (37)
2CFE  00                 [0931] (43)
2CFF  00                 [0932] (43)
2D00  09                 [0933] (43)
2D01  01                 [0934] (44)
2D02  00                 [0935] (44)
2D03  00                 [0936] (44)
2D04  09                 [0937] (44)
2D05  01                 [0938] (44)
2D06  00                 [0939] (46)
2D07  00                 [0940] (46)
2D08  0A                 [0941] (46)
2D09  01                 [0942] (46)
2D0A  00                 [0943] (46)
2D0B  00                 [0944] (47)
2D0C  0A                 [0945] (47)
2D0D  01                 [0946] (47)
2D0E  00                 [0947] (49)
2D0F  00                 [0948] (49)
2D10  0A                 [0949] (50)
2D11  01                 [0950] (50)
2D12  00                 [0951] (50)
2D13  00                 [0952] (50)
2D14  0B                 [0953] (50)
2D15  01                 [0954] (51)
2D16  00                 [0955] (51)
2D17  00                 [0956] (51)
2D18  0E                 [0957] (52)
2D19  01                 [0958] (52)
2D1A  00                 [0959] (52)
2D1B  00                 [0960] (55)
2D1C  0F                 [0961] (56)
2D1D  01                 [0962] (56)
2D1E  00                 [0963] (56)
2D1F  00                 [0964] (56)
2D20  0F                 [0965] (56)
2D21  01                 [0966] (56)
2D22  00                 [0967] (56)
2D23  00                 [0968] (56)
2D24  0F                 [0969] (56)
2D25  01                 [0970] (56)
2D26  00                 [0971] (56)
2D27  00                 [0972] (56)
2D28  10                 [0973] (56)
2D29  01                 [0974] (57)
2D2A  00                 [0975] (57)
2D2B  00                 [0976] (57)
2D2C  10                 [0977] (58)
2D2D  01                 [0978] (58)
2D2E  00                 [0979] (61)
2D2F  00                 [0980] (61)
2D30  10                 [0981] (61)
2D31  01                 [0982] (61)
2D32  00                 [0983] (61)
2D33  00                 [0984] (62)
2D34  10                 [0985] (62)
2D35  01                 [0986] (62)
2D36  00                 [0987] (62)
2D37  00                 [0988] (65)
2D38  10                 [0989] (65)
2D39  01                 [0990] (65)
2D3A  00                 [0991] (65)
2D3B  00                 [0992] (66)
2D3C  10                 [0993] (66)
2D3D  01                 [0994] (66)
2D3E  00                 [0995] (66)
2D3F  00                 [0996] (69)
2D40  10                 [0997] (69)
2D41  01                 [0998] (69)
2D42  00                 [0999] (73)
2D43  00                 [1000] (73)
2D44  10                 [1001] (73)
2D45  01                 [1002] (73)
2D46  00                 [1003] (73)
2D47  00                 [1004] (73)
2D48  10                 [1005] (73)
2D49  01                 [1006] (73)
2D4A  00                 [1007] (73)
2D4B  00                 [1008] (73)
2D4C  10                 [1009] (74)
2D4D  01                 [1010] (74)
2D4E  00                 [1011] (75)
2D4F  00                 [1012] (76)
2D50  10                 [1013] (77)
2D51  01                 [1014] (78)
2D52  00                 [1015] (78)
2D53  00                 [1016] (78)
2D54  10                 [1017] (78)
2D55  01                 [1018] (79)
2D56  00                 [1019] (82)
2D57  00                 [1020] (82)
2D58  11                 [1021] (83)
2D59  01                 [1022] (83)
2D5A  00                 [1023] (84)
2D5B  00                 [1024] (84)
2D5C  11                 [1025] (84)
2D5D  01                 [1026] (84)
2D5E  00                 [1027] (86)
2D5F  00                 [1028] (86)
2D60  11                 [1029] (86)
2D61  01                 [1030] (89)
                         * locals:
3974  00                 sizelocvars (0)
                         * upvalues:
3975  00                 sizeupvalues (0)
                         ** end of function **

                         
3976                     ** function [6] definition (level 2)
                         ** start of function **
3976  00                 string size (0)
                         source name: (none)
3978  04                 line defined (603)
3979  87                 last line defined (647)
397A  05                 nups (0)
397B  00                 numparams (1)
397C  01                 is_vararg (0)
397D  00                 maxstacksize (9)
                         * code:
397F  41                 sizecode (65)
3980  5D000000           [01] getglobal  1   0        ; 538022378
3984  99400000           [02] loadk      2   1        ; 0
3988  62400001           [03] call       1   2   1  
398C  5D800000           [04] getglobal  1   2        ; 1074689893
3990  92000000           [05] move       2   0      
3994  62800001           [06] call       1   2   2  
3998  58000000           [07] test       1       0    ; to [9] if true
399C  1A000080           [08] jmp        1            ; to [10]
39A0  1E008000           [09] return     0   1      
39A4  46008000           [10] loadnil    1   1      
39A8  9DC00000           [11] getglobal  2   3        ; _T
39AC  8E004101           [12] gettable   2   2   260  ; "gNemesis"
39B0  98000000           [13] test       2       0    ; to [15] if true
39B4  1A000280           [14] jmp        9            ; to [24]
39B8  9DC00000           [15] getglobal  2   3        ; _T
39BC  8E004101           [16] gettable   2   2   260  ; "gNemesis"
39C0  8E404101           [17] gettable   2   2   261  ; "mission"
39C4  98000000           [18] test       2       0    ; to [20] if true
39C8  1AC00080           [19] jmp        4            ; to [24]
39CC  9DC00000           [20] getglobal  2   3        ; _T
39D0  8E004101           [21] gettable   2   2   260  ; "gNemesis"
39D4  8E404101           [22] gettable   2   2   261  ; "mission"
39D8  4E804101           [23] gettable   1   2   262  ; "enemyInfo"
39DC  58400000           [24] test       1       1    ; to [26] if false
39E0  1AC00080           [25] jmp        4            ; to [30]
39E4  9DC00100           [26] getglobal  2   7        ; -1817107093
39E8  D9000200           [27] loadk      3   8        ; "nemesis has no enemy info!"
39EC  A2400001           [28] call       2   2   1  
39F0  1E008000           [29] return     0   1      
39F4  A4404200           [30] self       2   0   265  ; -1917464545
39F8  A2800001           [31] call       2   2   2  
39FC  CE80C200           [32] gettable   3   1   266  ; "gameplayProfile"
3A00  1DC10200           [33] getglobal  4   11       ; gRegion
3A04  24014302           [34] self       4   4   268  ; -1520831144
3A08  22810001           [35] call       4   2   2  
3A0C  18010000           [36] test       4       0    ; to [38] if true
3A10  1A800680           [37] jmp        27           ; to [65]
3A14  24414300           [38] self       4   0   269  ; 1479835399
3A18  9D810300           [39] getglobal  6   14       ; -895206725
3A1C  CEC1C301           [40] gettable   7   3   271  ; "primaryWeapon"
3A20  A2810001           [41] call       6   2   2  
3A24  D7018000           [42] loadbool   7   1   0    ; true
3A28  22410002           [43] call       4   4   1  
3A2C  24014401           [44] self       4   2   272  ; 1769516121
3A30  22810001           [45] call       4   2   2  
3A34  5D810000           [46] getglobal  5   2        ; 1074689893
3A38  92010002           [47] move       6   4      
3A3C  62810001           [48] call       5   2   2  
3A40  58410000           [49] test       5       1    ; to [51] if false
3A44  1A400280           [50] jmp        10           ; to [61]
3A48  5D810000           [51] getglobal  5   2        ; 1074689893
3A4C  8E41C401           [52] gettable   6   3   273  ; "secondaryPower"
3A50  62810001           [53] call       5   2   2  
3A54  58410000           [54] test       5       1    ; to [56] if false
3A58  1A000180           [55] jmp        5            ; to [61]
3A5C  64814402           [56] self       5   4   274  ; -380227431
3A60  DD810300           [57] getglobal  7   14       ; -895206725
3A64  0E42C401           [58] gettable   8   3   273  ; "secondaryPower"
3A68  E2010001           [59] call       7   2   0  
3A6C  62410000           [60] call       5   0   1  
3A70  64C14400           [61] self       5   0   275  ; -1411785325
3A74  62810001           [62] call       5   2   2  
3A78  A401C502           [63] self       6   5   276  ; 286171207
3A7C  A2410001           [64] call       6   2   1  
3A80  1E008000           [65] return     0   1      
                         * constants:
3A84  15                 sizek (21)
3A85  01                 const type 3
3A86  EA911120           const [0]: (538022378)
3A8A  03                 const type 3
3A8B  00000000           const [1]: (0)
3A8F  01                 const type 3
3A90  65770E40           const [2]: (1074689893)
3A94  04                 const type 4
3A95  03                 string size (3)
3A96  5F5400             "_T\0"
                         const [3]: "_T"
3A99  04                 const type 4
3A9A  09                 string size (9)
3A9B  674E656D65736973+  "gNemesis"
3AA3  00                 "\0"
                         const [4]: "gNemesis"
3AA4  04                 const type 4
3AA5  08                 string size (8)
3AA6  6D697373696F6E00   "mission\0"
                         const [5]: "mission"
3AAE  04                 const type 4
3AAF  0A                 string size (10)
3AB0  656E656D79496E66+  "enemyInf"
3AB8  6F00               "o\0"
                         const [6]: "enemyInfo"
3ABA  01                 const type 3
3ABB  6B25B193           const [7]: (-1817107093)
3ABF  04                 const type 4
3AC0  1B                 string size (27)
3AC1  6E656D6573697320+  "nemesis "
3AC9  686173206E6F2065+  "has no e"
3AD1  6E656D7920696E66+  "nemy inf"
3AD9  6F2100             "o!\0"
                         const [8]: "nemesis has no enemy info!"
3ADC  01                 const type 3
3ADD  1FD0B58D           const [9]: (-1917464545)
3AE1  04                 const type 4
3AE2  10                 string size (16)
3AE3  67616D65706C6179+  "gameplay"
3AEB  50726F66696C6500   "Profile\0"
                         const [10]: "gameplayProfile"
3AF3  04                 const type 4
3AF4  08                 string size (8)
3AF5  67526567696F6E00   "gRegion\0"
                         const [11]: "gRegion"
3AFD  01                 const type 3
3AFE  58F559A5           const [12]: (-1520831144)
3B02  01                 const type 3
3B03  077F3458           const [13]: (1479835399)
3B07  01                 const type 3
3B08  BB3AA4CA           const [14]: (-895206725)
3B0C  04                 const type 4
3B0D  0E                 string size (14)
3B0E  7072696D61727957+  "primaryW"
3B16  6561706F6E00       "eapon\0"
                         const [15]: "primaryWeapon"
3B1C  01                 const type 3
3B1D  59AC7869           const [16]: (1769516121)
3B21  04                 const type 4
3B22  0F                 string size (15)
3B23  7365636F6E646172+  "secondar"
3B2B  79506F77657200     "yPower\0"
                         const [17]: "secondaryPower"
3B32  01                 const type 3
3B33  993056E9           const [18]: (-380227431)
3B37  01                 const type 3
3B38  93DDD9AB           const [19]: (-1411785325)
3B3C  01                 const type 3
3B3D  47A00E11           const [20]: (286171207)
                         * functions:
3B41  00                 sizep (0)
                         * lines:
3B42  41                 sizelineinfo (65)
                         [pc] (line)
3B43  5C                 [01] (92)
3B44  02                 [02] (92)
3B45  00                 [03] (92)
3B46  00                 [04] (94)
3B47  5C                 [05] (94)
3B48  02                 [06] (94)
3B49  00                 [07] (94)
3B4A  00                 [08] (94)
3B4B  5C                 [09] (95)
3B4C  02                 [10] (98)
3B4D  00                 [11] (99)
3B4E  00                 [12] (99)
3B4F  5E                 [13] (99)
3B50  02                 [14] (99)
3B51  00                 [15] (99)
3B52  00                 [16] (99)
3B53  5E                 [17] (99)
3B54  02                 [18] (99)
3B55  00                 [19] (99)
3B56  00                 [20] (100)
3B57  5E                 [21] (100)
3B58  02                 [22] (100)
3B59  00                 [23] (100)
3B5A  00                 [24] (103)
3B5B  5E                 [25] (103)
3B5C  02                 [26] (104)
3B5D  00                 [27] (104)
3B5E  00                 [28] (104)
3B5F  5E                 [29] (105)
3B60  02                 [30] (108)
3B61  00                 [31] (108)
3B62  00                 [32] (110)
3B63  5F                 [33] (111)
3B64  02                 [34] (111)
3B65  00                 [35] (111)
3B66  00                 [36] (111)
3B67  62                 [37] (111)
3B68  02                 [38] (112)
3B69  00                 [39] (112)
3B6A  00                 [40] (112)
3B6B  63                 [41] (112)
3B6C  02                 [42] (112)
3B6D  00                 [43] (112)
3B6E  00                 [44] (124)
3B6F  63                 [45] (124)
3B70  02                 [46] (125)
3B71  00                 [47] (125)
3B72  00                 [48] (125)
3B73  63                 [49] (125)
3B74  02                 [50] (125)
3B75  00                 [51] (126)
3B76  00                 [52] (126)
3B77  63                 [53] (126)
3B78  02                 [54] (126)
3B79  00                 [55] (126)
3B7A  00                 [56] (127)
3B7B  63                 [57] (127)
3B7C  02                 [58] (127)
3B7D  00                 [59] (127)
3B7E  00                 [60] (127)
3B7F  63                 [61] (-125)
3B80  02                 [62] (-125)
3B81  00                 [63] (-124)
3B82  00                 [64] (-124)
3B83  63                 [65] (-121)
                         * locals:
3C47  00                 sizelocvars (0)
                         * upvalues:
3C48  00                 sizeupvalues (0)
                         ** end of function **

                         
3C49                     ** function [7] definition (level 2)
                         ** start of function **
3C49  00                 string size (0)
                         source name: (none)
3C4B  05                 line defined (649)
3C4C  8B                 last line defined (651)
3C4D  05                 nups (1)
3C4E  01                 numparams (2)
3C4F  02                 is_vararg (0)
3C50  00                 maxstacksize (5)
                         * code:
3C52  07                 sizecode (7)
3C53  93000000           [1] getupval   2   0      
3C57  8E004001           [2] gettable   2   2   256  ; -903578179
3C5B  D2000000           [3] move       3   0      
3C5F  12018000           [4] move       4   1      
3C63  87008001           [5] tailcall   2   3   0  
3C67  9E000000           [6] return     2   0      
3C6B  1E008000           [7] return     0   1      
                         * constants:
3C6F  01                 sizek (1)
3C70  01                 const type 3
3C71  BD7D24CA           const [0]: (-903578179)
                         * functions:
3C75  00                 sizep (0)
                         * lines:
3C76  07                 sizelineinfo (7)
                         [pc] (line)
3C77  8A                 [1] (-118)
3C78  02                 [2] (-118)
3C79  00                 [3] (-118)
3C7A  00                 [4] (-118)
3C7B  8A                 [5] (-118)
3C7C  02                 [6] (-118)
3C7D  00                 [7] (-117)
                         * locals:
3C93  00                 sizelocvars (0)
                         * upvalues:
3C94  00                 sizeupvalues (0)
                         ** end of function **

                         
3C95                     ** function [8] definition (level 2)
                         ** start of function **
3C95  00                 string size (0)
                         source name: (none)
3C97  05                 line defined (653)
3C98  94                 last line defined (660)
3C99  05                 nups (0)
3C9A  00                 numparams (1)
3C9B  01                 is_vararg (0)
3C9C  00                 maxstacksize (7)
                         * code:
3C9E  14                 sizecode (20)
3C9F  64004000           [01] self       1   0   256  ; -578871469
3CA3  62800001           [02] call       1   2   2  
3CA7  6440C000           [03] self       1   1   257  ; -1110225722
3CAB  DD800000           [04] getglobal  3   2        ; avatarType
3CAF  24C14000           [05] self       4   0   259  ; 1839670529
3CB3  22810001           [06] call       4   2   2  
3CB7  64014100           [07] self       5   0   260  ; -231049143
3CBB  62010001           [08] call       5   2   0  
3CBF  62800000           [09] call       1   0   2  
3CC3  9D400100           [10] getglobal  2   5        ; 1074689893
3CC7  D2008000           [11] move       3   1      
3CCB  A2800001           [12] call       2   2   2  
3CCF  98400000           [13] test       2       1    ; to [15] if false
3CD3  1A40FC7F           [14] jmp        -14          ; to [1]
3CD7  9D800100           [15] getglobal  2   6        ; 538022378
3CDB  D9C00100           [16] loadk      3   7        ; 0
3CDF  A2400001           [17] call       2   2   1  
3CE3  1A80FD7F           [18] jmp        -9           ; to [10]
3CE7  1A00FB7F           [19] jmp        -19          ; to [1]
3CEB  1E008000           [20] return     0   1      
                         * constants:
3CEF  08                 sizek (8)
3CF0  01                 const type 3
3CF1  531F7FDD           const [0]: (-578871469)
3CF5  01                 const type 3
3CF6  C64CD3BD           const [1]: (-1110225722)
3CFA  04                 const type 4
3CFB  0B                 string size (11)
3CFC  6176617461725479+  "avatarTy"
3D04  706500             "pe\0"
                         const [2]: "avatarType"
3D07  01                 const type 3
3D08  0125A76D           const [3]: (1839670529)
3D0C  01                 const type 3
3D0D  49783AF2           const [4]: (-231049143)
3D11  01                 const type 3
3D12  65770E40           const [5]: (1074689893)
3D16  01                 const type 3
3D17  EA911120           const [6]: (538022378)
3D1B  03                 const type 3
3D1C  00000000           const [7]: (0)
                         * functions:
3D20  00                 sizep (0)
                         * lines:
3D21  14                 sizelineinfo (20)
                         [pc] (line)
3D22  8F                 [01] (-113)
3D23  02                 [02] (-113)
3D24  00                 [03] (-113)
3D25  00                 [04] (-113)
3D26  8F                 [05] (-113)
3D27  02                 [06] (-113)
3D28  00                 [07] (-113)
3D29  00                 [08] (-113)
3D2A  8F                 [09] (-113)
3D2B  02                 [10] (-112)
3D2C  00                 [11] (-112)
3D2D  00                 [12] (-112)
3D2E  8F                 [13] (-112)
3D2F  02                 [14] (-112)
3D30  00                 [15] (-111)
3D31  00                 [16] (-111)
3D32  8F                 [17] (-111)
3D33  02                 [18] (-111)
3D34  00                 [19] (-110)
3D35  00                 [20] (-108)
                         * locals:
3D72  00                 sizelocvars (0)
                         * upvalues:
3D73  00                 sizeupvalues (0)
                         ** end of function **

                         * lines:
3D74  50                 sizelineinfo (80)
                         [pc] (line)
3D75  09                 [01] (9)
3D76  00                 [02] (9)
3D77  00                 [03] (9)
3D78  00                 [04] (10)
3D79  09                 [05] (10)
3D7A  00                 [06] (10)
3D7B  00                 [07] (11)
3D7C  00                 [08] (11)
3D7D  09                 [09] (11)
3D7E  00                 [10] (12)
3D7F  00                 [11] (12)
3D80  00                 [12] (12)
3D81  0A                 [13] (14)
3D82  00                 [14] (14)
3D83  00                 [15] (14)
3D84  00                 [16] (16)
3D85  0A                 [17] (16)
3D86  00                 [18] (16)
3D87  00                 [19] (17)
3D88  00                 [20] (17)
3D89  0A                 [21] (17)
3D8A  00                 [22] (18)
3D8B  00                 [23] (18)
3D8C  00                 [24] (18)
3D8D  0B                 [25] (19)
3D8E  00                 [26] (20)
3D8F  00                 [27] (22)
3D90  00                 [28] (22)
3D91  0B                 [29] (22)
3D92  00                 [30] (23)
3D93  00                 [31] (23)
3D94  00                 [32] (23)
3D95  0B                 [33] (24)
3D96  00                 [34] (24)
3D97  00                 [35] (24)
3D98  00                 [36] (25)
3D99  0C                 [37] (25)
3D9A  00                 [38] (25)
3D9B  00                 [39] (27)
3D9C  00                 [40] (27)
3D9D  0C                 [41] (27)
3D9E  00                 [42] (34)
3D9F  00                 [43] (44)
3DA0  00                 [44] (44)
3DA1  0C                 [45] (102)
3DA2  00                 [46] (102)
3DA3  00                 [47] (102)
3DA4  00                 [48] (102)
3DA5  0E                 [49] (102)
3DA6  00                 [50] (-90)
3DA7  00                 [51] (-90)
3DA8  00                 [52] (-90)
3DA9  0E                 [53] (-90)
3DAA  00                 [54] (-90)
3DAB  00                 [55] (-90)
3DAC  00                 [56] (-84)
3DAD  0E                 [57] (-84)
3DAE  00                 [58] (-88)
3DAF  00                 [59] (89)
3DB0  00                 [60] (89)
3DB1  10                 [61] (89)
3DB2  00                 [62] (89)
3DB3  00                 [63] (89)
3DB4  00                 [64] (89)
3DB5  10                 [65] (89)
3DB6  00                 [66] (89)
3DB7  00                 [67] (89)
3DB8  00                 [68] (89)
3DB9  10                 [69] (-82)
3DBA  00                 [70] (-121)
3DBB  00                 [71] (-121)
3DBC  00                 [72] (91)
3DBD  11                 [73] (-117)
3DBE  00                 [74] (-117)
3DBF  00                 [75] (-117)
3DC0  00                 [76] (-119)
3DC1  11                 [77] (-108)
3DC2  00                 [78] (-108)
3DC3  00                 [79] (-115)
3DC4  00                 [80] (-108)
                         * locals:
3EB5  00                 sizelocvars (0)
                         * upvalues:
3EB6  00                 sizeupvalues (0)
                         ** end of function **

3EB7                     ** end of chunk **
