1	C:\wlua_dump\path\Lotus\Scripts\NemesisNemesisGenerator.lua
Pos   Hex Data           Description or Code
------------------------------------------------------------------------
0000                     ** source chunk: C:\wlua_dump\path\Lotus\Scripts\NemesisNemesisGenerator.lua
                         ** global header start **
0000  7F                 header signature: ""
0001  00                 version (major:minor hex digits)
0002  00                 format (0=official)
0003  00                 endianness (1=little endian)
0004  00                 size of int (bytes)
0005  00                 size of size_t (bytes)
0006  02                 size of Instruction (bytes)
0007  28                 size of number (bytes)
0008  C2                 integral (1=integral)
4194
                         * number type: single
                         * x86 standard (32-bit, little endian, doubles)
                         ** global header end **
Lotus.Scripts.Generators.MarkovNameGenerator
Lotus.Scripts.Libs.TransmissionSet
Lotus.Interface.LotusUtilities
LORD
FOOL
GAMMA
BLOODIED
UNDER
DARK
SAVAGE
FIEND
HUNGER
CRUEL
FOUL
OR
AR
SA
GA
IX
ZO
ZA
TE
GE
AT
RA
I
A
TA
NA
NE
LE
ER
KA
CA
XE
LO
FA
BE
FO
JA
MA
EN
IS
MI
OP
CE
QU
DRA
AN
..
BI
SO
US
ES
IN
DI
RE
A.
LA
VE
TI
ED
RI
ON
DAMAGE_TYPES
Engine
DT_IMPACT
Slash
DT_PUNCTURE
DT_SLASH
DT_FIRE
Fire
DT_FREEZE
Freeze
DT_ELECTRICITY
Electric
DT_POISON
Poison
DT_EXPLOSION
DT_RADIATION
DT_GAS
DT_MAGNETIC
DT_VIRAL
DT_CORROSIVE
DT_RADIANT
DT_SENTIENT
GenerateProfile
GenerateName
GetResourcesToLoad
GetProfileFromLoadOutString
PlayNemesisTransmission
RequestNemesisEncounter
StartNemesis
GetWeaponName
GetRequiredHintProgress
CacheLastLarvlingDamage
ClearLastLarvlingDamage

string
 
#
NemesisGenerator generating profile
mManifest
no manifest type
mKillingSuit
mShoulderHelmet
mAgentIdx
mRank
mNumInfluenceNodes
null manifest!
Lotus_Game
table
mAgent
mWeapon
mWeaponUpgrade
mHead
mArmor
mEphemera
mShoulderHelmetDeco
mShoulderHelmetCustomization
mVoiceBox
mTransmissionSet
mDspEffect
mPowerSuit
mExtraAbility
mTraits
mQuirk
gRegion
_T
gNemesis
generatedProfile
gGameData
gGameRules
mTarget
mTransmissionSet
string
Created
mDspEffect
TransmissionDspOverrides
NemesisResLoader
UISys
NemesisTransmissionPortraitUseLocal
gGameRules
couldn't create nemesis: no damage source found
gItemType
couldn't create nemesis: couldn't find the owner of the source
gLotusSentinelAvatarType
gTennoAvatarType
couldn't create nemesis: source 
 is not a tennoavatar
couldn't create nemesis: source has no authoritative player
mHasActiveNemesis
couldn't create nemesis: player already has an active one!
mKuvaSiphonsUnlocked
couldn't create nemesis: player has not completed TWW
gLotusOperatorAvatarType
couldn't create nemesis: couldn't find the Warframe Avatar
 has no active powersuit
Lotus_Game
LOT_NORMAL
SUIT_SLOT
Helmet
mItemType
warning: couldn't find player helmet
DAMAGE_TYPES
Engine
DT_INVALID
gGameRules
location
string
mName
gGameRules
mWeapon
/Lotus/Language/Kingpins/LichWeaponName
LICH_NAME
WEAPON
_T
LastLarvlingDamageData
Engine
DAMAGE_TYPES
_T
LastLarvlingDamageData
                         
0001                     ** function [0] definition (level 1)
                         ** start of function **
0001  00                 string size (0)
                         source name: (none)
0002  00                 line defined (0)
0003  00                 last line defined (0)
0004  00                 nups (0)
0005  00                 numparams (0)
0006  02                 is_vararg (2)
0007  28                 maxstacksize (40)
                         * code:
0009  01                 sizecode (194)
000A  1D000000           [001] getglobal  0   0        ; 849075268
000E  59400000           [002] loadk      1   1        ; "Lotus.Scripts.Generators.MarkovNameGenerator"
0012  22800001           [003] call       0   2   2  
0016  5D000000           [004] getglobal  1   0        ; 849075268
001A  99800000           [005] loadk      2   2        ; "Lotus.Scripts.Libs.TransmissionSet"
001E  62800001           [006] call       1   2   2  
0022  9D000000           [007] getglobal  2   0        ; 849075268
0026  D9C00000           [008] loadk      3   3        ; "Lotus.Interface.LotusUtilities"
002A  A2800001           [009] call       2   2   2  
002E  CB000004           [010] newtable   3   8   0    ; array=8, hash=0
0032  19010100           [011] loadk      4   4        ; "LORD"
0036  59410100           [012] loadk      5   5        ; "FOOL"
003A  99810100           [013] loadk      6   6        ; "GAMMA"
003E  D9C10100           [014] loadk      7   7        ; "BLOODIED"
0042  19020200           [015] loadk      8   8        ; "UNDER"
0046  59420200           [016] loadk      9   9        ; "DARK"
004A  99820200           [017] loadk      10  10       ; "SAVAGE"
004E  D9C20200           [018] loadk      11  11       ; "FIEND"
0052  DB400004           [019] setlist    3   8   1    ; index 1 to 8
0056  0B018001           [020] newtable   4   3   0    ; array=3, hash=0
005A  59010300           [021] loadk      5   12       ; "HUNGER"
005E  99410300           [022] loadk      6   13       ; "CRUEL"
0062  D9810300           [023] loadk      7   14       ; "FOUL"
0066  1B418001           [024] setlist    4   3   1    ; index 1 to 3
006A  4B018005           [025] newtable   5   11  0    ; array=11, hash=0
006E  99C10300           [026] loadk      6   15       ; "OR"
0072  D9010400           [027] loadk      7   16       ; "AR"
0076  19420400           [028] loadk      8   17       ; "SA"
007A  59820400           [029] loadk      9   18       ; "GA"
007E  99C20400           [030] loadk      10  19       ; "IX"
0082  D9020500           [031] loadk      11  20       ; "ZO"
0086  19430500           [032] loadk      12  21       ; "ZA"
008A  59830500           [033] loadk      13  22       ; "TE"
008E  99C30500           [034] loadk      14  23       ; "GE"
0092  D9030600           [035] loadk      15  24       ; "AT"
0096  19440600           [036] loadk      16  25       ; "RA"
009A  5B418005           [037] setlist    5   11  1    ; index 1 to 11
009E  8B01800C           [038] newtable   6   25  0    ; array=36, hash=0
00A2  D9C10400           [039] loadk      7   19       ; "IX"
00A6  19820600           [040] loadk      8   26       ; "I"
00AA  59C20600           [041] loadk      9   27       ; "A"
00AE  99020700           [042] loadk      10  28       ; "TA"
00B2  D9420700           [043] loadk      11  29       ; "NA"
00B6  19830700           [044] loadk      12  30       ; "NE"
00BA  59C30700           [045] loadk      13  31       ; "LE"
00BE  99030800           [046] loadk      14  32       ; "ER"
00C2  D9430800           [047] loadk      15  33       ; "KA"
00C6  19840800           [048] loadk      16  34       ; "CA"
00CA  59C40800           [049] loadk      17  35       ; "XE"
00CE  99C40500           [050] loadk      18  23       ; "GE"
00D2  D9440500           [051] loadk      19  21       ; "ZA"
00D6  19050700           [052] loadk      20  28       ; "TA"
00DA  59050900           [053] loadk      21  36       ; "LO"
00DE  99450900           [054] loadk      22  37       ; "FA"
00E2  D9850900           [055] loadk      23  38       ; "BE"
00E6  19060700           [056] loadk      24  28       ; "TA"
00EA  59C60900           [057] loadk      25  39       ; "FO"
00EE  99460600           [058] loadk      26  25       ; "RA"
00F2  D9060A00           [059] loadk      27  40       ; "JA"
00F6  19070400           [060] loadk      28  16       ; "AR"
00FA  59470A00           [061] loadk      29  41       ; "MA"
00FE  99870A00           [062] loadk      30  42       ; "EN"
0102  D9C70300           [063] loadk      31  15       ; "OR"
0106  19C80A00           [064] loadk      32  43       ; "IS"
010A  59080B00           [065] loadk      33  44       ; "MI"
010E  99080800           [066] loadk      34  32       ; "ER"
0112  D9480B00           [067] loadk      35  45       ; "OP"
0116  19890B00           [068] loadk      36  46       ; "CE"
011A  59C90B00           [069] loadk      37  47       ; "QU"
011E  99090C00           [070] loadk      38  48       ; "DRA"
0122  D9490C00           [071] loadk      39  49       ; "AN"
0126  9B418010           [072] setlist    6   33  1    ; index 1 to 33
012A  CB01000C           [073] newtable   7   24  0    ; array=32, hash=0
012E  19820C00           [074] loadk      8   50       ; ".."
0132  59C20700           [075] loadk      9   31       ; "LE"
0136  99C20800           [076] loadk      10  35       ; "XE"
013A  D9C20500           [077] loadk      11  23       ; "GE"
013E  19430500           [078] loadk      12  21       ; "ZA"
0142  59830B00           [079] loadk      13  46       ; "CE"
0146  99C30C00           [080] loadk      14  51       ; "BI"
014A  D9030D00           [081] loadk      15  52       ; "SO"
014E  19440D00           [082] loadk      16  53       ; "US"
0152  59840D00           [083] loadk      17  54       ; "ES"
0156  99040400           [084] loadk      18  16       ; "AR"
015A  D9440A00           [085] loadk      19  41       ; "MA"
015E  19C50D00           [086] loadk      20  55       ; "IN"
0162  59050E00           [087] loadk      21  56       ; "DI"
0166  99450E00           [088] loadk      22  57       ; "RE"
016A  D9850E00           [089] loadk      23  58       ; "A."
016E  19060800           [090] loadk      24  32       ; "ER"
0172  59060600           [091] loadk      25  24       ; "AT"
0176  99860A00           [092] loadk      26  42       ; "EN"
017A  D9860900           [093] loadk      27  38       ; "BE"
017E  19470600           [094] loadk      28  25       ; "RA"
0182  59C70E00           [095] loadk      29  59       ; "LA"
0186  99070F00           [096] loadk      30  60       ; "VE"
018A  D9470F00           [097] loadk      31  61       ; "TI"
018E  19880F00           [098] loadk      32  62       ; "ED"
0192  59C80300           [099] loadk      33  15       ; "OR"
0196  99C80B00           [100] loadk      34  47       ; "QU"
019A  D9480C00           [101] loadk      35  49       ; "AN"
019E  19890500           [102] loadk      36  22       ; "TE"
01A2  59C90A00           [103] loadk      37  43       ; "IS"
01A6  99C90F00           [104] loadk      38  63       ; "RI"
01AA  D9091000           [105] loadk      39  64       ; "ON"
01AE  DB410010           [106] setlist    7   32  1    ; index 1 to 32
01B2  0B028001           [107] newtable   8   3   0    ; array=3, hash=0
01B6  59421000           [108] loadk      9   65       ; 0
01BA  99821000           [109] loadk      10  66       ; 0
01BE  D9C21000           [110] loadk      11  67       ; 0
01C2  1B428001           [111] setlist    8   3   1    ; index 1 to 3
01C6  65020000           [112] closure    9   0      
01CA  12008001           [113] move       0   3      
01CE  12000002           [114] move       0   4      
01D2  A5420000           [115] closure    10  1      
01D6  12000000           [116] move       0   0      
01DA  E5820000           [117] closure    11  2      
01DE  25C30000           [118] closure    12  3      
01E2  12008005           [119] move       0   11     
01E6  65030100           [120] closure    13  4      
01EA  8B030300           [121] newtable   14  0   12   ; array=0, hash=12
01EE  CBC30300           [122] newtable   15  0   15   ; array=0, hash=15
01F2  1D441100           [123] getglobal  16  69       ; Engine
01F6  0E845108           [124] gettable   16  16  326  ; "DT_IMPACT"
01FA  CCC35108           [125] settable   15  16  327  ; "Slash"
01FE  1D441100           [126] getglobal  16  69       ; Engine
0202  0E045208           [127] gettable   16  16  328  ; "DT_PUNCTURE"
0206  CCC35108           [128] settable   15  16  327  ; "Slash"
020A  1D441100           [129] getglobal  16  69       ; Engine
020E  0E445208           [130] gettable   16  16  329  ; "DT_SLASH"
0212  CCC35108           [131] settable   15  16  327  ; "Slash"
0216  1D441100           [132] getglobal  16  69       ; Engine
021A  0E845208           [133] gettable   16  16  330  ; "DT_FIRE"
021E  CCC35208           [134] settable   15  16  331  ; "Fire"
0222  1D441100           [135] getglobal  16  69       ; Engine
0226  0E045308           [136] gettable   16  16  332  ; "DT_FREEZE"
022A  CC435308           [137] settable   15  16  333  ; "Freeze"
022E  1D441100           [138] getglobal  16  69       ; Engine
0232  0E845308           [139] gettable   16  16  334  ; "DT_ELECTRICITY"
0236  CCC35308           [140] settable   15  16  335  ; "Electric"
023A  1D441100           [141] getglobal  16  69       ; Engine
023E  0E045408           [142] gettable   16  16  336  ; "DT_POISON"
0242  CC435408           [143] settable   15  16  337  ; "Poison"
0246  1D441100           [144] getglobal  16  69       ; Engine
024A  0E845408           [145] gettable   16  16  338  ; "DT_EXPLOSION"
024E  CCC35208           [146] settable   15  16  331  ; "Fire"
0252  1D441100           [147] getglobal  16  69       ; Engine
0256  0EC45408           [148] gettable   16  16  339  ; "DT_RADIATION"
025A  CCC35208           [149] settable   15  16  331  ; "Fire"
025E  1D441100           [150] getglobal  16  69       ; Engine
0262  0E045508           [151] gettable   16  16  340  ; "DT_GAS"
0266  CC435408           [152] settable   15  16  337  ; "Poison"
026A  1D441100           [153] getglobal  16  69       ; Engine
026E  0E445508           [154] gettable   16  16  341  ; "DT_MAGNETIC"
0272  CCC35308           [155] settable   15  16  335  ; "Electric"
0276  1D441100           [156] getglobal  16  69       ; Engine
027A  0E845508           [157] gettable   16  16  342  ; "DT_VIRAL"
027E  CC435408           [158] settable   15  16  337  ; "Poison"
0282  1D441100           [159] getglobal  16  69       ; Engine
0286  0EC45508           [160] gettable   16  16  343  ; "DT_CORROSIVE"
028A  CCC35108           [161] settable   15  16  327  ; "Slash"
028E  1D441100           [162] getglobal  16  69       ; Engine
0292  0E045608           [163] gettable   16  16  344  ; "DT_RADIANT"
0296  CCC35308           [164] settable   15  16  335  ; "Electric"
029A  1D441100           [165] getglobal  16  69       ; Engine
029E  0E445608           [166] gettable   16  16  345  ; "DT_SENTIENT"
02A2  CCC35308           [167] settable   15  16  335  ; "Electric"
02A6  8CC303A2           [168] settable   14  324 15   ; "DAMAGE_TYPES"
02AA  8CC302AD           [169] settable   14  346 11   ; "GenerateProfile"
02AE  8C8382AD           [170] settable   14  347 10   ; "GenerateName"
02B2  8C4303AE           [171] settable   14  348 13   ; "GetResourcesToLoad"
02B6  8C0383AE           [172] settable   14  349 12   ; "GetProfileFromLoadOutString"
02BA  E5430100           [173] closure    15  5      
02BE  12008005           [174] move       0   11     
02C2  12000001           [175] move       0   2      
02C6  12008006           [176] move       0   13     
02CA  12008000           [177] move       0   1      
02CE  8CC303AF           [178] settable   14  350 15   ; "PlayNemesisTransmission"
02D2  E5830100           [179] closure    15  6      
02D6  12008005           [180] move       0   11     
02DA  8CC383AF           [181] settable   14  351 15   ; "RequestNemesisEncounter"
02DE  E5C30100           [182] closure    15  7      
02E2  8CC303B0           [183] settable   14  352 15   ; "StartNemesis"
02E6  E5030200           [184] closure    15  8      
02EA  8CC383B0           [185] settable   14  353 15   ; "GetWeaponName"
02EE  E5430200           [186] closure    15  9      
02F2  12000004           [187] move       0   8      
02F6  8CC303B1           [188] settable   14  354 15   ; "GetRequiredHintProgress"
02FA  E5830200           [189] closure    15  10     
02FE  8CC383B1           [190] settable   14  355 15   ; "CacheLastLarvlingDamage"
0302  E5C30200           [191] closure    15  11     
0306  8CC303B2           [192] settable   14  356 15   ; "ClearLastLarvlingDamage"
030A  9E030001           [193] return     14  2      
030E  1E008000           [194] return     0   1      
                         * constants:
0312  65                 sizek (101)
0313  01                 const type 3
0314  44DC9B32           const [0]: (849075268)
0318  04                 const type 4
0319  2D                 string size (45)
031A  4C6F7475732E5363+  "Lotus.Sc"
0322  72697074732E4765+  "ripts.Ge"
032A  6E657261746F7273+  "nerators"
0332  2E4D61726B6F764E+  ".MarkovN"
033A  616D6547656E6572+  "ameGener"
0342  61746F7200         "ator\0"
                         const [1]: "Lotus.Scripts.Generators.MarkovNameGenerator"
0347  04                 const type 4
0348  23                 string size (35)
0349  4C6F7475732E5363+  "Lotus.Sc"
0351  72697074732E4C69+  "ripts.Li"
0359  62732E5472616E73+  "bs.Trans"
0361  6D697373696F6E53+  "missionS"
0369  657400             "et\0"
                         const [2]: "Lotus.Scripts.Libs.TransmissionSet"
036C  04                 const type 4
036D  1F                 string size (31)
036E  4C6F7475732E496E+  "Lotus.In"
0376  746572666163652E+  "terface."
037E  4C6F747573557469+  "LotusUti"
0386  6C697469657300     "lities\0"
                         const [3]: "Lotus.Interface.LotusUtilities"
038D  04                 const type 4
038E  05                 string size (5)
038F  4C4F524400         "LORD\0"
                         const [4]: "LORD"
0394  04                 const type 4
0395  05                 string size (5)
0396  464F4F4C00         "FOOL\0"
                         const [5]: "FOOL"
039B  04                 const type 4
039C  06                 string size (6)
039D  47414D4D4100       "GAMMA\0"
                         const [6]: "GAMMA"
03A3  04                 const type 4
03A4  09                 string size (9)
03A5  424C4F4F44494544+  "BLOODIED"
03AD  00                 "\0"
                         const [7]: "BLOODIED"
03AE  04                 const type 4
03AF  06                 string size (6)
03B0  554E44455200       "UNDER\0"
                         const [8]: "UNDER"
03B6  04                 const type 4
03B7  05                 string size (5)
03B8  4441524B00         "DARK\0"
                         const [9]: "DARK"
03BD  04                 const type 4
03BE  07                 string size (7)
03BF  53415641474500     "SAVAGE\0"
                         const [10]: "SAVAGE"
03C6  04                 const type 4
03C7  06                 string size (6)
03C8  4649454E4400       "FIEND\0"
                         const [11]: "FIEND"
03CE  04                 const type 4
03CF  07                 string size (7)
03D0  48554E47455200     "HUNGER\0"
                         const [12]: "HUNGER"
03D7  04                 const type 4
03D8  06                 string size (6)
03D9  435255454C00       "CRUEL\0"
                         const [13]: "CRUEL"
03DF  04                 const type 4
03E0  05                 string size (5)
03E1  464F554C00         "FOUL\0"
                         const [14]: "FOUL"
03E6  04                 const type 4
03E7  03                 string size (3)
03E8  4F5200             "OR\0"
                         const [15]: "OR"
03EB  04                 const type 4
03EC  03                 string size (3)
03ED  415200             "AR\0"
                         const [16]: "AR"
03F0  04                 const type 4
03F1  03                 string size (3)
03F2  534100             "SA\0"
                         const [17]: "SA"
03F5  04                 const type 4
03F6  03                 string size (3)
03F7  474100             "GA\0"
                         const [18]: "GA"
03FA  04                 const type 4
03FB  03                 string size (3)
03FC  495800             "IX\0"
                         const [19]: "IX"
03FF  04                 const type 4
0400  03                 string size (3)
0401  5A4F00             "ZO\0"
                         const [20]: "ZO"
0404  04                 const type 4
0405  03                 string size (3)
0406  5A4100             "ZA\0"
                         const [21]: "ZA"
0409  04                 const type 4
040A  03                 string size (3)
040B  544500             "TE\0"
                         const [22]: "TE"
040E  04                 const type 4
040F  03                 string size (3)
0410  474500             "GE\0"
                         const [23]: "GE"
0413  04                 const type 4
0414  03                 string size (3)
0415  415400             "AT\0"
                         const [24]: "AT"
0418  04                 const type 4
0419  03                 string size (3)
041A  524100             "RA\0"
                         const [25]: "RA"
041D  04                 const type 4
041E  02                 string size (2)
041F  4900               "I\0"
                         const [26]: "I"
0421  04                 const type 4
0422  02                 string size (2)
0423  4100               "A\0"
                         const [27]: "A"
0425  04                 const type 4
0426  03                 string size (3)
0427  544100             "TA\0"
                         const [28]: "TA"
042A  04                 const type 4
042B  03                 string size (3)
042C  4E4100             "NA\0"
                         const [29]: "NA"
042F  04                 const type 4
0430  03                 string size (3)
0431  4E4500             "NE\0"
                         const [30]: "NE"
0434  04                 const type 4
0435  03                 string size (3)
0436  4C4500             "LE\0"
                         const [31]: "LE"
0439  04                 const type 4
043A  03                 string size (3)
043B  455200             "ER\0"
                         const [32]: "ER"
043E  04                 const type 4
043F  03                 string size (3)
0440  4B4100             "KA\0"
                         const [33]: "KA"
0443  04                 const type 4
0444  03                 string size (3)
0445  434100             "CA\0"
                         const [34]: "CA"
0448  04                 const type 4
0449  03                 string size (3)
044A  584500             "XE\0"
                         const [35]: "XE"
044D  04                 const type 4
044E  03                 string size (3)
044F  4C4F00             "LO\0"
                         const [36]: "LO"
0452  04                 const type 4
0453  03                 string size (3)
0454  464100             "FA\0"
                         const [37]: "FA"
0457  04                 const type 4
0458  03                 string size (3)
0459  424500             "BE\0"
                         const [38]: "BE"
045C  04                 const type 4
045D  03                 string size (3)
045E  464F00             "FO\0"
                         const [39]: "FO"
0461  04                 const type 4
0462  03                 string size (3)
0463  4A4100             "JA\0"
                         const [40]: "JA"
0466  04                 const type 4
0467  03                 string size (3)
0468  4D4100             "MA\0"
                         const [41]: "MA"
046B  04                 const type 4
046C  03                 string size (3)
046D  454E00             "EN\0"
                         const [42]: "EN"
0470  04                 const type 4
0471  03                 string size (3)
0472  495300             "IS\0"
                         const [43]: "IS"
0475  04                 const type 4
0476  03                 string size (3)
0477  4D4900             "MI\0"
                         const [44]: "MI"
047A  04                 const type 4
047B  03                 string size (3)
047C  4F5000             "OP\0"
                         const [45]: "OP"
047F  04                 const type 4
0480  03                 string size (3)
0481  434500             "CE\0"
                         const [46]: "CE"
0484  04                 const type 4
0485  03                 string size (3)
0486  515500             "QU\0"
                         const [47]: "QU"
0489  04                 const type 4
048A  04                 string size (4)
048B  44524100           "DRA\0"
                         const [48]: "DRA"
048F  04                 const type 4
0490  03                 string size (3)
0491  414E00             "AN\0"
                         const [49]: "AN"
0494  04                 const type 4
0495  03                 string size (3)
0496  2E2E00             "..\0"
                         const [50]: ".."
0499  04                 const type 4
049A  03                 string size (3)
049B  424900             "BI\0"
                         const [51]: "BI"
049E  04                 const type 4
049F  03                 string size (3)
04A0  534F00             "SO\0"
                         const [52]: "SO"
04A3  04                 const type 4
04A4  03                 string size (3)
04A5  555300             "US\0"
                         const [53]: "US"
04A8  04                 const type 4
04A9  03                 string size (3)
04AA  455300             "ES\0"
                         const [54]: "ES"
04AD  04                 const type 4
04AE  03                 string size (3)
04AF  494E00             "IN\0"
                         const [55]: "IN"
04B2  04                 const type 4
04B3  03                 string size (3)
04B4  444900             "DI\0"
                         const [56]: "DI"
04B7  04                 const type 4
04B8  03                 string size (3)
04B9  524500             "RE\0"
                         const [57]: "RE"
04BC  04                 const type 4
04BD  03                 string size (3)
04BE  412E00             "A.\0"
                         const [58]: "A."
04C1  04                 const type 4
04C2  03                 string size (3)
04C3  4C4100             "LA\0"
                         const [59]: "LA"
04C6  04                 const type 4
04C7  03                 string size (3)
04C8  564500             "VE\0"
                         const [60]: "VE"
04CB  04                 const type 4
04CC  03                 string size (3)
04CD  544900             "TI\0"
                         const [61]: "TI"
04D0  04                 const type 4
04D1  03                 string size (3)
04D2  454400             "ED\0"
                         const [62]: "ED"
04D5  04                 const type 4
04D6  03                 string size (3)
04D7  524900             "RI\0"
                         const [63]: "RI"
04DA  04                 const type 4
04DB  03                 string size (3)
04DC  4F4E00             "ON\0"
                         const [64]: "ON"
04DF  03                 const type 3
04E0  00007042           const [65]: (0)
04E4  03                 const type 3
04E5  0000C842           const [66]: (0)
04E9  03                 const type 3
04EA  00000C43           const [67]: (0)
04EE  04                 const type 4
04EF  0D                 string size (13)
04F0  44414D4147455F54+  "DAMAGE_T"
04F8  5950455300         "YPES\0"
                         const [68]: "DAMAGE_TYPES"
04FD  04                 const type 4
04FE  07                 string size (7)
04FF  456E67696E6500     "Engine\0"
                         const [69]: "Engine"
0506  04                 const type 4
0507  0A                 string size (10)
0508  44545F494D504143+  "DT_IMPAC"
0510  5400               "T\0"
                         const [70]: "DT_IMPACT"
0512  04                 const type 4
0513  06                 string size (6)
0514  536C61736800       "Slash\0"
                         const [71]: "Slash"
051A  04                 const type 4
051B  0C                 string size (12)
051C  44545F50554E4354+  "DT_PUNCT"
0524  55524500           "URE\0"
                         const [72]: "DT_PUNCTURE"
0528  04                 const type 4
0529  09                 string size (9)
052A  44545F534C415348+  "DT_SLASH"
0532  00                 "\0"
                         const [73]: "DT_SLASH"
0533  04                 const type 4
0534  08                 string size (8)
0535  44545F4649524500   "DT_FIRE\0"
                         const [74]: "DT_FIRE"
053D  04                 const type 4
053E  05                 string size (5)
053F  4669726500         "Fire\0"
                         const [75]: "Fire"
0544  04                 const type 4
0545  0A                 string size (10)
0546  44545F465245455A+  "DT_FREEZ"
054E  4500               "E\0"
                         const [76]: "DT_FREEZE"
0550  04                 const type 4
0551  07                 string size (7)
0552  467265657A6500     "Freeze\0"
                         const [77]: "Freeze"
0559  04                 const type 4
055A  0F                 string size (15)
055B  44545F454C454354+  "DT_ELECT"
0563  52494349545900     "RICITY\0"
                         const [78]: "DT_ELECTRICITY"
056A  04                 const type 4
056B  09                 string size (9)
056C  456C656374726963+  "Electric"
0574  00                 "\0"
                         const [79]: "Electric"
0575  04                 const type 4
0576  0A                 string size (10)
0577  44545F504F49534F+  "DT_POISO"
057F  4E00               "N\0"
                         const [80]: "DT_POISON"
0581  04                 const type 4
0582  07                 string size (7)
0583  506F69736F6E00     "Poison\0"
                         const [81]: "Poison"
058A  04                 const type 4
058B  0D                 string size (13)
058C  44545F4558504C4F+  "DT_EXPLO"
0594  53494F4E00         "SION\0"
                         const [82]: "DT_EXPLOSION"
0599  04                 const type 4
059A  0D                 string size (13)
059B  44545F5241444941+  "DT_RADIA"
05A3  54494F4E00         "TION\0"
                         const [83]: "DT_RADIATION"
05A8  04                 const type 4
05A9  07                 string size (7)
05AA  44545F47415300     "DT_GAS\0"
                         const [84]: "DT_GAS"
05B1  04                 const type 4
05B2  0C                 string size (12)
05B3  44545F4D41474E45+  "DT_MAGNE"
05BB  54494300           "TIC\0"
                         const [85]: "DT_MAGNETIC"
05BF  04                 const type 4
05C0  09                 string size (9)
05C1  44545F564952414C+  "DT_VIRAL"
05C9  00                 "\0"
                         const [86]: "DT_VIRAL"
05CA  04                 const type 4
05CB  0D                 string size (13)
05CC  44545F434F52524F+  "DT_CORRO"
05D4  5349564500         "SIVE\0"
                         const [87]: "DT_CORROSIVE"
05D9  04                 const type 4
05DA  0B                 string size (11)
05DB  44545F5241444941+  "DT_RADIA"
05E3  4E5400             "NT\0"
                         const [88]: "DT_RADIANT"
05E6  04                 const type 4
05E7  0C                 string size (12)
05E8  44545F53454E5449+  "DT_SENTI"
05F0  454E5400           "ENT\0"
                         const [89]: "DT_SENTIENT"
05F4  04                 const type 4
05F5  10                 string size (16)
05F6  47656E6572617465+  "Generate"
05FE  50726F66696C6500   "Profile\0"
                         const [90]: "GenerateProfile"
0606  04                 const type 4
0607  0D                 string size (13)
0608  47656E6572617465+  "Generate"
0610  4E616D6500         "Name\0"
                         const [91]: "GenerateName"
0615  04                 const type 4
0616  13                 string size (19)
0617  4765745265736F75+  "GetResou"
061F  72636573546F4C6F+  "rcesToLo"
0627  616400             "ad\0"
                         const [92]: "GetResourcesToLoad"
062A  04                 const type 4
062B  1C                 string size (28)
062C  47657450726F6669+  "GetProfi"
0634  6C6546726F6D4C6F+  "leFromLo"
063C  61644F7574537472+  "adOutStr"
0644  696E6700           "ing\0"
                         const [93]: "GetProfileFromLoadOutString"
0648  04                 const type 4
0649  18                 string size (24)
064A  506C61794E656D65+  "PlayNeme"
0652  7369735472616E73+  "sisTrans"
065A  6D697373696F6E00   "mission\0"
                         const [94]: "PlayNemesisTransmission"
0662  04                 const type 4
0663  18                 string size (24)
0664  526571756573744E+  "RequestN"
066C  656D65736973456E+  "emesisEn"
0674  636F756E74657200   "counter\0"
                         const [95]: "RequestNemesisEncounter"
067C  04                 const type 4
067D  0D                 string size (13)
067E  53746172744E656D+  "StartNem"
0686  6573697300         "esis\0"
                         const [96]: "StartNemesis"
068B  04                 const type 4
068C  0E                 string size (14)
068D  476574576561706F+  "GetWeapo"
0695  6E4E616D6500       "nName\0"
                         const [97]: "GetWeaponName"
069B  04                 const type 4
069C  18                 string size (24)
069D  4765745265717569+  "GetRequi"
06A5  72656448696E7450+  "redHintP"
06AD  726F677265737300   "rogress\0"
                         const [98]: "GetRequiredHintProgress"
06B5  04                 const type 4
06B6  18                 string size (24)
06B7  43616368654C6173+  "CacheLas"
06BF  744C6172766C696E+  "tLarvlin"
06C7  6744616D61676500   "gDamage\0"
                         const [99]: "CacheLastLarvlingDamage"
06CF  04                 const type 4
06D0  18                 string size (24)
06D1  436C6561724C6173+  "ClearLas"
06D9  744C6172766C696E+  "tLarvlin"
06E1  6744616D61676500   "gDamage\0"
                         const [100]: "ClearLastLarvlingDamage"
                         * functions:
06E9  0C                 sizep (12)
                         
06EA                     ** function [0] definition (level 2)
                         ** start of function **
06EA  00                 string size (0)
                         source name: (none)
06EB  0C                 line defined (12)
06EC  2C                 last line defined (44)
06ED  02                 nups (2)
06EE  03                 numparams (3)
06EF  00                 is_vararg (0)
06F0  0C                 maxstacksize (12)
                         * code:
06F1  5C                 sizecode (92)
06F2  DD000000           [01] getglobal  3   0        ; 687937235
06F6  19410000           [02] loadk      4   1        ; 0
06FA  59810000           [03] loadk      5   2        ; 0
06FE  E2808001           [04] call       3   3   2  
0702  C3C08081           [05] add        3   259 3    ; 0
0706  19010100           [06] loadk      4   4        ; ""
070A  5D410100           [07] getglobal  5   5        ; string
070E  4E81C102           [08] gettable   5   5   262  ; -965268854
0712  92010002           [09] move       6   4      
0716  62810001           [10] call       5   2   2  
fail op	21
071A  15C08002           [11] concat     0   5   3  
071E  1AC00180           [12] jmp        8            ; to [21]
0722  5D010000           [13] getglobal  5   0        ; 687937235
0726  99C10100           [14] loadk      6   7        ; 0
072A  CA010000           [15] len        7   0      
072E  62818001           [16] call       5   3   2  
0732  92010002           [17] move       6   4      
0736  CE410100           [18] gettable   7   0   5  
073A  02C10103           [19] concat     4   6   7  
073E  1A40FC7F           [20] jmp        -14          ; to [7]
0742  9D410100           [21] getglobal  6   5        ; string
0746  8E814103           [22] gettable   6   6   262  ; -965268854
074A  D2010002           [23] move       7   4      
074E  A2810001           [24] call       6   2   2  
0752  83C14003           [25] add        6   6   259  ; 0
0756  DD010000           [26] getglobal  7   0        ; 687937235
075A  19420000           [27] loadk      8   1        ; 0
075E  59020200           [28] loadk      9   8        ; 0
0762  E2818001           [29] call       7   3   2  
0766  C3C00103           [30] add        3   6   7  
076A  92010002           [31] move       6   4      
076E  D9410200           [32] loadk      7   9        ; " "
0772  02C10103           [33] concat     4   6   7  
0776  9D410100           [34] getglobal  6   5        ; string
077A  8E814103           [35] gettable   6   6   262  ; -965268854
077E  D2010002           [36] move       7   4      
0782  A2810001           [37] call       6   2   2  
fail op	21
0786  15C00003           [38] concat     0   6   3  
078A  1AC00180           [39] jmp        8            ; to [48]
078E  9D010000           [40] getglobal  6   0        ; 687937235
0792  D9C10100           [41] loadk      7   7        ; 0
0796  0A020000           [42] len        8   0      
079A  A2818001           [43] call       6   3   2  
079E  D2010002           [44] move       7   4      
07A2  0E820100           [45] gettable   8   0   6  
07A6  02018203           [46] concat     4   7   8  
07AA  1A40FC7F           [47] jmp        -14          ; to [34]
07AE  DD810200           [48] getglobal  7   10       ; 968599890
07B2  19420000           [49] loadk      8   1        ; 0
07B6  59C20100           [50] loadk      9   7        ; 0
07BA  E2818001           [51] call       7   3   2  
fail op	21
07BE  15408003           [52] concat     0   7   1  
07C2  1A800280           [53] jmp        11           ; to [65]
07C6  D3010000           [54] getupval   7   0      
07CA  1D020000           [55] getglobal  8   0        ; 687937235
07CE  59C20100           [56] loadk      9   7        ; 0
07D2  93020000           [57] getupval   10  0      
07D6  8A020005           [58] len        10  10     
07DA  22828001           [59] call       8   3   2  
07DE  CE018203           [60] gettable   7   7   8  
07E2  19420200           [61] loadk      8   9        ; " "
07E6  52020002           [62] move       9   4      
07EA  02418203           [63] concat     4   7   9  
07EE  1A400680           [64] jmp        26           ; to [91]
07F2  DD810200           [65] getglobal  7   10       ; 968599890
07F6  19420000           [66] loadk      8   1        ; 0
07FA  59C20100           [67] loadk      9   7        ; 0
07FE  E2818001           [68] call       7   3   2  
fail op	21
0802  15808003           [69] concat     0   7   2  
0806  1AC00480           [70] jmp        20           ; to [91]
080A  D3018000           [71] getupval   7   1      
080E  1D020000           [72] getglobal  8   0        ; 687937235
0812  59C20100           [73] loadk      9   7        ; 0
0816  93028000           [74] getupval   10  1      
081A  8A020005           [75] len        10  10     
081E  22828001           [76] call       8   3   2  
0822  CE018203           [77] gettable   7   7   8  
fail op	35
0826  23C0C203           [78] close      0  
082A  1A800180           [79] jmp        7            ; to [87]
082E  1D020300           [80] getglobal  8   12       ; -1615931716
0832  5D020000           [81] getglobal  9   0        ; 687937235
0836  99C20100           [82] loadk      10  7        ; 0
083A  D9420300           [83] loadk      11  13       ; 0
083E  62028001           [84] call       9   3   0  
0842  22820000           [85] call       8   0   2  
0846  D2010004           [86] move       7   8      
084A  12020002           [87] move       8   4      
084E  59420200           [88] loadk      9   9        ; " "
0852  92028003           [89] move       10  7      
0856  02810204           [90] concat     4   8   10 
085A  1E010001           [91] return     4   2      
085E  1E008000           [92] return     0   1      
                         * constants:
0862  0E                 sizek (14)
0863  01                 const type 3
0864  D3160129           const [0]: (687937235)
0868  03                 const type 3
0869  00000000           const [1]: (0)
086D  03                 const type 3
086E  00008040           const [2]: (0)
0872  03                 const type 3
0873  00004040           const [3]: (0)
0877  04                 const type 4
0878  01                 string size (0)
                         const [4]: ""
087A  04                 const type 4
087B  07                 string size (7)
087C  737472696E6700     "string\0"
                         const [5]: "string"
0883  01                 const type 3
0884  8A2A77C6           const [6]: (-965268854)
0888  03                 const type 3
0889  0000803F           const [7]: (0)
088D  03                 const type 3
088E  00000040           const [8]: (0)
0892  04                 const type 4
0893  02                 string size (2)
0894  2000               " \0"
                         const [9]: " "
0896  01                 const type 3
0897  52A9BB39           const [10]: (968599890)
089B  04                 const type 4
089C  02                 string size (2)
089D  2300               "#\0"
                         const [11]: "#"
089F  01                 const type 3
08A0  BCD6AE9F           const [12]: (-1615931716)
08A4  03                 const type 3
08A5  0000F841           const [13]: (0)
                         * functions:
08A9  00                 sizep (0)
                         * lines:
08AA  5C                 sizelineinfo (92)
                         [pc] (line)
08AB  0D                 [01] (13)
08AC  00                 [02] (13)
08AD  00                 [03] (13)
08AE  00                 [04] (13)
08AF  0D                 [05] (13)
08B0  00                 [06] (14)
08B1  00                 [07] (16)
08B2  00                 [08] (16)
08B3  0D                 [09] (16)
08B4  00                 [10] (16)
08B5  00                 [11] (16)
08B6  00                 [12] (16)
08B7  0D                 [13] (17)
08B8  00                 [14] (17)
08B9  00                 [15] (17)
08BA  00                 [16] (17)
08BB  0D                 [17] (18)
08BC  00                 [18] (18)
08BD  00                 [19] (18)
08BE  00                 [20] (18)
08BF  0E                 [21] (22)
08C0  00                 [22] (22)
08C1  00                 [23] (22)
08C2  00                 [24] (22)
08C3  10                 [25] (22)
08C4  00                 [26] (22)
08C5  00                 [27] (22)
08C6  00                 [28] (22)
08C7  10                 [29] (22)
08C8  00                 [30] (22)
08C9  00                 [31] (23)
08CA  00                 [32] (23)
08CB  10                 [33] (23)
08CC  00                 [34] (25)
08CD  00                 [35] (25)
08CE  00                 [36] (25)
08CF  10                 [37] (25)
08D0  00                 [38] (25)
08D1  00                 [39] (25)
08D2  00                 [40] (26)
08D3  10                 [41] (26)
08D4  00                 [42] (26)
08D5  00                 [43] (26)
08D6  00                 [44] (27)
08D7  10                 [45] (27)
08D8  00                 [46] (27)
08D9  00                 [47] (27)
08DA  00                 [48] (33)
08DB  11                 [49] (33)
08DC  00                 [50] (33)
08DD  00                 [51] (33)
08DE  00                 [52] (33)
08DF  11                 [53] (33)
08E0  00                 [54] (34)
08E1  00                 [55] (34)
08E2  00                 [56] (34)
08E3  11                 [57] (34)
08E4  00                 [58] (34)
08E5  00                 [59] (34)
08E6  00                 [60] (34)
08E7  11                 [61] (34)
08E8  00                 [62] (34)
08E9  00                 [63] (34)
08EA  00                 [64] (34)
08EB  12                 [65] (35)
08EC  00                 [66] (35)
08ED  00                 [67] (35)
08EE  00                 [68] (35)
08EF  12                 [69] (35)
08F0  00                 [70] (35)
08F1  00                 [71] (36)
08F2  00                 [72] (36)
08F3  12                 [73] (36)
08F4  00                 [74] (36)
08F5  00                 [75] (36)
08F6  00                 [76] (36)
08F7  12                 [77] (36)
08F8  00                 [78] (37)
08F9  00                 [79] (37)
08FA  00                 [80] (38)
08FB  16                 [81] (38)
08FC  00                 [82] (38)
08FD  00                 [83] (38)
08FE  00                 [84] (38)
08FF  16                 [85] (38)
0900  00                 [86] (38)
0901  00                 [87] (40)
0902  00                 [88] (40)
0903  16                 [89] (40)
0904  00                 [90] (40)
0905  00                 [91] (43)
0906  00                 [92] (44)
                         * locals:
0A1B  00                 sizelocvars (0)
                         * upvalues:
0A1C  00                 sizeupvalues (0)
                         ** end of function **

                         
0A1D                     ** function [1] definition (level 2)
                         ** start of function **
0A1D  00                 string size (0)
                         source name: (none)
0A1E  2E                 line defined (46)
0A1F  3B                 last line defined (59)
0A20  01                 nups (1)
0A21  02                 numparams (2)
0A22  00                 is_vararg (0)
0A23  06                 maxstacksize (6)
                         * code:
0A24  17                 sizecode (23)
0A25  9D000000           [01] getglobal  2   0        ; 2012104780
0A29  A2808000           [02] call       2   1   2  
0A2D  DD400000           [03] getglobal  3   1        ; -1692306532
0A31  24814000           [04] self       4   0   258  ; -177336264
0A35  22010001           [05] call       4   2   0  
0A39  E2400000           [06] call       3   0   1  
0A3D  C6008001           [07] loadnil    3   3      
fail op	35
0A41  23C0C000           [08] close      0  
0A45  1A000180           [09] jmp        5            ; to [15]
0A49  13010000           [10] getupval   4   0      
0A4D  0E014102           [11] gettable   4   4   260  ; -801722767
0A51  22818000           [12] call       4   1   2  
0A55  D2000002           [13] move       3   4      
0A59  1AC00080           [14] jmp        4            ; to [19]
0A5D  13010000           [15] getupval   4   0      
0A61  0E414102           [16] gettable   4   4   261  ; -1328737867
0A65  22818000           [17] call       4   1   2  
0A69  D2000002           [18] move       3   4      
0A6D  1D410000           [19] getglobal  4   1        ; -1692306532
0A71  52010001           [20] move       5   2      
0A75  22410001           [21] call       4   2   1  
0A79  DE000001           [22] return     3   2      
0A7D  1E008000           [23] return     0   1      
                         * constants:
0A81  06                 sizek (6)
0A82  01                 const type 3
0A83  4C48EE77           const [0]: (2012104780)
0A87  01                 const type 3
0A88  9C73219B           const [1]: (-1692306532)
0A8C  01                 const type 3
0A8D  38106EF5           const [2]: (-177336264)
0A91  03                 const type 3
0A92  0000803F           const [3]: (0)
0A96  01                 const type 3
0A97  71AE36D0           const [4]: (-801722767)
0A9B  01                 const type 3
0A9C  B511CDB0           const [5]: (-1328737867)
                         * functions:
0AA0  00                 sizep (0)
                         * lines:
0AA1  17                 sizelineinfo (23)
                         [pc] (line)
0AA2  31                 [01] (49)
0AA3  00                 [02] (49)
0AA4  00                 [03] (50)
0AA5  00                 [04] (50)
0AA6  31                 [05] (50)
0AA7  00                 [06] (50)
0AA8  00                 [07] (51)
0AA9  00                 [08] (52)
0AAA  32                 [09] (52)
0AAB  00                 [10] (53)
0AAC  00                 [11] (53)
0AAD  00                 [12] (53)
0AAE  32                 [13] (53)
0AAF  00                 [14] (53)
0AB0  00                 [15] (55)
0AB1  00                 [16] (55)
0AB2  32                 [17] (55)
0AB3  00                 [18] (55)
0AB4  00                 [19] (57)
0AB5  00                 [20] (57)
0AB6  32                 [21] (57)
0AB7  00                 [22] (58)
0AB8  00                 [23] (59)
                         * locals:
0AFE  00                 sizelocvars (0)
                         * upvalues:
0AFF  00                 sizeupvalues (0)
                         ** end of function **

                         
0B00                     ** function [2] definition (level 2)
                         ** start of function **
0B00  00                 string size (0)
                         source name: (none)
0B01  3D                 line defined (61)
0B02  4A                 last line defined (74)
0B03  00                 nups (0)
0B04  01                 numparams (1)
0B05  00                 is_vararg (0)
0B06  0B                 maxstacksize (11)
                         * code:
0B07  23                 sizecode (35)
0B08  5D000000           [01] getglobal  1   0        ; -1817107093
0B0C  99400000           [02] loadk      2   1        ; "NemesisGenerator generating profile"
0B10  62400001           [03] call       1   2   1  
0B14  5D800000           [04] getglobal  1   2        ; 1074689893
0B18  8EC04000           [05] gettable   2   0   259  ; "mManifest"
0B1C  62800001           [06] call       1   2   2  
0B20  58000000           [07] test       1       0    ; to [9] if true
0B24  1A800080           [08] jmp        3            ; to [12]
0B28  5D000000           [09] getglobal  1   0        ; -1817107093
0B2C  99000100           [10] loadk      2   4        ; "no manifest type"
0B30  62400001           [11] call       1   2   1  
0B34  5D400100           [12] getglobal  1   5        ; 2083004503
0B38  8EC04000           [13] gettable   2   0   259  ; "mManifest"
0B3C  62800001           [14] call       1   2   2  
0B40  9D800000           [15] getglobal  2   2        ; 1074689893
0B44  D2008000           [16] move       3   1      
0B48  A2800001           [17] call       2   2   2  
0B4C  98400000           [18] test       2       1    ; to [20] if false
0B50  1AC00280           [19] jmp        12           ; to [32]
0B54  A4804100           [20] self       2   0   262  ; -881195448
0B58  A2800001           [21] call       2   2   2  
0B5C  E4C0C100           [22] self       3   1   263  ; -2079289879
0B60  52010001           [23] move       5   2      
0B64  8E014200           [24] gettable   6   0   264  ; "mKillingSuit"
0B68  CE414200           [25] gettable   7   0   265  ; "mShoulderHelmet"
0B6C  0E824200           [26] gettable   8   0   266  ; "mAgentIdx"
0B70  4EC24200           [27] gettable   9   0   267  ; "mRank"
0B74  8E024300           [28] gettable   10  0   268  ; "mNumInfluenceNodes"
0B78  E2800004           [29] call       3   8   2  
0B7C  DE000001           [30] return     3   2      
0B80  1A800080           [31] jmp        3            ; to [35]
0B84  1D010000           [32] getglobal  4   0        ; -1817107093
0B88  59410300           [33] loadk      5   13       ; "null manifest!"
0B8C  22410001           [34] call       4   2   1  
0B90  1E008000           [35] return     0   1      
                         * constants:
0B94  0E                 sizek (14)
0B95  01                 const type 3
0B96  6B25B193           const [0]: (-1817107093)
0B9A  04                 const type 4
0B9B  24                 string size (36)
0B9C  4E656D6573697347+  "NemesisG"
0BA4  656E657261746F72+  "enerator"
0BAC  2067656E65726174+  " generat"
0BB4  696E672070726F66+  "ing prof"
0BBC  696C6500           "ile\0"
                         const [1]: "NemesisGenerator generating profile"
0BC0  01                 const type 3
0BC1  65770E40           const [2]: (1074689893)
0BC5  04                 const type 4
0BC6  0A                 string size (10)
0BC7  6D4D616E69666573+  "mManifes"
0BCF  7400               "t\0"
                         const [3]: "mManifest"
0BD1  04                 const type 4
0BD2  11                 string size (17)
0BD3  6E6F206D616E6966+  "no manif"
0BDB  6573742074797065+  "est type"
0BE3  00                 "\0"
                         const [4]: "no manifest type"
0BE4  01                 const type 3
0BE5  5720287C           const [5]: (2083004503)
0BE9  01                 const type 3
0BEA  48067ACB           const [6]: (-881195448)
0BEE  01                 const type 3
0BEF  E98D1084           const [7]: (-2079289879)
0BF3  04                 const type 4
0BF4  0D                 string size (13)
0BF5  6D4B696C6C696E67+  "mKilling"
0BFD  5375697400         "Suit\0"
                         const [8]: "mKillingSuit"
0C02  04                 const type 4
0C03  10                 string size (16)
0C04  6D53686F756C6465+  "mShoulde"
0C0C  7248656C6D657400   "rHelmet\0"
                         const [9]: "mShoulderHelmet"
0C14  04                 const type 4
0C15  0A                 string size (10)
0C16  6D4167656E744964+  "mAgentId"
0C1E  7800               "x\0"
                         const [10]: "mAgentIdx"
0C20  04                 const type 4
0C21  06                 string size (6)
0C22  6D52616E6B00       "mRank\0"
                         const [11]: "mRank"
0C28  04                 const type 4
0C29  13                 string size (19)
0C2A  6D4E756D496E666C+  "mNumInfl"
0C32  75656E63654E6F64+  "uenceNod"
0C3A  657300             "es\0"
                         const [12]: "mNumInfluenceNodes"
0C3D  04                 const type 4
0C3E  0F                 string size (15)
0C3F  6E756C6C206D616E+  "null man"
0C47  69666573742100     "ifest!\0"
                         const [13]: "null manifest!"
                         * functions:
0C4E  00                 sizep (0)
                         * lines:
0C4F  23                 sizelineinfo (35)
                         [pc] (line)
0C50  3E                 [01] (62)
0C51  00                 [02] (62)
0C52  00                 [03] (62)
0C53  00                 [04] (63)
0C54  3E                 [05] (63)
0C55  00                 [06] (63)
0C56  00                 [07] (63)
0C57  00                 [08] (63)
0C58  3E                 [09] (64)
0C59  00                 [10] (64)
0C5A  00                 [11] (64)
0C5B  00                 [12] (66)
0C5C  3F                 [13] (66)
0C5D  00                 [14] (66)
0C5E  00                 [15] (67)
0C5F  00                 [16] (67)
0C60  3F                 [17] (67)
0C61  00                 [18] (67)
0C62  00                 [19] (67)
0C63  00                 [20] (68)
0C64  3F                 [21] (68)
0C65  00                 [22] (69)
0C66  00                 [23] (69)
0C67  00                 [24] (69)
0C68  3F                 [25] (69)
0C69  00                 [26] (69)
0C6A  00                 [27] (69)
0C6B  00                 [28] (69)
0C6C  3F                 [29] (69)
0C6D  00                 [30] (70)
0C6E  00                 [31] (70)
0C6F  00                 [32] (72)
0C70  40                 [33] (72)
0C71  00                 [34] (72)
0C72  00                 [35] (74)
                         * locals:
0CDC  00                 sizelocvars (0)
                         * upvalues:
0CDD  00                 sizeupvalues (0)
                         ** end of function **

                         
0CDE                     ** function [3] definition (level 2)
                         ** start of function **
0CDE  00                 string size (0)
                         source name: (none)
0CDF  4C                 line defined (76)
0CE0  50                 last line defined (80)
0CE1  01                 nups (1)
0CE2  01                 numparams (1)
0CE3  00                 is_vararg (0)
0CE4  05                 maxstacksize (5)
                         * code:
0CE5  0B                 sizecode (11)
0CE6  5D000000           [01] getglobal  1   0        ; Lotus_Game
0CEA  4E40C000           [02] gettable   1   1   257  ; 1330439658
0CEE  62808000           [03] call       1   1   2  
0CF2  A480C000           [04] self       2   1   258  ; 520195212
0CF6  12010000           [05] move       4   0      
0CFA  A2408001           [06] call       2   3   1  
0CFE  93000000           [07] getupval   2   0      
0D02  D2008000           [08] move       3   1      
0D06  87000001           [09] tailcall   2   2   0  
0D0A  9E000000           [10] return     2   0      
0D0E  1E008000           [11] return     0   1      
                         * constants:
0D12  03                 sizek (3)
0D13  04                 const type 4
0D14  0B                 string size (11)
0D15  4C6F7475735F4761+  "Lotus_Ga"
0D1D  6D6500             "me\0"
                         const [0]: "Lotus_Game"
0D20  01                 const type 3
0D21  EAE54C4F           const [1]: (1330439658)
0D25  01                 const type 3
0D26  8C8C011F           const [2]: (520195212)
                         * functions:
0D2A  00                 sizep (0)
                         * lines:
0D2B  0B                 sizelineinfo (11)
                         [pc] (line)
0D2C  4D                 [01] (77)
0D2D  00                 [02] (77)
0D2E  00                 [03] (77)
0D2F  00                 [04] (78)
0D30  4D                 [05] (78)
0D31  00                 [06] (78)
0D32  00                 [07] (79)
0D33  00                 [08] (79)
0D34  4D                 [09] (79)
0D35  00                 [10] (79)
0D36  00                 [11] (80)
                         * locals:
0D58  00                 sizelocvars (0)
                         * upvalues:
0D59  00                 sizeupvalues (0)
                         ** end of function **

                         
0D5A                     ** function [4] definition (level 2)
                         ** start of function **
0D5A  00                 string size (0)
                         source name: (none)
0D5B  52                 line defined (82)
0D5C  92                 last line defined (146)
0D5D  01                 nups (0)
0D5E  00                 numparams (1)
0D5F  01                 is_vararg (0)
0D60  00                 maxstacksize (22)
                         * code:
0D63  01                 sizecode (176)
0D64  4B000000           [001] newtable   1   0   0    ; array=0, hash=0
0D68  9D000000           [002] getglobal  2   0        ; table
0D6C  8E404001           [003] gettable   2   2   257  ; -431682403
0D70  D2008000           [004] move       3   1      
0D74  0E814000           [005] gettable   4   0   258  ; "mAgent"
0D78  24C14002           [006] self       4   4   259  ; 455421500
0D7C  22010001           [007] call       4   2   0  
0D80  A2400000           [008] call       2   0   1  
0D84  8E004100           [009] gettable   2   0   260  ; "mWeapon"
0D88  DD000000           [010] getglobal  3   0        ; table
0D8C  CE40C001           [011] gettable   3   3   257  ; -431682403
0D90  12018000           [012] move       4   1      
0D94  64C14001           [013] self       5   2   259  ; 455421500
0D98  62010001           [014] call       5   2   0  
0D9C  E2400000           [015] call       3   0   1  
0DA0  DD400100           [016] getglobal  3   5        ; 1074689893
0DA4  0E814100           [017] gettable   4   0   262  ; "mWeaponUpgrade"
0DA8  E2800001           [018] call       3   2   2  
0DAC  D8400000           [019] test       3       1    ; to [21] if false
0DB0  1A800180           [020] jmp        7            ; to [28]
0DB4  DD000000           [021] getglobal  3   0        ; table
0DB8  CE40C001           [022] gettable   3   3   257  ; -431682403
0DBC  12018000           [023] move       4   1      
0DC0  4E814100           [024] gettable   5   0   262  ; "mWeaponUpgrade"
0DC4  64C1C002           [025] self       5   5   259  ; 455421500
0DC8  62010001           [026] call       5   2   0  
0DCC  E2400000           [027] call       3   0   1  
0DD0  DD400100           [028] getglobal  3   5        ; 1074689893
0DD4  0EC14100           [029] gettable   4   0   263  ; "mHead"
0DD8  E2800001           [030] call       3   2   2  
0DDC  D8400000           [031] test       3       1    ; to [33] if false
0DE0  1A800180           [032] jmp        7            ; to [40]
0DE4  DD000000           [033] getglobal  3   0        ; table
0DE8  CE40C001           [034] gettable   3   3   257  ; -431682403
0DEC  12018000           [035] move       4   1      
0DF0  4EC14100           [036] gettable   5   0   263  ; "mHead"
0DF4  64C1C002           [037] self       5   5   259  ; 455421500
0DF8  62010001           [038] call       5   2   0  
0DFC  E2400000           [039] call       3   0   1  
0E00  CE004200           [040] gettable   3   0   264  ; "mArmor"
0E04  1D410200           [041] getglobal  4   9        ; 248503575
0E08  52018001           [042] move       5   3      
0E0C  22010101           [043] call       4   2   4  
0E10  1A400180           [044] jmp        6            ; to [51]
0E14  5D020000           [045] getglobal  9   0        ; table
0E18  4E42C004           [046] gettable   9   9   257  ; -431682403
0E1C  92028000           [047] move       10  1      
0E20  E4C24004           [048] self       11  8   259  ; 455421500
0E24  E2020001           [049] call       11  2   0  
0E28  62420000           [050] call       9   0   1  
0E2C  16810000           [051] tforloop   4       2    ; to [53] if exit
0E30  1AC0FD7F           [052] jmp        -8           ; to [45]
0E34  5D420100           [053] getglobal  9   5        ; 1074689893
0E38  8E824200           [054] gettable   10  0   266  ; "mEphemera"
0E3C  62820001           [055] call       9   2   2  
0E40  58420000           [056] test       9       1    ; to [58] if false
0E44  1A800180           [057] jmp        7            ; to [65]
0E48  5D020000           [058] getglobal  9   0        ; table
0E4C  4E42C004           [059] gettable   9   9   257  ; -431682403
0E50  92028000           [060] move       10  1      
0E54  CE824200           [061] gettable   11  0   266  ; "mEphemera"
0E58  E4C2C005           [062] self       11  11  259  ; 455421500
0E5C  E2020001           [063] call       11  2   0  
0E60  62420000           [064] call       9   0   1  
0E64  5D420100           [065] getglobal  9   5        ; 1074689893
0E68  8EC24200           [066] gettable   10  0   267  ; "mShoulderHelmetDeco"
0E6C  62820001           [067] call       9   2   2  
0E70  58420000           [068] test       9       1    ; to [70] if false
0E74  1AC00180           [069] jmp        8            ; to [78]
0E78  5D020000           [070] getglobal  9   0        ; table
0E7C  4E42C004           [071] gettable   9   9   257  ; -431682403
0E80  92028000           [072] move       10  1      
0E84  CEC24200           [073] gettable   11  0   267  ; "mShoulderHelmetDeco"
0E88  E4C2C005           [074] self       11  11  259  ; 455421500
0E8C  E2020001           [075] call       11  2   0  
0E90  62420000           [076] call       9   0   1  
0E94  1AC00280           [077] jmp        12           ; to [90]
0E98  5D420100           [078] getglobal  9   5        ; 1074689893
0E9C  8E024300           [079] gettable   10  0   268  ; "mShoulderHelmetCustomization"
0EA0  62820001           [080] call       9   2   2  
0EA4  58420000           [081] test       9       1    ; to [83] if false
0EA8  1A800180           [082] jmp        7            ; to [90]
0EAC  5D020000           [083] getglobal  9   0        ; table
0EB0  4E42C004           [084] gettable   9   9   257  ; -431682403
0EB4  92028000           [085] move       10  1      
0EB8  CE024300           [086] gettable   11  0   268  ; "mShoulderHelmetCustomization"
0EBC  E4C2C005           [087] self       11  11  259  ; 455421500
0EC0  E2020001           [088] call       11  2   0  
0EC4  62420000           [089] call       9   0   1  
0EC8  4E424300           [090] gettable   9   0   269  ; "mVoiceBox"
0ECC  9D420100           [091] getglobal  10  5        ; 1074689893
0ED0  D2028004           [092] move       11  9      
0ED4  A2820001           [093] call       10  2   2  
0ED8  98420000           [094] test       10      1    ; to [96] if false
0EDC  1A400180           [095] jmp        6            ; to [102]
0EE0  9D020000           [096] getglobal  10  0        ; table
0EE4  8E424005           [097] gettable   10  10  257  ; -431682403
0EE8  D2028000           [098] move       11  1      
0EEC  24C3C004           [099] self       12  9   259  ; 455421500
0EF0  22030001           [100] call       12  2   0  
0EF4  A2420000           [101] call       10  0   1  
0EF8  8E824300           [102] gettable   10  0   270  ; "mTransmissionSet"
0EFC  DD420100           [103] getglobal  11  5        ; 1074689893
0F00  12030005           [104] move       12  10     
0F04  E2820001           [105] call       11  2   2  
0F08  D8420000           [106] test       11      1    ; to [108] if false
0F0C  1A400180           [107] jmp        6            ; to [114]
0F10  DD020000           [108] getglobal  11  0        ; table
0F14  CE42C005           [109] gettable   11  11  257  ; -431682403
0F18  12038000           [110] move       12  1      
0F1C  64C34005           [111] self       13  10  259  ; 455421500
0F20  62030001           [112] call       13  2   0  
0F24  E2420000           [113] call       11  0   1  
0F28  CEC24300           [114] gettable   11  0   271  ; "mDspEffect"
0F2C  1D430100           [115] getglobal  12  5        ; 1074689893
0F30  52038005           [116] move       13  11     
0F34  22830001           [117] call       12  2   2  
0F38  18430000           [118] test       12      1    ; to [120] if false
0F3C  1A400180           [119] jmp        6            ; to [126]
0F40  1D030000           [120] getglobal  12  0        ; table
0F44  0E434006           [121] gettable   12  12  257  ; -431682403
0F48  52038000           [122] move       13  1      
0F4C  A4C3C005           [123] self       14  11  259  ; 455421500
0F50  A2030001           [124] call       14  2   0  
0F54  22430000           [125] call       12  0   1  
0F58  1D430100           [126] getglobal  12  5        ; 1074689893
0F5C  4E034400           [127] gettable   13  0   272  ; "mPowerSuit"
0F60  22830001           [128] call       12  2   2  
0F64  18430000           [129] test       12      1    ; to [131] if false
0F68  1A800180           [130] jmp        7            ; to [138]
0F6C  1D030000           [131] getglobal  12  0        ; table
0F70  0E434006           [132] gettable   12  12  257  ; -431682403
0F74  52038000           [133] move       13  1      
0F78  8E034400           [134] gettable   14  0   272  ; "mPowerSuit"
0F7C  A4C34007           [135] self       14  14  259  ; 455421500
0F80  A2030001           [136] call       14  2   0  
0F84  22430000           [137] call       12  0   1  
0F88  1D430100           [138] getglobal  12  5        ; 1074689893
0F8C  4E434400           [139] gettable   13  0   273  ; "mExtraAbility"
0F90  22830001           [140] call       12  2   2  
0F94  18430000           [141] test       12      1    ; to [143] if false
0F98  1A800180           [142] jmp        7            ; to [150]
0F9C  1D030000           [143] getglobal  12  0        ; table
0FA0  0E434006           [144] gettable   12  12  257  ; -431682403
0FA4  52038000           [145] move       13  1      
0FA8  8E434400           [146] gettable   14  0   273  ; "mExtraAbility"
0FAC  A4C34007           [147] self       14  14  259  ; 455421500
0FB0  A2030001           [148] call       14  2   0  
0FB4  22430000           [149] call       12  0   1  
0FB8  0E834400           [150] gettable   12  0   274  ; "mTraits"
0FBC  5D430200           [151] getglobal  13  9        ; 248503575
0FC0  92030006           [152] move       14  12     
0FC4  62030101           [153] call       13  2   4  
0FC8  1A400180           [154] jmp        6            ; to [161]
0FCC  9D040000           [155] getglobal  18  0        ; table
0FD0  8E444009           [156] gettable   18  18  257  ; -431682403
0FD4  D2048000           [157] move       19  1      
0FD8  24C5C008           [158] self       20  17  259  ; 455421500
0FDC  22050001           [159] call       20  2   0  
0FE0  A2440000           [160] call       18  0   1  
0FE4  56830000           [161] tforloop   13      2    ; to [163] if exit
0FE8  1AC0FD7F           [162] jmp        -8           ; to [155]
0FEC  9D440100           [163] getglobal  18  5        ; 1074689893
0FF0  CEC44400           [164] gettable   19  0   275  ; "mQuirk"
0FF4  A2840001           [165] call       18  2   2  
0FF8  98440000           [166] test       18      1    ; to [168] if false
0FFC  1A800180           [167] jmp        7            ; to [175]
1000  9D040000           [168] getglobal  18  0        ; table
1004  8E444009           [169] gettable   18  18  257  ; -431682403
1008  D2048000           [170] move       19  1      
100C  0EC54400           [171] gettable   20  0   275  ; "mQuirk"
1010  24C5400A           [172] self       20  20  259  ; 455421500
1014  22050001           [173] call       20  2   0  
1018  A2440000           [174] call       18  0   1  
101C  5E000001           [175] return     1   2      
1020  1E008000           [176] return     0   1      
                         * constants:
1024  14                 sizek (20)
1025  04                 const type 4
1026  06                 string size (6)
1027  7461626C6500       "table\0"
                         const [0]: "table"
102D  01                 const type 3
102E  9D0C45E6           const [1]: (-431682403)
1032  04                 const type 4
1033  07                 string size (7)
1034  6D4167656E7400     "mAgent\0"
                         const [2]: "mAgent"
103B  01                 const type 3
103C  3C2E251B           const [3]: (455421500)
1040  04                 const type 4
1041  08                 string size (8)
1042  6D576561706F6E00   "mWeapon\0"
                         const [4]: "mWeapon"
104A  01                 const type 3
104B  65770E40           const [5]: (1074689893)
104F  04                 const type 4
1050  0F                 string size (15)
1051  6D576561706F6E55+  "mWeaponU"
1059  70677261646500     "pgrade\0"
                         const [6]: "mWeaponUpgrade"
1060  04                 const type 4
1061  06                 string size (6)
1062  6D4865616400       "mHead\0"
                         const [7]: "mHead"
1068  04                 const type 4
1069  07                 string size (7)
106A  6D41726D6F7200     "mArmor\0"
                         const [8]: "mArmor"
1071  01                 const type 3
1072  17DDCF0E           const [9]: (248503575)
1076  04                 const type 4
1077  0A                 string size (10)
1078  6D457068656D6572+  "mEphemer"
1080  6100               "a\0"
                         const [10]: "mEphemera"
1082  04                 const type 4
1083  14                 string size (20)
1084  6D53686F756C6465+  "mShoulde"
108C  7248656C6D657444+  "rHelmetD"
1094  65636F00           "eco\0"
                         const [11]: "mShoulderHelmetDeco"
1098  04                 const type 4
1099  1D                 string size (29)
109A  6D53686F756C6465+  "mShoulde"
10A2  7248656C6D657443+  "rHelmetC"
10AA  7573746F6D697A61+  "ustomiza"
10B2  74696F6E00         "tion\0"
                         const [12]: "mShoulderHelmetCustomization"
10B7  04                 const type 4
10B8  0A                 string size (10)
10B9  6D566F696365426F+  "mVoiceBo"
10C1  7800               "x\0"
                         const [13]: "mVoiceBox"
10C3  04                 const type 4
10C4  11                 string size (17)
10C5  6D5472616E736D69+  "mTransmi"
10CD  7373696F6E536574+  "ssionSet"
10D5  00                 "\0"
                         const [14]: "mTransmissionSet"
10D6  04                 const type 4
10D7  0B                 string size (11)
10D8  6D44737045666665+  "mDspEffe"
10E0  637400             "ct\0"
                         const [15]: "mDspEffect"
10E3  04                 const type 4
10E4  0B                 string size (11)
10E5  6D506F7765725375+  "mPowerSu"
10ED  697400             "it\0"
                         const [16]: "mPowerSuit"
10F0  04                 const type 4
10F1  0E                 string size (14)
10F2  6D45787472614162+  "mExtraAb"
10FA  696C69747900       "ility\0"
                         const [17]: "mExtraAbility"
1100  04                 const type 4
1101  08                 string size (8)
1102  6D54726169747300   "mTraits\0"
                         const [18]: "mTraits"
110A  04                 const type 4
110B  07                 string size (7)
110C  6D517569726B00     "mQuirk\0"
                         const [19]: "mQuirk"
                         * functions:
1113  00                 sizep (0)
                         * lines:
1115  01                 sizelineinfo (176)
                         [pc] (line)
1116  54                 [001] (84)
1117  00                 [002] (85)
1118  00                 [003] (85)
1119  00                 [004] (85)
111A  55                 [005] (85)
111B  00                 [006] (85)
111C  00                 [007] (85)
111D  00                 [008] (85)
111E  55                 [009] (87)
111F  00                 [010] (88)
1120  00                 [011] (88)
1121  00                 [012] (88)
1122  55                 [013] (88)
1123  00                 [014] (88)
1124  00                 [015] (88)
1125  00                 [016] (90)
1126  55                 [017] (90)
1127  00                 [018] (90)
1128  00                 [019] (90)
1129  00                 [020] (90)
112A  55                 [021] (91)
112B  00                 [022] (91)
112C  00                 [023] (91)
112D  00                 [024] (91)
112E  55                 [025] (91)
112F  00                 [026] (91)
1130  00                 [027] (91)
1131  00                 [028] (94)
1132  55                 [029] (94)
1133  00                 [030] (94)
1134  00                 [031] (94)
1135  00                 [032] (94)
1136  57                 [033] (95)
1137  00                 [034] (95)
1138  00                 [035] (95)
1139  00                 [036] (95)
113A  58                 [037] (95)
113B  00                 [038] (95)
113C  00                 [039] (95)
113D  00                 [040] (98)
113E  58                 [041] (99)
113F  00                 [042] (99)
1140  00                 [043] (99)
1141  00                 [044] (99)
1142  58                 [045] (100)
1143  00                 [046] (100)
1144  00                 [047] (100)
1145  00                 [048] (100)
1146  58                 [049] (100)
1147  00                 [050] (100)
1148  00                 [051] (99)
1149  00                 [052] (100)
114A  58                 [053] (103)
114B  00                 [054] (103)
114C  00                 [055] (103)
114D  00                 [056] (103)
114E  58                 [057] (103)
114F  00                 [058] (104)
1150  00                 [059] (104)
1151  00                 [060] (104)
1152  5A                 [061] (104)
1153  00                 [062] (104)
1154  00                 [063] (104)
1155  00                 [064] (104)
1156  5A                 [065] (107)
1157  00                 [066] (107)
1158  00                 [067] (107)
1159  00                 [068] (107)
115A  5A                 [069] (107)
115B  00                 [070] (108)
115C  00                 [071] (108)
115D  00                 [072] (108)
115E  5A                 [073] (108)
115F  00                 [074] (108)
1160  00                 [075] (108)
1161  00                 [076] (108)
1162  5A                 [077] (108)
1163  00                 [078] (109)
1164  00                 [079] (109)
1165  00                 [080] (109)
1166  5B                 [081] (109)
1167  00                 [082] (109)
1168  00                 [083] (110)
1169  00                 [084] (110)
116A  5B                 [085] (110)
116B  00                 [086] (110)
116C  00                 [087] (110)
116D  00                 [088] (110)
116E  5B                 [089] (110)
116F  00                 [090] (113)
1170  00                 [091] (114)
1171  00                 [092] (114)
1172  5B                 [093] (114)
1173  00                 [094] (114)
1174  00                 [095] (114)
1175  00                 [096] (115)
1176  5B                 [097] (115)
1177  00                 [098] (115)
1178  00                 [099] (115)
1179  00                 [100] (115)
117A  5B                 [101] (115)
117B  00                 [102] (118)
117C  00                 [103] (119)
117D  00                 [104] (119)
117E  5B                 [105] (119)
117F  00                 [106] (119)
1180  00                 [107] (119)
1181  00                 [108] (120)
1182  5E                 [109] (120)
1183  00                 [110] (120)
1184  00                 [111] (120)
1185  00                 [112] (120)
1186  5E                 [113] (120)
1187  00                 [114] (123)
1188  00                 [115] (124)
1189  00                 [116] (124)
118A  5E                 [117] (124)
118B  00                 [118] (124)
118C  00                 [119] (124)
118D  00                 [120] (125)
118E  5E                 [121] (125)
118F  00                 [122] (125)
1190  00                 [123] (125)
1191  00                 [124] (125)
1192  5E                 [125] (125)
1193  00                 [126] (-128)
1194  00                 [127] (-128)
1195  00                 [128] (-128)
1196  5F                 [129] (-128)
1197  00                 [130] (-128)
1198  00                 [131] (-127)
1199  00                 [132] (-127)
119A  5F                 [133] (-127)
119B  00                 [134] (-127)
119C  00                 [135] (-127)
119D  00                 [136] (-127)
119E  5F                 [137] (-127)
119F  00                 [138] (-124)
11A0  00                 [139] (-124)
11A1  00                 [140] (-124)
11A2  5F                 [141] (-124)
11A3  00                 [142] (-124)
11A4  00                 [143] (-123)
11A5  00                 [144] (-123)
11A6  5F                 [145] (-123)
11A7  00                 [146] (-123)
11A8  00                 [147] (-123)
11A9  00                 [148] (-123)
11AA  5F                 [149] (-123)
11AB  00                 [150] (-120)
11AC  00                 [151] (-119)
11AD  00                 [152] (-119)
11AE  5F                 [153] (-119)
11AF  00                 [154] (-119)
11B0  00                 [155] (-118)
11B1  00                 [156] (-118)
11B2  62                 [157] (-118)
11B3  00                 [158] (-118)
11B4  00                 [159] (-118)
11B5  00                 [160] (-118)
11B6  63                 [161] (-119)
11B7  00                 [162] (-118)
11B8  00                 [163] (-115)
11B9  00                 [164] (-115)
11BA  63                 [165] (-115)
11BB  00                 [166] (-115)
11BC  00                 [167] (-115)
11BD  00                 [168] (-114)
11BE  63                 [169] (-114)
11BF  00                 [170] (-114)
11C0  00                 [171] (-114)
11C1  00                 [172] (-114)
11C2  63                 [173] (-114)
11C3  00                 [174] (-114)
11C4  00                 [175] (-111)
11C5  00                 [176] (-110)
                         * locals:
13D6  00                 sizelocvars (0)
                         * upvalues:
13D7  00                 sizeupvalues (0)
                         ** end of function **

                         
13D8                     ** function [5] definition (level 2)
                         ** start of function **
13D8  00                 string size (0)
                         source name: (none)
13DA  01                 line defined (180)
13DB  FF                 last line defined (255)
13DC  01                 nups (4)
13DD  04                 numparams (3)
13DE  03                 is_vararg (0)
13DF  00                 maxstacksize (14)
                         * code:
13E2  01                 sizecode (193)
13E3  58400000           [001] test       1       1    ; to [3] if false
13E7  1A400180           [002] jmp        6            ; to [9]
13EB  DD000000           [003] getglobal  3   0        ; gRegion
13EF  E440C001           [004] self       3   3   257  ; -1520831144
13F3  E2800001           [005] call       3   2   2  
13F7  D8400000           [006] test       3       1    ; to [8] if false
13FB  1A000080           [007] jmp        1            ; to [9]
13FF  1E008000           [008] return     0   1      
1403  C6008001           [009] loadnil    3   3      
1407  58000000           [010] test       1       0    ; to [12] if true
140B  1AC00480           [011] jmp        20           ; to [32]
140F  1D810000           [012] getglobal  4   2        ; _T
1413  0EC14002           [013] gettable   4   4   259  ; "gNemesis"
1417  18010000           [014] test       4       0    ; to [16] if true
141B  1A000280           [015] jmp        9            ; to [25]
141F  1D810000           [016] getglobal  4   2        ; _T
1423  0EC14002           [017] gettable   4   4   259  ; "gNemesis"
1427  0E014102           [018] gettable   4   4   260  ; "generatedProfile"
142B  18010000           [019] test       4       0    ; to [21] if true
142F  1AC00080           [020] jmp        4            ; to [25]
1433  1D810000           [021] getglobal  4   2        ; _T
1437  0EC14002           [022] gettable   4   4   259  ; "gNemesis"
143B  CE004102           [023] gettable   3   4   260  ; "generatedProfile"
143F  1A001280           [024] jmp        73           ; to [98]
1443  13010000           [025] getupval   4   0      
1447  5D410100           [026] getglobal  5   5        ; gGameData
144B  6481C102           [027] self       5   5   262  ; 389385621
144F  62010001           [028] call       5   2   0  
1453  22810000           [029] call       4   0   2  
1457  D2000002           [030] move       3   4      
145B  1A401080           [031] jmp        66           ; to [98]
145F  98400000           [032] test       2       1    ; to [34] if false
1463  1A000380           [033] jmp        13           ; to [47]
1467  1D810000           [034] getglobal  4   2        ; _T
146B  0EC14002           [035] gettable   4   4   259  ; "gNemesis"
146F  18010000           [036] test       4       0    ; to [38] if true
1473  1A000280           [037] jmp        9            ; to [47]
1477  1D810000           [038] getglobal  4   2        ; _T
147B  0EC14002           [039] gettable   4   4   259  ; "gNemesis"
147F  0E014102           [040] gettable   4   4   260  ; "generatedProfile"
1483  18010000           [041] test       4       0    ; to [43] if true
1487  1AC00080           [042] jmp        4            ; to [47]
148B  1D810000           [043] getglobal  4   2        ; _T
148F  0EC14002           [044] gettable   4   4   259  ; "gNemesis"
1493  CE004102           [045] gettable   3   4   260  ; "generatedProfile"
1497  1A800C80           [046] jmp        51           ; to [98]
149B  06010002           [047] loadnil    4   4      
149F  53018000           [048] getupval   5   1      
14A3  4EC1C102           [049] gettable   5   5   263  ; -2016270516
14A7  62818000           [050] call       5   1   2  
14AB  58010000           [051] test       5       0    ; to [53] if true
14AF  1A400780           [052] jmp        30           ; to [83]
14B3  98000000           [053] test       2       0    ; to [55] if true
14B7  1A000380           [054] jmp        13           ; to [68]
14BB  5D010200           [055] getglobal  5   8        ; gGameRules
14BF  6441C202           [056] self       5   5   265  ; 659469169
14C3  62810001           [057] call       5   2   2  
14C7  12018002           [058] move       4   5      
14CB  5D810200           [059] getglobal  5   10       ; 1074689893
14CF  92010002           [060] move       6   4      
14D3  62810001           [061] call       5   2   2  
14D7  58010000           [062] test       5       0    ; to [64] if true
14DB  1A400080           [063] jmp        2            ; to [66]
14DF  06010002           [064] loadnil    4   4      
14E3  1A000580           [065] jmp        21           ; to [87]
14E7  0EC14202           [066] gettable   4   4   267  ; "mTarget"
14EB  1A800480           [067] jmp        19           ; to [87]
14EF  5D810200           [068] getglobal  5   10       ; 1074689893
14F3  9D010200           [069] getglobal  6   8        ; gGameRules
14F7  62810001           [070] call       5   2   2  
14FB  58410000           [071] test       5       1    ; to [73] if false
14FF  1A000180           [072] jmp        5            ; to [78]
1503  5D010200           [073] getglobal  5   8        ; gGameRules
1507  6401C302           [074] self       5   5   268  ; 1154264260
150B  62810001           [075] call       5   2   2  
150F  12018002           [076] move       4   5      
1513  1A000280           [077] jmp        9            ; to [87]
1517  5D410100           [078] getglobal  5   5        ; gGameData
151B  6481C102           [079] self       5   5   262  ; 389385621
151F  62810001           [080] call       5   2   2  
1523  12018002           [081] move       4   5      
1527  1AC00080           [082] jmp        4            ; to [87]
152B  5D410100           [083] getglobal  5   5        ; gGameData
152F  6481C102           [084] self       5   5   262  ; 389385621
1533  62810001           [085] call       5   2   2  
1537  12018002           [086] move       4   5      
153B  5D810200           [087] getglobal  5   10       ; 1074689893
153F  92010002           [088] move       6   4      
1543  62810001           [089] call       5   2   2  
1547  58010000           [090] test       5       0    ; to [92] if true
154B  1A400080           [091] jmp        2            ; to [94]
154F  57010000           [092] loadbool   5   0   0    ; false
1553  5E010001           [093] return     5   2      
1557  53010000           [094] getupval   5   0      
155B  92010002           [095] move       6   4      
155F  62810001           [096] call       5   2   2  
1563  D2008002           [097] move       3   5      
1567  5D810200           [098] getglobal  5   10       ; 1074689893
156B  92018001           [099] move       6   3      
156F  62810001           [100] call       5   2   2  
1573  58010000           [101] test       5       0    ; to [103] if true
1577  1A400080           [102] jmp        2            ; to [105]
157B  57010000           [103] loadbool   5   0   0    ; false
157F  5E010001           [104] return     5   2      
1583  5D410300           [105] getglobal  5   13       ; 2083004503
1587  8E81C301           [106] gettable   6   3   270  ; "mTransmissionSet"
158B  62810001           [107] call       5   2   2  
158F  9D810200           [108] getglobal  6   10       ; 1074689893
1593  D2018002           [109] move       7   5      
1597  A2810001           [110] call       6   2   2  
159B  98410000           [111] test       6       1    ; to [113] if false
159F  1AC01380           [112] jmp        80           ; to [193]
15A3  9DC10300           [113] getglobal  6   15       ; string
15A7  8E014403           [114] gettable   6   6   272  ; -565905820
15AB  DD410400           [115] getglobal  7   17       ; -1615931716
15AF  12020000           [116] move       8   0      
15B3  E2810001           [117] call       7   2   2  
15B7  19820400           [118] loadk      8   18       ; "Created"
15BB  A2818001           [119] call       6   3   2  
15BF  98010000           [120] test       6       0    ; to [122] if true
15C3  1A800280           [121] jmp        11           ; to [133]
15C7  9D810200           [122] getglobal  6   10       ; 1074689893
15CB  E4C1C402           [123] self       7   5   275  ; -781703361
15CF  52020000           [124] move       9   0      
15D3  E2018001           [125] call       7   3   0  
15D7  A2810000           [126] call       6   0   2  
15DB  98010000           [127] test       6       0    ; to [129] if true
15DF  1AC00080           [128] jmp        4            ; to [133]
15E3  9D010500           [129] getglobal  6   20       ; -332969190
15E7  D9810400           [130] loadk      7   18       ; "Created"
15EB  A2810001           [131] call       6   2   2  
15EF  12000003           [132] move       0   6      
15F3  A4C1C402           [133] self       6   5   275  ; -781703361
15F7  12020000           [134] move       8   0      
15FB  A2818001           [135] call       6   3   2  
15FF  DD810200           [136] getglobal  7   10       ; 1074689893
1603  12020003           [137] move       8   6      
1607  E2810001           [138] call       7   2   2  
160B  D8010000           [139] test       7       0    ; to [141] if true
160F  1A400080           [140] jmp        2            ; to [143]
1613  D7010000           [141] loadbool   7   0   0    ; false
1617  DE010001           [142] return     7   2      
161B  CE41C501           [143] gettable   7   3   277  ; "mDspEffect"
161F  1D820200           [144] getglobal  8   10       ; 1074689893
1623  52028003           [145] move       9   7      
1627  22820001           [146] call       8   2   2  
162B  18420000           [147] test       8       1    ; to [149] if false
162F  1A800380           [148] jmp        15           ; to [164]
1633  1D820000           [149] getglobal  8   2        ; _T
1637  5D820000           [150] getglobal  9   2        ; _T
163B  4E82C504           [151] gettable   9   9   278  ; "TransmissionDspOverrides"
163F  58420000           [152] test       9       1    ; to [154] if false
1643  1A000080           [153] jmp        1            ; to [155]
1647  4B020000           [154] newtable   9   0   0    ; array=0, hash=0
164B  0C42028B           [155] settable   8   278 9    ; "TransmissionDspOverrides"
164F  1D820000           [156] getglobal  8   2        ; _T
1653  0E824504           [157] gettable   8   8   278  ; "TransmissionDspOverrides"
1657  64C24503           [158] self       9   6   279  ; 455421500
165B  62820001           [159] call       9   2   2  
165F  9D420300           [160] getglobal  10  13       ; 2083004503
1663  D2028003           [161] move       11  7      
1667  A2820001           [162] call       10  2   2  
166B  0C828204           [163] settable   8   9   10 
166F  1D820000           [164] getglobal  8   2        ; _T
1673  5D420600           [165] getglobal  9   25       ; UISys
1677  4E82C604           [166] gettable   9   9   282  ; 1151030240
167B  93020001           [167] getupval   10  2      
167F  D2028001           [168] move       11  3      
1683  A2020001           [169] call       10  2   0  
1687  62820000           [170] call       9   0   2  
168B  0C42028C           [171] settable   8   280 9    ; "NemesisResLoader"
168F  1D820000           [172] getglobal  8   2        ; _T
1693  0C42808D           [173] settable   8   283 1    ; "NemesisTransmissionPortraitUseLocal"
1697  58000000           [174] test       1       0    ; to [176] if true
169B  1A400280           [175] jmp        10           ; to [186]
169F  13028001           [176] getupval   8   3      
16A3  0E024704           [177] gettable   8   8   284  ; 1151150014
16A7  52028002           [178] move       9   5      
16AB  92020000           [179] move       10  0      
16AF  C6028005           [180] loadnil    11  11     
16B3  1D030000           [181] getglobal  12  0        ; gRegion
16B7  24434706           [182] self       12  12  285  ; 65205951
16BB  22030001           [183] call       12  2   0  
16BF  22420000           [184] call       8   0   1  
16C3  1A000180           [185] jmp        5            ; to [191]
16C7  13028001           [186] getupval   8   3      
16CB  0E824704           [187] gettable   8   8   286  ; -78033590
16CF  52028002           [188] move       9   5      
16D3  92020000           [189] move       10  0      
16D7  22428001           [190] call       8   3   1  
16DB  17028000           [191] loadbool   8   1   0    ; true
16DF  1E020001           [192] return     8   2      
16E3  1E008000           [193] return     0   1      
                         * constants:
16E7  1F                 sizek (31)
16E8  04                 const type 4
16E9  08                 string size (8)
16EA  67526567696F6E00   "gRegion\0"
                         const [0]: "gRegion"
16F2  01                 const type 3
16F3  58F559A5           const [1]: (-1520831144)
16F7  04                 const type 4
16F8  03                 string size (3)
16F9  5F5400             "_T\0"
                         const [2]: "_T"
16FC  04                 const type 4
16FD  09                 string size (9)
16FE  674E656D65736973+  "gNemesis"
1706  00                 "\0"
                         const [3]: "gNemesis"
1707  04                 const type 4
1708  11                 string size (17)
1709  67656E6572617465+  "generate"
1711  6450726F66696C65+  "dProfile"
1719  00                 "\0"
                         const [4]: "generatedProfile"
171A  04                 const type 4
171B  0A                 string size (10)
171C  6747616D65446174+  "gGameDat"
1724  6100               "a\0"
                         const [5]: "gGameData"
1726  01                 const type 3
1727  958D3517           const [6]: (389385621)
172B  01                 const type 3
172C  4C27D287           const [7]: (-2016270516)
1730  04                 const type 4
1731  0B                 string size (11)
1732  6747616D6552756C+  "gGameRul"
173A  657300             "es\0"
                         const [8]: "gGameRules"
173D  01                 const type 3
173E  71B34E27           const [9]: (659469169)
1742  01                 const type 3
1743  65770E40           const [10]: (1074689893)
1747  04                 const type 4
1748  08                 string size (8)
1749  6D54617267657400   "mTarget\0"
                         const [11]: "mTarget"
1751  01                 const type 3
1752  C4ACCC44           const [12]: (1154264260)
1756  01                 const type 3
1757  5720287C           const [13]: (2083004503)
175B  04                 const type 4
175C  11                 string size (17)
175D  6D5472616E736D69+  "mTransmi"
1765  7373696F6E536574+  "ssionSet"
176D  00                 "\0"
                         const [14]: "mTransmissionSet"
176E  04                 const type 4
176F  07                 string size (7)
1770  737472696E6700     "string\0"
                         const [15]: "string"
1777  01                 const type 3
1778  64F644DE           const [16]: (-565905820)
177C  01                 const type 3
177D  BCD6AE9F           const [17]: (-1615931716)
1781  04                 const type 4
1782  08                 string size (8)
1783  4372656174656400   "Created\0"
                         const [18]: "Created"
178B  01                 const type 3
178C  3F2768D1           const [19]: (-781703361)
1790  01                 const type 3
1791  1A4B27EC           const [20]: (-332969190)
1795  04                 const type 4
1796  0B                 string size (11)
1797  6D44737045666665+  "mDspEffe"
179F  637400             "ct\0"
                         const [21]: "mDspEffect"
17A2  04                 const type 4
17A3  19                 string size (25)
17A4  5472616E736D6973+  "Transmis"
17AC  73696F6E4473704F+  "sionDspO"
17B4  7665727269646573+  "verrides"
17BC  00                 "\0"
                         const [22]: "TransmissionDspOverrides"
17BD  01                 const type 3
17BE  3C2E251B           const [23]: (455421500)
17C2  04                 const type 4
17C3  11                 string size (17)
17C4  4E656D6573697352+  "NemesisR"
17CC  65734C6F61646572+  "esLoader"
17D4  00                 "\0"
                         const [24]: "NemesisResLoader"
17D5  04                 const type 4
17D6  06                 string size (6)
17D7  554953797300       "UISys\0"
                         const [25]: "UISys"
17DD  01                 const type 3
17DE  E0539B44           const [26]: (1151030240)
17E2  04                 const type 4
17E3  24                 string size (36)
17E4  4E656D6573697354+  "NemesisT"
17EC  72616E736D697373+  "ransmiss"
17F4  696F6E506F727472+  "ionPortr"
17FC  6169745573654C6F+  "aitUseLo"
1804  63616C00           "cal\0"
                         const [27]: "NemesisTransmissionPortraitUseLocal"
1808  01                 const type 3
1809  BE279D44           const [28]: (1151150014)
180D  01                 const type 3
180E  BFF6E203           const [29]: (65205951)
1812  01                 const type 3
1813  4A4D59FB           const [30]: (-78033590)
                         * functions:
1817  00                 sizep (0)
                         * lines:
1819  01                 sizelineinfo (193)
                         [pc] (line)
181A  B5                 [001] (-75)
181B  00                 [002] (-75)
181C  00                 [003] (-75)
181D  00                 [004] (-75)
181E  B5                 [005] (-75)
181F  00                 [006] (-75)
1820  00                 [007] (-75)
1821  00                 [008] (-74)
1822  B5                 [009] (-71)
1823  00                 [010] (-70)
1824  00                 [011] (-70)
1825  00                 [012] (-69)
1826  B5                 [013] (-69)
1827  00                 [014] (-69)
1828  00                 [015] (-69)
1829  00                 [016] (-69)
182A  B5                 [017] (-69)
182B  00                 [018] (-69)
182C  00                 [019] (-69)
182D  00                 [020] (-69)
182E  B5                 [021] (-68)
182F  00                 [022] (-68)
1830  00                 [023] (-68)
1831  00                 [024] (-68)
1832  B5                 [025] (-66)
1833  00                 [026] (-66)
1834  00                 [027] (-66)
1835  00                 [028] (-66)
1836  B6                 [029] (-66)
1837  00                 [030] (-66)
1838  00                 [031] (-65)
1839  00                 [032] (-64)
183A  B9                 [033] (-64)
183B  00                 [034] (-64)
183C  00                 [035] (-64)
183D  00                 [036] (-64)
183E  BA                 [037] (-64)
183F  00                 [038] (-64)
1840  00                 [039] (-64)
1841  00                 [040] (-64)
1842  BA                 [041] (-64)
1843  00                 [042] (-64)
1844  00                 [043] (-63)
1845  00                 [044] (-63)
1846  BB                 [045] (-63)
1847  00                 [046] (-63)
1848  00                 [047] (-61)
1849  00                 [048] (-59)
184A  BB                 [049] (-59)
184B  00                 [050] (-59)
184C  00                 [051] (-59)
184D  00                 [052] (-59)
184E  BB                 [053] (-58)
184F  00                 [054] (-58)
1850  00                 [055] (-57)
1851  00                 [056] (-57)
1852  BB                 [057] (-57)
1853  00                 [058] (-57)
1854  00                 [059] (-56)
1855  00                 [060] (-56)
1856  BB                 [061] (-56)
1857  00                 [062] (-56)
1858  00                 [063] (-56)
1859  00                 [064] (-55)
185A  BB                 [065] (-55)
185B  00                 [066] (-53)
185C  00                 [067] (-52)
185D  00                 [068] (-51)
185E  BB                 [069] (-51)
185F  00                 [070] (-51)
1860  00                 [071] (-51)
1861  00                 [072] (-51)
1862  BB                 [073] (-50)
1863  00                 [074] (-50)
1864  00                 [075] (-50)
1865  00                 [076] (-50)
1866  BB                 [077] (-50)
1867  00                 [078] (-48)
1868  00                 [079] (-48)
1869  00                 [080] (-48)
186A  BC                 [081] (-48)
186B  00                 [082] (-47)
186C  00                 [083] (-45)
186D  00                 [084] (-45)
186E  BC                 [085] (-45)
186F  00                 [086] (-45)
1870  00                 [087] (-42)
1871  00                 [088] (-42)
1872  BC                 [089] (-42)
1873  00                 [090] (-42)
1874  00                 [091] (-42)
1875  00                 [092] (-41)
1876  BC                 [093] (-41)
1877  00                 [094] (-38)
1878  00                 [095] (-38)
1879  00                 [096] (-38)
187A  BE                 [097] (-38)
187B  00                 [098] (-35)
187C  00                 [099] (-35)
187D  00                 [100] (-35)
187E  BE                 [101] (-35)
187F  00                 [102] (-35)
1880  00                 [103] (-34)
1881  00                 [104] (-34)
1882  BE                 [105] (-31)
1883  00                 [106] (-31)
1884  00                 [107] (-31)
1885  00                 [108] (-30)
1886  BE                 [109] (-30)
1887  00                 [110] (-30)
1888  00                 [111] (-30)
1889  00                 [112] (-30)
188A  BE                 [113] (-29)
188B  00                 [114] (-29)
188C  00                 [115] (-29)
188D  00                 [116] (-29)
188E  BE                 [117] (-29)
188F  00                 [118] (-29)
1890  00                 [119] (-29)
1891  00                 [120] (-29)
1892  BF                 [121] (-29)
1893  00                 [122] (-29)
1894  00                 [123] (-29)
1895  00                 [124] (-29)
1896  C0                 [125] (-29)
1897  00                 [126] (-29)
1898  00                 [127] (-29)
1899  00                 [128] (-29)
189A  C0                 [129] (-27)
189B  00                 [130] (-27)
189C  00                 [131] (-27)
189D  00                 [132] (-27)
189E  C0                 [133] (-24)
189F  00                 [134] (-24)
18A0  00                 [135] (-24)
18A1  00                 [136] (-22)
18A2  C0                 [137] (-22)
18A3  00                 [138] (-22)
18A4  00                 [139] (-22)
18A5  00                 [140] (-22)
18A6  C0                 [141] (-21)
18A7  00                 [142] (-21)
18A8  00                 [143] (-18)
18A9  00                 [144] (-17)
18AA  C0                 [145] (-17)
18AB  00                 [146] (-17)
18AC  00                 [147] (-17)
18AD  00                 [148] (-17)
18AE  C0                 [149] (-16)
18AF  00                 [150] (-16)
18B0  00                 [151] (-16)
18B1  00                 [152] (-16)
18B2  C0                 [153] (-16)
18B3  00                 [154] (-16)
18B4  00                 [155] (-16)
18B5  00                 [156] (-15)
18B6  C0                 [157] (-15)
18B7  00                 [158] (-15)
18B8  00                 [159] (-15)
18B9  00                 [160] (-15)
18BA  C0                 [161] (-15)
18BB  00                 [162] (-15)
18BC  00                 [163] (-15)
18BD  00                 [164] (-12)
18BE  C0                 [165] (-12)
18BF  00                 [166] (-12)
18C0  00                 [167] (-12)
18C1  00                 [168] (-12)
18C2  C1                 [169] (-12)
18C3  00                 [170] (-12)
18C4  00                 [171] (-12)
18C5  00                 [172] (-10)
18C6  C1                 [173] (-10)
18C7  00                 [174] (-9)
18C8  00                 [175] (-9)
18C9  00                 [176] (-8)
18CA  C1                 [177] (-8)
18CB  00                 [178] (-8)
18CC  00                 [179] (-8)
18CD  00                 [180] (-8)
18CE  C1                 [181] (-8)
18CF  00                 [182] (-8)
18D0  00                 [183] (-8)
18D1  00                 [184] (-8)
18D2  C3                 [185] (-8)
18D3  00                 [186] (-6)
18D4  00                 [187] (-6)
18D5  00                 [188] (-6)
18D6  C5                 [189] (-6)
18D7  00                 [190] (-6)
18D8  00                 [191] (-3)
18D9  00                 [192] (-3)
18DA  C5                 [193] (-1)
                         * locals:
1B1E  00                 sizelocvars (0)
                         * upvalues:
1B1F  00                 sizeupvalues (0)
                         ** end of function **

                         
1B20                     ** function [6] definition (level 2)
                         ** start of function **
1B20  00                 string size (0)
                         source name: (none)
1B22  02                 line defined (257)
1B23  85                 last line defined (261)
1B24  02                 nups (1)
1B25  01                 numparams (5)
1B26  05                 is_vararg (0)
1B27  00                 maxstacksize (13)
                         * code:
1B29  12                 sizecode (18)
1B2A  53010000           [01] getupval   5   0      
1B2E  92010000           [02] move       6   0      
1B32  62810001           [03] call       5   2   2  
1B36  9D010000           [04] getglobal  6   0        ; gGameRules
1B3A  A4414003           [05] self       6   6   257  ; -478047289
1B3E  12020000           [06] move       8   0      
1B42  52028000           [07] move       9   1      
fail op	5
1B46  85420001           [08] getglobal  10  1025     ; nil
1B4A  1A000080           [09] jmp        1            ; to [11]
1B4E  97020000           [10] loadbool   10  0   0    ; false
fail op	5
1B52  C5428001           [11] getglobal  11  1537     ; nil
1B56  1A000080           [12] jmp        1            ; to [14]
1B5A  D7020000           [13] loadbool   11  0   0    ; false
fail op	5
1B5E  05430002           [14] getglobal  12  2049     ; nil
1B62  1A000080           [15] jmp        1            ; to [17]
1B66  17030000           [16] loadbool   12  0   0    ; false
1B6A  A2418003           [17] call       6   7   1  
1B6E  1E008000           [18] return     0   1      
                         * constants:
1B72  02                 sizek (2)
1B73  04                 const type 4
1B74  0B                 string size (11)
1B75  6747616D6552756C+  "gGameRul"
1B7D  657300             "es\0"
                         const [0]: "gGameRules"
1B80  01                 const type 3
1B81  C79381E3           const [1]: (-478047289)
                         * functions:
1B85  00                 sizep (0)
                         * lines:
1B86  12                 sizelineinfo (18)
                         [pc] (line)
1B87  02                 [01] (2)
1B88  01                 [02] (2)
1B89  00                 [03] (2)
1B8A  00                 [04] (4)
1B8B  02                 [05] (4)
1B8C  01                 [06] (4)
1B8D  00                 [07] (4)
1B8E  00                 [08] (4)
1B8F  02                 [09] (4)
1B90  01                 [10] (4)
1B91  00                 [11] (4)
1B92  00                 [12] (4)
1B93  04                 [13] (4)
1B94  01                 [14] (4)
1B95  00                 [15] (4)
1B96  00                 [16] (4)
1B97  04                 [17] (4)
1B98  01                 [18] (5)
                         * locals:
1BCF  00                 sizelocvars (0)
                         * upvalues:
1BD0  00                 sizeupvalues (0)
                         ** end of function **

                         
1BD1                     ** function [7] definition (level 2)
                         ** start of function **
1BD1  00                 string size (0)
                         source name: (none)
1BD3  02                 line defined (263)
1BD4  F0                 last line defined (368)
1BD5  02                 nups (0)
1BD6  00                 numparams (4)
1BD7  04                 is_vararg (0)
1BD8  00                 maxstacksize (34)
                         * code:
1BDB  01                 sizecode (227)
1BDC  24014001           [001] self       4   2   256  ; 72954849
1BE0  22810001           [002] call       4   2   2  
1BE4  5D410000           [003] getglobal  5   1        ; 1074689893
1BE8  92010002           [004] move       6   4      
1BEC  62810001           [005] call       5   2   2  
1BF0  58010000           [006] test       5       0    ; to [8] if true
1BF4  1A800080           [007] jmp        3            ; to [11]
1BF8  64814001           [008] self       5   2   258  ; 154574904
1BFC  62810001           [009] call       5   2   2  
1C00  12018002           [010] move       4   5      
1C04  5D410000           [011] getglobal  5   1        ; 1074689893
1C08  92010002           [012] move       6   4      
1C0C  62810001           [013] call       5   2   2  
1C10  58010000           [014] test       5       0    ; to [16] if true
1C14  1A000180           [015] jmp        5            ; to [21]
1C18  5DC10000           [016] getglobal  5   3        ; -1817107093
1C1C  99010100           [017] loadk      6   4        ; "couldn't create nemesis: no damage source found"
1C20  62410001           [018] call       5   2   1  
1C24  57010000           [019] loadbool   5   0   0    ; false
1C28  5E010001           [020] return     5   2      
1C2C  64414102           [021] self       5   4   261  ; -1957065004
1C30  DD810100           [022] getglobal  7   6        ; gItemType
1C34  62818001           [023] call       5   3   2  
1C38  58010000           [024] test       5       0    ; to [26] if true
1C3C  1A800080           [025] jmp        3            ; to [29]
1C40  64C14102           [026] self       5   4   263  ; -1316189862
1C44  62810001           [027] call       5   2   2  
1C48  12018002           [028] move       4   5      
1C4C  5D410000           [029] getglobal  5   1        ; 1074689893
1C50  92010002           [030] move       6   4      
1C54  62810001           [031] call       5   2   2  
1C58  58010000           [032] test       5       0    ; to [34] if true
1C5C  1A000180           [033] jmp        5            ; to [39]
1C60  5DC10000           [034] getglobal  5   3        ; -1817107093
1C64  99010200           [035] loadk      6   8        ; "couldn't create nemesis: couldn't find the owner of the source"
1C68  62410001           [036] call       5   2   1  
1C6C  57010000           [037] loadbool   5   0   0    ; false
1C70  5E010001           [038] return     5   2      
1C74  64414102           [039] self       5   4   261  ; -1957065004
1C78  DD410200           [040] getglobal  7   9        ; gLotusSentinelAvatarType
1C7C  62818001           [041] call       5   3   2  
1C80  58010000           [042] test       5       0    ; to [44] if true
1C84  1A800080           [043] jmp        3            ; to [47]
1C88  64814202           [044] self       5   4   266  ; 31469944
1C8C  62810001           [045] call       5   2   2  
1C90  12018002           [046] move       4   5      
1C94  5D410000           [047] getglobal  5   1        ; 1074689893
1C98  92010002           [048] move       6   4      
1C9C  62810001           [049] call       5   2   2  
1CA0  58010000           [050] test       5       0    ; to [52] if true
1CA4  1A000180           [051] jmp        5            ; to [57]
1CA8  5DC10000           [052] getglobal  5   3        ; -1817107093
1CAC  99010200           [053] loadk      6   8        ; "couldn't create nemesis: couldn't find the owner of the source"
1CB0  62410001           [054] call       5   2   1  
1CB4  57010000           [055] loadbool   5   0   0    ; false
1CB8  5E010001           [056] return     5   2      
1CBC  64414102           [057] self       5   4   261  ; -1957065004
1CC0  DDC10200           [058] getglobal  7   11       ; gTennoAvatarType
1CC4  62818001           [059] call       5   3   2  
1CC8  58410000           [060] test       5       1    ; to [62] if false
1CCC  1A000280           [061] jmp        9            ; to [71]
1CD0  5DC10000           [062] getglobal  5   3        ; -1817107093
1CD4  99010300           [063] loadk      6   12       ; "couldn't create nemesis: source "
1CD8  E4414302           [064] self       7   4   269  ; 455421500
1CDC  E2810001           [065] call       7   2   2  
1CE0  19820300           [066] loadk      8   14       ; " is not a tennoavatar"
1CE4  82010203           [067] concat     6   6   8  
1CE8  62410001           [068] call       5   2   1  
1CEC  57010000           [069] loadbool   5   0   0    ; false
1CF0  5E010001           [070] return     5   2      
1CF4  64C14302           [071] self       5   4   271  ; -1764426596
1CF8  62810001           [072] call       5   2   2  
1CFC  9D410000           [073] getglobal  6   1        ; 1074689893
1D00  D2018002           [074] move       7   5      
1D04  A2810001           [075] call       6   2   2  
1D08  98010000           [076] test       6       0    ; to [78] if true
1D0C  1AC00080           [077] jmp        4            ; to [82]
1D10  9DC10000           [078] getglobal  6   3        ; -1817107093
1D14  D9010400           [079] loadk      7   16       ; "couldn't create nemesis: source has no authoritative player"
1D18  A2410001           [080] call       6   2   1  
1D1C  1E008000           [081] return     0   1      
1D20  A441C402           [082] self       6   5   273  ; 51109503
1D24  A2810001           [083] call       6   2   2  
1D28  CE814403           [084] gettable   7   6   274  ; "mHasActiveNemesis"
1D2C  D8010000           [085] test       7       0    ; to [87] if true
1D30  1A000180           [086] jmp        5            ; to [92]
1D34  DDC10000           [087] getglobal  7   3        ; -1817107093
1D38  19C20400           [088] loadk      8   19       ; "couldn't create nemesis: player already has an active one!"
1D3C  E2410001           [089] call       7   2   1  
1D40  D7010000           [090] loadbool   7   0   0    ; false
1D44  DE010001           [091] return     7   2      
1D48  CE014503           [092] gettable   7   6   276  ; "mKuvaSiphonsUnlocked"
1D4C  D8410000           [093] test       7       1    ; to [95] if false
1D50  1A000180           [094] jmp        5            ; to [100]
1D54  DDC10000           [095] getglobal  7   3        ; -1817107093
1D58  19420500           [096] loadk      8   21       ; "couldn't create nemesis: player has not completed TWW"
1D5C  E2410001           [097] call       7   2   1  
1D60  D7010000           [098] loadbool   7   0   0    ; false
1D64  DE010001           [099] return     7   2      
1D68  C6018003           [100] loadnil    7   7      
1D6C  24424102           [101] self       8   4   261  ; -1957065004
1D70  9DC20200           [102] getglobal  10  11       ; gTennoAvatarType
1D74  22828001           [103] call       8   3   2  
1D78  18020000           [104] test       8       0    ; to [106] if true
1D7C  1A000580           [105] jmp        21           ; to [127]
1D80  24424102           [106] self       8   4   261  ; -1957065004
1D84  9D820500           [107] getglobal  10  22       ; gLotusOperatorAvatarType
1D88  22828001           [108] call       8   3   2  
1D8C  18020000           [109] test       8       0    ; to [111] if true
1D90  1A800280           [110] jmp        11           ; to [122]
1D94  24C2C502           [111] self       8   5   279  ; -1813551355
1D98  22820001           [112] call       8   2   2  
1D9C  12010004           [113] move       4   8      
1DA0  1D420000           [114] getglobal  8   1        ; 1074689893
1DA4  52020002           [115] move       9   4      
1DA8  22820001           [116] call       8   2   2  
1DAC  18020000           [117] test       8       0    ; to [119] if true
1DB0  1A800080           [118] jmp        3            ; to [122]
1DB4  1DC20000           [119] getglobal  8   3        ; -1817107093
1DB8  59020600           [120] loadk      9   24       ; "couldn't create nemesis: couldn't find the Warframe Avatar"
1DBC  22420001           [121] call       8   2   1  
1DC0  24424602           [122] self       8   4   281  ; -1917464545
1DC4  22820001           [123] call       8   2   2  
1DC8  24824604           [124] self       8   8   282  ; 1769516121
1DCC  22820001           [125] call       8   2   2  
1DD0  D2010004           [126] move       7   8      
1DD4  1D420000           [127] getglobal  8   1        ; 1074689893
1DD8  52028003           [128] move       9   7      
1DDC  22820001           [129] call       8   2   2  
1DE0  18020000           [130] test       8       0    ; to [132] if true
1DE4  1A000280           [131] jmp        9            ; to [141]
1DE8  1DC20000           [132] getglobal  8   3        ; -1817107093
1DEC  59020300           [133] loadk      9   12       ; "couldn't create nemesis: source "
1DF0  A4424302           [134] self       10  4   269  ; 455421500
1DF4  A2820001           [135] call       10  2   2  
1DF8  D9C20600           [136] loadk      11  27       ; " has no active powersuit"
1DFC  42C28204           [137] concat     9   9   11 
1E00  22420001           [138] call       8   2   1  
1E04  17020000           [139] loadbool   8   0   0    ; false
1E08  1E020001           [140] return     8   2      
1E0C  2442C402           [141] self       8   5   273  ; 51109503
1E10  22820001           [142] call       8   2   2  
1E14  64024704           [143] self       9   8   284  ; 1644212373
1E18  DD420700           [144] getglobal  11  29       ; Lotus_Game
1E1C  CE82C705           [145] gettable   11  11  286  ; "LOT_NORMAL"
1E20  1D430700           [146] getglobal  12  29       ; Lotus_Game
1E24  0EC34706           [147] gettable   12  12  287  ; "SUIT_SLOT"
1E28  62820002           [148] call       9   4   2  
1E2C  A402C804           [149] self       10  9   288  ; -1348043987
1E30  19430800           [150] loadk      12  33       ; 0
1E34  A2828001           [151] call       10  3   2  
1E38  E4824805           [152] self       11  10  290  ; 111858394
1E3C  5D430700           [153] getglobal  13  29       ; Lotus_Game
1E40  4EC3C806           [154] gettable   13  13  291  ; "Helmet"
1E44  E2828001           [155] call       11  3   2  
1E48  0E03C905           [156] gettable   12  11  292  ; "mItemType"
1E4C  5D430000           [157] getglobal  13  1        ; 1074689893
1E50  92030006           [158] move       14  12     
1E54  62830001           [159] call       13  2   2  
1E58  58030000           [160] test       13      0    ; to [162] if true
1E5C  1AC00180           [161] jmp        8            ; to [170]
1E60  5DC30000           [162] getglobal  13  3        ; -1817107093
1E64  99430900           [163] loadk      14  37       ; "warning: couldn't find player helmet"
1E68  62430001           [164] call       13  2   1  
1E6C  6483C903           [165] self       13  7   294  ; 1911080885
1E70  DD430700           [166] getglobal  15  29       ; Lotus_Game
1E74  CEC3C807           [167] gettable   15  15  291  ; "Helmet"
1E78  62838001           [168] call       13  3   2  
1E7C  12038006           [169] move       12  13     
1E80  46038006           [170] loadnil    13  13     
1E84  99430800           [171] loadk      14  33       ; 0
1E88  DDC30900           [172] getglobal  15  39       ; 248503575
1E8C  0E044A00           [173] gettable   16  0   296  ; "DAMAGE_TYPES"
1E90  E2030101           [174] call       15  2   4  
1E94  1A800180           [175] jmp        7            ; to [183]
1E98  24454A01           [176] self       20  2   297  ; -1221595085
1E9C  92050009           [177] move       22  18     
1EA0  22858001           [178] call       20  3   2  
fail op	21
1EA4  15000507           [179] concat     0   14  20 
1EA8  1A400080           [180] jmp        2            ; to [183]
1EAC  52030009           [181] move       13  18     
1EB0  9203000A           [182] move       14  20     
1EB4  D6830000           [183] tforloop   15      2    ; to [185] if exit
1EB8  1A80FD7F           [184] jmp        -9           ; to [176]
1EBC  58430000           [185] test       13      1    ; to [187] if false
1EC0  1A400080           [186] jmp        2            ; to [189]
1EC4  5D850A00           [187] getglobal  21  42       ; Engine
1EC8  4EC3CA0A           [188] gettable   13  21  299  ; "DT_INVALID"
1ECC  5D050B00           [189] getglobal  21  44       ; gGameRules
1ED0  6445CB0A           [190] self       21  21  301  ; -1201441975
1ED4  62850001           [191] call       21  2   2  
1ED8  4E85CB0A           [192] gettable   21  21  302  ; "location"
1EDC  9D450000           [193] getglobal  22  1        ; 1074689893
1EE0  D2058001           [194] move       23  3      
1EE4  A2850001           [195] call       22  2   2  
1EE8  98450000           [196] test       22      1    ; to [198] if false
1EEC  1A800680           [197] jmp        27           ; to [225]
1EF0  A4C5CB00           [198] self       22  1   303  ; -491574171
1EF4  A2850001           [199] call       22  2   2  
1EF8  DD050C00           [200] getglobal  23  48       ; 2083004503
1EFC  12068001           [201] move       24  3      
1F00  E2850001           [202] call       23  2   2  
1F04  2446CC0B           [203] self       24  23  305  ; 1914841181
1F08  9206000B           [204] move       26  22     
1F0C  22868001           [205] call       24  3   2  
fail op	21
1F10  1540480C           [206] concat     0   24  289
1F14  1A000180           [207] jmp        5            ; to [213]
1F18  5D860C00           [208] getglobal  25  50       ; 2144646525
1F1C  99460800           [209] loadk      26  33       ; 0
1F20  D9C60C00           [210] loadk      27  51       ; 0
1F24  62868001           [211] call       25  3   2  
1F28  1206800C           [212] move       24  25     
1F2C  5D060B00           [213] getglobal  25  44       ; gGameRules
1F30  6406CD0C           [214] self       25  25  308  ; 411372194
1F34  D2068002           [215] move       27  5      
1F38  12078001           [216] move       28  3      
1F3C  52078003           [217] move       29  7      
1F40  92078006           [218] move       30  13     
1F44  D2070006           [219] move       31  12     
1F48  1208000C           [220] move       32  24     
1F4C  5208800A           [221] move       33  21     
1F50  62468004           [222] call       25  9   1  
1F54  57068000           [223] loadbool   25  1   0    ; true
1F58  5E060001           [224] return     25  2      
1F5C  57060000           [225] loadbool   25  0   0    ; false
1F60  5E060001           [226] return     25  2      
1F64  1E008000           [227] return     0   1      
                         * constants:
1F68  35                 sizek (53)
1F69  01                 const type 3
1F6A  E1335904           const [0]: (72954849)
1F6E  01                 const type 3
1F6F  65770E40           const [1]: (1074689893)
1F73  01                 const type 3
1F74  38A03609           const [2]: (154574904)
1F78  01                 const type 3
1F79  6B25B193           const [3]: (-1817107093)
1F7D  04                 const type 4
1F7E  30                 string size (48)
1F7F  636F756C646E2774+  "couldn't"
1F87  2063726561746520+  " create "
1F8F  6E656D657369733A+  "nemesis:"
1F97  206E6F2064616D61+  " no dama"
1F9F  676520736F757263+  "ge sourc"
1FA7  6520666F756E6400   "e found\0"
                         const [4]: "couldn't create nemesis: no damage source found"
1FAF  01                 const type 3
1FB0  D48E598B           const [5]: (-1957065004)
1FB4  04                 const type 4
1FB5  0A                 string size (10)
1FB6  674974656D547970+  "gItemTyp"
1FBE  6500               "e\0"
                         const [6]: "gItemType"
1FC0  01                 const type 3
1FC1  5A898CB1           const [7]: (-1316189862)
1FC5  04                 const type 4
1FC6  3F                 string size (63)
1FC7  636F756C646E2774+  "couldn't"
1FCF  2063726561746520+  " create "
1FD7  6E656D657369733A+  "nemesis:"
1FDF  20636F756C646E27+  " couldn'"
1FE7  742066696E642074+  "t find t"
1FEF  6865206F776E6572+  "he owner"
1FF7  206F662074686520+  " of the "
1FFF  736F7572636500     "source\0"
                         const [8]: "couldn't create nemesis: couldn't find the owner of the source"
2006  04                 const type 4
2007  19                 string size (25)
2008  674C6F7475735365+  "gLotusSe"
2010  6E74696E656C4176+  "ntinelAv"
2018  6174617254797065+  "atarType"
2020  00                 "\0"
                         const [9]: "gLotusSentinelAvatarType"
2021  01                 const type 3
2022  7831E001           const [10]: (31469944)
2026  04                 const type 4
2027  11                 string size (17)
2028  6754656E6E6F4176+  "gTennoAv"
2030  6174617254797065+  "atarType"
2038  00                 "\0"
                         const [11]: "gTennoAvatarType"
2039  04                 const type 4
203A  21                 string size (33)
203B  636F756C646E2774+  "couldn't"
2043  2063726561746520+  " create "
204B  6E656D657369733A+  "nemesis:"
2053  20736F7572636520+  " source "
205B  00                 "\0"
                         const [12]: "couldn't create nemesis: source "
205C  01                 const type 3
205D  3C2E251B           const [13]: (455421500)
2061  04                 const type 4
2062  16                 string size (22)
2063  206973206E6F7420+  " is not "
206B  612074656E6E6F61+  "a tennoa"
2073  766174617200       "vatar\0"
                         const [14]: " is not a tennoavatar"
2079  01                 const type 3
207A  9CFCD496           const [15]: (-1764426596)
207E  04                 const type 4
207F  3C                 string size (60)
2080  636F756C646E2774+  "couldn't"
2088  2063726561746520+  " create "
2090  6E656D657369733A+  "nemesis:"
2098  20736F7572636520+  " source "
20A0  686173206E6F2061+  "has no a"
20A8  7574686F72697461+  "uthorita"
20B0  7469766520706C61+  "tive pla"
20B8  79657200           "yer\0"
                         const [16]: "couldn't create nemesis: source has no authoritative player"
20BC  01                 const type 3
20BD  7FDE0B03           const [17]: (51109503)
20C1  04                 const type 4
20C2  12                 string size (18)
20C3  6D48617341637469+  "mHasActi"
20CB  76654E656D657369+  "veNemesi"
20D3  7300               "s\0"
                         const [18]: "mHasActiveNemesis"
20D5  04                 const type 4
20D6  3B                 string size (59)
20D7  636F756C646E2774+  "couldn't"
20DF  2063726561746520+  " create "
20E7  6E656D657369733A+  "nemesis:"
20EF  20706C6179657220+  " player "
20F7  616C726561647920+  "already "
20FF  68617320616E2061+  "has an a"
2107  6374697665206F6E+  "ctive on"
210F  652100             "e!\0"
                         const [19]: "couldn't create nemesis: player already has an active one!"
2112  04                 const type 4
2113  15                 string size (21)
2114  6D4B757661536970+  "mKuvaSip"
211C  686F6E73556E6C6F+  "honsUnlo"
2124  636B656400         "cked\0"
                         const [20]: "mKuvaSiphonsUnlocked"
2129  04                 const type 4
212A  36                 string size (54)
212B  636F756C646E2774+  "couldn't"
2133  2063726561746520+  " create "
213B  6E656D657369733A+  "nemesis:"
2143  20706C6179657220+  " player "
214B  686173206E6F7420+  "has not "
2153  636F6D706C657465+  "complete"
215B  642054575700       "d TWW\0"
                         const [21]: "couldn't create nemesis: player has not completed TWW"
2161  04                 const type 4
2162  19                 string size (25)
2163  674C6F7475734F70+  "gLotusOp"
216B  657261746F724176+  "eratorAv"
2173  6174617254797065+  "atarType"
217B  00                 "\0"
                         const [22]: "gLotusOperatorAvatarType"
217C  01                 const type 3
217D  0567E793           const [23]: (-1813551355)
2181  04                 const type 4
2182  3B                 string size (59)
2183  636F756C646E2774+  "couldn't"
218B  2063726561746520+  " create "
2193  6E656D657369733A+  "nemesis:"
219B  20636F756C646E27+  " couldn'"
21A3  742066696E642074+  "t find t"
21AB  6865205761726672+  "he Warfr"
21B3  616D652041766174+  "ame Avat"
21BB  617200             "ar\0"
                         const [24]: "couldn't create nemesis: couldn't find the Warframe Avatar"
21BE  01                 const type 3
21BF  1FD0B58D           const [25]: (-1917464545)
21C3  01                 const type 3
21C4  59AC7869           const [26]: (1769516121)
21C8  04                 const type 4
21C9  19                 string size (25)
21CA  20686173206E6F20+  " has no "
21D2  6163746976652070+  "active p"
21DA  6F77657273756974+  "owersuit"
21E2  00                 "\0"
                         const [27]: " has no active powersuit"
21E3  01                 const type 3
21E4  95B00062           const [28]: (1644212373)
21E8  04                 const type 4
21E9  0B                 string size (11)
21EA  4C6F7475735F4761+  "Lotus_Ga"
21F2  6D6500             "me\0"
                         const [29]: "Lotus_Game"
21F5  04                 const type 4
21F6  0B                 string size (11)
21F7  4C4F545F4E4F524D+  "LOT_NORM"
21FF  414C00             "AL\0"
                         const [30]: "LOT_NORMAL"
2202  04                 const type 4
2203  0A                 string size (10)
2204  535549545F534C4F+  "SUIT_SLO"
220C  5400               "T\0"
                         const [31]: "SUIT_SLOT"
220E  01                 const type 3
220F  2D7BA6AF           const [32]: (-1348043987)
2213  03                 const type 3
2214  00000000           const [33]: (0)
2218  01                 const type 3
2219  DAD2AA06           const [34]: (111858394)
221D  04                 const type 4
221E  07                 string size (7)
221F  48656C6D657400     "Helmet\0"
                         const [35]: "Helmet"
2226  04                 const type 4
2227  0A                 string size (10)
2228  6D4974656D547970+  "mItemTyp"
2230  6500               "e\0"
                         const [36]: "mItemType"
2232  04                 const type 4
2233  25                 string size (37)
2234  7761726E696E673A+  "warning:"
223C  20636F756C646E27+  " couldn'"
2244  742066696E642070+  "t find p"
224C  6C61796572206865+  "layer he"
2254  6C6D657400         "lmet\0"
                         const [37]: "warning: couldn't find player helmet"
2259  01                 const type 3
225A  B5C7E871           const [38]: (1911080885)
225E  01                 const type 3
225F  17DDCF0E           const [39]: (248503575)
2263  04                 const type 4
2264  0D                 string size (13)
2265  44414D4147455F54+  "DAMAGE_T"
226D  5950455300         "YPES\0"
                         const [40]: "DAMAGE_TYPES"
2272  01                 const type 3
2273  33F02FB7           const [41]: (-1221595085)
2277  04                 const type 4
2278  07                 string size (7)
2279  456E67696E6500     "Engine\0"
                         const [42]: "Engine"
2280  04                 const type 4
2281  0B                 string size (11)
2282  44545F494E56414C+  "DT_INVAL"
228A  494400             "ID\0"
                         const [43]: "DT_INVALID"
228D  04                 const type 4
228E  0B                 string size (11)
228F  6747616D6552756C+  "gGameRul"
2297  657300             "es\0"
                         const [44]: "gGameRules"
229A  01                 const type 3
229B  497363B8           const [45]: (-1201441975)
229F  04                 const type 4
22A0  09                 string size (9)
22A1  6C6F636174696F6E+  "location"
22A9  00                 "\0"
                         const [46]: "location"
22AA  01                 const type 3
22AB  652CB3E2           const [47]: (-491574171)
22AF  01                 const type 3
22B0  5720287C           const [48]: (2083004503)
22B4  01                 const type 3
22B5  5D282272           const [49]: (1914841181)
22B9  01                 const type 3
22BA  7DB5D47F           const [50]: (2144646525)
22BE  03                 const type 3
22BF  0000803F           const [51]: (0)
22C3  01                 const type 3
22C4  A20A8518           const [52]: (411372194)
                         * functions:
22C8  00                 sizep (0)
                         * lines:
22CA  01                 sizelineinfo (227)
                         [pc] (line)
22CB  08                 [001] (8)
22CC  01                 [002] (8)
22CD  00                 [003] (9)
22CE  00                 [004] (9)
22CF  08                 [005] (9)
22D0  01                 [006] (9)
22D1  00                 [007] (9)
22D2  00                 [008] (10)
22D3  09                 [009] (10)
22D4  01                 [010] (10)
22D5  00                 [011] (13)
22D6  00                 [012] (13)
22D7  09                 [013] (13)
22D8  01                 [014] (13)
22D9  00                 [015] (13)
22DA  00                 [016] (14)
22DB  09                 [017] (14)
22DC  01                 [018] (14)
22DD  00                 [019] (15)
22DE  00                 [020] (15)
22DF  09                 [021] (18)
22E0  01                 [022] (18)
22E1  00                 [023] (18)
22E2  00                 [024] (18)
22E3  09                 [025] (18)
22E4  01                 [026] (19)
22E5  00                 [027] (19)
22E6  00                 [028] (19)
22E7  0A                 [029] (22)
22E8  01                 [030] (22)
22E9  00                 [031] (22)
22EA  00                 [032] (22)
22EB  0A                 [033] (22)
22EC  01                 [034] (23)
22ED  00                 [035] (23)
22EE  00                 [036] (23)
22EF  0A                 [037] (24)
22F0  01                 [038] (24)
22F1  00                 [039] (27)
22F2  00                 [040] (27)
22F3  0D                 [041] (27)
22F4  01                 [042] (27)
22F5  00                 [043] (27)
22F6  00                 [044] (28)
22F7  0D                 [045] (28)
22F8  01                 [046] (28)
22F9  00                 [047] (31)
22FA  00                 [048] (31)
22FB  0D                 [049] (31)
22FC  01                 [050] (31)
22FD  00                 [051] (31)
22FE  00                 [052] (32)
22FF  0D                 [053] (32)
2300  01                 [054] (32)
2301  00                 [055] (33)
2302  00                 [056] (33)
2303  0D                 [057] (36)
2304  01                 [058] (36)
2305  00                 [059] (36)
2306  00                 [060] (36)
2307  0E                 [061] (36)
2308  01                 [062] (37)
2309  00                 [063] (37)
230A  00                 [064] (37)
230B  0E                 [065] (37)
230C  01                 [066] (37)
230D  00                 [067] (37)
230E  00                 [068] (37)
230F  0E                 [069] (38)
2310  01                 [070] (38)
2311  00                 [071] (41)
2312  00                 [072] (41)
2313  0F                 [073] (42)
2314  01                 [074] (42)
2315  00                 [075] (42)
2316  00                 [076] (42)
2317  0F                 [077] (42)
2318  01                 [078] (43)
2319  00                 [079] (43)
231A  00                 [080] (43)
231B  12                 [081] (44)
231C  01                 [082] (47)
231D  00                 [083] (47)
231E  00                 [084] (48)
231F  12                 [085] (48)
2320  01                 [086] (48)
2321  00                 [087] (49)
2322  00                 [088] (49)
2323  12                 [089] (49)
2324  01                 [090] (50)
2325  00                 [091] (50)
2326  00                 [092] (53)
2327  12                 [093] (53)
2328  01                 [094] (53)
2329  00                 [095] (54)
232A  00                 [096] (54)
232B  12                 [097] (54)
232C  01                 [098] (55)
232D  00                 [099] (55)
232E  00                 [100] (58)
232F  13                 [101] (59)
2330  01                 [102] (59)
2331  00                 [103] (59)
2332  00                 [104] (59)
2333  13                 [105] (59)
2334  01                 [106] (60)
2335  00                 [107] (60)
2336  00                 [108] (60)
2337  13                 [109] (60)
2338  01                 [110] (60)
2339  00                 [111] (61)
233A  00                 [112] (61)
233B  16                 [113] (61)
233C  01                 [114] (62)
233D  00                 [115] (62)
233E  00                 [116] (62)
233F  16                 [117] (62)
2340  01                 [118] (62)
2341  00                 [119] (63)
2342  00                 [120] (63)
2343  16                 [121] (63)
2344  01                 [122] (66)
2345  00                 [123] (66)
2346  00                 [124] (66)
2347  16                 [125] (66)
2348  01                 [126] (66)
2349  00                 [127] (69)
234A  00                 [128] (69)
234B  16                 [129] (69)
234C  01                 [130] (69)
234D  00                 [131] (69)
234E  00                 [132] (70)
234F  17                 [133] (70)
2350  01                 [134] (70)
2351  00                 [135] (70)
2352  00                 [136] (70)
2353  17                 [137] (70)
2354  01                 [138] (70)
2355  00                 [139] (71)
2356  00                 [140] (71)
2357  17                 [141] (74)
2358  01                 [142] (74)
2359  00                 [143] (75)
235A  00                 [144] (75)
235B  18                 [145] (75)
235C  01                 [146] (75)
235D  00                 [147] (75)
235E  00                 [148] (75)
235F  18                 [149] (76)
2360  01                 [150] (76)
2361  00                 [151] (76)
2362  00                 [152] (77)
2363  1B                 [153] (77)
2364  01                 [154] (77)
2365  00                 [155] (77)
2366  00                 [156] (78)
2367  1B                 [157] (79)
2368  01                 [158] (79)
2369  00                 [159] (79)
236A  00                 [160] (79)
236B  1B                 [161] (79)
236C  01                 [162] (80)
236D  00                 [163] (80)
236E  00                 [164] (80)
236F  1B                 [165] (81)
2370  01                 [166] (81)
2371  00                 [167] (81)
2372  00                 [168] (81)
2373  1B                 [169] (81)
2374  01                 [170] (84)
2375  00                 [171] (85)
2376  00                 [172] (86)
2377  1C                 [173] (86)
2378  01                 [174] (86)
2379  00                 [175] (86)
237A  00                 [176] (87)
237B  1C                 [177] (87)
237C  01                 [178] (87)
237D  00                 [179] (88)
237E  00                 [180] (88)
237F  1C                 [181] (89)
2380  01                 [182] (90)
2381  00                 [183] (86)
2382  00                 [184] (91)
2383  1F                 [185] (93)
2384  01                 [186] (93)
2385  00                 [187] (94)
2386  00                 [188] (94)
2387  1F                 [189] (97)
2388  01                 [190] (97)
2389  00                 [191] (97)
238A  00                 [192] (97)
238B  1F                 [193] (98)
238C  01                 [194] (98)
238D  00                 [195] (98)
238E  00                 [196] (98)
238F  1F                 [197] (98)
2390  01                 [198] (99)
2391  00                 [199] (99)
2392  00                 [200] (100)
2393  1F                 [201] (100)
2394  01                 [202] (100)
2395  00                 [203] (101)
2396  00                 [204] (101)
2397  20                 [205] (101)
2398  01                 [206] (102)
2399  00                 [207] (102)
239A  00                 [208] (103)
239B  20                 [209] (103)
239C  01                 [210] (103)
239D  00                 [211] (103)
239E  00                 [212] (103)
239F  20                 [213] (106)
23A0  01                 [214] (106)
23A1  00                 [215] (106)
23A2  00                 [216] (106)
23A3  21                 [217] (106)
23A4  01                 [218] (106)
23A5  00                 [219] (106)
23A6  00                 [220] (106)
23A7  21                 [221] (106)
23A8  01                 [222] (106)
23A9  00                 [223] (108)
23AA  00                 [224] (108)
23AB  24                 [225] (111)
23AC  01                 [226] (111)
23AD  00                 [227] (112)
                         * locals:
2657  00                 sizelocvars (0)
                         * upvalues:
2658  00                 sizeupvalues (0)
                         ** end of function **

                         
2659                     ** function [8] definition (level 2)
                         ** start of function **
2659  00                 string size (0)
                         source name: (none)
265B  02                 line defined (370)
265C  86                 last line defined (390)
265D  03                 nups (0)
265E  00                 numparams (1)
265F  01                 is_vararg (0)
2660  00                 maxstacksize (8)
                         * code:
2662  32                 sizecode (50)
2663  5D000000           [01] getglobal  1   0        ; string
2667  4E40C000           [02] gettable   1   1   257  ; 1671193642
266B  8E804000           [03] gettable   2   0   258  ; "mName"
266F  62800001           [04] call       1   2   2  
2673  9DC00000           [05] getglobal  2   3        ; 1074689893
2677  DD000100           [06] getglobal  3   4        ; gGameRules
267B  A2800001           [07] call       2   2   2  
267F  98400000           [08] test       2       1    ; to [10] if false
2683  1A800980           [09] jmp        39           ; to [49]
2687  9DC00000           [10] getglobal  2   3        ; 1074689893
268B  D2000000           [11] move       3   0      
268F  A2800001           [12] call       2   2   2  
2693  98400000           [13] test       2       1    ; to [15] if false
2697  1A400880           [14] jmp        34           ; to [49]
269B  9DC00000           [15] getglobal  2   3        ; 1074689893
269F  CE404100           [16] gettable   3   0   261  ; "mWeapon"
26A3  A2800001           [17] call       2   2   2  
26A7  98400000           [18] test       2       1    ; to [20] if false
26AB  1A000780           [19] jmp        29           ; to [49]
26AF  86000001           [20] loadnil    2   2      
26B3  DD800100           [21] getglobal  3   6        ; 2083004503
26B7  0E414100           [22] gettable   4   0   261  ; "mWeapon"
26BB  E2800001           [23] call       3   2   2  
26BF  1DC10000           [24] getglobal  4   3        ; 1074689893
26C3  52018001           [25] move       5   3      
26C7  22810001           [26] call       4   2   2  
26CB  18410000           [27] test       4       1    ; to [29] if false
26CF  1A000180           [28] jmp        5            ; to [34]
26D3  24C1C101           [29] self       4   3   263  ; 1634497718
26D7  22810001           [30] call       4   2   2  
26DB  24014202           [31] self       4   4   264  ; 1590141906
26DF  22810001           [32] call       4   2   2  
26E3  92000002           [33] move       2   4      
fail op	35
26E7  63404201           [34] close      1  
26EB  1A000380           [35] jmp        13           ; to [49]
26EF  1D810200           [36] getglobal  4   10       ; -421772368
26F3  52010001           [37] move       5   2      
26F7  97010000           [38] loadbool   6   0   0    ; false
26FB  22818001           [39] call       4   3   2  
26FF  92000002           [40] move       2   4      
2703  1D810200           [41] getglobal  4   10       ; -421772368
2707  59C10200           [42] loadk      5   11       ; "/Lotus/Language/Kingpins/LichWeaponName"
270B  8B810000           [43] newtable   6   0   2    ; array=0, hash=2
270F  CE814000           [44] gettable   7   0   258  ; "mName"
2713  8CC10186           [45] settable   6   268 7    ; "LICH_NAME"
2717  8C818086           [46] settable   6   269 2    ; "WEAPON"
271B  22818001           [47] call       4   3   2  
271F  52000002           [48] move       1   4      
2723  5E000001           [49] return     1   2      
2727  1E008000           [50] return     0   1      
                         * constants:
272B  0E                 sizek (14)
272C  04                 const type 4
272D  07                 string size (7)
272E  737472696E6700     "string\0"
                         const [0]: "string"
2735  01                 const type 3
2736  2A649C63           const [1]: (1671193642)
273A  04                 const type 4
273B  06                 string size (6)
273C  6D4E616D6500       "mName\0"
                         const [2]: "mName"
2742  01                 const type 3
2743  65770E40           const [3]: (1074689893)
2747  04                 const type 4
2748  0B                 string size (11)
2749  6747616D6552756C+  "gGameRul"
2751  657300             "es\0"
                         const [4]: "gGameRules"
2754  04                 const type 4
2755  08                 string size (8)
2756  6D576561706F6E00   "mWeapon\0"
                         const [5]: "mWeapon"
275E  01                 const type 3
275F  5720287C           const [6]: (2083004503)
2763  01                 const type 3
2764  B6746C61           const [7]: (1634497718)
2768  01                 const type 3
2769  D2A3C75E           const [8]: (1590141906)
276D  00                 const type 0
                         const [9]: nil
276E  01                 const type 3
276F  B043DCE6           const [10]: (-421772368)
2773  04                 const type 4
2774  28                 string size (40)
2775  2F4C6F7475732F4C+  "/Lotus/L"
277D  616E67756167652F+  "anguage/"
2785  4B696E6770696E73+  "Kingpins"
278D  2F4C696368576561+  "/LichWea"
2795  706F6E4E616D6500   "ponName\0"
                         const [11]: "/Lotus/Language/Kingpins/LichWeaponName"
279D  04                 const type 4
279E  0A                 string size (10)
279F  4C4943485F4E414D+  "LICH_NAM"
27A7  4500               "E\0"
                         const [12]: "LICH_NAME"
27A9  04                 const type 4
27AA  07                 string size (7)
27AB  574541504F4E00     "WEAPON\0"
                         const [13]: "WEAPON"
                         * functions:
27B2  00                 sizep (0)
                         * lines:
27B3  32                 sizelineinfo (50)
                         [pc] (line)
27B4  74                 [01] (116)
27B5  01                 [02] (116)
27B6  00                 [03] (116)
27B7  00                 [04] (116)
27B8  74                 [05] (118)
27B9  01                 [06] (118)
27BA  00                 [07] (118)
27BB  00                 [08] (118)
27BC  74                 [09] (118)
27BD  01                 [10] (118)
27BE  00                 [11] (118)
27BF  00                 [12] (118)
27C0  74                 [13] (118)
27C1  01                 [14] (118)
27C2  00                 [15] (118)
27C3  00                 [16] (118)
27C4  76                 [17] (118)
27C5  01                 [18] (118)
27C6  00                 [19] (118)
27C7  00                 [20] (121)
27C8  76                 [21] (122)
27C9  01                 [22] (122)
27CA  00                 [23] (122)
27CB  00                 [24] (123)
27CC  76                 [25] (123)
27CD  01                 [26] (123)
27CE  00                 [27] (123)
27CF  00                 [28] (123)
27D0  76                 [29] (124)
27D1  01                 [30] (124)
27D2  00                 [31] (124)
27D3  00                 [32] (124)
27D4  76                 [33] (124)
27D5  01                 [34] (127)
27D6  00                 [35] (127)
27D7  00                 [36] (-128)
27D8  76                 [37] (-128)
27D9  01                 [38] (-128)
27DA  00                 [39] (-128)
27DB  00                 [40] (-128)
27DC  76                 [41] (-127)
27DD  01                 [42] (-127)
27DE  00                 [43] (-127)
27DF  00                 [44] (-127)
27E0  76                 [45] (-127)
27E1  01                 [46] (-127)
27E2  00                 [47] (-127)
27E3  00                 [48] (-127)
27E4  76                 [49] (-123)
27E5  01                 [50] (-122)
                         * locals:
287C  00                 sizelocvars (0)
                         * upvalues:
287D  00                 sizeupvalues (0)
                         ** end of function **

                         
287E                     ** function [9] definition (level 2)
                         ** start of function **
287E  00                 string size (0)
                         source name: (none)
2880  03                 line defined (392)
2881  8D                 last line defined (397)
2882  03                 nups (1)
2883  01                 numparams (1)
2884  01                 is_vararg (0)
2885  00                 maxstacksize (3)
                         * code:
2887  09                 sizecode (9)
fail op	33
2888  21000080           [1] tforloop   0       0    ; to [3] if exit
288C  1A400080           [2] jmp        2            ; to [5]
2890  59400000           [3] loadk      1   1        ; 0
2894  5E000001           [4] return     1   2      
2898  53000000           [5] getupval   1   0      
289C  83804000           [6] add        2   0   258  ; 0
28A0  4E808000           [7] gettable   1   1   2  
28A4  5E000001           [8] return     1   2      
28A8  1E008000           [9] return     0   1      
                         * constants:
28AC  03                 sizek (3)
28AD  03                 const type 3
28AE  00004040           const [0]: (0)
28B2  03                 const type 3
28B3  0000C842           const [1]: (0)
28B7  03                 const type 3
28B8  0000803F           const [2]: (0)
                         * functions:
28BC  00                 sizep (0)
                         * lines:
28BD  09                 sizelineinfo (9)
                         [pc] (line)
28BE  89                 [1] (-119)
28BF  01                 [2] (-119)
28C0  00                 [3] (-118)
28C1  00                 [4] (-118)
28C2  89                 [5] (-116)
28C3  01                 [6] (-116)
28C4  00                 [7] (-116)
28C5  00                 [8] (-116)
28C6  8A                 [9] (-115)
                         * locals:
28E2  00                 sizelocvars (0)
                         * upvalues:
28E3  00                 sizeupvalues (0)
                         ** end of function **

                         
28E4                     ** function [10] definition (level 2)
                         ** start of function **
28E4  00                 string size (0)
                         source name: (none)
28E6  03                 line defined (399)
28E7  99                 last line defined (409)
28E8  03                 nups (0)
28E9  00                 numparams (2)
28EA  02                 is_vararg (0)
28EB  00                 maxstacksize (12)
                         * code:
28ED  21                 sizecode (33)
28EE  9D000000           [01] getglobal  2   0        ; _T
28F2  DD800000           [02] getglobal  3   2        ; Engine
28F6  CEC0C001           [03] gettable   3   3   259  ; -98643418
28FA  E2808000           [04] call       3   1   2  
28FE  8CC08080           [05] settable   2   257 3    ; "LastLarvlingDamageData"
2902  9D000000           [06] getglobal  2   0        ; _T
2906  8E404001           [07] gettable   2   2   257  ; "LastLarvlingDamageData"
290A  A4004101           [08] self       2   2   260  ; -420630141
290E  2441C100           [09] self       4   1   261  ; 72954849
2912  22010001           [10] call       4   2   0  
2916  A2400000           [11] call       2   0   1  
291A  9D000000           [12] getglobal  2   0        ; _T
291E  8E404001           [13] gettable   2   2   257  ; "LastLarvlingDamageData"
2922  A4804101           [14] self       2   2   262  ; -2049256907
2926  24C1C100           [15] self       4   1   263  ; 154574904
292A  22010001           [16] call       4   2   0  
292E  A2400000           [17] call       2   0   1  
2932  9D000200           [18] getglobal  2   8        ; 248503575
2936  CE404200           [19] gettable   3   0   265  ; "DAMAGE_TYPES"
293A  A2000101           [20] call       2   2   4  
293E  1A000280           [21] jmp        9            ; to [31]
2942  E481C200           [22] self       7   1   266  ; -1221595085
2946  52028002           [23] move       9   5      
294A  E2818001           [24] call       7   3   2  
294E  1D020000           [25] getglobal  8   0        ; _T
2952  0E424004           [26] gettable   8   8   257  ; "LastLarvlingDamageData"
2956  24C24204           [27] self       8   8   267  ; -995861768
295A  92028002           [28] move       10  5      
295E  D2028003           [29] move       11  7      
2962  22420002           [30] call       8   4   1  
2966  96800000           [31] tforloop   2       2    ; to [33] if exit
296A  1A00FD7F           [32] jmp        -11          ; to [22]
296E  1E008000           [33] return     0   1      
                         * constants:
2972  0C                 sizek (12)
2973  04                 const type 4
2974  03                 string size (3)
2975  5F5400             "_T\0"
                         const [0]: "_T"
2978  04                 const type 4
2979  17                 string size (23)
297A  4C6173744C617276+  "LastLarv"
2982  6C696E6744616D61+  "lingDama"
298A  67654461746100     "geData\0"
                         const [1]: "LastLarvlingDamageData"
2991  04                 const type 4
2992  07                 string size (7)
2993  456E67696E6500     "Engine\0"
                         const [2]: "Engine"
299A  01                 const type 3
299B  26D21EFA           const [3]: (-98643418)
299F  01                 const type 3
29A0  83B1EDE6           const [4]: (-420630141)
29A4  01                 const type 3
29A5  E1335904           const [5]: (72954849)
29A9  01                 const type 3
29AA  35D2DA85           const [6]: (-2049256907)
29AE  01                 const type 3
29AF  38A03609           const [7]: (154574904)
29B3  01                 const type 3
29B4  17DDCF0E           const [8]: (248503575)
29B8  04                 const type 4
29B9  0D                 string size (13)
29BA  44414D4147455F54+  "DAMAGE_T"
29C2  5950455300         "YPES\0"
                         const [9]: "DAMAGE_TYPES"
29C7  01                 const type 3
29C8  33F02FB7           const [10]: (-1221595085)
29CC  01                 const type 3
29CD  F85AA4C4           const [11]: (-995861768)
                         * functions:
29D1  00                 sizep (0)
                         * lines:
29D2  21                 sizelineinfo (33)
                         [pc] (line)
29D3  91                 [01] (-111)
29D4  01                 [02] (-111)
29D5  00                 [03] (-111)
29D6  00                 [04] (-111)
29D7  91                 [05] (-111)
29D8  01                 [06] (-110)
29D9  00                 [07] (-110)
29DA  00                 [08] (-110)
29DB  91                 [09] (-110)
29DC  01                 [10] (-110)
29DD  00                 [11] (-110)
29DE  00                 [12] (-109)
29DF  91                 [13] (-109)
29E0  01                 [14] (-109)
29E1  00                 [15] (-109)
29E2  00                 [16] (-109)
29E3  91                 [17] (-109)
29E4  01                 [18] (-107)
29E5  00                 [19] (-107)
29E6  00                 [20] (-107)
29E7  92                 [21] (-107)
29E8  01                 [22] (-106)
29E9  00                 [23] (-106)
29EA  00                 [24] (-106)
29EB  92                 [25] (-105)
29EC  01                 [26] (-105)
29ED  00                 [27] (-105)
29EE  00                 [28] (-105)
29EF  92                 [29] (-105)
29F0  01                 [30] (-105)
29F1  00                 [31] (-107)
29F2  00                 [32] (-105)
29F3  92                 [33] (-103)
                         * locals:
2A57  00                 sizelocvars (0)
                         * upvalues:
2A58  00                 sizeupvalues (0)
                         ** end of function **

                         
2A59                     ** function [11] definition (level 2)
                         ** start of function **
2A59  00                 string size (0)
                         source name: (none)
2A5B  03                 line defined (411)
2A5C  9D                 last line defined (413)
2A5D  03                 nups (0)
2A5E  00                 numparams (0)
2A5F  00                 is_vararg (0)
2A60  00                 maxstacksize (2)
                         * code:
2A62  03                 sizecode (3)
2A63  1D000000           [1] getglobal  0   0        ; _T
2A67  0C80C080           [2] settable   0   257 258  ; "LastLarvlingDamageData" nil
2A6B  1E008000           [3] return     0   1      
                         * constants:
2A6F  03                 sizek (3)
2A70  04                 const type 4
2A71  03                 string size (3)
2A72  5F5400             "_T\0"
                         const [0]: "_T"
2A75  04                 const type 4
2A76  17                 string size (23)
2A77  4C6173744C617276+  "LastLarv"
2A7F  6C696E6744616D61+  "lingDama"
2A87  67654461746100     "geData\0"
                         const [1]: "LastLarvlingDamageData"
2A8E  00                 const type 0
                         const [2]: nil
                         * functions:
2A8F  00                 sizep (0)
                         * lines:
2A90  03                 sizelineinfo (3)
                         [pc] (line)
2A91  9C                 [1] (-100)
2A92  01                 [2] (-100)
2A93  00                 [3] (-99)
                         * locals:
2A9D  00                 sizelocvars (0)
                         * upvalues:
2A9E  00                 sizeupvalues (0)
                         ** end of function **

                         * lines:
2AA0  01                 sizelineinfo (194)
                         [pc] (line)
2AA1  01                 [001] (1)
2AA2  00                 [002] (1)
2AA3  00                 [003] (1)
2AA4  00                 [004] (2)
2AA5  01                 [005] (2)
2AA6  00                 [006] (2)
2AA7  00                 [007] (3)
2AA8  00                 [008] (3)
2AA9  01                 [009] (3)
2AAA  00                 [010] (5)
2AAB  00                 [011] (5)
2AAC  00                 [012] (5)
2AAD  02                 [013] (5)
2AAE  00                 [014] (5)
2AAF  00                 [015] (5)
2AB0  00                 [016] (5)
2AB1  02                 [017] (5)
2AB2  00                 [018] (5)
2AB3  00                 [019] (5)
2AB4  00                 [020] (6)
2AB5  02                 [021] (6)
2AB6  00                 [022] (6)
2AB7  00                 [023] (6)
2AB8  00                 [024] (6)
2AB9  03                 [025] (7)
2ABA  00                 [026] (7)
2ABB  00                 [027] (7)
2ABC  00                 [028] (7)
2ABD  03                 [029] (7)
2ABE  00                 [030] (7)
2ABF  00                 [031] (7)
2AC0  00                 [032] (7)
2AC1  03                 [033] (7)
2AC2  00                 [034] (7)
2AC3  00                 [035] (7)
2AC4  00                 [036] (7)
2AC5  05                 [037] (7)
2AC6  00                 [038] (8)
2AC7  00                 [039] (8)
2AC8  00                 [040] (8)
2AC9  05                 [041] (8)
2ACA  00                 [042] (8)
2ACB  00                 [043] (8)
2ACC  00                 [044] (8)
2ACD  05                 [045] (8)
2ACE  00                 [046] (8)
2ACF  00                 [047] (8)
2AD0  00                 [048] (8)
2AD1  05                 [049] (8)
2AD2  00                 [050] (8)
2AD3  00                 [051] (8)
2AD4  00                 [052] (8)
2AD5  05                 [053] (8)
2AD6  00                 [054] (8)
2AD7  00                 [055] (8)
2AD8  00                 [056] (8)
2AD9  05                 [057] (8)
2ADA  00                 [058] (8)
2ADB  00                 [059] (8)
2ADC  00                 [060] (8)
2ADD  05                 [061] (8)
2ADE  00                 [062] (8)
2ADF  00                 [063] (8)
2AE0  00                 [064] (8)
2AE1  05                 [065] (8)
2AE2  00                 [066] (8)
2AE3  00                 [067] (8)
2AE4  00                 [068] (8)
2AE5  05                 [069] (8)
2AE6  00                 [070] (8)
2AE7  00                 [071] (8)
2AE8  00                 [072] (8)
2AE9  05                 [073] (9)
2AEA  00                 [074] (9)
2AEB  00                 [075] (9)
2AEC  00                 [076] (9)
2AED  06                 [077] (9)
2AEE  00                 [078] (9)
2AEF  00                 [079] (9)
2AF0  00                 [080] (9)
2AF1  06                 [081] (9)
2AF2  00                 [082] (9)
2AF3  00                 [083] (9)
2AF4  00                 [084] (9)
2AF5  06                 [085] (9)
2AF6  00                 [086] (9)
2AF7  00                 [087] (9)
2AF8  00                 [088] (9)
2AF9  06                 [089] (9)
2AFA  00                 [090] (9)
2AFB  00                 [091] (9)
2AFC  00                 [092] (9)
2AFD  06                 [093] (9)
2AFE  00                 [094] (9)
2AFF  00                 [095] (9)
2B00  00                 [096] (9)
2B01  07                 [097] (9)
2B02  00                 [098] (9)
2B03  00                 [099] (9)
2B04  00                 [100] (9)
2B05  07                 [101] (9)
2B06  00                 [102] (9)
2B07  00                 [103] (9)
2B08  00                 [104] (9)
2B09  07                 [105] (9)
2B0A  00                 [106] (9)
2B0B  00                 [107] (10)
2B0C  00                 [108] (10)
2B0D  07                 [109] (10)
2B0E  00                 [110] (10)
2B0F  00                 [111] (10)
2B10  00                 [112] (44)
2B11  07                 [113] (44)
2B12  00                 [114] (44)
2B13  00                 [115] (59)
2B14  00                 [116] (59)
2B15  07                 [117] (74)
2B16  00                 [118] (80)
2B17  00                 [119] (80)
2B18  00                 [120] (-110)
2B19  07                 [121] (-107)
2B1A  00                 [122] (-105)
2B1B  00                 [123] (-104)
2B1C  00                 [124] (-104)
2B1D  07                 [125] (-104)
2B1E  00                 [126] (-103)
2B1F  00                 [127] (-103)
2B20  00                 [128] (-103)
2B21  07                 [129] (-102)
2B22  00                 [130] (-102)
2B23  00                 [131] (-102)
2B24  00                 [132] (-100)
2B25  07                 [133] (-100)
2B26  00                 [134] (-100)
2B27  00                 [135] (-99)
2B28  00                 [136] (-99)
2B29  07                 [137] (-99)
2B2A  00                 [138] (-98)
2B2B  00                 [139] (-98)
2B2C  00                 [140] (-98)
2B2D  07                 [141] (-97)
2B2E  00                 [142] (-97)
2B2F  00                 [143] (-97)
2B30  00                 [144] (-95)
2B31  07                 [145] (-95)
2B32  00                 [146] (-95)
2B33  00                 [147] (-94)
2B34  00                 [148] (-94)
2B35  08                 [149] (-94)
2B36  00                 [150] (-93)
2B37  00                 [151] (-93)
2B38  00                 [152] (-93)
2B39  08                 [153] (-92)
2B3A  00                 [154] (-92)
2B3B  00                 [155] (-92)
2B3C  00                 [156] (-91)
2B3D  08                 [157] (-91)
2B3E  00                 [158] (-91)
2B3F  00                 [159] (-90)
2B40  00                 [160] (-90)
2B41  08                 [161] (-90)
2B42  00                 [162] (-88)
2B43  00                 [163] (-88)
2B44  00                 [164] (-88)
2B45  08                 [165] (-87)
2B46  00                 [166] (-87)
2B47  00                 [167] (-87)
2B48  00                 [168] (-86)
2B49  08                 [169] (-84)
2B4A  00                 [170] (-82)
2B4B  00                 [171] (-80)
2B4C  00                 [172] (-78)
2B4D  08                 [173] (-1)
2B4E  00                 [174] (-1)
2B4F  00                 [175] (-1)
2B50  00                 [176] (-1)
2B51  08                 [177] (-1)
2B52  00                 [178] (-1)
2B53  00                 [179] (5)
2B54  00                 [180] (5)
2B55  08                 [181] (5)
2B56  00                 [182] (112)
2B57  00                 [183] (112)
2B58  00                 [184] (-122)
2B59  08                 [185] (-122)
2B5A  00                 [186] (-115)
2B5B  00                 [187] (-115)
2B5C  00                 [188] (-115)
2B5D  08                 [189] (-103)
2B5E  00                 [190] (-103)
2B5F  00                 [191] (-99)
2B60  00                 [192] (-99)
2B61  08                 [193] (-97)
2B62  00                 [194] (-97)
                         * locals:
2DA9  00                 sizelocvars (0)
                         * upvalues:
2DAA  00                 sizeupvalues (0)
                         ** end of function **

2DAB                     ** end of chunk **
