1	C:\wlua_dump\path\Lotus\Scripts\NPCRareSpawnScript.lua
Pos   Hex Data           Description or Code
------------------------------------------------------------------------
0000                     ** source chunk: C:\wlua_dump\path\Lotus\Scripts\NPCRareSpawnScript.lua
                         ** global header start **
0000  7F                 header signature: ""
0001  00                 version (major:minor hex digits)
0002  00                 format (0=official)
0003  00                 endianness (1=little endian)
0004  00                 size of int (bytes)
0005  00                 size of size_t (bytes)
0006  02                 size of Instruction (bytes)
0007  1F                 size of number (bytes)
0008  68                 integral (1=integral)
4104
                         * number type: single
                         * x86 standard (32-bit, little endian, doubles)
                         ** global header end **
Wave
SurvivalMissionState
DoNotUse
TurretSpawn
CameraSpawn
FixedCameraSpawn
Objective
Exit
Lotus.Interface.LotusUtilities
Start
levelOverride
Engine
SLOT_1
SLOT_8
math
gRegion
gGameRules
Lotus_Game
LotusBaseGameRules_TSP_STATUS_ACTIVE
gGameRules
_T
RareSpawnTRes
gRegion
faction
maxEnemyLevel
COLLECTOR: mission max level too low to spawn collector target
enhancement
enhancementLocTag
ENEMY
CollectorTarget
runAwayAgent
Rare Spawn
rareSpawnEnhancements
COLLECTOR: target spawned at x:
x
 y:
y
 z
z
COLLECTOR: agent creation following host migration failed!
gRegion
gGameRules
COLLECTOR: failed reqs: bailing on spawn
_T
RareSpawnTRes
faction
COLLECTOR: target faction is not enemy, abort spawn
maxEnemyLevel
COLLECTOR: mission max level too low to spawn collector target
gFlashMgr
LotusGameRules.TrapTesting
spawnPoint
enhancement
enhancementLocTag
ENEMY
CollectorTarget
runAwayAgent
Rare Spawn
rareSpawnEnhancements
COLLECTOR: target spawned at x:
x
 y:
y
 z
z
transmissionTargetSpawned
COLLECTOR: agent creation failed!
gGameRules
gRegion
gGameRules
gNpcSpawnPointType
minSpawnDistanceFallback
FLT_MAX
spawnPoint
Lotus_Game
MT_RESCUE
MT_INTEL
COLLECTOR: found a npc spawn point beyond 
 meters
table
Dead-End
minSpawnDistance
COLLECTOR: found a dead-end spawn point
COLLECTOR: No Spawn points for rares!
transmissionTargetIdentified
transmissionThresholdReached
transmissionFailure
transmissionSuccess
gGameRules
Lotus_Game
LotusBaseGameRules_CT_NONE
LotusBaseGameRules_CT_MARKED
collectorMarkerInfo
EMPTY_SYMBOL
LotusBaseGameRules_CT_THRESHOLD_REACHED
LotusBaseGameRules_CT_CAPTURED
LotusBaseGameRules_CT_KILLED
LotusBaseGameRules_CT_SCANS_COMPLETE
ScanComplete
RARE_SPAWN
gRegion
captureEffectTarget
_T
tutorialActive
tutorial active ... bailing
LastBreadCrumbIndex
gGameRules
archwingRequired
gQuestMission
goalId

gRegion
gClient
gLotusBasePvpGameRulesType
level
dangerRoomLevel
danger room...no synthesis target
Lotus_Game
MT_TERRITORY
MT_DEFENSE
MT_RAID
MT_MASTERY
COLLECTOR:no target for this kind of mission
MT_SURVIVAL
gPromotedToHost
COLLECTOR: failed reqs: early out bailing on spawn setup
gFlashMgr
LotusGameRules.TrapTesting
COLLECTOR: new host is unable to create path to target
ScanComplete
RARE_SPAWN
LotusBaseGameRules_CT_THRESHOLD_REACHED
LotusBaseGameRules_CT_KILLED
Exiting RareSpawnScript
                         
0001                     ** function [0] definition (level 1)
                         ** start of function **
0001  00                 string size (0)
                         source name: (none)
0002  00                 line defined (0)
0003  00                 last line defined (0)
0004  00                 nups (0)
0005  00                 numparams (0)
0006  02                 is_vararg (2)
0007  1F                 maxstacksize (31)
                         * code:
0008  68                 sizecode (104)
0009  1D000000           [001] getglobal  0   0        ; -332969190
000D  59400000           [002] loadk      1   1        ; "Wave"
0011  22800001           [003] call       0   2   2  
0015  5D000000           [004] getglobal  1   0        ; -332969190
0019  99800000           [005] loadk      2   2        ; "SurvivalMissionState"
001D  62800001           [006] call       1   2   2  
0021  99C00000           [007] loadk      2   3        ; 0
0025  D7008000           [008] loadbool   3   1   0    ; true
0029  06010002           [009] loadnil    4   4      
002D  57010000           [010] loadbool   5   0   0    ; false
0031  97010000           [011] loadbool   6   0   0    ; false
0035  D7010000           [012] loadbool   7   0   0    ; false
0039  17020000           [013] loadbool   8   0   0    ; false
003D  57020000           [014] loadbool   9   0   0    ; false
0041  97020000           [015] loadbool   10  0   0    ; false
0045  C6020006           [016] loadnil    11  12     
0049  4B038001           [017] newtable   13  3   0    ; array=3, hash=0
004D  9D030000           [018] getglobal  14  0        ; -332969190
0051  D9030100           [019] loadk      15  4        ; "DoNotUse"
0055  A2830001           [020] call       14  2   2  
0059  DD030000           [021] getglobal  15  0        ; -332969190
005D  19440100           [022] loadk      16  5        ; "TurretSpawn"
0061  E2830001           [023] call       15  2   2  
0065  1D040000           [024] getglobal  16  0        ; -332969190
0069  59840100           [025] loadk      17  6        ; "CameraSpawn"
006D  22840001           [026] call       16  2   2  
0071  5D040000           [027] getglobal  17  0        ; -332969190
0075  99C40100           [028] loadk      18  7        ; "FixedCameraSpawn"
0079  62040001           [029] call       17  2   0  
007D  5B430000           [030] setlist    13  0   1    ; index 1 to top
0081  9D030000           [031] getglobal  14  0        ; -332969190
0085  D9030200           [032] loadk      15  8        ; "Objective"
0089  A2830001           [033] call       14  2   2  
008D  DD030000           [034] getglobal  15  0        ; -332969190
0091  19440200           [035] loadk      16  9        ; "Exit"
0095  E2830001           [036] call       15  2   2  
0099  1D840200           [037] getglobal  16  10       ; 849075268
009D  59C40200           [038] loadk      17  11       ; "Lotus.Interface.LotusUtilities"
00A1  22840001           [039] call       16  2   2  
00A5  65040000           [040] closure    17  0      
00A9  12000001           [041] move       0   2      
00AD  A5440000           [042] closure    18  1      
00B1  E5840000           [043] closure    19  2      
00B5  12000008           [044] move       0   16     
00B9  12008005           [045] move       0   11     
00BD  25C50000           [046] closure    20  3      
00C1  12008008           [047] move       0   17     
00C5  12008005           [048] move       0   11     
00C9  65050100           [049] closure    21  4      
00CD  12008001           [050] move       0   3      
00D1  12008002           [051] move       0   5      
00D5  12000002           [052] move       0   4      
00D9  12008008           [053] move       0   17     
00DD  12008005           [054] move       0   11     
00E1  12008009           [055] move       0   19     
00E5  12000009           [056] move       0   18     
00E9  A5450100           [057] closure    22  5      
00ED  12000000           [058] move       0   0      
00F1  E5850100           [059] closure    23  6      
00F5  12008006           [060] move       0   13     
00F9  12000007           [061] move       0   14     
00FD  12008007           [062] move       0   15     
0101  25C60100           [063] closure    24  7      
0105  12000003           [064] move       0   6      
0109  12000009           [065] move       0   18     
010D  65060200           [066] closure    25  8      
0111  12008003           [067] move       0   7      
0115  12000009           [068] move       0   18     
0119  A5460200           [069] closure    26  9      
011D  12008004           [070] move       0   9      
0121  12000009           [071] move       0   18     
0125  E5860200           [072] closure    27  10     
0129  12000004           [073] move       0   8      
012D  25C70200           [074] closure    28  11     
0131  12008005           [075] move       0   11     
0135  12000003           [076] move       0   6      
0139  1200000C           [077] move       0   24     
013D  12008003           [078] move       0   7      
0141  1200800C           [079] move       0   25     
0145  12000006           [080] move       0   12     
0149  12000004           [081] move       0   8      
014D  1200800D           [082] move       0   27     
0151  12008004           [083] move       0   9      
0155  1200000D           [084] move       0   26     
0159  12000005           [085] move       0   10     
015D  1200000E           [086] move       0   28     
0161  57070000           [087] loadbool   29  0   0    ; false
0165  A5070300           [088] closure    30  12     
0169  1200800E           [089] move       0   29     
016D  12008000           [090] move       0   1      
0171  12008001           [091] move       0   3      
0175  12008002           [092] move       0   5      
0179  12000002           [093] move       0   4      
017D  1200800B           [094] move       0   23     
0181  1200800A           [095] move       0   21     
0185  1200000A           [096] move       0   20     
0189  12008005           [097] move       0   11     
018D  12008003           [098] move       0   7      
0191  12000006           [099] move       0   12     
0195  12008004           [100] move       0   9      
0199  1200000E           [101] move       0   28     
019D  A0070300           [102] setglobal  30  12       ; Start
01A1  A0470300           [103] setglobal  30  13       ; 1868177976
01A5  1E008000           [104] return     0   1      
                         * constants:
01A9  0E                 sizek (14)
01AA  01                 const type 3
01AB  1A4B27EC           const [0]: (-332969190)
01AF  04                 const type 4
01B0  05                 string size (5)
01B1  5761766500         "Wave\0"
                         const [1]: "Wave"
01B6  04                 const type 4
01B7  15                 string size (21)
01B8  537572766976616C+  "Survival"
01C0  4D697373696F6E53+  "MissionS"
01C8  7461746500         "tate\0"
                         const [2]: "SurvivalMissionState"
01CD  03                 const type 3
01CE  00000000           const [3]: (0)
01D2  04                 const type 4
01D3  09                 string size (9)
01D4  446F4E6F74557365+  "DoNotUse"
01DC  00                 "\0"
                         const [4]: "DoNotUse"
01DD  04                 const type 4
01DE  0C                 string size (12)
01DF  5475727265745370+  "TurretSp"
01E7  61776E00           "awn\0"
                         const [5]: "TurretSpawn"
01EB  04                 const type 4
01EC  0C                 string size (12)
01ED  43616D6572615370+  "CameraSp"
01F5  61776E00           "awn\0"
                         const [6]: "CameraSpawn"
01F9  04                 const type 4
01FA  11                 string size (17)
01FB  466978656443616D+  "FixedCam"
0203  657261537061776E+  "eraSpawn"
020B  00                 "\0"
                         const [7]: "FixedCameraSpawn"
020C  04                 const type 4
020D  0A                 string size (10)
020E  4F626A6563746976+  "Objectiv"
0216  6500               "e\0"
                         const [8]: "Objective"
0218  04                 const type 4
0219  05                 string size (5)
021A  4578697400         "Exit\0"
                         const [9]: "Exit"
021F  01                 const type 3
0220  44DC9B32           const [10]: (849075268)
0224  04                 const type 4
0225  1F                 string size (31)
0226  4C6F7475732E496E+  "Lotus.In"
022E  746572666163652E+  "terface."
0236  4C6F747573557469+  "LotusUti"
023E  6C697469657300     "lities\0"
                         const [11]: "Lotus.Interface.LotusUtilities"
0245  04                 const type 4
0246  06                 string size (6)
0247  537461727400       "Start\0"
                         const [12]: "Start"
024D  01                 const type 3
024E  38225A6F           const [13]: (1868177976)
                         * functions:
0252  0D                 sizep (13)
                         
0253                     ** function [0] definition (level 2)
                         ** start of function **
0253  00                 string size (0)
                         source name: (none)
0254  2D                 line defined (45)
0255  45                 last line defined (69)
0256  01                 nups (1)
0257  02                 numparams (2)
0258  00                 is_vararg (0)
0259  0C                 maxstacksize (12)
                         * code:
025A  3B                 sizecode (59)
025B  99000000           [01] loadk      2   0        ; 0
025F  DD400000           [02] getglobal  3   1        ; levelOverride
fail op	33
0263  2180C001           [03] tforloop   0       258  ; to [5] if exit
0267  1AC00C80           [04] jmp        52           ; to [57]
026B  DDC00000           [05] getglobal  3   3        ; 1074689893
026F  12010000           [06] move       4   0      
0273  E2800001           [07] call       3   2   2  
0277  D8400000           [08] test       3       1    ; to [10] if false
027B  1A800B80           [09] jmp        47           ; to [57]
027F  DDC00000           [10] getglobal  3   3        ; 1074689893
0283  24014100           [11] self       4   0   260  ; -2135866365
0287  22010001           [12] call       4   2   0  
028B  E2800000           [13] call       3   0   2  
028F  D8400000           [14] test       3       1    ; to [16] if false
0293  1A000A80           [15] jmp        41           ; to [57]
0297  DD400100           [16] getglobal  3   5        ; Engine
029B  CE80C101           [17] gettable   3   3   262  ; "SLOT_1"
029F  1D410100           [18] getglobal  4   5        ; Engine
02A3  0EC14102           [19] gettable   4   4   263  ; "SLOT_8"
02A7  59010000           [20] loadk      5   0        ; 0
02AB  D0800480           [21] forprep    3   19       ; to [41]
02AF  E4014100           [22] self       7   0   260  ; -2135866365
02B3  E2810001           [23] call       7   2   2  
02B7  E401C203           [24] self       7   7   264  ; -1917464545
02BB  E2810001           [25] call       7   2   2  
02BF  E441C203           [26] self       7   7   265  ; 1674984496
02C3  52020003           [27] move       9   6      
02C7  E2818001           [28] call       7   3   2  
02CB  1DC20000           [29] getglobal  8   3        ; 1074689893
02CF  52028003           [30] move       9   7      
02D3  22820001           [31] call       8   2   2  
02D7  18420000           [32] test       8       1    ; to [34] if false
02DB  1A800180           [33] jmp        7            ; to [41]
02DF  1D820200           [34] getglobal  8   10       ; math
02E3  0EC24204           [35] gettable   8   8   267  ; -1962864584
02E7  52020001           [36] move       9   2      
02EB  A402C303           [37] self       10  7   268  ; 1250786858
02EF  A2020001           [38] call       10  2   0  
02F3  22820000           [39] call       8   0   2  
02F7  92000004           [40] move       2   8      
02FB  D4C0FA7F           [41] forloop    3   -20      ; to [22] if loop
02FF  1DC20000           [42] getglobal  8   3        ; 1074689893
0303  52028000           [43] move       9   1      
0307  22820001           [44] call       8   2   2  
030B  18420000           [45] test       8       1    ; to [47] if false
030F  1A800180           [46] jmp        7            ; to [54]
0313  1D820200           [47] getglobal  8   10       ; math
0317  0EC24204           [48] gettable   8   8   267  ; -1962864584
031B  52020001           [49] move       9   2      
031F  A442C300           [50] self       10  1   269  ; -472735398
0323  A2020001           [51] call       10  2   0  
0327  22820000           [52] call       8   0   2  
032B  92000004           [53] move       2   8      
032F  13020000           [54] getupval   8   0      
0333  83000201           [55] add        2   2   8  
0337  1A000080           [56] jmp        1            ; to [58]
033B  9D400000           [57] getglobal  2   1        ; levelOverride
033F  9E000001           [58] return     2   2      
0343  1E008000           [59] return     0   1      
                         * constants:
0347  0E                 sizek (14)
0348  03                 const type 3
0349  0000803F           const [0]: (0)
034D  04                 const type 4
034E  0E                 string size (14)
034F  6C6576656C4F7665+  "levelOve"
0357  727269646500       "rride\0"
                         const [1]: "levelOverride"
035D  03                 const type 3
035E  00000000           const [2]: (0)
0362  01                 const type 3
0363  65770E40           const [3]: (1074689893)
0367  01                 const type 3
0368  0344B180           const [4]: (-2135866365)
036C  04                 const type 4
036D  07                 string size (7)
036E  456E67696E6500     "Engine\0"
                         const [5]: "Engine"
0375  04                 const type 4
0376  07                 string size (7)
0377  534C4F545F3100     "SLOT_1\0"
                         const [6]: "SLOT_1"
037E  04                 const type 4
037F  07                 string size (7)
0380  534C4F545F3800     "SLOT_8\0"
                         const [7]: "SLOT_8"
0387  01                 const type 3
0388  1FD0B58D           const [8]: (-1917464545)
038C  01                 const type 3
038D  303CD663           const [9]: (1674984496)
0391  04                 const type 4
0392  05                 string size (5)
0393  6D61746800         "math\0"
                         const [10]: "math"
0398  01                 const type 3
0399  3810018B           const [11]: (-1962864584)
039D  01                 const type 3
039E  2A7E8D4A           const [12]: (1250786858)
03A2  01                 const type 3
03A3  5AA1D2E3           const [13]: (-472735398)
                         * functions:
03A7  00                 sizep (0)
                         * lines:
03A8  3B                 sizelineinfo (59)
                         [pc] (line)
03A9  30                 [01] (48)
03AA  00                 [02] (49)
03AB  00                 [03] (49)
03AC  00                 [04] (49)
03AD  31                 [05] (49)
03AE  00                 [06] (49)
03AF  00                 [07] (49)
03B0  00                 [08] (49)
03B1  31                 [09] (49)
03B2  00                 [10] (49)
03B3  00                 [11] (49)
03B4  00                 [12] (49)
03B5  31                 [13] (49)
03B6  00                 [14] (49)
03B7  00                 [15] (49)
03B8  00                 [16] (50)
03B9  31                 [17] (50)
03BA  00                 [18] (50)
03BB  00                 [19] (50)
03BC  00                 [20] (50)
03BD  31                 [21] (50)
03BE  00                 [22] (51)
03BF  00                 [23] (51)
03C0  00                 [24] (51)
03C1  31                 [25] (51)
03C2  00                 [26] (51)
03C3  00                 [27] (51)
03C4  00                 [28] (51)
03C5  31                 [29] (52)
03C6  00                 [30] (52)
03C7  00                 [31] (52)
03C8  00                 [32] (52)
03C9  31                 [33] (52)
03CA  00                 [34] (53)
03CB  00                 [35] (53)
03CC  00                 [36] (53)
03CD  31                 [37] (53)
03CE  00                 [38] (53)
03CF  00                 [39] (53)
03D0  00                 [40] (53)
03D1  31                 [41] (50)
03D2  00                 [42] (58)
03D3  00                 [43] (58)
03D4  00                 [44] (58)
03D5  31                 [45] (58)
03D6  00                 [46] (58)
03D7  00                 [47] (59)
03D8  00                 [48] (59)
03D9  31                 [49] (59)
03DA  00                 [50] (59)
03DB  00                 [51] (59)
03DC  00                 [52] (59)
03DD  31                 [53] (59)
03DE  00                 [54] (63)
03DF  00                 [55] (63)
03E0  00                 [56] (63)
03E1  31                 [57] (65)
03E2  00                 [58] (68)
03E3  00                 [59] (69)
                         * locals:
0495  00                 sizelocvars (0)
                         * upvalues:
0496  00                 sizeupvalues (0)
                         ** end of function **

                         
0497                     ** function [1] definition (level 2)
                         ** start of function **
0497  00                 string size (0)
                         source name: (none)
0498  47                 line defined (71)
0499  56                 last line defined (86)
049A  00                 nups (0)
049B  02                 numparams (2)
049C  00                 is_vararg (0)
049D  0A                 maxstacksize (10)
                         * code:
049E  2B                 sizecode (43)
049F  9D000000           [01] getglobal  2   0        ; gRegion
04A3  A4404001           [02] self       2   2   257  ; 1224466847
04A7  A2800001           [03] call       2   2   2  
04AB  58000000           [04] test       1       0    ; to [6] if true
04AF  1A400680           [05] jmp        26           ; to [32]
04B3  D9800000           [06] loadk      3   2        ; 0
04B7  0A010001           [07] len        4   2      
04BB  59810000           [08] loadk      5   2        ; 0
04BF  D0C00480           [09] forprep    3   20       ; to [30]
04C3  DDC10000           [10] getglobal  7   3        ; 1074689893
04C7  0E820101           [11] gettable   8   2   6  
04CB  24024104           [12] self       8   8   260  ; -2135866365
04CF  22020001           [13] call       8   2   0  
04D3  E2810000           [14] call       7   0   2  
04D7  D8410000           [15] test       7       1    ; to [17] if false
04DB  1A000380           [16] jmp        13           ; to [30]
04DF  CE810101           [17] gettable   7   2   6  
04E3  E441C103           [18] self       7   7   261  ; 51109503
04E7  E2810001           [19] call       7   2   2  
04EB  E481C103           [20] self       7   7   262  ; 213259572
04EF  E2810001           [21] call       7   2   2  
04F3  D8010000           [22] test       7       0    ; to [24] if true
04F7  1A400180           [23] jmp        6            ; to [30]
04FB  CE810101           [24] gettable   7   2   6  
04FF  E401C103           [25] self       7   7   260  ; -2135866365
0503  E2810001           [26] call       7   2   2  
0507  E4C1C103           [27] self       7   7   263  ; 145557915
050B  52020000           [28] move       9   0      
050F  E2418001           [29] call       7   3   1  
0513  D480FA7F           [30] forloop    3   -21      ; to [10] if loop
0517  1A800280           [31] jmp        11           ; to [43]
051B  DDC10000           [32] getglobal  7   3        ; 1074689893
051F  0E824001           [33] gettable   8   2   258  ; 0
0523  E2810001           [34] call       7   2   2  
0527  D8410000           [35] test       7       1    ; to [37] if false
052B  1A400180           [36] jmp        6            ; to [43]
052F  CE814001           [37] gettable   7   2   258  ; 0
0533  E401C103           [38] self       7   7   260  ; -2135866365
0537  E2810001           [39] call       7   2   2  
053B  E4C1C103           [40] self       7   7   263  ; 145557915
053F  52020000           [41] move       9   0      
0543  E2418001           [42] call       7   3   1  
0547  1E008000           [43] return     0   1      
                         * constants:
054B  08                 sizek (8)
054C  04                 const type 4
054D  08                 string size (8)
054E  67526567696F6E00   "gRegion\0"
                         const [0]: "gRegion"
0556  01                 const type 3
0557  9FE1FB48           const [1]: (1224466847)
055B  03                 const type 3
055C  0000803F           const [2]: (0)
0560  01                 const type 3
0561  65770E40           const [3]: (1074689893)
0565  01                 const type 3
0566  0344B180           const [4]: (-2135866365)
056A  01                 const type 3
056B  7FDE0B03           const [5]: (51109503)
056F  01                 const type 3
0570  3415B60C           const [6]: (213259572)
0574  01                 const type 3
0575  9B09AD08           const [7]: (145557915)
                         * functions:
0579  00                 sizep (0)
                         * lines:
057A  2B                 sizelineinfo (43)
                         [pc] (line)
057B  48                 [01] (72)
057C  00                 [02] (72)
057D  00                 [03] (72)
057E  00                 [04] (73)
057F  48                 [05] (73)
0580  00                 [06] (74)
0581  00                 [07] (74)
0582  00                 [08] (74)
0583  48                 [09] (74)
0584  00                 [10] (75)
0585  00                 [11] (75)
0586  00                 [12] (75)
0587  49                 [13] (75)
0588  00                 [14] (75)
0589  00                 [15] (75)
058A  00                 [16] (75)
058B  49                 [17] (76)
058C  00                 [18] (76)
058D  00                 [19] (76)
058E  00                 [20] (76)
058F  4A                 [21] (76)
0590  00                 [22] (76)
0591  00                 [23] (76)
0592  00                 [24] (77)
0593  4A                 [25] (77)
0594  00                 [26] (77)
0595  00                 [27] (77)
0596  00                 [28] (77)
0597  4A                 [29] (77)
0598  00                 [30] (74)
0599  00                 [31] (80)
059A  00                 [32] (82)
059B  4A                 [33] (82)
059C  00                 [34] (82)
059D  00                 [35] (82)
059E  00                 [36] (82)
059F  4B                 [37] (83)
05A0  00                 [38] (83)
05A1  00                 [39] (83)
05A2  00                 [40] (83)
05A3  4B                 [41] (83)
05A4  00                 [42] (83)
05A5  00                 [43] (86)
                         * locals:
0627  00                 sizelocvars (0)
                         * upvalues:
0628  00                 sizeupvalues (0)
                         ** end of function **

                         
0629                     ** function [2] definition (level 2)
                         ** start of function **
0629  00                 string size (0)
                         source name: (none)
062A  58                 line defined (88)
062B  5F                 last line defined (95)
062C  02                 nups (2)
062D  00                 numparams (0)
062E  00                 is_vararg (0)
062F  09                 maxstacksize (9)
                         * code:
0630  15                 sizecode (21)
0631  13000000           [01] getupval   0   0      
0635  0E004000           [02] gettable   0   0   256  ; 581943379
0639  22808000           [03] call       0   1   2  
063D  59400000           [04] loadk      1   1        ; 0
0641  8A000000           [05] len        2   0      
0645  D9400000           [06] loadk      3   1        ; 0
0649  50C00280           [07] forprep    1   12       ; to [20]
064D  53018000           [08] getupval   5   1      
0651  6481C002           [09] self       5   5   258  ; -1891239508
0655  CE010100           [10] gettable   7   0   4  
0659  62818001           [11] call       5   3   2  
065D  58010000           [12] test       5       0    ; to [14] if true
0661  1A400180           [13] jmp        6            ; to [20]
0665  5DC10000           [14] getglobal  5   3        ; gGameRules
0669  6401C102           [15] self       5   5   260  ; 1486645131
066D  CD414002           [16] sub        7   4   257  ; 0
0671  1D420100           [17] getglobal  8   5        ; Lotus_Game
0675  0E824104           [18] gettable   8   8   262  ; "LotusBaseGameRules_TSP_STATUS_ACTIVE"
0679  62410002           [19] call       5   4   1  
067D  5480FC7F           [20] forloop    1   -13      ; to [8] if loop
0681  1E008000           [21] return     0   1      
                         * constants:
0685  07                 sizek (7)
0686  01                 const type 3
0687  53C0AF22           const [0]: (581943379)
068B  03                 const type 3
068C  0000803F           const [1]: (0)
0690  01                 const type 3
0691  ACF9458F           const [2]: (-1891239508)
0695  04                 const type 4
0696  0B                 string size (11)
0697  6747616D6552756C+  "gGameRul"
069F  657300             "es\0"
                         const [3]: "gGameRules"
06A2  01                 const type 3
06A3  8B679C58           const [4]: (1486645131)
06A7  04                 const type 4
06A8  0B                 string size (11)
06A9  4C6F7475735F4761+  "Lotus_Ga"
06B1  6D6500             "me\0"
                         const [5]: "Lotus_Game"
06B4  04                 const type 4
06B5  25                 string size (37)
06B6  4C6F747573426173+  "LotusBas"
06BE  6547616D6552756C+  "eGameRul"
06C6  65735F5453505F53+  "es_TSP_S"
06CE  54415455535F4143+  "TATUS_AC"
06D6  5449564500         "TIVE\0"
                         const [6]: "LotusBaseGameRules_TSP_STATUS_ACTIVE"
                         * functions:
06DB  00                 sizep (0)
                         * lines:
06DC  15                 sizelineinfo (21)
                         [pc] (line)
06DD  59                 [01] (89)
06DE  00                 [02] (89)
06DF  00                 [03] (89)
06E0  00                 [04] (90)
06E1  59                 [05] (90)
06E2  00                 [06] (90)
06E3  00                 [07] (90)
06E4  00                 [08] (91)
06E5  59                 [09] (91)
06E6  00                 [10] (91)
06E7  00                 [11] (91)
06E8  00                 [12] (91)
06E9  5A                 [13] (91)
06EA  00                 [14] (92)
06EB  00                 [15] (92)
06EC  00                 [16] (92)
06ED  5A                 [17] (92)
06EE  00                 [18] (92)
06EF  00                 [19] (92)
06F0  00                 [20] (90)
06F1  5A                 [21] (95)
                         * locals:
0731  00                 sizelocvars (0)
                         * upvalues:
0732  00                 sizeupvalues (0)
                         ** end of function **

                         
0733                     ** function [3] definition (level 2)
                         ** start of function **
0733  00                 string size (0)
                         source name: (none)
0734  61                 line defined (97)
0735  9B                 last line defined (155)
0736  01                 nups (2)
0737  02                 numparams (0)
0738  00                 is_vararg (0)
0739  00                 maxstacksize (25)
                         * code:
073C  01                 sizecode (186)
073D  1D000000           [001] getglobal  0   0        ; gGameRules
0741  5D400000           [002] getglobal  1   1        ; _T
0745  A4C04000           [003] self       2   0   259  ; -1292075025
0749  A2800001           [004] call       2   2   2  
074D  4C800081           [005] settable   1   258 2    ; "RareSpawnTRes"
0751  5D000100           [006] getglobal  1   4        ; gRegion
0755  6440C100           [007] self       1   1   261  ; -774964848
0759  62800001           [008] call       1   2   2  
075D  A480C100           [009] self       2   1   262  ; 537471347
0761  A2800001           [010] call       2   2   2  
0765  DD400000           [011] getglobal  3   1        ; _T
0769  CEC0C101           [012] gettable   3   3   263  ; "faction"
fail op	35
076D  2300C201           [013] close      0  
0771  1AC00080           [014] jmp        4            ; to [19]
0775  24414201           [015] self       4   2   265  ; -2031737093
0779  99810200           [016] loadk      6   10       ; 0
077D  22818001           [017] call       4   3   2  
0781  D2000002           [018] move       3   4      
0785  19C10200           [019] loadk      4   11       ; 0
0789  5D010100           [020] getglobal  5   4        ; gRegion
078D  6401C302           [021] self       5   5   268  ; 1224466847
0791  62810001           [022] call       5   2   2  
0795  99C10200           [023] loadk      6   11       ; 0
0799  CA018002           [024] len        7   5      
079D  19C20200           [025] loadk      8   11       ; 0
07A1  90810180           [026] forprep    6   7        ; to [34]
07A5  93020000           [027] getupval   10  0      
07A9  CE428202           [028] gettable   11  5   9  
07AD  12030001           [029] move       12  2      
07B1  A2828001           [030] call       10  3   2  
fail op	21
07B5  15800202           [031] concat     0   4   10 
07B9  1A000080           [032] jmp        1            ; to [34]
07BD  12010005           [033] move       4   10     
07C1  94C1FD7F           [034] forloop    6   -8       ; to [27] if loop
07C5  E4424301           [035] self       11  2   269  ; -354168336
07C9  E2820001           [036] call       11  2   2  
fail op	21
07CD  15C00202           [037] concat     0   4   11 
07D1  1A800080           [038] jmp        3            ; to [42]
07D5  E4424301           [039] self       11  2   269  ; -354168336
07D9  E2820001           [040] call       11  2   2  
07DD  12018005           [041] move       4   11     
07E1  DD020000           [042] getglobal  11  0        ; gGameRules
07E5  E482C305           [043] self       11  11  270  ; -1201441975
07E9  E2820001           [044] call       11  2   2  
07ED  CEC2C305           [045] gettable   11  11  271  ; "maxEnemyLevel"
07F1  1D030100           [046] getglobal  12  4        ; gRegion
07F5  24434106           [047] self       12  12  261  ; -774964848
07F9  22830001           [048] call       12  2   2  
07FD  24034406           [049] self       12  12  272  ; -755937253
0801  9D430000           [050] getglobal  14  1        ; _T
0805  8E834007           [051] gettable   14  14  258  ; "RareSpawnTRes"
0809  22838001           [052] call       12  3   2  
fail op	21
080D  15008305           [053] concat     0   11  12 
0811  1A000180           [054] jmp        5            ; to [60]
0815  1D430400           [055] getglobal  12  17       ; -1817107093
0819  59830400           [056] loadk      13  18       ; "COLLECTOR: mission max level too low to spawn collector target"
081D  22430001           [057] call       12  2   1  
0821  17030000           [058] loadbool   12  0   0    ; false
0825  1E030001           [059] return     12  2      
0829  24C34400           [060] self       12  0   275  ; 1782373366
082D  22830001           [061] call       12  2   2  
0831  5D030100           [062] getglobal  13  4        ; gRegion
0835  6443C106           [063] self       13  13  261  ; -774964848
0839  62830001           [064] call       13  2   2  
083D  6403C506           [065] self       13  13  276  ; 436282865
0841  DD430000           [066] getglobal  15  1        ; _T
0845  CE83C007           [067] gettable   15  15  258  ; "RareSpawnTRes"
0849  12040006           [068] move       16  12     
084D  5D440500           [069] getglobal  17  21       ; 508519041
0851  62848000           [070] call       17  1   2  
0855  92048001           [071] move       18  3      
0859  D2040002           [072] move       19  4      
085D  17058000           [073] loadbool   20  1   0    ; true
0861  62830004           [074] call       13  8   2  
0865  9D830500           [075] getglobal  14  22       ; 1074689893
0869  D2038006           [076] move       15  13     
086D  A2830001           [077] call       14  2   2  
0871  98430000           [078] test       14      1    ; to [80] if false
0875  1A001980           [079] jmp        101          ; to [181]
0879  A4C3C506           [080] self       14  13  279  ; -2135866365
087D  A2830001           [081] call       14  2   2  
fail op	8
0881  88038000           [082] setupval   14  1      
0885  93038000           [083] getupval   14  1      
0889  A4034607           [084] self       14  14  280  ; -372871396
088D  1D440600           [085] getglobal  16  25       ; enhancement
0891  57040000           [086] loadbool   17  0   0    ; false
0895  A2430002           [087] call       14  4   1  
0899  9D830600           [088] getglobal  14  26       ; -421772368
089D  D3038000           [089] getupval   15  1      
08A1  E4C3C607           [090] self       15  15  283  ; -1334436347
08A5  E2830001           [091] call       15  2   2  
08A9  E403C707           [092] self       15  15  284  ; 1590141906
08AD  E2830001           [093] call       15  2   2  
08B1  17048000           [094] loadbool   16  1   0    ; true
08B5  A2838001           [095] call       14  3   2  
08B9  DD830600           [096] getglobal  15  26       ; -421772368
08BD  1D440700           [097] getglobal  16  29       ; enhancementLocTag
08C1  4B440000           [098] newtable   17  0   1    ; array=0, hash=1
08C5  4C84038F           [099] settable   17  286 14   ; "ENEMY"
08C9  E2838001           [100] call       15  3   2  
08CD  13048000           [101] getupval   16  1      
08D1  24C44708           [102] self       16  16  287  ; -786839083
08D5  92048007           [103] move       18  15     
08D9  22448001           [104] call       16  3   1  
08DD  13048000           [105] getupval   16  1      
08E1  24044808           [106] self       16  16  288  ; 1925318584
08E5  97048000           [107] loadbool   18  1   0    ; true
08E9  22448001           [108] call       16  3   1  
08ED  13048000           [109] getupval   16  1      
08F1  24444808           [110] self       16  16  289  ; -971287385
08F5  9D840800           [111] getglobal  18  34       ; -332969190
08F9  D9C40800           [112] loadk      19  35       ; "CollectorTarget"
08FD  A2040001           [113] call       18  2   0  
0901  22440000           [114] call       16  0   1  
0905  24C4C506           [115] self       16  13  279  ; -2135866365
0909  22840001           [116] call       16  2   2  
090D  64044908           [117] self       17  16  292  ; 1839670529
0911  62840001           [118] call       17  2   2  
0915  A4C4C506           [119] self       18  13  279  ; -2135866365
0919  A2840001           [120] call       18  2   2  
091D  A4444909           [121] self       18  18  293  ; -1265336035
0921  1D850900           [122] getglobal  20  38       ; runAwayAgent
0925  5D850800           [123] getglobal  21  34       ; -332969190
0929  99C50900           [124] loadk      22  39       ; "Rare Spawn"
092D  62850001           [125] call       21  2   2  
0931  92058001           [126] move       22  3      
0935  D7050000           [127] loadbool   23  0   0    ; false
0939  A2440003           [128] call       18  6   1  
093D  9D840500           [129] getglobal  18  22       ; 1074689893
0941  E4044A08           [130] self       19  16  296  ; -1411785325
0945  E2040001           [131] call       19  2   0  
0949  A2840000           [132] call       18  0   2  
094D  98440000           [133] test       18      1    ; to [135] if false
0951  1A400180           [134] jmp        6            ; to [141]
0955  A4044A08           [135] self       18  16  296  ; -1411785325
0959  A2840001           [136] call       18  2   2  
095D  A4444A09           [137] self       18  18  297  ; -245162816
0961  1D450000           [138] getglobal  20  1        ; _T
0965  0E85400A           [139] gettable   20  20  258  ; "RareSpawnTRes"
0969  A2448001           [140] call       18  3   1  
096D  9D840500           [141] getglobal  18  22       ; 1074689893
0971  DD440000           [142] getglobal  19  1        ; _T
0975  CE84CA09           [143] gettable   19  19  298  ; "rareSpawnEnhancements"
0979  A2840001           [144] call       18  2   2  
097D  98040000           [145] test       18      0    ; to [147] if true
0981  1A800080           [146] jmp        3            ; to [150]
0985  9D440000           [147] getglobal  18  1        ; _T
0989  CB040000           [148] newtable   19  0   0    ; array=0, hash=0
098D  8CC40495           [149] settable   18  298 19   ; "rareSpawnEnhancements"
0991  9D440000           [150] getglobal  18  1        ; _T
0995  8E844A09           [151] gettable   18  18  298  ; "rareSpawnEnhancements"
0999  E4C44A08           [152] self       19  16  299  ; -605089866
099D  E2840001           [153] call       19  2   2  
09A1  1D450600           [154] getglobal  20  25       ; enhancement
09A5  8C048509           [155] settable   18  19  20 
09A9  9D440400           [156] getglobal  18  17       ; -1817107093
09AD  D9040B00           [157] loadk      19  44       ; "COLLECTOR: target spawned at x:"
09B1  0E45CB08           [158] gettable   20  17  301  ; "x"
09B5  59850B00           [159] loadk      21  46       ; " y:"
09B9  8EC5CB08           [160] gettable   22  17  303  ; "y"
09BD  D9050C00           [161] loadk      23  48       ; " z"
09C1  0E46CC08           [162] gettable   24  17  305  ; "z"
09C5  C2048609           [163] concat     19  19  24 
09C9  A2440001           [164] call       18  2   1  
09CD  A4844C00           [165] self       18  0   306  ; -872656598
09D1  12050006           [166] move       20  12     
09D5  53058000           [167] getupval   21  1      
09D9  A2440002           [168] call       18  4   1  
09DD  A4C44C00           [169] self       18  0   307  ; -867351310
09E1  13058000           [170] getupval   20  1      
09E5  A2448001           [171] call       18  3   1  
09E9  93048000           [172] getupval   18  1      
09ED  A4044D09           [173] self       18  18  308  ; 1992436207
09F1  1D050000           [174] getglobal  20  0        ; gGameRules
09F5  24454D0A           [175] self       20  20  309  ; 1447308151
09F9  22050001           [176] call       20  2   0  
09FD  A2440000           [177] call       18  0   1  
0A01  97048000           [178] loadbool   18  1   0    ; true
0A05  9E040001           [179] return     18  2      
0A09  1A000180           [180] jmp        5            ; to [186]
0A0D  9D440400           [181] getglobal  18  17       ; -1817107093
0A11  D9840D00           [182] loadk      19  54       ; "COLLECTOR: agent creation following host migration failed!"
0A15  A2440001           [183] call       18  2   1  
0A19  97040000           [184] loadbool   18  0   0    ; false
0A1D  9E040001           [185] return     18  2      
0A21  1E008000           [186] return     0   1      
                         * constants:
0A25  37                 sizek (55)
0A26  04                 const type 4
0A27  0B                 string size (11)
0A28  6747616D6552756C+  "gGameRul"
0A30  657300             "es\0"
                         const [0]: "gGameRules"
0A33  04                 const type 4
0A34  03                 string size (3)
0A35  5F5400             "_T\0"
                         const [1]: "_T"
0A38  04                 const type 4
0A39  0E                 string size (14)
0A3A  5261726553706177+  "RareSpaw"
0A42  6E5452657300       "nTRes\0"
                         const [2]: "RareSpawnTRes"
0A48  01                 const type 3
0A49  EF7FFCB2           const [3]: (-1292075025)
0A4D  04                 const type 4
0A4E  08                 string size (8)
0A4F  67526567696F6E00   "gRegion\0"
                         const [4]: "gRegion"
0A57  01                 const type 3
0A58  90F9CED1           const [5]: (-774964848)
0A5C  01                 const type 3
0A5D  73290920           const [6]: (537471347)
0A61  04                 const type 4
0A62  08                 string size (8)
0A63  66616374696F6E00   "faction\0"
                         const [7]: "faction"
0A6B  00                 const type 0
                         const [8]: nil
0A6C  01                 const type 3
0A6D  FB26E686           const [9]: (-2031737093)
0A71  03                 const type 3
0A72  00000000           const [10]: (0)
0A76  03                 const type 3
0A77  0000803F           const [11]: (0)
0A7B  01                 const type 3
0A7C  9FE1FB48           const [12]: (1224466847)
0A80  01                 const type 3
0A81  F0D1E3EA           const [13]: (-354168336)
0A85  01                 const type 3
0A86  497363B8           const [14]: (-1201441975)
0A8A  04                 const type 4
0A8B  0E                 string size (14)
0A8C  6D6178456E656D79+  "maxEnemy"
0A94  4C6576656C00       "Level\0"
                         const [15]: "maxEnemyLevel"
0A9A  01                 const type 3
0A9B  1B50F1D2           const [16]: (-755937253)
0A9F  01                 const type 3
0AA0  6B25B193           const [17]: (-1817107093)
0AA4  04                 const type 4
0AA5  3F                 string size (63)
0AA6  434F4C4C4543544F+  "COLLECTO"
0AAE  523A206D69737369+  "R: missi"
0AB6  6F6E206D6178206C+  "on max l"
0ABE  6576656C20746F6F+  "evel too"
0AC6  206C6F7720746F20+  " low to "
0ACE  737061776E20636F+  "spawn co"
0AD6  6C6C6563746F7220+  "llector "
0ADE  74617267657400     "target\0"
                         const [18]: "COLLECTOR: mission max level too low to spawn collector target"
0AE5  01                 const type 3
0AE6  F6DB3C6A           const [19]: (1782373366)
0AEA  01                 const type 3
0AEB  F125011A           const [20]: (436282865)
0AEF  01                 const type 3
0AF0  81624F1E           const [21]: (508519041)
0AF4  01                 const type 3
0AF5  65770E40           const [22]: (1074689893)
0AF9  01                 const type 3
0AFA  0344B180           const [23]: (-2135866365)
0AFE  01                 const type 3
0AFF  1C6FC6E9           const [24]: (-372871396)
0B03  04                 const type 4
0B04  0C                 string size (12)
0B05  656E68616E63656D+  "enhancem"
0B0D  656E7400           "ent\0"
                         const [25]: "enhancement"
0B11  01                 const type 3
0B12  B043DCE6           const [26]: (-421772368)
0B16  01                 const type 3
0B17  051E76B0           const [27]: (-1334436347)
0B1B  01                 const type 3
0B1C  D2A3C75E           const [28]: (1590141906)
0B20  04                 const type 4
0B21  12                 string size (18)
0B22  656E68616E63656D+  "enhancem"
0B2A  656E744C6F635461+  "entLocTa"
0B32  6700               "g\0"
                         const [29]: "enhancementLocTag"
0B34  04                 const type 4
0B35  06                 string size (6)
0B36  454E454D5900       "ENEMY\0"
                         const [30]: "ENEMY"
0B3C  01                 const type 3
0B3D  D5C919D1           const [31]: (-786839083)
0B41  01                 const type 3
0B42  B807C272           const [32]: (1925318584)
0B46  01                 const type 3
0B47  A7541BC6           const [33]: (-971287385)
0B4B  01                 const type 3
0B4C  1A4B27EC           const [34]: (-332969190)
0B50  04                 const type 4
0B51  10                 string size (16)
0B52  436F6C6C6563746F+  "Collecto"
0B5A  7254617267657400   "rTarget\0"
                         const [35]: "CollectorTarget"
0B62  01                 const type 3
0B63  0125A76D           const [36]: (1839670529)
0B67  01                 const type 3
0B68  1D8194B4           const [37]: (-1265336035)
0B6C  04                 const type 4
0B6D  0D                 string size (13)
0B6E  72756E4177617941+  "runAwayA"
0B76  67656E7400         "gent\0"
                         const [38]: "runAwayAgent"
0B7B  04                 const type 4
0B7C  0B                 string size (11)
0B7D  5261726520537061+  "Rare Spa"
0B85  776E00             "wn\0"
                         const [39]: "Rare Spawn"
0B88  01                 const type 3
0B89  93DDD9AB           const [40]: (-1411785325)
0B8D  01                 const type 3
0B8E  C01C63F1           const [41]: (-245162816)
0B92  04                 const type 4
0B93  16                 string size (22)
0B94  7261726553706177+  "rareSpaw"
0B9C  6E456E68616E6365+  "nEnhance"
0BA4  6D656E747300       "ments\0"
                         const [42]: "rareSpawnEnhancements"
0BAA  01                 const type 3
0BAB  B60FEFDB           const [43]: (-605089866)
0BAF  04                 const type 4
0BB0  20                 string size (32)
0BB1  434F4C4C4543544F+  "COLLECTO"
0BB9  523A207461726765+  "R: targe"
0BC1  7420737061776E65+  "t spawne"
0BC9  6420617420783A00   "d at x:\0"
                         const [44]: "COLLECTOR: target spawned at x:"
0BD1  04                 const type 4
0BD2  02                 string size (2)
0BD3  7800               "x\0"
                         const [45]: "x"
0BD5  04                 const type 4
0BD6  04                 string size (4)
0BD7  20793A00           " y:\0"
                         const [46]: " y:"
0BDB  04                 const type 4
0BDC  02                 string size (2)
0BDD  7900               "y\0"
                         const [47]: "y"
0BDF  04                 const type 4
0BE0  03                 string size (3)
0BE1  207A00             " z\0"
                         const [48]: " z"
0BE4  04                 const type 4
0BE5  02                 string size (2)
0BE6  7A00               "z\0"
                         const [49]: "z"
0BE8  01                 const type 3
0BE9  2A51FCCB           const [50]: (-872656598)
0BED  01                 const type 3
0BEE  F2444DCC           const [51]: (-867351310)
0BF2  01                 const type 3
0BF3  EF29C276           const [52]: (1992436207)
0BF7  01                 const type 3
0BF8  772B4456           const [53]: (1447308151)
0BFC  04                 const type 4
0BFD  3B                 string size (59)
0BFE  434F4C4C4543544F+  "COLLECTO"
0C06  523A206167656E74+  "R: agent"
0C0E  206372656174696F+  " creatio"
0C16  6E20666F6C6C6F77+  "n follow"
0C1E  696E6720686F7374+  "ing host"
0C26  206D696772617469+  " migrati"
0C2E  6F6E206661696C65+  "on faile"
0C36  642100             "d!\0"
                         const [54]: "COLLECTOR: agent creation following host migration failed!"
                         * functions:
0C39  00                 sizep (0)
                         * lines:
0C3B  01                 sizelineinfo (186)
                         [pc] (line)
0C3C  62                 [001] (98)
0C3D  00                 [002] (99)
0C3E  00                 [003] (99)
0C3F  00                 [004] (99)
0C40  63                 [005] (99)
0C41  00                 [006] (100)
0C42  00                 [007] (100)
0C43  00                 [008] (100)
0C44  63                 [009] (101)
0C45  00                 [010] (101)
0C46  00                 [011] (102)
0C47  00                 [012] (102)
0C48  63                 [013] (103)
0C49  00                 [014] (103)
0C4A  00                 [015] (104)
0C4B  00                 [016] (104)
0C4C  63                 [017] (104)
0C4D  00                 [018] (104)
0C4E  00                 [019] (106)
0C4F  00                 [020] (107)
0C50  64                 [021] (107)
0C51  00                 [022] (107)
0C52  00                 [023] (108)
0C53  00                 [024] (108)
0C54  64                 [025] (108)
0C55  00                 [026] (108)
0C56  00                 [027] (109)
0C57  00                 [028] (109)
0C58  64                 [029] (109)
0C59  00                 [030] (109)
0C5A  00                 [031] (110)
0C5B  00                 [032] (110)
0C5C  65                 [033] (111)
0C5D  00                 [034] (108)
0C5E  00                 [035] (114)
0C5F  00                 [036] (114)
0C60  65                 [037] (114)
0C61  00                 [038] (114)
0C62  00                 [039] (115)
0C63  00                 [040] (115)
0C64  66                 [041] (115)
0C65  00                 [042] (117)
0C66  00                 [043] (117)
0C67  00                 [044] (117)
0C68  66                 [045] (117)
0C69  00                 [046] (118)
0C6A  00                 [047] (118)
0C6B  00                 [048] (118)
0C6C  67                 [049] (118)
0C6D  00                 [050] (118)
0C6E  00                 [051] (118)
0C6F  00                 [052] (118)
0C70  67                 [053] (118)
0C71  00                 [054] (118)
0C72  00                 [055] (119)
0C73  00                 [056] (119)
0C74  68                 [057] (119)
0C75  00                 [058] (120)
0C76  00                 [059] (120)
0C77  00                 [060] (123)
0C78  68                 [061] (123)
0C79  00                 [062] (124)
0C7A  00                 [063] (124)
0C7B  00                 [064] (124)
0C7C  68                 [065] (124)
0C7D  00                 [066] (124)
0C7E  00                 [067] (124)
0C7F  00                 [068] (124)
0C80  68                 [069] (124)
0C81  00                 [070] (124)
0C82  00                 [071] (124)
0C83  00                 [072] (124)
0C84  6A                 [073] (124)
0C85  00                 [074] (124)
0C86  00                 [075] (126)
0C87  00                 [076] (126)
0C88  6B                 [077] (126)
0C89  00                 [078] (126)
0C8A  00                 [079] (126)
0C8B  00                 [080] (127)
0C8C  6B                 [081] (127)
0C8D  00                 [082] (127)
0C8E  00                 [083] (-128)
0C8F  00                 [084] (-128)
0C90  6B                 [085] (-128)
0C91  00                 [086] (-128)
0C92  00                 [087] (-128)
0C93  00                 [088] (-127)
0C94  6C                 [089] (-127)
0C95  00                 [090] (-127)
0C96  00                 [091] (-127)
0C97  00                 [092] (-127)
0C98  6C                 [093] (-127)
0C99  00                 [094] (-127)
0C9A  00                 [095] (-127)
0C9B  00                 [096] (-126)
0C9C  6C                 [097] (-126)
0C9D  00                 [098] (-126)
0C9E  00                 [099] (-126)
0C9F  00                 [100] (-126)
0CA0  6C                 [101] (-125)
0CA1  00                 [102] (-125)
0CA2  00                 [103] (-125)
0CA3  00                 [104] (-125)
0CA4  6D                 [105] (-124)
0CA5  00                 [106] (-124)
0CA6  00                 [107] (-124)
0CA7  00                 [108] (-124)
0CA8  6D                 [109] (-123)
0CA9  00                 [110] (-123)
0CAA  00                 [111] (-123)
0CAB  00                 [112] (-123)
0CAC  6D                 [113] (-123)
0CAD  00                 [114] (-123)
0CAE  00                 [115] (-122)
0CAF  00                 [116] (-122)
0CB0  6D                 [117] (-121)
0CB1  00                 [118] (-121)
0CB2  00                 [119] (-120)
0CB3  00                 [120] (-120)
0CB4  6E                 [121] (-120)
0CB5  00                 [122] (-120)
0CB6  00                 [123] (-120)
0CB7  00                 [124] (-120)
0CB8  6E                 [125] (-120)
0CB9  00                 [126] (-120)
0CBA  00                 [127] (-120)
0CBB  00                 [128] (-120)
0CBC  6F                 [129] (-119)
0CBD  00                 [130] (-119)
0CBE  00                 [131] (-119)
0CBF  00                 [132] (-119)
0CC0  6C                 [133] (-119)
0CC1  00                 [134] (-119)
0CC2  00                 [135] (-118)
0CC3  00                 [136] (-118)
0CC4  72                 [137] (-118)
0CC5  00                 [138] (-118)
0CC6  00                 [139] (-118)
0CC7  00                 [140] (-118)
0CC8  72                 [141] (-115)
0CC9  00                 [142] (-115)
0CCA  00                 [143] (-115)
0CCB  00                 [144] (-115)
0CCC  72                 [145] (-115)
0CCD  00                 [146] (-115)
0CCE  00                 [147] (-114)
0CCF  00                 [148] (-114)
0CD0  72                 [149] (-114)
0CD1  00                 [150] (-112)
0CD2  00                 [151] (-112)
0CD3  00                 [152] (-112)
0CD4  73                 [153] (-112)
0CD5  00                 [154] (-112)
0CD6  00                 [155] (-112)
0CD7  00                 [156] (-110)
0CD8  73                 [157] (-110)
0CD9  00                 [158] (-110)
0CDA  00                 [159] (-110)
0CDB  00                 [160] (-110)
0CDC  73                 [161] (-110)
0CDD  00                 [162] (-110)
0CDE  00                 [163] (-110)
0CDF  00                 [164] (-110)
0CE0  75                 [165] (-109)
0CE1  00                 [166] (-109)
0CE2  00                 [167] (-109)
0CE3  00                 [168] (-109)
0CE4  75                 [169] (-108)
0CE5  00                 [170] (-108)
0CE6  00                 [171] (-108)
0CE7  00                 [172] (-107)
0CE8  75                 [173] (-107)
0CE9  00                 [174] (-107)
0CEA  00                 [175] (-107)
0CEB  00                 [176] (-107)
0CEC  75                 [177] (-107)
0CED  00                 [178] (-106)
0CEE  00                 [179] (-106)
0CEF  00                 [180] (-106)
0CF0  76                 [181] (-104)
0CF1  00                 [182] (-104)
0CF2  00                 [183] (-104)
0CF3  00                 [184] (-103)
0CF4  76                 [185] (-103)
0CF5  00                 [186] (-101)
                         * locals:
0F24  00                 sizelocvars (0)
                         * upvalues:
0F25  00                 sizeupvalues (0)
                         ** end of function **

                         
0F26                     ** function [4] definition (level 2)
                         ** start of function **
0F26  00                 string size (0)
                         source name: (none)
0F28  01                 line defined (157)
0F29  FE                 last line defined (254)
0F2A  01                 nups (7)
0F2B  07                 numparams (0)
0F2C  00                 is_vararg (0)
0F2D  00                 maxstacksize (30)
                         * code:
0F30  02                 sizecode (269)
0F31  1D000000           [001] getglobal  0   0        ; gRegion
0F35  24404000           [002] self       0   0   257  ; -1280573509
0F39  22800001           [003] call       0   2   2  
0F3D  5D800000           [004] getglobal  1   2        ; 2144646525
0F41  99C00000           [005] loadk      2   3        ; 0
0F45  CA000000           [006] len        3   0      
0F49  62808001           [007] call       1   3   2  
0F4D  86000001           [008] loadnil    2   2      
0F51  DD000100           [009] getglobal  3   4        ; 1074689893
0F55  0E410000           [010] gettable   4   0   1  
0F59  E2800001           [011] call       3   2   2  
0F5D  D8400000           [012] test       3       1    ; to [14] if false
0F61  1AC00080           [013] jmp        4            ; to [18]
0F65  CE400000           [014] gettable   3   0   1  
0F69  E440C101           [015] self       3   3   261  ; -2135866365
0F6D  E2800001           [016] call       3   2   2  
0F71  92008001           [017] move       2   3      
0F75  DD800100           [018] getglobal  3   6        ; gGameRules
0F79  24C1C101           [019] self       4   3   263  ; 589574755
0F7D  93010000           [020] getupval   6   0      
0F81  22818001           [021] call       4   3   2  
0F85  53018000           [022] getupval   5   1      
0F89  58010000           [023] test       5       0    ; to [25] if true
0F8D  1A000080           [024] jmp        1            ; to [26]
0F91  13010001           [025] getupval   4   2      
0F95  5D010100           [026] getglobal  5   4        ; 1074689893
0F99  92010002           [027] move       6   4      
0F9D  62810001           [028] call       5   2   2  
0FA1  58010000           [029] test       5       0    ; to [31] if true
0FA5  1A000180           [030] jmp        5            ; to [36]
0FA9  5D010200           [031] getglobal  5   8        ; -1817107093
0FAD  99410200           [032] loadk      6   9        ; "COLLECTOR: failed reqs: bailing on spawn"
0FB1  62410001           [033] call       5   2   1  
0FB5  1E008000           [034] return     0   1      
0FB9  1A400280           [035] jmp        10           ; to [46]
0FBD  57010000           [036] loadbool   5   0   0    ; false
fail op	8
0FC1  48010000           [037] setupval   5   0      
0FC5  5D810200           [038] getglobal  5   10       ; _T
0FC9  4EC1C202           [039] gettable   5   5   267  ; "RareSpawnTRes"
fail op	35
0FCD  63008102           [040] close      1  
0FD1  1A800080           [041] jmp        3            ; to [45]
0FD5  5D810200           [042] getglobal  5   10       ; _T
0FD9  4C018185           [043] settable   5   267 4    ; "RareSpawnTRes"
0FDD  1A000080           [044] jmp        1            ; to [46]
0FE1  1E008000           [045] return     0   1      
0FE5  6401C301           [046] self       5   3   268  ; -687006145
0FE9  D2010002           [047] move       7   4      
0FED  62418001           [048] call       5   3   1  
0FF1  5D010000           [049] getglobal  5   0        ; gRegion
0FF5  6441C302           [050] self       5   5   269  ; -774964848
0FF9  62810001           [051] call       5   2   2  
0FFD  A481C302           [052] self       6   5   270  ; 537471347
1001  A2810001           [053] call       6   2   2  
1005  DD810200           [054] getglobal  7   10       ; _T
1009  CEC1C303           [055] gettable   7   7   271  ; "faction"
fail op	35
100D  2300C403           [056] close      0  
1011  1AC00080           [057] jmp        4            ; to [62]
1015  24424403           [058] self       8   6   273  ; -2031737093
1019  99820400           [059] loadk      10  18       ; 0
101D  22828001           [060] call       8   3   2  
1021  D2010004           [061] move       7   8      
1025  24C2C402           [062] self       8   5   275  ; 1064754696
1029  92020002           [063] move       10  4      
102D  22828001           [064] call       8   3   2  
fail op	35
1031  63008203           [065] close      1  
1035  1AC00180           [066] jmp        8            ; to [75]
1039  53028000           [067] getupval   9   1      
103D  58420000           [068] test       9       1    ; to [70] if false
1041  1A000180           [069] jmp        5            ; to [75]
1045  5D020200           [070] getglobal  9   8        ; -1817107093
1049  99020500           [071] loadk      10  20       ; "COLLECTOR: target faction is not enemy, abort spawn"
104D  62420001           [072] call       9   2   1  
1051  57020000           [073] loadbool   9   0   0    ; false
1055  5E020001           [074] return     9   2      
1059  59C20000           [075] loadk      9   3        ; 0
105D  9D020000           [076] getglobal  10  0        ; gRegion
1061  A4424505           [077] self       10  10  277  ; 1224466847
1065  A2820001           [078] call       10  2   2  
1069  D9C20000           [079] loadk      11  3        ; 0
106D  0A030005           [080] len        12  10     
1071  59C30000           [081] loadk      13  3        ; 0
1075  D0820180           [082] forprep    11  7        ; to [90]
1079  D3038001           [083] getupval   15  3      
107D  0E840305           [084] gettable   16  10  14 
1081  52040003           [085] move       17  6      
1085  E2838001           [086] call       15  3   2  
fail op	21
1089  15C08304           [087] concat     0   9   15 
108D  1A000080           [088] jmp        1            ; to [90]
1091  52028007           [089] move       9   15     
1095  D4C2FD7F           [090] forloop    11  -8       ; to [83] if loop
1099  24844503           [091] self       16  6   278  ; -354168336
109D  22840001           [092] call       16  2   2  
fail op	21
10A1  15008404           [093] concat     0   9   16 
10A5  1A800080           [094] jmp        3            ; to [98]
10A9  24844503           [095] self       16  6   278  ; -354168336
10AD  22840001           [096] call       16  2   2  
10B1  52020008           [097] move       9   16     
10B5  1D840100           [098] getglobal  16  6        ; gGameRules
10B9  24C44508           [099] self       16  16  279  ; -1201441975
10BD  22840001           [100] call       16  2   2  
10C1  0E044608           [101] gettable   16  16  280  ; "maxEnemyLevel"
10C5  5D040000           [102] getglobal  17  0        ; gRegion
10C9  6444C308           [103] self       17  17  269  ; -774964848
10CD  62840001           [104] call       17  2   2  
10D1  6444C608           [105] self       17  17  281  ; -755937253
10D5  DD840200           [106] getglobal  19  10       ; _T
10D9  CEC4C209           [107] gettable   19  19  267  ; "RareSpawnTRes"
10DD  62848001           [108] call       17  3   2  
fail op	21
10E1  15400408           [109] concat     0   16  17 
10E5  1AC00180           [110] jmp        8            ; to [119]
10E9  53048000           [111] getupval   17  1      
10ED  58440000           [112] test       17      1    ; to [114] if false
10F1  1A000180           [113] jmp        5            ; to [119]
10F5  5D040200           [114] getglobal  17  8        ; -1817107093
10F9  99840600           [115] loadk      18  26       ; "COLLECTOR: mission max level too low to spawn collector target"
10FD  62440001           [116] call       17  2   1  
1101  57040000           [117] loadbool   17  0   0    ; false
1105  5E040001           [118] return     17  2      
1109  57040000           [119] loadbool   17  0   0    ; false
110D  86040009           [120] loadnil    18  18     
1111  DDC40600           [121] getglobal  19  27       ; gFlashMgr
1115  E404C709           [122] self       19  19  284  ; 277467219
1119  59450700           [123] loadk      21  29       ; "LotusGameRules.TrapTesting"
111D  E2848001           [124] call       19  3   2  
1121  D8440000           [125] test       19      1    ; to [127] if false
1125  1A400080           [126] jmp        2            ; to [129]
1129  58040000           [127] test       17      0    ; to [129] if true
112D  1A000280           [128] jmp        9            ; to [138]
1131  E4844703           [129] self       19  6   286  ; -2120903900
1135  52050002           [130] move       21  4      
1139  92050001           [131] move       22  2      
113D  D9C50700           [132] loadk      23  31       ; 0
1141  12068003           [133] move       24  7      
1145  52068004           [134] move       25  9      
1149  E2848003           [135] call       19  7   2  
114D  92048009           [136] move       18  19     
1151  1AC00380           [137] jmp        16           ; to [154]
1155  DD040000           [138] getglobal  19  0        ; gRegion
1159  E444C309           [139] self       19  19  269  ; -774964848
115D  E2840001           [140] call       19  2   2  
1161  E404C809           [141] self       19  19  288  ; 436282865
1165  52050002           [142] move       21  4      
1169  9D450800           [143] getglobal  22  33       ; spawnPoint
116D  A485480B           [144] self       22  22  290  ; 1839670529
1171  A2850001           [145] call       22  2   2  
1175  DD450800           [146] getglobal  23  33       ; spawnPoint
1179  E4C5C80B           [147] self       23  23  291  ; -231049143
117D  E2850001           [148] call       23  2   2  
1181  12068003           [149] move       24  7      
1185  52068004           [150] move       25  9      
1189  97068000           [151] loadbool   26  1   0    ; true
118D  E2840004           [152] call       19  8   2  
1191  92048009           [153] move       18  19     
1195  DD040100           [154] getglobal  19  4        ; 1074689893
1199  12050009           [155] move       20  18     
119D  E2840001           [156] call       19  2   2  
11A1  D8440000           [157] test       19      1    ; to [159] if false
11A5  1A001A80           [158] jmp        105          ; to [264]
11A9  E4444109           [159] self       19  18  261  ; -2135866365
11AD  E2840001           [160] call       19  2   2  
fail op	8
11B1  C8040002           [161] setupval   19  4      
11B5  D3040002           [162] getupval   19  4      
11B9  E404C909           [163] self       19  19  292  ; -372871396
11BD  5D450900           [164] getglobal  21  37       ; enhancement
11C1  97050000           [165] loadbool   22  0   0    ; false
11C5  E2440002           [166] call       19  4   1  
11C9  D3048002           [167] getupval   19  5      
11CD  E2448000           [168] call       19  1   1  
11D1  DD840900           [169] getglobal  19  38       ; -421772368
11D5  13050002           [170] getupval   20  4      
11D9  24C5490A           [171] self       20  20  295  ; -1334436347
11DD  22850001           [172] call       20  2   2  
11E1  24054A0A           [173] self       20  20  296  ; 1590141906
11E5  22850001           [174] call       20  2   2  
11E9  57058000           [175] loadbool   21  1   0    ; true
11ED  E2848001           [176] call       19  3   2  
11F1  1D850900           [177] getglobal  20  38       ; -421772368
11F5  5D450A00           [178] getglobal  21  41       ; enhancementLocTag
11F9  8B450000           [179] newtable   22  0   1    ; array=0, hash=1
11FD  8CC50495           [180] settable   22  298 19   ; "ENEMY"
1201  22858001           [181] call       20  3   2  
1205  53050002           [182] getupval   21  4      
1209  64C5CA0A           [183] self       21  21  299  ; -786839083
120D  D205000A           [184] move       23  20     
1211  62458001           [185] call       21  3   1  
1215  53050002           [186] getupval   21  4      
1219  6405CB0A           [187] self       21  21  300  ; 1925318584
121D  D7058000           [188] loadbool   23  1   0    ; true
1221  62458001           [189] call       21  3   1  
1225  53050002           [190] getupval   21  4      
1229  6445CB0A           [191] self       21  21  301  ; -971287385
122D  DD850B00           [192] getglobal  23  46       ; -332969190
1231  19C60B00           [193] loadk      24  47       ; "CollectorTarget"
1235  E2050001           [194] call       23  2   0  
1239  62450000           [195] call       21  0   1  
123D  64454109           [196] self       21  18  261  ; -2135866365
1241  62850001           [197] call       21  2   2  
1245  A485C80A           [198] self       22  21  290  ; 1839670529
1249  A2850001           [199] call       22  2   2  
124D  E4454109           [200] self       23  18  261  ; -2135866365
1251  E2850001           [201] call       23  2   2  
1255  E405CC0B           [202] self       23  23  304  ; -1265336035
1259  5D460C00           [203] getglobal  25  49       ; runAwayAgent
125D  9D860B00           [204] getglobal  26  46       ; -332969190
1261  D9860C00           [205] loadk      27  50       ; "Rare Spawn"
1265  A2860001           [206] call       26  2   2  
1269  D2068003           [207] move       27  7      
126D  17070000           [208] loadbool   28  0   0    ; false
1271  E2450003           [209] call       23  6   1  
1275  DD050100           [210] getglobal  23  4        ; 1074689893
1279  24C6CC0A           [211] self       24  21  307  ; -1411785325
127D  22060001           [212] call       24  2   0  
1281  E2850000           [213] call       23  0   2  
1285  D8450000           [214] test       23      1    ; to [216] if false
1289  1A000180           [215] jmp        5            ; to [221]
128D  E4C5CC0A           [216] self       23  21  307  ; -1411785325
1291  E2850001           [217] call       23  2   2  
1295  E405CD0B           [218] self       23  23  308  ; -245162816
1299  52060002           [219] move       25  4      
129D  E2458001           [220] call       23  3   1  
12A1  DD050100           [221] getglobal  23  4        ; 1074689893
12A5  1D860200           [222] getglobal  24  10       ; _T
12A9  0E464D0C           [223] gettable   24  24  309  ; "rareSpawnEnhancements"
12AD  E2850001           [224] call       23  2   2  
12B1  D8050000           [225] test       23      0    ; to [227] if true
12B5  1A800080           [226] jmp        3            ; to [230]
12B9  DD850200           [227] getglobal  23  10       ; _T
12BD  0B060000           [228] newtable   24  0   0    ; array=0, hash=0
12C1  CC05869A           [229] settable   23  309 24   ; "rareSpawnEnhancements"
12C5  DD850200           [230] getglobal  23  10       ; _T
12C9  CE45CD0B           [231] gettable   23  23  309  ; "rareSpawnEnhancements"
12CD  2486CD0A           [232] self       24  21  310  ; -605089866
12D1  22860001           [233] call       24  2   2  
12D5  5D460900           [234] getglobal  25  37       ; enhancement
12D9  CC45060C           [235] settable   23  24  25 
12DD  DD050200           [236] getglobal  23  8        ; -1817107093
12E1  19C60D00           [237] loadk      24  55       ; "COLLECTOR: target spawned at x:"
12E5  4E064E0B           [238] gettable   25  22  312  ; "x"
12E9  99460E00           [239] loadk      26  57       ; " y:"
12ED  CE864E0B           [240] gettable   27  22  314  ; "y"
12F1  19C70E00           [241] loadk      28  59       ; " z"
12F5  4E074F0B           [242] gettable   29  22  316  ; "z"
12F9  0246070C           [243] concat     24  24  29 
12FD  E2450001           [244] call       23  2   1  
1301  E445CF01           [245] self       23  3   317  ; -872656598
1305  5D460800           [246] getglobal  25  33       ; spawnPoint
1309  6486C80C           [247] self       25  25  290  ; 1839670529
130D  62860001           [248] call       25  2   2  
1311  93060002           [249] getupval   26  4      
1315  E2450002           [250] call       23  4   1  
1319  E485CF01           [251] self       23  3   318  ; -867351310
131D  53060002           [252] getupval   25  4      
1321  E2458001           [253] call       23  3   1  
1325  DDC50F00           [254] getglobal  23  63       ; transmissionTargetSpawned
1329  D8050000           [255] test       23      0    ; to [257] if true
132D  1AC00080           [256] jmp        4            ; to [261]
1331  D3050003           [257] getupval   23  6      
1335  1DC60F00           [258] getglobal  24  63       ; transmissionTargetSpawned
1339  57068000           [259] loadbool   25  1   0    ; true
133D  E2458001           [260] call       23  3   1  
1341  D7058000           [261] loadbool   23  1   0    ; true
1345  DE050001           [262] return     23  2      
1349  1A000180           [263] jmp        5            ; to [269]
134D  DD050200           [264] getglobal  23  8        ; -1817107093
1351  19061000           [265] loadk      24  64       ; "COLLECTOR: agent creation failed!"
1355  E2450001           [266] call       23  2   1  
1359  D7050000           [267] loadbool   23  0   0    ; false
135D  DE050001           [268] return     23  2      
1361  1E008000           [269] return     0   1      
                         * constants:
1365  41                 sizek (65)
1366  04                 const type 4
1367  08                 string size (8)
1368  67526567696F6E00   "gRegion\0"
                         const [0]: "gRegion"
1370  01                 const type 3
1371  BBFFABB3           const [1]: (-1280573509)
1375  01                 const type 3
1376  7DB5D47F           const [2]: (2144646525)
137A  03                 const type 3
137B  0000803F           const [3]: (0)
137F  01                 const type 3
1380  65770E40           const [4]: (1074689893)
1384  01                 const type 3
1385  0344B180           const [5]: (-2135866365)
1389  04                 const type 4
138A  0B                 string size (11)
138B  6747616D6552756C+  "gGameRul"
1393  657300             "es\0"
                         const [6]: "gGameRules"
1396  01                 const type 3
1397  63322423           const [7]: (589574755)
139B  01                 const type 3
139C  6B25B193           const [8]: (-1817107093)
13A0  04                 const type 4
13A1  29                 string size (41)
13A2  434F4C4C4543544F+  "COLLECTO"
13AA  523A206661696C65+  "R: faile"
13B2  6420726571733A20+  "d reqs: "
13BA  6261696C696E6720+  "bailing "
13C2  6F6E20737061776E+  "on spawn"
13CA  00                 "\0"
                         const [9]: "COLLECTOR: failed reqs: bailing on spawn"
13CB  04                 const type 4
13CC  03                 string size (3)
13CD  5F5400             "_T\0"
                         const [10]: "_T"
13D0  04                 const type 4
13D1  0E                 string size (14)
13D2  5261726553706177+  "RareSpaw"
13DA  6E5452657300       "nTRes\0"
                         const [11]: "RareSpawnTRes"
13E0  01                 const type 3
13E1  3F1E0DD7           const [12]: (-687006145)
13E5  01                 const type 3
13E6  90F9CED1           const [13]: (-774964848)
13EA  01                 const type 3
13EB  73290920           const [14]: (537471347)
13EF  04                 const type 4
13F0  08                 string size (8)
13F1  66616374696F6E00   "faction\0"
                         const [15]: "faction"
13F9  00                 const type 0
                         const [16]: nil
13FA  01                 const type 3
13FB  FB26E686           const [17]: (-2031737093)
13FF  03                 const type 3
1400  00000000           const [18]: (0)
1404  01                 const type 3
1405  08DE763F           const [19]: (1064754696)
1409  04                 const type 4
140A  34                 string size (52)
140B  434F4C4C4543544F+  "COLLECTO"
1413  523A207461726765+  "R: targe"
141B  742066616374696F+  "t factio"
1423  6E206973206E6F74+  "n is not"
142B  20656E656D792C20+  " enemy, "
1433  61626F7274207370+  "abort sp"
143B  61776E00           "awn\0"
                         const [20]: "COLLECTOR: target faction is not enemy, abort spawn"
143F  01                 const type 3
1440  9FE1FB48           const [21]: (1224466847)
1444  01                 const type 3
1445  F0D1E3EA           const [22]: (-354168336)
1449  01                 const type 3
144A  497363B8           const [23]: (-1201441975)
144E  04                 const type 4
144F  0E                 string size (14)
1450  6D6178456E656D79+  "maxEnemy"
1458  4C6576656C00       "Level\0"
                         const [24]: "maxEnemyLevel"
145E  01                 const type 3
145F  1B50F1D2           const [25]: (-755937253)
1463  04                 const type 4
1464  3F                 string size (63)
1465  434F4C4C4543544F+  "COLLECTO"
146D  523A206D69737369+  "R: missi"
1475  6F6E206D6178206C+  "on max l"
147D  6576656C20746F6F+  "evel too"
1485  206C6F7720746F20+  " low to "
148D  737061776E20636F+  "spawn co"
1495  6C6C6563746F7220+  "llector "
149D  74617267657400     "target\0"
                         const [26]: "COLLECTOR: mission max level too low to spawn collector target"
14A4  04                 const type 4
14A5  0A                 string size (10)
14A6  67466C6173684D67+  "gFlashMg"
14AE  7200               "r\0"
                         const [27]: "gFlashMgr"
14B0  01                 const type 3
14B1  53D08910           const [28]: (277467219)
14B5  04                 const type 4
14B6  1B                 string size (27)
14B7  4C6F74757347616D+  "LotusGam"
14BF  6552756C65732E54+  "eRules.T"
14C7  7261705465737469+  "rapTesti"
14CF  6E6700             "ng\0"
                         const [29]: "LotusGameRules.TrapTesting"
14D2  01                 const type 3
14D3  24939581           const [30]: (-2120903900)
14D7  03                 const type 3
14D8  0000A041           const [31]: (0)
14DC  01                 const type 3
14DD  F125011A           const [32]: (436282865)
14E1  04                 const type 4
14E2  0B                 string size (11)
14E3  737061776E506F69+  "spawnPoi"
14EB  6E7400             "nt\0"
                         const [33]: "spawnPoint"
14EE  01                 const type 3
14EF  0125A76D           const [34]: (1839670529)
14F3  01                 const type 3
14F4  49783AF2           const [35]: (-231049143)
14F8  01                 const type 3
14F9  1C6FC6E9           const [36]: (-372871396)
14FD  04                 const type 4
14FE  0C                 string size (12)
14FF  656E68616E63656D+  "enhancem"
1507  656E7400           "ent\0"
                         const [37]: "enhancement"
150B  01                 const type 3
150C  B043DCE6           const [38]: (-421772368)
1510  01                 const type 3
1511  051E76B0           const [39]: (-1334436347)
1515  01                 const type 3
1516  D2A3C75E           const [40]: (1590141906)
151A  04                 const type 4
151B  12                 string size (18)
151C  656E68616E63656D+  "enhancem"
1524  656E744C6F635461+  "entLocTa"
152C  6700               "g\0"
                         const [41]: "enhancementLocTag"
152E  04                 const type 4
152F  06                 string size (6)
1530  454E454D5900       "ENEMY\0"
                         const [42]: "ENEMY"
1536  01                 const type 3
1537  D5C919D1           const [43]: (-786839083)
153B  01                 const type 3
153C  B807C272           const [44]: (1925318584)
1540  01                 const type 3
1541  A7541BC6           const [45]: (-971287385)
1545  01                 const type 3
1546  1A4B27EC           const [46]: (-332969190)
154A  04                 const type 4
154B  10                 string size (16)
154C  436F6C6C6563746F+  "Collecto"
1554  7254617267657400   "rTarget\0"
                         const [47]: "CollectorTarget"
155C  01                 const type 3
155D  1D8194B4           const [48]: (-1265336035)
1561  04                 const type 4
1562  0D                 string size (13)
1563  72756E4177617941+  "runAwayA"
156B  67656E7400         "gent\0"
                         const [49]: "runAwayAgent"
1570  04                 const type 4
1571  0B                 string size (11)
1572  5261726520537061+  "Rare Spa"
157A  776E00             "wn\0"
                         const [50]: "Rare Spawn"
157D  01                 const type 3
157E  93DDD9AB           const [51]: (-1411785325)
1582  01                 const type 3
1583  C01C63F1           const [52]: (-245162816)
1587  04                 const type 4
1588  16                 string size (22)
1589  7261726553706177+  "rareSpaw"
1591  6E456E68616E6365+  "nEnhance"
1599  6D656E747300       "ments\0"
                         const [53]: "rareSpawnEnhancements"
159F  01                 const type 3
15A0  B60FEFDB           const [54]: (-605089866)
15A4  04                 const type 4
15A5  20                 string size (32)
15A6  434F4C4C4543544F+  "COLLECTO"
15AE  523A207461726765+  "R: targe"
15B6  7420737061776E65+  "t spawne"
15BE  6420617420783A00   "d at x:\0"
                         const [55]: "COLLECTOR: target spawned at x:"
15C6  04                 const type 4
15C7  02                 string size (2)
15C8  7800               "x\0"
                         const [56]: "x"
15CA  04                 const type 4
15CB  04                 string size (4)
15CC  20793A00           " y:\0"
                         const [57]: " y:"
15D0  04                 const type 4
15D1  02                 string size (2)
15D2  7900               "y\0"
                         const [58]: "y"
15D4  04                 const type 4
15D5  03                 string size (3)
15D6  207A00             " z\0"
                         const [59]: " z"
15D9  04                 const type 4
15DA  02                 string size (2)
15DB  7A00               "z\0"
                         const [60]: "z"
15DD  01                 const type 3
15DE  2A51FCCB           const [61]: (-872656598)
15E2  01                 const type 3
15E3  F2444DCC           const [62]: (-867351310)
15E7  04                 const type 4
15E8  1A                 string size (26)
15E9  7472616E736D6973+  "transmis"
15F1  73696F6E54617267+  "sionTarg"
15F9  6574537061776E65+  "etSpawne"
1601  6400               "d\0"
                         const [63]: "transmissionTargetSpawned"
1603  04                 const type 4
1604  22                 string size (34)
1605  434F4C4C4543544F+  "COLLECTO"
160D  523A206167656E74+  "R: agent"
1615  206372656174696F+  " creatio"
161D  6E206661696C6564+  "n failed"
1625  2100               "!\0"
                         const [64]: "COLLECTOR: agent creation failed!"
                         * functions:
1627  00                 sizep (0)
                         * lines:
1629  02                 sizelineinfo (269)
                         [pc] (line)
162A  9E                 [001] (-98)
162B  00                 [002] (-98)
162C  00                 [003] (-98)
162D  00                 [004] (-96)
162E  9E                 [005] (-96)
162F  00                 [006] (-96)
1630  00                 [007] (-96)
1631  00                 [008] (-95)
1632  9E                 [009] (-94)
1633  00                 [010] (-94)
1634  00                 [011] (-94)
1635  00                 [012] (-94)
1636  A0                 [013] (-94)
1637  00                 [014] (-93)
1638  00                 [015] (-93)
1639  00                 [016] (-93)
163A  A0                 [017] (-93)
163B  00                 [018] (-91)
163C  00                 [019] (-90)
163D  00                 [020] (-90)
163E  A0                 [021] (-90)
163F  00                 [022] (-88)
1640  00                 [023] (-88)
1641  00                 [024] (-88)
1642  A0                 [025] (-87)
1643  00                 [026] (-84)
1644  00                 [027] (-84)
1645  00                 [028] (-84)
1646  A1                 [029] (-84)
1647  00                 [030] (-84)
1648  00                 [031] (-83)
1649  00                 [032] (-83)
164A  A2                 [033] (-83)
164B  00                 [034] (-82)
164C  00                 [035] (-82)
164D  00                 [036] (-80)
164E  A2                 [037] (-80)
164F  00                 [038] (-79)
1650  00                 [039] (-79)
1651  00                 [040] (-79)
1652  A2                 [041] (-79)
1653  00                 [042] (-78)
1654  00                 [043] (-78)
1655  00                 [044] (-78)
1656  A2                 [045] (-76)
1657  00                 [046] (-73)
1658  00                 [047] (-73)
1659  00                 [048] (-73)
165A  A2                 [049] (-72)
165B  00                 [050] (-72)
165C  00                 [051] (-72)
165D  00                 [052] (-71)
165E  A3                 [053] (-71)
165F  00                 [054] (-70)
1660  00                 [055] (-70)
1661  00                 [056] (-69)
1662  A3                 [057] (-69)
1663  00                 [058] (-68)
1664  00                 [059] (-68)
1665  00                 [060] (-68)
1666  A3                 [061] (-68)
1667  00                 [062] (-66)
1668  00                 [063] (-66)
1669  00                 [064] (-66)
166A  A3                 [065] (-65)
166B  00                 [066] (-65)
166C  00                 [067] (-65)
166D  00                 [068] (-65)
166E  A5                 [069] (-65)
166F  00                 [070] (-64)
1670  00                 [071] (-64)
1671  00                 [072] (-64)
1672  A6                 [073] (-63)
1673  00                 [074] (-63)
1674  00                 [075] (-60)
1675  00                 [076] (-59)
1676  A6                 [077] (-59)
1677  00                 [078] (-59)
1678  00                 [079] (-58)
1679  00                 [080] (-58)
167A  A6                 [081] (-58)
167B  00                 [082] (-58)
167C  00                 [083] (-57)
167D  00                 [084] (-57)
167E  A8                 [085] (-57)
167F  00                 [086] (-57)
1680  00                 [087] (-56)
1681  00                 [088] (-56)
1682  A8                 [089] (-55)
1683  00                 [090] (-58)
1684  00                 [091] (-52)
1685  00                 [092] (-52)
1686  A8                 [093] (-52)
1687  00                 [094] (-52)
1688  00                 [095] (-51)
1689  00                 [096] (-51)
168A  A9                 [097] (-51)
168B  00                 [098] (-49)
168C  00                 [099] (-49)
168D  00                 [100] (-49)
168E  AC                 [101] (-49)
168F  00                 [102] (-48)
1690  00                 [103] (-48)
1691  00                 [104] (-48)
1692  AC                 [105] (-48)
1693  00                 [106] (-48)
1694  00                 [107] (-48)
1695  00                 [108] (-48)
1696  AC                 [109] (-48)
1697  00                 [110] (-48)
1698  00                 [111] (-48)
1699  00                 [112] (-48)
169A  AC                 [113] (-48)
169B  00                 [114] (-47)
169C  00                 [115] (-47)
169D  00                 [116] (-47)
169E  AC                 [117] (-46)
169F  00                 [118] (-46)
16A0  00                 [119] (-43)
16A1  00                 [120] (-42)
16A2  AD                 [121] (-41)
16A3  00                 [122] (-41)
16A4  00                 [123] (-41)
16A5  00                 [124] (-41)
16A6  AD                 [125] (-41)
16A7  00                 [126] (-41)
16A8  00                 [127] (-41)
16A9  00                 [128] (-41)
16AA  AD                 [129] (-40)
16AB  00                 [130] (-40)
16AC  00                 [131] (-40)
16AD  00                 [132] (-40)
16AE  AE                 [133] (-40)
16AF  00                 [134] (-40)
16B0  00                 [135] (-40)
16B1  00                 [136] (-40)
16B2  AE                 [137] (-40)
16B3  00                 [138] (-38)
16B4  00                 [139] (-38)
16B5  00                 [140] (-38)
16B6  B0                 [141] (-38)
16B7  00                 [142] (-38)
16B8  00                 [143] (-38)
16B9  00                 [144] (-38)
16BA  B0                 [145] (-38)
16BB  00                 [146] (-38)
16BC  00                 [147] (-38)
16BD  00                 [148] (-38)
16BE  B1                 [149] (-38)
16BF  00                 [150] (-38)
16C0  00                 [151] (-38)
16C1  00                 [152] (-38)
16C2  B1                 [153] (-38)
16C3  00                 [154] (-35)
16C4  00                 [155] (-35)
16C5  00                 [156] (-35)
16C6  B1                 [157] (-35)
16C7  00                 [158] (-35)
16C8  00                 [159] (-34)
16C9  00                 [160] (-34)
16CA  B1                 [161] (-34)
16CB  00                 [162] (-33)
16CC  00                 [163] (-33)
16CD  00                 [164] (-33)
16CE  B2                 [165] (-33)
16CF  00                 [166] (-33)
16D0  00                 [167] (-31)
16D1  00                 [168] (-31)
16D2  B2                 [169] (-30)
16D3  00                 [170] (-30)
16D4  00                 [171] (-30)
16D5  00                 [172] (-30)
16D6  B2                 [173] (-30)
16D7  00                 [174] (-30)
16D8  00                 [175] (-30)
16D9  00                 [176] (-30)
16DA  B4                 [177] (-29)
16DB  00                 [178] (-29)
16DC  00                 [179] (-29)
16DD  00                 [180] (-29)
16DE  B7                 [181] (-29)
16DF  00                 [182] (-28)
16E0  00                 [183] (-28)
16E1  00                 [184] (-28)
16E2  B7                 [185] (-28)
16E3  00                 [186] (-27)
16E4  00                 [187] (-27)
16E5  00                 [188] (-27)
16E6  B7                 [189] (-27)
16E7  00                 [190] (-26)
16E8  00                 [191] (-26)
16E9  00                 [192] (-26)
16EA  B8                 [193] (-26)
16EB  00                 [194] (-26)
16EC  00                 [195] (-26)
16ED  00                 [196] (-25)
16EE  B8                 [197] (-25)
16EF  00                 [198] (-24)
16F0  00                 [199] (-24)
16F1  00                 [200] (-23)
16F2  B8                 [201] (-23)
16F3  00                 [202] (-23)
16F4  00                 [203] (-23)
16F5  00                 [204] (-23)
16F6  B9                 [205] (-23)
16F7  00                 [206] (-23)
16F8  00                 [207] (-23)
16F9  00                 [208] (-23)
16FA  B9                 [209] (-23)
16FB  00                 [210] (-22)
16FC  00                 [211] (-22)
16FD  00                 [212] (-22)
16FE  BA                 [213] (-22)
16FF  00                 [214] (-22)
1700  00                 [215] (-22)
1701  00                 [216] (-21)
1702  BA                 [217] (-21)
1703  00                 [218] (-21)
1704  00                 [219] (-21)
1705  00                 [220] (-21)
1706  BB                 [221] (-18)
1707  00                 [222] (-18)
1708  00                 [223] (-18)
1709  00                 [224] (-18)
170A  BB                 [225] (-18)
170B  00                 [226] (-18)
170C  00                 [227] (-17)
170D  00                 [228] (-17)
170E  BC                 [229] (-17)
170F  00                 [230] (-15)
1710  00                 [231] (-15)
1711  00                 [232] (-15)
1712  BC                 [233] (-15)
1713  00                 [234] (-15)
1714  00                 [235] (-15)
1715  00                 [236] (-13)
1716  BC                 [237] (-13)
1717  00                 [238] (-13)
1718  00                 [239] (-13)
1719  00                 [240] (-13)
171A  BC                 [241] (-13)
171B  00                 [242] (-13)
171C  00                 [243] (-13)
171D  00                 [244] (-13)
171E  BE                 [245] (-12)
171F  00                 [246] (-12)
1720  00                 [247] (-12)
1721  00                 [248] (-12)
1722  BE                 [249] (-12)
1723  00                 [250] (-12)
1724  00                 [251] (-11)
1725  00                 [252] (-11)
1726  BE                 [253] (-11)
1727  00                 [254] (-10)
1728  00                 [255] (-10)
1729  00                 [256] (-10)
172A  BF                 [257] (-9)
172B  00                 [258] (-9)
172C  00                 [259] (-9)
172D  00                 [260] (-9)
172E  BF                 [261] (-7)
172F  00                 [262] (-7)
1730  00                 [263] (-7)
1731  00                 [264] (-5)
1732  BF                 [265] (-5)
1733  00                 [266] (-5)
1734  00                 [267] (-4)
1735  00                 [268] (-4)
1736  BF                 [269] (-2)
                         * locals:
1A5E  00                 sizelocvars (0)
                         * upvalues:
1A5F  00                 sizeupvalues (0)
                         ** end of function **

                         
1A60                     ** function [5] definition (level 2)
                         ** start of function **
1A60  00                 string size (0)
                         source name: (none)
1A62  02                 line defined (256)
1A63  8A                 last line defined (266)
1A64  02                 nups (1)
1A65  01                 numparams (0)
1A66  00                 is_vararg (0)
1A67  00                 maxstacksize (5)
                         * code:
1A69  19                 sizecode (25)
1A6A  1D000000           [01] getglobal  0   0        ; gGameRules
1A6E  24404000           [02] self       0   0   257  ; -317790213
1A72  93000000           [03] getupval   2   0      
1A76  D9800000           [04] loadk      3   2        ; 0
1A7A  22800002           [05] call       0   4   2  
1A7E  5D000000           [06] getglobal  1   0        ; gGameRules
1A82  64C0C000           [07] self       1   1   259  ; 266971028
1A86  62800001           [08] call       1   2   2  
1A8A  58000000           [09] test       1       0    ; to [11] if true
1A8E  1A800180           [10] jmp        7            ; to [18]
fail op	21
1A92  15000081           [11] concat     0   258 0  
1A96  1A000180           [12] jmp        5            ; to [18]
1A9A  4D004100           [13] sub        1   0   260  ; 0
fail op	35
1A9E  6380C000           [14] close      1  
1AA2  1A400080           [15] jmp        2            ; to [18]
1AA6  1AC00180           [16] jmp        8            ; to [25]
1AAA  1A80FB7F           [17] jmp        -17          ; to [1]
1AAE  5D400100           [18] getglobal  1   5        ; 538022378
1AB2  9D800100           [19] getglobal  2   6        ; 2144646525
1AB6  D9C00100           [20] loadk      3   7        ; 0
1ABA  19C10100           [21] loadk      4   7        ; 0
1ABE  A2008001           [22] call       2   3   0  
1AC2  62400000           [23] call       1   0   1  
1AC6  1AC0F97F           [24] jmp        -24          ; to [1]
1ACA  1E008000           [25] return     0   1      
                         * constants:
1ACE  08                 sizek (8)
1ACF  04                 const type 4
1AD0  0B                 string size (11)
1AD1  6747616D6552756C+  "gGameRul"
1AD9  657300             "es\0"
                         const [0]: "gGameRules"
1ADC  01                 const type 3
1ADD  FBE70EED           const [1]: (-317790213)
1AE1  03                 const type 3
1AE2  00000000           const [2]: (0)
1AE6  01                 const type 3
1AE7  94A7E90F           const [3]: (266971028)
1AEB  03                 const type 3
1AEC  0000803F           const [4]: (0)
1AF0  01                 const type 3
1AF1  EA911120           const [5]: (538022378)
1AF5  01                 const type 3
1AF6  7DB5D47F           const [6]: (2144646525)
1AFA  03                 const type 3
1AFB  00007041           const [7]: (0)
                         * functions:
1AFF  00                 sizep (0)
                         * lines:
1B00  19                 sizelineinfo (25)
                         [pc] (line)
1B01  03                 [01] (3)
1B02  01                 [02] (3)
1B03  00                 [03] (3)
1B04  00                 [04] (3)
1B05  03                 [05] (3)
1B06  01                 [06] (4)
1B07  00                 [07] (4)
1B08  00                 [08] (4)
1B09  03                 [09] (4)
1B0A  01                 [10] (4)
1B0B  00                 [11] (4)
1B0C  00                 [12] (4)
1B0D  03                 [13] (4)
1B0E  01                 [14] (4)
1B0F  00                 [15] (4)
1B10  00                 [16] (5)
1B11  03                 [17] (5)
1B12  01                 [18] (7)
1B13  00                 [19] (7)
1B14  00                 [20] (7)
1B15  04                 [21] (7)
1B16  01                 [22] (7)
1B17  00                 [23] (7)
1B18  00                 [24] (8)
1B19  04                 [25] (10)
                         * locals:
1B65  00                 sizelocvars (0)
                         * upvalues:
1B66  00                 sizeupvalues (0)
                         ** end of function **

                         
1B67                     ** function [6] definition (level 2)
                         ** start of function **
1B67  00                 string size (0)
                         source name: (none)
1B69  02                 line defined (268)
1B6A  D0                 last line defined (336)
1B6B  02                 nups (3)
1B6C  03                 numparams (0)
1B6D  00                 is_vararg (0)
1B6E  00                 maxstacksize (19)
                         * code:
1B71  01                 sizecode (173)
1B72  1D000000           [001] getglobal  0   0        ; gRegion
1B76  24404000           [002] self       0   0   257  ; 65205951
1B7A  22800001           [003] call       0   2   2  
1B7E  5D800000           [004] getglobal  1   2        ; gGameRules
1B82  64C0C000           [005] self       1   1   259  ; -502414055
1B86  62800001           [006] call       1   2   2  
1B8A  97000000           [007] loadbool   2   0   0    ; false
1B8E  DD000000           [008] getglobal  3   0        ; gRegion
1B92  E400C101           [009] self       3   3   260  ; 152279552
1B96  5D410100           [010] getglobal  5   5        ; gNpcSpawnPointType
1B9A  A4814100           [011] self       6   0   262  ; 1839670529
1B9E  A2810001           [012] call       6   2   2  
1BA2  DDC10100           [013] getglobal  7   7        ; minSpawnDistanceFallback
1BA6  1D020200           [014] getglobal  8   8        ; FLT_MAX
1BAA  E2800003           [015] call       3   6   2  
1BAE  1D410200           [016] getglobal  4   9        ; 1074689893
1BB2  52018001           [017] move       5   3      
1BB6  22810001           [018] call       4   2   2  
1BBA  18410000           [019] test       4       1    ; to [21] if false
1BBE  1AC01580           [020] jmp        88           ; to [109]
1BC2  0A018001           [021] len        4   3      
fail op	21
1BC6  15000185           [022] concat     0   266 4  
1BCA  1A001580           [023] jmp        85           ; to [109]
1BCE  98400000           [024] test       2       1    ; to [26] if false
1BD2  1A801480           [025] jmp        83           ; to [109]
1BD6  1DC10200           [026] getglobal  4   11       ; 2144646525
1BDA  59010300           [027] loadk      5   12       ; 0
1BDE  8A018001           [028] len        6   3      
1BE2  22818001           [029] call       4   3   2  
1BE6  4E018101           [030] gettable   5   3   4  
1BEA  60410300           [031] setglobal  5   13       ; spawnPoint
1BEE  57018000           [032] loadbool   5   1   0    ; true
1BF2  97018000           [033] loadbool   6   1   0    ; true
1BF6  DD410300           [034] getglobal  7   13       ; spawnPoint
1BFA  E481C303           [035] self       7   7   270  ; -830264577
1BFE  E2810001           [036] call       7   2   2  
1C02  19020300           [037] loadk      8   12       ; 0
1C06  53020000           [038] getupval   9   0      
1C0A  4A028004           [039] len        9   9      
1C0E  99020300           [040] loadk      10  12       ; 0
1C12  10420180           [041] forprep    8   6        ; to [48]
1C16  13030000           [042] getupval   12  0      
1C1A  0EC30206           [043] gettable   12  12  11 
fail op	35
1C1E  23008303           [044] close      0  
1C22  1A400080           [045] jmp        2            ; to [48]
1C26  57010000           [046] loadbool   5   0   0    ; false
1C2A  1A000080           [047] jmp        1            ; to [49]
1C2E  1402FE7F           [048] forloop    8   -7       ; to [42] if loop
1C32  1D430300           [049] getglobal  12  13       ; spawnPoint
1C36  24C34306           [050] self       12  12  271  ; 1927666530
1C3A  22830001           [051] call       12  2   2  
1C3E  5D430200           [052] getglobal  13  9        ; 1074689893
1C42  92030006           [053] move       14  12     
1C46  62830001           [054] call       13  2   2  
1C4A  58430000           [055] test       13      1    ; to [57] if false
1C4E  1A800480           [056] jmp        19           ; to [76]
1C52  64834306           [057] self       13  12  270  ; -830264577
1C56  62830001           [058] call       13  2   2  
1C5A  9D030400           [059] getglobal  14  16       ; Lotus_Game
1C5E  8E434407           [060] gettable   14  14  273  ; "MT_RESCUE"
fail op	35
1C62  63808300           [061] close      1  
1C66  1AC00080           [062] jmp        4            ; to [67]
1C6A  9D030400           [063] getglobal  14  16       ; Lotus_Game
1C6E  8E834407           [064] gettable   14  14  274  ; "MT_INTEL"
fail op	35
1C72  23808300           [065] close      0  
1C76  1AC00080           [066] jmp        4            ; to [71]
1C7A  93038000           [067] getupval   14  1      
fail op	35
1C7E  23808306           [068] close      0  
1C82  1A000080           [069] jmp        1            ; to [71]
1C86  97010000           [070] loadbool   6   0   0    ; false
1C8A  93030001           [071] getupval   14  2      
fail op	35
1C8E  23808306           [072] close      0  
1C92  1A800080           [073] jmp        3            ; to [77]
1C96  97010000           [074] loadbool   6   0   0    ; false
1C9A  1A000080           [075] jmp        1            ; to [77]
1C9E  97010000           [076] loadbool   6   0   0    ; false
1CA2  58010000           [077] test       5       0    ; to [79] if true
1CA6  1A000580           [078] jmp        21           ; to [100]
1CAA  98010000           [079] test       6       0    ; to [81] if true
1CAE  1A800480           [080] jmp        19           ; to [100]
1CB2  9D430300           [081] getglobal  14  13       ; spawnPoint
1CB6  A4C34407           [082] self       14  14  275  ; -1318948062
1CBA  A2830001           [083] call       14  2   2  
1CBE  98030000           [084] test       14      0    ; to [86] if true
1CC2  1A400380           [085] jmp        14           ; to [100]
1CC6  9D830000           [086] getglobal  14  2        ; gGameRules
1CCA  A4034507           [087] self       14  14  276  ; 1781761594
1CCE  1D440300           [088] getglobal  16  13       ; spawnPoint
1CD2  A2838001           [089] call       14  3   2  
1CD6  98030000           [090] test       14      0    ; to [92] if true
1CDA  1AC00180           [091] jmp        8            ; to [100]
1CDE  97008000           [092] loadbool   2   1   0    ; true
1CE2  9D430500           [093] getglobal  14  21       ; -1817107093
1CE6  D9830500           [094] loadk      15  22       ; "COLLECTOR: found a npc spawn point beyond "
1CEA  1DC40100           [095] getglobal  16  7        ; minSpawnDistanceFallback
1CEE  59C40500           [096] loadk      17  23       ; " meters"
1CF2  C2438407           [097] concat     15  15  17 
1CF6  A2430001           [098] call       14  2   1  
1CFA  1A000280           [099] jmp        9            ; to [109]
1CFE  9D030600           [100] getglobal  14  24       ; table
1D02  8E434607           [101] gettable   14  14  281  ; -843973282
1D06  D2038001           [102] move       15  3      
1D0A  12040002           [103] move       16  4      
1D0E  A2438001           [104] call       14  3   1  
1D12  9D830600           [105] getglobal  14  26       ; 538022378
1D16  D9830200           [106] loadk      15  10       ; 0
1D1A  A2430001           [107] call       14  2   1  
1D1E  1A80E87F           [108] jmp        -93          ; to [16]
1D22  98400000           [109] test       2       1    ; to [111] if false
1D26  1AC00C80           [110] jmp        52           ; to [163]
1D2A  9D030000           [111] getglobal  14  0        ; gRegion
1D2E  A4C34607           [112] self       14  14  283  ; -1485896174
1D32  1D040700           [113] getglobal  16  28       ; -332969190
1D36  59440700           [114] loadk      17  29       ; "Dead-End"
1D3A  22040001           [115] call       16  2   0  
1D3E  A2830000           [116] call       14  0   2  
1D42  D2000007           [117] move       3   14     
1D46  9D430200           [118] getglobal  14  9        ; 1074689893
1D4A  D2038001           [119] move       15  3      
1D4E  A2830001           [120] call       14  2   2  
1D52  98430000           [121] test       14      1    ; to [123] if false
1D56  1AC00980           [122] jmp        40           ; to [163]
1D5A  8A038001           [123] len        14  3      
fail op	21
1D5E  15800385           [124] concat     0   266 14 
1D62  1A000980           [125] jmp        37           ; to [163]
1D66  98400000           [126] test       2       1    ; to [128] if false
1D6A  1A800880           [127] jmp        35           ; to [163]
1D6E  9DC30200           [128] getglobal  14  11       ; 2144646525
1D72  D9030300           [129] loadk      15  12       ; 0
1D76  0A048001           [130] len        16  3      
1D7A  A2838001           [131] call       14  3   2  
1D7E  CE838301           [132] gettable   15  3   14 
1D82  E0430300           [133] setglobal  15  13       ; spawnPoint
1D86  DD830700           [134] getglobal  15  30       ; -1662520301
1D8A  24844100           [135] self       16  0   262  ; 1839670529
1D8E  22840001           [136] call       16  2   2  
1D92  5D440300           [137] getglobal  17  13       ; spawnPoint
1D96  6484C108           [138] self       17  17  262  ; 1839670529
1D9A  62040001           [139] call       17  2   0  
1D9E  E2830000           [140] call       15  0   2  
1DA2  1DC40700           [141] getglobal  16  31       ; minSpawnDistance
1DA6  5DC40700           [142] getglobal  17  31       ; minSpawnDistance
1DAA  04440408           [143] mul        16  16  17 
fail op	21
1DAE  15C00308           [144] concat     0   16  15 
1DB2  1A800280           [145] jmp        11           ; to [157]
1DB6  DD830000           [146] getglobal  15  2        ; gGameRules
1DBA  E403C507           [147] self       15  15  276  ; 1781761594
1DBE  5D440300           [148] getglobal  17  13       ; spawnPoint
1DC2  E2838001           [149] call       15  3   2  
1DC6  D8030000           [150] test       15      0    ; to [152] if true
1DCA  1A000180           [151] jmp        5            ; to [157]
1DCE  97008000           [152] loadbool   2   1   0    ; true
1DD2  DD430500           [153] getglobal  15  21       ; -1817107093
1DD6  19040800           [154] loadk      16  32       ; "COLLECTOR: found a dead-end spawn point"
1DDA  E2430001           [155] call       15  2   1  
1DDE  1A400180           [156] jmp        6            ; to [163]
1DE2  DD030600           [157] getglobal  15  24       ; table
1DE6  CE43C607           [158] gettable   15  15  281  ; -843973282
1DEA  12048001           [159] move       16  3      
1DEE  52040007           [160] move       17  14     
1DF2  E2438001           [161] call       15  3   1  
1DF6  1A80F47F           [162] jmp        -45          ; to [118]
1DFA  98000000           [163] test       2       0    ; to [165] if true
1DFE  1A800080           [164] jmp        3            ; to [168]
1E02  D7038000           [165] loadbool   15  1   0    ; true
1E06  DE030001           [166] return     15  2      
1E0A  1A000180           [167] jmp        5            ; to [173]
1E0E  DD430500           [168] getglobal  15  21       ; -1817107093
1E12  19440800           [169] loadk      16  33       ; "COLLECTOR: No Spawn points for rares!"
1E16  E2430001           [170] call       15  2   1  
1E1A  D7030000           [171] loadbool   15  0   0    ; false
1E1E  DE030001           [172] return     15  2      
1E22  1E008000           [173] return     0   1      
                         * constants:
1E26  22                 sizek (34)
1E27  04                 const type 4
1E28  08                 string size (8)
1E29  67526567696F6E00   "gRegion\0"
                         const [0]: "gRegion"
1E31  01                 const type 3
1E32  BFF6E203           const [1]: (65205951)
1E36  04                 const type 4
1E37  0B                 string size (11)
1E38  6747616D6552756C+  "gGameRul"
1E40  657300             "es\0"
                         const [2]: "gGameRules"
1E43  01                 const type 3
1E44  19C50DE2           const [3]: (-502414055)
1E48  01                 const type 3
1E49  009A1309           const [4]: (152279552)
1E4D  04                 const type 4
1E4E  13                 string size (19)
1E4F  674E706353706177+  "gNpcSpaw"
1E57  6E506F696E745479+  "nPointTy"
1E5F  706500             "pe\0"
                         const [5]: "gNpcSpawnPointType"
1E62  01                 const type 3
1E63  0125A76D           const [6]: (1839670529)
1E67  04                 const type 4
1E68  19                 string size (25)
1E69  6D696E537061776E+  "minSpawn"
1E71  44697374616E6365+  "Distance"
1E79  46616C6C6261636B+  "Fallback"
1E81  00                 "\0"
                         const [7]: "minSpawnDistanceFallback"
1E82  04                 const type 4
1E83  08                 string size (8)
1E84  464C545F4D415800   "FLT_MAX\0"
                         const [8]: "FLT_MAX"
1E8C  01                 const type 3
1E8D  65770E40           const [9]: (1074689893)
1E91  03                 const type 3
1E92  00000000           const [10]: (0)
1E96  01                 const type 3
1E97  7DB5D47F           const [11]: (2144646525)
1E9B  03                 const type 3
1E9C  0000803F           const [12]: (0)
1EA0  04                 const type 4
1EA1  0B                 string size (11)
1EA2  737061776E506F69+  "spawnPoi"
1EAA  6E7400             "nt\0"
                         const [13]: "spawnPoint"
1EAD  01                 const type 3
1EAE  FF2A83CE           const [14]: (-830264577)
1EB2  01                 const type 3
1EB3  62DBE572           const [15]: (1927666530)
1EB7  04                 const type 4
1EB8  0B                 string size (11)
1EB9  4C6F7475735F4761+  "Lotus_Ga"
1EC1  6D6500             "me\0"
                         const [16]: "Lotus_Game"
1EC4  04                 const type 4
1EC5  0A                 string size (10)
1EC6  4D545F5245534355+  "MT_RESCU"
1ECE  4500               "E\0"
                         const [17]: "MT_RESCUE"
1ED0  04                 const type 4
1ED1  09                 string size (9)
1ED2  4D545F494E54454C+  "MT_INTEL"
1EDA  00                 "\0"
                         const [18]: "MT_INTEL"
1EDB  01                 const type 3
1EDC  227362B1           const [19]: (-1318948062)
1EE0  01                 const type 3
1EE1  3A86336A           const [20]: (1781761594)
1EE5  01                 const type 3
1EE6  6B25B193           const [21]: (-1817107093)
1EEA  04                 const type 4
1EEB  2B                 string size (43)
1EEC  434F4C4C4543544F+  "COLLECTO"
1EF4  523A20666F756E64+  "R: found"
1EFC  2061206E70632073+  " a npc s"
1F04  7061776E20706F69+  "pawn poi"
1F0C  6E74206265796F6E+  "nt beyon"
1F14  642000             "d \0"
                         const [22]: "COLLECTOR: found a npc spawn point beyond "
1F17  04                 const type 4
1F18  08                 string size (8)
1F19  206D657465727300   " meters\0"
                         const [23]: " meters"
1F21  04                 const type 4
1F22  06                 string size (6)
1F23  7461626C6500       "table\0"
                         const [24]: "table"
1F29  01                 const type 3
1F2A  5EFDB1CD           const [25]: (-843973282)
1F2E  01                 const type 3
1F2F  EA911120           const [26]: (538022378)
1F33  01                 const type 3
1F34  12066FA7           const [27]: (-1485896174)
1F38  01                 const type 3
1F39  1A4B27EC           const [28]: (-332969190)
1F3D  04                 const type 4
1F3E  09                 string size (9)
1F3F  446561642D456E64+  "Dead-End"
1F47  00                 "\0"
                         const [29]: "Dead-End"
1F48  01                 const type 3
1F49  13F4E79C           const [30]: (-1662520301)
1F4D  04                 const type 4
1F4E  11                 string size (17)
1F4F  6D696E537061776E+  "minSpawn"
1F57  44697374616E6365+  "Distance"
1F5F  00                 "\0"
                         const [31]: "minSpawnDistance"
1F60  04                 const type 4
1F61  28                 string size (40)
1F62  434F4C4C4543544F+  "COLLECTO"
1F6A  523A20666F756E64+  "R: found"
1F72  206120646561642D+  " a dead-"
1F7A  656E642073706177+  "end spaw"
1F82  6E20706F696E7400   "n point\0"
                         const [32]: "COLLECTOR: found a dead-end spawn point"
1F8A  04                 const type 4
1F8B  26                 string size (38)
1F8C  434F4C4C4543544F+  "COLLECTO"
1F94  523A204E6F205370+  "R: No Sp"
1F9C  61776E20706F696E+  "awn poin"
1FA4  747320666F722072+  "ts for r"
1FAC  617265732100       "ares!\0"
                         const [33]: "COLLECTOR: No Spawn points for rares!"
                         * functions:
1FB2  00                 sizep (0)
                         * lines:
1FB4  01                 sizelineinfo (173)
                         [pc] (line)
1FB5  0D                 [001] (13)
1FB6  01                 [002] (13)
1FB7  00                 [003] (13)
1FB8  00                 [004] (14)
1FB9  0D                 [005] (14)
1FBA  01                 [006] (14)
1FBB  00                 [007] (15)
1FBC  00                 [008] (18)
1FBD  0D                 [009] (18)
1FBE  01                 [010] (18)
1FBF  00                 [011] (18)
1FC0  00                 [012] (18)
1FC1  0E                 [013] (18)
1FC2  01                 [014] (18)
1FC3  00                 [015] (18)
1FC4  00                 [016] (19)
1FC5  0E                 [017] (19)
1FC6  01                 [018] (19)
1FC7  00                 [019] (19)
1FC8  00                 [020] (19)
1FC9  0E                 [021] (19)
1FCA  01                 [022] (19)
1FCB  00                 [023] (19)
1FCC  00                 [024] (19)
1FCD  0F                 [025] (19)
1FCE  01                 [026] (20)
1FCF  00                 [027] (20)
1FD0  00                 [028] (20)
1FD1  12                 [029] (20)
1FD2  01                 [030] (21)
1FD3  00                 [031] (21)
1FD4  00                 [032] (22)
1FD5  12                 [033] (23)
1FD6  01                 [034] (24)
1FD7  00                 [035] (24)
1FD8  00                 [036] (24)
1FD9  12                 [037] (25)
1FDA  01                 [038] (25)
1FDB  00                 [039] (25)
1FDC  00                 [040] (25)
1FDD  12                 [041] (25)
1FDE  01                 [042] (26)
1FDF  00                 [043] (26)
1FE0  00                 [044] (26)
1FE1  12                 [045] (26)
1FE2  01                 [046] (27)
1FE3  00                 [047] (28)
1FE4  00                 [048] (25)
1FE5  12                 [049] (32)
1FE6  01                 [050] (32)
1FE7  00                 [051] (32)
1FE8  00                 [052] (33)
1FE9  12                 [053] (33)
1FEA  01                 [054] (33)
1FEB  00                 [055] (33)
1FEC  00                 [056] (33)
1FED  12                 [057] (34)
1FEE  01                 [058] (34)
1FEF  00                 [059] (36)
1FF0  00                 [060] (36)
1FF1  13                 [061] (36)
1FF2  01                 [062] (36)
1FF3  00                 [063] (36)
1FF4  00                 [064] (36)
1FF5  13                 [065] (36)
1FF6  01                 [066] (36)
1FF7  00                 [067] (36)
1FF8  00                 [068] (36)
1FF9  13                 [069] (36)
1FFA  01                 [070] (37)
1FFB  00                 [071] (40)
1FFC  00                 [072] (40)
1FFD  13                 [073] (40)
1FFE  01                 [074] (41)
1FFF  00                 [075] (42)
2000  00                 [076] (44)
2001  13                 [077] (47)
2002  01                 [078] (47)
2003  00                 [079] (47)
2004  00                 [080] (47)
2005  13                 [081] (47)
2006  01                 [082] (47)
2007  00                 [083] (47)
2008  00                 [084] (47)
2009  13                 [085] (47)
200A  01                 [086] (47)
200B  00                 [087] (47)
200C  00                 [088] (47)
200D  13                 [089] (47)
200E  01                 [090] (47)
200F  00                 [091] (47)
2010  00                 [092] (48)
2011  13                 [093] (49)
2012  01                 [094] (49)
2013  00                 [095] (49)
2014  00                 [096] (49)
2015  13                 [097] (49)
2016  01                 [098] (49)
2017  00                 [099] (50)
2018  00                 [100] (52)
2019  14                 [101] (52)
201A  01                 [102] (52)
201B  00                 [103] (52)
201C  00                 [104] (52)
201D  14                 [105] (53)
201E  01                 [106] (53)
201F  00                 [107] (53)
2020  00                 [108] (53)
2021  14                 [109] (57)
2022  01                 [110] (57)
2023  00                 [111] (59)
2024  00                 [112] (59)
2025  14                 [113] (59)
2026  01                 [114] (59)
2027  00                 [115] (59)
2028  00                 [116] (59)
2029  15                 [117] (59)
202A  01                 [118] (60)
202B  00                 [119] (60)
202C  00                 [120] (60)
202D  15                 [121] (60)
202E  01                 [122] (60)
202F  00                 [123] (60)
2030  00                 [124] (60)
2031  16                 [125] (60)
2032  01                 [126] (60)
2033  00                 [127] (60)
2034  00                 [128] (61)
2035  17                 [129] (61)
2036  01                 [130] (61)
2037  00                 [131] (61)
2038  00                 [132] (62)
2039  18                 [133] (62)
203A  01                 [134] (63)
203B  00                 [135] (63)
203C  00                 [136] (63)
203D  18                 [137] (63)
203E  01                 [138] (63)
203F  00                 [139] (63)
2040  00                 [140] (63)
2041  18                 [141] (63)
2042  01                 [142] (63)
2043  00                 [143] (63)
2044  00                 [144] (63)
2045  19                 [145] (63)
2046  01                 [146] (64)
2047  00                 [147] (64)
2048  00                 [148] (64)
2049  19                 [149] (64)
204A  01                 [150] (64)
204B  00                 [151] (64)
204C  00                 [152] (65)
204D  19                 [153] (66)
204E  01                 [154] (66)
204F  00                 [155] (66)
2050  00                 [156] (67)
2051  19                 [157] (70)
2052  01                 [158] (70)
2053  00                 [159] (70)
2054  00                 [160] (70)
2055  19                 [161] (70)
2056  01                 [162] (70)
2057  00                 [163] (74)
2058  00                 [164] (74)
2059  1A                 [165] (75)
205A  01                 [166] (75)
205B  00                 [167] (75)
205C  00                 [168] (77)
205D  1A                 [169] (77)
205E  01                 [170] (77)
205F  00                 [171] (78)
2060  00                 [172] (78)
2061  1A                 [173] (80)
                         * locals:
2269  00                 sizelocvars (0)
                         * upvalues:
226A  00                 sizeupvalues (0)
                         ** end of function **

                         
226B                     ** function [7] definition (level 2)
                         ** start of function **
226B  00                 string size (0)
                         source name: (none)
226D  02                 line defined (338)
226E  D7                 last line defined (343)
226F  02                 nups (2)
2270  02                 numparams (0)
2271  00                 is_vararg (0)
2272  00                 maxstacksize (3)
                         * code:
2274  0A                 sizecode (10)
2275  1D000000           [01] getglobal  0   0        ; transmissionTargetIdentified
2279  18000000           [02] test       0       0    ; to [4] if true
227D  1A400180           [03] jmp        6            ; to [10]
2281  17008000           [04] loadbool   0   1   0    ; true
fail op	8
2285  08000000           [05] setupval   0   0      
2289  13008000           [06] getupval   0   1      
228D  5D000000           [07] getglobal  1   0        ; transmissionTargetIdentified
2291  97008000           [08] loadbool   2   1   0    ; true
2295  22408001           [09] call       0   3   1  
2299  1E008000           [10] return     0   1      
                         * constants:
229D  01                 sizek (1)
229E  04                 const type 4
229F  1D                 string size (29)
22A0  7472616E736D6973+  "transmis"
22A8  73696F6E54617267+  "sionTarg"
22B0  65744964656E7469+  "etIdenti"
22B8  6669656400         "fied\0"
                         const [0]: "transmissionTargetIdentified"
                         * functions:
22BD  00                 sizep (0)
                         * lines:
22BE  0A                 sizelineinfo (10)
                         [pc] (line)
22BF  53                 [01] (83)
22C0  01                 [02] (83)
22C1  00                 [03] (83)
22C2  00                 [04] (84)
22C3  53                 [05] (84)
22C4  01                 [06] (85)
22C5  00                 [07] (85)
22C6  00                 [08] (85)
22C7  53                 [09] (85)
22C8  01                 [10] (87)
                         * locals:
22E7  00                 sizelocvars (0)
                         * upvalues:
22E8  00                 sizeupvalues (0)
                         ** end of function **

                         
22E9                     ** function [8] definition (level 2)
                         ** start of function **
22E9  00                 string size (0)
                         source name: (none)
22EB  02                 line defined (345)
22EC  DE                 last line defined (350)
22ED  02                 nups (2)
22EE  02                 numparams (0)
22EF  00                 is_vararg (0)
22F0  00                 maxstacksize (3)
                         * code:
22F2  0A                 sizecode (10)
22F3  1D000000           [01] getglobal  0   0        ; transmissionThresholdReached
22F7  18000000           [02] test       0       0    ; to [4] if true
22FB  1A400180           [03] jmp        6            ; to [10]
22FF  17008000           [04] loadbool   0   1   0    ; true
fail op	8
2303  08000000           [05] setupval   0   0      
2307  13008000           [06] getupval   0   1      
230B  5D000000           [07] getglobal  1   0        ; transmissionThresholdReached
230F  97008000           [08] loadbool   2   1   0    ; true
2313  22408001           [09] call       0   3   1  
2317  1E008000           [10] return     0   1      
                         * constants:
231B  01                 sizek (1)
231C  04                 const type 4
231D  1D                 string size (29)
231E  7472616E736D6973+  "transmis"
2326  73696F6E54687265+  "sionThre"
232E  73686F6C64526561+  "sholdRea"
2336  6368656400         "ched\0"
                         const [0]: "transmissionThresholdReached"
                         * functions:
233B  00                 sizep (0)
                         * lines:
233C  0A                 sizelineinfo (10)
                         [pc] (line)
233D  5A                 [01] (90)
233E  01                 [02] (90)
233F  00                 [03] (90)
2340  00                 [04] (91)
2341  5A                 [05] (91)
2342  01                 [06] (92)
2343  00                 [07] (92)
2344  00                 [08] (92)
2345  5A                 [09] (92)
2346  01                 [10] (94)
                         * locals:
2365  00                 sizelocvars (0)
                         * upvalues:
2366  00                 sizeupvalues (0)
                         ** end of function **

                         
2367                     ** function [9] definition (level 2)
                         ** start of function **
2367  00                 string size (0)
                         source name: (none)
2369  02                 line defined (352)
236A  E5                 last line defined (357)
236B  02                 nups (2)
236C  02                 numparams (0)
236D  00                 is_vararg (0)
236E  00                 maxstacksize (3)
                         * code:
2370  0A                 sizecode (10)
2371  1D000000           [01] getglobal  0   0        ; transmissionFailure
2375  18000000           [02] test       0       0    ; to [4] if true
2379  1A400180           [03] jmp        6            ; to [10]
237D  17008000           [04] loadbool   0   1   0    ; true
fail op	8
2381  08000000           [05] setupval   0   0      
2385  13008000           [06] getupval   0   1      
2389  5D000000           [07] getglobal  1   0        ; transmissionFailure
238D  97008000           [08] loadbool   2   1   0    ; true
2391  22408001           [09] call       0   3   1  
2395  1E008000           [10] return     0   1      
                         * constants:
2399  01                 sizek (1)
239A  04                 const type 4
239B  14                 string size (20)
239C  7472616E736D6973+  "transmis"
23A4  73696F6E4661696C+  "sionFail"
23AC  75726500           "ure\0"
                         const [0]: "transmissionFailure"
                         * functions:
23B0  00                 sizep (0)
                         * lines:
23B1  0A                 sizelineinfo (10)
                         [pc] (line)
23B2  61                 [01] (97)
23B3  01                 [02] (97)
23B4  00                 [03] (97)
23B5  00                 [04] (98)
23B6  61                 [05] (98)
23B7  01                 [06] (99)
23B8  00                 [07] (99)
23B9  00                 [08] (99)
23BA  61                 [09] (99)
23BB  01                 [10] (101)
                         * locals:
23DA  00                 sizelocvars (0)
                         * upvalues:
23DB  00                 sizeupvalues (0)
                         ** end of function **

                         
23DC                     ** function [10] definition (level 2)
                         ** start of function **
23DC  00                 string size (0)
                         source name: (none)
23DE  02                 line defined (359)
23DF  EC                 last line defined (364)
23E0  02                 nups (1)
23E1  01                 numparams (0)
23E2  00                 is_vararg (0)
23E3  00                 maxstacksize (2)
                         * code:
23E5  06                 sizecode (6)
23E6  1D000000           [1] getglobal  0   0        ; transmissionSuccess
23EA  18000000           [2] test       0       0    ; to [4] if true
23EE  1A400080           [3] jmp        2            ; to [6]
23F2  17008000           [4] loadbool   0   1   0    ; true
fail op	8
23F6  08000000           [5] setupval   0   0      
23FA  1E008000           [6] return     0   1      
                         * constants:
23FE  01                 sizek (1)
23FF  04                 const type 4
2400  14                 string size (20)
2401  7472616E736D6973+  "transmis"
2409  73696F6E53756363+  "sionSucc"
2411  65737300           "ess\0"
                         const [0]: "transmissionSuccess"
                         * functions:
2415  00                 sizep (0)
                         * lines:
2416  06                 sizelineinfo (6)
                         [pc] (line)
2417  68                 [1] (104)
2418  01                 [2] (104)
2419  00                 [3] (104)
241A  00                 [4] (105)
241B  68                 [5] (105)
241C  01                 [6] (108)
                         * locals:
242F  00                 sizelocvars (0)
                         * upvalues:
2430  00                 sizeupvalues (0)
                         ** end of function **

                         
2431                     ** function [11] definition (level 2)
                         ** start of function **
2431  00                 string size (0)
                         source name: (none)
2433  02                 line defined (366)
2434  A3                 last line defined (419)
2435  03                 nups (12)
2436  0C                 numparams (0)
2437  00                 is_vararg (0)
2438  00                 maxstacksize (10)
                         * code:
243B  01                 sizecode (150)
243C  1D000000           [001] getglobal  0   0        ; gGameRules
2440  24404000           [002] self       0   0   257  ; 239736392
2444  22800001           [003] call       0   2   2  
2448  5D800000           [004] getglobal  1   2        ; Lotus_Game
244C  4EC0C000           [005] gettable   1   1   259  ; "LotusBaseGameRules_CT_NONE"
fail op	35
2450  23400000           [006] close      0  
2454  1A400080           [007] jmp        2            ; to [10]
2458  57000000           [008] loadbool   1   0   0    ; false
245C  5E000001           [009] return     1   2      
2460  5D800000           [010] getglobal  1   2        ; Lotus_Game
2464  4E00C100           [011] gettable   1   1   260  ; "LotusBaseGameRules_CT_MARKED"
fail op	35
2468  23400000           [012] close      0  
246C  1A400680           [013] jmp        26           ; to [40]
2470  53000000           [014] getupval   1   0      
2474  6440C100           [015] self       1   1   261  ; -1625438872
2478  DD800100           [016] getglobal  3   6        ; collectorMarkerInfo
247C  62808001           [017] call       1   3   2  
2480  9DC00100           [018] getglobal  2   7        ; 1074689893
2484  D2008000           [019] move       3   1      
2488  A2800001           [020] call       2   2   2  
248C  98000000           [021] test       2       0    ; to [23] if true
2490  1A400280           [022] jmp        10           ; to [33]
2494  93000000           [023] getupval   2   0      
2498  A4004201           [024] self       2   2   264  ; -1421644046
249C  1D810100           [025] getglobal  4   6        ; collectorMarkerInfo
24A0  5D410200           [026] getglobal  5   9        ; EMPTY_SYMBOL
24A4  9D810200           [027] getglobal  6   10       ; 572299008
24A8  D9C10200           [028] loadk      7   11       ; 0
24AC  19020300           [029] loadk      8   12       ; 0
24B0  59C20200           [030] loadk      9   11       ; 0
24B4  A2010002           [031] call       6   4   0  
24B8  A2400000           [032] call       2   0   1  
24BC  93008000           [033] getupval   2   1      
24C0  98400000           [034] test       2       1    ; to [36] if false
24C4  1A400080           [035] jmp        2            ; to [38]
24C8  93000001           [036] getupval   2   2      
24CC  A2408000           [037] call       2   1   1  
24D0  97000000           [038] loadbool   2   0   0    ; false
24D4  9E000001           [039] return     2   2      
24D8  9D800000           [040] getglobal  2   2        ; Lotus_Game
24DC  8E404301           [041] gettable   2   2   269  ; "LotusBaseGameRules_CT_THRESHOLD_REACHED"
fail op	35
24E0  23800000           [042] close      0  
24E4  1A400380           [043] jmp        14           ; to [58]
24E8  93008001           [044] getupval   2   3      
24EC  98400000           [045] test       2       1    ; to [47] if false
24F0  1A800280           [046] jmp        11           ; to [58]
24F4  93000002           [047] getupval   2   4      
24F8  A2408000           [048] call       2   1   1  
24FC  93008002           [049] getupval   2   5      
fail op	35
2500  63804301           [050] close      1  
2504  1AC00080           [051] jmp        4            ; to [56]
2508  9D000000           [052] getglobal  2   0        ; gGameRules
250C  A4C04301           [053] self       2   2   271  ; 2129875078
2510  13018002           [054] getupval   4   5      
2514  A2408001           [055] call       2   3   1  
2518  97000000           [056] loadbool   2   0   0    ; false
251C  9E000001           [057] return     2   2      
2520  9D800000           [058] getglobal  2   2        ; Lotus_Game
2524  8E004401           [059] gettable   2   2   272  ; "LotusBaseGameRules_CT_CAPTURED"
fail op	35
2528  23800000           [060] close      0  
252C  1A800180           [061] jmp        7            ; to [69]
2530  93000003           [062] getupval   2   6      
2534  98400000           [063] test       2       1    ; to [65] if false
2538  1AC00080           [064] jmp        4            ; to [69]
253C  93008003           [065] getupval   2   7      
2540  A2408000           [066] call       2   1   1  
2544  97008000           [067] loadbool   2   1   0    ; true
2548  9E000001           [068] return     2   2      
254C  9D800000           [069] getglobal  2   2        ; Lotus_Game
2550  8E404401           [070] gettable   2   2   273  ; "LotusBaseGameRules_CT_KILLED"
fail op	35
2554  23800000           [071] close      0  
2558  1A800180           [072] jmp        7            ; to [80]
255C  93000004           [073] getupval   2   8      
2560  98400000           [074] test       2       1    ; to [76] if false
2564  1AC00080           [075] jmp        4            ; to [80]
2568  93008004           [076] getupval   2   9      
256C  A2408000           [077] call       2   1   1  
2570  97008000           [078] loadbool   2   1   0    ; true
2574  9E000001           [079] return     2   2      
2578  9D800000           [080] getglobal  2   2        ; Lotus_Game
257C  8E804401           [081] gettable   2   2   274  ; "LotusBaseGameRules_CT_SCANS_COMPLETE"
fail op	35
2580  23800000           [082] close      0  
2584  1A401080           [083] jmp        66           ; to [150]
2588  93000005           [084] getupval   2   10     
258C  98400000           [085] test       2       1    ; to [87] if false
2590  1A800F80           [086] jmp        63           ; to [150]
2594  93000000           [087] getupval   2   0      
2598  A4C04401           [088] self       2   2   275  ; -565659446
259C  1D010500           [089] getglobal  4   20       ; -332969190
25A0  59410500           [090] loadk      5   21       ; "ScanComplete"
25A4  22810001           [091] call       4   2   2  
25A8  59810500           [092] loadk      5   22       ; 111
25AC  A2400002           [093] call       2   4   1  
25B0  93000000           [094] getupval   2   0      
25B4  A4C04501           [095] self       2   2   279  ; -1411785325
25B8  A2800001           [096] call       2   2   2  
25BC  A4004601           [097] self       2   2   280  ; 1038470555
25C0  17018000           [098] loadbool   4   1   0    ; true
25C4  5D010500           [099] getglobal  5   20       ; -332969190
25C8  99410600           [100] loadk      6   25       ; "RARE_SPAWN"
25CC  62010001           [101] call       5   2   0  
25D0  A2400000           [102] call       2   0   1  
25D4  9D800600           [103] getglobal  2   26       ; gRegion
25D8  A4C04601           [104] self       2   2   283  ; -1280573509
25DC  A2800001           [105] call       2   2   2  
25E0  CE004301           [106] gettable   3   2   268  ; 0
25E4  E400C701           [107] self       3   3   284  ; -2135866365
25E8  E2800001           [108] call       3   2   2  
25EC  1DC10100           [109] getglobal  4   7        ; 1074689893
25F0  52018001           [110] move       5   3      
25F4  22810001           [111] call       4   2   2  
25F8  18410000           [112] test       4       1    ; to [114] if false
25FC  1A400880           [113] jmp        34           ; to [148]
2600  13010000           [114] getupval   4   0      
2604  24014202           [115] self       4   4   264  ; -1421644046
2608  9D410700           [116] getglobal  6   29       ; captureEffectTarget
260C  DD410200           [117] getglobal  7   9        ; EMPTY_SYMBOL
2610  22810002           [118] call       4   4   2  
2614  59C10200           [119] loadk      5   11       ; 0
fail op	21
2618  1580C702           [120] concat     0   5   286
261C  1AC00180           [121] jmp        8            ; to [130]
2620  9DC10700           [122] getglobal  6   31       ; 1289681407
2624  A2818000           [123] call       6   1   2  
2628  84014803           [124] mul        6   6   288  ; -51
262C  43818102           [125] add        5   5   6  
2630  9D410800           [126] getglobal  6   33       ; 538022378
2634  D9C10200           [127] loadk      7   11       ; 0
2638  A2410001           [128] call       6   2   1  
263C  1A40FD7F           [129] jmp        -10          ; to [120]
2640  9D010000           [130] getglobal  6   0        ; gGameRules
2644  A4814803           [131] self       6   6   290  ; -1470176938
2648  A2410001           [132] call       6   2   1  
264C  9DC10100           [133] getglobal  6   7        ; 1074689893
2650  D3010000           [134] getupval   7   0      
2654  A2810001           [135] call       6   2   2  
2658  98410000           [136] test       6       1    ; to [138] if false
265C  1A800080           [137] jmp        3            ; to [141]
2660  93010000           [138] getupval   6   0      
2664  A4C14803           [139] self       6   6   291  ; -725453761
2668  A2410001           [140] call       6   2   1  
266C  9D010000           [141] getglobal  6   0        ; gGameRules
2670  A4C14303           [142] self       6   6   271  ; 2129875078
2674  1D820000           [143] getglobal  8   2        ; Lotus_Game
2678  0E024404           [144] gettable   8   8   272  ; "LotusBaseGameRules_CT_CAPTURED"
267C  A2418001           [145] call       6   3   1  
2680  93018005           [146] getupval   6   11     
2684  A2418000           [147] call       6   1   1  
2688  97010000           [148] loadbool   6   0   0    ; false
268C  9E010001           [149] return     6   2      
2690  1E008000           [150] return     0   1      
                         * constants:
2694  24                 sizek (36)
2695  04                 const type 4
2696  0B                 string size (11)
2697  6747616D6552756C+  "gGameRul"
269F  657300             "es\0"
                         const [0]: "gGameRules"
26A2  01                 const type 3
26A3  48164A0E           const [1]: (239736392)
26A7  04                 const type 4
26A8  0B                 string size (11)
26A9  4C6F7475735F4761+  "Lotus_Ga"
26B1  6D6500             "me\0"
                         const [2]: "Lotus_Game"
26B4  04                 const type 4
26B5  1B                 string size (27)
26B6  4C6F747573426173+  "LotusBas"
26BE  6547616D6552756C+  "eGameRul"
26C6  65735F43545F4E4F+  "es_CT_NO"
26CE  4E4500             "NE\0"
                         const [3]: "LotusBaseGameRules_CT_NONE"
26D1  04                 const type 4
26D2  1D                 string size (29)
26D3  4C6F747573426173+  "LotusBas"
26DB  6547616D6552756C+  "eGameRul"
26E3  65735F43545F4D41+  "es_CT_MA"
26EB  524B454400         "RKED\0"
                         const [4]: "LotusBaseGameRules_CT_MARKED"
26F0  01                 const type 3
26F1  68C51D9F           const [5]: (-1625438872)
26F5  04                 const type 4
26F6  14                 string size (20)
26F7  636F6C6C6563746F+  "collecto"
26FF  724D61726B657249+  "rMarkerI"
2707  6E666F00           "nfo\0"
                         const [6]: "collectorMarkerInfo"
270B  01                 const type 3
270C  65770E40           const [7]: (1074689893)
2710  01                 const type 3
2711  F26E43AB           const [8]: (-1421644046)
2715  04                 const type 4
2716  0D                 string size (13)
2717  454D5054595F5359+  "EMPTY_SY"
271F  4D424F4C00         "MBOL\0"
                         const [9]: "EMPTY_SYMBOL"
2724  01                 const type 3
2725  00971C22           const [10]: (572299008)
2729  03                 const type 3
272A  00000000           const [11]: (0)
272E  03                 const type 3
272F  0000803F           const [12]: (0)
2733  04                 const type 4
2734  28                 string size (40)
2735  4C6F747573426173+  "LotusBas"
273D  6547616D6552756C+  "eGameRul"
2745  65735F43545F5448+  "es_CT_TH"
274D  524553484F4C445F+  "RESHOLD_"
2755  5245414348454400   "REACHED\0"
                         const [13]: "LotusBaseGameRules_CT_THRESHOLD_REACHED"
275D  00                 const type 0
                         const [14]: nil
275E  01                 const type 3
275F  8650F37E           const [15]: (2129875078)
2763  04                 const type 4
2764  1F                 string size (31)
2765  4C6F747573426173+  "LotusBas"
276D  6547616D6552756C+  "eGameRul"
2775  65735F43545F4341+  "es_CT_CA"
277D  50545552454400     "PTURED\0"
                         const [16]: "LotusBaseGameRules_CT_CAPTURED"
2784  04                 const type 4
2785  1D                 string size (29)
2786  4C6F747573426173+  "LotusBas"
278E  6547616D6552756C+  "eGameRul"
2796  65735F43545F4B49+  "es_CT_KI"
279E  4C4C454400         "LLED\0"
                         const [17]: "LotusBaseGameRules_CT_KILLED"
27A3  04                 const type 4
27A4  25                 string size (37)
27A5  4C6F747573426173+  "LotusBas"
27AD  6547616D6552756C+  "eGameRul"
27B5  65735F43545F5343+  "es_CT_SC"
27BD  414E535F434F4D50+  "ANS_COMP"
27C5  4C45544500         "LETE\0"
                         const [18]: "LotusBaseGameRules_CT_SCANS_COMPLETE"
27CA  01                 const type 3
27CB  CAB848DE           const [19]: (-565659446)
27CF  01                 const type 3
27D0  1A4B27EC           const [20]: (-332969190)
27D4  04                 const type 4
27D5  0D                 string size (13)
27D6  5363616E436F6D70+  "ScanComp"
27DE  6C65746500         "lete\0"
                         const [21]: "ScanComplete"
27E3  03                 const type 3
27E4  6F12833A           const [22]: (111)
27E8  01                 const type 3
27E9  93DDD9AB           const [23]: (-1411785325)
27ED  01                 const type 3
27EE  9BCDE53D           const [24]: (1038470555)
27F2  04                 const type 4
27F3  0B                 string size (11)
27F4  524152455F535041+  "RARE_SPA"
27FC  574E00             "WN\0"
                         const [25]: "RARE_SPAWN"
27FF  04                 const type 4
2800  08                 string size (8)
2801  67526567696F6E00   "gRegion\0"
                         const [26]: "gRegion"
2809  01                 const type 3
280A  BBFFABB3           const [27]: (-1280573509)
280E  01                 const type 3
280F  0344B180           const [28]: (-2135866365)
2813  04                 const type 4
2814  14                 string size (20)
2815  6361707475726545+  "captureE"
281D  6666656374546172+  "ffectTar"
2825  67657400           "get\0"
                         const [29]: "captureEffectTarget"
2829  03                 const type 3
282A  CDCC8C3F           const [30]: (-51)
282E  01                 const type 3
282F  FFF9DE4C           const [31]: (1289681407)
2833  03                 const type 3
2834  CDCC4C3E           const [32]: (-51)
2838  01                 const type 3
2839  EA911120           const [33]: (538022378)
283D  01                 const type 3
283E  56E15EA8           const [34]: (-1470176938)
2842  01                 const type 3
2843  3F74C2D4           const [35]: (-725453761)
                         * functions:
2847  00                 sizep (0)
                         * lines:
2849  01                 sizelineinfo (150)
                         [pc] (line)
284A  6F                 [001] (111)
284B  01                 [002] (111)
284C  00                 [003] (111)
284D  00                 [004] (112)
284E  6F                 [005] (112)
284F  01                 [006] (112)
2850  00                 [007] (112)
2851  00                 [008] (113)
2852  6F                 [009] (113)
2853  01                 [010] (115)
2854  00                 [011] (115)
2855  00                 [012] (115)
2856  70                 [013] (115)
2857  01                 [014] (116)
2858  00                 [015] (116)
2859  00                 [016] (116)
285A  70                 [017] (116)
285B  01                 [018] (117)
285C  00                 [019] (117)
285D  00                 [020] (117)
285E  70                 [021] (117)
285F  01                 [022] (117)
2860  00                 [023] (118)
2861  00                 [024] (118)
2862  70                 [025] (118)
2863  01                 [026] (118)
2864  00                 [027] (118)
2865  00                 [028] (118)
2866  71                 [029] (118)
2867  01                 [030] (118)
2868  00                 [031] (118)
2869  00                 [032] (118)
286A  71                 [033] (120)
286B  01                 [034] (120)
286C  00                 [035] (120)
286D  00                 [036] (121)
286E  73                 [037] (121)
286F  01                 [038] (123)
2870  00                 [039] (123)
2871  00                 [040] (125)
2872  73                 [041] (125)
2873  01                 [042] (125)
2874  00                 [043] (125)
2875  00                 [044] (125)
2876  73                 [045] (125)
2877  01                 [046] (125)
2878  00                 [047] (126)
2879  00                 [048] (126)
287A  73                 [049] (127)
287B  01                 [050] (127)
287C  00                 [051] (127)
287D  00                 [052] (-128)
287E  74                 [053] (-128)
287F  01                 [054] (-128)
2880  00                 [055] (-128)
2881  00                 [056] (-126)
2882  74                 [057] (-126)
2883  01                 [058] (-124)
2884  00                 [059] (-124)
2885  00                 [060] (-124)
2886  74                 [061] (-124)
2887  01                 [062] (-124)
2888  00                 [063] (-124)
2889  00                 [064] (-124)
288A  74                 [065] (-123)
288B  01                 [066] (-123)
288C  00                 [067] (-122)
288D  00                 [068] (-122)
288E  75                 [069] (-120)
288F  01                 [070] (-120)
2890  00                 [071] (-120)
2891  00                 [072] (-120)
2892  75                 [073] (-120)
2893  01                 [074] (-120)
2894  00                 [075] (-120)
2895  00                 [076] (-119)
2896  75                 [077] (-119)
2897  01                 [078] (-118)
2898  00                 [079] (-118)
2899  00                 [080] (-116)
289A  75                 [081] (-116)
289B  01                 [082] (-116)
289C  00                 [083] (-116)
289D  00                 [084] (-116)
289E  75                 [085] (-116)
289F  01                 [086] (-116)
28A0  00                 [087] (-115)
28A1  00                 [088] (-115)
28A2  76                 [089] (-115)
28A3  01                 [090] (-115)
28A4  00                 [091] (-115)
28A5  00                 [092] (-115)
28A6  76                 [093] (-115)
28A7  01                 [094] (-114)
28A8  00                 [095] (-114)
28A9  00                 [096] (-114)
28AA  76                 [097] (-114)
28AB  01                 [098] (-114)
28AC  00                 [099] (-114)
28AD  00                 [100] (-114)
28AE  76                 [101] (-114)
28AF  01                 [102] (-114)
28B0  00                 [103] (-113)
28B1  00                 [104] (-113)
28B2  76                 [105] (-113)
28B3  01                 [106] (-112)
28B4  00                 [107] (-112)
28B5  00                 [108] (-112)
28B6  76                 [109] (-111)
28B7  01                 [110] (-111)
28B8  00                 [111] (-111)
28B9  00                 [112] (-111)
28BA  76                 [113] (-111)
28BB  01                 [114] (-110)
28BC  00                 [115] (-110)
28BD  00                 [116] (-110)
28BE  76                 [117] (-110)
28BF  01                 [118] (-110)
28C0  00                 [119] (-109)
28C1  00                 [120] (-108)
28C2  76                 [121] (-108)
28C3  01                 [122] (-107)
28C4  00                 [123] (-107)
28C5  00                 [124] (-107)
28C6  76                 [125] (-107)
28C7  01                 [126] (-106)
28C8  00                 [127] (-106)
28C9  00                 [128] (-106)
28CA  78                 [129] (-106)
28CB  01                 [130] (-103)
28CC  00                 [131] (-103)
28CD  00                 [132] (-103)
28CE  78                 [133] (-101)
28CF  01                 [134] (-101)
28D0  00                 [135] (-101)
28D1  00                 [136] (-101)
28D2  78                 [137] (-101)
28D3  01                 [138] (-100)
28D4  00                 [139] (-100)
28D5  00                 [140] (-100)
28D6  79                 [141] (-98)
28D7  01                 [142] (-98)
28D8  00                 [143] (-98)
28D9  00                 [144] (-98)
28DA  79                 [145] (-98)
28DB  01                 [146] (-97)
28DC  00                 [147] (-97)
28DD  00                 [148] (-95)
28DE  7B                 [149] (-95)
28DF  01                 [150] (-93)
                         * locals:
2AA2  00                 sizelocvars (0)
                         * upvalues:
2AA3  00                 sizeupvalues (0)
                         ** end of function **

                         
2AA4                     ** function [12] definition (level 2)
                         ** start of function **
2AA4  00                 string size (0)
                         source name: (none)
2AA6  03                 line defined (422)
2AA7  A5                 last line defined (549)
2AA8  04                 nups (13)
2AA9  0D                 numparams (0)
2AAA  00                 is_vararg (0)
2AAB  00                 maxstacksize (14)
                         * code:
2AAE  02                 sizecode (282)
2AAF  13000000           [001] getupval   0   0      
2AB3  18400000           [002] test       0       1    ; to [4] if false
2AB7  1AC00080           [003] jmp        4            ; to [8]
2ABB  1D000000           [004] getglobal  0   0        ; _T
2ABF  0E404000           [005] gettable   0   0   257  ; "tutorialActive"
2AC3  18000000           [006] test       0       0    ; to [8] if true
2AC7  1AC00080           [007] jmp        4            ; to [12]
2ACB  1D800000           [008] getglobal  0   2        ; -1817107093
2ACF  59C00000           [009] loadk      1   3        ; "tutorial active ... bailing"
2AD3  22400001           [010] call       0   2   1  
2AD7  1E008000           [011] return     0   1      
2ADB  1D000000           [012] getglobal  0   0        ; _T
2ADF  0C404182           [013] settable   0   260 261  ; "LastBreadCrumbIndex" 0
2AE3  1D800100           [014] getglobal  0   6        ; gGameRules
2AE7  24C04100           [015] self       0   0   263  ; -1201441975
2AEB  22800001           [016] call       0   2   2  
2AEF  4E004200           [017] gettable   1   0   264  ; "archwingRequired"
2AF3  58000000           [018] test       1       0    ; to [20] if true
2AF7  1A000080           [019] jmp        1            ; to [21]
2AFB  1E008000           [020] return     0   1      
2AFF  5D000000           [021] getglobal  1   0        ; _T
2B03  4E40C200           [022] gettable   1   1   265  ; "gQuestMission"
2B07  58000000           [023] test       1       0    ; to [25] if true
2B0B  1A000080           [024] jmp        1            ; to [26]
2B0F  1E008000           [025] return     0   1      
2B13  4E804200           [026] gettable   1   0   266  ; "goalId"
fail op	35
2B17  63C0C200           [027] close      1  
2B1B  1A000080           [028] jmp        1            ; to [30]
2B1F  1E008000           [029] return     0   1      
2B23  5D000300           [030] getglobal  1   12       ; 1074689893
2B27  9D400300           [031] getglobal  2   13       ; gRegion
2B2B  A4804301           [032] self       2   2   270  ; -1456226250
2B2F  A2000001           [033] call       2   2   0  
2B33  62800000           [034] call       1   0   2  
2B37  58000000           [035] test       1       0    ; to [37] if true
2B3B  1A000080           [036] jmp        1            ; to [38]
2B3F  1E008000           [037] return     0   1      
2B43  5D400300           [038] getglobal  1   13       ; gRegion
2B47  64C0C300           [039] self       1   1   271  ; 2066713391
2B4B  62800001           [040] call       1   2   2  
2B4F  58400000           [041] test       1       1    ; to [43] if false
2B53  1A400280           [042] jmp        10           ; to [53]
2B57  5D000300           [043] getglobal  1   12       ; 1074689893
2B5B  9D000400           [044] getglobal  2   16       ; gClient
2B5F  62800001           [045] call       1   2   2  
2B63  58400000           [046] test       1       1    ; to [48] if false
2B67  1AC00280           [047] jmp        12           ; to [60]
2B6B  5D000400           [048] getglobal  1   16       ; gClient
2B6F  6440C400           [049] self       1   1   273  ; 681706190
2B73  62800001           [050] call       1   2   2  
2B77  58000000           [051] test       1       0    ; to [53] if true
2B7B  1A800180           [052] jmp        7            ; to [60]
2B7F  5D800400           [053] getglobal  1   18       ; 538022378
2B83  9DC00400           [054] getglobal  2   19       ; 2144646525
2B87  D9000500           [055] loadk      3   20       ; 0
2B8B  19010500           [056] loadk      4   20       ; 0
2B8F  A2008001           [057] call       2   3   0  
2B93  62400000           [058] call       1   0   1  
2B97  1A40FA7F           [059] jmp        -22          ; to [38]
2B9B  5D800100           [060] getglobal  1   6        ; gGameRules
2B9F  6440C500           [061] self       1   1   277  ; -1957065004
2BA3  DD800500           [062] getglobal  3   22       ; gLotusBasePvpGameRulesType
2BA7  62808001           [063] call       1   3   2  
2BAB  9D400300           [064] getglobal  2   13       ; gRegion
2BAF  A4C04501           [065] self       2   2   279  ; -771271018
2BB3  A2800001           [066] call       2   2   2  
2BB7  8E004601           [067] gettable   2   2   280  ; "level"
2BBB  DD800100           [068] getglobal  3   6        ; gGameRules
2BBF  E440C601           [069] self       3   3   281  ; -502414055
2BC3  E2800001           [070] call       3   2   2  
2BC7  1D810600           [071] getglobal  4   26       ; dangerRoomLevel
fail op	35
2BCB  23000101           [072] close      0  
2BCF  1AC00080           [073] jmp        4            ; to [78]
2BD3  1D810000           [074] getglobal  4   2        ; -1817107093
2BD7  59C10600           [075] loadk      5   27       ; "danger room...no synthesis target"
2BDB  22410001           [076] call       4   2   1  
2BDF  1E008000           [077] return     0   1      
2BE3  58400000           [078] test       1       1    ; to [80] if false
2BE7  1A000580           [079] jmp        21           ; to [101]
2BEB  1D810100           [080] getglobal  4   6        ; gGameRules
2BEF  24014702           [081] self       4   4   284  ; 2081656303
2BF3  22810001           [082] call       4   2   2  
2BF7  18410000           [083] test       4       1    ; to [85] if false
2BFB  1AC00380           [084] jmp        16           ; to [101]
2BFF  1D410700           [085] getglobal  4   29       ; Lotus_Game
2C03  0E814702           [086] gettable   4   4   286  ; "MT_TERRITORY"
fail op	35
2C07  63008101           [087] close      1  
2C0B  1AC00280           [088] jmp        12           ; to [101]
2C0F  1D410700           [089] getglobal  4   29       ; Lotus_Game
2C13  0EC14702           [090] gettable   4   4   287  ; "MT_DEFENSE"
fail op	35
2C17  63008101           [091] close      1  
2C1B  1AC00180           [092] jmp        8            ; to [101]
2C1F  1D410700           [093] getglobal  4   29       ; Lotus_Game
2C23  0E014802           [094] gettable   4   4   288  ; "MT_RAID"
fail op	35
2C27  63008101           [095] close      1  
2C2B  1AC00080           [096] jmp        4            ; to [101]
2C2F  1D410700           [097] getglobal  4   29       ; Lotus_Game
2C33  0E414802           [098] gettable   4   4   289  ; "MT_MASTERY"
fail op	35
2C37  23008101           [099] close      0  
2C3B  1AC00080           [100] jmp        4            ; to [105]
2C3F  1D810000           [101] getglobal  4   2        ; -1817107093
2C43  59810800           [102] loadk      5   34       ; "COLLECTOR:no target for this kind of mission"
2C47  22410001           [103] call       4   2   1  
2C4B  1E008000           [104] return     0   1      
2C4F  1D410700           [105] getglobal  4   29       ; Lotus_Game
2C53  0EC14802           [106] gettable   4   4   291  ; "MT_SURVIVAL"
fail op	35
2C57  23008101           [107] close      0  
2C5B  1A800380           [108] jmp        15           ; to [124]
2C5F  1D810100           [109] getglobal  4   6        ; gGameRules
2C63  24014902           [110] self       4   4   292  ; -317790213
2C67  93018000           [111] getupval   6   1      
2C6B  22818001           [112] call       4   3   2  
fail op	21
2C6F  15008182           [113] concat     0   261 4  
2C73  1A400080           [114] jmp        2            ; to [117]
2C77  1AC00180           [115] jmp        8            ; to [124]
2C7B  1AC0FD7F           [116] jmp        -8           ; to [109]
2C7F  5D810400           [117] getglobal  5   18       ; 538022378
2C83  9DC10400           [118] getglobal  6   19       ; 2144646525
2C87  D9410900           [119] loadk      7   37       ; 0
2C8B  19420900           [120] loadk      8   37       ; 0
2C8F  A2018001           [121] call       6   3   0  
2C93  62410000           [122] call       5   0   1  
2C97  1A00FC7F           [123] jmp        -15          ; to [109]
2C9B  53010000           [124] getupval   5   0      
2C9F  58410000           [125] test       5       1    ; to [127] if false
2CA3  1AC00080           [126] jmp        4            ; to [131]
2CA7  5D010000           [127] getglobal  5   0        ; _T
2CAB  4E41C002           [128] gettable   5   5   257  ; "tutorialActive"
2CAF  58010000           [129] test       5       0    ; to [131] if true
2CB3  1AC00080           [130] jmp        4            ; to [135]
2CB7  5D810000           [131] getglobal  5   2        ; -1817107093
2CBB  99C10000           [132] loadk      6   3        ; "tutorial active ... bailing"
2CBF  62410001           [133] call       5   2   1  
2CC3  1E008000           [134] return     0   1      
2CC7  5D810900           [135] getglobal  5   38       ; gPromotedToHost
2CCB  58410000           [136] test       5       1    ; to [138] if false
2CCF  1A800980           [137] jmp        39           ; to [177]
2CD3  5D810100           [138] getglobal  5   6        ; gGameRules
2CD7  A4C1C902           [139] self       6   5   295  ; 589574755
2CDB  13020001           [140] getupval   8   2      
2CDF  A2818001           [141] call       6   3   2  
2CE3  D3018001           [142] getupval   7   3      
2CE7  D8010000           [143] test       7       0    ; to [145] if true
2CEB  1A000080           [144] jmp        1            ; to [146]
2CEF  93010002           [145] getupval   6   4      
2CF3  DD010300           [146] getglobal  7   12       ; 1074689893
2CF7  12020003           [147] move       8   6      
2CFB  E2810001           [148] call       7   2   2  
2CFF  D8010000           [149] test       7       0    ; to [151] if true
2D03  1AC00080           [150] jmp        4            ; to [155]
2D07  DD810000           [151] getglobal  7   2        ; -1817107093
2D0B  19020A00           [152] loadk      8   40       ; "COLLECTOR: failed reqs: early out bailing on spawn setup"
2D0F  E2410001           [153] call       7   2   1  
2D13  1E008000           [154] return     0   1      
2D17  D3018002           [155] getupval   7   5      
2D1B  E2818000           [156] call       7   1   2  
fail op	35
2D1F  2340CA03           [157] close      0  
2D23  1A000080           [158] jmp        1            ; to [160]
2D27  1E008000           [159] return     0   1      
2D2B  DD810A00           [160] getglobal  7   42       ; gFlashMgr
2D2F  E4C1CA03           [161] self       7   7   299  ; 277467219
2D33  59020B00           [162] loadk      9   44       ; "LotusGameRules.TrapTesting"
2D37  E2818001           [163] call       7   3   2  
2D3B  D8010000           [164] test       7       0    ; to [166] if true
2D3F  1A800080           [165] jmp        3            ; to [169]
2D43  DD810400           [166] getglobal  7   18       ; 538022378
2D47  19020500           [167] loadk      8   20       ; 0
2D4B  E2410001           [168] call       7   2   1  
2D4F  D3010003           [169] getupval   7   6      
2D53  E2818000           [170] call       7   1   2  
2D57  D8410000           [171] test       7       1    ; to [173] if false
2D5B  1A000080           [172] jmp        1            ; to [174]
2D5F  1E008000           [173] return     0   1      
2D63  1D820400           [174] getglobal  8   18       ; 538022378
2D67  59420B00           [175] loadk      9   45       ; 0
2D6B  22420001           [176] call       8   2   1  
2D6F  1D820900           [177] getglobal  8   38       ; gPromotedToHost
2D73  18020000           [178] test       8       0    ; to [180] if true
2D77  1A000580           [179] jmp        21           ; to [201]
2D7B  1D020300           [180] getglobal  8   12       ; 1074689893
2D7F  5D820100           [181] getglobal  9   6        ; gGameRules
2D83  6482CB04           [182] self       9   9   302  ; -1292075025
2D87  62020001           [183] call       9   2   0  
2D8B  22820000           [184] call       8   0   2  
2D8F  18420000           [185] test       8       1    ; to [187] if false
2D93  1A400380           [186] jmp        14           ; to [201]
2D97  13028003           [187] getupval   8   7      
2D9B  22428000           [188] call       8   1   1  
2D9F  1D820100           [189] getglobal  8   6        ; gGameRules
2DA3  24C24B04           [190] self       8   8   303  ; 1781761594
2DA7  93020004           [191] getupval   10  8      
2DAB  22828001           [192] call       8   3   2  
fail op	35
2DAF  23404A04           [193] close      0  
2DB3  1A800080           [194] jmp        3            ; to [198]
2DB7  1D820000           [195] getglobal  8   2        ; -1817107093
2DBB  59020C00           [196] loadk      9   48       ; "COLLECTOR: new host is unable to create path to target"
2DBF  22420001           [197] call       8   2   1  
2DC3  1D820400           [198] getglobal  8   18       ; 538022378
2DC7  59420100           [199] loadk      9   5        ; 0
2DCB  22420001           [200] call       8   2   1  
2DCF  17020000           [201] loadbool   8   0   0    ; false
2DD3  18020000           [202] test       8       0    ; to [204] if true
2DD7  1A000580           [203] jmp        21           ; to [225]
2DDB  5D020300           [204] getglobal  9   12       ; 1074689893
2DDF  93020004           [205] getupval   10  8      
2DE3  62820001           [206] call       9   2   2  
2DE7  58420000           [207] test       9       1    ; to [209] if false
2DEB  1AC00380           [208] jmp        16           ; to [225]
2DEF  53020004           [209] getupval   9   8      
2DF3  6442CC04           [210] self       9   9   305  ; -565659446
2DF7  DD820C00           [211] getglobal  11  50       ; -332969190
2DFB  19C30C00           [212] loadk      12  51       ; "ScanComplete"
2DFF  E2820001           [213] call       11  2   2  
2E03  19430100           [214] loadk      12  5        ; 0
2E07  62420002           [215] call       9   4   1  
2E0B  53020004           [216] getupval   9   8      
2E0F  6402CD04           [217] self       9   9   308  ; -1411785325
2E13  62820001           [218] call       9   2   2  
2E17  6442CD04           [219] self       9   9   309  ; 1038470555
2E1B  D7028000           [220] loadbool   11  1   0    ; true
2E1F  1D830C00           [221] getglobal  12  50       ; -332969190
2E23  59830D00           [222] loadk      13  54       ; "RARE_SPAWN"
2E27  22030001           [223] call       12  2   0  
2E2B  62420000           [224] call       9   0   1  
2E2F  5D020300           [225] getglobal  9   12       ; 1074689893
2E33  93020004           [226] getupval   10  8      
2E37  62820001           [227] call       9   2   2  
2E3B  58420000           [228] test       9       1    ; to [230] if false
2E3F  1A000C80           [229] jmp        49           ; to [279]
2E43  53020004           [230] getupval   9   8      
2E47  64C2CD04           [231] self       9   9   311  ; -1903333237
2E4B  62820001           [232] call       9   2   2  
2E4F  9D820100           [233] getglobal  10  6        ; gGameRules
2E53  A4024E05           [234] self       10  10  312  ; 1283880872
2E57  A2820001           [235] call       10  2   2  
fail op	21
2E5B  15808204           [236] concat     0   9   10 
2E5F  1AC00280           [237] jmp        12           ; to [250]
2E63  53028004           [238] getupval   9   9      
2E67  58420000           [239] test       9       1    ; to [241] if false
2E6B  1A000280           [240] jmp        9            ; to [250]
2E6F  5D820100           [241] getglobal  9   6        ; gGameRules
2E73  6442CE04           [242] self       9   9   313  ; 239736392
2E77  62820001           [243] call       9   2   2  
fail op	8
2E7B  48020005           [244] setupval   9   10     
2E7F  5D820100           [245] getglobal  9   6        ; gGameRules
2E83  6482CE04           [246] self       9   9   314  ; 2129875078
2E87  DD420700           [247] getglobal  11  29       ; Lotus_Game
2E8B  CEC2CE05           [248] gettable   11  11  315  ; "LotusBaseGameRules_CT_THRESHOLD_REACHED"
2E8F  62428001           [249] call       9   3   1  
2E93  53020004           [250] getupval   9   8      
2E97  64C2CD04           [251] self       9   9   311  ; -1903333237
2E9B  62820001           [252] call       9   2   2  
fail op	35
2E9F  6340C104           [253] close      1  
2EA3  1A000180           [254] jmp        5            ; to [260]
2EA7  53020004           [255] getupval   9   8      
2EAB  6402CF04           [256] self       9   9   316  ; 1511086594
2EAF  62820001           [257] call       9   2   2  
2EB3  58020000           [258] test       9       0    ; to [260] if true
2EB7  1AC00180           [259] jmp        8            ; to [268]
2EBB  53028005           [260] getupval   9   11     
2EBF  58420000           [261] test       9       1    ; to [263] if false
2EC3  1A000180           [262] jmp        5            ; to [268]
2EC7  5D820100           [263] getglobal  9   6        ; gGameRules
2ECB  6482CE04           [264] self       9   9   314  ; 2129875078
2ECF  DD420700           [265] getglobal  11  29       ; Lotus_Game
2ED3  CE42CF05           [266] gettable   11  11  317  ; "LotusBaseGameRules_CT_KILLED"
2ED7  62428001           [267] call       9   3   1  
2EDB  53020006           [268] getupval   9   12     
2EDF  62828000           [269] call       9   1   2  
2EE3  58020000           [270] test       9       0    ; to [272] if true
2EE7  1A000080           [271] jmp        1            ; to [273]
2EEB  1A400180           [272] jmp        6            ; to [279]
2EEF  5D820400           [273] getglobal  9   18       ; 538022378
2EF3  99820F00           [274] loadk      10  62       ; 0
2EF7  62420001           [275] call       9   2   1  
2EFB  1AC0F27F           [276] jmp        -52          ; to [225]
2EFF  1A000080           [277] jmp        1            ; to [279]
2F03  1A40F27F           [278] jmp        -54          ; to [225]
2F07  5D820000           [279] getglobal  9   2        ; -1817107093
2F0B  99C20F00           [280] loadk      10  63       ; "Exiting RareSpawnScript"
2F0F  62420001           [281] call       9   2   1  
2F13  1E008000           [282] return     0   1      
                         * constants:
2F17  40                 sizek (64)
2F18  04                 const type 4
2F19  03                 string size (3)
2F1A  5F5400             "_T\0"
                         const [0]: "_T"
2F1D  04                 const type 4
2F1E  0F                 string size (15)
2F1F  7475746F7269616C+  "tutorial"
2F27  41637469766500     "Active\0"
                         const [1]: "tutorialActive"
2F2E  01                 const type 3
2F2F  6B25B193           const [2]: (-1817107093)
2F33  04                 const type 4
2F34  1C                 string size (28)
2F35  7475746F7269616C+  "tutorial"
2F3D  2061637469766520+  " active "
2F45  2E2E2E206261696C+  "... bail"
2F4D  696E6700           "ing\0"
                         const [3]: "tutorial active ... bailing"
2F51  04                 const type 4
2F52  14                 string size (20)
2F53  4C61737442726561+  "LastBrea"
2F5B  644372756D62496E+  "dCrumbIn"
2F63  64657800           "dex\0"
                         const [4]: "LastBreadCrumbIndex"
2F67  03                 const type 3
2F68  00000000           const [5]: (0)
2F6C  04                 const type 4
2F6D  0B                 string size (11)
2F6E  6747616D6552756C+  "gGameRul"
2F76  657300             "es\0"
                         const [6]: "gGameRules"
2F79  01                 const type 3
2F7A  497363B8           const [7]: (-1201441975)
2F7E  04                 const type 4
2F7F  11                 string size (17)
2F80  6172636877696E67+  "archwing"
2F88  5265717569726564+  "Required"
2F90  00                 "\0"
                         const [8]: "archwingRequired"
2F91  04                 const type 4
2F92  0E                 string size (14)
2F93  6751756573744D69+  "gQuestMi"
2F9B  7373696F6E00       "ssion\0"
                         const [9]: "gQuestMission"
2FA1  04                 const type 4
2FA2  07                 string size (7)
2FA3  676F616C496400     "goalId\0"
                         const [10]: "goalId"
2FAA  04                 const type 4
2FAB  01                 string size (0)
                         const [11]: ""
2FAD  01                 const type 3
2FAE  65770E40           const [12]: (1074689893)
2FB2  04                 const type 4
2FB3  08                 string size (8)
2FB4  67526567696F6E00   "gRegion\0"
                         const [13]: "gRegion"
2FBC  01                 const type 3
2FBD  36C033A9           const [14]: (-1456226250)
2FC1  01                 const type 3
2FC2  2F8B2F7B           const [15]: (2066713391)
2FC6  04                 const type 4
2FC7  08                 string size (8)
2FC8  67436C69656E7400   "gClient\0"
                         const [16]: "gClient"
2FD0  01                 const type 3
2FD1  CE02A228           const [17]: (681706190)
2FD5  01                 const type 3
2FD6  EA911120           const [18]: (538022378)
2FDA  01                 const type 3
2FDB  7DB5D47F           const [19]: (2144646525)
2FDF  03                 const type 3
2FE0  0000A040           const [20]: (0)
2FE4  01                 const type 3
2FE5  D48E598B           const [21]: (-1957065004)
2FE9  04                 const type 4
2FEA  1B                 string size (27)
2FEB  674C6F7475734261+  "gLotusBa"
2FF3  736550767047616D+  "sePvpGam"
2FFB  6552756C65735479+  "eRulesTy"
3003  706500             "pe\0"
                         const [22]: "gLotusBasePvpGameRulesType"
3006  01                 const type 3
3007  965607D2           const [23]: (-771271018)
300B  04                 const type 4
300C  06                 string size (6)
300D  6C6576656C00       "level\0"
                         const [24]: "level"
3013  01                 const type 3
3014  19C50DE2           const [25]: (-502414055)
3018  04                 const type 4
3019  10                 string size (16)
301A  64616E676572526F+  "dangerRo"
3022  6F6D4C6576656C00   "omLevel\0"
                         const [26]: "dangerRoomLevel"
302A  04                 const type 4
302B  22                 string size (34)
302C  64616E6765722072+  "danger r"
3034  6F6F6D2E2E2E6E6F+  "oom...no"
303C  2073796E74686573+  " synthes"
3044  6973207461726765+  "is targe"
304C  7400               "t\0"
                         const [27]: "danger room...no synthesis target"
304E  01                 const type 3
304F  EF8D137C           const [28]: (2081656303)
3053  04                 const type 4
3054  0B                 string size (11)
3055  4C6F7475735F4761+  "Lotus_Ga"
305D  6D6500             "me\0"
                         const [29]: "Lotus_Game"
3060  04                 const type 4
3061  0D                 string size (13)
3062  4D545F5445525249+  "MT_TERRI"
306A  544F525900         "TORY\0"
                         const [30]: "MT_TERRITORY"
306F  04                 const type 4
3070  0B                 string size (11)
3071  4D545F444546454E+  "MT_DEFEN"
3079  534500             "SE\0"
                         const [31]: "MT_DEFENSE"
307C  04                 const type 4
307D  08                 string size (8)
307E  4D545F5241494400   "MT_RAID\0"
                         const [32]: "MT_RAID"
3086  04                 const type 4
3087  0B                 string size (11)
3088  4D545F4D41535445+  "MT_MASTE"
3090  525900             "RY\0"
                         const [33]: "MT_MASTERY"
3093  04                 const type 4
3094  2D                 string size (45)
3095  434F4C4C4543544F+  "COLLECTO"
309D  523A6E6F20746172+  "R:no tar"
30A5  67657420666F7220+  "get for "
30AD  74686973206B696E+  "this kin"
30B5  64206F66206D6973+  "d of mis"
30BD  73696F6E00         "sion\0"
                         const [34]: "COLLECTOR:no target for this kind of mission"
30C2  04                 const type 4
30C3  0C                 string size (12)
30C4  4D545F5355525649+  "MT_SURVI"
30CC  56414C00           "VAL\0"
                         const [35]: "MT_SURVIVAL"
30D0  01                 const type 3
30D1  FBE70EED           const [36]: (-317790213)
30D5  03                 const type 3
30D6  00007041           const [37]: (0)
30DA  04                 const type 4
30DB  10                 string size (16)
30DC  6750726F6D6F7465+  "gPromote"
30E4  64546F486F737400   "dToHost\0"
                         const [38]: "gPromotedToHost"
30EC  01                 const type 3
30ED  63322423           const [39]: (589574755)
30F1  04                 const type 4
30F2  39                 string size (57)
30F3  434F4C4C4543544F+  "COLLECTO"
30FB  523A206661696C65+  "R: faile"
3103  6420726571733A20+  "d reqs: "
310B  6561726C79206F75+  "early ou"
3113  74206261696C696E+  "t bailin"
311B  67206F6E20737061+  "g on spa"
3123  776E207365747570+  "wn setup"
312B  00                 "\0"
                         const [40]: "COLLECTOR: failed reqs: early out bailing on spawn setup"
312C  01                 const type 3
312D  00000000           const [41]: (0)
3131  04                 const type 4
3132  0A                 string size (10)
3133  67466C6173684D67+  "gFlashMg"
313B  7200               "r\0"
                         const [42]: "gFlashMgr"
313D  01                 const type 3
313E  53D08910           const [43]: (277467219)
3142  04                 const type 4
3143  1B                 string size (27)
3144  4C6F74757347616D+  "LotusGam"
314C  6552756C65732E54+  "eRules.T"
3154  7261705465737469+  "rapTesti"
315C  6E6700             "ng\0"
                         const [44]: "LotusGameRules.TrapTesting"
315F  03                 const type 3
3160  00000040           const [45]: (0)
3164  01                 const type 3
3165  EF7FFCB2           const [46]: (-1292075025)
3169  01                 const type 3
316A  3A86336A           const [47]: (1781761594)
316E  04                 const type 4
316F  37                 string size (55)
3170  434F4C4C4543544F+  "COLLECTO"
3178  523A206E65772068+  "R: new h"
3180  6F73742069732075+  "ost is u"
3188  6E61626C6520746F+  "nable to"
3190  2063726561746520+  " create "
3198  7061746820746F20+  "path to "
31A0  74617267657400     "target\0"
                         const [48]: "COLLECTOR: new host is unable to create path to target"
31A7  01                 const type 3
31A8  CAB848DE           const [49]: (-565659446)
31AC  01                 const type 3
31AD  1A4B27EC           const [50]: (-332969190)
31B1  04                 const type 4
31B2  0D                 string size (13)
31B3  5363616E436F6D70+  "ScanComp"
31BB  6C65746500         "lete\0"
                         const [51]: "ScanComplete"
31C0  01                 const type 3
31C1  93DDD9AB           const [52]: (-1411785325)
31C5  01                 const type 3
31C6  9BCDE53D           const [53]: (1038470555)
31CA  04                 const type 4
31CB  0B                 string size (11)
31CC  524152455F535041+  "RARE_SPA"
31D4  574E00             "WN\0"
                         const [54]: "RARE_SPAWN"
31D7  01                 const type 3
31D8  8B708D8E           const [55]: (-1903333237)
31DC  01                 const type 3
31DD  A877864C           const [56]: (1283880872)
31E1  01                 const type 3
31E2  48164A0E           const [57]: (239736392)
31E6  01                 const type 3
31E7  8650F37E           const [58]: (2129875078)
31EB  04                 const type 4
31EC  28                 string size (40)
31ED  4C6F747573426173+  "LotusBas"
31F5  6547616D6552756C+  "eGameRul"
31FD  65735F43545F5448+  "es_CT_TH"
3205  524553484F4C445F+  "RESHOLD_"
320D  5245414348454400   "REACHED\0"
                         const [59]: "LotusBaseGameRules_CT_THRESHOLD_REACHED"
3215  01                 const type 3
3216  025A115A           const [60]: (1511086594)
321A  04                 const type 4
321B  1D                 string size (29)
321C  4C6F747573426173+  "LotusBas"
3224  6547616D6552756C+  "eGameRul"
322C  65735F43545F4B49+  "es_CT_KI"
3234  4C4C454400         "LLED\0"
                         const [61]: "LotusBaseGameRules_CT_KILLED"
3239  03                 const type 3
323A  0000803F           const [62]: (0)
323E  04                 const type 4
323F  18                 string size (24)
3240  45786974696E6720+  "Exiting "
3248  5261726553706177+  "RareSpaw"
3250  6E53637269707400   "nScript\0"
                         const [63]: "Exiting RareSpawnScript"
                         * functions:
3258  00                 sizep (0)
                         * lines:
325A  02                 sizelineinfo (282)
                         [pc] (line)
325B  A7                 [001] (-89)
325C  01                 [002] (-89)
325D  00                 [003] (-89)
325E  00                 [004] (-89)
325F  A7                 [005] (-89)
3260  01                 [006] (-89)
3261  00                 [007] (-89)
3262  00                 [008] (-88)
3263  A7                 [009] (-88)
3264  01                 [010] (-88)
3265  00                 [011] (-87)
3266  00                 [012] (-85)
3267  A7                 [013] (-85)
3268  01                 [014] (-84)
3269  00                 [015] (-84)
326A  00                 [016] (-84)
326B  A7                 [017] (-83)
326C  01                 [018] (-83)
326D  00                 [019] (-83)
326E  00                 [020] (-82)
326F  A7                 [021] (-79)
3270  01                 [022] (-79)
3271  00                 [023] (-79)
3272  00                 [024] (-79)
3273  A7                 [025] (-78)
3274  01                 [026] (-75)
3275  00                 [027] (-75)
3276  00                 [028] (-75)
3277  A8                 [029] (-74)
3278  01                 [030] (-71)
3279  00                 [031] (-71)
327A  00                 [032] (-71)
327B  A8                 [033] (-71)
327C  01                 [034] (-71)
327D  00                 [035] (-71)
327E  00                 [036] (-71)
327F  A8                 [037] (-70)
3280  01                 [038] (-67)
3281  00                 [039] (-67)
3282  00                 [040] (-67)
3283  A9                 [041] (-67)
3284  01                 [042] (-67)
3285  00                 [043] (-67)
3286  00                 [044] (-67)
3287  AB                 [045] (-67)
3288  01                 [046] (-67)
3289  00                 [047] (-67)
328A  00                 [048] (-67)
328B  AB                 [049] (-67)
328C  01                 [050] (-67)
328D  00                 [051] (-67)
328E  00                 [052] (-67)
328F  AC                 [053] (-66)
3290  01                 [054] (-66)
3291  00                 [055] (-66)
3292  00                 [056] (-66)
3293  AC                 [057] (-66)
3294  01                 [058] (-66)
3295  00                 [059] (-66)
3296  00                 [060] (-64)
3297  AC                 [061] (-64)
3298  01                 [062] (-64)
3299  00                 [063] (-64)
329A  00                 [064] (-63)
329B  AD                 [065] (-63)
329C  01                 [066] (-63)
329D  00                 [067] (-63)
329E  00                 [068] (-62)
329F  AD                 [069] (-62)
32A0  01                 [070] (-62)
32A1  00                 [071] (-60)
32A2  00                 [072] (-60)
32A3  AD                 [073] (-60)
32A4  01                 [074] (-59)
32A5  00                 [075] (-59)
32A6  00                 [076] (-59)
32A7  AE                 [077] (-58)
32A8  01                 [078] (-55)
32A9  00                 [079] (-55)
32AA  00                 [080] (-55)
32AB  B1                 [081] (-55)
32AC  01                 [082] (-55)
32AD  00                 [083] (-55)
32AE  00                 [084] (-55)
32AF  B1                 [085] (-55)
32B0  01                 [086] (-55)
32B1  00                 [087] (-55)
32B2  00                 [088] (-55)
32B3  B1                 [089] (-55)
32B4  01                 [090] (-55)
32B5  00                 [091] (-55)
32B6  00                 [092] (-55)
32B7  B1                 [093] (-55)
32B8  01                 [094] (-55)
32B9  00                 [095] (-55)
32BA  00                 [096] (-55)
32BB  B2                 [097] (-55)
32BC  01                 [098] (-55)
32BD  00                 [099] (-55)
32BE  00                 [100] (-55)
32BF  B5                 [101] (-54)
32C0  01                 [102] (-54)
32C1  00                 [103] (-54)
32C2  00                 [104] (-53)
32C3  B5                 [105] (-50)
32C4  01                 [106] (-50)
32C5  00                 [107] (-50)
32C6  00                 [108] (-50)
32C7  B5                 [109] (-47)
32C8  01                 [110] (-47)
32C9  00                 [111] (-47)
32CA  00                 [112] (-47)
32CB  B6                 [113] (-46)
32CC  01                 [114] (-46)
32CD  00                 [115] (-45)
32CE  00                 [116] (-45)
32CF  B9                 [117] (-43)
32D0  01                 [118] (-43)
32D1  00                 [119] (-43)
32D2  00                 [120] (-43)
32D3  B9                 [121] (-43)
32D4  01                 [122] (-43)
32D5  00                 [123] (-42)
32D6  00                 [124] (-38)
32D7  B9                 [125] (-38)
32D8  01                 [126] (-38)
32D9  00                 [127] (-38)
32DA  00                 [128] (-38)
32DB  B9                 [129] (-38)
32DC  01                 [130] (-38)
32DD  00                 [131] (-37)
32DE  00                 [132] (-37)
32DF  B9                 [133] (-37)
32E0  01                 [134] (-36)
32E1  00                 [135] (-32)
32E2  00                 [136] (-32)
32E3  B9                 [137] (-32)
32E4  01                 [138] (-30)
32E5  00                 [139] (-29)
32E6  00                 [140] (-29)
32E7  B9                 [141] (-29)
32E8  01                 [142] (-27)
32E9  00                 [143] (-27)
32EA  00                 [144] (-27)
32EB  BA                 [145] (-26)
32EC  01                 [146] (-23)
32ED  00                 [147] (-23)
32EE  00                 [148] (-23)
32EF  BD                 [149] (-23)
32F0  01                 [150] (-23)
32F1  00                 [151] (-22)
32F2  00                 [152] (-22)
32F3  BD                 [153] (-22)
32F4  01                 [154] (-21)
32F5  00                 [155] (-18)
32F6  00                 [156] (-18)
32F7  BD                 [157] (-18)
32F8  01                 [158] (-18)
32F9  00                 [159] (-17)
32FA  00                 [160] (-13)
32FB  BD                 [161] (-13)
32FC  01                 [162] (-13)
32FD  00                 [163] (-13)
32FE  00                 [164] (-13)
32FF  BD                 [165] (-13)
3300  01                 [166] (-12)
3301  00                 [167] (-12)
3302  00                 [168] (-12)
3303  BD                 [169] (-9)
3304  01                 [170] (-9)
3305  00                 [171] (-7)
3306  00                 [172] (-7)
3307  BD                 [173] (-6)
3308  01                 [174] (-3)
3309  00                 [175] (-3)
330A  00                 [176] (-3)
330B  BD                 [177] (0)
330C  01                 [178] (0)
330D  00                 [179] (0)
330E  00                 [180] (1)
330F  BD                 [181] (1)
3310  01                 [182] (1)
3311  00                 [183] (1)
3312  00                 [184] (1)
3313  BD                 [185] (1)
3314  01                 [186] (1)
3315  00                 [187] (3)
3316  00                 [188] (3)
3317  BD                 [189] (4)
3318  01                 [190] (4)
3319  00                 [191] (4)
331A  00                 [192] (4)
331B  BD                 [193] (4)
331C  01                 [194] (4)
331D  00                 [195] (5)
331E  00                 [196] (5)
331F  BD                 [197] (5)
3320  01                 [198] (7)
3321  00                 [199] (7)
3322  00                 [200] (7)
3323  BD                 [201] (12)
3324  01                 [202] (13)
3325  00                 [203] (13)
3326  00                 [204] (13)
3327  BD                 [205] (13)
3328  01                 [206] (13)
3329  00                 [207] (13)
332A  00                 [208] (13)
332B  BE                 [209] (14)
332C  01                 [210] (14)
332D  00                 [211] (14)
332E  00                 [212] (14)
332F  BE                 [213] (14)
3330  01                 [214] (14)
3331  00                 [215] (14)
3332  00                 [216] (15)
3333  BE                 [217] (15)
3334  01                 [218] (15)
3335  00                 [219] (15)
3336  00                 [220] (15)
3337  BE                 [221] (15)
3338  01                 [222] (15)
3339  00                 [223] (15)
333A  00                 [224] (15)
333B  BE                 [225] (19)
333C  01                 [226] (19)
333D  00                 [227] (19)
333E  00                 [228] (19)
333F  BE                 [229] (19)
3340  01                 [230] (20)
3341  00                 [231] (20)
3342  00                 [232] (20)
3343  BE                 [233] (20)
3344  01                 [234] (20)
3345  00                 [235] (20)
3346  00                 [236] (20)
3347  C0                 [237] (20)
3348  01                 [238] (20)
3349  00                 [239] (20)
334A  00                 [240] (20)
334B  C0                 [241] (21)
334C  01                 [242] (21)
334D  00                 [243] (21)
334E  00                 [244] (21)
334F  C0                 [245] (22)
3350  01                 [246] (22)
3351  00                 [247] (22)
3352  00                 [248] (22)
3353  C0                 [249] (22)
3354  01                 [250] (24)
3355  00                 [251] (24)
3356  00                 [252] (24)
3357  C1                 [253] (24)
3358  01                 [254] (24)
3359  00                 [255] (24)
335A  00                 [256] (24)
335B  C1                 [257] (24)
335C  01                 [258] (24)
335D  00                 [259] (24)
335E  00                 [260] (24)
335F  C1                 [261] (24)
3360  01                 [262] (24)
3361  00                 [263] (25)
3362  00                 [264] (25)
3363  C1                 [265] (25)
3364  01                 [266] (25)
3365  00                 [267] (25)
3366  00                 [268] (27)
3367  C2                 [269] (27)
3368  01                 [270] (27)
3369  00                 [271] (27)
336A  00                 [272] (28)
336B  C2                 [273] (30)
336C  01                 [274] (30)
336D  00                 [275] (30)
336E  00                 [276] (30)
336F  C2                 [277] (32)
3370  01                 [278] (33)
3371  00                 [279] (36)
3372  00                 [280] (36)
3373  C4                 [281] (36)
3374  01                 [282] (37)
                         * locals:
36C3  00                 sizelocvars (0)
                         * upvalues:
36C4  00                 sizeupvalues (0)
                         ** end of function **

                         * lines:
36C5  68                 sizelineinfo (104)
                         [pc] (line)
36C6  10                 [001] (16)
36C7  00                 [002] (16)
36C8  00                 [003] (16)
36C9  00                 [004] (17)
36CA  10                 [005] (17)
36CB  00                 [006] (17)
36CC  00                 [007] (21)
36CD  00                 [008] (22)
36CE  10                 [009] (24)
36CF  00                 [010] (25)
36D0  00                 [011] (31)
36D1  00                 [012] (32)
36D2  11                 [013] (33)
36D3  00                 [014] (34)
36D4  00                 [015] (35)
36D5  00                 [016] (36)
36D6  11                 [017] (39)
36D7  00                 [018] (39)
36D8  00                 [019] (39)
36D9  00                 [020] (39)
36DA  11                 [021] (39)
36DB  00                 [022] (39)
36DC  00                 [023] (39)
36DD  00                 [024] (39)
36DE  15                 [025] (39)
36DF  00                 [026] (39)
36E0  00                 [027] (39)
36E1  00                 [028] (39)
36E2  16                 [029] (39)
36E3  00                 [030] (39)
36E4  00                 [031] (40)
36E5  00                 [032] (40)
36E6  18                 [033] (40)
36E7  00                 [034] (41)
36E8  00                 [035] (41)
36E9  00                 [036] (41)
36EA  19                 [037] (43)
36EB  00                 [038] (43)
36EC  00                 [039] (43)
36ED  00                 [040] (69)
36EE  1F                 [041] (69)
36EF  00                 [042] (86)
36F0  00                 [043] (95)
36F1  00                 [044] (95)
36F2  20                 [045] (95)
36F3  00                 [046] (-101)
36F4  00                 [047] (-101)
36F5  00                 [048] (-101)
36F6  21                 [049] (-2)
36F7  00                 [050] (-2)
36F8  00                 [051] (-2)
36F9  00                 [052] (-2)
36FA  22                 [053] (-2)
36FB  00                 [054] (-2)
36FC  00                 [055] (-2)
36FD  00                 [056] (-2)
36FE  23                 [057] (10)
36FF  00                 [058] (10)
3700  00                 [059] (80)
3701  00                 [060] (80)
3702  24                 [061] (80)
3703  00                 [062] (80)
3704  00                 [063] (87)
3705  00                 [064] (87)
3706  27                 [065] (87)
3707  00                 [066] (94)
3708  00                 [067] (94)
3709  00                 [068] (94)
370A  27                 [069] (101)
370B  00                 [070] (101)
370C  00                 [071] (101)
370D  00                 [072] (108)
370E  27                 [073] (108)
370F  00                 [074] (-93)
3710  00                 [075] (-93)
3711  00                 [076] (-93)
3712  27                 [077] (-93)
3713  00                 [078] (-93)
3714  00                 [079] (-93)
3715  00                 [080] (-93)
3716  27                 [081] (-93)
3717  00                 [082] (-93)
3718  00                 [083] (-93)
3719  00                 [084] (-93)
371A  27                 [085] (-93)
371B  00                 [086] (-93)
371C  00                 [087] (-91)
371D  00                 [088] (37)
371E  27                 [089] (37)
371F  00                 [090] (37)
3720  00                 [091] (37)
3721  00                 [092] (37)
3722  27                 [093] (37)
3723  00                 [094] (37)
3724  00                 [095] (37)
3725  00                 [096] (37)
3726  27                 [097] (37)
3727  00                 [098] (37)
3728  00                 [099] (37)
3729  00                 [100] (37)
372A  27                 [101] (37)
372B  00                 [102] (37)
372C  00                 [103] (-90)
372D  00                 [104] (37)
                         * locals:
3866  00                 sizelocvars (0)
                         * upvalues:
3867  00                 sizeupvalues (0)
                         ** end of function **

3868                     ** end of chunk **
