1	C:\wlua_dump\path\Lotus\Scripts\QuestsApostasy.lua
Pos   Hex Data           Description or Code
------------------------------------------------------------------------
0000                     ** source chunk: C:\wlua_dump\path\Lotus\Scripts\QuestsApostasy.lua
                         ** global header start **
0000  7F                 header signature: ""
0001  00                 version (major:minor hex digits)
0002  00                 format (0=official)
0003  00                 endianness (1=little endian)
0004  00                 size of int (bytes)
0005  00                 size of size_t (bytes)
0006  02                 size of Instruction (bytes)
0007  21                 size of number (bytes)
0008  A2                 integral (1=integral)
4162
                         * number type: single
                         * x86 standard (32-bit, little endian, doubles)
                         ** global header end **
/Lotus/Types/Input/ApostasyOperatorCanRunInputFilter
/EE/Types/Effects/Spawner
/Lotus/Types/Actions/KneelReplicatedHitSwitch
/Lotus/Types/Keys/PriestFrameQuest/PriestQuestKeyChain
/Lotus/Types/Keys/SacrificeQuest/SacrificeQuestKeyChain
/Lotus/Types/Keys/ChimeraQuest/ChimeraKeyChain
EmitterWorldPos
DistortScale
FadeParams
AlphaScale
UnlitAtten
Lotus.Scripts.Libs.TableLib
Lotus.Scripts.Libs.TransmissionSet
Lotus.Interface.LotusUtilities
Lotus.Interface.LotusNetworkUtilities
OnTouched
MissionSetUp
ApostasySplineFadeOut
UpdateSplineMat
PauseOwnedNpcAvatars
FallTrigger
FovLerp
SwitchInputFilters
OnFinished
OnProgressQuest
OnActiveQuestSet
OnGiveQuest
OnUpdateSessionSettings
ApostasyJustCompleted
ShipSetUp
OutroCinematicTriggered
ApostasyPoint
Apostasy - Queueing transmission: 
_T
EnableApostasySplinesIdx
Enable
gGameRules
goalTag
Apostasy
gRegion
NotApostasyForwarder
TriggerPort
EMPTY_SYMBOL
OPERATOR_TRANSFERENCE
_T
MissionTransmissionSet
ApostasySplinePath
table
z
y
FLT_MAX
ApostasySplines
ApostasySplinesIndices
splineType
ZERO_VECTOR
ZERO_ROTATION
math
transmissionTriggerType
OnTouched
ApostasySplineFadeOut
Apostasy - Playing transmission: 
_T
ApostasySplineFadeOut
_T
ApostasySplineTickInit
ApostasySplines
ApostasySplinesIndices
ApostasySplinePath
gRegion
splineSequencer
ZERO_ROTATION
gSequencerType
math
min
max
FLT_MAX
VectorSub
Normalize
ApostasySplineFadeOut
EnableApostasySplinesIdx
curTransmission
TransmissionSoundInstance
splineMat
x
y
z
Enable
Disable
gRegion
APOSTASY
VoidOperatorPathA2
gLotusNpcAvatarType
table
gTennoAvatarType
gLotusOperatorAvatarType
gGameRules
goalTag
Apostasy
EMPTY_SYMBOL
gRegion
ApostasyFallTeleport
postProcess
fade
_T
HideTransferenceFx
MissionTransmissionSet
Fall
Engine
SLOT_2
SLOT_6
operatorInputFilter
heading
PauseOwnedNpcAvatars
operatorLandingAnim
ATMM_ANIMATION_HORIZ_PHYSICS_VERT
PRT_ONCE
operatorLandingSound
SP_VERY_LOW
operatorAttachTypes
Burst
Operator
Realm
gRegion
z
postProcess
LotusRoomTunnelFx
math
gDecorationType
fadeMats
fadeMatDefaults
gParticleSysType
gRegion
operatorInputFilter
_T
ApostasyActionTriggered
keyChainWRes
OnProgressQuest
math
_T
BackgroundMovie
CheckQuests

OnActiveQuestSet
_T
BackgroundMovie
ShowBlockingMessage
1
Retrying SetActiveQuest
math
0
Lotus_Game
mRewardType
RT_CONSUMABLE
mProductCategory
Engine
Item_QuestKeys
mItemType
OnGiveQuest
_T
BackgroundMovie
ShowBlockingMessage
1
Retrying AcceptQuest.
math
0
gMatchingService
_T
curTransmission
QueuedTransmissions
UISys
keyChainWRes
gRegion
postProcess
radialBlurStrength
fade
mItemType
mCompleted
mMainMission
mKey
difficulty
keyChainName
levelKeyName
StartingSoloMission
KEY_TAG
_T
curTransmission
QueuedTransmissions
pauseTransmissions
gFlashMgr
/Lotus/Interface/Background.swf
QuestCompleted
keyChainWRes
BlockTransmissionsFromSender
/Lotus/Language/Bosses/Lotus
_G
UIMovie_EndOfQuestMovie
apostasyTransmissionSet
OrdisLotusMissing
_G
ApostasyJustCompleted
gRegion
LotusHelmet
gSequencerType
gDecorationType
_T
syncingInventory
gPlayerProfileMgr
mItemType
keyChainWRes
mProgress
mCompletion
mCompleted
UISys
ChimeraHelmetTwinPoint
twinDecoType
hairType

string
[Hh]ood
[Mm]ask
OnFinished
gMatchingService
questInfo
activeQuest
difficulty
stage
ApostasyActionTriggered
Effects
gParticleSysType
gGameRules
keyChainName
keyChainWRes
gRegion
postProcess
fade
gPlayerProfileMgr
UISys
apostasyGlobalFlagHack
_G
ApostasyJustCompleted
DisableLoadingDiorama
Engine
                         
0001                     ** function [0] definition (level 1)
                         ** start of function **
0001  00                 string size (0)
                         source name: (none)
0002  00                 line defined (0)
0003  00                 last line defined (0)
0004  00                 nups (0)
0005  00                 numparams (0)
0006  02                 is_vararg (2)
0007  21                 maxstacksize (33)
                         * code:
0009  01                 sizecode (162)
000A  1D000000           [001] getglobal  0   0        ; 2083004503
000E  59400000           [002] loadk      1   1        ; "/Lotus/Types/Input/ApostasyOperatorCanRunInputFilter"
0012  22800001           [003] call       0   2   2  
0016  5D800000           [004] getglobal  1   2        ; 738251817
001A  99C00000           [005] loadk      2   3        ; "/EE/Types/Effects/Spawner"
001E  62800001           [006] call       1   2   2  
0022  9D800000           [007] getglobal  2   2        ; 738251817
0026  D9000100           [008] loadk      3   4        ; "/Lotus/Types/Actions/KneelReplicatedHitSwitch"
002A  A2800001           [009] call       2   2   2  
002E  DD800000           [010] getglobal  3   2        ; 738251817
0032  19410100           [011] loadk      4   5        ; "/Lotus/Types/Keys/PriestFrameQuest/PriestQuestKeyChain"
0036  E2800001           [012] call       3   2   2  
003A  1D810000           [013] getglobal  4   2        ; 738251817
003E  59810100           [014] loadk      5   6        ; "/Lotus/Types/Keys/SacrificeQuest/SacrificeQuestKeyChain"
0042  22810001           [015] call       4   2   2  
0046  5D810000           [016] getglobal  5   2        ; 738251817
004A  99C10100           [017] loadk      6   7        ; "/Lotus/Types/Keys/ChimeraQuest/ChimeraKeyChain"
004E  62810001           [018] call       5   2   2  
0052  9D010200           [019] getglobal  6   8        ; -332969190
0056  D9410200           [020] loadk      7   9        ; "EmitterWorldPos"
005A  A2810001           [021] call       6   2   2  
005E  DD010200           [022] getglobal  7   8        ; -332969190
0062  19820200           [023] loadk      8   10       ; "DistortScale"
0066  E2810001           [024] call       7   2   2  
006A  1D020200           [025] getglobal  8   8        ; -332969190
006E  59C20200           [026] loadk      9   11       ; "FadeParams"
0072  22820001           [027] call       8   2   2  
0076  5D020200           [028] getglobal  9   8        ; -332969190
007A  99020300           [029] loadk      10  12       ; "AlphaScale"
007E  62820001           [030] call       9   2   2  
0082  9D020200           [031] getglobal  10  8        ; -332969190
0086  D9420300           [032] loadk      11  13       ; "UnlitAtten"
008A  A2820001           [033] call       10  2   2  
008E  D9820300           [034] loadk      11  14       ; 0
0092  19C30300           [035] loadk      12  15       ; -102
0096  59030400           [036] loadk      13  16       ; 0
009A  8B030002           [037] newtable   14  4   0    ; array=4, hash=0
009E  D9430400           [038] loadk      15  17       ; -82
00A2  19840400           [039] loadk      16  18       ; -113
00A6  59C40400           [040] loadk      17  19       ; 51
00AA  99040500           [041] loadk      18  20       ; 102
00AE  9B430002           [042] setlist    14  4   1    ; index 1 to 4
00B2  D7030000           [043] loadbool   15  0   0    ; false
00B6  06040008           [044] loadnil    16  16     
00BA  4B040000           [045] newtable   17  0   0    ; array=0, hash=0
00BE  97040000           [046] loadbool   18  0   0    ; false
00C2  D7040000           [047] loadbool   19  0   0    ; false
00C6  17050000           [048] loadbool   20  0   0    ; false
00CA  57050000           [049] loadbool   21  0   0    ; false
00CE  97050000           [050] loadbool   22  0   0    ; false
00D2  D7050000           [051] loadbool   23  0   0    ; false
00D6  1D460500           [052] getglobal  24  21       ; 849075268
00DA  59860500           [053] loadk      25  22       ; "Lotus.Scripts.Libs.TableLib"
00DE  22860001           [054] call       24  2   2  
00E2  5D460500           [055] getglobal  25  21       ; 849075268
00E6  99C60500           [056] loadk      26  23       ; "Lotus.Scripts.Libs.TransmissionSet"
00EA  62860001           [057] call       25  2   2  
00EE  9D460500           [058] getglobal  26  21       ; 849075268
00F2  D9060600           [059] loadk      27  24       ; "Lotus.Interface.LotusUtilities"
00F6  A2860001           [060] call       26  2   2  
00FA  DD460500           [061] getglobal  27  21       ; 849075268
00FE  19470600           [062] loadk      28  25       ; "Lotus.Interface.LotusNetworkUtilities"
0102  E2860001           [063] call       27  2   2  
0106  25070000           [064] closure    28  0      
010A  12008008           [065] move       0   17     
010E  12000008           [066] move       0   16     
0112  12008000           [067] move       0   1      
0116  20870600           [068] setglobal  28  26       ; OnTouched
011A  20C70600           [069] setglobal  28  27       ; -438663547
011E  25470000           [070] closure    28  1      
0122  12008007           [071] move       0   15     
0126  12000007           [072] move       0   14     
012A  1200000C           [073] move       0   24     
012E  12008008           [074] move       0   17     
0132  12000008           [075] move       0   16     
0136  1200800C           [076] move       0   25     
013A  20070700           [077] setglobal  28  28       ; MissionSetUp
013E  20470700           [078] setglobal  28  29       ; 1365174648
0142  25870000           [079] closure    28  2      
0146  20870700           [080] setglobal  28  30       ; ApostasySplineFadeOut
014A  20C70700           [081] setglobal  28  31       ; -788761088
014E  25C70000           [082] closure    28  3      
0152  12000007           [083] move       0   14     
0156  12000003           [084] move       0   6      
015A  12008003           [085] move       0   7      
015E  12000004           [086] move       0   8      
0162  12008004           [087] move       0   9      
0166  12008007           [088] move       0   15     
016A  20070800           [089] setglobal  28  32       ; UpdateSplineMat
016E  20470800           [090] setglobal  28  33       ; -1657583419
0172  25070100           [091] closure    28  4      
0176  20870800           [092] setglobal  28  34       ; PauseOwnedNpcAvatars
017A  20C70800           [093] setglobal  28  35       ; 1438933821
017E  25470100           [094] closure    28  5      
0182  12000006           [095] move       0   12     
0186  1200800C           [096] move       0   25     
018A  12008005           [097] move       0   11     
018E  12008006           [098] move       0   13     
0192  20070900           [099] setglobal  28  36       ; FallTrigger
0196  20470900           [100] setglobal  28  37       ; 808855755
019A  25870100           [101] closure    28  6      
019E  12000005           [102] move       0   10     
01A2  20870900           [103] setglobal  28  38       ; FovLerp
01A6  20C70900           [104] setglobal  28  39       ; 1975593488
01AA  25C70100           [105] closure    28  7      
01AE  12000000           [106] move       0   0      
01B2  20070A00           [107] setglobal  28  40       ; SwitchInputFilters
01B6  20470A00           [108] setglobal  28  41       ; -663609080
01BA  25070200           [109] closure    28  8      
01BE  20870A00           [110] setglobal  28  42       ; OnFinished
01C2  20C70A00           [111] setglobal  28  43       ; 441762704
01C6  25470200           [112] closure    28  9      
01CA  12000009           [113] move       0   18     
01CE  12008009           [114] move       0   19     
01D2  20070B00           [115] setglobal  28  44       ; OnProgressQuest
01D6  20470B00           [116] setglobal  28  45       ; 1078628807
01DA  25870200           [117] closure    28  10     
01DE  12000009           [118] move       0   18     
01E2  12008009           [119] move       0   19     
01E6  65C70200           [120] closure    29  11     
01EA  1200000B           [121] move       0   22     
01EE  1200800B           [122] move       0   23     
01F2  60870B00           [123] setglobal  29  46       ; OnActiveQuestSet
01F6  60C70B00           [124] setglobal  29  47       ; -905981492
01FA  65070300           [125] closure    29  12     
01FE  1200800A           [126] move       0   21     
0202  1200000A           [127] move       0   20     
0206  60070C00           [128] setglobal  29  48       ; OnGiveQuest
020A  60470C00           [129] setglobal  29  49       ; -1862115786
020E  65470300           [130] closure    29  13     
0212  1200000B           [131] move       0   22     
0216  1200800B           [132] move       0   23     
021A  A5870300           [133] closure    30  14     
021E  1200000A           [134] move       0   20     
0222  1200800A           [135] move       0   21     
0226  E5C70300           [136] closure    31  15     
022A  E0870C00           [137] setglobal  31  50       ; OnUpdateSessionSettings
022E  E0C70C00           [138] setglobal  31  51       ; -237945275
0232  E5070400           [139] closure    31  16     
0236  1200000D           [140] move       0   26     
023A  1200000F           [141] move       0   30     
023E  1200800E           [142] move       0   29     
0242  1200800D           [143] move       0   27     
0246  25480400           [144] closure    32  17     
024A  1200000D           [145] move       0   26     
024E  20080D00           [146] setglobal  32  52       ; ApostasyJustCompleted
0252  20480D00           [147] setglobal  32  53       ; 1096336564
0256  25880400           [148] closure    32  18     
025A  12000001           [149] move       0   2      
025E  12008001           [150] move       0   3      
0262  12000002           [151] move       0   4      
0266  12008002           [152] move       0   5      
026A  1200000D           [153] move       0   26     
026E  1200800F           [154] move       0   31     
0272  20880D00           [155] setglobal  32  54       ; ShipSetUp
0276  20C80D00           [156] setglobal  32  55       ; 630555556
027A  25C80400           [157] closure    32  19     
027E  1200800E           [158] move       0   29     
0282  1200000E           [159] move       0   28     
0286  20080E00           [160] setglobal  32  56       ; OutroCinematicTriggered
028A  20480E00           [161] setglobal  32  57       ; 1919831860
028E  1E008000           [162] return     0   1      
                         * constants:
0292  3A                 sizek (58)
0293  01                 const type 3
0294  5720287C           const [0]: (2083004503)
0298  04                 const type 4
0299  35                 string size (53)
029A  2F4C6F7475732F54+  "/Lotus/T"
02A2  797065732F496E70+  "ypes/Inp"
02AA  75742F41706F7374+  "ut/Apost"
02B2  6173794F70657261+  "asyOpera"
02BA  746F7243616E5275+  "torCanRu"
02C2  6E496E7075744669+  "nInputFi"
02CA  6C74657200         "lter\0"
                         const [1]: "/Lotus/Types/Input/ApostasyOperatorCanRunInputFilter"
02CF  01                 const type 3
02D0  29D4002C           const [2]: (738251817)
02D4  04                 const type 4
02D5  1A                 string size (26)
02D6  2F45452F54797065+  "/EE/Type"
02DE  732F456666656374+  "s/Effect"
02E6  732F537061776E65+  "s/Spawne"
02EE  7200               "r\0"
                         const [3]: "/EE/Types/Effects/Spawner"
02F0  04                 const type 4
02F1  2E                 string size (46)
02F2  2F4C6F7475732F54+  "/Lotus/T"
02FA  797065732F416374+  "ypes/Act"
0302  696F6E732F4B6E65+  "ions/Kne"
030A  656C5265706C6963+  "elReplic"
0312  6174656448697453+  "atedHitS"
031A  776974636800       "witch\0"
                         const [4]: "/Lotus/Types/Actions/KneelReplicatedHitSwitch"
0320  04                 const type 4
0321  37                 string size (55)
0322  2F4C6F7475732F54+  "/Lotus/T"
032A  797065732F4B6579+  "ypes/Key"
0332  732F507269657374+  "s/Priest"
033A  4672616D65517565+  "FrameQue"
0342  73742F5072696573+  "st/Pries"
034A  7451756573744B65+  "tQuestKe"
0352  79436861696E00     "yChain\0"
                         const [5]: "/Lotus/Types/Keys/PriestFrameQuest/PriestQuestKeyChain"
0359  04                 const type 4
035A  38                 string size (56)
035B  2F4C6F7475732F54+  "/Lotus/T"
0363  797065732F4B6579+  "ypes/Key"
036B  732F536163726966+  "s/Sacrif"
0373  6963655175657374+  "iceQuest"
037B  2F53616372696669+  "/Sacrifi"
0383  636551756573744B+  "ceQuestK"
038B  6579436861696E00   "eyChain\0"
                         const [6]: "/Lotus/Types/Keys/SacrificeQuest/SacrificeQuestKeyChain"
0393  04                 const type 4
0394  2F                 string size (47)
0395  2F4C6F7475732F54+  "/Lotus/T"
039D  797065732F4B6579+  "ypes/Key"
03A5  732F4368696D6572+  "s/Chimer"
03AD  6151756573742F43+  "aQuest/C"
03B5  68696D6572614B65+  "himeraKe"
03BD  79436861696E00     "yChain\0"
                         const [7]: "/Lotus/Types/Keys/ChimeraQuest/ChimeraKeyChain"
03C4  01                 const type 3
03C5  1A4B27EC           const [8]: (-332969190)
03C9  04                 const type 4
03CA  10                 string size (16)
03CB  456D697474657257+  "EmitterW"
03D3  6F726C64506F7300   "orldPos\0"
                         const [9]: "EmitterWorldPos"
03DB  04                 const type 4
03DC  0D                 string size (13)
03DD  446973746F727453+  "DistortS"
03E5  63616C6500         "cale\0"
                         const [10]: "DistortScale"
03EA  04                 const type 4
03EB  0B                 string size (11)
03EC  4661646550617261+  "FadePara"
03F4  6D7300             "ms\0"
                         const [11]: "FadeParams"
03F7  04                 const type 4
03F8  0B                 string size (11)
03F9  416C706861536361+  "AlphaSca"
0401  6C6500             "le\0"
                         const [12]: "AlphaScale"
0404  04                 const type 4
0405  0B                 string size (11)
0406  556E6C6974417474+  "UnlitAtt"
040E  656E00             "en\0"
                         const [13]: "UnlitAtten"
0411  03                 const type 3
0412  0000403F           const [14]: (0)
0416  03                 const type 3
0417  9A99993E           const [15]: (-102)
041B  03                 const type 3
041C  000080BF           const [16]: (0)
0420  03                 const type 3
0421  AE47613E           const [17]: (-82)
0425  03                 const type 3
0426  8FC2F53E           const [18]: (-113)
042A  03                 const type 3
042B  3333333F           const [19]: (51)
042F  03                 const type 3
0430  6666663F           const [20]: (102)
0434  01                 const type 3
0435  44DC9B32           const [21]: (849075268)
0439  04                 const type 4
043A  1C                 string size (28)
043B  4C6F7475732E5363+  "Lotus.Sc"
0443  72697074732E4C69+  "ripts.Li"
044B  62732E5461626C65+  "bs.Table"
0453  4C696200           "Lib\0"
                         const [22]: "Lotus.Scripts.Libs.TableLib"
0457  04                 const type 4
0458  23                 string size (35)
0459  4C6F7475732E5363+  "Lotus.Sc"
0461  72697074732E4C69+  "ripts.Li"
0469  62732E5472616E73+  "bs.Trans"
0471  6D697373696F6E53+  "missionS"
0479  657400             "et\0"
                         const [23]: "Lotus.Scripts.Libs.TransmissionSet"
047C  04                 const type 4
047D  1F                 string size (31)
047E  4C6F7475732E496E+  "Lotus.In"
0486  746572666163652E+  "terface."
048E  4C6F747573557469+  "LotusUti"
0496  6C697469657300     "lities\0"
                         const [24]: "Lotus.Interface.LotusUtilities"
049D  04                 const type 4
049E  26                 string size (38)
049F  4C6F7475732E496E+  "Lotus.In"
04A7  746572666163652E+  "terface."
04AF  4C6F7475734E6574+  "LotusNet"
04B7  776F726B5574696C+  "workUtil"
04BF  697469657300       "ities\0"
                         const [25]: "Lotus.Interface.LotusNetworkUtilities"
04C5  04                 const type 4
04C6  0A                 string size (10)
04C7  4F6E546F75636865+  "OnTouche"
04CF  6400               "d\0"
                         const [26]: "OnTouched"
04D1  01                 const type 3
04D2  8586DAE5           const [27]: (-438663547)
04D6  04                 const type 4
04D7  0D                 string size (13)
04D8  4D697373696F6E53+  "MissionS"
04E0  6574557000         "etUp\0"
                         const [28]: "MissionSetUp"
04E5  01                 const type 3
04E6  78E95E51           const [29]: (1365174648)
04EA  04                 const type 4
04EB  16                 string size (22)
04EC  41706F7374617379+  "Apostasy"
04F4  53706C696E654661+  "SplineFa"
04FC  64654F757400       "deOut\0"
                         const [30]: "ApostasySplineFadeOut"
0502  01                 const type 3
0503  0076FCD0           const [31]: (-788761088)
0507  04                 const type 4
0508  10                 string size (16)
0509  5570646174655370+  "UpdateSp"
0511  6C696E654D617400   "lineMat\0"
                         const [32]: "UpdateSplineMat"
0519  01                 const type 3
051A  C548339D           const [33]: (-1657583419)
051E  04                 const type 4
051F  15                 string size (21)
0520  50617573654F776E+  "PauseOwn"
0528  65644E7063417661+  "edNpcAva"
0530  7461727300         "tars\0"
                         const [34]: "PauseOwnedNpcAvatars"
0535  01                 const type 3
0536  3D63C455           const [35]: (1438933821)
053A  04                 const type 4
053B  0C                 string size (12)
053C  46616C6C54726967+  "FallTrig"
0544  67657200           "ger\0"
                         const [36]: "FallTrigger"
0548  01                 const type 3
0549  CB283630           const [37]: (808855755)
054D  04                 const type 4
054E  08                 string size (8)
054F  466F764C65727000   "FovLerp\0"
                         const [38]: "FovLerp"
0557  01                 const type 3
0558  102AC175           const [39]: (1975593488)
055C  04                 const type 4
055D  13                 string size (19)
055E  537769746368496E+  "SwitchIn"
0566  70757446696C7465+  "putFilte"
056E  727300             "rs\0"
                         const [40]: "SwitchInputFilters"
0571  01                 const type 3
0572  082172D8           const [41]: (-663609080)
0576  04                 const type 4
0577  0B                 string size (11)
0578  4F6E46696E697368+  "OnFinish"
0580  656400             "ed\0"
                         const [42]: "OnFinished"
0583  01                 const type 3
0584  90C3541A           const [43]: (441762704)
0588  04                 const type 4
0589  10                 string size (16)
058A  4F6E50726F677265+  "OnProgre"
0592  7373517565737400   "ssQuest\0"
                         const [44]: "OnProgressQuest"
059A  01                 const type 3
059B  C7914A40           const [45]: (1078628807)
059F  04                 const type 4
05A0  11                 string size (17)
05A1  4F6E416374697665+  "OnActive"
05A9  5175657374536574+  "QuestSet"
05B1  00                 "\0"
                         const [46]: "OnActiveQuestSet"
05B2  01                 const type 3
05B3  CCD1FFC9           const [47]: (-905981492)
05B7  04                 const type 4
05B8  0C                 string size (12)
05B9  4F6E476976655175+  "OnGiveQu"
05C1  65737400           "est\0"
                         const [48]: "OnGiveQuest"
05C5  01                 const type 3
05C6  365E0291           const [49]: (-1862115786)
05CA  04                 const type 4
05CB  18                 string size (24)
05CC  4F6E557064617465+  "OnUpdate"
05D4  53657373696F6E53+  "SessionS"
05DC  657474696E677300   "ettings\0"
                         const [50]: "OnUpdateSessionSettings"
05E4  01                 const type 3
05E5  453ED1F1           const [51]: (-237945275)
05E9  04                 const type 4
05EA  16                 string size (22)
05EB  41706F7374617379+  "Apostasy"
05F3  4A757374436F6D70+  "JustComp"
05FB  6C6574656400       "leted\0"
                         const [52]: "ApostasyJustCompleted"
0601  01                 const type 3
0602  B4C45841           const [53]: (1096336564)
0606  04                 const type 4
0607  0A                 string size (10)
0608  5368697053657455+  "ShipSetU"
0610  7000               "p\0"
                         const [54]: "ShipSetUp"
0612  01                 const type 3
0613  A4839525           const [55]: (630555556)
0617  04                 const type 4
0618  18                 string size (24)
0619  4F7574726F43696E+  "OutroCin"
0621  656D617469635472+  "ematicTr"
0629  6967676572656400   "iggered\0"
                         const [56]: "OutroCinematicTriggered"
0631  01                 const type 3
0632  344F6E72           const [57]: (1919831860)
                         * functions:
0636  14                 sizep (20)
                         
0637                     ** function [0] definition (level 2)
                         ** start of function **
0637  00                 string size (0)
                         source name: (none)
0638  43                 line defined (67)
0639  53                 last line defined (83)
063A  03                 nups (3)
063B  01                 numparams (1)
063C  00                 is_vararg (0)
063D  0A                 maxstacksize (10)
                         * code:
063E  2A                 sizecode (42)
063F  59000000           [01] loadk      1   0        ; 0
0643  93000000           [02] getupval   2   0      
0647  8A000001           [03] len        2   2      
064B  D9000000           [04] loadk      3   0        ; 0
064F  50800880           [05] forprep    1   35       ; to [41]
0653  53010000           [06] getupval   5   0      
0657  4E018102           [07] gettable   5   5   4  
fail op	35
065B  23008002           [08] close      0  
065F  1A800780           [09] jmp        31           ; to [41]
0663  59410000           [10] loadk      5   1        ; "ApostasyPoint"
0667  9D810000           [11] getglobal  6   2        ; -1615931716
066B  D2010002           [12] move       7   4      
066F  A2810001           [13] call       6   2   2  
0673  42818102           [14] concat     5   5   6  
0677  9DC10000           [15] getglobal  6   3        ; -1817107093
067B  D9010100           [16] loadk      7   4        ; "Apostasy - Queueing transmission: "
067F  12028002           [17] move       8   5      
0683  C2018203           [18] concat     7   7   8  
0687  A2410001           [19] call       6   2   1  
068B  9D410100           [20] getglobal  6   5        ; -332969190
068F  D2018002           [21] move       7   5      
0693  A2810001           [22] call       6   2   2  
fail op	8
0697  88018000           [23] setupval   6   1      
069B  9D810100           [24] getglobal  6   6        ; _T
069F  C3014002           [25] add        7   4   256  ; 0
06A3  8CC18183           [26] settable   6   263 7    ; "EnableApostasySplinesIdx"
06A7  A4014200           [27] self       6   0   264  ; -1625438872
06AB  13020001           [28] getupval   8   2      
06AF  A2818001           [29] call       6   3   2  
06B3  DD410200           [30] getglobal  7   9        ; 1074689893
06B7  12020003           [31] move       8   6      
06BB  E2810001           [32] call       7   2   2  
06BF  D8410000           [33] test       7       1    ; to [35] if false
06C3  1A800080           [34] jmp        3            ; to [38]
06C7  E4814203           [35] self       7   6   266  ; -1923578185
06CB  59C20200           [36] loadk      9   11       ; "Enable"
06CF  E2418001           [37] call       7   3   1  
06D3  E4014300           [38] self       7   0   268  ; -725453761
06D7  E2410001           [39] call       7   2   1  
06DB  1A000080           [40] jmp        1            ; to [42]
06DF  54C0F67F           [41] forloop    1   -36      ; to [6] if loop
06E3  1E008000           [42] return     0   1      
                         * constants:
06E7  0D                 sizek (13)
06E8  03                 const type 3
06E9  0000803F           const [0]: (0)
06ED  04                 const type 4
06EE  0E                 string size (14)
06EF  41706F7374617379+  "Apostasy"
06F7  506F696E7400       "Point\0"
                         const [1]: "ApostasyPoint"
06FD  01                 const type 3
06FE  BCD6AE9F           const [2]: (-1615931716)
0702  01                 const type 3
0703  6B25B193           const [3]: (-1817107093)
0707  04                 const type 4
0708  23                 string size (35)
0709  41706F7374617379+  "Apostasy"
0711  202D205175657565+  " - Queue"
0719  696E67207472616E+  "ing tran"
0721  736D697373696F6E+  "smission"
0729  3A2000             ": \0"
                         const [4]: "Apostasy - Queueing transmission: "
072C  01                 const type 3
072D  1A4B27EC           const [5]: (-332969190)
0731  04                 const type 4
0732  03                 string size (3)
0733  5F5400             "_T\0"
                         const [6]: "_T"
0736  04                 const type 4
0737  19                 string size (25)
0738  456E61626C654170+  "EnableAp"
0740  6F73746173795370+  "ostasySp"
0748  6C696E6573496478+  "linesIdx"
0750  00                 "\0"
                         const [7]: "EnableApostasySplinesIdx"
0751  01                 const type 3
0752  68C51D9F           const [8]: (-1625438872)
0756  01                 const type 3
0757  65770E40           const [9]: (1074689893)
075B  01                 const type 3
075C  B786588D           const [10]: (-1923578185)
0760  04                 const type 4
0761  07                 string size (7)
0762  456E61626C6500     "Enable\0"
                         const [11]: "Enable"
0769  01                 const type 3
076A  3F74C2D4           const [12]: (-725453761)
                         * functions:
076E  00                 sizep (0)
                         * lines:
076F  2A                 sizelineinfo (42)
                         [pc] (line)
0770  44                 [01] (68)
0771  00                 [02] (68)
0772  00                 [03] (68)
0773  00                 [04] (68)
0774  44                 [05] (68)
0775  00                 [06] (69)
0776  00                 [07] (69)
0777  00                 [08] (69)
0778  44                 [09] (69)
0779  00                 [10] (71)
077A  00                 [11] (71)
077B  00                 [12] (71)
077C  44                 [13] (71)
077D  00                 [14] (71)
077E  00                 [15] (72)
077F  00                 [16] (72)
0780  44                 [17] (72)
0781  00                 [18] (72)
0782  00                 [19] (72)
0783  00                 [20] (73)
0784  45                 [21] (73)
0785  00                 [22] (73)
0786  00                 [23] (73)
0787  00                 [24] (74)
0788  45                 [25] (74)
0789  00                 [26] (74)
078A  00                 [27] (75)
078B  00                 [28] (75)
078C  45                 [29] (75)
078D  00                 [30] (76)
078E  00                 [31] (76)
078F  00                 [32] (76)
0790  45                 [33] (76)
0791  00                 [34] (76)
0792  00                 [35] (77)
0793  00                 [36] (77)
0794  47                 [37] (77)
0795  00                 [38] (79)
0796  00                 [39] (79)
0797  00                 [40] (80)
0798  47                 [41] (68)
0799  00                 [42] (83)
                         * locals:
0818  00                 sizelocvars (0)
                         * upvalues:
0819  00                 sizeupvalues (0)
                         ** end of function **

                         
081A                     ** function [1] definition (level 2)
                         ** start of function **
081A  00                 string size (0)
                         source name: (none)
081B  55                 line defined (85)
081C  DF                 last line defined (223)
081D  01                 nups (6)
081E  06                 numparams (1)
081F  01                 is_vararg (0)
0820  00                 maxstacksize (47)
                         * code:
0823  03                 sizecode (489)
0824  5D000000           [001] getglobal  1   0        ; 1074689893
0828  9D400000           [002] getglobal  2   1        ; gGameRules
082C  62800001           [003] call       1   2   2  
0830  58400000           [004] test       1       1    ; to [6] if false
0834  1A800180           [005] jmp        7            ; to [13]
0838  5D000000           [006] getglobal  1   0        ; 1074689893
083C  9D400000           [007] getglobal  2   1        ; gGameRules
0840  A4804001           [008] self       2   2   258  ; 516385015
0844  A2000001           [009] call       2   2   0  
0848  62800000           [010] call       1   0   2  
084C  58000000           [011] test       1       0    ; to [13] if true
0850  1AC00080           [012] jmp        4            ; to [17]
0854  5DC00000           [013] getglobal  1   3        ; 538022378
0858  99000100           [014] loadk      2   4        ; 0
085C  62400001           [015] call       1   2   1  
0860  1AC0FB7F           [016] jmp        -16          ; to [1]
0864  5D400000           [017] getglobal  1   1        ; gGameRules
0868  6440C100           [018] self       1   1   261  ; -1201441975
086C  62800001           [019] call       1   2   2  
0870  9D000000           [020] getglobal  2   0        ; 1074689893
0874  D2008000           [021] move       3   1      
0878  A2800001           [022] call       2   2   2  
087C  98000000           [023] test       2       0    ; to [25] if true
0880  1AC00180           [024] jmp        8            ; to [33]
0884  9DC00000           [025] getglobal  2   3        ; 538022378
0888  D9000100           [026] loadk      3   4        ; 0
088C  A2400001           [027] call       2   2   1  
0890  9D400000           [028] getglobal  2   1        ; gGameRules
0894  A4404101           [029] self       2   2   261  ; -1201441975
0898  A2800001           [030] call       2   2   2  
089C  52000001           [031] move       1   2      
08A0  1A80FC7F           [032] jmp        -13          ; to [20]
08A4  8E80C100           [033] gettable   2   1   262  ; "goalTag"
08A8  DDC00100           [034] getglobal  3   7        ; -332969190
08AC  19010200           [035] loadk      4   8        ; "Apostasy"
08B0  E2800001           [036] call       3   2   2  
fail op	35
08B4  63C00001           [037] close      1  
08B8  1A400280           [038] jmp        10           ; to [49]
08BC  9D400200           [039] getglobal  2   9        ; gRegion
08C0  A4804201           [040] self       2   2   266  ; -1875307917
08C4  1DC10100           [041] getglobal  4   7        ; -332969190
08C8  59C10200           [042] loadk      5   11       ; "NotApostasyForwarder"
08CC  22010001           [043] call       4   2   0  
08D0  A2800000           [044] call       2   0   2  
08D4  A4004301           [045] self       2   2   268  ; -1923578185
08D8  19410300           [046] loadk      4   13       ; "TriggerPort"
08DC  A2408001           [047] call       2   3   1  
08E0  1E008000           [048] return     0   1      
08E4  9D400000           [049] getglobal  2   1        ; gGameRules
08E8  A4804001           [050] self       2   2   258  ; 516385015
08EC  A2800001           [051] call       2   2   2  
08F0  A4804301           [052] self       2   2   270  ; -1105824
08F4  17010000           [053] loadbool   4   0   0    ; false
08F8  A2408001           [054] call       2   3   1  
08FC  9D400000           [055] getglobal  2   1        ; gGameRules
0900  A4804001           [056] self       2   2   258  ; 516385015
0904  A2800001           [057] call       2   2   2  
0908  A4C04301           [058] self       2   2   271  ; 1520803588
090C  1D010400           [059] getglobal  4   16       ; EMPTY_SYMBOL
0910  A2408001           [060] call       2   3   1  
0914  9D400200           [061] getglobal  2   9        ; gRegion
0918  A4404401           [062] self       2   2   273  ; 65205951
091C  A2800001           [063] call       2   2   2  
0920  DD000000           [064] getglobal  3   0        ; 1074689893
0924  12010001           [065] move       4   2      
0928  E2800001           [066] call       3   2   2  
092C  D8000000           [067] test       3       0    ; to [69] if true
0930  1AC00180           [068] jmp        8            ; to [77]
0934  DDC00000           [069] getglobal  3   3        ; 538022378
0938  19010100           [070] loadk      4   4        ; 0
093C  E2400001           [071] call       3   2   1  
0940  DD400200           [072] getglobal  3   9        ; gRegion
0944  E440C401           [073] self       3   3   273  ; 65205951
0948  E2800001           [074] call       3   2   2  
094C  92008001           [075] move       2   3      
0950  1A80FC7F           [076] jmp        -13          ; to [64]
0954  E4804401           [077] self       3   2   274  ; -1917464545
0958  E2800001           [078] call       3   2   2  
095C  E4C0C401           [079] self       3   3   275  ; 1769516121
0960  E2800001           [080] call       3   2   2  
0964  2401C501           [081] self       4   3   276  ; -1300631377
0968  97018000           [082] loadbool   6   1   0    ; true
096C  DDC10100           [083] getglobal  7   7        ; -332969190
0970  19420500           [084] loadk      8   21       ; "OPERATOR_TRANSFERENCE"
0974  E2010001           [085] call       7   2   0  
0978  22410000           [086] call       4   0   1  
097C  1D810500           [087] getglobal  4   22       ; _T
0980  0EC14502           [088] gettable   4   4   279  ; "MissionTransmissionSet"
0984  64014601           [089] self       5   2   280  ; 1839670529
0988  62810001           [090] call       5   2   2  
098C  A4014600           [091] self       6   0   280  ; 1839670529
0990  A2810001           [092] call       6   2   2  
0994  DD410200           [093] getglobal  7   9        ; gRegion
0998  E441C603           [094] self       7   7   281  ; -774964848
099C  E2810001           [095] call       7   2   2  
09A0  2482C603           [096] self       8   7   282  ; -181595417
09A4  92028002           [097] move       10  5      
09A8  D2020003           [098] move       11  6      
09AC  22820002           [099] call       8   4   2  
09B0  5D820500           [100] getglobal  9   22       ; _T
09B4  4C02828D           [101] settable   9   283 8    ; "ApostasySplinePath"
09B8  4B020000           [102] newtable   9   0   0    ; array=0, hash=0
09BC  9D020700           [103] getglobal  10  28       ; 317968122
fail op	5
09C0  C5020004           [104] getglobal  11  4096     ; nil
09C4  1A000180           [105] jmp        5            ; to [111]
09C8  CA020004           [106] len        11  8      
fail op	21
09CC  55C00282           [107] concat     1   260 11 
09D0  1A000080           [108] jmp        1            ; to [110]
09D4  D7420000           [109] loadbool   11  0   1    ; false, to [111]
09D8  D7028000           [110] loadbool   11  1   0    ; true
09DC  A2420001           [111] call       10  2   1  
09E0  9D420700           [112] getglobal  10  29       ; 1367382205
09E4  CE824704           [113] gettable   11  8   286  ; 0
09E8  0E834704           [114] gettable   12  8   286  ; 0
09EC  5DC30700           [115] getglobal  13  31       ; 572299008
09F0  99030100           [116] loadk      14  4        ; 0
09F4  D9030800           [117] loadk      15  32       ; 0
09F8  19040100           [118] loadk      16  4        ; 0
09FC  62030002           [119] call       13  4   0  
0A00  A2420000           [120] call       10  0   1  
0A04  9D420800           [121] getglobal  10  33       ; table
0A08  8E824805           [122] gettable   10  10  290  ; -431682403
0A0C  D2020004           [123] move       11  8      
0A10  19830700           [124] loadk      12  30       ; 0
0A14  4E834704           [125] gettable   13  8   286  ; 0
0A18  9DC30700           [126] getglobal  14  31       ; 572299008
0A1C  D9030100           [127] loadk      15  4        ; 0
0A20  19C40800           [128] loadk      16  35       ; 0
0A24  59040100           [129] loadk      17  4        ; 0
0A28  A2830002           [130] call       14  4   2  
0A2C  43838306           [131] add        13  13  14 
0A30  A2420002           [132] call       10  4   1  
0A34  8A020004           [133] len        10  8      
0A38  8E820204           [134] gettable   10  8   10 
0A3C  CA020004           [135] len        11  8      
0A40  CD82C705           [136] sub        11  11  286  ; 0
0A44  CEC20204           [137] gettable   11  8   11 
0A48  8DC20205           [138] sub        10  10  11 
0A4C  DD020900           [139] getglobal  11  36       ; 1287559689
0A50  1DC30700           [140] getglobal  12  31       ; 572299008
0A54  59030100           [141] loadk      13  4        ; 0
0A58  99030100           [142] loadk      14  4        ; 0
0A5C  D9430900           [143] loadk      15  37       ; 0
0A60  22830002           [144] call       12  4   2  
0A64  64834900           [145] self       13  0   294  ; -231049143
0A68  62030001           [146] call       13  2   0  
0A6C  E2820000           [147] call       11  0   2  
0A70  83C20205           [148] add        10  10  11 
0A74  DDC20900           [149] getglobal  11  39       ; 1166235580
0A78  12030005           [150] move       12  10     
0A7C  E2420001           [151] call       11  2   1  
0A80  84024A05           [152] mul        10  10  296  ; 0
0A84  DD420800           [153] getglobal  11  33       ; table
0A88  CE82C805           [154] gettable   11  11  290  ; -431682403
0A8C  12030004           [155] move       12  8      
0A90  5DC30700           [156] getglobal  13  31       ; 572299008
0A94  62038000           [157] call       13  1   0  
0A98  E2420000           [158] call       11  0   1  
0A9C  DD420A00           [159] getglobal  11  41       ; 158067307
0AA0  0A030004           [160] len        12  8      
0AA4  0E030304           [161] gettable   12  8   12 
0AA8  52030005           [162] move       13  10     
0AAC  8A030004           [163] len        14  8      
0AB0  8D834707           [164] sub        14  14  286  ; 0
0AB4  8E830304           [165] gettable   14  8   14 
0AB8  E2420002           [166] call       11  4   1  
0ABC  8C024195           [167] settable   10  298 260  ; "z" 0
0AC0  8C02CB95           [168] settable   10  299 300  ; "y" 0
0AC4  DD420800           [169] getglobal  11  33       ; table
0AC8  CE82C805           [170] gettable   11  11  290  ; -431682403
0ACC  12030004           [171] move       12  8      
0AD0  5DC30700           [172] getglobal  13  31       ; 572299008
0AD4  62038000           [173] call       13  1   0  
0AD8  E2420000           [174] call       11  0   1  
0ADC  DD420A00           [175] getglobal  11  41       ; 158067307
0AE0  0A030004           [176] len        12  8      
0AE4  0E030304           [177] gettable   12  8   12 
0AE8  52030005           [178] move       13  10     
0AEC  8A030004           [179] len        14  8      
0AF0  8D834707           [180] sub        14  14  286  ; 0
0AF4  8E830304           [181] gettable   14  8   14 
0AF8  E2420002           [182] call       11  4   1  
0AFC  DD420800           [183] getglobal  11  33       ; table
0B00  CE82C805           [184] gettable   11  11  290  ; -431682403
0B04  12030004           [185] move       12  8      
0B08  5DC30700           [186] getglobal  13  31       ; 572299008
0B0C  62038000           [187] call       13  1   0  
0B10  E2420000           [188] call       11  0   1  
0B14  DD420A00           [189] getglobal  11  41       ; 158067307
0B18  0A030004           [190] len        12  8      
0B1C  0E030304           [191] gettable   12  8   12 
0B20  52030005           [192] move       13  10     
0B24  8A030004           [193] len        14  8      
0B28  8D834707           [194] sub        14  14  286  ; 0
0B2C  8E830304           [195] gettable   14  8   14 
0B30  E2420002           [196] call       11  4   1  
0B34  D9420B00           [197] loadk      11  45       ; 51
0B38  1D830B00           [198] getglobal  12  46       ; -1247440829
0B3C  59C30B00           [199] loadk      13  47       ; 0
0B40  99030100           [200] loadk      14  4        ; 0
0B44  D9030100           [201] loadk      15  4        ; 0
0B48  19040C00           [202] loadk      16  48       ; 0
0B4C  22838002           [203] call       12  5   2  
0B50  5D830B00           [204] getglobal  13  46       ; -1247440829
0B54  99030100           [205] loadk      14  4        ; 0
0B58  D9C30B00           [206] loadk      15  47       ; 0
0B5C  19040100           [207] loadk      16  4        ; 0
0B60  59040C00           [208] loadk      17  48       ; 0
0B64  62838002           [209] call       13  5   2  
0B68  93030000           [210] getupval   14  0      
0B6C  98030000           [211] test       14      0    ; to [213] if true
0B70  1A400A80           [212] jmp        42           ; to [255]
0B74  99830700           [213] loadk      14  30       ; 0
0B78  CA030004           [214] len        15  8      
0B7C  CD83C707           [215] sub        15  15  286  ; 0
0B80  19840700           [216] loadk      16  30       ; 0
0B84  90C30880           [217] forprep    14  36       ; to [254]
0B88  9D440200           [218] getglobal  18  9        ; gRegion
0B8C  A4444C09           [219] self       18  18  305  ; 1116344408
0B90  0E450404           [220] gettable   20  8   17 
0B94  5DC50700           [221] getglobal  21  31       ; 572299008
0B98  99050100           [222] loadk      22  4        ; 0
0B9C  D9850C00           [223] loadk      23  50       ; 0
0BA0  19060100           [224] loadk      24  4        ; 0
0BA4  62850002           [225] call       21  4   2  
0BA8  0345050A           [226] add        20  20  21 
0BAC  52050006           [227] move       21  12     
0BB0  9DC50C00           [228] getglobal  22  51       ; -1615931716
0BB4  D2058008           [229] move       23  17     
0BB8  A2850001           [230] call       22  2   2  
0BBC  D9850700           [231] loadk      23  30       ; 0
0BC0  1D060D00           [232] getglobal  24  52       ; FLT_MAX
0BC4  A2448003           [233] call       18  7   1  
0BC8  9D440200           [234] getglobal  18  9        ; gRegion
0BCC  A4444D09           [235] self       18  18  309  ; -1820544339
0BD0  0E450404           [236] gettable   20  8   17 
0BD4  5DC50700           [237] getglobal  21  31       ; 572299008
0BD8  99050100           [238] loadk      22  4        ; 0
0BDC  D9850C00           [239] loadk      23  50       ; 0
0BE0  19060100           [240] loadk      24  4        ; 0
0BE4  62850002           [241] call       21  4   2  
0BE8  0345050A           [242] add        20  20  21 
0BEC  4385C708           [243] add        21  17  286  ; 0
0BF0  4E450504           [244] gettable   21  8   21 
0BF4  9DC50700           [245] getglobal  22  31       ; 572299008
0BF8  D9050100           [246] loadk      23  4        ; 0
0BFC  19860C00           [247] loadk      24  50       ; 0
0C00  59060100           [248] loadk      25  4        ; 0
0C04  A2850002           [249] call       22  4   2  
0C08  4385850A           [250] add        21  21  22 
0C0C  92050006           [251] move       22  12     
0C10  DD050D00           [252] getglobal  23  52       ; FLT_MAX
0C14  A2440003           [253] call       18  6   1  
0C18  9483F67F           [254] forloop    14  -37      ; to [218] if loop
0C1C  99840D00           [255] loadk      18  54       ; 0
0C20  D9040100           [256] loadk      19  4        ; 0
0C24  19850700           [257] loadk      20  30       ; 0
0C28  4A050004           [258] len        21  8      
0C2C  4D85C70A           [259] sub        21  21  286  ; 0
fail op	21
0C30  1540050A           [260] concat     0   20  21 
0C34  1A800A80           [261] jmp        43           ; to [305]
0C38  4CC2040A           [262] settable   9   20  19 
0C3C  4385470A           [263] add        21  20  286  ; 0
0C40  8E050504           [264] gettable   22  8   20 
0C44  CE450504           [265] gettable   23  8   21 
0C48  1D060000           [266] getglobal  24  0        ; 1074689893
0C4C  5206800B           [267] move       25  23     
0C50  22860001           [268] call       24  2   2  
0C54  18460000           [269] test       24      1    ; to [271] if false
0C58  1A800480           [270] jmp        19           ; to [290]
0C5C  1DC60D00           [271] getglobal  24  55       ; -1331746705
0C60  5206000B           [272] move       25  22     
0C64  9206800B           [273] move       26  23     
0C68  22868001           [274] call       24  3   2  
fail op	21
0C6C  15C0020C           [275] concat     0   24  11 
0C70  1A000380           [276] jmp        13           ; to [290]
0C74  1D060E00           [277] getglobal  24  56       ; -523730508
0C78  5206000B           [278] move       25  22     
0C7C  9D460800           [279] getglobal  26  33       ; table
0C80  8E464E0D           [280] gettable   26  26  313  ; -843973282
0C84  D2060004           [281] move       27  8      
0C88  1207800A           [282] move       28  21     
0C8C  A2868001           [283] call       26  3   2  
0C90  D9860C00           [284] loadk      27  50       ; 0
0C94  22860002           [285] call       24  4   2  
0C98  9205000C           [286] move       22  24     
0C9C  0C82050A           [287] settable   8   20  22 
0CA0  CE450504           [288] gettable   23  8   21 
0CA4  1AC0F97F           [289] jmp        -24          ; to [266]
0CA8  D8050000           [290] test       23      0    ; to [292] if true
0CAC  1A400180           [291] jmp        6            ; to [298]
0CB0  1DC60D00           [292] getglobal  24  55       ; -1331746705
0CB4  5206000B           [293] move       25  22     
0CB8  9206800B           [294] move       26  23     
0CBC  22868001           [295] call       24  3   2  
0CC0  18460000           [296] test       24      1    ; to [298] if false
0CC4  1A000080           [297] jmp        1            ; to [299]
0CC8  19060100           [298] loadk      24  4        ; 0
0CCC  C3048609           [299] add        19  19  24 
0CD0  0EC64A0B           [300] gettable   24  22  299  ; "y"
0CD4  0386040C           [301] add        24  24  18 
0CD8  8C058695           [302] settable   22  299 24   ; "y"
0CDC  0385470A           [303] add        20  20  286  ; 0
0CE0  1A00F47F           [304] jmp        -47          ; to [258]
0CE4  0A060004           [305] len        24  8      
0CE8  0E060604           [306] gettable   24  8   24 
0CEC  4EC64A0C           [307] gettable   25  24  299  ; "y"
0CF0  4386840C           [308] add        25  25  18 
0CF4  0C468695           [309] settable   24  299 25   ; "y"
0CF8  4B060000           [310] newtable   25  0   0    ; array=0, hash=0
0CFC  8B060000           [311] newtable   26  0   0    ; array=0, hash=0
0D00  DD860500           [312] getglobal  27  22       ; _T
0D04  CC46069D           [313] settable   27  314 25   ; "ApostasySplines"
0D08  DD860500           [314] getglobal  27  22       ; _T
0D0C  CC86869D           [315] settable   27  315 26   ; "ApostasySplinesIndices"
0D10  D9860700           [316] loadk      27  30       ; 0
0D14  19870700           [317] loadk      28  30       ; 0
0D18  59870700           [318] loadk      29  30       ; 0
0D1C  8A078004           [319] len        30  9      
0D20  D9870700           [320] loadk      31  30       ; 0
0D24  50C71280           [321] forprep    29  76       ; to [398]
0D28  53088000           [322] getupval   33  1      
0D2C  4A088010           [323] len        33  33     
fail op	21
0D30  15008710           [324] concat     0   33  28 
0D34  1A000080           [325] jmp        1            ; to [327]
0D38  1AC01180           [326] jmp        72           ; to [399]
0D3C  53088000           [327] getupval   33  1      
0D40  4E088710           [328] gettable   33  33  28 
0D44  58480000           [329] test       33      1    ; to [331] if false
0D48  1A000080           [330] jmp        1            ; to [332]
0D4C  5D080D00           [331] getglobal  33  52       ; FLT_MAX
0D50  8E088804           [332] gettable   34  9   32 
0D54  9CC80411           [333] div        34  34  19 
fail op	33
0D58  21808810           [334] tforloop   0       34   ; to [336] if exit
0D5C  1A400F80           [335] jmp        62           ; to [398]
0D60  5D480200           [336] getglobal  33  9        ; gRegion
0D64  6408CF10           [337] self       33  33  316  ; -1110225722
0D68  DD480F00           [338] getglobal  35  61       ; splineType
0D6C  1D890F00           [339] getglobal  36  62       ; ZERO_VECTOR
0D70  5DC90F00           [340] getglobal  37  63       ; ZERO_ROTATION
0D74  62888002           [341] call       33  5   2  
0D78  A408D010           [342] self       34  33  320  ; 1540374379
0D7C  13090001           [343] getupval   36  2      
0D80  0E495012           [344] gettable   36  36  321  ; -984840344
0D84  52090004           [345] move       37  8      
0D88  9D891000           [346] getglobal  38  66       ; math
0D8C  8EC95013           [347] gettable   38  38  323  ; -1962864584
0D90  CD89C70D           [348] sub        39  27  286  ; 0
0D94  198A0700           [349] loadk      40  30       ; 0
0D98  A2898001           [350] call       38  3   2  
0D9C  DD891000           [351] getglobal  39  66       ; math
0DA0  CE09D113           [352] gettable   39  39  324  ; 1710846250
0DA4  038A4710           [353] add        40  32  286  ; 0
0DA8  4A0A0004           [354] len        41  8      
0DAC  E2098001           [355] call       39  3   0  
0DB0  22090000           [356] call       36  0   0  
0DB4  A2480000           [357] call       34  0   1  
0DB8  9D480800           [358] getglobal  34  33       ; table
0DBC  8E884811           [359] gettable   34  34  290  ; -431682403
0DC0  D208800C           [360] move       35  25     
0DC4  12098010           [361] move       36  33     
0DC8  A2488001           [362] call       34  3   1  
0DCC  9D480800           [363] getglobal  34  33       ; table
0DD0  8E884811           [364] gettable   34  34  290  ; -431682403
0DD4  D208000D           [365] move       35  26     
0DD8  1209800D           [366] move       36  27     
0DDC  A2488001           [367] call       34  3   1  
0DE0  D2060010           [368] move       27  32     
0DE4  0387470E           [369] add        28  28  286  ; 0
0DE8  9D480200           [370] getglobal  34  9        ; gRegion
0DEC  A4084F11           [371] self       34  34  316  ; -1110225722
0DF0  1D491100           [372] getglobal  36  69       ; transmissionTriggerType
0DF4  4E090804           [373] gettable   37  8   32 
0DF8  83894710           [374] add        38  32  286  ; 0
0DFC  8E890904           [375] gettable   38  8   38 
0E00  98090000           [376] test       38      0    ; to [378] if true
0E04  1A800180           [377] jmp        7            ; to [385]
0E08  9D891100           [378] getglobal  38  70       ; -304944129
0E0C  D209000C           [379] move       39  24     
0E10  038A4710           [380] add        40  32  286  ; 0
0E14  0E0A0A04           [381] gettable   40  8   40 
0E18  A2898001           [382] call       38  3   2  
0E1C  98490000           [383] test       38      1    ; to [385] if false
0E20  1A000080           [384] jmp        1            ; to [386]
0E24  9DC90F00           [385] getglobal  38  63       ; ZERO_ROTATION
0E28  D2090000           [386] move       39  0      
0E2C  120A0000           [387] move       40  0      
0E30  A2888003           [388] call       34  7   2  
0E34  DD480800           [389] getglobal  35  33       ; table
0E38  CE88C811           [390] gettable   35  35  290  ; -431682403
0E3C  13098001           [391] getupval   36  3      
0E40  52090011           [392] move       37  34     
0E44  E2488001           [393] call       35  3   1  
0E48  DDC81100           [394] getglobal  35  71       ; -1799570112
0E4C  12090011           [395] move       36  34     
0E50  59091200           [396] loadk      37  72       ; "OnTouched"
0E54  E2488001           [397] call       35  3   1  
0E58  5487EC7F           [398] forloop    29  -77      ; to [322] if loop
0E5C  DD480200           [399] getglobal  35  9        ; gRegion
0E60  E408CF11           [400] self       35  35  316  ; -1110225722
0E64  5D490F00           [401] getglobal  37  61       ; splineType
0E68  9D890F00           [402] getglobal  38  62       ; ZERO_VECTOR
0E6C  DDC90F00           [403] getglobal  39  63       ; ZERO_ROTATION
0E70  E2888002           [404] call       35  5   2  
0E74  2409D011           [405] self       36  35  320  ; 1540374379
0E78  93090001           [406] getupval   38  2      
0E7C  8E495013           [407] gettable   38  38  321  ; -984840344
0E80  D2090004           [408] move       39  8      
0E84  1D8A1000           [409] getglobal  40  66       ; math
0E88  0ECA5014           [410] gettable   40  40  323  ; -1962864584
0E8C  4D8AC70D           [411] sub        41  27  286  ; 0
0E90  998A0700           [412] loadk      42  30       ; 0
0E94  220A8001           [413] call       40  3   0  
0E98  A2090000           [414] call       38  0   0  
0E9C  22490000           [415] call       36  0   1  
0EA0  1D490800           [416] getglobal  36  33       ; table
0EA4  0E894812           [417] gettable   36  36  290  ; -431682403
0EA8  5209800C           [418] move       37  25     
0EAC  92098011           [419] move       38  35     
0EB0  22498001           [420] call       36  3   1  
0EB4  13090000           [421] getupval   36  0      
0EB8  18090000           [422] test       36      0    ; to [424] if true
0EBC  1AC00580           [423] jmp        24           ; to [448]
0EC0  19890700           [424] loadk      36  30       ; 0
0EC4  4A090004           [425] len        37  8      
0EC8  4D89C712           [426] sub        37  37  286  ; 0
0ECC  99890700           [427] loadk      38  30       ; 0
0ED0  10490480           [428] forprep    36  18       ; to [447]
0ED4  1D4A0200           [429] getglobal  40  9        ; gRegion
0ED8  244A4C14           [430] self       40  40  305  ; 1116344408
0EDC  8ECA0904           [431] gettable   42  8   39 
0EE0  D20A8006           [432] move       43  13     
0EE4  1DCB0C00           [433] getglobal  44  51       ; -1615931716
0EE8  520B8013           [434] move       45  39     
0EEC  228B0001           [435] call       44  2   2  
0EF0  598B0700           [436] loadk      45  30       ; 0
0EF4  9D0B0D00           [437] getglobal  46  52       ; FLT_MAX
0EF8  224A8003           [438] call       40  7   1  
0EFC  1D4A0200           [439] getglobal  40  9        ; gRegion
0F00  244A4D14           [440] self       40  40  309  ; -1820544339
0F04  8ECA0904           [441] gettable   42  8   39 
0F08  C38AC713           [442] add        43  39  286  ; 0
0F0C  CECA0A04           [443] gettable   43  8   43 
0F10  120B8006           [444] move       44  13     
0F14  5D0B0D00           [445] getglobal  45  52       ; FLT_MAX
0F18  224A0003           [446] call       40  6   1  
0F1C  1409FB7F           [447] forloop    36  -19      ; to [429] if loop
0F20  1D4A0200           [448] getglobal  40  9        ; gRegion
0F24  244A4614           [449] self       40  40  281  ; -774964848
0F28  228A0001           [450] call       40  2   2  
0F2C  244A5214           [451] self       40  40  329  ; 537471347
0F30  228A0001           [452] call       40  2   2  
0F34  648A5214           [453] self       41  40  330  ; -906150570
0F38  D20A0000           [454] move       43  0      
0F3C  624A8001           [455] call       41  3   1  
0F40  5D8A0500           [456] getglobal  41  22       ; _T
0F44  4ECAD214           [457] gettable   41  41  331  ; "ApostasySplineFadeOut"
0F48  584A0000           [458] test       41      1    ; to [460] if false
0F4C  1A400680           [459] jmp        26           ; to [486]
0F50  5DCA0000           [460] getglobal  41  3        ; 538022378
0F54  990A0100           [461] loadk      42  4        ; 0
0F58  624A0001           [462] call       41  2   1  
0F5C  5D0A0000           [463] getglobal  41  0        ; 1074689893
0F60  920A0002           [464] move       42  4      
0F64  628A0001           [465] call       41  2   2  
0F68  584A0000           [466] test       41      1    ; to [468] if false
0F6C  1AC0FC7F           [467] jmp        -12          ; to [456]
0F70  530A0002           [468] getupval   41  4      
0F74  580A0000           [469] test       41      0    ; to [471] if true
0F78  1A00FC7F           [470] jmp        -15          ; to [456]
0F7C  5D0A1300           [471] getglobal  41  76       ; -1817107093
0F80  994A1300           [472] loadk      42  77       ; "Apostasy - Playing transmission: "
0F84  DDCA0C00           [473] getglobal  43  51       ; -1615931716
0F88  130B0002           [474] getupval   44  4      
0F8C  E28A0001           [475] call       43  2   2  
0F90  82CA0A15           [476] concat     42  42  43 
0F94  624A0001           [477] call       41  2   1  
0F98  530A8002           [478] getupval   41  5      
0F9C  4E8AD314           [479] gettable   41  41  334  ; -78033590
0FA0  920A0002           [480] move       42  4      
0FA4  D30A0002           [481] getupval   43  4      
0FA8  624A8001           [482] call       41  3   1  
0FAC  460A8014           [483] loadnil    41  41     
fail op	8
0FB0  480A0002           [484] setupval   41  4      
0FB4  1A40F87F           [485] jmp        -30          ; to [456]
0FB8  648A5214           [486] self       41  40  330  ; -906150570
0FBC  C60A8015           [487] loadnil    43  43     
0FC0  624A8001           [488] call       41  3   1  
0FC4  1E008000           [489] return     0   1      
                         * constants:
0FC8  4F                 sizek (79)
0FC9  01                 const type 3
0FCA  65770E40           const [0]: (1074689893)
0FCE  04                 const type 4
0FCF  0B                 string size (11)
0FD0  6747616D6552756C+  "gGameRul"
0FD8  657300             "es\0"
                         const [1]: "gGameRules"
0FDB  01                 const type 3
0FDC  F768C71E           const [2]: (516385015)
0FE0  01                 const type 3
0FE1  EA911120           const [3]: (538022378)
0FE5  03                 const type 3
0FE6  00000000           const [4]: (0)
0FEA  01                 const type 3
0FEB  497363B8           const [5]: (-1201441975)
0FEF  04                 const type 4
0FF0  08                 string size (8)
0FF1  676F616C54616700   "goalTag\0"
                         const [6]: "goalTag"
0FF9  01                 const type 3
0FFA  1A4B27EC           const [7]: (-332969190)
0FFE  04                 const type 4
0FFF  09                 string size (9)
1000  41706F7374617379+  "Apostasy"
1008  00                 "\0"
                         const [8]: "Apostasy"
1009  04                 const type 4
100A  08                 string size (8)
100B  67526567696F6E00   "gRegion\0"
                         const [9]: "gRegion"
1013  01                 const type 3
1014  73123990           const [10]: (-1875307917)
1018  04                 const type 4
1019  15                 string size (21)
101A  4E6F7441706F7374+  "NotApost"
1022  617379466F727761+  "asyForwa"
102A  7264657200         "rder\0"
                         const [11]: "NotApostasyForwarder"
102F  01                 const type 3
1030  B786588D           const [12]: (-1923578185)
1034  04                 const type 4
1035  0C                 string size (12)
1036  5472696767657250+  "TriggerP"
103E  6F727400           "ort\0"
                         const [13]: "TriggerPort"
1042  01                 const type 3
1043  6020EFFF           const [14]: (-1105824)
1047  01                 const type 3
1048  049FA55A           const [15]: (1520803588)
104C  04                 const type 4
104D  0D                 string size (13)
104E  454D5054595F5359+  "EMPTY_SY"
1056  4D424F4C00         "MBOL\0"
                         const [16]: "EMPTY_SYMBOL"
105B  01                 const type 3
105C  BFF6E203           const [17]: (65205951)
1060  01                 const type 3
1061  1FD0B58D           const [18]: (-1917464545)
1065  01                 const type 3
1066  59AC7869           const [19]: (1769516121)
106A  01                 const type 3
106B  AFF079B2           const [20]: (-1300631377)
106F  04                 const type 4
1070  16                 string size (22)
1071  4F50455241544F52+  "OPERATOR"
1079  5F5452414E534645+  "_TRANSFE"
1081  52454E434500       "RENCE\0"
                         const [21]: "OPERATOR_TRANSFERENCE"
1087  04                 const type 4
1088  03                 string size (3)
1089  5F5400             "_T\0"
                         const [22]: "_T"
108C  04                 const type 4
108D  17                 string size (23)
108E  4D697373696F6E54+  "MissionT"
1096  72616E736D697373+  "ransmiss"
109E  696F6E53657400     "ionSet\0"
                         const [23]: "MissionTransmissionSet"
10A5  01                 const type 3
10A6  0125A76D           const [24]: (1839670529)
10AA  01                 const type 3
10AB  90F9CED1           const [25]: (-774964848)
10AF  01                 const type 3
10B0  E7122DF5           const [26]: (-181595417)
10B4  04                 const type 4
10B5  13                 string size (19)
10B6  41706F7374617379+  "Apostasy"
10BE  53706C696E655061+  "SplinePa"
10C6  746800             "th\0"
                         const [27]: "ApostasySplinePath"
10C9  01                 const type 3
10CA  FACEF312           const [28]: (317968122)
10CE  01                 const type 3
10CF  BD988051           const [29]: (1367382205)
10D3  03                 const type 3
10D4  0000803F           const [30]: (0)
10D8  01                 const type 3
10D9  00971C22           const [31]: (572299008)
10DD  03                 const type 3
10DE  0000A040           const [32]: (0)
10E2  04                 const type 4
10E3  06                 string size (6)
10E4  7461626C6500       "table\0"
                         const [33]: "table"
10EA  01                 const type 3
10EB  9D0C45E6           const [34]: (-431682403)
10EF  03                 const type 3
10F0  000020C1           const [35]: (0)
10F4  01                 const type 3
10F5  099ABE4C           const [36]: (1287559689)
10F9  03                 const type 3
10FA  000080BF           const [37]: (0)
10FE  01                 const type 3
10FF  49783AF2           const [38]: (-231049143)
1103  01                 const type 3
1104  BC578345           const [39]: (1166235580)
1108  03                 const type 3
1109  00002040           const [40]: (0)
110D  01                 const type 3
110E  6BEA6B09           const [41]: (158067307)
1112  04                 const type 4
1113  02                 string size (2)
1114  7A00               "z\0"
                         const [42]: "z"
1116  04                 const type 4
1117  02                 string size (2)
1118  7900               "y\0"
                         const [43]: "y"
111A  03                 const type 3
111B  0000A0C1           const [44]: (0)
111F  03                 const type 3
1120  33334340           const [45]: (51)
1124  01                 const type 3
1125  4390A5B5           const [46]: (-1247440829)
1129  03                 const type 3
112A  00007F43           const [47]: (0)
112E  03                 const type 3
112F  0000FE42           const [48]: (0)
1133  01                 const type 3
1134  58108A42           const [49]: (1116344408)
1138  03                 const type 3
1139  0000003F           const [50]: (0)
113D  01                 const type 3
113E  BCD6AE9F           const [51]: (-1615931716)
1142  04                 const type 4
1143  08                 string size (8)
1144  464C545F4D415800   "FLT_MAX\0"
                         const [52]: "FLT_MAX"
114C  01                 const type 3
114D  ADB27C93           const [53]: (-1820544339)
1151  03                 const type 3
1152  0000C03F           const [54]: (0)
1156  01                 const type 3
1157  6F289FB0           const [55]: (-1331746705)
115B  01                 const type 3
115C  B481C8E0           const [56]: (-523730508)
1160  01                 const type 3
1161  5EFDB1CD           const [57]: (-843973282)
1165  04                 const type 4
1166  10                 string size (16)
1167  41706F7374617379+  "Apostasy"
116F  53706C696E657300   "Splines\0"
                         const [58]: "ApostasySplines"
1177  04                 const type 4
1178  17                 string size (23)
1179  41706F7374617379+  "Apostasy"
1181  53706C696E657349+  "SplinesI"
1189  6E646963657300     "ndices\0"
                         const [59]: "ApostasySplinesIndices"
1190  01                 const type 3
1191  C64CD3BD           const [60]: (-1110225722)
1195  04                 const type 4
1196  0B                 string size (11)
1197  73706C696E655479+  "splineTy"
119F  706500             "pe\0"
                         const [61]: "splineType"
11A2  04                 const type 4
11A3  0C                 string size (12)
11A4  5A45524F5F564543+  "ZERO_VEC"
11AC  544F5200           "TOR\0"
                         const [62]: "ZERO_VECTOR"
11B0  04                 const type 4
11B1  0E                 string size (14)
11B2  5A45524F5F524F54+  "ZERO_ROT"
11BA  4154494F4E00       "ATION\0"
                         const [63]: "ZERO_ROTATION"
11C0  01                 const type 3
11C1  6B3FD05B           const [64]: (1540374379)
11C5  01                 const type 3
11C6  68874CC5           const [65]: (-984840344)
11CA  04                 const type 4
11CB  05                 string size (5)
11CC  6D61746800         "math\0"
                         const [66]: "math"
11D1  01                 const type 3
11D2  3810018B           const [67]: (-1962864584)
11D6  01                 const type 3
11D7  2A71F965           const [68]: (1710846250)
11DB  04                 const type 4
11DC  18                 string size (24)
11DD  7472616E736D6973+  "transmis"
11E5  73696F6E54726967+  "sionTrig"
11ED  6765725479706500   "gerType\0"
                         const [69]: "transmissionTriggerType"
11F5  01                 const type 3
11F6  FFEBD2ED           const [70]: (-304944129)
11FA  01                 const type 3
11FB  40BDBC94           const [71]: (-1799570112)
11FF  04                 const type 4
1200  0A                 string size (10)
1201  4F6E546F75636865+  "OnTouche"
1209  6400               "d\0"
                         const [72]: "OnTouched"
120B  01                 const type 3
120C  73290920           const [73]: (537471347)
1210  01                 const type 3
1211  563DFDC9           const [74]: (-906150570)
1215  04                 const type 4
1216  16                 string size (22)
1217  41706F7374617379+  "Apostasy"
121F  53706C696E654661+  "SplineFa"
1227  64654F757400       "deOut\0"
                         const [75]: "ApostasySplineFadeOut"
122D  01                 const type 3
122E  6B25B193           const [76]: (-1817107093)
1232  04                 const type 4
1233  22                 string size (34)
1234  41706F7374617379+  "Apostasy"
123C  202D20506C617969+  " - Playi"
1244  6E67207472616E73+  "ng trans"
124C  6D697373696F6E3A+  "mission:"
1254  2000               " \0"
                         const [77]: "Apostasy - Playing transmission: "
1256  01                 const type 3
1257  4A4D59FB           const [78]: (-78033590)
                         * functions:
125B  00                 sizep (0)
                         * lines:
125D  03                 sizelineinfo (489)
                         [pc] (line)
125E  56                 [001] (86)
125F  00                 [002] (86)
1260  00                 [003] (86)
1261  00                 [004] (86)
1262  56                 [005] (86)
1263  00                 [006] (86)
1264  00                 [007] (86)
1265  00                 [008] (86)
1266  56                 [009] (86)
1267  00                 [010] (86)
1268  00                 [011] (86)
1269  00                 [012] (86)
126A  56                 [013] (87)
126B  00                 [014] (87)
126C  00                 [015] (87)
126D  00                 [016] (87)
126E  56                 [017] (90)
126F  00                 [018] (90)
1270  00                 [019] (90)
1271  00                 [020] (91)
1272  56                 [021] (91)
1273  00                 [022] (91)
1274  00                 [023] (91)
1275  00                 [024] (91)
1276  56                 [025] (92)
1277  00                 [026] (92)
1278  00                 [027] (92)
1279  00                 [028] (93)
127A  56                 [029] (93)
127B  00                 [030] (93)
127C  00                 [031] (93)
127D  00                 [032] (93)
127E  56                 [033] (96)
127F  00                 [034] (96)
1280  00                 [035] (96)
1281  00                 [036] (96)
1282  56                 [037] (96)
1283  00                 [038] (96)
1284  00                 [039] (97)
1285  00                 [040] (97)
1286  56                 [041] (97)
1287  00                 [042] (97)
1288  00                 [043] (97)
1289  00                 [044] (97)
128A  56                 [045] (97)
128B  00                 [046] (97)
128C  00                 [047] (97)
128D  00                 [048] (98)
128E  57                 [049] (101)
128F  00                 [050] (101)
1290  00                 [051] (101)
1291  00                 [052] (101)
1292  57                 [053] (101)
1293  00                 [054] (101)
1294  00                 [055] (102)
1295  00                 [056] (102)
1296  57                 [057] (102)
1297  00                 [058] (102)
1298  00                 [059] (102)
1299  00                 [060] (102)
129A  57                 [061] (104)
129B  00                 [062] (104)
129C  00                 [063] (104)
129D  00                 [064] (105)
129E  5A                 [065] (105)
129F  00                 [066] (105)
12A0  00                 [067] (105)
12A1  00                 [068] (105)
12A2  5A                 [069] (106)
12A3  00                 [070] (106)
12A4  00                 [071] (106)
12A5  00                 [072] (107)
12A6  5A                 [073] (107)
12A7  00                 [074] (107)
12A8  00                 [075] (107)
12A9  00                 [076] (107)
12AA  5B                 [077] (110)
12AB  00                 [078] (110)
12AC  00                 [079] (110)
12AD  00                 [080] (110)
12AE  5B                 [081] (111)
12AF  00                 [082] (111)
12B0  00                 [083] (111)
12B1  00                 [084] (111)
12B2  5B                 [085] (111)
12B3  00                 [086] (111)
12B4  00                 [087] (113)
12B5  00                 [088] (113)
12B6  5B                 [089] (115)
12B7  00                 [090] (115)
12B8  00                 [091] (116)
12B9  00                 [092] (116)
12BA  5B                 [093] (118)
12BB  00                 [094] (118)
12BC  00                 [095] (118)
12BD  00                 [096] (119)
12BE  5C                 [097] (119)
12BF  00                 [098] (119)
12C0  00                 [099] (119)
12C1  00                 [100] (120)
12C2  5C                 [101] (120)
12C3  00                 [102] (121)
12C4  00                 [103] (122)
12C5  00                 [104] (122)
12C6  5C                 [105] (122)
12C7  00                 [106] (122)
12C8  00                 [107] (122)
12C9  00                 [108] (122)
12CA  5D                 [109] (122)
12CB  00                 [110] (122)
12CC  00                 [111] (122)
12CD  00                 [112] (124)
12CE  5D                 [113] (124)
12CF  00                 [114] (124)
12D0  00                 [115] (124)
12D1  00                 [116] (124)
12D2  5D                 [117] (124)
12D3  00                 [118] (124)
12D4  00                 [119] (124)
12D5  00                 [120] (124)
12D6  5D                 [121] (126)
12D7  00                 [122] (126)
12D8  00                 [123] (126)
12D9  00                 [124] (126)
12DA  5D                 [125] (126)
12DB  00                 [126] (126)
12DC  00                 [127] (126)
12DD  00                 [128] (126)
12DE  60                 [129] (126)
12DF  00                 [130] (126)
12E0  00                 [131] (126)
12E1  00                 [132] (126)
12E2  60                 [133] (127)
12E3  00                 [134] (127)
12E4  00                 [135] (127)
12E5  00                 [136] (127)
12E6  60                 [137] (127)
12E7  00                 [138] (127)
12E8  00                 [139] (127)
12E9  00                 [140] (127)
12EA  60                 [141] (127)
12EB  00                 [142] (127)
12EC  00                 [143] (127)
12ED  00                 [144] (127)
12EE  60                 [145] (127)
12EF  00                 [146] (127)
12F0  00                 [147] (127)
12F1  00                 [148] (127)
12F2  60                 [149] (-128)
12F3  00                 [150] (-128)
12F4  00                 [151] (-128)
12F5  00                 [152] (-127)
12F6  61                 [153] (-126)
12F7  00                 [154] (-126)
12F8  00                 [155] (-126)
12F9  00                 [156] (-126)
12FA  61                 [157] (-126)
12FB  00                 [158] (-126)
12FC  00                 [159] (-125)
12FD  00                 [160] (-125)
12FE  61                 [161] (-125)
12FF  00                 [162] (-125)
1300  00                 [163] (-125)
1301  00                 [164] (-125)
1302  61                 [165] (-125)
1303  00                 [166] (-125)
1304  00                 [167] (-124)
1305  00                 [168] (-123)
1306  61                 [169] (-122)
1307  00                 [170] (-122)
1308  00                 [171] (-122)
1309  00                 [172] (-122)
130A  61                 [173] (-122)
130B  00                 [174] (-122)
130C  00                 [175] (-121)
130D  00                 [176] (-121)
130E  61                 [177] (-121)
130F  00                 [178] (-121)
1310  00                 [179] (-121)
1311  00                 [180] (-121)
1312  61                 [181] (-121)
1313  00                 [182] (-121)
1314  00                 [183] (-120)
1315  00                 [184] (-120)
1316  61                 [185] (-120)
1317  00                 [186] (-120)
1318  00                 [187] (-120)
1319  00                 [188] (-120)
131A  62                 [189] (-119)
131B  00                 [190] (-119)
131C  00                 [191] (-119)
131D  00                 [192] (-119)
131E  65                 [193] (-119)
131F  00                 [194] (-119)
1320  00                 [195] (-119)
1321  00                 [196] (-119)
1322  65                 [197] (-117)
1323  00                 [198] (-116)
1324  00                 [199] (-116)
1325  00                 [200] (-116)
1326  65                 [201] (-116)
1327  00                 [202] (-116)
1328  00                 [203] (-116)
1329  00                 [204] (-115)
132A  65                 [205] (-115)
132B  00                 [206] (-115)
132C  00                 [207] (-115)
132D  00                 [208] (-115)
132E  65                 [209] (-115)
132F  00                 [210] (-113)
1330  00                 [211] (-113)
1331  00                 [212] (-113)
1332  65                 [213] (-112)
1333  00                 [214] (-112)
1334  00                 [215] (-112)
1335  00                 [216] (-112)
1336  66                 [217] (-112)
1337  00                 [218] (-111)
1338  00                 [219] (-111)
1339  00                 [220] (-111)
133A  66                 [221] (-111)
133B  00                 [222] (-111)
133C  00                 [223] (-111)
133D  00                 [224] (-111)
133E  66                 [225] (-111)
133F  00                 [226] (-111)
1340  00                 [227] (-111)
1341  00                 [228] (-111)
1342  66                 [229] (-111)
1343  00                 [230] (-111)
1344  00                 [231] (-111)
1345  00                 [232] (-111)
1346  66                 [233] (-111)
1347  00                 [234] (-110)
1348  00                 [235] (-110)
1349  00                 [236] (-110)
134A  66                 [237] (-110)
134B  00                 [238] (-110)
134C  00                 [239] (-110)
134D  00                 [240] (-110)
134E  68                 [241] (-110)
134F  00                 [242] (-110)
1350  00                 [243] (-110)
1351  00                 [244] (-110)
1352  68                 [245] (-110)
1353  00                 [246] (-110)
1354  00                 [247] (-110)
1355  00                 [248] (-110)
1356  68                 [249] (-110)
1357  00                 [250] (-110)
1358  00                 [251] (-110)
1359  00                 [252] (-110)
135A  69                 [253] (-110)
135B  00                 [254] (-112)
135C  00                 [255] (-106)
135D  00                 [256] (-105)
135E  69                 [257] (-104)
135F  00                 [258] (-103)
1360  00                 [259] (-103)
1361  00                 [260] (-103)
1362  69                 [261] (-103)
1363  00                 [262] (-102)
1364  00                 [263] (-101)
1365  00                 [264] (-100)
1366  69                 [265] (-99)
1367  00                 [266] (-98)
1368  00                 [267] (-98)
1369  00                 [268] (-98)
136A  69                 [269] (-98)
136B  00                 [270] (-98)
136C  00                 [271] (-98)
136D  00                 [272] (-98)
136E  6A                 [273] (-98)
136F  00                 [274] (-98)
1370  00                 [275] (-98)
1371  00                 [276] (-98)
1372  6A                 [277] (-97)
1373  00                 [278] (-97)
1374  00                 [279] (-97)
1375  00                 [280] (-97)
1376  6A                 [281] (-97)
1377  00                 [282] (-97)
1378  00                 [283] (-97)
1379  00                 [284] (-97)
137A  6B                 [285] (-97)
137B  00                 [286] (-97)
137C  00                 [287] (-96)
137D  00                 [288] (-95)
137E  6B                 [289] (-95)
137F  00                 [290] (-92)
1380  00                 [291] (-92)
1381  00                 [292] (-92)
1382  6B                 [293] (-92)
1383  00                 [294] (-92)
1384  00                 [295] (-92)
1385  00                 [296] (-92)
1386  6B                 [297] (-92)
1387  00                 [298] (-92)
1388  00                 [299] (-92)
1389  00                 [300] (-91)
138A  6B                 [301] (-91)
138B  00                 [302] (-91)
138C  00                 [303] (-90)
138D  00                 [304] (-90)
138E  6E                 [305] (-88)
138F  00                 [306] (-88)
1390  00                 [307] (-87)
1391  00                 [308] (-87)
1392  6E                 [309] (-87)
1393  00                 [310] (-85)
1394  00                 [311] (-84)
1395  00                 [312] (-83)
1396  6E                 [313] (-83)
1397  00                 [314] (-82)
1398  00                 [315] (-82)
1399  00                 [316] (-80)
139A  6E                 [317] (-79)
139B  00                 [318] (-78)
139C  00                 [319] (-78)
139D  00                 [320] (-78)
139E  6F                 [321] (-78)
139F  00                 [322] (-77)
13A0  00                 [323] (-77)
13A1  00                 [324] (-77)
13A2  6F                 [325] (-77)
13A3  00                 [326] (-76)
13A4  00                 [327] (-73)
13A5  00                 [328] (-73)
13A6  6F                 [329] (-73)
13A7  00                 [330] (-73)
13A8  00                 [331] (-73)
13A9  00                 [332] (-73)
13AA  6F                 [333] (-73)
13AB  00                 [334] (-73)
13AC  00                 [335] (-73)
13AD  00                 [336] (-72)
13AE  6F                 [337] (-72)
13AF  00                 [338] (-72)
13B0  00                 [339] (-72)
13B1  00                 [340] (-72)
13B2  6F                 [341] (-72)
13B3  00                 [342] (-71)
13B4  00                 [343] (-71)
13B5  00                 [344] (-71)
13B6  71                 [345] (-71)
13B7  00                 [346] (-71)
13B8  00                 [347] (-71)
13B9  00                 [348] (-71)
13BA  71                 [349] (-71)
13BB  00                 [350] (-71)
13BC  00                 [351] (-71)
13BD  00                 [352] (-71)
13BE  73                 [353] (-71)
13BF  00                 [354] (-71)
13C0  00                 [355] (-71)
13C1  00                 [356] (-71)
13C2  73                 [357] (-71)
13C3  00                 [358] (-70)
13C4  00                 [359] (-70)
13C5  00                 [360] (-70)
13C6  74                 [361] (-70)
13C7  00                 [362] (-70)
13C8  00                 [363] (-69)
13C9  00                 [364] (-69)
13CA  74                 [365] (-69)
13CB  00                 [366] (-69)
13CC  00                 [367] (-69)
13CD  00                 [368] (-68)
13CE  76                 [369] (-66)
13CF  00                 [370] (-65)
13D0  00                 [371] (-65)
13D1  00                 [372] (-65)
13D2  76                 [373] (-65)
13D3  00                 [374] (-65)
13D4  00                 [375] (-65)
13D5  00                 [376] (-65)
13D6  76                 [377] (-65)
13D7  00                 [378] (-65)
13D8  00                 [379] (-65)
13D9  00                 [380] (-65)
13DA  77                 [381] (-65)
13DB  00                 [382] (-65)
13DC  00                 [383] (-65)
13DD  00                 [384] (-65)
13DE  77                 [385] (-65)
13DF  00                 [386] (-65)
13E0  00                 [387] (-65)
13E1  00                 [388] (-65)
13E2  77                 [389] (-64)
13E3  00                 [390] (-64)
13E4  00                 [391] (-64)
13E5  00                 [392] (-64)
13E6  77                 [393] (-64)
13E7  00                 [394] (-63)
13E8  00                 [395] (-63)
13E9  00                 [396] (-63)
13EA  78                 [397] (-63)
13EB  00                 [398] (-78)
13EC  00                 [399] (-59)
13ED  00                 [400] (-59)
13EE  78                 [401] (-59)
13EF  00                 [402] (-59)
13F0  00                 [403] (-59)
13F1  00                 [404] (-59)
13F2  79                 [405] (-58)
13F3  00                 [406] (-58)
13F4  00                 [407] (-58)
13F5  00                 [408] (-58)
13F6  7A                 [409] (-58)
13F7  00                 [410] (-58)
13F8  00                 [411] (-58)
13F9  00                 [412] (-58)
13FA  7A                 [413] (-58)
13FB  00                 [414] (-58)
13FC  00                 [415] (-58)
13FD  00                 [416] (-57)
13FE  7A                 [417] (-57)
13FF  00                 [418] (-57)
1400  00                 [419] (-57)
1401  00                 [420] (-57)
1402  7A                 [421] (-55)
1403  00                 [422] (-55)
1404  00                 [423] (-55)
1405  00                 [424] (-54)
1406  7A                 [425] (-54)
1407  00                 [426] (-54)
1408  00                 [427] (-54)
1409  00                 [428] (-54)
140A  7A                 [429] (-53)
140B  00                 [430] (-53)
140C  00                 [431] (-53)
140D  00                 [432] (-53)
140E  7A                 [433] (-53)
140F  00                 [434] (-53)
1410  00                 [435] (-53)
1411  00                 [436] (-53)
1412  7A                 [437] (-53)
1413  00                 [438] (-53)
1414  00                 [439] (-52)
1415  00                 [440] (-52)
1416  7A                 [441] (-52)
1417  00                 [442] (-52)
1418  00                 [443] (-52)
1419  00                 [444] (-52)
141A  7C                 [445] (-52)
141B  00                 [446] (-52)
141C  00                 [447] (-54)
141D  00                 [448] (-48)
141E  7C                 [449] (-48)
141F  00                 [450] (-48)
1420  00                 [451] (-48)
1421  00                 [452] (-48)
1422  7C                 [453] (-46)
1423  00                 [454] (-46)
1424  00                 [455] (-46)
1425  00                 [456] (-44)
1426  7C                 [457] (-44)
1427  00                 [458] (-44)
1428  00                 [459] (-44)
1429  00                 [460] (-43)
142A  7C                 [461] (-43)
142B  00                 [462] (-43)
142C  00                 [463] (-41)
142D  00                 [464] (-41)
142E  7C                 [465] (-41)
142F  00                 [466] (-41)
1430  00                 [467] (-41)
1431  00                 [468] (-41)
1432  7C                 [469] (-41)
1433  00                 [470] (-41)
1434  00                 [471] (-40)
1435  00                 [472] (-40)
1436  7C                 [473] (-40)
1437  00                 [474] (-40)
1438  00                 [475] (-40)
1439  00                 [476] (-40)
143A  7C                 [477] (-40)
143B  00                 [478] (-39)
143C  00                 [479] (-39)
143D  00                 [480] (-39)
143E  7E                 [481] (-39)
143F  00                 [482] (-39)
1440  00                 [483] (-38)
1441  00                 [484] (-38)
1442  7E                 [485] (-37)
1443  00                 [486] (-34)
1444  00                 [487] (-34)
1445  00                 [488] (-34)
1446  7E                 [489] (-33)
                         * locals:
1A02  00                 sizelocvars (0)
                         * upvalues:
1A03  00                 sizeupvalues (0)
                         ** end of function **

                         
1A04                     ** function [2] definition (level 2)
                         ** start of function **
1A04  00                 string size (0)
                         source name: (none)
1A06  01                 line defined (225)
1A07  E3                 last line defined (227)
1A08  01                 nups (0)
1A09  00                 numparams (0)
1A0A  00                 is_vararg (0)
1A0B  00                 maxstacksize (2)
                         * code:
1A0D  03                 sizecode (3)
1A0E  1D000000           [1] getglobal  0   0        ; _T
1A12  0C80C080           [2] settable   0   257 258  ; "ApostasySplineFadeOut" 1
1A16  1E008000           [3] return     0   1      
                         * constants:
1A1A  03                 sizek (3)
1A1B  04                 const type 4
1A1C  03                 string size (3)
1A1D  5F5400             "_T\0"
                         const [0]: "_T"
1A20  04                 const type 4
1A21  16                 string size (22)
1A22  41706F7374617379+  "Apostasy"
1A2A  53706C696E654661+  "SplineFa"
1A32  64654F757400       "deOut\0"
                         const [1]: "ApostasySplineFadeOut"
1A38  01                 const type 3
1A39  01000000           const [2]: (1)
                         * functions:
1A3D  00                 sizep (0)
                         * lines:
1A3E  03                 sizelineinfo (3)
                         [pc] (line)
1A3F  E2                 [1] (-30)
1A40  00                 [2] (-30)
1A41  00                 [3] (-29)
                         * locals:
1A4B  00                 sizelocvars (0)
                         * upvalues:
1A4C  00                 sizeupvalues (0)
                         ** end of function **

                         
1A4D                     ** function [3] definition (level 2)
                         ** start of function **
1A4D  00                 string size (0)
                         source name: (none)
1A4F  01                 line defined (229)
1A50  B6                 last line defined (438)
1A51  03                 nups (6)
1A52  06                 numparams (1)
1A53  01                 is_vararg (0)
1A54  00                 maxstacksize (75)
                         * code:
1A57  04                 sizecode (543)
1A58  5D000000           [001] getglobal  1   0        ; _T
1A5C  4E40C000           [002] gettable   1   1   257  ; "ApostasySplineTickInit"
1A60  58000000           [003] test       1       0    ; to [5] if true
1A64  1A000080           [004] jmp        1            ; to [6]
1A68  1E008000           [005] return     0   1      
1A6C  5D000000           [006] getglobal  1   0        ; _T
1A70  4C80C080           [007] settable   1   257 258  ; "ApostasySplineTickInit" 1
1A74  5D000000           [008] getglobal  1   0        ; _T
1A78  4EC0C000           [009] gettable   1   1   259  ; "ApostasySplines"
1A7C  4A008000           [010] len        1   1      
1A80  93000000           [011] getupval   2   0      
1A84  8A000001           [012] len        2   2      
fail op	21
1A88  15808000           [013] concat     0   1   2  
1A8C  1AC00080           [014] jmp        4            ; to [19]
1A90  5D000100           [015] getglobal  1   4        ; 538022378
1A94  99400100           [016] loadk      2   5        ; 0
1A98  62400001           [017] call       1   2   1  
1A9C  1A00FD7F           [018] jmp        -11          ; to [8]
1AA0  5D000000           [019] getglobal  1   0        ; _T
1AA4  4EC0C000           [020] gettable   1   1   259  ; "ApostasySplines"
1AA8  9D000000           [021] getglobal  2   0        ; _T
1AAC  8E804101           [022] gettable   2   2   262  ; "ApostasySplinesIndices"
1AB0  DD000000           [023] getglobal  3   0        ; _T
1AB4  CEC0C101           [024] gettable   3   3   263  ; "ApostasySplinePath"
1AB8  D8400000           [025] test       3       1    ; to [27] if false
1ABC  1A000080           [026] jmp        1            ; to [28]
1AC0  CB000000           [027] newtable   3   0   0    ; array=0, hash=0
1AC4  19010200           [028] loadk      4   8        ; 0
1AC8  5D410200           [029] getglobal  5   9        ; gRegion
1ACC  6481C202           [030] self       5   5   266  ; -1110225722
1AD0  DDC10200           [031] getglobal  7   11       ; splineSequencer
1AD4  24024300           [032] self       8   0   268  ; 1839670529
1AD8  22820001           [033] call       8   2   2  
1ADC  5D420300           [034] getglobal  9   13       ; ZERO_ROTATION
1AE0  62818002           [035] call       5   5   2  
1AE4  A481C302           [036] self       6   5   270  ; -1284295806
1AE8  A2810001           [037] call       6   2   2  
1AEC  D9010200           [038] loadk      7   8        ; 0
1AF0  0A020003           [039] len        8   6      
1AF4  59020200           [040] loadk      9   8        ; 0
1AF8  D0810280           [041] forprep    7   11       ; to [53]
1AFC  CE820203           [042] gettable   11  6   10 
fail op	35
1B00  63408105           [043] close      1  
1B04  1AC00180           [044] jmp        8            ; to [53]
1B08  CE820203           [045] gettable   11  6   10 
1B0C  E4C2C305           [046] self       11  11  271  ; -1957065004
1B10  5D030400           [047] getglobal  13  16       ; gSequencerType
1B14  E2828001           [048] call       11  3   2  
1B18  D8020000           [049] test       11      0    ; to [51] if true
1B1C  1A400080           [050] jmp        2            ; to [53]
1B20  8E810203           [051] gettable   6   6   10 
1B24  1A000080           [052] jmp        1            ; to [54]
1B28  D4C1FC7F           [053] forloop    7   -12      ; to [42] if loop
1B2C  D9020200           [054] loadk      11  8        ; 0
1B30  0A038000           [055] len        12  1      
1B34  59030200           [056] loadk      13  8        ; 0
1B38  D0020180           [057] forprep    11  5        ; to [63]
1B3C  CE838300           [058] gettable   15  1   14 
1B40  E443C407           [059] self       15  15  273  ; 2109594123
1B44  57040000           [060] loadbool   17  0   0    ; false
1B48  97040000           [061] loadbool   18  0   0    ; false
1B4C  E2430002           [062] call       15  4   1  
1B50  D442FE7F           [063] forloop    11  -6       ; to [58] if loop
1B54  DD430200           [064] getglobal  15  9        ; gRegion
1B58  E483C407           [065] self       15  15  274  ; 65205951
1B5C  E2830001           [066] call       15  2   2  
1B60  1DC40400           [067] getglobal  16  19       ; 572299008
1B64  22848000           [068] call       16  1   2  
1B68  59440100           [069] loadk      17  5        ; 0
1B6C  99040500           [070] loadk      18  20       ; 10
1B70  DDC40400           [071] getglobal  19  19       ; 572299008
1B74  E2848000           [072] call       19  1   2  
1B78  1DC50400           [073] getglobal  20  19       ; 572299008
1B7C  22858000           [074] call       20  1   2  
1B80  59050200           [075] loadk      21  8        ; 0
1B84  9DC50400           [076] getglobal  22  19       ; 572299008
1B88  A2858000           [077] call       22  1   2  
1B8C  D9450100           [078] loadk      23  5        ; 0
1B90  1D460500           [079] getglobal  24  21       ; math
1B94  0E86450C           [080] gettable   24  24  278  ; "min"
1B98  5D460500           [081] getglobal  25  21       ; math
1B9C  4EC6C50C           [082] gettable   25  25  279  ; "max"
1BA0  9D060600           [083] getglobal  26  24       ; FLT_MAX
1BA4  DD460600           [084] getglobal  27  25       ; VectorSub
1BA8  1D870600           [085] getglobal  28  26       ; Normalize
1BAC  59C70600           [086] loadk      29  27       ; 0
1BB0  99070700           [087] loadk      30  28       ; -51
1BB4  D9070200           [088] loadk      31  8        ; 0
1BB8  1D480500           [089] getglobal  32  21       ; math
1BBC  0E484710           [090] gettable   32  32  285  ; -1775039999
1BC0  5D480500           [091] getglobal  33  21       ; math
1BC4  4E88C710           [092] gettable   33  33  286  ; 1114998071
1BC8  99C80700           [093] loadk      34  31       ; 0
1BCC  62080001           [094] call       33  2   0  
1BD0  22880000           [095] call       32  0   2  
1BD4  59080800           [096] loadk      33  32       ; 0
1BD8  8B080000           [097] newtable   34  0   0    ; array=0, hash=0
1BDC  DD080000           [098] getglobal  35  0        ; _T
1BE0  CE48C811           [099] gettable   35  35  289  ; "ApostasySplineFadeOut"
1BE4  D8480000           [100] test       35      1    ; to [102] if false
1BE8  1A806080           [101] jmp        387          ; to [489]
1BEC  DD080000           [102] getglobal  35  0        ; _T
1BF0  CE88C811           [103] gettable   35  35  290  ; "EnableApostasySplinesIdx"
1BF4  D8480000           [104] test       35      1    ; to [106] if false
1BF8  1A000080           [105] jmp        1            ; to [107]
1BFC  D2080002           [106] move       35  4      
fail op	35
1C00  63C00802           [107] close      1  
1C04  1A000480           [108] jmp        17           ; to [126]
1C08  C3084202           [109] add        35  4   264  ; 0
1C0C  1D090000           [110] getglobal  36  0        ; _T
1C10  0E894812           [111] gettable   36  36  290  ; "EnableApostasySplinesIdx"
1C14  18490000           [112] test       36      1    ; to [114] if false
1C18  1A000080           [113] jmp        1            ; to [115]
1C1C  19490100           [114] loadk      36  5        ; 0
1C20  59090200           [115] loadk      37  8        ; 0
1C24  D0480180           [116] forprep    35  6        ; to [123]
1C28  8C484113           [117] settable   34  38  261  ; 0
1C2C  CE898900           [118] gettable   39  1   38 
1C30  E449C413           [119] self       39  39  273  ; 2109594123
1C34  570A8000           [120] loadbool   41  1   0    ; true
1C38  970A8000           [121] loadbool   42  1   0    ; true
1C3C  E2490002           [122] call       39  4   1  
1C40  D408FE7F           [123] forloop    35  -7       ; to [117] if loop
1C44  DD090000           [124] getglobal  39  0        ; _T
1C48  0E81C813           [125] gettable   4   39  290  ; "EnableApostasySplinesIdx"
1C4C  DDC90800           [126] getglobal  39  35       ; 248503575
1C50  120A0011           [127] move       40  34     
1C54  E2090101           [128] call       39  2   4  
1C58  1A400680           [129] jmp        26           ; to [156]
1C5C  1D0B0900           [130] getglobal  44  36       ; 1668611480
1C60  5D4B0900           [131] getglobal  45  37       ; 1289681407
1C64  628B8000           [132] call       45  1   2  
1C68  5C4B8716           [133] div        45  45  29 
1C6C  434B8B15           [134] add        45  43  45 
1C70  994B0100           [135] loadk      46  5        ; 0
1C74  D90B0200           [136] loadk      47  8        ; 0
1C78  228B0002           [137] call       44  4   2  
1C7C  D20A0016           [138] move       43  44     
fail op	33
1C80  21C00A84           [139] tforloop   0       43   ; to [141] if exit
1C84  1A400080           [140] jmp        2            ; to [143]
1C88  8C884915           [141] settable   34  42  294  ; nil
1C8C  1A000080           [142] jmp        1            ; to [144]
1C90  8CC80A15           [143] settable   34  42  43 
1C94  0E8B8A00           [144] gettable   44  1   42 
1C98  24CB4916           [145] self       44  44  295  ; -1576049472
1C9C  9D0B0A00           [146] getglobal  46  40       ; -1247440829
1CA0  D94B0A00           [147] loadk      47  41       ; 0
1CA4  198C0A00           [148] loadk      48  42       ; 0
1CA8  59CC0A00           [149] loadk      49  43       ; 0
1CAC  9D0C0B00           [150] getglobal  50  44       ; -1642362560
1CB0  D20C8015           [151] move       51  43     
1CB4  A28C0001           [152] call       50  2   2  
1CB8  848C8C96           [153] mul        50  301 50   ; 0
1CBC  A20B8002           [154] call       46  5   0  
1CC0  224B0000           [155] call       44  0   1  
1CC4  D6890000           [156] tforloop   39      2    ; to [158] if exit
1CC8  1AC0F87F           [157] jmp        -28          ; to [130]
1CCC  1D8B0B00           [158] getglobal  44  46       ; 1074689893
1CD0  5D0B0000           [159] getglobal  45  0        ; _T
1CD4  4ECBCB16           [160] gettable   45  45  303  ; "curTransmission"
1CD8  228B0001           [161] call       44  2   2  
1CDC  184B0000           [162] test       44      1    ; to [164] if false
1CE0  1AC00380           [163] jmp        16           ; to [180]
1CE4  1D0B0000           [164] getglobal  44  0        ; _T
1CE8  0E0B4C16           [165] gettable   44  44  304  ; "TransmissionSoundInstance"
1CEC  5D8B0B00           [166] getglobal  45  46       ; 1074689893
1CF0  920B0016           [167] move       46  44     
1CF4  628B0001           [168] call       45  2   2  
1CF8  584B0000           [169] test       45      1    ; to [171] if false
1CFC  1A400280           [170] jmp        10           ; to [181]
1D00  520B000C           [171] move       45  24     
1D04  990B0200           [172] loadk      46  8        ; 0
1D08  E44B4C16           [173] self       47  44  305  ; -688523144
1D0C  E20B0001           [174] call       47  2   0  
1D10  628B0000           [175] call       45  0   2  
1D14  4D4B8B08           [176] sub        45  17  45 
1D18  444B0B09           [177] mul        45  18  45 
1D1C  4D448B08           [178] sub        17  17  45 
1D20  1A000080           [179] jmp        1            ; to [181]
1D24  59440100           [180] loadk      17  5        ; 0
1D28  648BCC07           [181] self       45  15  306  ; -1897199203
1D2C  D20B0008           [182] move       47  16     
1D30  624B8001           [183] call       45  3   1  
1D34  5DCB0C00           [184] getglobal  45  51       ; splineMat
1D38  640BCD16           [185] self       45  45  308  ; -1795477990
1D3C  D30B8000           [186] getupval   47  1      
1D40  0E4C4D08           [187] gettable   48  16  309  ; "x"
1D44  4E8C4D08           [188] gettable   49  16  310  ; "y"
1D48  8ECC4D08           [189] gettable   50  16  311  ; "z"
1D4C  D94C0100           [190] loadk      51  5        ; 0
1D50  624B8003           [191] call       45  7   1  
1D54  5DCB0C00           [192] getglobal  45  51       ; splineMat
1D58  640BCD16           [193] self       45  45  308  ; -1795477990
1D5C  D30B0001           [194] getupval   47  2      
1D60  1D0C0E00           [195] getglobal  48  56       ; -1828500651
1D64  590C0200           [196] loadk      49  8        ; 0
1D68  990C0800           [197] loadk      50  32       ; 0
1D6C  D20C8008           [198] move       51  17     
1D70  228C0002           [199] call       48  4   2  
1D74  590C0200           [200] loadk      49  8        ; 0
1D78  994C0100           [201] loadk      50  5        ; 0
1D7C  D94C0100           [202] loadk      51  5        ; 0
1D80  624B8003           [203] call       45  7   1  
1D84  5DCB0C00           [204] getglobal  45  51       ; splineMat
1D88  640BCD16           [205] self       45  45  308  ; -1795477990
1D8C  D30B8001           [206] getupval   47  3      
1D90  1D0C0E00           [207] getglobal  48  56       ; -1828500651
1D94  594C0E00           [208] loadk      49  57       ; 0
1D98  998C0E00           [209] loadk      50  58       ; 0
1D9C  D20C8008           [210] move       51  17     
1DA0  228C0002           [211] call       48  4   2  
1DA4  590C0800           [212] loadk      49  32       ; 0
1DA8  994C0100           [213] loadk      50  5        ; 0
1DAC  D94C0100           [214] loadk      51  5        ; 0
1DB0  624B8003           [215] call       45  7   1  
1DB4  5DCB0C00           [216] getglobal  45  51       ; splineMat
1DB8  640BCD16           [217] self       45  45  308  ; -1795477990
1DBC  D30B0002           [218] getupval   47  4      
1DC0  1D0C0E00           [219] getglobal  48  56       ; -1828500651
1DC4  590C0200           [220] loadk      49  8        ; 0
1DC8  99CC0E00           [221] loadk      50  59       ; 0
1DCC  D20C8008           [222] move       51  17     
1DD0  220C0002           [223] call       48  4   0  
1DD4  624B0000           [224] call       45  0   1  
1DD8  590B0200           [225] loadk      45  8        ; 0
1DDC  8A0B8000           [226] len        46  1      
1DE0  D90B0200           [227] loadk      47  8        ; 0
1DE4  500B0180           [228] forprep    45  5        ; to [234]
1DE8  4E0C8C00           [229] gettable   49  1   48 
1DEC  640CCF18           [230] self       49  49  316  ; 6727634
1DF0  C44CCF08           [231] mul        51  17  317  ; 0
1DF4  C34CCF19           [232] add        51  51  317  ; 0
1DF8  624C8001           [233] call       49  3   1  
1DFC  544BFE7F           [234] forloop    45  -6       ; to [229] if loop
1E00  598C0F00           [235] loadk      49  62       ; 0
1E04  920C000D           [236] move       50  26     
1E08  D90C0200           [237] loadk      51  8        ; 0
1E0C  0A0D8001           [238] len        52  3      
1E10  0D0D421A           [239] sub        52  52  264  ; 0
1E14  590D0200           [240] loadk      53  8        ; 0
1E18  D04C0280           [241] forprep    51  10       ; to [252]
1E1C  DDCD0F00           [242] getglobal  55  63       ; 1363972918
1E20  0E8E8D01           [243] gettable   56  3   54 
1E24  430E421B           [244] add        57  54  264  ; 0
1E28  4E4E8E01           [245] gettable   57  3   57 
1E2C  920E0008           [246] move       58  16     
1E30  E28D0002           [247] call       55  4   2  
fail op	21
1E34  15808C1B           [248] concat     0   55  50 
1E38  1A400080           [249] jmp        2            ; to [252]
1E3C  920C801B           [250] move       50  55     
1E40  520C001B           [251] move       49  54     
1E44  D40CFD7F           [252] forloop    51  -11      ; to [242] if loop
fail op	21
1E48  15000184           [253] concat     0   264 4  
1E4C  1A003580           [254] jmp        213          ; to [468]
1E50  0E0E0101           [255] gettable   56  2   4  
1E54  184E0000           [256] test       56      1    ; to [258] if false
1E58  1A000080           [257] jmp        1            ; to [259]
1E5C  198E0F00           [258] loadk      56  62       ; 0
fail op	33
1E60  21400C1C           [259] tforloop   0       49   ; to [261] if exit
1E64  1A803380           [260] jmp        207          ; to [468]
1E68  240ED002           [261] self       56  5   320  ; -1318948062
1E6C  228E0001           [262] call       56  2   2  
1E70  184E0000           [263] test       56      1    ; to [265] if false
1E74  1A400080           [264] jmp        2            ; to [267]
1E78  244ED002           [265] self       56  5   321  ; -974578778
1E7C  224E0001           [266] call       56  2   1  
1E80  0E4E8C01           [267] gettable   56  3   49 
1E84  430EC218           [268] add        57  49  264  ; 0
1E88  4E4E8E01           [269] gettable   57  3   57 
1E8C  920E800D           [270] move       58  27     
1E90  D20E8009           [271] move       59  19     
1E94  120F001C           [272] move       60  56     
1E98  520F801C           [273] move       61  57     
1E9C  A24E0002           [274] call       58  4   1  
1EA0  9D8E1000           [275] getglobal  58  66       ; -918195135
1EA4  DDCE1000           [276] getglobal  59  67       ; -610107473
1EA8  120F8009           [277] move       60  19     
1EAC  520F8009           [278] move       61  19     
1EB0  E20E8001           [279] call       59  3   0  
1EB4  A28E0000           [280] call       58  0   2  
1EB8  D20E800D           [281] move       59  27     
1EBC  120F8009           [282] move       60  19     
1EC0  520F0008           [283] move       61  16     
1EC4  920F001C           [284] move       62  56     
1EC8  E24E0002           [285] call       59  4   1  
1ECC  D20E800D           [286] move       59  27     
1ED0  120F000A           [287] move       60  20     
1ED4  520F801C           [288] move       61  57     
1ED8  920F001C           [289] move       62  56     
1EDC  E24E0002           [290] call       59  4   1  
1EE0  DD0E0900           [291] getglobal  59  36       ; 1668611480
1EE4  1DCF1000           [292] getglobal  60  67       ; -610107473
1EE8  520F8009           [293] move       61  19     
1EEC  920F000A           [294] move       62  20     
1EF0  228F8001           [295] call       60  3   2  
1EF4  1C8F0E1E           [296] div        60  60  58 
1EF8  594F0100           [297] loadk      61  5        ; 0
1EFC  990F0200           [298] loadk      62  8        ; 0
1F00  E28E0002           [299] call       59  4   2  
1F04  1D0F1100           [300] getglobal  60  68       ; -523730508
1F08  520F001C           [301] move       61  56     
1F0C  920F801C           [302] move       62  57     
1F10  D20F801D           [303] move       63  59     
1F14  228F0002           [304] call       60  4   2  
fail op	21
1F18  15C08582           [305] concat     0   261 23 
1F1C  1AC00180           [306] jmp        8            ; to [315]
1F20  520F800C           [307] move       61  25     
1F24  994F0100           [308] loadk      62  5        ; 0
1F28  DD4F0900           [309] getglobal  63  37       ; 1289681407
1F2C  E28F8000           [310] call       63  1   2  
1F30  CDCF8F0B           [311] sub        63  23  63 
1F34  628F8001           [312] call       61  3   2  
1F38  D205801E           [313] move       23  61     
1F3C  1AC01580           [314] jmp        88           ; to [403]
fail op	21
1F40  1540C10B           [315] concat     0   23  261
1F44  1AC00180           [316] jmp        8            ; to [325]
1F48  520F000C           [317] move       61  24     
1F4C  994F0100           [318] loadk      62  5        ; 0
1F50  DD4F0900           [319] getglobal  63  37       ; 1289681407
1F54  E28F8000           [320] call       63  1   2  
1F58  C3CF8F0B           [321] add        63  23  63 
1F5C  628F8001           [322] call       61  3   2  
1F60  D205801E           [323] move       23  61     
1F64  1A401380           [324] jmp        78           ; to [403]
1F68  520F800D           [325] move       61  27     
1F6C  920F8009           [326] move       62  19     
1F70  D20F001C           [327] move       63  56     
1F74  1210801C           [328] move       64  57     
1F78  624F0002           [329] call       61  4   1  
1F7C  520F800D           [330] move       61  27     
1F80  920F000A           [331] move       62  20     
1F84  D20F801C           [332] move       63  57     
1F88  0350D118           [333] add        64  49  325  ; 0
1F8C  0E109001           [334] gettable   64  3   64 
1F90  18500000           [335] test       64      1    ; to [337] if false
1F94  1A000080           [336] jmp        1            ; to [338]
1F98  1210001C           [337] move       64  56     
1F9C  624F0002           [338] call       61  4   1  
1FA0  520F000E           [339] move       61  28     
1FA4  920F8009           [340] move       62  19     
1FA8  624F0001           [341] call       61  2   1  
1FAC  520F000E           [342] move       61  28     
1FB0  920F000A           [343] move       62  20     
1FB4  624F0001           [344] call       61  2   1  
1FB8  570F0000           [345] loadbool   61  0   0    ; false
1FBC  A48FD102           [346] self       62  5   326  ; -1399888605
1FC0  1210801C           [347] move       64  57     
1FC4  A28F8001           [348] call       62  3   2  
fail op	21
1FC8  1540081F           [349] concat     0   62  33 
1FCC  1A800180           [350] jmp        7            ; to [358]
1FD0  9DCF1000           [351] getglobal  62  67       ; -610107473
1FD4  D20F8009           [352] move       63  19     
1FD8  1210000A           [353] move       64  20     
1FDC  A28F8001           [354] call       62  3   2  
fail op	21
1FE0  1500081F           [355] concat     0   62  32 
1FE4  1A000080           [356] jmp        1            ; to [358]
1FE8  570F8000           [357] loadbool   61  1   0    ; true
1FEC  584F0000           [358] test       61      1    ; to [360] if false
1FF0  1AC00580           [359] jmp        24           ; to [384]
1FF4  920F800D           [360] move       62  27     
1FF8  D20F000A           [361] move       63  20     
1FFC  0D10C218           [362] sub        64  49  264  ; 0
2000  0E109001           [363] gettable   64  3   64 
2004  18500000           [364] test       64      1    ; to [366] if false
2008  1A000080           [365] jmp        1            ; to [367]
200C  1210001C           [366] move       64  56     
2010  5210001C           [367] move       65  56     
2014  A24F0002           [368] call       62  4   1  
2018  920F000E           [369] move       62  28     
201C  D20F000A           [370] move       63  20     
2020  A24F0001           [371] call       62  2   1  
2024  A48FD102           [372] self       62  5   326  ; -1399888605
2028  1210001C           [373] move       64  56     
202C  A28F8001           [374] call       62  3   2  
fail op	21
2030  1540081F           [375] concat     0   62  33 
2034  1A800180           [376] jmp        7            ; to [384]
2038  9DCF1000           [377] getglobal  62  67       ; -610107473
203C  D20F8009           [378] move       63  19     
2040  1210000A           [379] move       64  20     
2044  A28F8001           [380] call       62  3   2  
fail op	21
2048  1500081F           [381] concat     0   62  32 
204C  1A000080           [382] jmp        1            ; to [384]
2050  570F8000           [383] loadbool   61  1   0    ; true
2054  A40F5003           [384] self       62  6   320  ; -1318948062
2058  A28F0001           [385] call       62  2   2  
205C  580F0000           [386] test       61      0    ; to [388] if true
2060  1A800180           [387] jmp        7            ; to [395]
2064  984F0000           [388] test       62      1    ; to [390] if false
2068  1A000180           [389] jmp        5            ; to [395]
206C  D205800F           [390] move       23  31     
2070  E4CF5103           [391] self       63  6   327  ; -1923578185
2074  59101200           [392] loadk      65  72       ; "Enable"
2078  E24F8001           [393] call       63  3   1  
207C  1AC00180           [394] jmp        8            ; to [403]
2080  584F0000           [395] test       61      1    ; to [397] if false
2084  1A400180           [396] jmp        6            ; to [403]
2088  980F0000           [397] test       62      0    ; to [399] if true
208C  1AC00080           [398] jmp        4            ; to [403]
fail op	0
2090  C005800F           [399] move       23  31     
2094  E4CF5103           [400] self       63  6   327  ; -1923578185
2098  59501200           [401] loadk      65  73       ; "Disable"
209C  E24F8001           [402] call       63  3   1  
fail op	33
20A0  21400584           [403] tforloop   0       21   ; to [405] if exit
20A4  1A000280           [404] jmp        9            ; to [414]
20A8  E48FD102           [405] self       63  5   326  ; -1399888605
20AC  5210001E           [406] move       65  60     
20B0  E28F8001           [407] call       63  3   2  
fail op	21
20B4  15C00F0F           [408] concat     0   30  63 
20B8  1AC00080           [409] jmp        4            ; to [414]
20BC  E48FCC02           [410] self       63  5   306  ; -1897199203
20C0  5210000B           [411] move       65  22     
20C4  E24F8001           [412] call       63  3   1  
20C8  59450100           [413] loadk      21  5        ; 0
fail op	21
20CC  1500C20A           [414] concat     0   21  264
20D0  1A000880           [415] jmp        33           ; to [449]
20D4  D20F000C           [416] move       63  24     
20D8  19100200           [417] loadk      64  8        ; 0
20DC  5D500900           [418] getglobal  65  37       ; 1289681407
20E0  62908000           [419] call       65  1   2  
20E4  5C90D220           [420] div        65  65  330  ; -51
20E8  4350900A           [421] add        65  21  65 
20EC  E28F8001           [422] call       63  3   2  
20F0  5205801F           [423] move       21  63     
20F4  E4CFD202           [424] self       63  5   331  ; 970454089
20F8  5D101100           [425] getglobal  65  68       ; -523730508
20FC  9210000B           [426] move       66  22     
2100  D210001E           [427] move       67  60     
2104  1211800A           [428] move       68  21     
2108  62900002           [429] call       65  4   2  
210C  9D500300           [430] getglobal  66  13       ; ZERO_ROTATION
2110  E24F0002           [431] call       63  4   1  
2114  D30F8002           [432] getupval   63  5      
2118  D80F0000           [433] test       63      0    ; to [435] if true
211C  1A400480           [434] jmp        18           ; to [453]
2120  DD4F0200           [435] getglobal  63  9        ; gRegion
2124  E40FD31F           [436] self       63  63  332  ; -1820544339
2128  52100008           [437] move       65  16     
212C  A410C302           [438] self       66  5   268  ; 1839670529
2130  A2900001           [439] call       66  2   2  
2134  DD100A00           [440] getglobal  67  40       ; -1247440829
2138  19510B00           [441] loadk      68  45       ; 0
213C  59510100           [442] loadk      69  5        ; 0
2140  99510B00           [443] loadk      70  45       ; 0
2144  D9510B00           [444] loadk      71  45       ; 0
2148  E2908002           [445] call       67  5   2  
214C  19510100           [446] loadk      68  5        ; 0
2150  E24F0003           [447] call       63  6   1  
2154  1AC00080           [448] jmp        4            ; to [453]
2158  E4CFD202           [449] self       63  5   331  ; 970454089
215C  5210001E           [450] move       65  60     
2160  9D500300           [451] getglobal  66  13       ; ZERO_ROTATION
2164  E24F0002           [452] call       63  4   1  
2168  D30F8002           [453] getupval   63  5      
216C  D80F0000           [454] test       63      0    ; to [456] if true
2170  1AC00280           [455] jmp        12           ; to [468]
2174  DD4F0200           [456] getglobal  63  9        ; gRegion
2178  E40FD31F           [457] self       63  63  332  ; -1820544339
217C  52100008           [458] move       65  16     
2180  9210001E           [459] move       66  60     
2184  DD100A00           [460] getglobal  67  40       ; -1247440829
2188  19510B00           [461] loadk      68  45       ; 0
218C  59510B00           [462] loadk      69  45       ; 0
2190  99510B00           [463] loadk      70  45       ; 0
2194  D9510B00           [464] loadk      71  45       ; 0
2198  E2908002           [465] call       67  5   2  
219C  19510100           [466] loadk      68  5        ; 0
21A0  E24F0003           [467] call       63  6   1  
21A4  DD0F0100           [468] getglobal  63  4        ; 538022378
21A8  19500100           [469] loadk      64  5        ; 0
21AC  E24F0001           [470] call       63  2   1  
21B0  DD4F0200           [471] getglobal  63  9        ; gRegion
21B4  E48FC41F           [472] self       63  63  274  ; 65205951
21B8  E28F0001           [473] call       63  2   2  
21BC  D203801F           [474] move       15  63     
21C0  DD8F0B00           [475] getglobal  63  46       ; 1074689893
21C4  12108007           [476] move       64  15     
21C8  E28F0001           [477] call       63  2   2  
21CC  D80F0000           [478] test       63      0    ; to [480] if true
21D0  1A40A07F           [479] jmp        -382         ; to [98]
21D4  DD0F0100           [480] getglobal  63  4        ; 538022378
21D8  19500100           [481] loadk      64  5        ; 0
21DC  E24F0001           [482] call       63  2   1  
21E0  DD4F0200           [483] getglobal  63  9        ; gRegion
21E4  E48FC41F           [484] self       63  63  274  ; 65205951
21E8  E28F0001           [485] call       63  2   2  
21EC  D203801F           [486] move       15  63     
21F0  1A80FC7F           [487] jmp        -13          ; to [475]
21F4  1A009E7F           [488] jmp        -391         ; to [98]
21F8  DD8F0B00           [489] getglobal  63  46       ; 1074689893
21FC  12100003           [490] move       64  6      
2200  E28F0001           [491] call       63  2   2  
2204  D84F0000           [492] test       63      1    ; to [494] if false
2208  1A400080           [493] jmp        2            ; to [496]
220C  E44F5303           [494] self       63  6   333  ; 766584623
2210  E24F0001           [495] call       63  2   1  
2214  DD8F0B00           [496] getglobal  63  46       ; 1074689893
2218  12108002           [497] move       64  5      
221C  E28F0001           [498] call       63  2   2  
2220  D84F0000           [499] test       63      1    ; to [501] if false
2224  1A400080           [500] jmp        2            ; to [503]
2228  E44FD302           [501] self       63  5   333  ; 766584623
222C  E24F0001           [502] call       63  2   1  
2230  D94F0100           [503] loadk      63  5        ; 0
fail op	21
2234  1500C21F           [504] concat     0   63  264
2238  1A000780           [505] jmp        29           ; to [535]
223C  1D100100           [506] getglobal  64  4        ; 538022378
2240  59500100           [507] loadk      65  5        ; 0
2244  22500001           [508] call       64  2   1  
2248  1D500900           [509] getglobal  64  37       ; 1289681407
224C  22908000           [510] call       64  1   2  
2250  C30F901F           [511] add        63  63  64 
2254  1DD00C00           [512] getglobal  64  51       ; splineMat
2258  24104D20           [513] self       64  64  308  ; -1795477990
225C  93108001           [514] getupval   66  3      
2260  DD100E00           [515] getglobal  67  56       ; -1828500651
2264  19510E00           [516] loadk      68  57       ; 0
2268  59910E00           [517] loadk      69  58       ; 0
226C  92118008           [518] move       70  17     
2270  E2900002           [519] call       67  4   2  
2274  1D110E00           [520] getglobal  68  56       ; -1828500651
2278  59911300           [521] loadk      69  78       ; 0
227C  99D11300           [522] loadk      70  79       ; 0
2280  DD110900           [523] getglobal  71  36       ; 1668611480
2284  1D120B00           [524] getglobal  72  44       ; -1642362560
2288  5212801F           [525] move       73  63     
228C  22920001           [526] call       72  2   2  
2290  59520100           [527] loadk      73  5        ; 0
2294  99120200           [528] loadk      74  8        ; 0
2298  E2110002           [529] call       71  4   0  
229C  22910000           [530] call       68  0   2  
22A0  59510100           [531] loadk      69  5        ; 0
22A4  99510100           [532] loadk      70  5        ; 0
22A8  22508003           [533] call       64  7   1  
22AC  1A00F87F           [534] jmp        -31          ; to [504]
22B0  0A108000           [535] len        64  1      
22B4  59100200           [536] loadk      65  8        ; 0
22B8  99900F00           [537] loadk      66  62       ; 0
22BC  10900080           [538] forprep    64  3        ; to [542]
22C0  0ED19000           [539] gettable   68  1   67 
22C4  24115422           [540] self       68  68  336  ; -725453761
22C8  22510001           [541] call       68  2   1  
22CC  14D0FE7F           [542] forloop    64  -4       ; to [539] if loop
22D0  1E008000           [543] return     0   1      
                         * constants:
22D4  51                 sizek (81)
22D5  04                 const type 4
22D6  03                 string size (3)
22D7  5F5400             "_T\0"
                         const [0]: "_T"
22DA  04                 const type 4
22DB  17                 string size (23)
22DC  41706F7374617379+  "Apostasy"
22E4  53706C696E655469+  "SplineTi"
22EC  636B496E697400     "ckInit\0"
                         const [1]: "ApostasySplineTickInit"
22F3  01                 const type 3
22F4  01000000           const [2]: (1)
22F8  04                 const type 4
22F9  10                 string size (16)
22FA  41706F7374617379+  "Apostasy"
2302  53706C696E657300   "Splines\0"
                         const [3]: "ApostasySplines"
230A  01                 const type 3
230B  EA911120           const [4]: (538022378)
230F  03                 const type 3
2310  00000000           const [5]: (0)
2314  04                 const type 4
2315  17                 string size (23)
2316  41706F7374617379+  "Apostasy"
231E  53706C696E657349+  "SplinesI"
2326  6E646963657300     "ndices\0"
                         const [6]: "ApostasySplinesIndices"
232D  04                 const type 4
232E  13                 string size (19)
232F  41706F7374617379+  "Apostasy"
2337  53706C696E655061+  "SplinePa"
233F  746800             "th\0"
                         const [7]: "ApostasySplinePath"
2342  03                 const type 3
2343  0000803F           const [8]: (0)
2347  04                 const type 4
2348  08                 string size (8)
2349  67526567696F6E00   "gRegion\0"
                         const [9]: "gRegion"
2351  01                 const type 3
2352  C64CD3BD           const [10]: (-1110225722)
2356  04                 const type 4
2357  10                 string size (16)
2358  73706C696E655365+  "splineSe"
2360  7175656E63657200   "quencer\0"
                         const [11]: "splineSequencer"
2368  01                 const type 3
2369  0125A76D           const [12]: (1839670529)
236D  04                 const type 4
236E  0E                 string size (14)
236F  5A45524F5F524F54+  "ZERO_ROT"
2377  4154494F4E00       "ATION\0"
                         const [13]: "ZERO_ROTATION"
237D  01                 const type 3
237E  823373B3           const [14]: (-1284295806)
2382  01                 const type 3
2383  D48E598B           const [15]: (-1957065004)
2387  04                 const type 4
2388  0F                 string size (15)
2389  6753657175656E63+  "gSequenc"
2391  65725479706500     "erType\0"
                         const [16]: "gSequencerType"
2398  01                 const type 3
2399  0BDABD7D           const [17]: (2109594123)
239D  01                 const type 3
239E  BFF6E203           const [18]: (65205951)
23A2  01                 const type 3
23A3  00971C22           const [19]: (572299008)
23A7  03                 const type 3
23A8  0AD7A33C           const [20]: (10)
23AC  04                 const type 4
23AD  05                 string size (5)
23AE  6D61746800         "math\0"
                         const [21]: "math"
23B3  04                 const type 4
23B4  04                 string size (4)
23B5  6D696E00           "min\0"
                         const [22]: "min"
23B9  04                 const type 4
23BA  04                 string size (4)
23BB  6D617800           "max\0"
                         const [23]: "max"
23BF  04                 const type 4
23C0  08                 string size (8)
23C1  464C545F4D415800   "FLT_MAX\0"
                         const [24]: "FLT_MAX"
23C9  04                 const type 4
23CA  0A                 string size (10)
23CB  566563746F725375+  "VectorSu"
23D3  6200               "b\0"
                         const [25]: "VectorSub"
23D5  04                 const type 4
23D6  0A                 string size (10)
23D7  4E6F726D616C697A+  "Normaliz"
23DF  6500               "e\0"
                         const [26]: "Normalize"
23E1  03                 const type 3
23E2  0000C03F           const [27]: (0)
23E6  03                 const type 3
23E7  CDCCCC3D           const [28]: (-51)
23EB  01                 const type 3
23EC  010A3396           const [29]: (-1775039999)
23F0  01                 const type 3
23F1  37857542           const [30]: (1114998071)
23F5  03                 const type 3
23F6  00009041           const [31]: (0)
23FA  03                 const type 3
23FB  0000A040           const [32]: (0)
23FF  04                 const type 4
2400  16                 string size (22)
2401  41706F7374617379+  "Apostasy"
2409  53706C696E654661+  "SplineFa"
2411  64654F757400       "deOut\0"
                         const [33]: "ApostasySplineFadeOut"
2417  04                 const type 4
2418  19                 string size (25)
2419  456E61626C654170+  "EnableAp"
2421  6F73746173795370+  "ostasySp"
2429  6C696E6573496478+  "linesIdx"
2431  00                 "\0"
                         const [34]: "EnableApostasySplinesIdx"
2432  01                 const type 3
2433  17DDCF0E           const [35]: (248503575)
2437  01                 const type 3
2438  98FD7463           const [36]: (1668611480)
243C  01                 const type 3
243D  FFF9DE4C           const [37]: (1289681407)
2441  00                 const type 0
                         const [38]: nil
2442  01                 const type 3
2443  C0640FA2           const [39]: (-1576049472)
2447  01                 const type 3
2448  4390A5B5           const [40]: (-1247440829)
244C  03                 const type 3
244D  00002042           const [41]: (0)
2451  03                 const type 3
2452  0000C842           const [42]: (0)
2456  03                 const type 3
2457  00000543           const [43]: (0)
245B  01                 const type 3
245C  40891B9E           const [44]: (-1642362560)
2460  03                 const type 3
2461  00007F43           const [45]: (0)
2465  01                 const type 3
2466  65770E40           const [46]: (1074689893)
246A  04                 const type 4
246B  10                 string size (16)
246C  6375725472616E73+  "curTrans"
2474  6D697373696F6E00   "mission\0"
                         const [47]: "curTransmission"
247C  04                 const type 4
247D  1A                 string size (26)
247E  5472616E736D6973+  "Transmis"
2486  73696F6E536F756E+  "sionSoun"
248E  64496E7374616E63+  "dInstanc"
2496  6500               "e\0"
                         const [48]: "TransmissionSoundInstance"
2498  01                 const type 3
2499  78F8F5D6           const [49]: (-688523144)
249D  01                 const type 3
249E  9D09EB8E           const [50]: (-1897199203)
24A2  04                 const type 4
24A3  0A                 string size (10)
24A4  73706C696E654D61+  "splineMa"
24AC  7400               "t\0"
                         const [51]: "splineMat"
24AE  01                 const type 3
24AF  1A2EFB94           const [52]: (-1795477990)
24B3  04                 const type 4
24B4  02                 string size (2)
24B5  7800               "x\0"
                         const [53]: "x"
24B7  04                 const type 4
24B8  02                 string size (2)
24B9  7900               "y\0"
                         const [54]: "y"
24BB  04                 const type 4
24BC  02                 string size (2)
24BD  7A00               "z\0"
                         const [55]: "z"
24BF  01                 const type 3
24C0  554B0393           const [56]: (-1828500651)
24C4  03                 const type 3
24C5  00002041           const [57]: (0)
24C9  03                 const type 3
24CA  0000C841           const [58]: (0)
24CE  03                 const type 3
24CF  00000041           const [59]: (0)
24D3  01                 const type 3
24D4  D2A76600           const [60]: (6727634)
24D8  03                 const type 3
24D9  0000803E           const [61]: (0)
24DD  03                 const type 3
24DE  000080BF           const [62]: (0)
24E2  01                 const type 3
24E3  36934C51           const [63]: (1363972918)
24E7  01                 const type 3
24E8  227362B1           const [64]: (-1318948062)
24EC  01                 const type 3
24ED  A61BE9C5           const [65]: (-974578778)
24F1  01                 const type 3
24F2  417445C9           const [66]: (-918195135)
24F6  01                 const type 3
24F7  AF7FA2DB           const [67]: (-610107473)
24FB  01                 const type 3
24FC  B481C8E0           const [68]: (-523730508)
2500  03                 const type 3
2501  00000040           const [69]: (0)
2505  01                 const type 3
2506  23658FAC           const [70]: (-1399888605)
250A  01                 const type 3
250B  B786588D           const [71]: (-1923578185)
250F  04                 const type 4
2510  07                 string size (7)
2511  456E61626C6500     "Enable\0"
                         const [72]: "Enable"
2518  04                 const type 4
2519  08                 string size (8)
251A  44697361626C6500   "Disable\0"
                         const [73]: "Disable"
2522  03                 const type 3
2523  CDCC4C3E           const [74]: (-51)
2527  01                 const type 3
2528  49F4D739           const [75]: (970454089)
252C  01                 const type 3
252D  ADB27C93           const [76]: (-1820544339)
2531  01                 const type 3
2532  2F27B12D           const [77]: (766584623)
2536  03                 const type 3
2537  0000A0C0           const [78]: (0)
253B  03                 const type 3
253C  0000C8C2           const [79]: (0)
2540  01                 const type 3
2541  3F74C2D4           const [80]: (-725453761)
                         * functions:
2545  00                 sizep (0)
                         * lines:
2547  04                 sizelineinfo (543)
                         [pc] (line)
2548  E6                 [001] (-26)
2549  00                 [002] (-26)
254A  00                 [003] (-26)
254B  00                 [004] (-26)
254C  E6                 [005] (-25)
254D  00                 [006] (-23)
254E  00                 [007] (-23)
254F  00                 [008] (-21)
2550  E6                 [009] (-21)
2551  00                 [010] (-21)
2552  00                 [011] (-21)
2553  00                 [012] (-21)
2554  E6                 [013] (-21)
2555  00                 [014] (-21)
2556  00                 [015] (-20)
2557  00                 [016] (-20)
2558  E7                 [017] (-20)
2559  00                 [018] (-20)
255A  00                 [019] (-17)
255B  00                 [020] (-17)
255C  E9                 [021] (-16)
255D  00                 [022] (-16)
255E  00                 [023] (-15)
255F  00                 [024] (-15)
2560  E9                 [025] (-15)
2561  00                 [026] (-15)
2562  00                 [027] (-15)
2563  00                 [028] (-14)
2564  EB                 [029] (-12)
2565  00                 [030] (-12)
2566  00                 [031] (-12)
2567  00                 [032] (-12)
2568  EB                 [033] (-12)
2569  00                 [034] (-12)
256A  00                 [035] (-12)
256B  00                 [036] (-11)
256C  EB                 [037] (-11)
256D  00                 [038] (-10)
256E  00                 [039] (-10)
256F  00                 [040] (-10)
2570  EB                 [041] (-10)
2571  00                 [042] (-9)
2572  00                 [043] (-9)
2573  00                 [044] (-9)
2574  EB                 [045] (-9)
2575  00                 [046] (-9)
2576  00                 [047] (-9)
2577  00                 [048] (-9)
2578  EB                 [049] (-9)
2579  00                 [050] (-9)
257A  00                 [051] (-8)
257B  00                 [052] (-7)
257C  EB                 [053] (-10)
257D  00                 [054] (-3)
257E  00                 [055] (-3)
257F  00                 [056] (-3)
2580  EC                 [057] (-3)
2581  00                 [058] (-2)
2582  00                 [059] (-2)
2583  00                 [060] (-2)
2584  EC                 [061] (-2)
2585  00                 [062] (-2)
2586  00                 [063] (-3)
2587  00                 [064] (1)
2588  EC                 [065] (1)
2589  00                 [066] (1)
258A  00                 [067] (2)
258B  00                 [068] (2)
258C  EC                 [069] (3)
258D  00                 [070] (4)
258E  00                 [071] (5)
258F  00                 [072] (5)
2590  EF                 [073] (5)
2591  00                 [074] (5)
2592  00                 [075] (6)
2593  00                 [076] (7)
2594  EF                 [077] (7)
2595  00                 [078] (8)
2596  00                 [079] (10)
2597  00                 [080] (10)
2598  F0                 [081] (11)
2599  00                 [082] (11)
259A  00                 [083] (12)
259B  00                 [084] (13)
259C  F0                 [085] (14)
259D  00                 [086] (16)
259E  00                 [087] (18)
259F  00                 [088] (19)
25A0  F1                 [089] (20)
25A1  00                 [090] (20)
25A2  00                 [091] (20)
25A3  00                 [092] (20)
25A4  F1                 [093] (20)
25A5  00                 [094] (20)
25A6  00                 [095] (20)
25A7  00                 [096] (21)
25A8  F1                 [097] (23)
25A9  00                 [098] (25)
25AA  00                 [099] (25)
25AB  00                 [100] (25)
25AC  F1                 [101] (25)
25AD  00                 [102] (26)
25AE  00                 [103] (26)
25AF  00                 [104] (26)
25B0  F1                 [105] (26)
25B1  00                 [106] (26)
25B2  00                 [107] (26)
25B3  00                 [108] (26)
25B4  F2                 [109] (27)
25B5  00                 [110] (27)
25B6  00                 [111] (27)
25B7  00                 [112] (27)
25B8  F4                 [113] (27)
25B9  00                 [114] (27)
25BA  00                 [115] (27)
25BB  00                 [116] (27)
25BC  F4                 [117] (28)
25BD  00                 [118] (32)
25BE  00                 [119] (32)
25BF  00                 [120] (32)
25C0  F4                 [121] (32)
25C1  00                 [122] (32)
25C2  00                 [123] (27)
25C3  00                 [124] (34)
25C4  F4                 [125] (34)
25C5  00                 [126] (37)
25C6  00                 [127] (37)
25C7  00                 [128] (37)
25C8  F4                 [129] (37)
25C9  00                 [130] (38)
25CA  00                 [131] (38)
25CB  00                 [132] (38)
25CC  F4                 [133] (38)
25CD  00                 [134] (38)
25CE  00                 [135] (38)
25CF  00                 [136] (38)
25D0  F4                 [137] (38)
25D1  00                 [138] (38)
25D2  00                 [139] (39)
25D3  00                 [140] (39)
25D4  F5                 [141] (40)
25D5  00                 [142] (40)
25D6  00                 [143] (42)
25D7  00                 [144] (45)
25D8  F5                 [145] (45)
25D9  00                 [146] (45)
25DA  00                 [147] (45)
25DB  00                 [148] (45)
25DC  F6                 [149] (45)
25DD  00                 [150] (45)
25DE  00                 [151] (45)
25DF  00                 [152] (45)
25E0  F6                 [153] (45)
25E1  00                 [154] (45)
25E2  00                 [155] (45)
25E3  00                 [156] (37)
25E4  F6                 [157] (45)
25E5  00                 [158] (58)
25E6  00                 [159] (58)
25E7  00                 [160] (58)
25E8  F6                 [161] (58)
25E9  00                 [162] (58)
25EA  00                 [163] (58)
25EB  00                 [164] (59)
25EC  F7                 [165] (59)
25ED  00                 [166] (60)
25EE  00                 [167] (60)
25EF  00                 [168] (60)
25F0  F7                 [169] (60)
25F1  00                 [170] (60)
25F2  00                 [171] (61)
25F3  00                 [172] (61)
25F4  F7                 [173] (61)
25F5  00                 [174] (61)
25F6  00                 [175] (61)
25F7  00                 [176] (61)
25F8  F7                 [177] (61)
25F9  00                 [178] (61)
25FA  00                 [179] (62)
25FB  00                 [180] (64)
25FC  F7                 [181] (66)
25FD  00                 [182] (66)
25FE  00                 [183] (66)
25FF  00                 [184] (67)
2600  F7                 [185] (67)
2601  00                 [186] (67)
2602  00                 [187] (67)
2603  00                 [188] (67)
2604  F7                 [189] (67)
2605  00                 [190] (67)
2606  00                 [191] (67)
2607  00                 [192] (68)
2608  F7                 [193] (68)
2609  00                 [194] (68)
260A  00                 [195] (68)
260B  00                 [196] (68)
260C  F7                 [197] (68)
260D  00                 [198] (68)
260E  00                 [199] (68)
260F  00                 [200] (68)
2610  F8                 [201] (68)
2611  00                 [202] (68)
2612  00                 [203] (68)
2613  00                 [204] (69)
2614  F9                 [205] (69)
2615  00                 [206] (69)
2616  00                 [207] (69)
2617  00                 [208] (69)
2618  F6                 [209] (69)
2619  00                 [210] (69)
261A  00                 [211] (69)
261B  00                 [212] (69)
261C  FD                 [213] (69)
261D  00                 [214] (69)
261E  00                 [215] (69)
261F  00                 [216] (70)
2620  FD                 [217] (70)
2621  00                 [218] (70)
2622  00                 [219] (70)
2623  00                 [220] (70)
2624  FD                 [221] (70)
2625  00                 [222] (70)
2626  00                 [223] (70)
2627  00                 [224] (70)
2628  FD                 [225] (71)
2629  00                 [226] (71)
262A  00                 [227] (71)
262B  00                 [228] (71)
262C  FE                 [229] (72)
262D  00                 [230] (72)
262E  00                 [231] (72)
262F  00                 [232] (72)
2630  FE                 [233] (72)
2631  00                 [234] (71)
2632  00                 [235] (75)
2633  00                 [236] (76)
2634  FE                 [237] (77)
2635  00                 [238] (77)
2636  00                 [239] (77)
2637  00                 [240] (77)
2638  FE                 [241] (77)
2639  00                 [242] (78)
263A  00                 [243] (78)
263B  00                 [244] (78)
263C  FE                 [245] (78)
263D  00                 [246] (78)
263E  00                 [247] (78)
263F  00                 [248] (79)
2640  FD                 [249] (79)
2641  00                 [250] (80)
2642  00                 [251] (81)
2643  00                 [252] (77)
2644  01                 [253] (85)
2645  01                 [254] (85)
2646  00                 [255] (85)
2647  00                 [256] (85)
2648  01                 [257] (85)
2649  01                 [258] (85)
264A  00                 [259] (85)
264B  00                 [260] (85)
264C  01                 [261] (86)
264D  01                 [262] (86)
264E  00                 [263] (86)
264F  00                 [264] (86)
2650  02                 [265] (87)
2651  01                 [266] (87)
2652  00                 [267] (90)
2653  00                 [268] (91)
2654  02                 [269] (91)
2655  01                 [270] (92)
2656  00                 [271] (92)
2657  00                 [272] (92)
2658  03                 [273] (92)
2659  01                 [274] (92)
265A  00                 [275] (93)
265B  00                 [276] (93)
265C  04                 [277] (93)
265D  01                 [278] (93)
265E  00                 [279] (93)
265F  00                 [280] (93)
2660  05                 [281] (94)
2661  01                 [282] (94)
2662  00                 [283] (94)
2663  00                 [284] (94)
2664  05                 [285] (94)
2665  01                 [286] (95)
2666  00                 [287] (95)
2667  00                 [288] (95)
2668  05                 [289] (95)
2669  01                 [290] (95)
266A  00                 [291] (96)
266B  00                 [292] (96)
266C  05                 [293] (96)
266D  01                 [294] (96)
266E  00                 [295] (96)
266F  00                 [296] (96)
2670  06                 [297] (96)
2671  01                 [298] (96)
2672  00                 [299] (96)
2673  00                 [300] (97)
2674  07                 [301] (97)
2675  01                 [302] (97)
2676  00                 [303] (97)
2677  00                 [304] (97)
2678  07                 [305] (99)
2679  01                 [306] (99)
267A  00                 [307] (100)
267B  00                 [308] (100)
267C  08                 [309] (100)
267D  01                 [310] (100)
267E  00                 [311] (100)
267F  00                 [312] (100)
2680  0A                 [313] (100)
2681  01                 [314] (100)
2682  00                 [315] (101)
2683  00                 [316] (101)
2684  0A                 [317] (102)
2685  01                 [318] (102)
2686  00                 [319] (102)
2687  00                 [320] (102)
2688  0B                 [321] (102)
2689  01                 [322] (102)
268A  00                 [323] (102)
268B  00                 [324] (102)
268C  0B                 [325] (104)
268D  01                 [326] (104)
268E  00                 [327] (104)
268F  00                 [328] (104)
2690  0C                 [329] (104)
2691  01                 [330] (105)
2692  00                 [331] (105)
2693  00                 [332] (105)
2694  0D                 [333] (105)
2695  01                 [334] (105)
2696  00                 [335] (105)
2697  00                 [336] (105)
2698  0E                 [337] (105)
2699  01                 [338] (105)
269A  00                 [339] (106)
269B  00                 [340] (106)
269C  10                 [341] (106)
269D  01                 [342] (107)
269E  00                 [343] (107)
269F  00                 [344] (107)
26A0  12                 [345] (109)
26A1  01                 [346] (111)
26A2  00                 [347] (111)
26A3  00                 [348] (111)
26A4  13                 [349] (111)
26A5  01                 [350] (111)
26A6  00                 [351] (111)
26A7  00                 [352] (111)
26A8  14                 [353] (111)
26A9  01                 [354] (111)
26AA  00                 [355] (111)
26AB  00                 [356] (111)
26AC  14                 [357] (112)
26AD  01                 [358] (115)
26AE  00                 [359] (115)
26AF  00                 [360] (116)
26B0  14                 [361] (116)
26B1  01                 [362] (116)
26B2  00                 [363] (116)
26B3  00                 [364] (116)
26B4  14                 [365] (116)
26B5  01                 [366] (116)
26B6  00                 [367] (116)
26B7  00                 [368] (116)
26B8  14                 [369] (117)
26B9  01                 [370] (117)
26BA  00                 [371] (117)
26BB  00                 [372] (119)
26BC  14                 [373] (119)
26BD  01                 [374] (119)
26BE  00                 [375] (119)
26BF  00                 [376] (119)
26C0  14                 [377] (119)
26C1  01                 [378] (119)
26C2  00                 [379] (119)
26C3  00                 [380] (119)
26C4  15                 [381] (119)
26C5  01                 [382] (119)
26C6  00                 [383] (120)
26C7  00                 [384] (124)
26C8  17                 [385] (124)
26C9  01                 [386] (125)
26CA  00                 [387] (125)
26CB  00                 [388] (125)
26CC  19                 [389] (125)
26CD  01                 [390] (126)
26CE  00                 [391] (127)
26CF  00                 [392] (127)
26D0  19                 [393] (127)
26D1  01                 [394] (127)
26D2  00                 [395] (-128)
26D3  00                 [396] (-128)
26D4  19                 [397] (-128)
26D5  01                 [398] (-128)
26D6  00                 [399] (-127)
26D7  00                 [400] (-126)
26D8  19                 [401] (-126)
26D9  01                 [402] (-126)
26DA  00                 [403] (-121)
26DB  00                 [404] (-121)
26DC  1A                 [405] (-121)
26DD  01                 [406] (-121)
26DE  00                 [407] (-121)
26DF  00                 [408] (-121)
26E0  1A                 [409] (-121)
26E1  01                 [410] (-120)
26E2  00                 [411] (-120)
26E3  00                 [412] (-120)
26E4  1A                 [413] (-119)
26E5  01                 [414] (-116)
26E6  00                 [415] (-116)
26E7  00                 [416] (-115)
26E8  1A                 [417] (-115)
26E9  01                 [418] (-115)
26EA  00                 [419] (-115)
26EB  00                 [420] (-115)
26EC  1A                 [421] (-115)
26ED  01                 [422] (-115)
26EE  00                 [423] (-115)
26EF  00                 [424] (-114)
26F0  1A                 [425] (-114)
26F1  01                 [426] (-114)
26F2  00                 [427] (-114)
26F3  00                 [428] (-114)
26F4  1A                 [429] (-114)
26F5  01                 [430] (-114)
26F6  00                 [431] (-114)
26F7  00                 [432] (-113)
26F8  1B                 [433] (-113)
26F9  01                 [434] (-113)
26FA  00                 [435] (-112)
26FB  00                 [436] (-112)
26FC  1B                 [437] (-112)
26FD  01                 [438] (-112)
26FE  00                 [439] (-112)
26FF  00                 [440] (-112)
2700  1B                 [441] (-112)
2701  01                 [442] (-112)
2702  00                 [443] (-112)
2703  00                 [444] (-112)
2704  1B                 [445] (-112)
2705  01                 [446] (-112)
2706  00                 [447] (-112)
2707  00                 [448] (-111)
2708  1B                 [449] (-109)
2709  01                 [450] (-109)
270A  00                 [451] (-109)
270B  00                 [452] (-109)
270C  1B                 [453] (-106)
270D  01                 [454] (-106)
270E  00                 [455] (-106)
270F  00                 [456] (-105)
2710  1B                 [457] (-105)
2711  01                 [458] (-105)
2712  00                 [459] (-105)
2713  00                 [460] (-105)
2714  1B                 [461] (-105)
2715  01                 [462] (-105)
2716  00                 [463] (-105)
2717  00                 [464] (-105)
2718  1C                 [465] (-105)
2719  01                 [466] (-105)
271A  00                 [467] (-105)
271B  00                 [468] (-101)
271C  20                 [469] (-101)
271D  01                 [470] (-101)
271E  00                 [471] (-100)
271F  00                 [472] (-100)
2720  20                 [473] (-100)
2721  01                 [474] (-100)
2722  00                 [475] (-99)
2723  00                 [476] (-99)
2724  20                 [477] (-99)
2725  01                 [478] (-99)
2726  00                 [479] (-99)
2727  00                 [480] (-98)
2728  20                 [481] (-98)
2729  01                 [482] (-98)
272A  00                 [483] (-97)
272B  00                 [484] (-97)
272C  20                 [485] (-97)
272D  01                 [486] (-97)
272E  00                 [487] (-97)
272F  00                 [488] (-96)
2730  1B                 [489] (-93)
2731  01                 [490] (-93)
2732  00                 [491] (-93)
2733  00                 [492] (-93)
2734  22                 [493] (-93)
2735  01                 [494] (-92)
2736  00                 [495] (-92)
2737  00                 [496] (-89)
2738  22                 [497] (-89)
2739  01                 [498] (-89)
273A  00                 [499] (-89)
273B  00                 [500] (-89)
273C  25                 [501] (-88)
273D  01                 [502] (-88)
273E  00                 [503] (-85)
273F  00                 [504] (-84)
2740  25                 [505] (-84)
2741  01                 [506] (-83)
2742  00                 [507] (-83)
2743  00                 [508] (-83)
2744  25                 [509] (-82)
2745  01                 [510] (-82)
2746  00                 [511] (-82)
2747  00                 [512] (-80)
2748  25                 [513] (-80)
2749  01                 [514] (-80)
274A  00                 [515] (-80)
274B  00                 [516] (-80)
274C  26                 [517] (-80)
274D  01                 [518] (-80)
274E  00                 [519] (-80)
274F  00                 [520] (-80)
2750  26                 [521] (-80)
2751  01                 [522] (-80)
2752  00                 [523] (-80)
2753  00                 [524] (-80)
2754  26                 [525] (-80)
2755  01                 [526] (-80)
2756  00                 [527] (-80)
2757  00                 [528] (-80)
2758  26                 [529] (-80)
2759  01                 [530] (-80)
275A  00                 [531] (-80)
275B  00                 [532] (-80)
275C  26                 [533] (-80)
275D  01                 [534] (-80)
275E  00                 [535] (-77)
275F  00                 [536] (-77)
2760  26                 [537] (-77)
2761  01                 [538] (-77)
2762  00                 [539] (-76)
2763  00                 [540] (-76)
2764  26                 [541] (-76)
2765  01                 [542] (-77)
2766  00                 [543] (-74)
                         * locals:
2DC4  00                 sizelocvars (0)
                         * upvalues:
2DC5  00                 sizeupvalues (0)
                         ** end of function **

                         
2DC6                     ** function [4] definition (level 2)
                         ** start of function **
2DC6  00                 string size (0)
                         source name: (none)
2DC8  03                 line defined (440)
2DC9  EC                 last line defined (492)
2DCA  03                 nups (0)
2DCB  00                 numparams (1)
2DCC  01                 is_vararg (0)
2DCD  00                 maxstacksize (29)
                         * code:
2DD0  01                 sizecode (178)
2DD1  5D000000           [001] getglobal  1   0        ; 538022378
2DD5  99400000           [002] loadk      2   1        ; 0
2DD9  62400001           [003] call       1   2   1  
2DDD  5D800000           [004] getglobal  1   2        ; gRegion
2DE1  64C0C000           [005] self       1   1   259  ; 925677844
2DE5  62800001           [006] call       1   2   2  
2DE9  6400C100           [007] self       1   1   260  ; -1813551355
2DED  62800001           [008] call       1   2   2  
2DF1  9D400100           [009] getglobal  2   5        ; 1074689893
2DF5  D2000000           [010] move       3   0      
2DF9  A2800001           [011] call       2   2   2  
2DFD  98400000           [012] test       2       1    ; to [14] if false
2E01  1AC00080           [013] jmp        4            ; to [18]
2E05  A4804100           [014] self       2   0   262  ; 263007870
2E09  A2800001           [015] call       2   2   2  
2E0D  98400000           [016] test       2       1    ; to [18] if false
2E11  1A000280           [017] jmp        9            ; to [27]
2E15  9D400100           [018] getglobal  2   5        ; 1074689893
2E19  D2008000           [019] move       3   1      
2E1D  A2800001           [020] call       2   2   2  
2E21  98400000           [021] test       2       1    ; to [23] if false
2E25  1AC00180           [022] jmp        8            ; to [31]
2E29  A480C100           [023] self       2   1   262  ; 263007870
2E2D  A2800001           [024] call       2   2   2  
2E31  98000000           [025] test       2       0    ; to [27] if true
2E35  1AC00080           [026] jmp        4            ; to [31]
2E39  9D000000           [027] getglobal  2   0        ; 538022378
2E3D  D9400000           [028] loadk      3   1        ; 0
2E41  A2400001           [029] call       2   2   1  
2E45  1A40FA7F           [030] jmp        -22          ; to [9]
2E49  9D400100           [031] getglobal  2   5        ; 1074689893
2E4D  D2000000           [032] move       3   0      
2E51  A2800001           [033] call       2   2   2  
2E55  98400000           [034] test       2       1    ; to [36] if false
2E59  1A000180           [035] jmp        5            ; to [41]
2E5D  9D400100           [036] getglobal  2   5        ; 1074689893
2E61  D2008000           [037] move       3   1      
2E65  A2800001           [038] call       2   2   2  
2E69  98000000           [039] test       2       0    ; to [41] if true
2E6D  1A000080           [040] jmp        1            ; to [42]
2E71  1E008000           [041] return     0   1      
2E75  9DC00100           [042] getglobal  2   7        ; -332969190
2E79  D9000200           [043] loadk      3   8        ; "APOSTASY"
2E7D  A2800001           [044] call       2   2   2  
2E81  C6008001           [045] loadnil    3   3      
2E85  0B010000           [046] newtable   4   0   0    ; array=0, hash=0
2E89  4B010000           [047] newtable   5   0   0    ; array=0, hash=0
2E8D  9D810000           [048] getglobal  6   2        ; gRegion
2E91  A4414203           [049] self       6   6   265  ; -1875307917
2E95  1DC20100           [050] getglobal  8   7        ; -332969190
2E99  59820200           [051] loadk      9   10       ; "VoidOperatorPathA2"
2E9D  22020001           [052] call       8   2   0  
2EA1  A2810000           [053] call       6   0   2  
2EA5  DD410100           [054] getglobal  7   5        ; 1074689893
2EA9  12020003           [055] move       8   6      
2EAD  E2810001           [056] call       7   2   2  
2EB1  D8410000           [057] test       7       1    ; to [59] if false
2EB5  1A800080           [058] jmp        3            ; to [62]
2EB9  E4C14203           [059] self       7   6   267  ; 1839670529
2EBD  E2810001           [060] call       7   2   2  
2EC1  D2008003           [061] move       3   7      
2EC5  E401C300           [062] self       7   1   268  ; -1917464545
2EC9  E2810001           [063] call       7   2   2  
2ECD  E441C303           [064] self       7   7   269  ; 819640984
2ED1  E2810001           [065] call       7   2   2  
2ED5  1D420100           [066] getglobal  8   5        ; 1074689893
2ED9  52028003           [067] move       9   7      
2EDD  22820001           [068] call       8   2   2  
2EE1  18420000           [069] test       8       1    ; to [71] if false
2EE5  1A800680           [070] jmp        27           ; to [98]
2EE9  2482C303           [071] self       8   7   270  ; -1957065004
2EED  9DC20300           [072] getglobal  10  15       ; gLotusNpcAvatarType
2EF1  22828001           [073] call       8   3   2  
2EF5  18020000           [074] test       8       0    ; to [76] if true
2EF9  1A400580           [075] jmp        22           ; to [98]
2EFD  1D420100           [076] getglobal  8   5        ; 1074689893
2F01  6402C403           [077] self       9   7   272  ; -1411785325
2F05  62020001           [078] call       9   2   0  
2F09  22820000           [079] call       8   0   2  
2F0D  18420000           [080] test       8       1    ; to [82] if false
2F11  1AC00380           [081] jmp        16           ; to [98]
2F15  1D420400           [082] getglobal  8   17       ; table
2F19  0E824404           [083] gettable   8   8   274  ; -431682403
2F1D  52028002           [084] move       9   5      
2F21  A402C403           [085] self       10  7   272  ; -1411785325
2F25  A2020001           [086] call       10  2   0  
2F29  22420000           [087] call       8   0   1  
2F2D  1D420100           [088] getglobal  8   5        ; 1074689893
2F31  52028001           [089] move       9   3      
2F35  22820001           [090] call       8   2   2  
2F39  18420000           [091] test       8       1    ; to [93] if false
2F3D  1A000180           [092] jmp        5            ; to [98]
2F41  1D420400           [093] getglobal  8   17       ; table
2F45  0E824404           [094] gettable   8   8   274  ; -431682403
2F49  52020002           [095] move       9   4      
2F4D  92028003           [096] move       10  7      
2F51  22428001           [097] call       8   3   1  
2F55  1D820000           [098] getglobal  8   2        ; gRegion
2F59  24C24404           [099] self       8   8   275  ; 2021214108
2F5D  9DC20300           [100] getglobal  10  15       ; gLotusNpcAvatarType
2F61  22828001           [101] call       8   3   2  
2F65  5D020500           [102] getglobal  9   20       ; 1672515847
2F69  92020004           [103] move       10  8      
2F6D  62020101           [104] call       9   2   4  
2F71  1A800880           [105] jmp        35           ; to [141]
2F75  9D430100           [106] getglobal  14  5        ; 1074689893
2F79  D2038006           [107] move       15  13     
2F7D  A2830001           [108] call       14  2   2  
2F81  98430000           [109] test       14      1    ; to [111] if false
2F85  1A400780           [110] jmp        30           ; to [141]
2F89  9D430100           [111] getglobal  14  5        ; 1074689893
2F8D  E403C406           [112] self       15  13  272  ; -1411785325
2F91  E2030001           [113] call       15  2   0  
2F95  A2830000           [114] call       14  0   2  
2F99  98430000           [115] test       14      1    ; to [117] if false
2F9D  1AC00580           [116] jmp        24           ; to [141]
2FA1  A443C506           [117] self       14  13  277  ; -1073689042
2FA5  A2830001           [118] call       14  2   2  
fail op	35
2FA9  63400007           [119] close      1  
2FAD  1AC00080           [120] jmp        4            ; to [125]
2FB1  A443C506           [121] self       14  13  277  ; -1073689042
2FB5  A2830001           [122] call       14  2   2  
fail op	35
2FB9  23000007           [123] close      0  
2FBD  1AC00380           [124] jmp        16           ; to [141]
2FC1  9D430400           [125] getglobal  14  17       ; table
2FC5  8E834407           [126] gettable   14  14  274  ; -431682403
2FC9  D2038002           [127] move       15  5      
2FCD  2404C406           [128] self       16  13  272  ; -1411785325
2FD1  22040001           [129] call       16  2   0  
2FD5  A2430000           [130] call       14  0   1  
2FD9  9D430100           [131] getglobal  14  5        ; 1074689893
2FDD  D2038001           [132] move       15  3      
2FE1  A2830001           [133] call       14  2   2  
2FE5  98430000           [134] test       14      1    ; to [136] if false
2FE9  1A000180           [135] jmp        5            ; to [141]
2FED  9D430400           [136] getglobal  14  17       ; table
2FF1  8E834407           [137] gettable   14  14  274  ; -431682403
2FF5  D2030002           [138] move       15  4      
2FF9  12048006           [139] move       16  13     
2FFD  A2438001           [140] call       14  3   1  
3001  56820000           [141] tforloop   9       2    ; to [143] if exit
3005  1A80F67F           [142] jmp        -37          ; to [106]
3009  9D430100           [143] getglobal  14  5        ; 1074689893
300D  D2030000           [144] move       15  0      
3011  A2830001           [145] call       14  2   2  
3015  98430000           [146] test       14      1    ; to [148] if false
3019  1A400780           [147] jmp        30           ; to [178]
301D  9D430100           [148] getglobal  14  5        ; 1074689893
3021  D2038000           [149] move       15  1      
3025  A2830001           [150] call       14  2   2  
3029  98430000           [151] test       14      1    ; to [153] if false
302D  1A000680           [152] jmp        25           ; to [178]
3031  9D030500           [153] getglobal  14  20       ; 1672515847
3035  D2038002           [154] move       15  5      
3039  A2030101           [155] call       14  2   4  
303D  1AC00080           [156] jmp        4            ; to [161]
3041  E4844509           [157] self       19  18  278  ; 1038470555
3045  57058000           [158] loadbool   21  1   0    ; true
3049  92050001           [159] move       22  2      
304D  E2440002           [160] call       19  4   1  
3051  96830000           [161] tforloop   14      2    ; to [163] if exit
3055  1A40FE7F           [162] jmp        -6           ; to [157]
3059  DD040500           [163] getglobal  19  20       ; 1672515847
305D  12050002           [164] move       20  4      
3061  E2040101           [165] call       19  2   4  
3065  1A000180           [166] jmp        5            ; to [172]
3069  24C6C50B           [167] self       24  23  279  ; 970454089
306D  92068001           [168] move       26  3      
3071  E406C60B           [169] self       27  23  280  ; -231049143
3075  E2060001           [170] call       27  2   0  
3079  22460000           [171] call       24  0   1  
307D  D6840000           [172] tforloop   19      2    ; to [174] if exit
3081  1A00FE7F           [173] jmp        -7           ; to [167]
3085  1D060000           [174] getglobal  24  0        ; 538022378
3089  59460000           [175] loadk      25  1        ; 0
308D  22460001           [176] call       24  2   1  
3091  1A00F77F           [177] jmp        -35          ; to [143]
3095  1E008000           [178] return     0   1      
                         * constants:
3099  19                 sizek (25)
309A  01                 const type 3
309B  EA911120           const [0]: (538022378)
309F  03                 const type 3
30A0  00000000           const [1]: (0)
30A4  04                 const type 4
30A5  08                 string size (8)
30A6  67526567696F6E00   "gRegion\0"
                         const [2]: "gRegion"
30AE  01                 const type 3
30AF  14B92C37           const [3]: (925677844)
30B3  01                 const type 3
30B4  0567E793           const [4]: (-1813551355)
30B8  01                 const type 3
30B9  65770E40           const [5]: (1074689893)
30BD  01                 const type 3
30BE  7E2EAD0F           const [6]: (263007870)
30C2  01                 const type 3
30C3  1A4B27EC           const [7]: (-332969190)
30C7  04                 const type 4
30C8  09                 string size (9)
30C9  41504F5354415359+  "APOSTASY"
30D1  00                 "\0"
                         const [8]: "APOSTASY"
30D2  01                 const type 3
30D3  73123990           const [9]: (-1875307917)
30D7  04                 const type 4
30D8  13                 string size (19)
30D9  566F69644F706572+  "VoidOper"
30E1  61746F7250617468+  "atorPath"
30E9  413200             "A2\0"
                         const [10]: "VoidOperatorPathA2"
30EC  01                 const type 3
30ED  0125A76D           const [11]: (1839670529)
30F1  01                 const type 3
30F2  1FD0B58D           const [12]: (-1917464545)
30F6  01                 const type 3
30F7  98BADA30           const [13]: (819640984)
30FB  01                 const type 3
30FC  D48E598B           const [14]: (-1957065004)
3100  04                 const type 4
3101  14                 string size (20)
3102  674C6F7475734E70+  "gLotusNp"
310A  6341766174617254+  "cAvatarT"
3112  79706500           "ype\0"
                         const [15]: "gLotusNpcAvatarType"
3116  01                 const type 3
3117  93DDD9AB           const [16]: (-1411785325)
311B  04                 const type 4
311C  06                 string size (6)
311D  7461626C6500       "table\0"
                         const [17]: "table"
3123  01                 const type 3
3124  9D0C45E6           const [18]: (-431682403)
3128  01                 const type 3
3129  9C477978           const [19]: (2021214108)
312D  01                 const type 3
312E  0791B063           const [20]: (1672515847)
3132  01                 const type 3
3133  2ECE00C0           const [21]: (-1073689042)
3137  01                 const type 3
3138  9BCDE53D           const [22]: (1038470555)
313C  01                 const type 3
313D  49F4D739           const [23]: (970454089)
3141  01                 const type 3
3142  49783AF2           const [24]: (-231049143)
                         * functions:
3146  00                 sizep (0)
                         * lines:
3148  01                 sizelineinfo (178)
                         [pc] (line)
3149  BA                 [001] (-70)
314A  01                 [002] (-70)
314B  00                 [003] (-70)
314C  00                 [004] (-69)
314D  BA                 [005] (-69)
314E  01                 [006] (-69)
314F  00                 [007] (-69)
3150  00                 [008] (-69)
3151  BA                 [009] (-66)
3152  01                 [010] (-66)
3153  00                 [011] (-66)
3154  00                 [012] (-66)
3155  BB                 [013] (-66)
3156  01                 [014] (-66)
3157  00                 [015] (-66)
3158  00                 [016] (-66)
3159  BB                 [017] (-66)
315A  01                 [018] (-65)
315B  00                 [019] (-65)
315C  00                 [020] (-65)
315D  BB                 [021] (-65)
315E  01                 [022] (-65)
315F  00                 [023] (-65)
3160  00                 [024] (-65)
3161  BB                 [025] (-65)
3162  01                 [026] (-65)
3163  00                 [027] (-64)
3164  00                 [028] (-64)
3165  BB                 [029] (-64)
3166  01                 [030] (-64)
3167  00                 [031] (-61)
3168  00                 [032] (-61)
3169  BE                 [033] (-61)
316A  01                 [034] (-61)
316B  00                 [035] (-61)
316C  00                 [036] (-61)
316D  BE                 [037] (-61)
316E  01                 [038] (-61)
316F  00                 [039] (-61)
3170  00                 [040] (-61)
3171  BE                 [041] (-60)
3172  01                 [042] (-57)
3173  00                 [043] (-57)
3174  00                 [044] (-57)
3175  BE                 [045] (-56)
3176  01                 [046] (-55)
3177  00                 [047] (-54)
3178  00                 [048] (-51)
3179  BE                 [049] (-51)
317A  01                 [050] (-51)
317B  00                 [051] (-51)
317C  00                 [052] (-51)
317D  BE                 [053] (-51)
317E  01                 [054] (-50)
317F  00                 [055] (-50)
3180  00                 [056] (-50)
3181  BE                 [057] (-50)
3182  01                 [058] (-50)
3183  00                 [059] (-49)
3184  00                 [060] (-49)
3185  BE                 [061] (-49)
3186  01                 [062] (-47)
3187  00                 [063] (-47)
3188  00                 [064] (-47)
3189  BE                 [065] (-47)
318A  01                 [066] (-46)
318B  00                 [067] (-46)
318C  00                 [068] (-46)
318D  BF                 [069] (-46)
318E  01                 [070] (-46)
318F  00                 [071] (-46)
3190  00                 [072] (-46)
3191  BF                 [073] (-46)
3192  01                 [074] (-46)
3193  00                 [075] (-46)
3194  00                 [076] (-46)
3195  BF                 [077] (-46)
3196  01                 [078] (-46)
3197  00                 [079] (-46)
3198  00                 [080] (-46)
3199  BF                 [081] (-46)
319A  01                 [082] (-45)
319B  00                 [083] (-45)
319C  00                 [084] (-45)
319D  BF                 [085] (-45)
319E  01                 [086] (-45)
319F  00                 [087] (-45)
31A0  00                 [088] (-44)
31A1  BF                 [089] (-44)
31A2  01                 [090] (-44)
31A3  00                 [091] (-44)
31A4  00                 [092] (-44)
31A5  BF                 [093] (-43)
31A6  01                 [094] (-43)
31A7  00                 [095] (-43)
31A8  00                 [096] (-43)
31A9  BF                 [097] (-43)
31AA  01                 [098] (-40)
31AB  00                 [099] (-40)
31AC  00                 [100] (-40)
31AD  BF                 [101] (-40)
31AE  01                 [102] (-39)
31AF  00                 [103] (-39)
31B0  00                 [104] (-39)
31B1  C0                 [105] (-39)
31B2  01                 [106] (-38)
31B3  00                 [107] (-38)
31B4  00                 [108] (-38)
31B5  C0                 [109] (-38)
31B6  01                 [110] (-38)
31B7  00                 [111] (-38)
31B8  00                 [112] (-38)
31B9  C0                 [113] (-38)
31BA  01                 [114] (-38)
31BB  00                 [115] (-38)
31BC  00                 [116] (-38)
31BD  C0                 [117] (-38)
31BE  01                 [118] (-38)
31BF  00                 [119] (-38)
31C0  00                 [120] (-38)
31C1  C3                 [121] (-38)
31C2  01                 [122] (-38)
31C3  00                 [123] (-38)
31C4  00                 [124] (-38)
31C5  C3                 [125] (-37)
31C6  01                 [126] (-37)
31C7  00                 [127] (-37)
31C8  00                 [128] (-37)
31C9  C3                 [129] (-37)
31CA  01                 [130] (-37)
31CB  00                 [131] (-36)
31CC  00                 [132] (-36)
31CD  C3                 [133] (-36)
31CE  01                 [134] (-36)
31CF  00                 [135] (-36)
31D0  00                 [136] (-35)
31D1  C3                 [137] (-35)
31D2  01                 [138] (-35)
31D3  00                 [139] (-35)
31D4  00                 [140] (-35)
31D5  C3                 [141] (-39)
31D6  01                 [142] (-33)
31D7  00                 [143] (-30)
31D8  00                 [144] (-30)
31D9  C3                 [145] (-30)
31DA  01                 [146] (-30)
31DB  00                 [147] (-30)
31DC  00                 [148] (-30)
31DD  C3                 [149] (-30)
31DE  01                 [150] (-30)
31DF  00                 [151] (-30)
31E0  00                 [152] (-30)
31E1  C3                 [153] (-29)
31E2  01                 [154] (-29)
31E3  00                 [155] (-29)
31E4  00                 [156] (-29)
31E5  C3                 [157] (-28)
31E6  01                 [158] (-28)
31E7  00                 [159] (-28)
31E8  00                 [160] (-28)
31E9  C4                 [161] (-29)
31EA  01                 [162] (-28)
31EB  00                 [163] (-25)
31EC  00                 [164] (-25)
31ED  C7                 [165] (-25)
31EE  01                 [166] (-25)
31EF  00                 [167] (-24)
31F0  00                 [168] (-24)
31F1  C7                 [169] (-24)
31F2  01                 [170] (-24)
31F3  00                 [171] (-24)
31F4  00                 [172] (-25)
31F5  C7                 [173] (-24)
31F6  01                 [174] (-22)
31F7  00                 [175] (-22)
31F8  00                 [176] (-22)
31F9  C8                 [177] (-22)
31FA  01                 [178] (-20)
                         * locals:
3411  00                 sizelocvars (0)
                         * upvalues:
3412  00                 sizeupvalues (0)
                         ** end of function **

                         
3413                     ** function [5] definition (level 2)
                         ** start of function **
3413  00                 string size (0)
                         source name: (none)
3415  03                 line defined (494)
3416  D4                 last line defined (596)
3417  04                 nups (4)
3418  04                 numparams (1)
3419  01                 is_vararg (0)
341A  00                 maxstacksize (21)
                         * code:
341D  02                 sizecode (300)
341E  5D000000           [001] getglobal  1   0        ; 1074689893
3422  92000000           [002] move       2   0      
3426  62800001           [003] call       1   2   2  
342A  58400000           [004] test       1       1    ; to [6] if false
342E  1A400280           [005] jmp        10           ; to [16]
3432  64404000           [006] self       1   0   257  ; -1957065004
3436  DD800000           [007] getglobal  3   2        ; gTennoAvatarType
343A  62808001           [008] call       1   3   2  
343E  58000000           [009] test       1       0    ; to [11] if true
3442  1A000180           [010] jmp        5            ; to [16]
3446  64404000           [011] self       1   0   257  ; -1957065004
344A  DDC00000           [012] getglobal  3   3        ; gLotusOperatorAvatarType
344E  62808001           [013] call       1   3   2  
3452  58000000           [014] test       1       0    ; to [16] if true
3456  1A000080           [015] jmp        1            ; to [17]
345A  1E008000           [016] return     0   1      
345E  5D000100           [017] getglobal  1   4        ; gGameRules
3462  6440C100           [018] self       1   1   261  ; -1201441975
3466  62800001           [019] call       1   2   2  
346A  9D000000           [020] getglobal  2   0        ; 1074689893
346E  D2008000           [021] move       3   1      
3472  A2800001           [022] call       2   2   2  
3476  98400000           [023] test       2       1    ; to [25] if false
347A  1A400180           [024] jmp        6            ; to [31]
347E  8E80C100           [025] gettable   2   1   262  ; "goalTag"
3482  DDC00100           [026] getglobal  3   7        ; -332969190
3486  19010200           [027] loadk      4   8        ; "Apostasy"
348A  E2800001           [028] call       3   2   2  
fail op	35
348E  63C00001           [029] close      1  
3492  1A000080           [030] jmp        1            ; to [32]
3496  97400000           [031] loadbool   2   0   1    ; false, to [33]
349A  97008000           [032] loadbool   2   1   0    ; true
349E  98400000           [033] test       2       1    ; to [35] if false
34A2  1AC00280           [034] jmp        12           ; to [47]
34A6  DD000100           [035] getglobal  3   4        ; gGameRules
34AA  E440C201           [036] self       3   3   265  ; 516385015
34AE  E2800001           [037] call       3   2   2  
34B2  E480C201           [038] self       3   3   266  ; -1105824
34B6  57010000           [039] loadbool   5   0   0    ; false
34BA  E2408001           [040] call       3   3   1  
34BE  DD000100           [041] getglobal  3   4        ; gGameRules
34C2  E440C201           [042] self       3   3   265  ; 516385015
34C6  E2800001           [043] call       3   2   2  
34CA  E4C0C201           [044] self       3   3   267  ; 1520803588
34CE  5D010300           [045] getglobal  5   12       ; EMPTY_SYMBOL
34D2  E2408001           [046] call       3   3   1  
34D6  DD400300           [047] getglobal  3   13       ; gRegion
34DA  E480C301           [048] self       3   3   270  ; -1875307917
34DE  5DC10100           [049] getglobal  5   7        ; -332969190
34E2  99C10300           [050] loadk      6   15       ; "ApostasyFallTeleport"
34E6  62010001           [051] call       5   2   0  
34EA  E2800000           [052] call       3   0   2  
34EE  1D010000           [053] getglobal  4   0        ; 1074689893
34F2  52018001           [054] move       5   3      
34F6  22810001           [055] call       4   2   2  
34FA  18010000           [056] test       4       0    ; to [58] if true
34FE  1A000080           [057] jmp        1            ; to [59]
3502  1E008000           [058] return     0   1      
3506  19010400           [059] loadk      4   16       ; 0
fail op	21
350A  15404402           [060] concat     0   4   273
350E  1A000580           [061] jmp        21           ; to [83]
3512  5D810400           [062] getglobal  5   18       ; 538022378
3516  99010400           [063] loadk      6   16       ; 0
351A  62410001           [064] call       5   2   1  
351E  5DC10400           [065] getglobal  5   19       ; 1289681407
3522  62818000           [066] call       5   1   2  
3526  93010000           [067] getupval   6   0      
352A  5C818102           [068] div        5   5   6  
352E  03410102           [069] add        4   4   5  
3532  5D410300           [070] getglobal  5   13       ; gRegion
3536  6401C502           [071] self       5   5   276  ; -1456226250
353A  62810001           [072] call       5   2   2  
353E  4E41C502           [073] gettable   5   5   277  ; "postProcess"
3542  9DC10500           [074] getglobal  6   23       ; 1668611480
3546  DD010600           [075] getglobal  7   24       ; -1642362560
354A  12020002           [076] move       8   4      
354E  E2810001           [077] call       7   2   2  
3552  19020400           [078] loadk      8   16       ; 0
3556  59420400           [079] loadk      9   17       ; 0
355A  A2810002           [080] call       6   4   2  
355E  4C81018B           [081] settable   5   278 6    ; "fade"
3562  1A00FA7F           [082] jmp        -23          ; to [60]
3566  5D410300           [083] getglobal  5   13       ; gRegion
356A  6401C502           [084] self       5   5   276  ; -1456226250
356E  62810001           [085] call       5   2   2  
3572  4E41C502           [086] gettable   5   5   277  ; "postProcess"
3576  4C41448B           [087] settable   5   278 273  ; "fade" 0
357A  5D410600           [088] getglobal  5   25       ; _T
357E  4CC1468D           [089] settable   5   282 283  ; "HideTransferenceFx" 1
3582  64014700           [090] self       5   0   284  ; -521198746
3586  62410001           [091] call       5   2   1  
358A  5D410300           [092] getglobal  5   13       ; gRegion
358E  6441C702           [093] self       5   5   285  ; 65205951
3592  62810001           [094] call       5   2   2  
3596  A441C002           [095] self       6   5   257  ; -1957065004
359A  1DC20000           [096] getglobal  8   3        ; gLotusOperatorAvatarType
359E  A2818001           [097] call       6   3   2  
35A2  98410000           [098] test       6       1    ; to [100] if false
35A6  1AC00180           [099] jmp        8            ; to [108]
35AA  9D810400           [100] getglobal  6   18       ; 538022378
35AE  D9010400           [101] loadk      7   16       ; 0
35B2  A2410001           [102] call       6   2   1  
35B6  9D410300           [103] getglobal  6   13       ; gRegion
35BA  A4414703           [104] self       6   6   285  ; 65205951
35BE  A2810001           [105] call       6   2   2  
35C2  52010003           [106] move       5   6      
35C6  1A80FC7F           [107] jmp        -13          ; to [95]
35CA  98400000           [108] test       2       1    ; to [110] if false
35CE  1AC00180           [109] jmp        8            ; to [118]
35D2  93018000           [110] getupval   6   1      
35D6  8E814703           [111] gettable   6   6   286  ; -78033590
35DA  DD410600           [112] getglobal  7   25       ; _T
35DE  CEC1C703           [113] gettable   7   7   287  ; "MissionTransmissionSet"
35E2  1DC20100           [114] getglobal  8   7        ; -332969190
35E6  59020800           [115] loadk      9   32       ; "Fall"
35EA  22020001           [116] call       8   2   0  
35EE  A2410000           [117] call       6   0   1  
35F2  A441C802           [118] self       6   5   289  ; 1525877273
35F6  A2810001           [119] call       6   2   2  
35FA  E4814803           [120] self       7   6   290  ; -1888027794
35FE  53020001           [121] getupval   9   2      
3602  97020000           [122] loadbool   10  0   0    ; false
3606  E2410002           [123] call       7   4   1  
360A  E4C1C802           [124] self       7   5   291  ; -1917464545
360E  E2810001           [125] call       7   2   2  
3612  2402C903           [126] self       8   7   292  ; -655368910
3616  9D420900           [127] getglobal  10  37       ; Engine
361A  8E824905           [128] gettable   10  10  294  ; "SLOT_2"
361E  D7028000           [129] loadbool   11  1   0    ; true
3622  22420002           [130] call       8   4   1  
3626  24C2C903           [131] self       8   7   295  ; -1572901801
362A  9D420900           [132] getglobal  10  37       ; Engine
362E  8E024A05           [133] gettable   10  10  296  ; "SLOT_6"
3632  22428001           [134] call       8   3   1  
3636  2442CA03           [135] self       8   7   297  ; 1769516121
363A  22820001           [136] call       8   2   2  
363E  64824A04           [137] self       9   8   298  ; -828610723
3642  D7028000           [138] loadbool   11  1   0    ; true
3646  62428001           [139] call       9   3   1  
364A  64C2CA02           [140] self       9   5   299  ; -1286044614
364E  D7028000           [141] loadbool   11  1   0    ; true
3652  62428001           [142] call       9   3   1  
3656  6402CB02           [143] self       9   5   300  ; 1129512439
365A  DD420B00           [144] getglobal  11  45       ; operatorInputFilter
365E  62428001           [145] call       9   3   1  
3662  6482CB01           [146] self       9   3   302  ; 54877834
3666  62820001           [147] call       9   2   2  
366A  A4C2CB02           [148] self       10  5   303  ; 970454089
366E  2403CC01           [149] self       12  3   304  ; 1839670529
3672  22830001           [150] call       12  2   2  
3676  52038004           [151] move       13  9      
367A  A2420002           [152] call       10  4   1  
367E  A442CC02           [153] self       10  5   305  ; 2129303884
3682  A2820001           [154] call       10  2   2  
3686  CE82CC04           [155] gettable   11  9   306  ; "heading"
368A  8CC20299           [156] settable   10  306 11   ; "heading"
368E  E4C2CC02           [157] self       11  5   307  ; 1998801764
3692  52030005           [158] move       13  10     
3696  E2428001           [159] call       11  3   1  
369A  E402CD02           [160] self       11  5   308  ; 1798224701
369E  5D430D00           [161] getglobal  13  53       ; 572299008
36A2  62038000           [162] call       13  1   0  
36A6  E2420000           [163] call       11  0   1  
36AA  E482CD02           [164] self       11  5   310  ; 1031350143
36AE  59C30D00           [165] loadk      13  55       ; 0
36B2  E2428001           [166] call       11  3   1  
36B6  E402CE02           [167] self       11  5   312  ; 312774256
36BA  57030000           [168] loadbool   13  0   0    ; false
36BE  E2428001           [169] call       11  3   1  
36C2  98000000           [170] test       2       0    ; to [172] if true
36C6  1A000180           [171] jmp        5            ; to [177]
36CA  E442CE02           [172] self       11  5   313  ; 1292478819
36CE  E2820001           [173] call       11  2   2  
36D2  E482CE05           [174] self       11  11  314  ; -1967775551
36D6  57038000           [175] loadbool   13  1   0    ; true
36DA  E2428001           [176] call       11  3   1  
36DE  E4C2CE02           [177] self       11  5   315  ; -818780724
36E2  57030000           [178] loadbool   13  0   0    ; false
36E6  E2428001           [179] call       11  3   1  
36EA  E402CF02           [180] self       11  5   316  ; 1692428613
36EE  57030000           [181] loadbool   13  0   0    ; false
36F2  E2428001           [182] call       11  3   1  
36F6  E442CF02           [183] self       11  5   317  ; -1302048094
36FA  5DC30100           [184] getglobal  13  7        ; -332969190
36FE  99830F00           [185] loadk      14  62       ; "PauseOwnedNpcAvatars"
3702  62830001           [186] call       13  2   2  
3706  97030000           [187] loadbool   14  0   0    ; false
370A  E2420002           [188] call       11  4   1  
370E  DD820400           [189] getglobal  11  18       ; 538022378
3712  19C30F00           [190] loadk      12  63       ; -51
3716  E2420001           [191] call       11  2   1  
371A  DD420600           [192] getglobal  11  25       ; _T
371E  CC02508D           [193] settable   11  282 320  ; "HideTransferenceFx" 0
3722  19010400           [194] loadk      4   16       ; 0
fail op	21
3726  15404402           [195] concat     0   4   273
372A  1A400680           [196] jmp        26           ; to [223]
372E  DD820400           [197] getglobal  11  18       ; 538022378
3732  19030400           [198] loadk      12  16       ; 0
3736  E2420001           [199] call       11  2   1  
373A  E442D002           [200] self       11  5   321  ; 1370462905
373E  E2820001           [201] call       11  2   2  
3742  D8020000           [202] test       11      0    ; to [204] if true
3746  1A000080           [203] jmp        1            ; to [205]
374A  1A400480           [204] jmp        18           ; to [223]
374E  DDC20400           [205] getglobal  11  19       ; 1289681407
3752  E2828000           [206] call       11  1   2  
3756  13030000           [207] getupval   12  0      
375A  DC028305           [208] div        11  11  12 
375E  03C10202           [209] add        4   4   11 
3762  DD420300           [210] getglobal  11  13       ; gRegion
3766  E402C505           [211] self       11  11  276  ; -1456226250
376A  E2820001           [212] call       11  2   2  
376E  CE42C505           [213] gettable   11  11  277  ; "postProcess"
3772  1DC30500           [214] getglobal  12  23       ; 1668611480
3776  5D030600           [215] getglobal  13  24       ; -1642362560
377A  8D038188           [216] sub        14  273 4    ; 0
377E  62830001           [217] call       13  2   2  
3782  99030400           [218] loadk      14  16       ; 0
3786  D9430400           [219] loadk      15  17       ; 0
378A  22830002           [220] call       12  4   2  
378E  CC02038B           [221] settable   11  278 12   ; "fade"
3792  1AC0F87F           [222] jmp        -28          ; to [195]
3796  DD420300           [223] getglobal  11  13       ; gRegion
379A  E402C505           [224] self       11  11  276  ; -1456226250
379E  E2820001           [225] call       11  2   2  
37A2  CE42C505           [226] gettable   11  11  277  ; "postProcess"
37A6  CC02448B           [227] settable   11  278 272  ; "fade" 0
37AA  E442D002           [228] self       11  5   321  ; 1370462905
37AE  E2820001           [229] call       11  2   2  
37B2  D8420000           [230] test       11      1    ; to [232] if false
37B6  1AC00080           [231] jmp        4            ; to [236]
37BA  DD820400           [232] getglobal  11  18       ; 538022378
37BE  19030400           [233] loadk      12  16       ; 0
37C2  E2420001           [234] call       11  2   1  
37C6  1AC0FD7F           [235] jmp        -8           ; to [228]
37CA  E482D002           [236] self       11  5   322  ; 2056776437
37CE  5DC31000           [237] getglobal  13  67       ; operatorLandingAnim
37D2  97030000           [238] loadbool   14  0   0    ; false
37D6  DD430900           [239] getglobal  15  37       ; Engine
37DA  CE03D107           [240] gettable   15  15  324  ; "ATMM_ANIMATION_HORIZ_PHYSICS_VERT"
37DE  1D440900           [241] getglobal  16  37       ; Engine
37E2  0E445108           [242] gettable   16  16  325  ; "PRT_ONCE"
37E6  57048000           [243] loadbool   17  1   0    ; true
37EA  99440400           [244] loadk      18  17       ; 0
37EE  E2420004           [245] call       11  8   1  
37F2  E482D102           [246] self       11  5   326  ; 630793108
37F6  5DC31100           [247] getglobal  13  71       ; operatorLandingSound
37FA  97030000           [248] loadbool   14  0   0    ; false
37FE  DD430900           [249] getglobal  15  37       ; Engine
3802  CE03D207           [250] gettable   15  15  328  ; "SP_VERY_LOW"
3806  17040000           [251] loadbool   16  0   0    ; false
380A  E2420003           [252] call       11  6   1  
380E  D9420400           [253] loadk      11  17       ; 0
3812  1D431200           [254] getglobal  12  73       ; operatorAttachTypes
3816  0A030006           [255] len        12  12     
381A  59430400           [256] loadk      13  17       ; 0
381E  D0020380           [257] forprep    11  13       ; to [271]
3822  E483D202           [258] self       15  5   330  ; -1421644046
3826  5D441200           [259] getglobal  17  73       ; operatorAttachTypes
382A  4E848308           [260] gettable   17  17  14 
382E  9D040300           [261] getglobal  18  12       ; EMPTY_SYMBOL
3832  E2830002           [262] call       15  4   2  
3836  1D040000           [263] getglobal  16  0        ; 1074689893
383A  52048007           [264] move       17  15     
383E  22840001           [265] call       16  2   2  
3842  18440000           [266] test       16      1    ; to [268] if false
3846  1A800080           [267] jmp        3            ; to [271]
384A  24C4D207           [268] self       16  15  331  ; -1923578185
384E  99041300           [269] loadk      18  76       ; "Burst"
3852  22448001           [270] call       16  3   1  
3856  D442FC7F           [271] forloop    11  -14      ; to [258] if loop
385A  2444D302           [272] self       16  5   333  ; 1032339126
385E  9DC40100           [273] getglobal  18  7        ; -332969190
3862  D9841300           [274] loadk      19  78       ; "Operator"
3866  A2040001           [275] call       18  2   0  
386A  22440000           [276] call       16  0   1  
386E  13048001           [277] getupval   16  3      
fail op	21
3872  15000488           [278] concat     0   272 16 
3876  1AC00280           [279] jmp        12           ; to [292]
387A  2404CC02           [280] self       16  5   304  ; 1839670529
387E  22840001           [281] call       16  2   2  
3882  64C4D302           [282] self       17  5   335  ; -1399888605
3886  D2040008           [283] move       19  16     
388A  62848001           [284] call       17  3   2  
388E  93048001           [285] getupval   18  3      
fail op	21
3892  15808408           [286] concat     0   17  18 
3896  1AC00080           [287] jmp        4            ; to [292]
389A  5D840400           [288] getglobal  17  18       ; 538022378
389E  99040400           [289] loadk      18  16       ; 0
38A2  62440001           [290] call       17  2   1  
38A6  1A40FD7F           [291] jmp        -10          ; to [282]
38AA  53048000           [292] getupval   17  1      
38AE  4E84C708           [293] gettable   17  17  286  ; -78033590
38B2  9D440600           [294] getglobal  18  25       ; _T
38B6  8EC44709           [295] gettable   18  18  287  ; "MissionTransmissionSet"
38BA  DDC40100           [296] getglobal  19  7        ; -332969190
38BE  19051400           [297] loadk      20  80       ; "Realm"
38C2  E2040001           [298] call       19  2   0  
38C6  62440000           [299] call       17  0   1  
38CA  1E008000           [300] return     0   1      
                         * constants:
38CE  51                 sizek (81)
38CF  01                 const type 3
38D0  65770E40           const [0]: (1074689893)
38D4  01                 const type 3
38D5  D48E598B           const [1]: (-1957065004)
38D9  04                 const type 4
38DA  11                 string size (17)
38DB  6754656E6E6F4176+  "gTennoAv"
38E3  6174617254797065+  "atarType"
38EB  00                 "\0"
                         const [2]: "gTennoAvatarType"
38EC  04                 const type 4
38ED  19                 string size (25)
38EE  674C6F7475734F70+  "gLotusOp"
38F6  657261746F724176+  "eratorAv"
38FE  6174617254797065+  "atarType"
3906  00                 "\0"
                         const [3]: "gLotusOperatorAvatarType"
3907  04                 const type 4
3908  0B                 string size (11)
3909  6747616D6552756C+  "gGameRul"
3911  657300             "es\0"
                         const [4]: "gGameRules"
3914  01                 const type 3
3915  497363B8           const [5]: (-1201441975)
3919  04                 const type 4
391A  08                 string size (8)
391B  676F616C54616700   "goalTag\0"
                         const [6]: "goalTag"
3923  01                 const type 3
3924  1A4B27EC           const [7]: (-332969190)
3928  04                 const type 4
3929  09                 string size (9)
392A  41706F7374617379+  "Apostasy"
3932  00                 "\0"
                         const [8]: "Apostasy"
3933  01                 const type 3
3934  F768C71E           const [9]: (516385015)
3938  01                 const type 3
3939  6020EFFF           const [10]: (-1105824)
393D  01                 const type 3
393E  049FA55A           const [11]: (1520803588)
3942  04                 const type 4
3943  0D                 string size (13)
3944  454D5054595F5359+  "EMPTY_SY"
394C  4D424F4C00         "MBOL\0"
                         const [12]: "EMPTY_SYMBOL"
3951  04                 const type 4
3952  08                 string size (8)
3953  67526567696F6E00   "gRegion\0"
                         const [13]: "gRegion"
395B  01                 const type 3
395C  73123990           const [14]: (-1875307917)
3960  04                 const type 4
3961  15                 string size (21)
3962  41706F7374617379+  "Apostasy"
396A  46616C6C54656C65+  "FallTele"
3972  706F727400         "port\0"
                         const [15]: "ApostasyFallTeleport"
3977  03                 const type 3
3978  00000000           const [16]: (0)
397C  03                 const type 3
397D  0000803F           const [17]: (0)
3981  01                 const type 3
3982  EA911120           const [18]: (538022378)
3986  01                 const type 3
3987  FFF9DE4C           const [19]: (1289681407)
398B  01                 const type 3
398C  36C033A9           const [20]: (-1456226250)
3990  04                 const type 4
3991  0C                 string size (12)
3992  706F737450726F63+  "postProc"
399A  65737300           "ess\0"
                         const [21]: "postProcess"
399E  04                 const type 4
399F  05                 string size (5)
39A0  6661646500         "fade\0"
                         const [22]: "fade"
39A5  01                 const type 3
39A6  98FD7463           const [23]: (1668611480)
39AA  01                 const type 3
39AB  40891B9E           const [24]: (-1642362560)
39AF  04                 const type 4
39B0  03                 string size (3)
39B1  5F5400             "_T\0"
                         const [25]: "_T"
39B4  04                 const type 4
39B5  13                 string size (19)
39B6  486964655472616E+  "HideTran"
39BE  73666572656E6365+  "sference"
39C6  467800             "Fx\0"
                         const [26]: "HideTransferenceFx"
39C9  01                 const type 3
39CA  01000000           const [27]: (1)
39CE  01                 const type 3
39CF  6623EFE0           const [28]: (-521198746)
39D3  01                 const type 3
39D4  BFF6E203           const [29]: (65205951)
39D8  01                 const type 3
39D9  4A4D59FB           const [30]: (-78033590)
39DD  04                 const type 4
39DE  17                 string size (23)
39DF  4D697373696F6E54+  "MissionT"
39E7  72616E736D697373+  "ransmiss"
39EF  696F6E53657400     "ionSet\0"
                         const [31]: "MissionTransmissionSet"
39F6  04                 const type 4
39F7  05                 string size (5)
39F8  46616C6C00         "Fall\0"
                         const [32]: "Fall"
39FD  01                 const type 3
39FE  190AF35A           const [33]: (1525877273)
3A02  01                 const type 3
3A03  6EFB768F           const [34]: (-1888027794)
3A07  01                 const type 3
3A08  1FD0B58D           const [35]: (-1917464545)
3A0C  01                 const type 3
3A0D  32DDEFD8           const [36]: (-655368910)
3A11  04                 const type 4
3A12  07                 string size (7)
3A13  456E67696E6500     "Engine\0"
                         const [37]: "Engine"
3A1A  04                 const type 4
3A1B  07                 string size (7)
3A1C  534C4F545F3200     "SLOT_2\0"
                         const [38]: "SLOT_2"
3A23  01                 const type 3
3A24  576C3FA2           const [39]: (-1572901801)
3A28  04                 const type 4
3A29  07                 string size (7)
3A2A  534C4F545F3600     "SLOT_6\0"
                         const [40]: "SLOT_6"
3A31  01                 const type 3
3A32  59AC7869           const [41]: (1769516121)
3A36  01                 const type 3
3A37  5D679CCE           const [42]: (-828610723)
3A3B  01                 const type 3
3A3C  3A8458B3           const [43]: (-1286044614)
3A40  01                 const type 3
3A41  F7FD5243           const [44]: (1129512439)
3A45  04                 const type 4
3A46  14                 string size (20)
3A47  6F70657261746F72+  "operator"
3A4F  496E70757446696C+  "InputFil"
3A57  74657200           "ter\0"
                         const [45]: "operatorInputFilter"
3A5B  01                 const type 3
3A5C  8A5E4503           const [46]: (54877834)
3A60  01                 const type 3
3A61  49F4D739           const [47]: (970454089)
3A65  01                 const type 3
3A66  0125A76D           const [48]: (1839670529)
3A6A  01                 const type 3
3A6B  4C99EA7E           const [49]: (2129303884)
3A6F  04                 const type 4
3A70  08                 string size (8)
3A71  68656164696E6700   "heading\0"
                         const [50]: "heading"
3A79  01                 const type 3
3A7A  644B2377           const [51]: (1998801764)
3A7E  01                 const type 3
3A7F  3DBB2E6B           const [52]: (1798224701)
3A83  01                 const type 3
3A84  00971C22           const [53]: (572299008)
3A88  01                 const type 3
3A89  7F27793D           const [54]: (1031350143)
3A8D  03                 const type 3
3A8E  000000C1           const [55]: (0)
3A92  01                 const type 3
3A93  708EA412           const [56]: (312774256)
3A97  01                 const type 3
3A98  63A9094D           const [57]: (1292478819)
3A9C  01                 const type 3
3A9D  C120B68A           const [58]: (-1967775551)
3AA1  01                 const type 3
3AA2  CC6532CF           const [59]: (-818780724)
3AA6  01                 const type 3
3AA7  4569E064           const [60]: (1692428613)
3AAB  01                 const type 3
3AAC  A25264B2           const [61]: (-1302048094)
3AB0  04                 const type 4
3AB1  15                 string size (21)
3AB2  50617573654F776E+  "PauseOwn"
3ABA  65644E7063417661+  "edNpcAva"
3AC2  7461727300         "tars\0"
                         const [62]: "PauseOwnedNpcAvatars"
3AC7  03                 const type 3
3AC8  CDCC4C3E           const [63]: (-51)
3ACC  01                 const type 3
3ACD  00000000           const [64]: (0)
3AD1  01                 const type 3
3AD2  B99AAF51           const [65]: (1370462905)
3AD6  01                 const type 3
3AD7  F5EA977A           const [66]: (2056776437)
3ADB  04                 const type 4
3ADC  14                 string size (20)
3ADD  6F70657261746F72+  "operator"
3AE5  4C616E64696E6741+  "LandingA"
3AED  6E696D00           "nim\0"
                         const [67]: "operatorLandingAnim"
3AF1  04                 const type 4
3AF2  22                 string size (34)
3AF3  41544D4D5F414E49+  "ATMM_ANI"
3AFB  4D4154494F4E5F48+  "MATION_H"
3B03  4F52495A5F504859+  "ORIZ_PHY"
3B0B  534943535F564552+  "SICS_VER"
3B13  5400               "T\0"
                         const [68]: "ATMM_ANIMATION_HORIZ_PHYSICS_VERT"
3B15  04                 const type 4
3B16  09                 string size (9)
3B17  5052545F4F4E4345+  "PRT_ONCE"
3B1F  00                 "\0"
                         const [69]: "PRT_ONCE"
3B20  01                 const type 3
3B21  94239925           const [70]: (630793108)
3B25  04                 const type 4
3B26  15                 string size (21)
3B27  6F70657261746F72+  "operator"
3B2F  4C616E64696E6753+  "LandingS"
3B37  6F756E6400         "ound\0"
                         const [71]: "operatorLandingSound"
3B3C  04                 const type 4
3B3D  0C                 string size (12)
3B3E  53505F564552595F+  "SP_VERY_"
3B46  4C4F5700           "LOW\0"
                         const [72]: "SP_VERY_LOW"
3B4A  04                 const type 4
3B4B  14                 string size (20)
3B4C  6F70657261746F72+  "operator"
3B54  4174746163685479+  "AttachTy"
3B5C  70657300           "pes\0"
                         const [73]: "operatorAttachTypes"
3B60  01                 const type 3
3B61  F26E43AB           const [74]: (-1421644046)
3B65  01                 const type 3
3B66  B786588D           const [75]: (-1923578185)
3B6A  04                 const type 4
3B6B  06                 string size (6)
3B6C  427572737400       "Burst\0"
                         const [76]: "Burst"
3B72  01                 const type 3
3B73  B63E883D           const [77]: (1032339126)
3B77  04                 const type 4
3B78  09                 string size (9)
3B79  4F70657261746F72+  "Operator"
3B81  00                 "\0"
                         const [78]: "Operator"
3B82  01                 const type 3
3B83  23658FAC           const [79]: (-1399888605)
3B87  04                 const type 4
3B88  06                 string size (6)
3B89  5265616C6D00       "Realm\0"
                         const [80]: "Realm"
                         * functions:
3B8F  00                 sizep (0)
                         * lines:
3B91  02                 sizelineinfo (300)
                         [pc] (line)
3B92  EF                 [001] (-17)
3B93  01                 [002] (-17)
3B94  00                 [003] (-17)
3B95  00                 [004] (-17)
3B96  EF                 [005] (-17)
3B97  01                 [006] (-17)
3B98  00                 [007] (-17)
3B99  00                 [008] (-17)
3B9A  EF                 [009] (-17)
3B9B  01                 [010] (-17)
3B9C  00                 [011] (-17)
3B9D  00                 [012] (-17)
3B9E  EF                 [013] (-17)
3B9F  01                 [014] (-17)
3BA0  00                 [015] (-17)
3BA1  00                 [016] (-16)
3BA2  EF                 [017] (-13)
3BA3  01                 [018] (-13)
3BA4  00                 [019] (-13)
3BA5  00                 [020] (-12)
3BA6  EF                 [021] (-12)
3BA7  01                 [022] (-12)
3BA8  00                 [023] (-12)
3BA9  00                 [024] (-12)
3BAA  EF                 [025] (-12)
3BAB  01                 [026] (-12)
3BAC  00                 [027] (-12)
3BAD  00                 [028] (-12)
3BAE  EF                 [029] (-12)
3BAF  01                 [030] (-12)
3BB0  00                 [031] (-12)
3BB1  00                 [032] (-12)
3BB2  EF                 [033] (-10)
3BB3  01                 [034] (-10)
3BB4  00                 [035] (-9)
3BB5  00                 [036] (-9)
3BB6  EF                 [037] (-9)
3BB7  01                 [038] (-9)
3BB8  00                 [039] (-9)
3BB9  00                 [040] (-9)
3BBA  EF                 [041] (-8)
3BBB  01                 [042] (-8)
3BBC  00                 [043] (-8)
3BBD  00                 [044] (-8)
3BBE  EF                 [045] (-8)
3BBF  01                 [046] (-8)
3BC0  00                 [047] (-5)
3BC1  00                 [048] (-5)
3BC2  EF                 [049] (-5)
3BC3  01                 [050] (-5)
3BC4  00                 [051] (-5)
3BC5  00                 [052] (-5)
3BC6  EF                 [053] (-4)
3BC7  01                 [054] (-4)
3BC8  00                 [055] (-4)
3BC9  00                 [056] (-4)
3BCA  EF                 [057] (-4)
3BCB  01                 [058] (-3)
3BCC  00                 [059] (0)
3BCD  00                 [060] (1)
3BCE  F0                 [061] (1)
3BCF  01                 [062] (2)
3BD0  00                 [063] (2)
3BD1  00                 [064] (2)
3BD2  F3                 [065] (3)
3BD3  01                 [066] (3)
3BD4  00                 [067] (3)
3BD5  00                 [068] (3)
3BD6  F3                 [069] (3)
3BD7  01                 [070] (4)
3BD8  00                 [071] (4)
3BD9  00                 [072] (4)
3BDA  F3                 [073] (4)
3BDB  01                 [074] (4)
3BDC  00                 [075] (4)
3BDD  00                 [076] (4)
3BDE  F4                 [077] (4)
3BDF  01                 [078] (4)
3BE0  00                 [079] (4)
3BE1  00                 [080] (4)
3BE2  F4                 [081] (4)
3BE3  01                 [082] (4)
3BE4  00                 [083] (6)
3BE5  00                 [084] (6)
3BE6  F4                 [085] (6)
3BE7  01                 [086] (6)
3BE8  00                 [087] (6)
3BE9  00                 [088] (8)
3BEA  F4                 [089] (8)
3BEB  01                 [090] (9)
3BEC  00                 [091] (9)
3BED  00                 [092] (10)
3BEE  F4                 [093] (10)
3BEF  01                 [094] (10)
3BF0  00                 [095] (11)
3BF1  00                 [096] (11)
3BF2  F4                 [097] (11)
3BF3  01                 [098] (11)
3BF4  00                 [099] (11)
3BF5  00                 [100] (12)
3BF6  F4                 [101] (12)
3BF7  01                 [102] (12)
3BF8  00                 [103] (13)
3BF9  00                 [104] (13)
3BFA  F4                 [105] (13)
3BFB  01                 [106] (13)
3BFC  00                 [107] (13)
3BFD  00                 [108] (16)
3BFE  F4                 [109] (16)
3BFF  01                 [110] (17)
3C00  00                 [111] (17)
3C01  00                 [112] (17)
3C02  F4                 [113] (17)
3C03  01                 [114] (17)
3C04  00                 [115] (17)
3C05  00                 [116] (17)
3C06  F4                 [117] (17)
3C07  01                 [118] (20)
3C08  00                 [119] (20)
3C09  00                 [120] (21)
3C0A  F4                 [121] (21)
3C0B  01                 [122] (21)
3C0C  00                 [123] (21)
3C0D  00                 [124] (22)
3C0E  F4                 [125] (22)
3C0F  01                 [126] (23)
3C10  00                 [127] (23)
3C11  00                 [128] (23)
3C12  F6                 [129] (23)
3C13  01                 [130] (23)
3C14  00                 [131] (24)
3C15  00                 [132] (24)
3C16  F6                 [133] (24)
3C17  01                 [134] (24)
3C18  00                 [135] (25)
3C19  00                 [136] (25)
3C1A  F7                 [137] (26)
3C1B  01                 [138] (26)
3C1C  00                 [139] (26)
3C1D  00                 [140] (27)
3C1E  F7                 [141] (27)
3C1F  01                 [142] (27)
3C20  00                 [143] (28)
3C21  00                 [144] (28)
3C22  F7                 [145] (28)
3C23  01                 [146] (29)
3C24  00                 [147] (29)
3C25  00                 [148] (30)
3C26  F7                 [149] (30)
3C27  01                 [150] (30)
3C28  00                 [151] (30)
3C29  00                 [152] (30)
3C2A  F7                 [153] (31)
3C2B  01                 [154] (31)
3C2C  00                 [155] (32)
3C2D  00                 [156] (32)
3C2E  F7                 [157] (33)
3C2F  01                 [158] (33)
3C30  00                 [159] (33)
3C31  00                 [160] (34)
3C32  F8                 [161] (34)
3C33  01                 [162] (34)
3C34  00                 [163] (34)
3C35  00                 [164] (35)
3C36  F8                 [165] (35)
3C37  01                 [166] (35)
3C38  00                 [167] (36)
3C39  00                 [168] (36)
3C3A  F8                 [169] (36)
3C3B  01                 [170] (37)
3C3C  00                 [171] (37)
3C3D  00                 [172] (38)
3C3E  F8                 [173] (38)
3C3F  01                 [174] (38)
3C40  00                 [175] (38)
3C41  00                 [176] (38)
3C42  F8                 [177] (40)
3C43  01                 [178] (40)
3C44  00                 [179] (40)
3C45  00                 [180] (41)
3C46  F8                 [181] (41)
3C47  01                 [182] (41)
3C48  00                 [183] (42)
3C49  00                 [184] (42)
3C4A  FB                 [185] (42)
3C4B  01                 [186] (42)
3C4C  00                 [187] (42)
3C4D  00                 [188] (42)
3C4E  FB                 [189] (43)
3C4F  01                 [190] (43)
3C50  00                 [191] (43)
3C51  00                 [192] (44)
3C52  FB                 [193] (44)
3C53  01                 [194] (46)
3C54  00                 [195] (47)
3C55  00                 [196] (47)
3C56  FB                 [197] (48)
3C57  01                 [198] (48)
3C58  00                 [199] (48)
3C59  00                 [200] (50)
3C5A  FB                 [201] (50)
3C5B  01                 [202] (50)
3C5C  00                 [203] (50)
3C5D  00                 [204] (51)
3C5E  FB                 [205] (54)
3C5F  01                 [206] (54)
3C60  00                 [207] (54)
3C61  00                 [208] (54)
3C62  FC                 [209] (54)
3C63  01                 [210] (55)
3C64  00                 [211] (55)
3C65  00                 [212] (55)
3C66  FC                 [213] (55)
3C67  01                 [214] (55)
3C68  00                 [215] (55)
3C69  00                 [216] (55)
3C6A  FC                 [217] (55)
3C6B  01                 [218] (55)
3C6C  00                 [219] (55)
3C6D  00                 [220] (55)
3C6E  FC                 [221] (55)
3C6F  01                 [222] (55)
3C70  00                 [223] (57)
3C71  00                 [224] (57)
3C72  FC                 [225] (57)
3C73  01                 [226] (57)
3C74  00                 [227] (57)
3C75  00                 [228] (59)
3C76  FD                 [229] (59)
3C77  01                 [230] (59)
3C78  00                 [231] (59)
3C79  00                 [232] (60)
3C7A  00                 [233] (60)
3C7B  02                 [234] (60)
3C7C  00                 [235] (60)
3C7D  00                 [236] (63)
3C7E  01                 [237] (63)
3C7F  02                 [238] (63)
3C80  00                 [239] (63)
3C81  00                 [240] (63)
3C82  01                 [241] (63)
3C83  02                 [242] (63)
3C84  00                 [243] (63)
3C85  00                 [244] (63)
3C86  02                 [245] (63)
3C87  02                 [246] (64)
3C88  00                 [247] (64)
3C89  00                 [248] (64)
3C8A  02                 [249] (64)
3C8B  02                 [250] (64)
3C8C  00                 [251] (64)
3C8D  00                 [252] (64)
3C8E  02                 [253] (68)
3C8F  02                 [254] (68)
3C90  00                 [255] (68)
3C91  00                 [256] (68)
3C92  03                 [257] (68)
3C93  02                 [258] (69)
3C94  00                 [259] (69)
3C95  00                 [260] (69)
3C96  03                 [261] (69)
3C97  02                 [262] (69)
3C98  00                 [263] (70)
3C99  00                 [264] (70)
3C9A  03                 [265] (70)
3C9B  02                 [266] (70)
3C9C  00                 [267] (70)
3C9D  00                 [268] (71)
3C9E  03                 [269] (71)
3C9F  02                 [270] (71)
3CA0  00                 [271] (68)
3CA1  00                 [272] (75)
3CA2  03                 [273] (75)
3CA3  02                 [274] (75)
3CA4  00                 [275] (75)
3CA5  00                 [276] (75)
3CA6  04                 [277] (77)
3CA7  02                 [278] (77)
3CA8  00                 [279] (77)
3CA9  00                 [280] (78)
3CAA  04                 [281] (78)
3CAB  02                 [282] (79)
3CAC  00                 [283] (79)
3CAD  00                 [284] (79)
3CAE  04                 [285] (79)
3CAF  02                 [286] (79)
3CB0  00                 [287] (79)
3CB1  00                 [288] (80)
3CB2  04                 [289] (80)
3CB3  02                 [290] (80)
3CB4  00                 [291] (80)
3CB5  00                 [292] (83)
3CB6  04                 [293] (83)
3CB7  02                 [294] (83)
3CB8  00                 [295] (83)
3CB9  00                 [296] (83)
3CBA  04                 [297] (83)
3CBB  02                 [298] (83)
3CBC  00                 [299] (83)
3CBD  00                 [300] (84)
                         * locals:
4042  00                 sizelocvars (0)
                         * upvalues:
4043  00                 sizeupvalues (0)
                         ** end of function **

                         
4044                     ** function [6] definition (level 2)
                         ** start of function **
4044  00                 string size (0)
                         source name: (none)
4046  04                 line defined (598)
4047  90                 last line defined (656)
4048  05                 nups (1)
4049  01                 numparams (1)
404A  01                 is_vararg (0)
404B  00                 maxstacksize (37)
                         * code:
404E  01                 sizecode (150)
404F  5D000000           [001] getglobal  1   0        ; gRegion
4053  6440C000           [002] self       1   1   257  ; 65205951
4057  62800001           [003] call       1   2   2  
405B  9D800000           [004] getglobal  2   2        ; 1074689893
405F  D2008000           [005] move       3   1      
4063  A2800001           [006] call       2   2   2  
4067  98000000           [007] test       2       0    ; to [9] if true
406B  1A000080           [008] jmp        1            ; to [10]
406F  1E008000           [009] return     0   1      
4073  A4C04000           [010] self       2   0   259  ; 1839670529
4077  A2800001           [011] call       2   2   2  
407B  E4004100           [012] self       3   0   260  ; -231049143
407F  E2800001           [013] call       3   2   2  
4083  1D410100           [014] getglobal  4   5        ; 1287559689
4087  52010001           [015] move       5   2      
408B  92018001           [016] move       6   3      
408F  22818001           [017] call       4   3   2  
4093  0E814102           [018] gettable   4   4   262  ; "z"
4097  64C14100           [019] self       5   0   263  ; 301945578
409B  62810001           [020] call       5   2   2  
409F  4E81C102           [021] gettable   5   5   262  ; "z"
40A3  8401C202           [022] mul        6   5   264  ; 0
40A7  DD010000           [023] getglobal  7   0        ; gRegion
40AB  E441C203           [024] self       7   7   265  ; -1456226250
40AF  E2810001           [025] call       7   2   2  
40B3  CE81C203           [026] gettable   7   7   266  ; "postProcess"
40B7  1DC20200           [027] getglobal  8   11       ; 572299008
40BB  22828000           [028] call       8   1   2  
40BF  5D020000           [029] getglobal  9   0        ; gRegion
40C3  6402C304           [030] self       9   9   268  ; -1485896174
40C7  DD420300           [031] getglobal  11  13       ; -332969190
40CB  19830300           [032] loadk      12  14       ; "LotusRoomTunnelFx"
40CF  E2020001           [033] call       11  2   0  
40D3  62820000           [034] call       9   0   2  
40D7  9D820000           [035] getglobal  10  2        ; 1074689893
40DB  D2028000           [036] move       11  1      
40DF  A2820001           [037] call       10  2   2  
40E3  98420000           [038] test       10      1    ; to [40] if false
40E7  1A801080           [039] jmp        67           ; to [107]
40EB  A4C24300           [040] self       10  0   271  ; 2083722643
40EF  12038000           [041] move       12  1      
40F3  A2828001           [042] call       10  3   2  
40F7  98020000           [043] test       10      0    ; to [45] if true
40FB  1A400F80           [044] jmp        62           ; to [107]
40FF  A402C400           [045] self       10  1   272  ; -1897199203
4103  12030004           [046] move       12  8      
4107  A2428001           [047] call       10  3   1  
410B  9D420400           [048] getglobal  10  17       ; 1668611480
410F  DD820400           [049] getglobal  11  18       ; math
4113  CEC2C405           [050] gettable   11  11  275  ; -113279800
4117  1D430100           [051] getglobal  12  5        ; 1287559689
411B  52030004           [052] move       13  8      
411F  92038001           [053] move       14  3      
4123  22838001           [054] call       12  3   2  
4127  0E834106           [055] gettable   12  12  262  ; "z"
412B  0D030106           [056] sub        12  12  4  
412F  03830106           [057] add        12  12  6  
4133  1C430106           [058] div        12  12  5  
4137  E2820001           [059] call       11  2   2  
413B  19030500           [060] loadk      12  20       ; 0
413F  59430500           [061] loadk      13  21       ; 0
4143  A2820002           [062] call       10  4   2  
4147  DD820500           [063] getglobal  11  22       ; -1642362560
414B  0D83828A           [064] sub        12  277 10   ; 0
414F  E2820001           [065] call       11  2   2  
4153  19430500           [066] loadk      12  21       ; 0
4157  4A038004           [067] len        13  9      
415B  99430500           [068] loadk      14  21       ; 0
415F  10830380           [069] forprep    12  15       ; to [85]
4163  0EC48304           [070] gettable   16  9   15 
4167  5D840000           [071] getglobal  17  2        ; 1074689893
416B  92040008           [072] move       18  16     
416F  62840001           [073] call       17  2   2  
4173  58440000           [074] test       17      1    ; to [76] if false
4177  1A000280           [075] jmp        9            ; to [85]
417B  64C44508           [076] self       17  16  279  ; -1957065004
417F  DD040600           [077] getglobal  19  24       ; gDecorationType
4183  62848001           [078] call       17  3   2  
4187  58040000           [079] test       17      0    ; to [81] if true
418B  1AC00080           [080] jmp        4            ; to [85]
418F  64444608           [081] self       17  16  281  ; -786111647
4193  D3040000           [082] getupval   19  0      
4197  12058005           [083] move       20  11     
419B  62440002           [084] call       17  4   1  
419F  14C3FB7F           [085] forloop    12  -16      ; to [70] if loop
41A3  59440500           [086] loadk      17  21       ; 0
41A7  9D840600           [087] getglobal  18  26       ; fadeMats
41AB  8A040009           [088] len        18  18     
41AF  D9440500           [089] loadk      19  21       ; 0
41B3  50840280           [090] forprep    17  11       ; to [102]
41B7  5D850600           [091] getglobal  21  26       ; fadeMats
41BB  4E05850A           [092] gettable   21  21  20 
41BF  64C5C60A           [093] self       21  21  283  ; -1795477990
41C3  D3050000           [094] getupval   23  0      
41C7  1D060700           [095] getglobal  24  28       ; fadeMatDefaults
41CB  0E06050C           [096] gettable   24  24  20 
41CF  04068605           [097] mul        24  11  24 
41D3  59060500           [098] loadk      25  20       ; 0
41D7  99060500           [099] loadk      26  20       ; 0
41DB  D9060500           [100] loadk      27  20       ; 0
41DF  62458003           [101] call       21  7   1  
41E3  54C4FC7F           [102] forloop    17  -12      ; to [91] if loop
41E7  5D450700           [103] getglobal  21  29       ; 538022378
41EB  99050500           [104] loadk      22  20       ; 0
41EF  62450001           [105] call       21  2   1  
41F3  1AC0ED7F           [106] jmp        -72          ; to [35]
41F7  59450500           [107] loadk      21  21       ; 0
41FB  8A058004           [108] len        22  9      
41FF  D9450500           [109] loadk      23  21       ; 0
4203  50850580           [110] forprep    21  23       ; to [134]
4207  4E068604           [111] gettable   25  9   24 
420B  9D860000           [112] getglobal  26  2        ; 1074689893
420F  D206800C           [113] move       27  25     
4213  A2860001           [114] call       26  2   2  
4217  98460000           [115] test       26      1    ; to [117] if false
421B  1A000480           [116] jmp        17           ; to [134]
421F  A4C6C50C           [117] self       26  25  279  ; -1957065004
4223  1D070600           [118] getglobal  28  24       ; gDecorationType
4227  A2868001           [119] call       26  3   2  
422B  98060000           [120] test       26      0    ; to [122] if true
422F  1A000180           [121] jmp        5            ; to [127]
4233  A486C70C           [122] self       26  25  286  ; 2109594123
4237  17070000           [123] loadbool   28  0   0    ; false
423B  57070000           [124] loadbool   29  0   0    ; false
423F  A2460002           [125] call       26  4   1  
4243  1A800180           [126] jmp        7            ; to [134]
4247  A4C6C50C           [127] self       26  25  279  ; -1957065004
424B  1DC70700           [128] getglobal  28  31       ; gParticleSysType
424F  A2868001           [129] call       26  3   2  
4253  98060000           [130] test       26      0    ; to [132] if true
4257  1A400080           [131] jmp        2            ; to [134]
425B  A406C80C           [132] self       26  25  288  ; -725453761
425F  A2460001           [133] call       26  2   1  
4263  54C5F97F           [134] forloop    21  -24      ; to [111] if loop
4267  99460500           [135] loadk      26  21       ; 0
426B  DD860600           [136] getglobal  27  26       ; fadeMats
426F  CA06800D           [137] len        27  27     
4273  19470500           [138] loadk      28  21       ; 0
4277  90060280           [139] forprep    26  9        ; to [149]
427B  9D870600           [140] getglobal  30  26       ; fadeMats
427F  8E47070F           [141] gettable   30  30  29 
4283  A4C7460F           [142] self       30  30  283  ; -1795477990
4287  13080000           [143] getupval   32  0      
428B  59080500           [144] loadk      33  20       ; 0
428F  99080500           [145] loadk      34  20       ; 0
4293  D9080500           [146] loadk      35  20       ; 0
4297  19090500           [147] loadk      36  20       ; 0
429B  A2478003           [148] call       30  7   1  
429F  9446FD7F           [149] forloop    26  -10      ; to [140] if loop
42A3  1E008000           [150] return     0   1      
                         * constants:
42A7  21                 sizek (33)
42A8  04                 const type 4
42A9  08                 string size (8)
42AA  67526567696F6E00   "gRegion\0"
                         const [0]: "gRegion"
42B2  01                 const type 3
42B3  BFF6E203           const [1]: (65205951)
42B7  01                 const type 3
42B8  65770E40           const [2]: (1074689893)
42BC  01                 const type 3
42BD  0125A76D           const [3]: (1839670529)
42C1  01                 const type 3
42C2  49783AF2           const [4]: (-231049143)
42C6  01                 const type 3
42C7  099ABE4C           const [5]: (1287559689)
42CB  04                 const type 4
42CC  02                 string size (2)
42CD  7A00               "z\0"
                         const [6]: "z"
42CF  01                 const type 3
42D0  EA52FF11           const [7]: (301945578)
42D4  03                 const type 3
42D5  0000003F           const [8]: (0)
42D9  01                 const type 3
42DA  36C033A9           const [9]: (-1456226250)
42DE  04                 const type 4
42DF  0C                 string size (12)
42E0  706F737450726F63+  "postProc"
42E8  65737300           "ess\0"
                         const [10]: "postProcess"
42EC  01                 const type 3
42ED  00971C22           const [11]: (572299008)
42F1  01                 const type 3
42F2  12066FA7           const [12]: (-1485896174)
42F6  01                 const type 3
42F7  1A4B27EC           const [13]: (-332969190)
42FB  04                 const type 4
42FC  12                 string size (18)
42FD  4C6F747573526F6F+  "LotusRoo"
4305  6D54756E6E656C46+  "mTunnelF"
430D  7800               "x\0"
                         const [14]: "LotusRoomTunnelFx"
430F  01                 const type 3
4310  9315337C           const [15]: (2083722643)
4314  01                 const type 3
4315  9D09EB8E           const [16]: (-1897199203)
4319  01                 const type 3
431A  98FD7463           const [17]: (1668611480)
431E  04                 const type 4
431F  05                 string size (5)
4320  6D61746800         "math\0"
                         const [18]: "math"
4325  01                 const type 3
4326  C87C3FF9           const [19]: (-113279800)
432A  03                 const type 3
432B  00000000           const [20]: (0)
432F  03                 const type 3
4330  0000803F           const [21]: (0)
4334  01                 const type 3
4335  40891B9E           const [22]: (-1642362560)
4339  01                 const type 3
433A  D48E598B           const [23]: (-1957065004)
433E  04                 const type 4
433F  10                 string size (16)
4340  674465636F726174+  "gDecorat"
4348  696F6E5479706500   "ionType\0"
                         const [24]: "gDecorationType"
4350  01                 const type 3
4351  61E324D1           const [25]: (-786111647)
4355  04                 const type 4
4356  09                 string size (9)
4357  666164654D617473+  "fadeMats"
435F  00                 "\0"
                         const [26]: "fadeMats"
4360  01                 const type 3
4361  1A2EFB94           const [27]: (-1795477990)
4365  04                 const type 4
4366  10                 string size (16)
4367  666164654D617444+  "fadeMatD"
436F  656661756C747300   "efaults\0"
                         const [28]: "fadeMatDefaults"
4377  01                 const type 3
4378  EA911120           const [29]: (538022378)
437C  01                 const type 3
437D  0BDABD7D           const [30]: (2109594123)
4381  04                 const type 4
4382  11                 string size (17)
4383  675061727469636C+  "gParticl"
438B  6553797354797065+  "eSysType"
4393  00                 "\0"
                         const [31]: "gParticleSysType"
4394  01                 const type 3
4395  3F74C2D4           const [32]: (-725453761)
                         * functions:
4399  00                 sizep (0)
                         * lines:
439B  01                 sizelineinfo (150)
                         [pc] (line)
439C  57                 [001] (87)
439D  02                 [002] (87)
439E  00                 [003] (87)
439F  00                 [004] (88)
43A0  57                 [005] (88)
43A1  02                 [006] (88)
43A2  00                 [007] (88)
43A3  00                 [008] (88)
43A4  57                 [009] (89)
43A5  02                 [010] (92)
43A6  00                 [011] (92)
43A7  00                 [012] (93)
43A8  58                 [013] (93)
43A9  02                 [014] (94)
43AA  00                 [015] (94)
43AB  00                 [016] (94)
43AC  58                 [017] (94)
43AD  02                 [018] (94)
43AE  00                 [019] (95)
43AF  00                 [020] (95)
43B0  58                 [021] (95)
43B1  02                 [022] (96)
43B2  00                 [023] (97)
43B3  00                 [024] (97)
43B4  58                 [025] (97)
43B5  02                 [026] (97)
43B6  00                 [027] (98)
43B7  00                 [028] (98)
43B8  58                 [029] (100)
43B9  02                 [030] (100)
43BA  00                 [031] (100)
43BB  00                 [032] (100)
43BC  59                 [033] (100)
43BD  02                 [034] (100)
43BE  00                 [035] (102)
43BF  00                 [036] (102)
43C0  5C                 [037] (102)
43C1  02                 [038] (102)
43C2  00                 [039] (102)
43C3  00                 [040] (102)
43C4  5C                 [041] (102)
43C5  02                 [042] (102)
43C6  00                 [043] (102)
43C7  00                 [044] (102)
43C8  5D                 [045] (103)
43C9  02                 [046] (103)
43CA  00                 [047] (103)
43CB  00                 [048] (104)
43CC  5D                 [049] (104)
43CD  02                 [050] (104)
43CE  00                 [051] (104)
43CF  00                 [052] (104)
43D0  5E                 [053] (104)
43D1  02                 [054] (104)
43D2  00                 [055] (104)
43D3  00                 [056] (104)
43D4  5E                 [057] (104)
43D5  02                 [058] (104)
43D6  00                 [059] (104)
43D7  00                 [060] (104)
43D8  5E                 [061] (104)
43D9  02                 [062] (104)
43DA  00                 [063] (106)
43DB  00                 [064] (106)
43DC  5E                 [065] (106)
43DD  02                 [066] (107)
43DE  00                 [067] (107)
43DF  00                 [068] (107)
43E0  5E                 [069] (107)
43E1  02                 [070] (108)
43E2  00                 [071] (109)
43E3  00                 [072] (109)
43E4  5F                 [073] (109)
43E5  02                 [074] (109)
43E6  00                 [075] (109)
43E7  00                 [076] (110)
43E8  5F                 [077] (110)
43E9  02                 [078] (110)
43EA  00                 [079] (110)
43EB  00                 [080] (110)
43EC  5F                 [081] (111)
43ED  02                 [082] (111)
43EE  00                 [083] (111)
43EF  00                 [084] (111)
43F0  60                 [085] (107)
43F1  02                 [086] (115)
43F2  00                 [087] (115)
43F3  00                 [088] (115)
43F4  61                 [089] (115)
43F5  02                 [090] (115)
43F6  00                 [091] (116)
43F7  00                 [092] (116)
43F8  61                 [093] (116)
43F9  02                 [094] (116)
43FA  00                 [095] (116)
43FB  00                 [096] (116)
43FC  61                 [097] (116)
43FD  02                 [098] (116)
43FE  00                 [099] (116)
43FF  00                 [100] (116)
4400  61                 [101] (116)
4401  02                 [102] (115)
4402  00                 [103] (120)
4403  00                 [104] (120)
4404  62                 [105] (120)
4405  02                 [106] (120)
4406  00                 [107] (123)
4407  00                 [108] (123)
4408  62                 [109] (123)
4409  02                 [110] (123)
440A  00                 [111] (124)
440B  00                 [112] (125)
440C  64                 [113] (125)
440D  02                 [114] (125)
440E  00                 [115] (125)
440F  00                 [116] (125)
4410  64                 [117] (126)
4411  02                 [118] (126)
4412  00                 [119] (126)
4413  00                 [120] (126)
4414  64                 [121] (126)
4415  02                 [122] (127)
4416  00                 [123] (127)
4417  00                 [124] (127)
4418  64                 [125] (127)
4419  02                 [126] (127)
441A  00                 [127] (-128)
441B  00                 [128] (-128)
441C  64                 [129] (-128)
441D  02                 [130] (-128)
441E  00                 [131] (-128)
441F  00                 [132] (-127)
4420  64                 [133] (-127)
4421  02                 [134] (123)
4422  00                 [135] (-123)
4423  00                 [136] (-123)
4424  66                 [137] (-123)
4425  02                 [138] (-123)
4426  00                 [139] (-123)
4427  00                 [140] (-122)
4428  66                 [141] (-122)
4429  02                 [142] (-122)
442A  00                 [143] (-122)
442B  00                 [144] (-122)
442C  66                 [145] (-122)
442D  02                 [146] (-122)
442E  00                 [147] (-122)
442F  00                 [148] (-122)
4430  66                 [149] (-123)
4431  02                 [150] (-112)
                         * locals:
45F4  00                 sizelocvars (0)
                         * upvalues:
45F5  00                 sizeupvalues (0)
                         ** end of function **

                         
45F6                     ** function [7] definition (level 2)
                         ** start of function **
45F6  00                 string size (0)
                         source name: (none)
45F8  05                 line defined (658)
45F9  9B                 last line defined (667)
45FA  05                 nups (1)
45FB  01                 numparams (0)
45FC  00                 is_vararg (0)
45FD  00                 maxstacksize (4)
                         * code:
45FF  16                 sizecode (22)
4600  1D000000           [01] getglobal  0   0        ; 538022378
4604  59400000           [02] loadk      1   1        ; 0
4608  22400001           [03] call       0   2   1  
460C  1D800000           [04] getglobal  0   2        ; gRegion
4610  24C04000           [05] self       0   0   259  ; 65205951
4614  22800001           [06] call       0   2   2  
4618  5D000100           [07] getglobal  1   4        ; 1074689893
461C  92000000           [08] move       2   0      
4620  62800001           [09] call       1   2   2  
4624  58000000           [10] test       1       0    ; to [12] if true
4628  1A000080           [11] jmp        1            ; to [13]
462C  1E008000           [12] return     0   1      
4630  64404100           [13] self       1   0   261  ; 1265388858
4634  DD800100           [14] getglobal  3   6        ; operatorInputFilter
4638  62408001           [15] call       1   3   1  
463C  5D000000           [16] getglobal  1   0        ; 538022378
4640  99C00100           [17] loadk      2   7        ; 0
4644  62400001           [18] call       1   2   1  
4648  64004200           [19] self       1   0   264  ; 1129512439
464C  D3000000           [20] getupval   3   0      
4650  62408001           [21] call       1   3   1  
4654  1E008000           [22] return     0   1      
                         * constants:
4658  09                 sizek (9)
4659  01                 const type 3
465A  EA911120           const [0]: (538022378)
465E  03                 const type 3
465F  0000003F           const [1]: (0)
4663  04                 const type 4
4664  08                 string size (8)
4665  67526567696F6E00   "gRegion\0"
                         const [2]: "gRegion"
466D  01                 const type 3
466E  BFF6E203           const [3]: (65205951)
4672  01                 const type 3
4673  65770E40           const [4]: (1074689893)
4677  01                 const type 3
4678  3A4D6C4B           const [5]: (1265388858)
467C  04                 const type 4
467D  14                 string size (20)
467E  6F70657261746F72+  "operator"
4686  496E70757446696C+  "InputFil"
468E  74657200           "ter\0"
                         const [6]: "operatorInputFilter"
4692  03                 const type 3
4693  00000000           const [7]: (0)
4697  01                 const type 3
4698  F7FD5243           const [8]: (1129512439)
                         * functions:
469C  00                 sizep (0)
                         * lines:
469D  16                 sizelineinfo (22)
                         [pc] (line)
469E  93                 [01] (-109)
469F  02                 [02] (-109)
46A0  00                 [03] (-109)
46A1  00                 [04] (-108)
46A2  93                 [05] (-108)
46A3  02                 [06] (-108)
46A4  00                 [07] (-107)
46A5  00                 [08] (-107)
46A6  93                 [09] (-107)
46A7  02                 [10] (-107)
46A8  00                 [11] (-107)
46A9  00                 [12] (-106)
46AA  94                 [13] (-104)
46AB  02                 [14] (-104)
46AC  00                 [15] (-104)
46AD  00                 [16] (-103)
46AE  94                 [17] (-103)
46AF  02                 [18] (-103)
46B0  00                 [19] (-102)
46B1  00                 [20] (-102)
46B2  94                 [21] (-102)
46B3  02                 [22] (-101)
                         * locals:
46F6  00                 sizelocvars (0)
                         * upvalues:
46F7  00                 sizeupvalues (0)
                         ** end of function **

                         
46F8                     ** function [8] definition (level 2)
                         ** start of function **
46F8  00                 string size (0)
                         source name: (none)
46FA  05                 line defined (669)
46FB  A0                 last line defined (672)
46FC  05                 nups (0)
46FD  00                 numparams (1)
46FE  01                 is_vararg (0)
46FF  00                 maxstacksize (3)
                         * code:
4701  05                 sizecode (5)
4702  5D000000           [1] getglobal  1   0        ; _T
4706  4C80C080           [2] settable   1   257 258  ; "ApostasyActionTriggered" 1
470A  64C04000           [3] self       1   0   259  ; 766584623
470E  62400001           [4] call       1   2   1  
4712  1E008000           [5] return     0   1      
                         * constants:
4716  04                 sizek (4)
4717  04                 const type 4
4718  03                 string size (3)
4719  5F5400             "_T\0"
                         const [0]: "_T"
471C  04                 const type 4
471D  18                 string size (24)
471E  41706F7374617379+  "Apostasy"
4726  416374696F6E5472+  "ActionTr"
472E  6967676572656400   "iggered\0"
                         const [1]: "ApostasyActionTriggered"
4736  01                 const type 3
4737  01000000           const [2]: (1)
473B  01                 const type 3
473C  2F27B12D           const [3]: (766584623)
                         * functions:
4740  00                 sizep (0)
                         * lines:
4741  05                 sizelineinfo (5)
                         [pc] (line)
4742  9E                 [1] (-98)
4743  02                 [2] (-98)
4744  00                 [3] (-97)
4745  00                 [4] (-97)
4746  9E                 [5] (-96)
                         * locals:
4756  00                 sizelocvars (0)
                         * upvalues:
4757  00                 sizeupvalues (0)
                         ** end of function **

                         
4758                     ** function [9] definition (level 2)
                         ** start of function **
4758  00                 string size (0)
                         source name: (none)
475A  05                 line defined (674)
475B  A8                 last line defined (680)
475C  05                 nups (2)
475D  02                 numparams (2)
475E  02                 is_vararg (0)
475F  00                 maxstacksize (3)
                         * code:
4761  08                 sizecode (8)
4762  18000000           [1] test       0       0    ; to [3] if true
4766  1A800080           [2] jmp        3            ; to [6]
476A  97008000           [3] loadbool   2   1   0    ; true
fail op	8
476E  88000000           [4] setupval   2   0      
4772  1A400080           [5] jmp        2            ; to [8]
4776  97008000           [6] loadbool   2   1   0    ; true
fail op	8
477A  88008000           [7] setupval   2   1      
477E  1E008000           [8] return     0   1      
                         * constants:
4782  00                 sizek (0)
                         * functions:
4783  00                 sizep (0)
                         * lines:
4784  08                 sizelineinfo (8)
                         [pc] (line)
4785  A3                 [1] (-93)
4786  02                 [2] (-93)
4787  00                 [3] (-92)
4788  00                 [4] (-92)
4789  A3                 [5] (-92)
478A  02                 [6] (-90)
478B  00                 [7] (-90)
478C  00                 [8] (-88)
                         * locals:
47A5  00                 sizelocvars (0)
                         * upvalues:
47A6  00                 sizeupvalues (0)
                         ** end of function **

                         
47A7                     ** function [10] definition (level 2)
                         ** start of function **
47A7  00                 string size (0)
                         source name: (none)
47A9  05                 line defined (682)
47AA  C0                 last line defined (704)
47AB  05                 nups (2)
47AC  02                 numparams (2)
47AD  02                 is_vararg (0)
47AE  00                 maxstacksize (10)
                         * code:
47B0  2F                 sizecode (47)
47B1  A4004000           [01] self       2   0   256  ; 1865287165
47B5  A2800001           [02] call       2   2   2  
47B9  A4404001           [03] self       2   2   257  ; 1388869707
47BD  A2800001           [04] call       2   2   2  
47C1  DD800000           [05] getglobal  3   2        ; keyChainWRes
fail op	35
47C5  63C00001           [06] close      1  
47C9  1A000080           [07] jmp        1            ; to [9]
47CD  1E008000           [08] return     0   1      
47D1  D9C00000           [09] loadk      3   3        ; 0
47D5  19010100           [10] loadk      4   4        ; 0
47D9  64414100           [11] self       5   0   261  ; 1139718821
47DD  D2018000           [12] move       7   1      
47E1  19820100           [13] loadk      8   6        ; "OnProgressQuest"
47E5  62410002           [14] call       5   4   1  
47E9  53010000           [15] getupval   5   0      
47ED  58410000           [16] test       5       1    ; to [18] if false
47F1  1A000780           [17] jmp        29           ; to [47]
47F5  5DC10100           [18] getglobal  5   7        ; 538022378
47F9  99010100           [19] loadk      6   4        ; 0
47FD  62410001           [20] call       5   2   1  
4801  53018000           [21] getupval   5   1      
4805  58010000           [22] test       5       0    ; to [24] if true
4809  1A80FD7F           [23] jmp        -9           ; to [15]
480D  57010000           [24] loadbool   5   0   0    ; false
fail op	8
4811  48018000           [25] setupval   5   1      
4815  03014202           [26] add        4   4   264  ; 0
4819  59010100           [27] loadk      5   4        ; 0
481D  9D410200           [28] getglobal  6   9        ; math
4821  8E814203           [29] gettable   6   6   266  ; 1710846250
4825  C4018101           [30] mul        7   3   4  
4829  19C20200           [31] loadk      8   11       ; 0
482D  A2818001           [32] call       6   3   2  
fail op	21
4831  15808102           [33] concat     0   5   6  
4835  1A800180           [34] jmp        7            ; to [42]
4839  9DC10100           [35] getglobal  6   7        ; 538022378
483D  D9010100           [36] loadk      7   4        ; 0
4841  A2410001           [37] call       6   2   1  
4845  9D010300           [38] getglobal  6   12       ; 1289681407
4849  A2818000           [39] call       6   1   2  
484D  43818102           [40] add        5   5   6  
4851  1A40FC7F           [41] jmp        -14          ; to [28]
4855  A4414100           [42] self       6   0   261  ; 1139718821
4859  12028000           [43] move       8   1      
485D  59820100           [44] loadk      9   6        ; "OnProgressQuest"
4861  A2410002           [45] call       6   4   1  
4865  1AC0F77F           [46] jmp        -32          ; to [15]
4869  1E008000           [47] return     0   1      
                         * constants:
486D  0D                 sizek (13)
486E  01                 const type 3
486F  FD052E6F           const [0]: (1865287165)
4873  01                 const type 3
4874  4B78C852           const [1]: (1388869707)
4878  04                 const type 4
4879  0D                 string size (13)
487A  6B6579436861696E+  "keyChain"
4882  5752657300         "WRes\0"
                         const [2]: "keyChainWRes"
4887  03                 const type 3
4888  0000A040           const [3]: (0)
488C  03                 const type 3
488D  00000000           const [4]: (0)
4891  01                 const type 3
4892  A5BAEE43           const [5]: (1139718821)
4896  04                 const type 4
4897  10                 string size (16)
4898  4F6E50726F677265+  "OnProgre"
48A0  7373517565737400   "ssQuest\0"
                         const [6]: "OnProgressQuest"
48A8  01                 const type 3
48A9  EA911120           const [7]: (538022378)
48AD  03                 const type 3
48AE  0000803F           const [8]: (0)
48B2  04                 const type 4
48B3  05                 string size (5)
48B4  6D61746800         "math\0"
                         const [9]: "math"
48B9  01                 const type 3
48BA  2A71F965           const [10]: (1710846250)
48BE  03                 const type 3
48BF  00007042           const [11]: (0)
48C3  01                 const type 3
48C4  FFF9DE4C           const [12]: (1289681407)
                         * functions:
48C8  00                 sizep (0)
                         * lines:
48C9  2F                 sizelineinfo (47)
                         [pc] (line)
48CA  AB                 [01] (-85)
48CB  02                 [02] (-85)
48CC  00                 [03] (-85)
48CD  00                 [04] (-85)
48CE  AB                 [05] (-84)
48CF  02                 [06] (-84)
48D0  00                 [07] (-84)
48D1  00                 [08] (-83)
48D2  AB                 [09] (-80)
48D3  02                 [10] (-79)
48D4  00                 [11] (-78)
48D5  00                 [12] (-78)
48D6  AB                 [13] (-78)
48D7  02                 [14] (-78)
48D8  00                 [15] (-77)
48D9  00                 [16] (-77)
48DA  AC                 [17] (-77)
48DB  02                 [18] (-76)
48DC  00                 [19] (-76)
48DD  00                 [20] (-76)
48DE  AC                 [21] (-75)
48DF  02                 [22] (-75)
48E0  00                 [23] (-75)
48E1  00                 [24] (-74)
48E2  AC                 [25] (-74)
48E3  02                 [26] (-73)
48E4  00                 [27] (-72)
48E5  00                 [28] (-71)
48E6  AD                 [29] (-71)
48E7  02                 [30] (-71)
48E8  00                 [31] (-71)
48E9  00                 [32] (-71)
48EA  B0                 [33] (-71)
48EB  02                 [34] (-71)
48EC  00                 [35] (-70)
48ED  00                 [36] (-70)
48EE  B1                 [37] (-70)
48EF  02                 [38] (-69)
48F0  00                 [39] (-69)
48F1  00                 [40] (-69)
48F2  B2                 [41] (-69)
48F3  02                 [42] (-67)
48F4  00                 [43] (-67)
48F5  00                 [44] (-67)
48F6  B2                 [45] (-67)
48F7  02                 [46] (-66)
48F8  00                 [47] (-64)
                         * locals:
4986  00                 sizelocvars (0)
                         * upvalues:
4987  00                 sizeupvalues (0)
                         ** end of function **

                         
4988                     ** function [11] definition (level 2)
                         ** start of function **
4988  00                 string size (0)
                         source name: (none)
498A  05                 line defined (706)
498B  C9                 last line defined (713)
498C  05                 nups (2)
498D  02                 numparams (2)
498E  02                 is_vararg (0)
498F  00                 maxstacksize (6)
                         * code:
4991  0E                 sizecode (14)
4992  18000000           [01] test       0       0    ; to [3] if true
4996  1A000280           [02] jmp        9            ; to [12]
499A  9D000000           [03] getglobal  2   0        ; _T
499E  8E404001           [04] gettable   2   2   257  ; "BackgroundMovie"
49A2  A4804001           [05] self       2   2   258  ; 1167009705
49A6  19C10000           [06] loadk      4   3        ; "CheckQuests"
49AA  59010100           [07] loadk      5   4        ; ""
49AE  A2400002           [08] call       2   4   1  
49B2  97008000           [09] loadbool   2   1   0    ; true
fail op	8
49B6  88000000           [10] setupval   2   0      
49BA  1A400080           [11] jmp        2            ; to [14]
49BE  97008000           [12] loadbool   2   1   0    ; true
fail op	8
49C2  88008000           [13] setupval   2   1      
49C6  1E008000           [14] return     0   1      
                         * constants:
49CA  05                 sizek (5)
49CB  04                 const type 4
49CC  03                 string size (3)
49CD  5F5400             "_T\0"
                         const [0]: "_T"
49D0  04                 const type 4
49D1  10                 string size (16)
49D2  4261636B67726F75+  "Backgrou"
49DA  6E644D6F76696500   "ndMovie\0"
                         const [1]: "BackgroundMovie"
49E2  01                 const type 3
49E3  A9278F45           const [2]: (1167009705)
49E7  04                 const type 4
49E8  0C                 string size (12)
49E9  436865636B517565+  "CheckQue"
49F1  73747300           "sts\0"
                         const [3]: "CheckQuests"
49F5  04                 const type 4
49F6  01                 string size (0)
                         const [4]: ""
                         * functions:
49F8  00                 sizep (0)
                         * lines:
49F9  0E                 sizelineinfo (14)
                         [pc] (line)
49FA  C3                 [01] (-61)
49FB  02                 [02] (-61)
49FC  00                 [03] (-60)
49FD  00                 [04] (-60)
49FE  C3                 [05] (-60)
49FF  02                 [06] (-60)
4A00  00                 [07] (-60)
4A01  00                 [08] (-60)
4A02  C4                 [09] (-59)
4A03  02                 [10] (-59)
4A04  00                 [11] (-59)
4A05  00                 [12] (-57)
4A06  C4                 [13] (-57)
4A07  02                 [14] (-55)
                         * locals:
4A32  00                 sizelocvars (0)
                         * upvalues:
4A33  00                 sizeupvalues (0)
                         ** end of function **

                         
4A34                     ** function [12] definition (level 2)
                         ** start of function **
4A34  00                 string size (0)
                         source name: (none)
4A36  05                 line defined (715)
4A37  D1                 last line defined (721)
4A38  05                 nups (2)
4A39  02                 numparams (2)
4A3A  02                 is_vararg (0)
4A3B  00                 maxstacksize (3)
                         * code:
4A3D  08                 sizecode (8)
4A3E  18400000           [1] test       0       1    ; to [3] if false
4A42  1A800080           [2] jmp        3            ; to [6]
4A46  97008000           [3] loadbool   2   1   0    ; true
fail op	8
4A4A  88000000           [4] setupval   2   0      
4A4E  1A400080           [5] jmp        2            ; to [8]
4A52  97008000           [6] loadbool   2   1   0    ; true
fail op	8
4A56  88008000           [7] setupval   2   1      
4A5A  1E008000           [8] return     0   1      
                         * constants:
4A5E  00                 sizek (0)
                         * functions:
4A5F  00                 sizep (0)
                         * lines:
4A60  08                 sizelineinfo (8)
                         [pc] (line)
4A61  CC                 [1] (-52)
4A62  02                 [2] (-52)
4A63  00                 [3] (-51)
4A64  00                 [4] (-51)
4A65  CC                 [5] (-51)
4A66  02                 [6] (-49)
4A67  00                 [7] (-49)
4A68  00                 [8] (-47)
                         * locals:
4A81  00                 sizelocvars (0)
                         * upvalues:
4A82  00                 sizeupvalues (0)
                         ** end of function **

                         
4A83                     ** function [13] definition (level 2)
                         ** start of function **
4A83  00                 string size (0)
                         source name: (none)
4A85  05                 line defined (723)
4A86  EE                 last line defined (750)
4A87  05                 nups (2)
4A88  02                 numparams (2)
4A89  02                 is_vararg (0)
4A8A  00                 maxstacksize (9)
                         * code:
4A8C  3A                 sizecode (58)
4A8D  A4004000           [01] self       2   0   256  ; 1833238583
4A91  12018000           [02] move       4   1      
4A95  59410000           [03] loadk      5   1        ; "OnActiveQuestSet"
4A99  A2400002           [04] call       2   4   1  
4A9D  97000000           [05] loadbool   2   0   0    ; false
4AA1  D9800000           [06] loadk      3   2        ; 0
4AA5  19C10000           [07] loadk      4   3        ; 0
4AA9  53010000           [08] getupval   5   0      
4AAD  58410000           [09] test       5       1    ; to [11] if false
4AB1  1A800980           [10] jmp        39           ; to [50]
4AB5  5D010100           [11] getglobal  5   4        ; 538022378
4AB9  99C10000           [12] loadk      6   3        ; 0
4ABD  62410001           [13] call       5   2   1  
4AC1  5D410100           [14] getglobal  5   5        ; 1289681407
4AC5  62818000           [15] call       5   1   2  
4AC9  03410102           [16] add        4   4   5  
4ACD  98400000           [17] test       2       1    ; to [19] if false
4AD1  1A000280           [18] jmp        9            ; to [28]
fail op	21
4AD5  15000183           [19] concat     0   262 4  
4AD9  1A800180           [20] jmp        7            ; to [28]
4ADD  97008000           [21] loadbool   2   1   0    ; true
4AE1  5DC10100           [22] getglobal  5   7        ; _T
4AE5  4E01C202           [23] gettable   5   5   264  ; "BackgroundMovie"
4AE9  6441C202           [24] self       5   5   265  ; 1167009705
4AED  D9810200           [25] loadk      7   10       ; "ShowBlockingMessage"
4AF1  19C20200           [26] loadk      8   11       ; "1"
4AF5  62410002           [27] call       5   4   1  
4AF9  53018000           [28] getupval   5   1      
4AFD  58010000           [29] test       5       0    ; to [31] if true
4B01  1A00FA7F           [30] jmp        -23          ; to [8]
fail op	21
4B05  15008101           [31] concat     0   3   4  
4B09  1A80F97F           [32] jmp        -25          ; to [8]
4B0D  57010000           [33] loadbool   5   0   0    ; false
fail op	8
4B11  48018000           [34] setupval   5   1      
4B15  19C10000           [35] loadk      4   3        ; 0
4B19  5D010300           [36] getglobal  5   12       ; -1817107093
4B1D  99410300           [37] loadk      6   13       ; "Retrying SetActiveQuest"
4B21  62410001           [38] call       5   2   1  
4B25  64014000           [39] self       5   0   256  ; 1833238583
4B29  D2018000           [40] move       7   1      
4B2D  19420000           [41] loadk      8   1        ; "OnActiveQuestSet"
4B31  62410002           [42] call       5   4   1  
4B35  5D810300           [43] getglobal  5   14       ; math
4B39  4EC1C302           [44] gettable   5   5   271  ; 1710846250
4B3D  8401C401           [45] mul        6   3   272  ; 0
4B41  D9410400           [46] loadk      7   17       ; 0
4B45  62818001           [47] call       5   3   2  
4B49  D2008002           [48] move       3   5      
4B4D  1A40F57F           [49] jmp        -42          ; to [8]
4B51  98000000           [50] test       2       0    ; to [52] if true
4B55  1A400180           [51] jmp        6            ; to [58]
4B59  5DC10100           [52] getglobal  5   7        ; _T
4B5D  4E01C202           [53] gettable   5   5   264  ; "BackgroundMovie"
4B61  6441C202           [54] self       5   5   265  ; 1167009705
4B65  D9810200           [55] loadk      7   10       ; "ShowBlockingMessage"
4B69  19820400           [56] loadk      8   18       ; "0"
4B6D  62410002           [57] call       5   4   1  
4B71  1E008000           [58] return     0   1      
                         * constants:
4B75  13                 sizek (19)
4B76  01                 const type 3
4B77  3700456D           const [0]: (1833238583)
4B7B  04                 const type 4
4B7C  11                 string size (17)
4B7D  4F6E416374697665+  "OnActive"
4B85  5175657374536574+  "QuestSet"
4B8D  00                 "\0"
                         const [1]: "OnActiveQuestSet"
4B8E  03                 const type 3
4B8F  0000A040           const [2]: (0)
4B93  03                 const type 3
4B94  00000000           const [3]: (0)
4B98  01                 const type 3
4B99  EA911120           const [4]: (538022378)
4B9D  01                 const type 3
4B9E  FFF9DE4C           const [5]: (1289681407)
4BA2  03                 const type 3
4BA3  0000803F           const [6]: (0)
4BA7  04                 const type 4
4BA8  03                 string size (3)
4BA9  5F5400             "_T\0"
                         const [7]: "_T"
4BAC  04                 const type 4
4BAD  10                 string size (16)
4BAE  4261636B67726F75+  "Backgrou"
4BB6  6E644D6F76696500   "ndMovie\0"
                         const [8]: "BackgroundMovie"
4BBE  01                 const type 3
4BBF  A9278F45           const [9]: (1167009705)
4BC3  04                 const type 4
4BC4  14                 string size (20)
4BC5  53686F77426C6F63+  "ShowBloc"
4BCD  6B696E674D657373+  "kingMess"
4BD5  61676500           "age\0"
                         const [10]: "ShowBlockingMessage"
4BD9  04                 const type 4
4BDA  02                 string size (2)
4BDB  3100               "1\0"
                         const [11]: "1"
4BDD  01                 const type 3
4BDE  6B25B193           const [12]: (-1817107093)
4BE2  04                 const type 4
4BE3  18                 string size (24)
4BE4  5265747279696E67+  "Retrying"
4BEC  2053657441637469+  " SetActi"
4BF4  7665517565737400   "veQuest\0"
                         const [13]: "Retrying SetActiveQuest"
4BFC  04                 const type 4
4BFD  05                 string size (5)
4BFE  6D61746800         "math\0"
                         const [14]: "math"
4C03  01                 const type 3
4C04  2A71F965           const [15]: (1710846250)
4C08  03                 const type 3
4C09  00000040           const [16]: (0)
4C0D  03                 const type 3
4C0E  00007042           const [17]: (0)
4C12  04                 const type 4
4C13  02                 string size (2)
4C14  3000               "0\0"
                         const [18]: "0"
                         * functions:
4C16  00                 sizep (0)
                         * lines:
4C17  3A                 sizelineinfo (58)
                         [pc] (line)
4C18  D4                 [01] (-44)
4C19  02                 [02] (-44)
4C1A  00                 [03] (-44)
4C1B  00                 [04] (-44)
4C1C  D4                 [05] (-42)
4C1D  02                 [06] (-40)
4C1E  00                 [07] (-39)
4C1F  00                 [08] (-38)
4C20  D4                 [09] (-38)
4C21  02                 [10] (-38)
4C22  00                 [11] (-37)
4C23  00                 [12] (-37)
4C24  D4                 [13] (-37)
4C25  02                 [14] (-36)
4C26  00                 [15] (-36)
4C27  00                 [16] (-36)
4C28  D6                 [17] (-34)
4C29  02                 [18] (-34)
4C2A  00                 [19] (-34)
4C2B  00                 [20] (-34)
4C2C  D8                 [21] (-33)
4C2D  02                 [22] (-32)
4C2E  00                 [23] (-32)
4C2F  00                 [24] (-32)
4C30  D9                 [25] (-32)
4C31  02                 [26] (-32)
4C32  00                 [27] (-32)
4C33  00                 [28] (-30)
4C34  DA                 [29] (-30)
4C35  02                 [30] (-30)
4C36  00                 [31] (-30)
4C37  00                 [32] (-30)
4C38  DA                 [33] (-29)
4C39  02                 [34] (-29)
4C3A  00                 [35] (-28)
4C3B  00                 [36] (-27)
4C3C  DA                 [37] (-27)
4C3D  02                 [38] (-27)
4C3E  00                 [39] (-26)
4C3F  00                 [40] (-26)
4C40  DB                 [41] (-26)
4C41  02                 [42] (-26)
4C42  00                 [43] (-25)
4C43  00                 [44] (-25)
4C44  DB                 [45] (-25)
4C45  02                 [46] (-25)
4C46  00                 [47] (-25)
4C47  00                 [48] (-25)
4C48  DB                 [49] (-24)
4C49  02                 [50] (-21)
4C4A  00                 [51] (-21)
4C4B  00                 [52] (-20)
4C4C  DC                 [53] (-20)
4C4D  02                 [54] (-20)
4C4E  00                 [55] (-20)
4C4F  00                 [56] (-20)
4C50  DC                 [57] (-20)
4C51  02                 [58] (-18)
                         * locals:
4D00  00                 sizelocvars (0)
                         * upvalues:
4D01  00                 sizeupvalues (0)
                         ** end of function **

                         
4D02                     ** function [14] definition (level 2)
                         ** start of function **
4D02  00                 string size (0)
                         source name: (none)
4D04  05                 line defined (752)
4D05  91                 last line defined (785)
4D06  06                 nups (2)
4D07  02                 numparams (2)
4D08  02                 is_vararg (0)
4D09  00                 maxstacksize (10)
                         * code:
4D0B  4B                 sizecode (75)
4D0C  9D000000           [01] getglobal  2   0        ; Lotus_Game
4D10  8E404001           [02] gettable   2   2   257  ; -90028693
4D14  A2808000           [03] call       2   1   2  
4D18  DD000000           [04] getglobal  3   0        ; Lotus_Game
4D1C  CEC0C001           [05] gettable   3   3   259  ; "RT_CONSUMABLE"
4D20  8CC00081           [06] settable   2   258 3    ; "mRewardType"
4D24  DD400100           [07] getglobal  3   5        ; Engine
4D28  CE80C101           [08] gettable   3   3   262  ; "Item_QuestKeys"
4D2C  8CC00082           [09] settable   2   260 3    ; "mProductCategory"
4D30  DD000200           [10] getglobal  3   8        ; 738251817
4D34  12018000           [11] move       4   1      
4D38  E2800001           [12] call       3   2   2  
4D3C  8CC08083           [13] settable   2   263 3    ; "mItemType"
4D40  D7000000           [14] loadbool   3   0   0    ; false
fail op	8
4D44  C8000000           [15] setupval   3   0      
4D48  D7000000           [16] loadbool   3   0   0    ; false
fail op	8
4D4C  C8008000           [17] setupval   3   1      
4D50  D9400200           [18] loadk      3   9        ; 0
4D54  19810200           [19] loadk      4   10       ; 0
4D58  57010000           [20] loadbool   5   0   0    ; false
4D5C  A4C14200           [21] self       6   0   267  ; 2076534298
4D60  12020001           [22] move       8   2      
4D64  59020300           [23] loadk      9   12       ; "OnGiveQuest"
4D68  A2410002           [24] call       6   4   1  
4D6C  93010000           [25] getupval   6   0      
4D70  98410000           [26] test       6       1    ; to [28] if false
4D74  1A800980           [27] jmp        39           ; to [67]
4D78  9D410300           [28] getglobal  6   13       ; 538022378
4D7C  D9810200           [29] loadk      7   10       ; 0
4D80  A2410001           [30] call       6   2   1  
4D84  9D810300           [31] getglobal  6   14       ; 1289681407
4D88  A2818000           [32] call       6   1   2  
4D8C  03810102           [33] add        4   4   6  
4D90  58410000           [34] test       5       1    ; to [36] if false
4D94  1A000280           [35] jmp        9            ; to [45]
fail op	21
4D98  15008187           [36] concat     0   271 4  
4D9C  1A800180           [37] jmp        7            ; to [45]
4DA0  57018000           [38] loadbool   5   1   0    ; true
4DA4  9D010400           [39] getglobal  6   16       ; _T
4DA8  8E414403           [40] gettable   6   6   273  ; "BackgroundMovie"
4DAC  A4814403           [41] self       6   6   274  ; 1167009705
4DB0  19C20400           [42] loadk      8   19       ; "ShowBlockingMessage"
4DB4  59020500           [43] loadk      9   20       ; "1"
4DB8  A2410002           [44] call       6   4   1  
4DBC  93018000           [45] getupval   6   1      
4DC0  98010000           [46] test       6       0    ; to [48] if true
4DC4  1A00FA7F           [47] jmp        -23          ; to [25]
fail op	21
4DC8  15008101           [48] concat     0   3   4  
4DCC  1A80F97F           [49] jmp        -25          ; to [25]
4DD0  97010000           [50] loadbool   6   0   0    ; false
fail op	8
4DD4  88018000           [51] setupval   6   1      
4DD8  19810200           [52] loadk      4   10       ; 0
4DDC  9D410500           [53] getglobal  6   21       ; -1817107093
4DE0  D9810500           [54] loadk      7   22       ; "Retrying AcceptQuest."
4DE4  A2410001           [55] call       6   2   1  
4DE8  A4C14200           [56] self       6   0   267  ; 2076534298
4DEC  12020001           [57] move       8   2      
4DF0  59020300           [58] loadk      9   12       ; "OnGiveQuest"
4DF4  A2410002           [59] call       6   4   1  
4DF8  9DC10500           [60] getglobal  6   23       ; math
4DFC  8E014603           [61] gettable   6   6   280  ; 1710846250
4E00  C441C601           [62] mul        7   3   281  ; 0
4E04  19820600           [63] loadk      8   26       ; 0
4E08  A2818001           [64] call       6   3   2  
4E0C  D2000003           [65] move       3   6      
4E10  1A40F57F           [66] jmp        -42          ; to [25]
4E14  58010000           [67] test       5       0    ; to [69] if true
4E18  1A400180           [68] jmp        6            ; to [75]
4E1C  9D010400           [69] getglobal  6   16       ; _T
4E20  8E414403           [70] gettable   6   6   273  ; "BackgroundMovie"
4E24  A4814403           [71] self       6   6   274  ; 1167009705
4E28  19C20400           [72] loadk      8   19       ; "ShowBlockingMessage"
4E2C  59C20600           [73] loadk      9   27       ; "0"
4E30  A2410002           [74] call       6   4   1  
4E34  1E008000           [75] return     0   1      
                         * constants:
4E38  1C                 sizek (28)
4E39  04                 const type 4
4E3A  0B                 string size (11)
4E3B  4C6F7475735F4761+  "Lotus_Ga"
4E43  6D6500             "me\0"
                         const [0]: "Lotus_Game"
4E46  01                 const type 3
4E47  6B45A2FA           const [1]: (-90028693)
4E4B  04                 const type 4
4E4C  0C                 string size (12)
4E4D  6D52657761726454+  "mRewardT"
4E55  79706500           "ype\0"
                         const [2]: "mRewardType"
4E59  04                 const type 4
4E5A  0E                 string size (14)
4E5B  52545F434F4E5355+  "RT_CONSU"
4E63  4D41424C4500       "MABLE\0"
                         const [3]: "RT_CONSUMABLE"
4E69  04                 const type 4
4E6A  11                 string size (17)
4E6B  6D50726F64756374+  "mProduct"
4E73  43617465676F7279+  "Category"
4E7B  00                 "\0"
                         const [4]: "mProductCategory"
4E7C  04                 const type 4
4E7D  07                 string size (7)
4E7E  456E67696E6500     "Engine\0"
                         const [5]: "Engine"
4E85  04                 const type 4
4E86  0F                 string size (15)
4E87  4974656D5F517565+  "Item_Que"
4E8F  73744B65797300     "stKeys\0"
                         const [6]: "Item_QuestKeys"
4E96  04                 const type 4
4E97  0A                 string size (10)
4E98  6D4974656D547970+  "mItemTyp"
4EA0  6500               "e\0"
                         const [7]: "mItemType"
4EA2  01                 const type 3
4EA3  29D4002C           const [8]: (738251817)
4EA7  03                 const type 3
4EA8  0000A040           const [9]: (0)
4EAC  03                 const type 3
4EAD  00000000           const [10]: (0)
4EB1  01                 const type 3
4EB2  1A66C57B           const [11]: (2076534298)
4EB6  04                 const type 4
4EB7  0C                 string size (12)
4EB8  4F6E476976655175+  "OnGiveQu"
4EC0  65737400           "est\0"
                         const [12]: "OnGiveQuest"
4EC4  01                 const type 3
4EC5  EA911120           const [13]: (538022378)
4EC9  01                 const type 3
4ECA  FFF9DE4C           const [14]: (1289681407)
4ECE  03                 const type 3
4ECF  0000803F           const [15]: (0)
4ED3  04                 const type 4
4ED4  03                 string size (3)
4ED5  5F5400             "_T\0"
                         const [16]: "_T"
4ED8  04                 const type 4
4ED9  10                 string size (16)
4EDA  4261636B67726F75+  "Backgrou"
4EE2  6E644D6F76696500   "ndMovie\0"
                         const [17]: "BackgroundMovie"
4EEA  01                 const type 3
4EEB  A9278F45           const [18]: (1167009705)
4EEF  04                 const type 4
4EF0  14                 string size (20)
4EF1  53686F77426C6F63+  "ShowBloc"
4EF9  6B696E674D657373+  "kingMess"
4F01  61676500           "age\0"
                         const [19]: "ShowBlockingMessage"
4F05  04                 const type 4
4F06  02                 string size (2)
4F07  3100               "1\0"
                         const [20]: "1"
4F09  01                 const type 3
4F0A  6B25B193           const [21]: (-1817107093)
4F0E  04                 const type 4
4F0F  16                 string size (22)
4F10  5265747279696E67+  "Retrying"
4F18  2041636365707451+  " AcceptQ"
4F20  756573742E00       "uest.\0"
                         const [22]: "Retrying AcceptQuest."
4F26  04                 const type 4
4F27  05                 string size (5)
4F28  6D61746800         "math\0"
                         const [23]: "math"
4F2D  01                 const type 3
4F2E  2A71F965           const [24]: (1710846250)
4F32  03                 const type 3
4F33  00000040           const [25]: (0)
4F37  03                 const type 3
4F38  00007042           const [26]: (0)
4F3C  04                 const type 4
4F3D  02                 string size (2)
4F3E  3000               "0\0"
                         const [27]: "0"
                         * functions:
4F40  00                 sizep (0)
                         * lines:
4F41  4B                 sizelineinfo (75)
                         [pc] (line)
4F42  F1                 [01] (-15)
4F43  02                 [02] (-15)
4F44  00                 [03] (-15)
4F45  00                 [04] (-14)
4F46  F1                 [05] (-14)
4F47  02                 [06] (-14)
4F48  00                 [07] (-13)
4F49  00                 [08] (-13)
4F4A  F1                 [09] (-13)
4F4B  02                 [10] (-12)
4F4C  00                 [11] (-12)
4F4D  00                 [12] (-12)
4F4E  F2                 [13] (-12)
4F4F  02                 [14] (-10)
4F50  00                 [15] (-10)
4F51  00                 [16] (-9)
4F52  F2                 [17] (-9)
4F53  02                 [18] (-7)
4F54  00                 [19] (-6)
4F55  00                 [20] (-5)
4F56  F2                 [21] (-4)
4F57  02                 [22] (-4)
4F58  00                 [23] (-4)
4F59  00                 [24] (-4)
4F5A  F3                 [25] (-3)
4F5B  02                 [26] (-3)
4F5C  00                 [27] (-3)
4F5D  00                 [28] (-2)
4F5E  F3                 [29] (-2)
4F5F  02                 [30] (-2)
4F60  00                 [31] (-1)
4F61  00                 [32] (-1)
4F62  F3                 [33] (-1)
4F63  02                 [34] (1)
4F64  00                 [35] (1)
4F65  00                 [36] (1)
4F66  F4                 [37] (1)
4F67  02                 [38] (2)
4F68  00                 [39] (3)
4F69  00                 [40] (3)
4F6A  F4                 [41] (3)
4F6B  02                 [42] (3)
4F6C  00                 [43] (3)
4F6D  00                 [44] (3)
4F6E  F4                 [45] (5)
4F6F  02                 [46] (5)
4F70  00                 [47] (5)
4F71  00                 [48] (5)
4F72  F4                 [49] (5)
4F73  02                 [50] (6)
4F74  00                 [51] (6)
4F75  00                 [52] (7)
4F76  F6                 [53] (8)
4F77  02                 [54] (8)
4F78  00                 [55] (8)
4F79  00                 [56] (9)
4F7A  F6                 [57] (9)
4F7B  02                 [58] (9)
4F7C  00                 [59] (9)
4F7D  00                 [60] (10)
4F7E  F7                 [61] (10)
4F7F  02                 [62] (10)
4F80  00                 [63] (10)
4F81  00                 [64] (10)
4F82  F7                 [65] (10)
4F83  02                 [66] (11)
4F84  00                 [67] (14)
4F85  00                 [68] (14)
4F86  F9                 [69] (15)
4F87  02                 [70] (15)
4F88  00                 [71] (15)
4F89  00                 [72] (15)
4F8A  FA                 [73] (15)
4F8B  02                 [74] (15)
4F8C  00                 [75] (17)
                         * locals:
506E  00                 sizelocvars (0)
                         * upvalues:
506F  00                 sizeupvalues (0)
                         ** end of function **

                         
5070                     ** function [15] definition (level 2)
                         ** start of function **
5070  00                 string size (0)
                         source name: (none)
5072  06                 line defined (787)
5073  96                 last line defined (790)
5074  06                 nups (0)
5075  00                 numparams (0)
5076  00                 is_vararg (0)
5077  00                 maxstacksize (2)
                         * code:
5079  01                 sizecode (1)
507A  1E008000           [1] return     0   1      
                         * constants:
507E  00                 sizek (0)
                         * functions:
507F  00                 sizep (0)
                         * lines:
5080  01                 sizelineinfo (1)
                         [pc] (line)
5081  16                 [1] (22)
                         * locals:
5085  00                 sizelocvars (0)
                         * upvalues:
5086  00                 sizeupvalues (0)
                         ** end of function **

                         
5087                     ** function [16] definition (level 2)
                         ** start of function **
5087  00                 string size (0)
                         source name: (none)
5089  06                 line defined (792)
508A  D9                 last line defined (857)
508B  06                 nups (4)
508C  04                 numparams (1)
508D  01                 is_vararg (0)
508E  00                 maxstacksize (19)
                         * code:
5091  01                 sizecode (171)
5092  5D000000           [001] getglobal  1   0        ; 1074689893
5096  9D400000           [002] getglobal  2   1        ; gMatchingService
509A  62800001           [003] call       1   2   2  
509E  58400000           [004] test       1       1    ; to [6] if false
50A2  1A800080           [005] jmp        3            ; to [9]
50A6  5D400000           [006] getglobal  1   1        ; gMatchingService
50AA  6480C000           [007] self       1   1   258  ; 1617304244
50AE  62400001           [008] call       1   2   1  
50B2  5D000000           [009] getglobal  1   0        ; 1074689893
50B6  9DC00000           [010] getglobal  2   3        ; _T
50BA  8E004101           [011] gettable   2   2   260  ; "curTransmission"
50BE  62800001           [012] call       1   2   2  
50C2  58400000           [013] test       1       1    ; to [15] if false
50C6  1AC00180           [014] jmp        8            ; to [23]
50CA  53000000           [015] getupval   1   0      
50CE  4E40C100           [016] gettable   1   1   261  ; -697559211
50D2  9DC00000           [017] getglobal  2   3        ; _T
50D6  8E004101           [018] gettable   2   2   260  ; "curTransmission"
50DA  62400001           [019] call       1   2   1  
50DE  5DC00000           [020] getglobal  1   3        ; _T
50E2  8B000000           [021] newtable   2   0   0    ; array=0, hash=0
50E6  4C800083           [022] settable   1   262 2    ; "QueuedTransmissions"
50EA  5DC00100           [023] getglobal  1   7        ; UISys
50EE  4E00C200           [024] gettable   1   1   264  ; 1151030240
50F2  8B000000           [025] newtable   2   0   0    ; array=0, hash=0
50F6  DD400200           [026] getglobal  3   9        ; keyChainWRes
50FA  E480C201           [027] self       3   3   266  ; 455421500
50FE  E2000001           [028] call       3   2   0  
5102  9B400000           [029] setlist    2   0   1    ; index 1 to top
5106  D7008000           [030] loadbool   3   1   0    ; true
510A  62808001           [031] call       1   3   2  
510E  9DC00200           [032] getglobal  2   11       ; gRegion
5112  A4004301           [033] self       2   2   268  ; -1456226250
5116  A2800001           [034] call       2   2   2  
511A  8E404301           [035] gettable   2   2   269  ; "postProcess"
511E  8CC04387           [036] settable   2   270 271  ; "radialBlurStrength" 102
5122  99000400           [037] loadk      2   16       ; 0
fail op	21
5126  15404401           [038] concat     0   2   273
512A  1A800480           [039] jmp        19           ; to [59]
512E  DD800400           [040] getglobal  3   18       ; 538022378
5132  19010400           [041] loadk      4   16       ; 0
5136  E2400001           [042] call       3   2   1  
513A  DDC00400           [043] getglobal  3   19       ; 1668611480
513E  1D010500           [044] getglobal  4   20       ; 1289681407
5142  22818000           [045] call       4   1   2  
5146  1C414502           [046] div        4   4   277  ; 0
514A  03010101           [047] add        4   2   4  
514E  59010400           [048] loadk      5   16       ; 0
5152  99410400           [049] loadk      6   17       ; 0
5156  E2800002           [050] call       3   4   2  
515A  92008001           [051] move       2   3      
515E  DDC00200           [052] getglobal  3   11       ; gRegion
5162  E400C301           [053] self       3   3   268  ; -1456226250
5166  E2800001           [054] call       3   2   2  
516A  CE40C301           [055] gettable   3   3   269  ; "postProcess"
fail op	0
516E  00010001           [056] move       4   2      
5172  CC00018B           [057] settable   3   278 4    ; "fade"
5176  1A80FA7F           [058] jmp        -21          ; to [38]
517A  DD000000           [059] getglobal  3   0        ; 1074689893
517E  1D410000           [060] getglobal  4   1        ; gMatchingService
5182  E2800001           [061] call       3   2   2  
5186  D8400000           [062] test       3       1    ; to [64] if false
518A  1A400180           [063] jmp        6            ; to [70]
518E  DD400000           [064] getglobal  3   1        ; gMatchingService
5192  E4C0C501           [065] self       3   3   279  ; 903726717
5196  E2800001           [066] call       3   2   2  
fail op	21
519A  15C08088           [067] concat     0   273 3  
519E  1A000080           [068] jmp        1            ; to [70]
51A2  1E008000           [069] return     0   1      
51A6  DD800400           [070] getglobal  3   18       ; 538022378
51AA  19010400           [071] loadk      4   16       ; 0
51AE  E2400001           [072] call       3   2   1  
51B2  DD000000           [073] getglobal  3   0        ; 1074689893
51B6  12018000           [074] move       4   1      
51BA  E2800001           [075] call       3   2   2  
51BE  D8400000           [076] test       3       1    ; to [78] if false
51C2  1AC00180           [077] jmp        8            ; to [86]
51C6  E400C600           [078] self       3   1   280  ; -1344420604
51CA  E2800001           [079] call       3   2   2  
51CE  D8400000           [080] test       3       1    ; to [82] if false
51D2  1AC00080           [081] jmp        4            ; to [86]
51D6  DD800400           [082] getglobal  3   18       ; 538022378
51DA  19010400           [083] loadk      4   16       ; 0
51DE  E2400001           [084] call       3   2   1  
51E2  1A80FC7F           [085] jmp        -13          ; to [73]
51E6  DD400600           [086] getglobal  3   25       ; 2083004503
51EA  1D410200           [087] getglobal  4   9        ; keyChainWRes
51EE  E2800001           [088] call       3   2   2  
51F2  1D010000           [089] getglobal  4   0        ; 1074689893
51F6  52010000           [090] move       5   0      
51FA  22810001           [091] call       4   2   2  
51FE  18010000           [092] test       4       0    ; to [94] if true
5202  1A000080           [093] jmp        1            ; to [95]
5206  1E008000           [094] return     0   1      
520A  24814600           [095] self       4   0   282  ; 1865287165
520E  22810001           [096] call       4   2   2  
5212  57010000           [097] loadbool   5   0   0    ; false
5216  97010000           [098] loadbool   6   0   0    ; false
521A  E4C14602           [099] self       7   4   283  ; 1885757497
521E  E2810001           [100] call       7   2   2  
5222  19420400           [101] loadk      8   17       ; 0
5226  4A028003           [102] len        9   7      
522A  99420400           [103] loadk      10  17       ; 0
522E  10020280           [104] forprep    8   9        ; to [114]
5232  0EC38203           [105] gettable   12  7   11 
5236  0E034706           [106] gettable   12  12  284  ; "mItemType"
523A  5D430200           [107] getglobal  13  9        ; keyChainWRes
fail op	35
523E  23400306           [108] close      0  
5242  1AC00080           [109] jmp        4            ; to [114]
5246  57018000           [110] loadbool   5   1   0    ; true
524A  0EC38203           [111] gettable   12  7   11 
524E  8E414706           [112] gettable   6   12  285  ; "mCompleted"
5252  1A000080           [113] jmp        1            ; to [115]
5256  1442FD7F           [114] forloop    8   -10      ; to [105] if loop
525A  58410000           [115] test       5       1    ; to [117] if false
525E  1A800180           [116] jmp        7            ; to [124]
5262  13038000           [117] getupval   12  1      
5266  52030000           [118] move       13  0      
526A  92038001           [119] move       14  3      
526E  22438001           [120] call       12  3   1  
5272  1D830400           [121] getglobal  12  18       ; 538022378
5276  59030400           [122] loadk      13  16       ; 0
527A  22430001           [123] call       12  2   1  
527E  24834702           [124] self       12  4   286  ; 1388869707
5282  22830001           [125] call       12  2   2  
5286  5D430200           [126] getglobal  13  9        ; keyChainWRes
fail op	35
528A  63400306           [127] close      1  
528E  1AC00080           [128] jmp        4            ; to [133]
5292  13030001           [129] getupval   12  2      
5296  52030000           [130] move       13  0      
529A  92038001           [131] move       14  3      
529E  22438001           [132] call       12  3   1  
52A2  24C3C701           [133] self       12  3   287  ; 1814066247
52A6  22830001           [134] call       12  2   2  
52AA  0E434406           [135] gettable   12  12  273  ; 0
52AE  0E034806           [136] gettable   12  12  288  ; "mMainMission"
52B2  0E434806           [137] gettable   12  12  289  ; "mKey"
52B6  64834206           [138] self       13  12  266  ; 455421500
52BA  62830001           [139] call       13  2   2  
52BE  A4834806           [140] self       14  12  290  ; -1201441975
52C2  A2830001           [141] call       14  2   2  
52C6  E403C901           [142] self       15  3   292  ; -43212051
52CA  59040400           [143] loadk      17  16       ; 0
52CE  98010000           [144] test       6       0    ; to [146] if true
52D2  1A800080           [145] jmp        3            ; to [149]
52D6  99440400           [146] loadk      18  17       ; 0
52DA  98440000           [147] test       18      1    ; to [149] if false
52DE  1A000080           [148] jmp        1            ; to [150]
52E2  99040400           [149] loadk      18  16       ; 0
52E6  E2830002           [150] call       15  4   2  
52EA  8CC38391           [151] settable   14  291 15   ; "difficulty"
52EE  DD430200           [152] getglobal  15  9        ; keyChainWRes
52F2  8CC38392           [153] settable   14  293 15   ; "keyChainName"
52F6  DDC30900           [154] getglobal  15  39       ; 738251817
52FA  12048006           [155] move       16  13     
52FE  E2830001           [156] call       15  2   2  
5302  8CC30393           [157] settable   14  294 15   ; "levelKeyName"
5306  DDC30000           [158] getglobal  15  3        ; _T
530A  CC434A94           [159] settable   15  296 297  ; "StartingSoloMission" 1
530E  D3038001           [160] getupval   15  3      
5312  CE83CA07           [161] gettable   15  15  298  ; -806928904
5316  1DC40A00           [162] getglobal  16  43       ; -332969190
531A  52048006           [163] move       17  13     
531E  93040000           [164] getupval   18  0      
5322  8E044B09           [165] gettable   18  18  300  ; "KEY_TAG"
5326  42848408           [166] concat     17  17  18 
532A  22840001           [167] call       16  2   2  
532E  52040007           [168] move       17  14     
5332  8E844907           [169] gettable   18  14  294  ; "levelKeyName"
5336  E2430002           [170] call       15  4   1  
533A  1E008000           [171] return     0   1      
                         * constants:
533E  2D                 sizek (45)
533F  01                 const type 3
5340  65770E40           const [0]: (1074689893)
5344  04                 const type 4
5345  11                 string size (17)
5346  674D61746368696E+  "gMatchin"
534E  6753657276696365+  "gService"
5356  00                 "\0"
                         const [1]: "gMatchingService"
5357  01                 const type 3
5358  B41A6660           const [2]: (1617304244)
535C  04                 const type 4
535D  03                 string size (3)
535E  5F5400             "_T\0"
                         const [3]: "_T"
5361  04                 const type 4
5362  10                 string size (16)
5363  6375725472616E73+  "curTrans"
536B  6D697373696F6E00   "mission\0"
                         const [4]: "curTransmission"
5373  01                 const type 3
5374  55176CD6           const [5]: (-697559211)
5378  04                 const type 4
5379  14                 string size (20)
537A  5175657565645472+  "QueuedTr"
5382  616E736D69737369+  "ansmissi"
538A  6F6E7300           "ons\0"
                         const [6]: "QueuedTransmissions"
538E  04                 const type 4
538F  06                 string size (6)
5390  554953797300       "UISys\0"
                         const [7]: "UISys"
5396  01                 const type 3
5397  E0539B44           const [8]: (1151030240)
539B  04                 const type 4
539C  0D                 string size (13)
539D  6B6579436861696E+  "keyChain"
53A5  5752657300         "WRes\0"
                         const [9]: "keyChainWRes"
53AA  01                 const type 3
53AB  3C2E251B           const [10]: (455421500)
53AF  04                 const type 4
53B0  08                 string size (8)
53B1  67526567696F6E00   "gRegion\0"
                         const [11]: "gRegion"
53B9  01                 const type 3
53BA  36C033A9           const [12]: (-1456226250)
53BE  04                 const type 4
53BF  0C                 string size (12)
53C0  706F737450726F63+  "postProc"
53C8  65737300           "ess\0"
                         const [13]: "postProcess"
53CC  04                 const type 4
53CD  13                 string size (19)
53CE  72616469616C426C+  "radialBl"
53D6  7572537472656E67+  "urStreng"
53DE  746800             "th\0"
                         const [14]: "radialBlurStrength"
53E1  03                 const type 3
53E2  6666E63F           const [15]: (102)
53E6  03                 const type 3
53E7  00000000           const [16]: (0)
53EB  03                 const type 3
53EC  0000803F           const [17]: (0)
53F0  01                 const type 3
53F1  EA911120           const [18]: (538022378)
53F5  01                 const type 3
53F6  98FD7463           const [19]: (1668611480)
53FA  01                 const type 3
53FB  FFF9DE4C           const [20]: (1289681407)
53FF  03                 const type 3
5400  00004040           const [21]: (0)
5404  04                 const type 4
5405  05                 string size (5)
5406  6661646500         "fade\0"
                         const [22]: "fade"
540B  01                 const type 3
540C  7DC6DD35           const [23]: (903726717)
5410  01                 const type 3
5411  04C5DDAF           const [24]: (-1344420604)
5415  01                 const type 3
5416  5720287C           const [25]: (2083004503)
541A  01                 const type 3
541B  FD052E6F           const [26]: (1865287165)
541F  01                 const type 3
5420  39606670           const [27]: (1885757497)
5424  04                 const type 4
5425  0A                 string size (10)
5426  6D4974656D547970+  "mItemTyp"
542E  6500               "e\0"
                         const [28]: "mItemType"
5430  04                 const type 4
5431  0B                 string size (11)
5432  6D436F6D706C6574+  "mComplet"
543A  656400             "ed\0"
                         const [29]: "mCompleted"
543D  01                 const type 3
543E  4B78C852           const [30]: (1388869707)
5442  01                 const type 3
5443  4774206C           const [31]: (1814066247)
5447  04                 const type 4
5448  0D                 string size (13)
5449  6D4D61696E4D6973+  "mMainMis"
5451  73696F6E00         "sion\0"
                         const [32]: "mMainMission"
5456  04                 const type 4
5457  05                 string size (5)
5458  6D4B657900         "mKey\0"
                         const [33]: "mKey"
545D  01                 const type 3
545E  497363B8           const [34]: (-1201441975)
5462  04                 const type 4
5463  0B                 string size (11)
5464  646966666963756C+  "difficul"
546C  747900             "ty\0"
                         const [35]: "difficulty"
546F  01                 const type 3
5470  EDA26CFD           const [36]: (-43212051)
5474  04                 const type 4
5475  0D                 string size (13)
5476  6B6579436861696E+  "keyChain"
547E  4E616D6500         "Name\0"
                         const [37]: "keyChainName"
5483  04                 const type 4
5484  0D                 string size (13)
5485  6C6576656C4B6579+  "levelKey"
548D  4E616D6500         "Name\0"
                         const [38]: "levelKeyName"
5492  01                 const type 3
5493  29D4002C           const [39]: (738251817)
5497  04                 const type 4
5498  14                 string size (20)
5499  5374617274696E67+  "Starting"
54A1  536F6C6F4D697373+  "SoloMiss"
54A9  696F6E00           "ion\0"
                         const [40]: "StartingSoloMission"
54AD  01                 const type 3
54AE  01000000           const [41]: (1)
54B2  01                 const type 3
54B3  F83DE7CF           const [42]: (-806928904)
54B7  01                 const type 3
54B8  1A4B27EC           const [43]: (-332969190)
54BC  04                 const type 4
54BD  08                 string size (8)
54BE  4B45595F54414700   "KEY_TAG\0"
                         const [44]: "KEY_TAG"
                         * functions:
54C6  00                 sizep (0)
                         * lines:
54C8  01                 sizelineinfo (171)
                         [pc] (line)
54C9  19                 [001] (25)
54CA  03                 [002] (25)
54CB  00                 [003] (25)
54CC  00                 [004] (25)
54CD  19                 [005] (25)
54CE  03                 [006] (26)
54CF  00                 [007] (26)
54D0  00                 [008] (26)
54D1  19                 [009] (29)
54D2  03                 [010] (29)
54D3  00                 [011] (29)
54D4  00                 [012] (29)
54D5  19                 [013] (29)
54D6  03                 [014] (29)
54D7  00                 [015] (30)
54D8  00                 [016] (30)
54D9  19                 [017] (30)
54DA  03                 [018] (30)
54DB  00                 [019] (30)
54DC  00                 [020] (31)
54DD  1A                 [021] (31)
54DE  03                 [022] (31)
54DF  00                 [023] (34)
54E0  00                 [024] (34)
54E1  1A                 [025] (34)
54E2  03                 [026] (34)
54E3  00                 [027] (34)
54E4  00                 [028] (34)
54E5  1A                 [029] (34)
54E6  03                 [030] (34)
54E7  00                 [031] (34)
54E8  00                 [032] (36)
54E9  1D                 [033] (36)
54EA  03                 [034] (36)
54EB  00                 [035] (36)
54EC  00                 [036] (36)
54ED  1D                 [037] (37)
54EE  03                 [038] (38)
54EF  00                 [039] (38)
54F0  00                 [040] (39)
54F1  1D                 [041] (39)
54F2  03                 [042] (39)
54F3  00                 [043] (40)
54F4  00                 [044] (40)
54F5  1D                 [045] (40)
54F6  03                 [046] (40)
54F7  00                 [047] (40)
54F8  00                 [048] (40)
54F9  1D                 [049] (40)
54FA  03                 [050] (40)
54FB  00                 [051] (40)
54FC  00                 [052] (41)
54FD  1D                 [053] (41)
54FE  03                 [054] (41)
54FF  00                 [055] (41)
5500  00                 [056] (41)
5501  1E                 [057] (41)
5502  03                 [058] (41)
5503  00                 [059] (44)
5504  00                 [060] (44)
5505  1E                 [061] (44)
5506  03                 [062] (44)
5507  00                 [063] (44)
5508  00                 [064] (44)
5509  1E                 [065] (44)
550A  03                 [066] (44)
550B  00                 [067] (44)
550C  00                 [068] (44)
550D  1E                 [069] (45)
550E  03                 [070] (47)
550F  00                 [071] (47)
5510  00                 [072] (47)
5511  1E                 [073] (49)
5512  03                 [074] (49)
5513  00                 [075] (49)
5514  00                 [076] (49)
5515  1F                 [077] (49)
5516  03                 [078] (49)
5517  00                 [079] (49)
5518  00                 [080] (49)
5519  1F                 [081] (49)
551A  03                 [082] (50)
551B  00                 [083] (50)
551C  00                 [084] (50)
551D  1F                 [085] (50)
551E  03                 [086] (52)
551F  00                 [087] (52)
5520  00                 [088] (52)
5521  22                 [089] (54)
5522  03                 [090] (54)
5523  00                 [091] (54)
5524  00                 [092] (54)
5525  22                 [093] (54)
5526  03                 [094] (55)
5527  00                 [095] (58)
5528  00                 [096] (58)
5529  22                 [097] (59)
552A  03                 [098] (60)
552B  00                 [099] (61)
552C  00                 [100] (61)
552D  22                 [101] (62)
552E  03                 [102] (62)
552F  00                 [103] (62)
5530  00                 [104] (62)
5531  22                 [105] (63)
5532  03                 [106] (63)
5533  00                 [107] (63)
5534  00                 [108] (63)
5535  22                 [109] (63)
5536  03                 [110] (64)
5537  00                 [111] (65)
5538  00                 [112] (65)
5539  22                 [113] (66)
553A  03                 [114] (62)
553B  00                 [115] (70)
553C  00                 [116] (70)
553D  22                 [117] (71)
553E  03                 [118] (71)
553F  00                 [119] (71)
5540  00                 [120] (71)
5541  22                 [121] (72)
5542  03                 [122] (72)
5543  00                 [123] (72)
5544  00                 [124] (75)
5545  24                 [125] (75)
5546  03                 [126] (75)
5547  00                 [127] (75)
5548  00                 [128] (75)
5549  24                 [129] (76)
554A  03                 [130] (76)
554B  00                 [131] (76)
554C  00                 [132] (76)
554D  24                 [133] (79)
554E  03                 [134] (79)
554F  00                 [135] (79)
5550  00                 [136] (79)
5551  24                 [137] (79)
5552  03                 [138] (80)
5553  00                 [139] (80)
5554  00                 [140] (81)
5555  24                 [141] (81)
5556  03                 [142] (82)
5557  00                 [143] (82)
5558  00                 [144] (82)
5559  25                 [145] (82)
555A  03                 [146] (82)
555B  00                 [147] (82)
555C  00                 [148] (82)
555D  26                 [149] (82)
555E  03                 [150] (82)
555F  00                 [151] (82)
5560  00                 [152] (83)
5561  26                 [153] (83)
5562  03                 [154] (84)
5563  00                 [155] (84)
5564  00                 [156] (84)
5565  27                 [157] (84)
5566  03                 [158] (86)
5567  00                 [159] (86)
5568  00                 [160] (88)
5569  27                 [161] (88)
556A  03                 [162] (88)
556B  00                 [163] (88)
556C  00                 [164] (88)
556D  27                 [165] (88)
556E  03                 [166] (88)
556F  00                 [167] (88)
5570  00                 [168] (88)
5571  28                 [169] (88)
5572  03                 [170] (88)
5573  00                 [171] (89)
                         * locals:
5775  00                 sizelocvars (0)
                         * upvalues:
5776  00                 sizeupvalues (0)
                         ** end of function **

                         
5777                     ** function [17] definition (level 2)
                         ** start of function **
5777  00                 string size (0)
                         source name: (none)
5779  06                 line defined (859)
577A  88                 last line defined (904)
577B  07                 nups (1)
577C  01                 numparams (0)
577D  00                 is_vararg (0)
577E  00                 maxstacksize (6)
                         * code:
5780  76                 sizecode (118)
5781  1D000000           [001] getglobal  0   0        ; 1074689893
5785  5D400000           [002] getglobal  1   1        ; _T
5789  4E80C000           [003] gettable   1   1   258  ; "curTransmission"
578D  22800001           [004] call       0   2   2  
5791  18400000           [005] test       0       1    ; to [7] if false
5795  1AC00180           [006] jmp        8            ; to [15]
5799  13000000           [007] getupval   0   0      
579D  0EC04000           [008] gettable   0   0   259  ; -697559211
57A1  5D400000           [009] getglobal  1   1        ; _T
57A5  4E80C000           [010] gettable   1   1   258  ; "curTransmission"
57A9  22400001           [011] call       0   2   1  
57AD  1D400000           [012] getglobal  0   1        ; _T
57B1  4B000000           [013] newtable   1   0   0    ; array=0, hash=0
57B5  0C400082           [014] settable   0   260 1    ; "QueuedTransmissions"
57B9  1D400000           [015] getglobal  0   1        ; _T
57BD  0C80C182           [016] settable   0   261 262  ; "pauseTransmissions" 1
57C1  1DC00100           [017] getglobal  0   7        ; 538022378
57C5  59000200           [018] loadk      1   8        ; 0
57C9  22400001           [019] call       0   2   1  
57CD  1D400200           [020] getglobal  0   9        ; gFlashMgr
57D1  24804200           [021] self       0   0   266  ; 1634586770
57D5  9DC00200           [022] getglobal  2   11       ; 738251817
57D9  D9000300           [023] loadk      3   12       ; "/Lotus/Interface/Background.swf"
57DD  A2000001           [024] call       2   2   0  
57E1  22800000           [025] call       0   0   2  
57E5  5D000000           [026] getglobal  1   0        ; 1074689893
57E9  92000000           [027] move       2   0      
57ED  62800001           [028] call       1   2   2  
57F1  58000000           [029] test       1       0    ; to [31] if true
57F5  1A000080           [030] jmp        1            ; to [32]
57F9  1E008000           [031] return     0   1      
57FD  64404300           [032] self       1   0   269  ; 1167009705
5801  D9800300           [033] loadk      3   14       ; "QuestCompleted"
5805  1DC10300           [034] getglobal  4   15       ; keyChainWRes
5809  24014402           [035] self       4   4   272  ; 455421500
580D  22010001           [036] call       4   2   0  
5811  62400000           [037] call       1   0   1  
5815  5D400000           [038] getglobal  1   1        ; _T
5819  4C80C488           [039] settable   1   273 274  ; "BlockTransmissionsFromSender" "/Lotus/Language/Bosses/Lotus"
581D  5D400200           [040] getglobal  1   9        ; gFlashMgr
5821  64C0C400           [041] self       1   1   275  ; -872305030
5825  DD000500           [042] getglobal  3   20       ; _G
5829  CE40C501           [043] gettable   3   3   277  ; "UIMovie_EndOfQuestMovie"
582D  62808001           [044] call       1   3   2  
5831  58400000           [045] test       1       1    ; to [47] if false
5835  1AC00080           [046] jmp        4            ; to [51]
5839  5DC00100           [047] getglobal  1   7        ; 538022378
583D  99800500           [048] loadk      2   22       ; 0
5841  62400001           [049] call       1   2   1  
5845  1A00FD7F           [050] jmp        -11          ; to [40]
5849  5D400200           [051] getglobal  1   9        ; gFlashMgr
584D  64C0C400           [052] self       1   1   275  ; -872305030
5851  DD000500           [053] getglobal  3   20       ; _G
5855  CE40C501           [054] gettable   3   3   277  ; "UIMovie_EndOfQuestMovie"
5859  62808001           [055] call       1   3   2  
585D  58000000           [056] test       1       0    ; to [58] if true
5861  1AC00080           [057] jmp        4            ; to [62]
5865  5DC00100           [058] getglobal  1   7        ; 538022378
5869  99800500           [059] loadk      2   22       ; 0
586D  62400001           [060] call       1   2   1  
5871  1A00FD7F           [061] jmp        -11          ; to [51]
5875  5DC00100           [062] getglobal  1   7        ; 538022378
5879  99C00500           [063] loadk      2   23       ; 0
587D  62400001           [064] call       1   2   1  
5881  5D400000           [065] getglobal  1   1        ; _T
5885  4C00C682           [066] settable   1   261 280  ; "pauseTransmissions" nil
5889  5D000000           [067] getglobal  1   0        ; 1074689893
588D  9D400000           [068] getglobal  2   1        ; _T
5891  8E804001           [069] gettable   2   2   258  ; "curTransmission"
5895  62800001           [070] call       1   2   2  
5899  58400000           [071] test       1       1    ; to [73] if false
589D  1A800280           [072] jmp        11           ; to [84]
58A1  53000000           [073] getupval   1   0      
58A5  4EC0C000           [074] gettable   1   1   259  ; -697559211
58A9  9D400000           [075] getglobal  2   1        ; _T
58AD  8E804001           [076] gettable   2   2   258  ; "curTransmission"
58B1  62400001           [077] call       1   2   1  
58B5  5D400000           [078] getglobal  1   1        ; _T
58B9  8B000000           [079] newtable   2   0   0    ; array=0, hash=0
58BD  4C800082           [080] settable   1   260 2    ; "QueuedTransmissions"
58C1  5DC00100           [081] getglobal  1   7        ; 538022378
58C5  99800500           [082] loadk      2   22       ; 0
58C9  62400001           [083] call       1   2   1  
58CD  53000000           [084] getupval   1   0      
58D1  4E40C600           [085] gettable   1   1   281  ; 910246418
58D5  9D800600           [086] getglobal  2   26       ; apostasyTransmissionSet
58D9  A4C04601           [087] self       2   2   283  ; -781703361
58DD  1D010700           [088] getglobal  4   28       ; -332969190
58E1  59410700           [089] loadk      5   29       ; "OrdisLotusMissing"
58E5  22010001           [090] call       4   2   0  
58E9  A2000000           [091] call       2   0   0  
58ED  62400000           [092] call       1   0   1  
58F1  5D000000           [093] getglobal  1   0        ; 1074689893
58F5  9D400000           [094] getglobal  2   1        ; _T
58F9  8E804001           [095] gettable   2   2   258  ; "curTransmission"
58FD  62800001           [096] call       1   2   2  
5901  58000000           [097] test       1       0    ; to [99] if true
5905  1AC00080           [098] jmp        4            ; to [103]
5909  5DC00100           [099] getglobal  1   7        ; 538022378
590D  99800500           [100] loadk      2   22       ; 0
5911  62400001           [101] call       1   2   1  
5915  1A40FD7F           [102] jmp        -10          ; to [93]
5919  5D000000           [103] getglobal  1   0        ; 1074689893
591D  9D400000           [104] getglobal  2   1        ; _T
5921  8E804001           [105] gettable   2   2   258  ; "curTransmission"
5925  62800001           [106] call       1   2   2  
5929  58400000           [107] test       1       1    ; to [109] if false
592D  1AC00080           [108] jmp        4            ; to [113]
5931  5DC00100           [109] getglobal  1   7        ; 538022378
5935  99800500           [110] loadk      2   22       ; 0
5939  62400001           [111] call       1   2   1  
593D  1A40FD7F           [112] jmp        -10          ; to [103]
5941  5DC00100           [113] getglobal  1   7        ; 538022378
5945  99800700           [114] loadk      2   30       ; 0
5949  62400001           [115] call       1   2   1  
594D  5D400000           [116] getglobal  1   1        ; _T
5951  4C00C688           [117] settable   1   273 280  ; "BlockTransmissionsFromSender" nil
5955  1E008000           [118] return     0   1      
                         * constants:
5959  1F                 sizek (31)
595A  01                 const type 3
595B  65770E40           const [0]: (1074689893)
595F  04                 const type 4
5960  03                 string size (3)
5961  5F5400             "_T\0"
                         const [1]: "_T"
5964  04                 const type 4
5965  10                 string size (16)
5966  6375725472616E73+  "curTrans"
596E  6D697373696F6E00   "mission\0"
                         const [2]: "curTransmission"
5976  01                 const type 3
5977  55176CD6           const [3]: (-697559211)
597B  04                 const type 4
597C  14                 string size (20)
597D  5175657565645472+  "QueuedTr"
5985  616E736D69737369+  "ansmissi"
598D  6F6E7300           "ons\0"
                         const [4]: "QueuedTransmissions"
5991  04                 const type 4
5992  13                 string size (19)
5993  7061757365547261+  "pauseTra"
599B  6E736D697373696F+  "nsmissio"
59A3  6E7300             "ns\0"
                         const [5]: "pauseTransmissions"
59A6  01                 const type 3
59A7  01000000           const [6]: (1)
59AB  01                 const type 3
59AC  EA911120           const [7]: (538022378)
59B0  03                 const type 3
59B1  00002040           const [8]: (0)
59B5  04                 const type 4
59B6  0A                 string size (10)
59B7  67466C6173684D67+  "gFlashMg"
59BF  7200               "r\0"
                         const [9]: "gFlashMgr"
59C1  01                 const type 3
59C2  92D06D61           const [10]: (1634586770)
59C6  01                 const type 3
59C7  29D4002C           const [11]: (738251817)
59CB  04                 const type 4
59CC  20                 string size (32)
59CD  2F4C6F7475732F49+  "/Lotus/I"
59D5  6E74657266616365+  "nterface"
59DD  2F4261636B67726F+  "/Backgro"
59E5  756E642E73776600   "und.swf\0"
                         const [12]: "/Lotus/Interface/Background.swf"
59ED  01                 const type 3
59EE  A9278F45           const [13]: (1167009705)
59F2  04                 const type 4
59F3  0F                 string size (15)
59F4  5175657374436F6D+  "QuestCom"
59FC  706C6574656400     "pleted\0"
                         const [14]: "QuestCompleted"
5A03  04                 const type 4
5A04  0D                 string size (13)
5A05  6B6579436861696E+  "keyChain"
5A0D  5752657300         "WRes\0"
                         const [15]: "keyChainWRes"
5A12  01                 const type 3
5A13  3C2E251B           const [16]: (455421500)
5A17  04                 const type 4
5A18  1D                 string size (29)
5A19  426C6F636B547261+  "BlockTra"
5A21  6E736D697373696F+  "nsmissio"
5A29  6E7346726F6D5365+  "nsFromSe"
5A31  6E64657200         "nder\0"
                         const [17]: "BlockTransmissionsFromSender"
5A36  04                 const type 4
5A37  1D                 string size (29)
5A38  2F4C6F7475732F4C+  "/Lotus/L"
5A40  616E67756167652F+  "anguage/"
5A48  426F737365732F4C+  "Bosses/L"
5A50  6F74757300         "otus\0"
                         const [18]: "/Lotus/Language/Bosses/Lotus"
5A55  01                 const type 3
5A56  7AAE01CC           const [19]: (-872305030)
5A5A  04                 const type 4
5A5B  03                 string size (3)
5A5C  5F4700             "_G\0"
                         const [20]: "_G"
5A5F  04                 const type 4
5A60  18                 string size (24)
5A61  55494D6F7669655F+  "UIMovie_"
5A69  456E644F66517565+  "EndOfQue"
5A71  73744D6F76696500   "stMovie\0"
                         const [21]: "UIMovie_EndOfQuestMovie"
5A79  03                 const type 3
5A7A  00000000           const [22]: (0)
5A7E  03                 const type 3
5A7F  0000803F           const [23]: (0)
5A83  00                 const type 0
                         const [24]: nil
5A84  01                 const type 3
5A85  12424136           const [25]: (910246418)
5A89  04                 const type 4
5A8A  18                 string size (24)
5A8B  61706F7374617379+  "apostasy"
5A93  5472616E736D6973+  "Transmis"
5A9B  73696F6E53657400   "sionSet\0"
                         const [26]: "apostasyTransmissionSet"
5AA3  01                 const type 3
5AA4  3F2768D1           const [27]: (-781703361)
5AA8  01                 const type 3
5AA9  1A4B27EC           const [28]: (-332969190)
5AAD  04                 const type 4
5AAE  12                 string size (18)
5AAF  4F726469734C6F74+  "OrdisLot"
5AB7  75734D697373696E+  "usMissin"
5ABF  6700               "g\0"
                         const [29]: "OrdisLotusMissing"
5AC1  03                 const type 3
5AC2  00004040           const [30]: (0)
                         * functions:
5AC6  00                 sizep (0)
                         * lines:
5AC7  76                 sizelineinfo (118)
                         [pc] (line)
5AC8  5C                 [001] (92)
5AC9  03                 [002] (92)
5ACA  00                 [003] (92)
5ACB  00                 [004] (92)
5ACC  5C                 [005] (92)
5ACD  03                 [006] (92)
5ACE  00                 [007] (93)
5ACF  00                 [008] (93)
5AD0  5C                 [009] (93)
5AD1  03                 [010] (93)
5AD2  00                 [011] (93)
5AD3  00                 [012] (94)
5AD4  5C                 [013] (94)
5AD5  03                 [014] (94)
5AD6  00                 [015] (97)
5AD7  00                 [016] (97)
5AD8  5C                 [017] (98)
5AD9  03                 [018] (98)
5ADA  00                 [019] (98)
5ADB  00                 [020] (100)
5ADC  5C                 [021] (100)
5ADD  03                 [022] (100)
5ADE  00                 [023] (100)
5ADF  00                 [024] (100)
5AE0  5D                 [025] (100)
5AE1  03                 [026] (101)
5AE2  00                 [027] (101)
5AE3  00                 [028] (101)
5AE4  5D                 [029] (101)
5AE5  03                 [030] (101)
5AE6  00                 [031] (102)
5AE7  00                 [032] (104)
5AE8  5D                 [033] (104)
5AE9  03                 [034] (104)
5AEA  00                 [035] (104)
5AEB  00                 [036] (104)
5AEC  5D                 [037] (104)
5AED  03                 [038] (105)
5AEE  00                 [039] (105)
5AEF  00                 [040] (107)
5AF0  5D                 [041] (107)
5AF1  03                 [042] (107)
5AF2  00                 [043] (107)
5AF3  00                 [044] (107)
5AF4  5E                 [045] (107)
5AF5  03                 [046] (107)
5AF6  00                 [047] (108)
5AF7  00                 [048] (108)
5AF8  5E                 [049] (108)
5AF9  03                 [050] (108)
5AFA  00                 [051] (110)
5AFB  00                 [052] (110)
5AFC  5E                 [053] (110)
5AFD  03                 [054] (110)
5AFE  00                 [055] (110)
5AFF  00                 [056] (110)
5B00  61                 [057] (110)
5B01  03                 [058] (111)
5B02  00                 [059] (111)
5B03  00                 [060] (111)
5B04  61                 [061] (111)
5B05  03                 [062] (114)
5B06  00                 [063] (114)
5B07  00                 [064] (114)
5B08  62                 [065] (116)
5B09  03                 [066] (116)
5B0A  00                 [067] (118)
5B0B  00                 [068] (118)
5B0C  62                 [069] (118)
5B0D  03                 [070] (118)
5B0E  00                 [071] (118)
5B0F  00                 [072] (118)
5B10  62                 [073] (119)
5B11  03                 [074] (119)
5B12  00                 [075] (119)
5B13  00                 [076] (119)
5B14  64                 [077] (119)
5B15  03                 [078] (120)
5B16  00                 [079] (120)
5B17  00                 [080] (120)
5B18  64                 [081] (121)
5B19  03                 [082] (121)
5B1A  00                 [083] (121)
5B1B  00                 [084] (124)
5B1C  64                 [085] (124)
5B1D  03                 [086] (124)
5B1E  00                 [087] (124)
5B1F  00                 [088] (124)
5B20  64                 [089] (124)
5B21  03                 [090] (124)
5B22  00                 [091] (124)
5B23  00                 [092] (124)
5B24  64                 [093] (126)
5B25  03                 [094] (126)
5B26  00                 [095] (126)
5B27  00                 [096] (126)
5B28  64                 [097] (126)
5B29  03                 [098] (126)
5B2A  00                 [099] (127)
5B2B  00                 [100] (127)
5B2C  65                 [101] (127)
5B2D  03                 [102] (127)
5B2E  00                 [103] (-127)
5B2F  00                 [104] (-127)
5B30  65                 [105] (-127)
5B31  03                 [106] (-127)
5B32  00                 [107] (-127)
5B33  00                 [108] (-127)
5B34  65                 [109] (-126)
5B35  03                 [110] (-126)
5B36  00                 [111] (-126)
5B37  00                 [112] (-126)
5B38  65                 [113] (-123)
5B39  03                 [114] (-123)
5B3A  00                 [115] (-123)
5B3B  00                 [116] (-121)
5B3C  65                 [117] (-121)
5B3D  03                 [118] (-120)
                         * locals:
5CA0  00                 sizelocvars (0)
                         * upvalues:
5CA1  00                 sizeupvalues (0)
                         ** end of function **

                         
5CA2                     ** function [18] definition (level 2)
                         ** start of function **
5CA2  00                 string size (0)
                         source name: (none)
5CA4  07                 line defined (906)
5CA5  C4                 last line defined (1092)
5CA6  08                 nups (6)
5CA7  06                 numparams (1)
5CA8  01                 is_vararg (0)
5CA9  00                 maxstacksize (48)
                         * code:
5CAC  03                 sizecode (440)
5CAD  5D000000           [001] getglobal  1   0        ; 538022378
5CB1  99400000           [002] loadk      2   1        ; 0
5CB5  62400001           [003] call       1   2   1  
5CB9  5D800000           [004] getglobal  1   2        ; _G
5CBD  4EC0C000           [005] gettable   1   1   259  ; "ApostasyJustCompleted"
5CC1  58000000           [006] test       1       0    ; to [8] if true
5CC5  1A800280           [007] jmp        11           ; to [19]
5CC9  5D800000           [008] getglobal  1   2        ; _G
5CCD  4C00C181           [009] settable   1   259 260  ; "ApostasyJustCompleted" nil
5CD1  5D400100           [010] getglobal  1   5        ; gRegion
5CD5  6480C100           [011] self       1   1   262  ; 65205951
5CD9  62800001           [012] call       1   2   2  
5CDD  64C0C100           [013] self       1   1   263  ; -1302048094
5CE1  DD000200           [014] getglobal  3   8        ; -332969190
5CE5  19C10000           [015] loadk      4   3        ; "ApostasyJustCompleted"
5CE9  E2800001           [016] call       3   2   2  
5CED  17010000           [017] loadbool   4   0   0    ; false
5CF1  62400002           [018] call       1   4   1  
5CF5  5D400100           [019] getglobal  1   5        ; gRegion
5CF9  6440C200           [020] self       1   1   265  ; -1485896174
5CFD  DD000200           [021] getglobal  3   8        ; -332969190
5D01  19810200           [022] loadk      4   10       ; "LotusHelmet"
5D05  E2000001           [023] call       3   2   0  
5D09  62800000           [024] call       1   0   2  
5D0D  A5000000           [025] closure    2   0      
5D11  12008000           [026] move       0   1      
5D15  E4C04200           [027] self       3   0   267  ; -1625438872
5D19  5D010300           [028] getglobal  5   12       ; gSequencerType
5D1D  E2808001           [029] call       3   3   2  
5D21  24C14200           [030] self       4   0   267  ; -1625438872
5D25  9D410300           [031] getglobal  6   13       ; gDecorationType
5D29  22818001           [032] call       4   3   2  
5D2D  5D410100           [033] getglobal  5   5        ; gRegion
5D31  6481C302           [034] self       5   5   270  ; -1084394954
5D35  D3010000           [035] getupval   7   0      
5D39  24C24300           [036] self       8   0   271  ; 1839670529
5D3D  22820001           [037] call       8   2   2  
5D41  59020400           [038] loadk      9   16       ; 0
5D45  86028005           [039] loadnil    10  11     
5D49  62818003           [040] call       5   7   2  
5D4D  A5410000           [041] closure    6   1      
5D51  12000000           [042] move       0   0      
5D55  12008001           [043] move       0   3      
5D59  12000002           [044] move       0   4      
5D5D  12008002           [045] move       0   5      
5D61  D2010001           [046] move       7   2      
5D65  17020000           [047] loadbool   8   0   0    ; false
5D69  E2410001           [048] call       7   2   1  
5D6D  D2010003           [049] move       7   6      
5D71  17020000           [050] loadbool   8   0   0    ; false
5D75  E2410001           [051] call       7   2   1  
5D79  DD410100           [052] getglobal  7   5        ; gRegion
5D7D  E441C403           [053] self       7   7   273  ; -1520831144
5D81  E2810001           [054] call       7   2   2  
5D85  D8410000           [055] test       7       1    ; to [57] if false
5D89  1A000080           [056] jmp        1            ; to [58]
5D8D  1E008000           [057] return     0   1      
5D91  DD810400           [058] getglobal  7   18       ; _T
5D95  CEC1C403           [059] gettable   7   7   275  ; "syncingInventory"
fail op	35
5D99  6300C103           [060] close      1  
5D9D  1AC00080           [061] jmp        4            ; to [66]
5DA1  DD810400           [062] getglobal  7   18       ; _T
5DA5  CEC1C403           [063] gettable   7   7   275  ; "syncingInventory"
fail op	35
5DA9  2300C503           [064] close      0  
5DAD  1AC00080           [065] jmp        4            ; to [70]
5DB1  DD010000           [066] getglobal  7   0        ; 538022378
5DB5  19420500           [067] loadk      8   21       ; 0
5DB9  E2410001           [068] call       7   2   1  
5DBD  1AC0FC7F           [069] jmp        -12          ; to [58]
5DC1  DD810500           [070] getglobal  7   22       ; gPlayerProfileMgr
5DC5  E4C1C503           [071] self       7   7   279  ; 569342746
5DC9  59420500           [072] loadk      9   21       ; 0
5DCD  E2818001           [073] call       7   3   2  
5DD1  1D020600           [074] getglobal  8   24       ; 1074689893
5DD5  52028003           [075] move       9   7      
5DD9  22820001           [076] call       8   2   2  
5DDD  18020000           [077] test       8       0    ; to [79] if true
5DE1  1A000280           [078] jmp        9            ; to [88]
5DE5  1D020000           [079] getglobal  8   0        ; 538022378
5DE9  59420500           [080] loadk      9   21       ; 0
5DED  22420001           [081] call       8   2   1  
5DF1  1D820500           [082] getglobal  8   22       ; gPlayerProfileMgr
5DF5  24C24504           [083] self       8   8   279  ; 569342746
5DF9  99420500           [084] loadk      10  21       ; 0
5DFD  22828001           [085] call       8   3   2  
5E01  D2010004           [086] move       7   8      
5E05  1A40FC7F           [087] jmp        -14          ; to [74]
5E09  2442C603           [088] self       8   7   281  ; 1699680402
5E0D  22820001           [089] call       8   2   2  
5E11  5D020600           [090] getglobal  9   24       ; 1074689893
5E15  92020004           [091] move       10  8      
5E19  62820001           [092] call       9   2   2  
5E1D  58020000           [093] test       9       0    ; to [95] if true
5E21  1A800180           [094] jmp        7            ; to [102]
5E25  5D020000           [095] getglobal  9   0        ; 538022378
5E29  99420500           [096] loadk      10  21       ; 0
5E2D  62420001           [097] call       9   2   1  
5E31  6442C603           [098] self       9   7   281  ; 1699680402
5E35  62820001           [099] call       9   2   2  
5E39  12028004           [100] move       8   9      
5E3D  1AC0FC7F           [101] jmp        -12          ; to [90]
5E41  64824604           [102] self       9   8   282  ; 1865287165
5E45  62820001           [103] call       9   2   2  
5E49  9D020600           [104] getglobal  10  24       ; 1074689893
5E4D  D2028004           [105] move       11  9      
5E51  A2820001           [106] call       10  2   2  
5E55  98020000           [107] test       10      0    ; to [109] if true
5E59  1A800180           [108] jmp        7            ; to [116]
5E5D  9D020000           [109] getglobal  10  0        ; 538022378
5E61  D9420500           [110] loadk      11  21       ; 0
5E65  A2420001           [111] call       10  2   1  
5E69  A4824604           [112] self       10  8   282  ; 1865287165
5E6D  A2820001           [113] call       10  2   2  
5E71  52020005           [114] move       9   10     
5E75  1AC0FC7F           [115] jmp        -12          ; to [104]
5E79  97020000           [116] loadbool   10  0   0    ; false
5E7D  D7020000           [117] loadbool   11  0   0    ; false
5E81  17030000           [118] loadbool   12  0   0    ; false
5E85  57030000           [119] loadbool   13  0   0    ; false
5E89  97030000           [120] loadbool   14  0   0    ; false
5E8D  E4C3C604           [121] self       15  9   283  ; 1885757497
5E91  E2830001           [122] call       15  2   2  
5E95  19040700           [123] loadk      16  28       ; 0
5E99  4A048007           [124] len        17  15     
5E9D  99040700           [125] loadk      18  28       ; 0
5EA1  10840780           [126] forprep    16  31       ; to [158]
5EA5  0EC58407           [127] gettable   20  15  19 
5EA9  4E45470A           [128] gettable   21  20  285  ; "mItemType"
5EAD  9D850700           [129] getglobal  22  30       ; keyChainWRes
fail op	35
5EB1  2380850A           [130] close      0  
5EB5  1AC00280           [131] jmp        12           ; to [144]
5EB9  D7028000           [132] loadbool   11  1   0    ; true
5EBD  8EC5470A           [133] gettable   22  20  287  ; "mProgress"
fail op	5
5EC1  8503000B           [134] getglobal  14  11264    ; nil
5EC5  1A800180           [135] jmp        7            ; to [143]
5EC9  8EC5470A           [136] gettable   22  20  287  ; "mProgress"
5ECD  8E05470B           [137] gettable   22  22  284  ; 0
5ED1  8E05480B           [138] gettable   22  22  288  ; "mCompletion"
fail op	33
5ED5  6180858A           [139] tforloop   1       22   ; to [141] if exit
5ED9  1A000080           [140] jmp        1            ; to [142]
5EDD  97430000           [141] loadbool   14  0   1    ; false, to [143]
5EE1  97038000           [142] loadbool   14  1   0    ; true
5EE5  1A400380           [143] jmp        14           ; to [158]
5EE9  93058000           [144] getupval   22  1      
fail op	35
5EED  2380850A           [145] close      0  
5EF1  1A400080           [146] jmp        2            ; to [149]
5EF5  8E42480A           [147] gettable   10  20  289  ; "mCompleted"
5EF9  1A000280           [148] jmp        9            ; to [158]
5EFD  93050001           [149] getupval   22  2      
fail op	35
5F01  2380850A           [150] close      0  
5F05  1A400080           [151] jmp        2            ; to [154]
5F09  0E43480A           [152] gettable   12  20  289  ; "mCompleted"
5F0D  1AC00080           [153] jmp        4            ; to [158]
5F11  93058001           [154] getupval   22  3      
fail op	35
5F15  2380850A           [155] close      0  
5F19  1A000080           [156] jmp        1            ; to [158]
5F1D  57038000           [157] loadbool   13  1   0    ; true
5F21  14C4F77F           [158] forloop    16  -32      ; to [127] if loop
5F25  98420000           [159] test       10      1    ; to [161] if false
5F29  1A000080           [160] jmp        1            ; to [162]
5F2D  1E008000           [161] return     0   1      
5F31  18030000           [162] test       12      0    ; to [164] if true
5F35  1AC02380           [163] jmp        144          ; to [308]
5F39  A4854604           [164] self       22  8   282  ; 1865287165
5F3D  A2850001           [165] call       22  2   2  
5F41  A485480B           [166] self       22  22  290  ; 1388869707
5F45  A2850001           [167] call       22  2   2  
5F49  D9C50800           [168] loadk      23  35       ; 0
5F4D  1D060600           [169] getglobal  24  24       ; 1074689893
5F51  5206000B           [170] move       25  22     
5F55  22860001           [171] call       24  2   2  
5F59  18460000           [172] test       24      1    ; to [174] if false
5F5D  1AC00780           [173] jmp        32           ; to [206]
5F61  1D060900           [174] getglobal  24  36       ; UISys
5F65  0E46490C           [175] gettable   24  24  293  ; 1151030240
5F69  4B060000           [176] newtable   25  0   0    ; array=0, hash=0
5F6D  A486490B           [177] self       26  22  294  ; 455421500
5F71  A2060001           [178] call       26  2   0  
5F75  5B460000           [179] setlist    25  0   1    ; index 1 to top
5F79  97068000           [180] loadbool   26  1   0    ; true
5F7D  22868001           [181] call       24  3   2  
5F81  5D060600           [182] getglobal  25  24       ; 1074689893
5F85  9206000C           [183] move       26  24     
5F89  62860001           [184] call       25  2   2  
5F8D  58460000           [185] test       25      1    ; to [187] if false
5F91  1AC00180           [186] jmp        8            ; to [195]
5F95  64C6490C           [187] self       25  24  295  ; -1344420604
5F99  62860001           [188] call       25  2   2  
5F9D  58460000           [189] test       25      1    ; to [191] if false
5FA1  1AC00080           [190] jmp        4            ; to [195]
5FA5  5D060000           [191] getglobal  25  0        ; 538022378
5FA9  99460500           [192] loadk      26  21       ; 0
5FAD  62460001           [193] call       25  2   1  
5FB1  1A80FC7F           [194] jmp        -13          ; to [182]
5FB5  5D060A00           [195] getglobal  25  40       ; 2083004503
5FB9  9206000B           [196] move       26  22     
5FBD  62860001           [197] call       25  2   2  
5FC1  9205800C           [198] move       22  25     
5FC5  53060002           [199] getupval   25  4      
5FC9  4E46CA0C           [200] gettable   25  25  297  ; 1757516049
5FCD  92060004           [201] move       26  8      
5FD1  D206000B           [202] move       27  22     
5FD5  17070000           [203] loadbool   28  0   0    ; false
5FD9  62860002           [204] call       25  4   2  
5FDD  D205800C           [205] move       23  25     
5FE1  58030000           [206] test       13      0    ; to [208] if true
5FE5  1A000180           [207] jmp        5            ; to [213]
5FE9  53068001           [208] getupval   25  3      
fail op	35
5FED  2340060B           [209] close      0  
5FF1  1A001880           [210] jmp        97           ; to [308]
fail op	35
5FF5  2300C70B           [211] close      0  
5FF9  1A801780           [212] jmp        95           ; to [308]
5FFD  97030000           [213] loadbool   14  0   0    ; false
6001  5D460100           [214] getglobal  25  5        ; gRegion
6005  6486CA0C           [215] self       25  25  298  ; -1875307917
6009  DD060200           [216] getglobal  27  8        ; -332969190
600D  19C70A00           [217] loadk      28  43       ; "ChimeraHelmetTwinPoint"
6011  E2060001           [218] call       27  2   0  
6015  62860000           [219] call       25  0   2  
6019  A4C6C30C           [220] self       26  25  271  ; 1839670529
601D  A2860001           [221] call       26  2   2  
6021  E406CB0C           [222] self       27  25  300  ; -231049143
6025  E2860001           [223] call       27  2   2  
6029  1D470100           [224] getglobal  28  5        ; gRegion
602D  24474B0E           [225] self       28  28  301  ; -1110225722
6031  9D870B00           [226] getglobal  30  46       ; twinDecoType
6035  D207000D           [227] move       31  26     
6039  1208800D           [228] move       32  27     
603D  22878002           [229] call       28  5   2  
6041  5D070000           [230] getglobal  29  0        ; 538022378
6045  99470500           [231] loadk      30  21       ; 0
6049  62470001           [232] call       29  2   1  
604D  5D070600           [233] getglobal  29  24       ; 1074689893
6051  9207000E           [234] move       30  28     
6055  62870001           [235] call       29  2   2  
6059  58470000           [236] test       29      1    ; to [238] if false
605D  1A401180           [237] jmp        70           ; to [308]
6061  64C74B0E           [238] self       29  28  303  ; -1284295806
6065  62870001           [239] call       29  2   2  
6069  8A07800E           [240] len        30  29     
fail op	21
606D  15004C0F           [241] concat     0   30  304
6071  1A800180           [242] jmp        7            ; to [250]
6075  9D070000           [243] getglobal  30  0        ; 538022378
6079  D9470C00           [244] loadk      31  49       ; -51
607D  A2470001           [245] call       30  2   1  
6081  A4C74B0E           [246] self       30  28  303  ; -1284295806
6085  A2870001           [247] call       30  2   2  
6089  5207000F           [248] move       29  30     
608D  1A40FD7F           [249] jmp        -10          ; to [240]
6091  A4C7420E           [250] self       30  28  267  ; -1625438872
6095  1D880C00           [251] getglobal  32  50       ; hairType
6099  A2878001           [252] call       30  3   2  
609D  DD070600           [253] getglobal  31  24       ; 1074689893
60A1  1208000F           [254] move       32  30     
60A5  E2870001           [255] call       31  2   2  
60A9  D8470000           [256] test       31      1    ; to [258] if false
60AD  1AC00080           [257] jmp        4            ; to [262]
60B1  DD470100           [258] getglobal  31  5        ; gRegion
60B5  E4C7CC0F           [259] self       31  31  307  ; -1693828985
60B9  5208000F           [260] move       33  30     
60BD  E2478001           [261] call       31  3   1  
60C1  DD070D00           [262] getglobal  31  52       ; 1672515847
60C5  1208800E           [263] move       32  29     
60C9  E2070101           [264] call       31  2   4  
60CD  1AC00980           [265] jmp        40           ; to [306]
60D1  1D090600           [266] getglobal  36  24       ; 1074689893
60D5  52098011           [267] move       37  35     
60D9  22890001           [268] call       36  2   2  
60DD  18490000           [269] test       36      1    ; to [271] if false
60E1  1A800880           [270] jmp        35           ; to [306]
60E5  2449CD11           [271] self       36  35  309  ; -1957065004
60E9  9D490300           [272] getglobal  38  13       ; gDecorationType
60ED  22898001           [273] call       36  3   2  
60F1  18090000           [274] test       36      0    ; to [276] if true
60F5  1A400780           [275] jmp        30           ; to [306]
60F9  2489CD11           [276] self       36  35  310  ; -1298130151
60FD  22890001           [277] call       36  2   2  
6101  64894912           [278] self       37  36  294  ; 455421500
6105  62890001           [279] call       37  2   2  
6109  58490000           [280] test       37      1    ; to [282] if false
610D  1A000080           [281] jmp        1            ; to [283]
6111  59C90D00           [282] loadk      37  55       ; ""
6115  9D090600           [283] getglobal  38  24       ; 1074689893
6119  D2090012           [284] move       39  36     
611D  A2890001           [285] call       38  2   2  
6121  98490000           [286] test       38      1    ; to [288] if false
6125  1A400480           [287] jmp        18           ; to [306]
6129  9D090E00           [288] getglobal  38  56       ; string
612D  8E494E13           [289] gettable   38  38  313  ; -565905820
6131  D2098012           [290] move       39  37     
6135  198A0E00           [291] loadk      40  58       ; "[Hh]ood"
6139  A2898001           [292] call       38  3   2  
fail op	35
613D  23004113           [293] close      0  
6141  1A800180           [294] jmp        7            ; to [302]
6145  9D090E00           [295] getglobal  38  56       ; string
6149  8E494E13           [296] gettable   38  38  313  ; -565905820
614D  D2098012           [297] move       39  37     
6151  19CA0E00           [298] loadk      40  59       ; "[Mm]ask"
6155  A2898001           [299] call       38  3   2  
fail op	35
6159  63004113           [300] close      1  
615D  1AC00080           [301] jmp        4            ; to [306]
6161  9D490100           [302] getglobal  38  5        ; gRegion
6165  A4C94C13           [303] self       38  38  307  ; -1693828985
6169  120A8011           [304] move       40  35     
616D  A2498001           [305] call       38  3   1  
6171  D6870000           [306] tforloop   31      2    ; to [308] if exit
6175  1A40F57F           [307] jmp        -42          ; to [266]
6179  98030000           [308] test       14      0    ; to [310] if true
617D  1A800080           [309] jmp        3            ; to [313]
6181  92090001           [310] move       38  2      
6185  D7098000           [311] loadbool   39  1   0    ; true
6189  A2490001           [312] call       38  2   1  
618D  86090013           [313] loadnil    38  38     
6191  DD090F00           [314] getglobal  39  60       ; -1799570112
6195  120A0000           [315] move       40  0      
6199  594A0F00           [316] loadk      41  61       ; "OnFinished"
619D  E2498001           [317] call       39  3   1  
61A1  C6098013           [318] loadnil    39  39     
61A5  1D0A0600           [319] getglobal  40  24       ; 1074689893
61A9  5D8A0F00           [320] getglobal  41  62       ; gMatchingService
61AD  228A0001           [321] call       40  2   2  
61B1  180A0000           [322] test       40      0    ; to [324] if true
61B5  1A800080           [323] jmp        3            ; to [327]
61B9  190A0700           [324] loadk      40  28       ; 0
61BD  184A0000           [325] test       40      1    ; to [327] if false
61C1  1A800080           [326] jmp        3            ; to [330]
61C5  1D8A0F00           [327] getglobal  40  62       ; gMatchingService
61C9  24CA4F14           [328] self       40  40  319  ; 903726717
61CD  228A0001           [329] call       40  2   2  
61D1  570A0000           [330] loadbool   41  0   0    ; false
61D5  970A0000           [331] loadbool   42  0   0    ; false
61D9  DD0A0000           [332] getglobal  43  0        ; 538022378
61DD  194B0500           [333] loadk      44  21       ; 0
61E1  E24A0001           [334] call       43  2   1  
61E5  DD0A0600           [335] getglobal  43  24       ; 1074689893
61E9  120B8004           [336] move       44  9      
61ED  E28A0001           [337] call       43  2   2  
61F1  D80A0000           [338] test       43      0    ; to [340] if true
61F5  1AC00080           [339] jmp        4            ; to [344]
61F9  D20A0003           [340] move       43  6      
61FD  170B0000           [341] loadbool   44  0   0    ; false
6201  E24A0001           [342] call       43  2   1  
6205  1E008000           [343] return     0   1      
6209  DD0A0600           [344] getglobal  43  24       ; 1074689893
620D  1D8B0F00           [345] getglobal  44  62       ; gMatchingService
6211  E28A0001           [346] call       43  2   2  
6215  D80A0000           [347] test       43      0    ; to [349] if true
6219  1A800080           [348] jmp        3            ; to [352]
621D  D90A0700           [349] loadk      43  28       ; 0
6221  D84A0000           [350] test       43      1    ; to [352] if false
6225  1A800080           [351] jmp        3            ; to [355]
6229  DD8A0F00           [352] getglobal  43  62       ; gMatchingService
622D  E4CACF15           [353] self       43  43  319  ; 903726717
6231  E28A0001           [354] call       43  2   2  
6235  1D8B0400           [355] getglobal  44  18       ; _T
6239  0E0B5016           [356] gettable   44  44  320  ; "questInfo"
fail op	35
623D  23008B13           [357] close      0  
6241  1A400080           [358] jmp        2            ; to [361]
fail op	35
6245  63008A15           [359] close      1  
6249  1A800F80           [360] jmp        63           ; to [424]
624D  1D0B0000           [361] getglobal  44  0        ; 538022378
6251  594B0500           [362] loadk      45  21       ; 0
6255  224B0001           [363] call       44  2   1  
6259  1D8B0400           [364] getglobal  44  18       ; _T
625D  CE095016           [365] gettable   39  44  320  ; "questInfo"
6261  120A8015           [366] move       40  43     
6265  D8090000           [367] test       39      0    ; to [369] if true
6269  1A80F67F           [368] jmp        -37          ; to [332]
626D  0E4BD013           [369] gettable   44  39  321  ; "activeQuest"
6271  5D8B0700           [370] getglobal  45  30       ; keyChainWRes
fail op	35
6275  63400B16           [371] close      1  
6279  1A000080           [372] jmp        1            ; to [374]
627D  574A0000           [373] loadbool   41  0   1    ; false, to [375]
6281  570A8000           [374] loadbool   41  1   0    ; true
6285  0E8BD013           [375] gettable   44  39  322  ; "difficulty"
fail op	5
6289  850A0016           [376] getglobal  42  22528    ; nil
628D  1A000180           [377] jmp        5            ; to [383]
6291  0E8BD013           [378] gettable   44  39  322  ; "difficulty"
fail op	21
6295  55008B8A           [379] concat     1   277 44 
6299  1A000080           [380] jmp        1            ; to [382]
629D  974A0000           [381] loadbool   42  0   1    ; false, to [383]
62A1  970A8000           [382] loadbool   42  1   0    ; true
62A5  1D0B0600           [383] getglobal  44  24       ; 1074689893
62A9  5D8B0F00           [384] getglobal  45  62       ; gMatchingService
62AD  228B0001           [385] call       44  2   2  
62B1  184B0000           [386] test       44      1    ; to [388] if false
62B5  1A800180           [387] jmp        7            ; to [395]
62B9  1D8B0F00           [388] getglobal  44  62       ; gMatchingService
62BD  24CB4F16           [389] self       44  44  319  ; 903726717
62C1  228B0001           [390] call       44  2   2  
fail op	33
62C5  61004716           [391] tforloop   1       284  ; to [393] if exit
62C9  1A000080           [392] jmp        1            ; to [394]
62CD  174B0000           [393] loadbool   44  0   1    ; false, to [395]
62D1  170B8000           [394] loadbool   44  1   0    ; true
fail op	5
62D5  450B0016           [395] getglobal  45  22528    ; nil
62D9  1A000280           [396] jmp        9            ; to [406]
62DD  580A0000           [397] test       41      0    ; to [399] if true
62E1  1A800080           [398] jmp        3            ; to [402]
62E5  4ECBD013           [399] gettable   45  39  323  ; "stage"
fail op	35
62E9  6300C716           [400] close      1  
62ED  1A800080           [401] jmp        3            ; to [405]
fail op	9
62F1  490B8005           [402] settable   45  11  0  
62F5  1A400080           [403] jmp        2            ; to [406]
62F9  574B0000           [404] loadbool   45  0   1    ; false, to [406]
62FD  570B8000           [405] loadbool   45  1   0    ; true
fail op	35
6301  63004513           [406] close      1  
6305  1A800180           [407] jmp        7            ; to [415]
6309  580B0000           [408] test       45      0    ; to [410] if true
630D  1A000180           [409] jmp        5            ; to [415]
6311  97098000           [410] loadbool   38  1   0    ; true
6315  920B0003           [411] move       46  6      
6319  D70B8000           [412] loadbool   47  1   0    ; true
631D  A24B0001           [413] call       46  2   1  
6321  1A00EB7F           [414] jmp        -83          ; to [332]
fail op	35
6325  63005113           [415] close      1  
6329  1A80EA7F           [416] jmp        -85          ; to [332]
632D  584B0000           [417] test       45      1    ; to [419] if false
6331  1A00EA7F           [418] jmp        -87          ; to [332]
6335  97090000           [419] loadbool   38  0   0    ; false
6339  920B0003           [420] move       46  6      
633D  D70B0000           [421] loadbool   47  0   0    ; false
6341  A24B0001           [422] call       46  2   1  
6345  1AC0E87F           [423] jmp        -92          ; to [332]
6349  9D8B0400           [424] getglobal  46  18       ; _T
634D  8E4B5117           [425] gettable   46  46  325  ; "ApostasyActionTriggered"
6351  980B0000           [426] test       46      0    ; to [428] if true
6355  1AC0E77F           [427] jmp        -96          ; to [332]
6359  98090000           [428] test       38      0    ; to [430] if true
635D  1AC00080           [429] jmp        4            ; to [434]
6361  930B8002           [430] getupval   46  5      
6365  D20B0004           [431] move       47  8      
6369  A24B0001           [432] call       46  2   1  
636D  1A40E67F           [433] jmp        -102         ; to [332]
6371  9D0B0000           [434] getglobal  46  0        ; 538022378
6375  D94B0500           [435] loadk      47  21       ; 0
6379  A24B0001           [436] call       46  2   1  
637D  9D8B0400           [437] getglobal  46  18       ; _T
6381  8C0BD1A2           [438] settable   46  325 324  ; "ApostasyActionTriggered" 0
6385  1AC0E47F           [439] jmp        -108         ; to [332]
6389  1E008000           [440] return     0   1      
                         * constants:
638D  46                 sizek (70)
638E  01                 const type 3
638F  EA911120           const [0]: (538022378)
6393  03                 const type 3
6394  0000003F           const [1]: (0)
6398  04                 const type 4
6399  03                 string size (3)
639A  5F4700             "_G\0"
                         const [2]: "_G"
639D  04                 const type 4
639E  16                 string size (22)
639F  41706F7374617379+  "Apostasy"
63A7  4A757374436F6D70+  "JustComp"
63AF  6C6574656400       "leted\0"
                         const [3]: "ApostasyJustCompleted"
63B5  00                 const type 0
                         const [4]: nil
63B6  04                 const type 4
63B7  08                 string size (8)
63B8  67526567696F6E00   "gRegion\0"
                         const [5]: "gRegion"
63C0  01                 const type 3
63C1  BFF6E203           const [6]: (65205951)
63C5  01                 const type 3
63C6  A25264B2           const [7]: (-1302048094)
63CA  01                 const type 3
63CB  1A4B27EC           const [8]: (-332969190)
63CF  01                 const type 3
63D0  12066FA7           const [9]: (-1485896174)
63D4  04                 const type 4
63D5  0C                 string size (12)
63D6  4C6F74757348656C+  "LotusHel"
63DE  6D657400           "met\0"
                         const [10]: "LotusHelmet"
63E2  01                 const type 3
63E3  68C51D9F           const [11]: (-1625438872)
63E7  04                 const type 4
63E8  0F                 string size (15)
63E9  6753657175656E63+  "gSequenc"
63F1  65725479706500     "erType\0"
                         const [12]: "gSequencerType"
63F8  04                 const type 4
63F9  10                 string size (16)
63FA  674465636F726174+  "gDecorat"
6402  696F6E5479706500   "ionType\0"
                         const [13]: "gDecorationType"
640A  01                 const type 3
640B  36725DBF           const [14]: (-1084394954)
640F  01                 const type 3
6410  0125A76D           const [15]: (1839670529)
6414  03                 const type 3
6415  0000A040           const [16]: (0)
6419  01                 const type 3
641A  58F559A5           const [17]: (-1520831144)
641E  04                 const type 4
641F  03                 string size (3)
6420  5F5400             "_T\0"
                         const [18]: "_T"
6423  04                 const type 4
6424  11                 string size (17)
6425  73796E63696E6749+  "syncingI"
642D  6E76656E746F7279+  "nventory"
6435  00                 "\0"
                         const [19]: "syncingInventory"
6436  01                 const type 3
6437  01000000           const [20]: (1)
643B  03                 const type 3
643C  00000000           const [21]: (0)
6440  04                 const type 4
6441  12                 string size (18)
6442  67506C6179657250+  "gPlayerP"
644A  726F66696C654D67+  "rofileMg"
6452  7200               "r\0"
                         const [22]: "gPlayerProfileMgr"
6454  01                 const type 3
6455  1A7BEF21           const [23]: (569342746)
6459  01                 const type 3
645A  65770E40           const [24]: (1074689893)
645E  01                 const type 3
645F  92104F65           const [25]: (1699680402)
6463  01                 const type 3
6464  FD052E6F           const [26]: (1865287165)
6468  01                 const type 3
6469  39606670           const [27]: (1885757497)
646D  03                 const type 3
646E  0000803F           const [28]: (0)
6472  04                 const type 4
6473  0A                 string size (10)
6474  6D4974656D547970+  "mItemTyp"
647C  6500               "e\0"
                         const [29]: "mItemType"
647E  04                 const type 4
647F  0D                 string size (13)
6480  6B6579436861696E+  "keyChain"
6488  5752657300         "WRes\0"
                         const [30]: "keyChainWRes"
648D  04                 const type 4
648E  0A                 string size (10)
648F  6D50726F67726573+  "mProgres"
6497  7300               "s\0"
                         const [31]: "mProgress"
6499  04                 const type 4
649A  0C                 string size (12)
649B  6D436F6D706C6574+  "mComplet"
64A3  696F6E00           "ion\0"
                         const [32]: "mCompletion"
64A7  04                 const type 4
64A8  0B                 string size (11)
64A9  6D436F6D706C6574+  "mComplet"
64B1  656400             "ed\0"
                         const [33]: "mCompleted"
64B4  01                 const type 3
64B5  4B78C852           const [34]: (1388869707)
64B9  03                 const type 3
64BA  000080BF           const [35]: (0)
64BE  04                 const type 4
64BF  06                 string size (6)
64C0  554953797300       "UISys\0"
                         const [36]: "UISys"
64C6  01                 const type 3
64C7  E0539B44           const [37]: (1151030240)
64CB  01                 const type 3
64CC  3C2E251B           const [38]: (455421500)
64D0  01                 const type 3
64D1  04C5DDAF           const [39]: (-1344420604)
64D5  01                 const type 3
64D6  5720287C           const [40]: (2083004503)
64DA  01                 const type 3
64DB  1191C168           const [41]: (1757516049)
64DF  01                 const type 3
64E0  73123990           const [42]: (-1875307917)
64E4  04                 const type 4
64E5  17                 string size (23)
64E6  4368696D65726148+  "ChimeraH"
64EE  656C6D6574547769+  "elmetTwi"
64F6  6E506F696E7400     "nPoint\0"
                         const [43]: "ChimeraHelmetTwinPoint"
64FD  01                 const type 3
64FE  49783AF2           const [44]: (-231049143)
6502  01                 const type 3
6503  C64CD3BD           const [45]: (-1110225722)
6507  04                 const type 4
6508  0D                 string size (13)
6509  7477696E4465636F+  "twinDeco"
6511  5479706500         "Type\0"
                         const [46]: "twinDecoType"
6516  01                 const type 3
6517  823373B3           const [47]: (-1284295806)
651B  03                 const type 3
651C  00000040           const [48]: (0)
6520  03                 const type 3
6521  CDCCCC3D           const [49]: (-51)
6525  04                 const type 4
6526  09                 string size (9)
6527  6861697254797065+  "hairType"
652F  00                 "\0"
                         const [50]: "hairType"
6530  01                 const type 3
6531  87380A9B           const [51]: (-1693828985)
6535  01                 const type 3
6536  0791B063           const [52]: (1672515847)
653A  01                 const type 3
653B  D48E598B           const [53]: (-1957065004)
653F  01                 const type 3
6540  191BA0B2           const [54]: (-1298130151)
6544  04                 const type 4
6545  01                 string size (0)
                         const [55]: ""
6547  04                 const type 4
6548  07                 string size (7)
6549  737472696E6700     "string\0"
                         const [56]: "string"
6550  01                 const type 3
6551  64F644DE           const [57]: (-565905820)
6555  04                 const type 4
6556  08                 string size (8)
6557  5B48685D6F6F6400   "[Hh]ood\0"
                         const [58]: "[Hh]ood"
655F  04                 const type 4
6560  08                 string size (8)
6561  5B4D6D5D61736B00   "[Mm]ask\0"
                         const [59]: "[Mm]ask"
6569  01                 const type 3
656A  40BDBC94           const [60]: (-1799570112)
656E  04                 const type 4
656F  0B                 string size (11)
6570  4F6E46696E697368+  "OnFinish"
6578  656400             "ed\0"
                         const [61]: "OnFinished"
657B  04                 const type 4
657C  11                 string size (17)
657D  674D61746368696E+  "gMatchin"
6585  6753657276696365+  "gService"
658D  00                 "\0"
                         const [62]: "gMatchingService"
658E  01                 const type 3
658F  7DC6DD35           const [63]: (903726717)
6593  04                 const type 4
6594  0A                 string size (10)
6595  7175657374496E66+  "questInf"
659D  6F00               "o\0"
                         const [64]: "questInfo"
659F  04                 const type 4
65A0  0C                 string size (12)
65A1  6163746976655175+  "activeQu"
65A9  65737400           "est\0"
                         const [65]: "activeQuest"
65AD  04                 const type 4
65AE  0B                 string size (11)
65AF  646966666963756C+  "difficul"
65B7  747900             "ty\0"
                         const [66]: "difficulty"
65BA  04                 const type 4
65BB  06                 string size (6)
65BC  737461676500       "stage\0"
                         const [67]: "stage"
65C2  01                 const type 3
65C3  00000000           const [68]: (0)
65C7  04                 const type 4
65C8  18                 string size (24)
65C9  41706F7374617379+  "Apostasy"
65D1  416374696F6E5472+  "ActionTr"
65D9  6967676572656400   "iggered\0"
                         const [69]: "ApostasyActionTriggered"
                         * functions:
65E1  02                 sizep (2)
                         
65E2                     ** function [0] definition (level 3)
                         ** start of function **
65E2  00                 string size (0)
                         source name: (none)
65E4  07                 line defined (915)
65E5  9F                 last line defined (927)
65E6  07                 nups (1)
65E7  01                 numparams (1)
65E8  01                 is_vararg (0)
65E9  00                 maxstacksize (15)
                         * code:
65EB  26                 sizecode (38)
65EC  18000000           [01] test       0       0    ; to [3] if true
65F0  1A400480           [02] jmp        18           ; to [21]
65F4  59000000           [03] loadk      1   0        ; 0
65F8  93000000           [04] getupval   2   0      
65FC  8A000001           [05] len        2   2      
6600  D9000000           [06] loadk      3   0        ; 0
6604  50800280           [07] forprep    1   11       ; to [19]
6608  53010000           [08] getupval   5   0      
660C  4E018102           [09] gettable   5   5   4  
6610  9D410000           [10] getglobal  6   1        ; 1074689893
6614  D2018002           [11] move       7   5      
6618  A2810001           [12] call       6   2   2  
661C  98410000           [13] test       6       1    ; to [15] if false
6620  1AC00080           [14] jmp        4            ; to [19]
6624  A481C002           [15] self       6   5   258  ; 2109594123
6628  17028000           [16] loadbool   8   1   0    ; true
662C  57028000           [17] loadbool   9   1   0    ; true
6630  A2410002           [18] call       6   4   1  
6634  54C0FC7F           [19] forloop    1   -12      ; to [8] if loop
6638  1A000480           [20] jmp        17           ; to [38]
663C  99010000           [21] loadk      6   0        ; 0
6640  D3010000           [22] getupval   7   0      
6644  CA018003           [23] len        7   7      
6648  19020000           [24] loadk      8   0        ; 0
664C  90810280           [25] forprep    6   11       ; to [37]
6650  93020000           [26] getupval   10  0      
6654  8E420205           [27] gettable   10  10  9  
6658  DD420000           [28] getglobal  11  1        ; 1074689893
665C  12030005           [29] move       12  10     
6660  E2820001           [30] call       11  2   2  
6664  D8420000           [31] test       11      1    ; to [33] if false
6668  1AC00080           [32] jmp        4            ; to [37]
666C  E4824005           [33] self       11  10  258  ; 2109594123
6670  57030000           [34] loadbool   13  0   0    ; false
6674  97038000           [35] loadbool   14  1   0    ; true
6678  E2420002           [36] call       11  4   1  
667C  94C1FC7F           [37] forloop    6   -12      ; to [26] if loop
6680  1E008000           [38] return     0   1      
                         * constants:
6684  03                 sizek (3)
6685  03                 const type 3
6686  0000803F           const [0]: (0)
668A  01                 const type 3
668B  65770E40           const [1]: (1074689893)
668F  01                 const type 3
6690  0BDABD7D           const [2]: (2109594123)
                         * functions:
6694  00                 sizep (0)
                         * lines:
6695  26                 sizelineinfo (38)
                         [pc] (line)
6696  94                 [01] (-108)
6697  03                 [02] (-108)
6698  00                 [03] (-107)
6699  00                 [04] (-107)
669A  94                 [05] (-107)
669B  03                 [06] (-107)
669C  00                 [07] (-107)
669D  00                 [08] (-106)
669E  95                 [09] (-106)
669F  03                 [10] (-105)
66A0  00                 [11] (-105)
66A1  00                 [12] (-105)
66A2  95                 [13] (-105)
66A3  03                 [14] (-105)
66A4  00                 [15] (-105)
66A5  00                 [16] (-105)
66A6  95                 [17] (-105)
66A7  03                 [18] (-105)
66A8  00                 [19] (-107)
66A9  00                 [20] (-104)
66AA  95                 [21] (-102)
66AB  03                 [22] (-102)
66AC  00                 [23] (-102)
66AD  00                 [24] (-102)
66AE  95                 [25] (-102)
66AF  03                 [26] (-101)
66B0  00                 [27] (-101)
66B1  00                 [28] (-100)
66B2  96                 [29] (-100)
66B3  03                 [30] (-100)
66B4  00                 [31] (-100)
66B5  00                 [32] (-100)
66B6  96                 [33] (-100)
66B7  03                 [34] (-100)
66B8  00                 [35] (-100)
66B9  00                 [36] (-100)
66BA  97                 [37] (-102)
66BB  03                 [38] (-97)
                         * locals:
672E  00                 sizelocvars (0)
                         * upvalues:
672F  00                 sizeupvalues (0)
                         ** end of function **

                         
6730                     ** function [1] definition (level 3)
                         ** start of function **
6730  00                 string size (0)
                         source name: (none)
6732  07                 line defined (932)
6733  B2                 last line defined (946)
6734  07                 nups (4)
6735  04                 numparams (1)
6736  01                 is_vararg (0)
6737  00                 maxstacksize (6)
                         * code:
6739  4C                 sizecode (76)
673A  18000000           [01] test       0       0    ; to [3] if true
673E  1A000980           [02] jmp        37           ; to [40]
6742  53000000           [03] getupval   1   0      
6746  6400C000           [04] self       1   1   256  ; -974578778
674A  62400001           [05] call       1   2   1  
674E  5D400000           [06] getglobal  1   1        ; Effects
6752  4E80C000           [07] gettable   1   1   258  ; 1840978700
6756  93000000           [08] getupval   2   0      
675A  DDC00000           [09] getglobal  3   3        ; gParticleSysType
675E  17018000           [10] loadbool   4   1   0    ; true
6762  57018000           [11] loadbool   5   1   0    ; true
6766  62408002           [12] call       1   5   1  
676A  5D000100           [13] getglobal  1   4        ; 1074689893
676E  93008000           [14] getupval   2   1      
6772  62800001           [15] call       1   2   2  
6776  58400000           [16] test       1       1    ; to [18] if false
677A  1A800080           [17] jmp        3            ; to [21]
677E  53008000           [18] getupval   1   1      
6782  6400C000           [19] self       1   1   256  ; -974578778
6786  62400001           [20] call       1   2   1  
678A  5D000100           [21] getglobal  1   4        ; 1074689893
678E  93000001           [22] getupval   2   2      
6792  62800001           [23] call       1   2   2  
6796  58400000           [24] test       1       1    ; to [26] if false
679A  1A000180           [25] jmp        5            ; to [31]
679E  53000001           [26] getupval   1   2      
67A2  6440C100           [27] self       1   1   261  ; 2109594123
67A6  D7008000           [28] loadbool   3   1   0    ; true
67AA  17018000           [29] loadbool   4   1   0    ; true
67AE  62400002           [30] call       1   4   1  
67B2  5D000100           [31] getglobal  1   4        ; 1074689893
67B6  93008001           [32] getupval   2   3      
67BA  62800001           [33] call       1   2   2  
67BE  58400000           [34] test       1       1    ; to [36] if false
67C2  1AC00980           [35] jmp        40           ; to [76]
67C6  53008001           [36] getupval   1   3      
67CA  6480C100           [37] self       1   1   262  ; 766584623
67CE  62400001           [38] call       1   2   1  
67D2  1AC00880           [39] jmp        36           ; to [76]
67D6  53000000           [40] getupval   1   0      
67DA  6480C100           [41] self       1   1   262  ; 766584623
67DE  62400001           [42] call       1   2   1  
67E2  5D400000           [43] getglobal  1   1        ; Effects
67E6  4E80C000           [44] gettable   1   1   258  ; 1840978700
67EA  93000000           [45] getupval   2   0      
67EE  DDC00000           [46] getglobal  3   3        ; gParticleSysType
67F2  17010000           [47] loadbool   4   0   0    ; false
67F6  57018000           [48] loadbool   5   1   0    ; true
67FA  62408002           [49] call       1   5   1  
67FE  5D000100           [50] getglobal  1   4        ; 1074689893
6802  93008000           [51] getupval   2   1      
6806  62800001           [52] call       1   2   2  
680A  58400000           [53] test       1       1    ; to [55] if false
680E  1A800080           [54] jmp        3            ; to [58]
6812  53008000           [55] getupval   1   1      
6816  6480C100           [56] self       1   1   262  ; 766584623
681A  62400001           [57] call       1   2   1  
681E  5D000100           [58] getglobal  1   4        ; 1074689893
6822  93000001           [59] getupval   2   2      
6826  62800001           [60] call       1   2   2  
682A  58400000           [61] test       1       1    ; to [63] if false
682E  1A000180           [62] jmp        5            ; to [68]
6832  53000001           [63] getupval   1   2      
6836  6440C100           [64] self       1   1   261  ; 2109594123
683A  D7000000           [65] loadbool   3   0   0    ; false
683E  17018000           [66] loadbool   4   1   0    ; true
6842  62400002           [67] call       1   4   1  
6846  5D000100           [68] getglobal  1   4        ; 1074689893
684A  93008001           [69] getupval   2   3      
684E  62800001           [70] call       1   2   2  
6852  58400000           [71] test       1       1    ; to [73] if false
6856  1A800080           [72] jmp        3            ; to [76]
685A  53008001           [73] getupval   1   3      
685E  6400C000           [74] self       1   1   256  ; -974578778
6862  62400001           [75] call       1   2   1  
6866  1E008000           [76] return     0   1      
                         * constants:
686A  07                 sizek (7)
686B  01                 const type 3
686C  A61BE9C5           const [0]: (-974578778)
6870  04                 const type 4
6871  08                 string size (8)
6872  4566666563747300   "Effects\0"
                         const [1]: "Effects"
687A  01                 const type 3
687B  0C1BBB6D           const [2]: (1840978700)
687F  04                 const type 4
6880  11                 string size (17)
6881  675061727469636C+  "gParticl"
6889  6553797354797065+  "eSysType"
6891  00                 "\0"
                         const [3]: "gParticleSysType"
6892  01                 const type 3
6893  65770E40           const [4]: (1074689893)
6897  01                 const type 3
6898  0BDABD7D           const [5]: (2109594123)
689C  01                 const type 3
689D  2F27B12D           const [6]: (766584623)
                         * functions:
68A1  00                 sizep (0)
                         * lines:
68A2  4C                 sizelineinfo (76)
                         [pc] (line)
68A3  A5                 [01] (-91)
68A4  03                 [02] (-91)
68A5  00                 [03] (-90)
68A6  00                 [04] (-90)
68A7  A5                 [05] (-90)
68A8  03                 [06] (-89)
68A9  00                 [07] (-89)
68AA  00                 [08] (-89)
68AB  A6                 [09] (-89)
68AC  03                 [10] (-89)
68AD  00                 [11] (-89)
68AE  00                 [12] (-89)
68AF  A6                 [13] (-88)
68B0  03                 [14] (-88)
68B1  00                 [15] (-88)
68B2  00                 [16] (-88)
68B3  A6                 [17] (-88)
68B4  03                 [18] (-88)
68B5  00                 [19] (-88)
68B6  00                 [20] (-88)
68B7  A7                 [21] (-87)
68B8  03                 [22] (-87)
68B9  00                 [23] (-87)
68BA  00                 [24] (-87)
68BB  A7                 [25] (-87)
68BC  03                 [26] (-87)
68BD  00                 [27] (-87)
68BE  00                 [28] (-87)
68BF  A7                 [29] (-87)
68C0  03                 [30] (-87)
68C1  00                 [31] (-86)
68C2  00                 [32] (-86)
68C3  A7                 [33] (-86)
68C4  03                 [34] (-86)
68C5  00                 [35] (-86)
68C6  00                 [36] (-86)
68C7  A7                 [37] (-86)
68C8  03                 [38] (-86)
68C9  00                 [39] (-86)
68CA  00                 [40] (-84)
68CB  A7                 [41] (-84)
68CC  03                 [42] (-84)
68CD  00                 [43] (-83)
68CE  00                 [44] (-83)
68CF  A7                 [45] (-83)
68D0  03                 [46] (-83)
68D1  00                 [47] (-83)
68D2  00                 [48] (-83)
68D3  A8                 [49] (-83)
68D4  03                 [50] (-82)
68D5  00                 [51] (-82)
68D6  00                 [52] (-82)
68D7  A8                 [53] (-82)
68D8  03                 [54] (-82)
68D9  00                 [55] (-82)
68DA  00                 [56] (-82)
68DB  A8                 [57] (-82)
68DC  03                 [58] (-81)
68DD  00                 [59] (-81)
68DE  00                 [60] (-81)
68DF  A8                 [61] (-81)
68E0  03                 [62] (-81)
68E1  00                 [63] (-81)
68E2  00                 [64] (-81)
68E3  A8                 [65] (-81)
68E4  03                 [66] (-81)
68E5  00                 [67] (-81)
68E6  00                 [68] (-80)
68E7  A8                 [69] (-80)
68E8  03                 [70] (-80)
68E9  00                 [71] (-80)
68EA  00                 [72] (-80)
68EB  A8                 [73] (-80)
68EC  03                 [74] (-80)
68ED  00                 [75] (-80)
68EE  00                 [76] (-78)
                         * locals:
69D3  00                 sizelocvars (0)
                         * upvalues:
69D4  00                 sizeupvalues (0)
                         ** end of function **

                         * lines:
69D6  03                 sizelineinfo (440)
                         [pc] (line)
69D7  8B                 [001] (-117)
69D8  03                 [002] (-117)
69D9  00                 [003] (-117)
69DA  00                 [004] (-115)
69DB  8B                 [005] (-115)
69DC  03                 [006] (-115)
69DD  00                 [007] (-115)
69DE  00                 [008] (-114)
69DF  8B                 [009] (-114)
69E0  03                 [010] (-113)
69E1  00                 [011] (-113)
69E2  00                 [012] (-113)
69E3  8D                 [013] (-113)
69E4  03                 [014] (-113)
69E5  00                 [015] (-113)
69E6  00                 [016] (-113)
69E7  8D                 [017] (-113)
69E8  03                 [018] (-113)
69E9  00                 [019] (-110)
69EA  00                 [020] (-110)
69EB  8D                 [021] (-110)
69EC  03                 [022] (-110)
69ED  00                 [023] (-110)
69EE  00                 [024] (-110)
69EF  8D                 [025] (-97)
69F0  03                 [026] (-97)
69F1  00                 [027] (-95)
69F2  00                 [028] (-95)
69F3  8E                 [029] (-95)
69F4  03                 [030] (-94)
69F5  00                 [031] (-94)
69F6  00                 [032] (-94)
69F7  8E                 [033] (-93)
69F8  03                 [034] (-93)
69F9  00                 [035] (-93)
69FA  00                 [036] (-93)
69FB  8F                 [037] (-93)
69FC  03                 [038] (-93)
69FD  00                 [039] (-93)
69FE  00                 [040] (-93)
69FF  8F                 [041] (-78)
6A00  03                 [042] (-78)
6A01  00                 [043] (-78)
6A02  00                 [044] (-78)
6A03  8F                 [045] (-78)
6A04  03                 [046] (-76)
6A05  00                 [047] (-76)
6A06  00                 [048] (-76)
6A07  8F                 [049] (-75)
6A08  03                 [050] (-75)
6A09  00                 [051] (-75)
6A0A  00                 [052] (-73)
6A0B  8F                 [053] (-73)
6A0C  03                 [054] (-73)
6A0D  00                 [055] (-73)
6A0E  00                 [056] (-73)
6A0F  8F                 [057] (-72)
6A10  03                 [058] (-69)
6A11  00                 [059] (-69)
6A12  00                 [060] (-69)
6A13  8F                 [061] (-69)
6A14  03                 [062] (-69)
6A15  00                 [063] (-69)
6A16  00                 [064] (-69)
6A17  8F                 [065] (-69)
6A18  03                 [066] (-68)
6A19  00                 [067] (-68)
6A1A  00                 [068] (-68)
6A1B  8F                 [069] (-68)
6A1C  03                 [070] (-65)
6A1D  00                 [071] (-65)
6A1E  00                 [072] (-65)
6A1F  92                 [073] (-65)
6A20  03                 [074] (-64)
6A21  00                 [075] (-64)
6A22  00                 [076] (-64)
6A23  92                 [077] (-64)
6A24  03                 [078] (-64)
6A25  00                 [079] (-63)
6A26  00                 [080] (-63)
6A27  92                 [081] (-63)
6A28  03                 [082] (-62)
6A29  00                 [083] (-62)
6A2A  00                 [084] (-62)
6A2B  92                 [085] (-62)
6A2C  03                 [086] (-62)
6A2D  00                 [087] (-62)
6A2E  00                 [088] (-60)
6A2F  92                 [089] (-60)
6A30  03                 [090] (-59)
6A31  00                 [091] (-59)
6A32  00                 [092] (-59)
6A33  92                 [093] (-59)
6A34  03                 [094] (-59)
6A35  00                 [095] (-58)
6A36  00                 [096] (-58)
6A37  9F                 [097] (-58)
6A38  03                 [098] (-57)
6A39  00                 [099] (-57)
6A3A  00                 [100] (-57)
6A3B  9F                 [101] (-57)
6A3C  03                 [102] (-55)
6A3D  00                 [103] (-55)
6A3E  00                 [104] (-54)
6A3F  A1                 [105] (-54)
6A40  03                 [106] (-54)
6A41  00                 [107] (-54)
6A42  00                 [108] (-54)
6A43  A1                 [109] (-53)
6A44  03                 [110] (-53)
6A45  00                 [111] (-53)
6A46  00                 [112] (-52)
6A47  A1                 [113] (-52)
6A48  03                 [114] (-52)
6A49  00                 [115] (-52)
6A4A  00                 [116] (-49)
6A4B  A2                 [117] (-48)
6A4C  03                 [118] (-47)
6A4D  00                 [119] (-46)
6A4E  00                 [120] (-45)
6A4F  A2                 [121] (-43)
6A50  03                 [122] (-43)
6A51  00                 [123] (-42)
6A52  00                 [124] (-42)
6A53  A2                 [125] (-42)
6A54  03                 [126] (-42)
6A55  00                 [127] (-41)
6A56  00                 [128] (-40)
6A57  A3                 [129] (-39)
6A58  03                 [130] (-39)
6A59  00                 [131] (-39)
6A5A  00                 [132] (-38)
6A5B  A3                 [133] (-37)
6A5C  03                 [134] (-37)
6A5D  00                 [135] (-37)
6A5E  00                 [136] (-37)
6A5F  A3                 [137] (-37)
6A60  03                 [138] (-37)
6A61  00                 [139] (-37)
6A62  00                 [140] (-37)
6A63  A3                 [141] (-37)
6A64  03                 [142] (-37)
6A65  00                 [143] (-37)
6A66  00                 [144] (-36)
6A67  A3                 [145] (-36)
6A68  03                 [146] (-36)
6A69  00                 [147] (-35)
6A6A  00                 [148] (-35)
6A6B  A3                 [149] (-34)
6A6C  03                 [150] (-34)
6A6D  00                 [151] (-34)
6A6E  00                 [152] (-33)
6A6F  A3                 [153] (-33)
6A70  03                 [154] (-32)
6A71  00                 [155] (-32)
6A72  00                 [156] (-32)
6A73  A3                 [157] (-31)
6A74  03                 [158] (-42)
6A75  00                 [159] (-27)
6A76  00                 [160] (-27)
6A77  B2                 [161] (-26)
6A78  03                 [162] (-23)
6A79  00                 [163] (-23)
6A7A  00                 [164] (-22)
6A7B  B2                 [165] (-22)
6A7C  03                 [166] (-22)
6A7D  00                 [167] (-22)
6A7E  00                 [168] (-21)
6A7F  B2                 [169] (-20)
6A80  03                 [170] (-20)
6A81  00                 [171] (-20)
6A82  00                 [172] (-20)
6A83  B2                 [173] (-20)
6A84  03                 [174] (-19)
6A85  00                 [175] (-19)
6A86  00                 [176] (-19)
6A87  B2                 [177] (-19)
6A88  03                 [178] (-19)
6A89  00                 [179] (-19)
6A8A  00                 [180] (-19)
6A8B  B4                 [181] (-19)
6A8C  03                 [182] (-18)
6A8D  00                 [183] (-18)
6A8E  00                 [184] (-18)
6A8F  B4                 [185] (-18)
6A90  03                 [186] (-18)
6A91  00                 [187] (-18)
6A92  00                 [188] (-18)
6A93  B4                 [189] (-18)
6A94  03                 [190] (-18)
6A95  00                 [191] (-17)
6A96  00                 [192] (-17)
6A97  B5                 [193] (-17)
6A98  03                 [194] (-17)
6A99  00                 [195] (-15)
6A9A  00                 [196] (-15)
6A9B  B5                 [197] (-15)
6A9C  03                 [198] (-15)
6A9D  00                 [199] (-14)
6A9E  00                 [200] (-14)
6A9F  B5                 [201] (-14)
6AA0  03                 [202] (-14)
6AA1  00                 [203] (-14)
6AA2  00                 [204] (-14)
6AA3  B7                 [205] (-14)
6AA4  03                 [206] (-12)
6AA5  00                 [207] (-12)
6AA6  00                 [208] (-12)
6AA7  B7                 [209] (-12)
6AA8  03                 [210] (-12)
6AA9  00                 [211] (-12)
6AAA  00                 [212] (-12)
6AAB  B7                 [213] (-11)
6AAC  03                 [214] (-10)
6AAD  00                 [215] (-10)
6AAE  00                 [216] (-10)
6AAF  B7                 [217] (-10)
6AB0  03                 [218] (-10)
6AB1  00                 [219] (-10)
6AB2  00                 [220] (-9)
6AB3  B7                 [221] (-9)
6AB4  03                 [222] (-9)
6AB5  00                 [223] (-9)
6AB6  00                 [224] (-8)
6AB7  B8                 [225] (-8)
6AB8  03                 [226] (-8)
6AB9  00                 [227] (-8)
6ABA  00                 [228] (-8)
6ABB  BB                 [229] (-8)
6ABC  03                 [230] (-7)
6ABD  00                 [231] (-7)
6ABE  00                 [232] (-7)
6ABF  BB                 [233] (-6)
6AC0  03                 [234] (-6)
6AC1  00                 [235] (-6)
6AC2  00                 [236] (-6)
6AC3  BB                 [237] (-6)
6AC4  03                 [238] (-5)
6AC5  00                 [239] (-5)
6AC6  00                 [240] (-4)
6AC7  BB                 [241] (-4)
6AC8  03                 [242] (-4)
6AC9  00                 [243] (-3)
6ACA  00                 [244] (-3)
6ACB  BB                 [245] (-3)
6ACC  03                 [246] (-2)
6ACD  00                 [247] (-2)
6ACE  00                 [248] (-2)
6ACF  BB                 [249] (-2)
6AD0  03                 [250] (0)
6AD1  00                 [251] (0)
6AD2  00                 [252] (0)
6AD3  BB                 [253] (1)
6AD4  03                 [254] (1)
6AD5  00                 [255] (1)
6AD6  00                 [256] (1)
6AD7  BB                 [257] (1)
6AD8  03                 [258] (2)
6AD9  00                 [259] (2)
6ADA  00                 [260] (2)
6ADB  BC                 [261] (2)
6ADC  03                 [262] (4)
6ADD  00                 [263] (4)
6ADE  00                 [264] (4)
6ADF  BC                 [265] (4)
6AE0  03                 [266] (5)
6AE1  00                 [267] (5)
6AE2  00                 [268] (5)
6AE3  BC                 [269] (5)
6AE4  03                 [270] (5)
6AE5  00                 [271] (5)
6AE6  00                 [272] (5)
6AE7  BC                 [273] (5)
6AE8  03                 [274] (5)
6AE9  00                 [275] (5)
6AEA  00                 [276] (6)
6AEB  BF                 [277] (6)
6AEC  03                 [278] (7)
6AED  00                 [279] (7)
6AEE  00                 [280] (7)
6AEF  BF                 [281] (7)
6AF0  03                 [282] (7)
6AF1  00                 [283] (8)
6AF2  00                 [284] (8)
6AF3  BF                 [285] (8)
6AF4  03                 [286] (8)
6AF5  00                 [287] (8)
6AF6  00                 [288] (8)
6AF7  BF                 [289] (8)
6AF8  03                 [290] (8)
6AF9  00                 [291] (8)
6AFA  00                 [292] (8)
6AFB  C0                 [293] (8)
6AFC  03                 [294] (8)
6AFD  00                 [295] (8)
6AFE  00                 [296] (8)
6AFF  C0                 [297] (8)
6B00  03                 [298] (8)
6B01  00                 [299] (8)
6B02  00                 [300] (8)
6B03  C0                 [301] (8)
6B04  03                 [302] (9)
6B05  00                 [303] (9)
6B06  00                 [304] (9)
6B07  C0                 [305] (9)
6B08  03                 [306] (4)
6B09  00                 [307] (11)
6B0A  00                 [308] (17)
6B0B  C0                 [309] (17)
6B0C  03                 [310] (18)
6B0D  00                 [311] (18)
6B0E  00                 [312] (18)
6B0F  C1                 [313] (21)
6B10  03                 [314] (23)
6B11  00                 [315] (23)
6B12  00                 [316] (23)
6B13  C1                 [317] (23)
6B14  03                 [318] (25)
6B15  00                 [319] (26)
6B16  00                 [320] (26)
6B17  C1                 [321] (26)
6B18  03                 [322] (26)
6B19  00                 [323] (26)
6B1A  00                 [324] (26)
6B1B  C2                 [325] (26)
6B1C  03                 [326] (26)
6B1D  00                 [327] (26)
6B1E  00                 [328] (26)
6B1F  C2                 [329] (26)
6B20  03                 [330] (27)
6B21  00                 [331] (28)
6B22  00                 [332] (31)
6B23  C2                 [333] (31)
6B24  03                 [334] (31)
6B25  00                 [335] (33)
6B26  00                 [336] (33)
6B27  C2                 [337] (33)
6B28  03                 [338] (33)
6B29  00                 [339] (33)
6B2A  00                 [340] (34)
6B2B  C2                 [341] (34)
6B2C  03                 [342] (34)
6B2D  00                 [343] (35)
6B2E  00                 [344] (38)
6B2F  C2                 [345] (38)
6B30  03                 [346] (38)
6B31  00                 [347] (38)
6B32  00                 [348] (38)
6B33  C4                 [349] (38)
6B34  03                 [350] (38)
6B35  00                 [351] (38)
6B36  00                 [352] (38)
6B37  C4                 [353] (38)
6B38  03                 [354] (38)
6B39  00                 [355] (40)
6B3A  00                 [356] (40)
6B3B  C5                 [357] (40)
6B3C  03                 [358] (40)
6B3D  00                 [359] (40)
6B3E  00                 [360] (40)
6B3F  C5                 [361] (41)
6B40  03                 [362] (41)
6B41  00                 [363] (41)
6B42  00                 [364] (42)
6B43  C5                 [365] (42)
6B44  03                 [366] (43)
6B45  00                 [367] (45)
6B46  00                 [368] (45)
6B47  C5                 [369] (46)
6B48  03                 [370] (46)
6B49  00                 [371] (46)
6B4A  00                 [372] (46)
6B4B  C5                 [373] (46)
6B4C  03                 [374] (46)
6B4D  00                 [375] (47)
6B4E  00                 [376] (47)
6B4F  C6                 [377] (47)
6B50  03                 [378] (47)
6B51  00                 [379] (47)
6B52  00                 [380] (47)
6B53  C6                 [381] (47)
6B54  03                 [382] (47)
6B55  00                 [383] (49)
6B56  00                 [384] (49)
6B57  C6                 [385] (49)
6B58  03                 [386] (49)
6B59  00                 [387] (49)
6B5A  00                 [388] (49)
6B5B  C7                 [389] (49)
6B5C  03                 [390] (49)
6B5D  00                 [391] (49)
6B5E  00                 [392] (49)
6B5F  C7                 [393] (49)
6B60  03                 [394] (49)
6B61  00                 [395] (50)
6B62  00                 [396] (50)
6B63  C7                 [397] (50)
6B64  03                 [398] (50)
6B65  00                 [399] (50)
6B66  00                 [400] (50)
6B67  C7                 [401] (50)
6B68  03                 [402] (50)
6B69  00                 [403] (50)
6B6A  00                 [404] (50)
6B6B  C9                 [405] (50)
6B6C  03                 [406] (51)
6B6D  00                 [407] (51)
6B6E  00                 [408] (51)
6B6F  C9                 [409] (51)
6B70  03                 [410] (52)
6B71  00                 [411] (53)
6B72  00                 [412] (53)
6B73  CA                 [413] (53)
6B74  03                 [414] (53)
6B75  00                 [415] (54)
6B76  00                 [416] (54)
6B77  CA                 [417] (54)
6B78  03                 [418] (54)
6B79  00                 [419] (55)
6B7A  00                 [420] (56)
6B7B  CA                 [421] (56)
6B7C  03                 [422] (56)
6B7D  00                 [423] (58)
6B7E  00                 [424] (59)
6B7F  CA                 [425] (59)
6B80  03                 [426] (59)
6B81  00                 [427] (59)
6B82  00                 [428] (60)
6B83  CA                 [429] (60)
6B84  03                 [430] (61)
6B85  00                 [431] (61)
6B86  00                 [432] (61)
6B87  CB                 [433] (61)
6B88  03                 [434] (63)
6B89  00                 [435] (63)
6B8A  00                 [436] (63)
6B8B  CB                 [437] (64)
6B8C  03                 [438] (64)
6B8D  00                 [439] (66)
6B8E  00                 [440] (68)
                         * locals:
70B7  00                 sizelocvars (0)
                         * upvalues:
70B8  00                 sizeupvalues (0)
                         ** end of function **

                         
70B9                     ** function [19] definition (level 2)
                         ** start of function **
70B9  00                 string size (0)
                         source name: (none)
70BB  08                 line defined (1094)
70BC  FB                 last line defined (1147)
70BD  08                 nups (2)
70BE  02                 numparams (0)
70BF  00                 is_vararg (0)
70C0  00                 maxstacksize (9)
                         * code:
70C3  01                 sizecode (131)
70C4  1D000000           [001] getglobal  0   0        ; gGameRules
70C8  24404000           [002] self       0   0   257  ; -1201441975
70CC  22800001           [003] call       0   2   2  
70D0  0E804000           [004] gettable   0   0   258  ; "keyChainName"
70D4  5DC00000           [005] getglobal  1   3        ; keyChainWRes
fail op	35
70D8  63400000           [006] close      1  
70DC  1A000080           [007] jmp        1            ; to [9]
70E0  1E008000           [008] return     0   1      
70E4  1D000100           [009] getglobal  0   4        ; gRegion
70E8  24404100           [010] self       0   0   261  ; -1456226250
70EC  22800001           [011] call       0   2   2  
70F0  0E804100           [012] gettable   0   0   262  ; "postProcess"
70F4  0C00C283           [013] settable   0   263 264  ; "fade" 0
70F8  1D400200           [014] getglobal  0   9        ; 1074689893
70FC  5D000100           [015] getglobal  1   4        ; gRegion
7100  6480C200           [016] self       1   1   266  ; 2066713391
7104  62000001           [017] call       1   2   0  
7108  22800000           [018] call       0   0   2  
710C  18000000           [019] test       0       0    ; to [21] if true
7110  1AC00080           [020] jmp        4            ; to [25]
7114  1DC00200           [021] getglobal  0   11       ; 538022378
7118  59000300           [022] loadk      1   12       ; 0
711C  22400001           [023] call       0   2   1  
7120  1A00FD7F           [024] jmp        -11          ; to [14]
7124  1D400200           [025] getglobal  0   9        ; 1074689893
7128  5D000100           [026] getglobal  1   4        ; gRegion
712C  6480C200           [027] self       1   1   266  ; 2066713391
7130  62000001           [028] call       1   2   0  
7134  22800000           [029] call       0   0   2  
7138  18400000           [030] test       0       1    ; to [32] if false
713C  1AC00080           [031] jmp        4            ; to [36]
7140  1DC00200           [032] getglobal  0   11       ; 538022378
7144  59000300           [033] loadk      1   12       ; 0
7148  22400001           [034] call       0   2   1  
714C  1A00FD7F           [035] jmp        -11          ; to [25]
7150  1D400300           [036] getglobal  0   13       ; gPlayerProfileMgr
7154  24804300           [037] self       0   0   270  ; 569342746
7158  99000300           [038] loadk      2   12       ; 0
715C  22808001           [039] call       0   3   2  
7160  5D400200           [040] getglobal  1   9        ; 1074689893
7164  92000000           [041] move       2   0      
7168  62800001           [042] call       1   2   2  
716C  58000000           [043] test       1       0    ; to [45] if true
7170  1A000280           [044] jmp        9            ; to [54]
7174  5DC00200           [045] getglobal  1   11       ; 538022378
7178  99000300           [046] loadk      2   12       ; 0
717C  62400001           [047] call       1   2   1  
7180  5D400300           [048] getglobal  1   13       ; gPlayerProfileMgr
7184  6480C300           [049] self       1   1   270  ; 569342746
7188  D9000300           [050] loadk      3   12       ; 0
718C  62808001           [051] call       1   3   2  
7190  12008000           [052] move       0   1      
7194  1A40FC7F           [053] jmp        -14          ; to [40]
7198  64C04300           [054] self       1   0   271  ; 1699680402
719C  62800001           [055] call       1   2   2  
71A0  9D400200           [056] getglobal  2   9        ; 1074689893
71A4  D2008000           [057] move       3   1      
71A8  A2800001           [058] call       2   2   2  
71AC  98000000           [059] test       2       0    ; to [61] if true
71B0  1A800180           [060] jmp        7            ; to [68]
71B4  9DC00200           [061] getglobal  2   11       ; 538022378
71B8  D9000300           [062] loadk      3   12       ; 0
71BC  A2400001           [063] call       2   2   1  
71C0  A4C04300           [064] self       2   0   271  ; 1699680402
71C4  A2800001           [065] call       2   2   2  
71C8  52000001           [066] move       1   2      
71CC  1AC0FC7F           [067] jmp        -12          ; to [56]
71D0  A400C400           [068] self       2   1   272  ; 1865287165
71D4  A2800001           [069] call       2   2   2  
71D8  DD400200           [070] getglobal  3   9        ; 1074689893
71DC  12010001           [071] move       4   2      
71E0  E2800001           [072] call       3   2   2  
71E4  D8000000           [073] test       3       0    ; to [75] if true
71E8  1A800180           [074] jmp        7            ; to [82]
71EC  DDC00200           [075] getglobal  3   11       ; 538022378
71F0  19010300           [076] loadk      4   12       ; 0
71F4  E2400001           [077] call       3   2   1  
71F8  E400C400           [078] self       3   1   272  ; 1865287165
71FC  E2800001           [079] call       3   2   2  
7200  92008001           [080] move       2   3      
7204  1AC0FC7F           [081] jmp        -12          ; to [70]
7208  E4404401           [082] self       3   2   273  ; 1388869707
720C  E2800001           [083] call       3   2   2  
7210  1DC10000           [084] getglobal  4   3        ; keyChainWRes
fail op	35
7214  63008101           [085] close      1  
7218  1A000780           [086] jmp        29           ; to [116]
721C  1D810400           [087] getglobal  4   18       ; UISys
7220  0EC14402           [088] gettable   4   4   275  ; 1151030240
7224  4B010000           [089] newtable   5   0   0    ; array=0, hash=0
7228  9DC10000           [090] getglobal  6   3        ; keyChainWRes
722C  A4014503           [091] self       6   6   276  ; 455421500
7230  A2010001           [092] call       6   2   0  
7234  5B410000           [093] setlist    5   0   1    ; index 1 to top
7238  97018000           [094] loadbool   6   1   0    ; true
723C  22818001           [095] call       4   3   2  
7240  5D410200           [096] getglobal  5   9        ; 1074689893
7244  92010002           [097] move       6   4      
7248  62810001           [098] call       5   2   2  
724C  58410000           [099] test       5       1    ; to [101] if false
7250  1AC00180           [100] jmp        8            ; to [109]
7254  64414502           [101] self       5   4   277  ; -1344420604
7258  62810001           [102] call       5   2   2  
725C  58410000           [103] test       5       1    ; to [105] if false
7260  1AC00080           [104] jmp        4            ; to [109]
7264  5DC10200           [105] getglobal  5   11       ; 538022378
7268  99010300           [106] loadk      6   12       ; 0
726C  62410001           [107] call       5   2   1  
7270  1A80FC7F           [108] jmp        -13          ; to [96]
7274  5D810500           [109] getglobal  5   22       ; 2083004503
7278  9DC10000           [110] getglobal  6   3        ; keyChainWRes
727C  62810001           [111] call       5   2   2  
7280  93010000           [112] getupval   6   0      
7284  D2018000           [113] move       7   1      
7288  12028002           [114] move       8   5      
728C  A2418001           [115] call       6   3   1  
7290  93018000           [116] getupval   6   1      
7294  D2018000           [117] move       7   1      
7298  19020300           [118] loadk      8   12       ; 0
729C  A2418001           [119] call       6   3   1  
72A0  9DC10500           [120] getglobal  6   23       ; apostasyGlobalFlagHack
72A4  98010000           [121] test       6       0    ; to [123] if true
72A8  1A400080           [122] jmp        2            ; to [125]
72AC  9D010600           [123] getglobal  6   24       ; _G
72B0  8C81C68C           [124] settable   6   281 282  ; "ApostasyJustCompleted" 1
72B4  9D010600           [125] getglobal  6   24       ; _G
72B8  8C81C68D           [126] settable   6   283 282  ; "DisableLoadingDiorama" 1
72BC  9D010700           [127] getglobal  6   28       ; Engine
72C0  8E414703           [128] gettable   6   6   285  ; -985664686
72C4  D7018000           [129] loadbool   7   1   0    ; true
72C8  A2410001           [130] call       6   2   1  
72CC  1E008000           [131] return     0   1      
                         * constants:
72D0  1E                 sizek (30)
72D1  04                 const type 4
72D2  0B                 string size (11)
72D3  6747616D6552756C+  "gGameRul"
72DB  657300             "es\0"
                         const [0]: "gGameRules"
72DE  01                 const type 3
72DF  497363B8           const [1]: (-1201441975)
72E3  04                 const type 4
72E4  0D                 string size (13)
72E5  6B6579436861696E+  "keyChain"
72ED  4E616D6500         "Name\0"
                         const [2]: "keyChainName"
72F2  04                 const type 4
72F3  0D                 string size (13)
72F4  6B6579436861696E+  "keyChain"
72FC  5752657300         "WRes\0"
                         const [3]: "keyChainWRes"
7301  04                 const type 4
7302  08                 string size (8)
7303  67526567696F6E00   "gRegion\0"
                         const [4]: "gRegion"
730B  01                 const type 3
730C  36C033A9           const [5]: (-1456226250)
7310  04                 const type 4
7311  0C                 string size (12)
7312  706F737450726F63+  "postProc"
731A  65737300           "ess\0"
                         const [6]: "postProcess"
731E  04                 const type 4
731F  05                 string size (5)
7320  6661646500         "fade\0"
                         const [7]: "fade"
7325  03                 const type 3
7326  0000803F           const [8]: (0)
732A  01                 const type 3
732B  65770E40           const [9]: (1074689893)
732F  01                 const type 3
7330  2F8B2F7B           const [10]: (2066713391)
7334  01                 const type 3
7335  EA911120           const [11]: (538022378)
7339  03                 const type 3
733A  00000000           const [12]: (0)
733E  04                 const type 4
733F  12                 string size (18)
7340  67506C6179657250+  "gPlayerP"
7348  726F66696C654D67+  "rofileMg"
7350  7200               "r\0"
                         const [13]: "gPlayerProfileMgr"
7352  01                 const type 3
7353  1A7BEF21           const [14]: (569342746)
7357  01                 const type 3
7358  92104F65           const [15]: (1699680402)
735C  01                 const type 3
735D  FD052E6F           const [16]: (1865287165)
7361  01                 const type 3
7362  4B78C852           const [17]: (1388869707)
7366  04                 const type 4
7367  06                 string size (6)
7368  554953797300       "UISys\0"
                         const [18]: "UISys"
736E  01                 const type 3
736F  E0539B44           const [19]: (1151030240)
7373  01                 const type 3
7374  3C2E251B           const [20]: (455421500)
7378  01                 const type 3
7379  04C5DDAF           const [21]: (-1344420604)
737D  01                 const type 3
737E  5720287C           const [22]: (2083004503)
7382  04                 const type 4
7383  17                 string size (23)
7384  61706F7374617379+  "apostasy"
738C  476C6F62616C466C+  "GlobalFl"
7394  61674861636B00     "agHack\0"
                         const [23]: "apostasyGlobalFlagHack"
739B  04                 const type 4
739C  03                 string size (3)
739D  5F4700             "_G\0"
                         const [24]: "_G"
73A0  04                 const type 4
73A1  16                 string size (22)
73A2  41706F7374617379+  "Apostasy"
73AA  4A757374436F6D70+  "JustComp"
73B2  6C6574656400       "leted\0"
                         const [25]: "ApostasyJustCompleted"
73B8  01                 const type 3
73B9  01000000           const [26]: (1)
73BD  04                 const type 4
73BE  16                 string size (22)
73BF  44697361626C654C+  "DisableL"
73C7  6F6164696E674469+  "oadingDi"
73CF  6F72616D6100       "orama\0"
                         const [27]: "DisableLoadingDiorama"
73D5  04                 const type 4
73D6  07                 string size (7)
73D7  456E67696E6500     "Engine\0"
                         const [28]: "Engine"
73DE  01                 const type 3
73DF  52F33FC5           const [29]: (-985664686)
                         * functions:
73E3  00                 sizep (0)
                         * lines:
73E5  01                 sizelineinfo (131)
                         [pc] (line)
73E6  47                 [001] (71)
73E7  04                 [002] (71)
73E8  00                 [003] (71)
73E9  00                 [004] (71)
73EA  47                 [005] (71)
73EB  04                 [006] (71)
73EC  00                 [007] (71)
73ED  00                 [008] (72)
73EE  47                 [009] (75)
73EF  04                 [010] (75)
73F0  00                 [011] (75)
73F1  00                 [012] (75)
73F2  47                 [013] (75)
73F3  04                 [014] (77)
73F4  00                 [015] (77)
73F5  00                 [016] (77)
73F6  47                 [017] (77)
73F7  04                 [018] (77)
73F8  00                 [019] (77)
73F9  00                 [020] (77)
73FA  47                 [021] (78)
73FB  04                 [022] (78)
73FC  00                 [023] (78)
73FD  00                 [024] (78)
73FE  47                 [025] (80)
73FF  04                 [026] (80)
7400  00                 [027] (80)
7401  00                 [028] (80)
7402  48                 [029] (80)
7403  04                 [030] (80)
7404  00                 [031] (80)
7405  00                 [032] (81)
7406  4B                 [033] (81)
7407  04                 [034] (81)
7408  00                 [035] (81)
7409  00                 [036] (84)
740A  4B                 [037] (84)
740B  04                 [038] (84)
740C  00                 [039] (84)
740D  00                 [040] (85)
740E  4B                 [041] (85)
740F  04                 [042] (85)
7410  00                 [043] (85)
7411  00                 [044] (85)
7412  4B                 [045] (86)
7413  04                 [046] (86)
7414  00                 [047] (86)
7415  00                 [048] (87)
7416  4B                 [049] (87)
7417  04                 [050] (87)
7418  00                 [051] (87)
7419  00                 [052] (87)
741A  4D                 [053] (87)
741B  04                 [054] (90)
741C  00                 [055] (90)
741D  00                 [056] (91)
741E  4D                 [057] (91)
741F  04                 [058] (91)
7420  00                 [059] (91)
7421  00                 [060] (91)
7422  4D                 [061] (92)
7423  04                 [062] (92)
7424  00                 [063] (92)
7425  00                 [064] (93)
7426  4D                 [065] (93)
7427  04                 [066] (93)
7428  00                 [067] (93)
7429  00                 [068] (96)
742A  4D                 [069] (96)
742B  04                 [070] (97)
742C  00                 [071] (97)
742D  00                 [072] (97)
742E  4D                 [073] (97)
742F  04                 [074] (97)
7430  00                 [075] (98)
7431  00                 [076] (98)
7432  4D                 [077] (98)
7433  04                 [078] (99)
7434  00                 [079] (99)
7435  00                 [080] (99)
7436  4E                 [081] (99)
7437  04                 [082] (102)
7438  00                 [083] (102)
7439  00                 [084] (104)
743A  4E                 [085] (104)
743B  04                 [086] (104)
743C  00                 [087] (105)
743D  00                 [088] (105)
743E  4E                 [089] (105)
743F  04                 [090] (105)
7440  00                 [091] (105)
7441  00                 [092] (105)
7442  4E                 [093] (105)
7443  04                 [094] (105)
7444  00                 [095] (105)
7445  00                 [096] (106)
7446  50                 [097] (106)
7447  04                 [098] (106)
7448  00                 [099] (106)
7449  00                 [100] (106)
744A  50                 [101] (106)
744B  04                 [102] (106)
744C  00                 [103] (106)
744D  00                 [104] (106)
744E  50                 [105] (107)
744F  04                 [106] (107)
7450  00                 [107] (107)
7451  00                 [108] (107)
7452  50                 [109] (109)
7453  04                 [110] (109)
7454  00                 [111] (109)
7455  00                 [112] (110)
7456  50                 [113] (110)
7457  04                 [114] (110)
7458  00                 [115] (110)
7459  00                 [116] (113)
745A  50                 [117] (113)
745B  04                 [118] (113)
745C  00                 [119] (113)
745D  00                 [120] (116)
745E  50                 [121] (116)
745F  04                 [122] (116)
7460  00                 [123] (117)
7461  00                 [124] (117)
7462  51                 [125] (120)
7463  04                 [126] (120)
7464  00                 [127] (122)
7465  00                 [128] (122)
7466  51                 [129] (122)
7467  04                 [130] (122)
7468  00                 [131] (123)
                         * locals:
75F2  00                 sizelocvars (0)
                         * upvalues:
75F3  00                 sizeupvalues (0)
                         ** end of function **

                         * lines:
75F5  01                 sizelineinfo (162)
                         [pc] (line)
75F6  15                 [001] (21)
75F7  00                 [002] (21)
75F8  00                 [003] (21)
75F9  00                 [004] (23)
75FA  15                 [005] (23)
75FB  00                 [006] (23)
75FC  00                 [007] (24)
75FD  00                 [008] (24)
75FE  15                 [009] (24)
75FF  00                 [010] (26)
7600  00                 [011] (26)
7601  00                 [012] (26)
7602  17                 [013] (27)
7603  00                 [014] (27)
7604  00                 [015] (27)
7605  00                 [016] (28)
7606  17                 [017] (28)
7607  00                 [018] (28)
7608  00                 [019] (30)
7609  00                 [020] (30)
760A  17                 [021] (30)
760B  00                 [022] (31)
760C  00                 [023] (31)
760D  00                 [024] (31)
760E  18                 [025] (32)
760F  00                 [026] (32)
7610  00                 [027] (32)
7611  00                 [028] (33)
7612  18                 [029] (33)
7613  00                 [030] (33)
7614  00                 [031] (34)
7615  00                 [032] (34)
7616  18                 [033] (34)
7617  00                 [034] (36)
7618  00                 [035] (37)
7619  00                 [036] (38)
761A  1A                 [037] (41)
761B  00                 [038] (42)
761C  00                 [039] (43)
761D  00                 [040] (44)
761E  1A                 [041] (46)
761F  00                 [042] (46)
7620  00                 [043] (48)
7621  00                 [044] (50)
7622  1A                 [045] (51)
7623  00                 [046] (53)
7624  00                 [047] (54)
7625  00                 [048] (56)
7626  1B                 [049] (57)
7627  00                 [050] (58)
7628  00                 [051] (59)
7629  00                 [052] (61)
762A  1B                 [053] (61)
762B  00                 [054] (61)
762C  00                 [055] (62)
762D  00                 [056] (62)
762E  1B                 [057] (62)
762F  00                 [058] (63)
7630  00                 [059] (63)
7631  00                 [060] (63)
7632  1C                 [061] (64)
7633  00                 [062] (64)
7634  00                 [063] (64)
7635  00                 [064] (83)
7636  1C                 [065] (83)
7637  00                 [066] (83)
7638  00                 [067] (83)
7639  00                 [068] (83)
763A  1C                 [069] (67)
763B  00                 [070] (-33)
763C  00                 [071] (-33)
763D  00                 [072] (-33)
763E  1E                 [073] (-33)
763F  00                 [074] (-33)
7640  00                 [075] (-33)
7641  00                 [076] (-33)
7642  1E                 [077] (-33)
7643  00                 [078] (85)
7644  00                 [079] (-29)
7645  00                 [080] (-29)
7646  1E                 [081] (-31)
7647  00                 [082] (-74)
7648  00                 [083] (-74)
7649  00                 [084] (-74)
764A  1F                 [085] (-74)
764B  00                 [086] (-74)
764C  00                 [087] (-74)
764D  00                 [088] (-74)
764E  1F                 [089] (-74)
764F  00                 [090] (-27)
7650  00                 [091] (-20)
7651  00                 [092] (-20)
7652  1F                 [093] (-72)
7653  00                 [094] (84)
7654  00                 [095] (84)
7655  00                 [096] (84)
7656  20                 [097] (84)
7657  00                 [098] (84)
7658  00                 [099] (84)
7659  00                 [100] (-18)
765A  20                 [101] (-112)
765B  00                 [102] (-112)
765C  00                 [103] (-112)
765D  00                 [104] (86)
765E  20                 [105] (-101)
765F  00                 [106] (-101)
7660  00                 [107] (-101)
7661  00                 [108] (-110)
7662  21                 [109] (-96)
7663  00                 [110] (-96)
7664  00                 [111] (-99)
7665  00                 [112] (-88)
7666  21                 [113] (-88)
7667  00                 [114] (-88)
7668  00                 [115] (-88)
7669  00                 [116] (-94)
766A  21                 [117] (-64)
766B  00                 [118] (-64)
766C  00                 [119] (-64)
766D  00                 [120] (-55)
766E  22                 [121] (-55)
766F  00                 [122] (-55)
7670  00                 [123] (-55)
7671  00                 [124] (-62)
7672  22                 [125] (-47)
7673  00                 [126] (-47)
7674  00                 [127] (-47)
7675  00                 [128] (-47)
7676  22                 [129] (-53)
7677  00                 [130] (-18)
7678  00                 [131] (-18)
7679  00                 [132] (-18)
767A  24                 [133] (17)
767B  00                 [134] (17)
767C  00                 [135] (17)
767D  00                 [136] (22)
767E  25                 [137] (22)
767F  00                 [138] (19)
7680  00                 [139] (89)
7681  00                 [140] (89)
7682  26                 [141] (89)
7683  00                 [142] (89)
7684  00                 [143] (89)
7685  00                 [144] (-120)
7686  29                 [145] (-120)
7687  00                 [146] (-120)
7688  00                 [147] (91)
7689  00                 [148] (68)
768A  2A                 [149] (68)
768B  00                 [150] (68)
768C  00                 [151] (68)
768D  00                 [152] (68)
768E  2B                 [153] (68)
768F  00                 [154] (68)
7690  00                 [155] (68)
7691  00                 [156] (-118)
7692  2C                 [157] (123)
7693  00                 [158] (123)
7694  00                 [159] (123)
7695  00                 [160] (123)
7696  2E                 [161] (70)
7697  00                 [162] (123)
                         * locals:
787E  00                 sizelocvars (0)
                         * upvalues:
787F  00                 sizeupvalues (0)
                         ** end of function **

7880                     ** end of chunk **
