1	C:\wlua_dump\path\Lotus\Scripts\QuestsSacrificeQuestPlayerShip.lua
Pos   Hex Data           Description or Code
------------------------------------------------------------------------
0000                     ** source chunk: C:\wlua_dump\path\Lotus\Scripts\QuestsSacrificeQuestPlayerShip.lua
                         ** global header start **
0000  7F                 header signature: ""
0001  00                 version (major:minor hex digits)
0002  00                 format (0=official)
0003  00                 endianness (1=little endian)
0004  00                 size of int (bytes)
0005  00                 size of size_t (bytes)
0006  02                 size of Instruction (bytes)
0007  1C                 size of number (bytes)
0008  B2                 integral (1=integral)
4178
                         * number type: single
                         * x86 standard (32-bit, little endian, doubles)
                         ** global header end **
/Lotus/Interface/DiegeticFoundry.swf
/Lotus/Interface/LoadOutRedux.swf
/Lotus/Powersuits/Excalibur/ExcaliburUmbra
/Lotus/Types/Recipes/WarframeRecipes/ExcaliburUmbraBlueprint
/Lotus/Language/Suits/ExcaliburUmbraName
Lotus.Interface.LotusUtilities
Lotus.Powersuits.Operator.OperatorLib
Lotus.Scripts.Libs.StoryLib
OnCompleteStage
OnMail
ShipIntro
ShipLookAtFoundry
OnFinished
CameraTilt
ShipInstallVitruvian
ShipBuild
ShipEquip
RefreshShipDecosAfterDelay
Vitruvian2
Vitruvian3TeleportToNavigation
Vitruvian3
ShipAlignmentChoice
AllowEquippingUmbra
ShipTheEnd
ShipADayLater
Failed to complete quest stage: 
gGameData
stage
OnCompleteStage
_T
BackgroundMovie
ShowBlockingMessage
1
Retrying CompleteStage.
math
0
Failed to give completion mail: 
gGameData
keyChain
stage
OnMail
_T
BackgroundMovie
ShowBlockingMessage
1
Retrying completion mail.
math
0
_T
HideSquadOverlay
gMatchingService
_T
SquadOverlay
LeaveSquadUI

_T
syncingInventory
gFlashMgr
_T
curTransmission
QueuedTransmissions
gGameData
mOperatorCustomization
Lotus_Game
TOSS_VOICE
mItemType
gRegion
LotusHelmetAction
LotusHelmetMarker
OnFinished
gGameData
keyChain
transmissionSet
IntroWhisper
_T
curTransmission
QueuedTransmissions
gFlashMgr
_G
UIMovie_TransmissionMovie
QueueClose

touchHelmetSound
ZERO_VECTOR
postProcess
fade
cinematicWRes
blockingInputFilter
gLotusOperatorAvatarType
HideTransferenceFx
LotusHelmetTeleport
ZERO_ROTATION
LotusHelmetWarframeTeleport
SacrificeHelmetCin
StartPlaying
Intro1
DSacSceneOneShip0120OperatorVoice
lotusShipIntroSound
Engine
SP_MED
ANGRY
math
DSacSceneOneShip0150OperatorVoice
NEUTRAL
Intro2
_T
questInfo
difficulty
gGameData
mItemType
BackgroundMovie
ShowBlockingMessage
1
0
transmissionSet
Ship2_CheckFoundry
QuestResetVars
Foundry_SearchTerm
table
gFlashMgr
Ship2_FoundryChecked
DSacMOneFoundry0460OperatorVoice
_T
UnlockQuestLockedRecipes
table
gRegion
postProcess
viewShake
mShakeSpeed
mShakeStrength
mShakeFactorRot
mShakeFactorPos
math
bank
heading
transmissionSet
Ship3_OrdisVitruvian
DSacMTwoShip1000OperatorVoice
gRegion
PlugInVitruvianAction
InstallVitruvianMarker
OnFinished
gGameData
keyChain
plugInVitruvianDeco
GAME_R1_ARM3
plugInVitruvianAnim
Engine
ATMM_ANIMATION_DRIVEN
PRT_ONCE
PlugIn
plugInVitruvianSound
ZERO_VECTOR
Ship3_VitruvianConnected
EndEarly
ATMM_PHYSICS_DRIVEN
CameraTilt
_T
curTransmission
math
lightsPowerDownSound
lightsPowerUpSound
Ship3_LightsOut
_T
QuestResetVars
Foundry_SearchTerm
table
gFlashMgr
gGameData
mItemType
_T
Foundry_SearchTerm
_T
QuestResetVars
Arsenal_ForceUmbraUnlock
table
StreamShipQuestLayer
gRegion
QUESTLAYER_SacrificeArsenalCin
extraLayer
ExcaliburUmbraEquipped
gGameData
keyChain
gFlashMgr
Lotus_Game
LOT_NORMAL
SacrificeQuestBlockInput

MenuSuitAvatar
excaliburUmbraIdleAnim
SUIT_SLOT
mItemId
mItemType
gLotusOperatorAvatarType
blockingInputFilter
gDojoPlaceableDecorationType
gPetAvatarType
SacrificeArsenalCin
StartPlaying
Arsenal
GeneticLab
memoryLevel
ZERO_ROTATION
StartMemory
Execute
UmbraMemoryActivated
postProcess
fade
_T
VitruvianStage
gFlashMgr
vitruvianMovie
QueuedTransmissions
_G
UIMovie_TransmissionMovie
curTransmission
QueueClose

_T
BackgroundMovie
RefreshShipDecos

gRegion
blockingInputFilter
gLotusOperatorAvatarType
_T
HideTransferenceFx
SacrificeMemoryWakeUp
SacrificeWakeUpCin
StartPlaying
RefreshShipDecosAfterDelay
DSacPartTwoVitruvian1410OperatorVoice
transmissionSet
VitruvianStage1_Ordis3
transmissionSet
VitruvianStage2_Ordis1
gRegion
lightsFlickerSound
ZERO_VECTOR
_T
VitruvianStage2_Ordis2
DSacMThreeVitruvian1780OperatorVoice
gRegion
SacrificeWarframeNavigationTeleport
gRegion
Vitruvian3TeleportToNavigation
blockingInputFilter
DSacMFourVitruvian2060OperatorVoice
transmissionSet
VitruvianStage3_Ordis
SacrificeOperatorNavigationTeleport
gLotusOperatorAvatarType
_T
HideTransferenceFx
OverrideTransferencePos
operatorTransferenceAnim
Engine
ATMM_ANIMATION_DRIVEN
PRT_ONCE
riftJumpFx
OPERATOR_TRANSFERENCE
operatorTransferenceFx
EMPTY_SYMBOL
SolarMapOrigin
gUIConsoleTriggerType
DSacMFourVitruvian2090OperatorVoice
gRegion
fade
gGameData
blockingInputFilter
transmissionSet
AlignmentChoice_Ordis
DSacMFiveShip2660OperatorVoice
_T
TaggedDialog
AlignmentChoice
mName

mCallback
alignmentChoiceTriggerType
ZERO_ROTATION
Lotus_Game
AT_POSITIVE
AlignmentChoice_Sun
AT_NEUTRAL
AlignmentChoice_Neutral
AT_NEGATIVE
AlignmentChoice_Moon
SacrificeQuestPlayerShip.lua -- Error: Invalid alignment selection
Alignment_Ship
/Lotus/Language/Sacrifice/Alignment_Ship_Sun
/Lotus/Language/Sacrifice/Alignment_Ship_Neutral
/Lotus/Language/Sacrifice/Alignment_Ship_Moon
open
alignmentOpenSound
focus
alignmentFocusSound
select
alignmentSelectSound
_T
QuestResetVars
Arsenal_ForceUmbraUnlock
allowEquippingUmbraSword
Arsenal_ForceUmbraSwordUnlock
table
Sacrifice - A Day Later! -- Started!
operatorTwinDecoType
operatorTwinVisibilityTriggerType
gRegion
OperatorTwin
SHIP THE END -- Started!
DSacMSixShip3040OperatorVoice
transmissionSet
ShipEnd_Ordis1
DSacMSixShip3070OperatorVoice
SHIP THE END -- Complete!
gGameData
SacrificeADayLater
_T
CheckQuestCompletionCache
keyChain
                         
0001                     ** function [0] definition (level 1)
                         ** start of function **
0001  00                 string size (0)
                         source name: (none)
0002  00                 line defined (0)
0003  00                 last line defined (0)
0004  00                 nups (0)
0005  00                 numparams (0)
0006  02                 is_vararg (2)
0007  1C                 maxstacksize (28)
                         * code:
0009  01                 sizecode (178)
000A  1D000000           [001] getglobal  0   0        ; 738251817
000E  59400000           [002] loadk      1   1        ; "/Lotus/Interface/DiegeticFoundry.swf"
0012  22800001           [003] call       0   2   2  
0016  5D000000           [004] getglobal  1   0        ; 738251817
001A  99800000           [005] loadk      2   2        ; "/Lotus/Interface/LoadOutRedux.swf"
001E  62800001           [006] call       1   2   2  
0022  9D000000           [007] getglobal  2   0        ; 738251817
0026  D9C00000           [008] loadk      3   3        ; "/Lotus/Powersuits/Excalibur/ExcaliburUmbra"
002A  A2800001           [009] call       2   2   2  
002E  DD000000           [010] getglobal  3   0        ; 738251817
0032  19010100           [011] loadk      4   4        ; "/Lotus/Types/Recipes/WarframeRecipes/ExcaliburUmbraBlueprint"
0036  E2800001           [012] call       3   2   2  
003A  19410100           [013] loadk      4   5        ; "/Lotus/Language/Suits/ExcaliburUmbraName"
003E  46018004           [014] loadnil    5   9      
0042  9D820100           [015] getglobal  10  6        ; 849075268
0046  D9C20100           [016] loadk      11  7        ; "Lotus.Interface.LotusUtilities"
004A  A2820001           [017] call       10  2   2  
004E  DD820100           [018] getglobal  11  6        ; 849075268
0052  19030200           [019] loadk      12  8        ; "Lotus.Powersuits.Operator.OperatorLib"
0056  E2820001           [020] call       11  2   2  
005A  1D830100           [021] getglobal  12  6        ; 849075268
005E  59430200           [022] loadk      13  9        ; "Lotus.Scripts.Libs.StoryLib"
0062  22830001           [023] call       12  2   2  
0066  65030000           [024] closure    13  0      
006A  12008002           [025] move       0   5      
006E  12000003           [026] move       0   6      
0072  60830200           [027] setglobal  13  10       ; OnCompleteStage
0076  60C30200           [028] setglobal  13  11       ; -1791265863
007A  65430000           [029] closure    13  1      
007E  12008002           [030] move       0   5      
0082  12000003           [031] move       0   6      
0086  12000005           [032] move       0   10     
008A  A5830000           [033] closure    14  2      
008E  12008003           [034] move       0   7      
0092  12000004           [035] move       0   8      
0096  A0030300           [036] setglobal  14  12       ; OnMail
009A  A0430300           [037] setglobal  14  13       ; 1307283895
009E  A5C30000           [038] closure    14  3      
00A2  12008003           [039] move       0   7      
00A6  12000004           [040] move       0   8      
00AA  12000005           [041] move       0   10     
00AE  E5030100           [042] closure    15  4      
00B2  12000005           [043] move       0   10     
00B6  25440100           [044] closure    16  5      
00BA  65840100           [045] closure    17  6      
00BE  A5C40100           [046] closure    18  7      
00C2  E5040200           [047] closure    19  8      
00C6  25450200           [048] closure    20  9      
00CA  12008009           [049] move       0   19     
00CE  65850200           [050] closure    21  10     
00D2  12008004           [051] move       0   9      
00D6  12000005           [052] move       0   10     
00DA  12000008           [053] move       0   16     
00DE  12000006           [054] move       0   12     
00E2  12008005           [055] move       0   11     
00E6  12008009           [056] move       0   19     
00EA  1200000A           [057] move       0   20     
00EE  12008006           [058] move       0   13     
00F2  60850300           [059] setglobal  21  14       ; ShipIntro
00F6  60C50300           [060] setglobal  21  15       ; -1194509974
00FA  65C50200           [061] closure    21  11     
00FE  12008008           [062] move       0   17     
0102  12008001           [063] move       0   3      
0106  12000005           [064] move       0   10     
010A  12000002           [065] move       0   4      
010E  12000000           [066] move       0   0      
0112  12000009           [067] move       0   18     
0116  1200000A           [068] move       0   20     
011A  12008006           [069] move       0   13     
011E  60050400           [070] setglobal  21  16       ; ShipLookAtFoundry
0122  60450400           [071] setglobal  21  17       ; -943750816
0126  65050300           [072] closure    21  12     
012A  12008001           [073] move       0   3      
012E  A5450300           [074] closure    22  13     
0132  12008004           [075] move       0   9      
0136  A0850400           [076] setglobal  22  18       ; OnFinished
013A  A0C50400           [077] setglobal  22  19       ; 441762704
013E  8605000B           [078] loadnil    22  22     
0142  D7050000           [079] loadbool   23  0   0    ; false
0146  25860300           [080] closure    24  14     
014A  1200000B           [081] move       0   22     
014E  1200800B           [082] move       0   23     
0152  20060500           [083] setglobal  24  20       ; CameraTilt
0156  20460500           [084] setglobal  24  21       ; 619994533
015A  25C60300           [085] closure    24  15     
015E  12008008           [086] move       0   17     
0162  1200000A           [087] move       0   20     
0166  12000005           [088] move       0   10     
016A  12000009           [089] move       0   18     
016E  12008004           [090] move       0   9      
0172  1200000B           [091] move       0   22     
0176  1200800B           [092] move       0   23     
017A  12008006           [093] move       0   13     
017E  20860500           [094] setglobal  24  22       ; ShipInstallVitruvian
0182  20C60500           [095] setglobal  24  23       ; 1833315764
0186  25060400           [096] closure    24  16     
018A  12000002           [097] move       0   4      
018E  1200800A           [098] move       0   21     
0192  12000001           [099] move       0   2      
0196  12000000           [100] move       0   0      
019A  12008006           [101] move       0   13     
019E  20060600           [102] setglobal  24  24       ; ShipBuild
01A2  20460600           [103] setglobal  24  25       ; 1905561542
01A6  0606000C           [104] loadnil    24  24     
01AA  65460400           [105] closure    25  17     
01AE  1200800A           [106] move       0   21     
01B2  12008000           [107] move       0   1      
01B6  12000001           [108] move       0   2      
01BA  12000008           [109] move       0   16     
01BE  12008005           [110] move       0   11     
01C2  12008009           [111] move       0   19     
01C6  12008007           [112] move       0   15     
01CA  1200000C           [113] move       0   24     
01CE  12008006           [114] move       0   13     
01D2  60860600           [115] setglobal  25  26       ; ShipEquip
01D6  60C60600           [116] setglobal  25  27       ; -342755740
01DA  65860400           [117] closure    25  18     
01DE  12008007           [118] move       0   15     
01E2  A5C60400           [119] closure    26  19     
01E6  A0060700           [120] setglobal  26  28       ; RefreshShipDecosAfterDelay
01EA  A0460700           [121] setglobal  26  29       ; 645505317
01EE  25060500           [122] closure    24  20     
01F2  12008009           [123] move       0   19     
01F6  1200800C           [124] move       0   25     
01FA  12000005           [125] move       0   10     
01FE  1200000A           [126] move       0   20     
0202  12000009           [127] move       0   18     
0206  A5460500           [128] closure    26  21     
020A  12008008           [129] move       0   17     
020E  1200800C           [130] move       0   25     
0212  1200000A           [131] move       0   20     
0216  12000005           [132] move       0   10     
021A  12000009           [133] move       0   18     
021E  12008006           [134] move       0   13     
0222  A0860700           [135] setglobal  26  30       ; Vitruvian2
0226  A0C60700           [136] setglobal  26  31       ; -934019817
022A  A5860500           [137] closure    26  22     
022E  A0060800           [138] setglobal  26  32       ; Vitruvian3TeleportToNavigation
0232  A0460800           [139] setglobal  26  33       ; -382011490
0236  A5C60500           [140] closure    26  23     
023A  12008008           [141] move       0   17     
023E  12008009           [142] move       0   19     
0242  1200800C           [143] move       0   25     
0246  1200000A           [144] move       0   20     
024A  12000005           [145] move       0   10     
024E  12000009           [146] move       0   18     
0252  12008006           [147] move       0   13     
0256  A0860800           [148] setglobal  26  34       ; Vitruvian3
025A  A0C60800           [149] setglobal  26  35       ; 1282031418
025E  A5060600           [150] closure    26  24     
0262  12008008           [151] move       0   17     
0266  12000005           [152] move       0   10     
026A  12000009           [153] move       0   18     
026E  1200000A           [154] move       0   20     
0272  12008006           [155] move       0   13     
0276  A0060900           [156] setglobal  26  36       ; ShipAlignmentChoice
027A  A0460900           [157] setglobal  26  37       ; 2045789230
027E  A5460600           [158] closure    26  25     
0282  1200800A           [159] move       0   21     
0286  A0860900           [160] setglobal  26  38       ; AllowEquippingUmbra
028A  A0C60900           [161] setglobal  26  39       ; 1230673853
028E  A5860600           [162] closure    26  26     
0292  12008008           [163] move       0   17     
0296  12008005           [164] move       0   11     
029A  E5C60600           [165] closure    27  27     
029E  12008008           [166] move       0   17     
02A2  1200000A           [167] move       0   20     
02A6  12000005           [168] move       0   10     
02AA  12000009           [169] move       0   18     
02AE  12000007           [170] move       0   14     
02B2  12008006           [171] move       0   13     
02B6  E0060A00           [172] setglobal  27  40       ; ShipTheEnd
02BA  E0460A00           [173] setglobal  27  41       ; -1711137181
02BE  E5060700           [174] closure    27  28     
02C2  1200000D           [175] move       0   26     
02C6  E0860A00           [176] setglobal  27  42       ; ShipADayLater
02CA  E0C60A00           [177] setglobal  27  43       ; -743312433
02CE  1E008000           [178] return     0   1      
                         * constants:
02D2  2C                 sizek (44)
02D3  01                 const type 3
02D4  29D4002C           const [0]: (738251817)
02D8  04                 const type 4
02D9  25                 string size (37)
02DA  2F4C6F7475732F49+  "/Lotus/I"
02E2  6E74657266616365+  "nterface"
02EA  2F44696567657469+  "/Diegeti"
02F2  63466F756E647279+  "cFoundry"
02FA  2E73776600         ".swf\0"
                         const [1]: "/Lotus/Interface/DiegeticFoundry.swf"
02FF  04                 const type 4
0300  22                 string size (34)
0301  2F4C6F7475732F49+  "/Lotus/I"
0309  6E74657266616365+  "nterface"
0311  2F4C6F61644F7574+  "/LoadOut"
0319  52656475782E7377+  "Redux.sw"
0321  6600               "f\0"
                         const [2]: "/Lotus/Interface/LoadOutRedux.swf"
0323  04                 const type 4
0324  2B                 string size (43)
0325  2F4C6F7475732F50+  "/Lotus/P"
032D  6F77657273756974+  "owersuit"
0335  732F457863616C69+  "s/Excali"
033D  6275722F45786361+  "bur/Exca"
0345  6C69627572556D62+  "liburUmb"
034D  726100             "ra\0"
                         const [3]: "/Lotus/Powersuits/Excalibur/ExcaliburUmbra"
0350  04                 const type 4
0351  3D                 string size (61)
0352  2F4C6F7475732F54+  "/Lotus/T"
035A  797065732F526563+  "ypes/Rec"
0362  697065732F576172+  "ipes/War"
036A  6672616D65526563+  "frameRec"
0372  697065732F457863+  "ipes/Exc"
037A  616C69627572556D+  "aliburUm"
0382  627261426C756570+  "braBluep"
038A  72696E7400         "rint\0"
                         const [4]: "/Lotus/Types/Recipes/WarframeRecipes/ExcaliburUmbraBlueprint"
038F  04                 const type 4
0390  29                 string size (41)
0391  2F4C6F7475732F4C+  "/Lotus/L"
0399  616E67756167652F+  "anguage/"
03A1  53756974732F4578+  "Suits/Ex"
03A9  63616C6962757255+  "caliburU"
03B1  6D6272614E616D65+  "mbraName"
03B9  00                 "\0"
                         const [5]: "/Lotus/Language/Suits/ExcaliburUmbraName"
03BA  01                 const type 3
03BB  44DC9B32           const [6]: (849075268)
03BF  04                 const type 4
03C0  1F                 string size (31)
03C1  4C6F7475732E496E+  "Lotus.In"
03C9  746572666163652E+  "terface."
03D1  4C6F747573557469+  "LotusUti"
03D9  6C697469657300     "lities\0"
                         const [7]: "Lotus.Interface.LotusUtilities"
03E0  04                 const type 4
03E1  26                 string size (38)
03E2  4C6F7475732E506F+  "Lotus.Po"
03EA  7765727375697473+  "wersuits"
03F2  2E4F70657261746F+  ".Operato"
03FA  722E4F7065726174+  "r.Operat"
0402  6F724C696200       "orLib\0"
                         const [8]: "Lotus.Powersuits.Operator.OperatorLib"
0408  04                 const type 4
0409  1C                 string size (28)
040A  4C6F7475732E5363+  "Lotus.Sc"
0412  72697074732E4C69+  "ripts.Li"
041A  62732E53746F7279+  "bs.Story"
0422  4C696200           "Lib\0"
                         const [9]: "Lotus.Scripts.Libs.StoryLib"
0426  04                 const type 4
0427  10                 string size (16)
0428  4F6E436F6D706C65+  "OnComple"
0430  7465537461676500   "teStage\0"
                         const [10]: "OnCompleteStage"
0438  01                 const type 3
0439  B9733B95           const [11]: (-1791265863)
043D  04                 const type 4
043E  07                 string size (7)
043F  4F6E4D61696C00     "OnMail\0"
                         const [12]: "OnMail"
0446  01                 const type 3
0447  B791EB4D           const [13]: (1307283895)
044B  04                 const type 4
044C  0A                 string size (10)
044D  53686970496E7472+  "ShipIntr"
0455  6F00               "o\0"
                         const [14]: "ShipIntro"
0457  01                 const type 3
0458  6A39CDB8           const [15]: (-1194509974)
045C  04                 const type 4
045D  12                 string size (18)
045E  536869704C6F6F6B+  "ShipLook"
0466  4174466F756E6472+  "AtFoundr"
046E  7900               "y\0"
                         const [16]: "ShipLookAtFoundry"
0470  01                 const type 3
0471  6081BFC7           const [17]: (-943750816)
0475  04                 const type 4
0476  0B                 string size (11)
0477  4F6E46696E697368+  "OnFinish"
047F  656400             "ed\0"
                         const [18]: "OnFinished"
0482  01                 const type 3
0483  90C3541A           const [19]: (441762704)
0487  04                 const type 4
0488  0B                 string size (11)
0489  43616D6572615469+  "CameraTi"
0491  6C7400             "lt\0"
                         const [20]: "CameraTilt"
0494  01                 const type 3
0495  A55DF424           const [21]: (619994533)
0499  04                 const type 4
049A  15                 string size (21)
049B  53686970496E7374+  "ShipInst"
04A3  616C6C5669747275+  "allVitru"
04AB  7669616E00         "vian\0"
                         const [22]: "ShipInstallVitruvian"
04B0  01                 const type 3
04B1  B42D466D           const [23]: (1833315764)
04B5  04                 const type 4
04B6  0A                 string size (10)
04B7  536869704275696C+  "ShipBuil"
04BF  6400               "d\0"
                         const [24]: "ShipBuild"
04C1  01                 const type 3
04C2  C68F9471           const [25]: (1905561542)
04C6  04                 const type 4
04C7  0A                 string size (10)
04C8  5368697045717569+  "ShipEqui"
04D0  7000               "p\0"
                         const [26]: "ShipEquip"
04D2  01                 const type 3
04D3  64F691EB           const [27]: (-342755740)
04D7  04                 const type 4
04D8  1B                 string size (27)
04D9  5265667265736853+  "RefreshS"
04E1  6869704465636F73+  "hipDecos"
04E9  416674657244656C+  "AfterDel"
04F1  617900             "ay\0"
                         const [28]: "RefreshShipDecosAfterDelay"
04F4  01                 const type 3
04F5  25A17926           const [29]: (645505317)
04F9  04                 const type 4
04FA  0B                 string size (11)
04FB  5669747275766961+  "Vitruvia"
0503  6E3200             "n2\0"
                         const [30]: "Vitruvian2"
0506  01                 const type 3
0507  17FD53C8           const [31]: (-934019817)
050B  04                 const type 4
050C  1F                 string size (31)
050D  5669747275766961+  "Vitruvia"
0515  6E3354656C65706F+  "n3Telepo"
051D  7274546F4E617669+  "rtToNavi"
0525  676174696F6E00     "gation\0"
                         const [32]: "Vitruvian3TeleportToNavigation"
052C  01                 const type 3
052D  9EF73AE9           const [33]: (-382011490)
0531  04                 const type 4
0532  0B                 string size (11)
0533  5669747275766961+  "Vitruvia"
053B  6E3300             "n3\0"
                         const [34]: "Vitruvian3"
053E  01                 const type 3
053F  3A3F6A4C           const [35]: (1282031418)
0543  04                 const type 4
0544  14                 string size (20)
0545  53686970416C6967+  "ShipAlig"
054D  6E6D656E7443686F+  "nmentCho"
0555  69636500           "ice\0"
                         const [36]: "ShipAlignmentChoice"
0559  01                 const type 3
055A  2E44F079           const [37]: (2045789230)
055E  04                 const type 4
055F  14                 string size (20)
0560  416C6C6F77457175+  "AllowEqu"
0568  697070696E67556D+  "ippingUm"
0570  62726100           "bra\0"
                         const [38]: "AllowEquippingUmbra"
0574  01                 const type 3
0575  BD975A49           const [39]: (1230673853)
0579  04                 const type 4
057A  0B                 string size (11)
057B  5368697054686545+  "ShipTheE"
0583  6E6400             "nd\0"
                         const [40]: "ShipTheEnd"
0586  01                 const type 3
0587  631E029A           const [41]: (-1711137181)
058B  04                 const type 4
058C  0E                 string size (14)
058D  5368697041446179+  "ShipADay"
0595  4C6174657200       "Later\0"
                         const [42]: "ShipADayLater"
059B  01                 const type 3
059C  CFF3B1D3           const [43]: (-743312433)
                         * functions:
05A0  1D                 sizep (29)
                         
05A1                     ** function [0] definition (level 2)
                         ** start of function **
05A1  00                 string size (0)
                         source name: (none)
05A2  32                 line defined (50)
05A3  39                 last line defined (57)
05A4  02                 nups (2)
05A5  02                 numparams (2)
05A6  00                 is_vararg (0)
05A7  05                 maxstacksize (5)
                         * code:
05A8  0D                 sizecode (13)
05A9  18000000           [01] test       0       0    ; to [3] if true
05AD  1A800080           [02] jmp        3            ; to [6]
05B1  97008000           [03] loadbool   2   1   0    ; true
fail op	8
05B5  88000000           [04] setupval   2   0      
05B9  1A800180           [05] jmp        7            ; to [13]
05BD  97008000           [06] loadbool   2   1   0    ; true
fail op	8
05C1  88008000           [07] setupval   2   1      
05C5  9D000000           [08] getglobal  2   0        ; -1817107093
05C9  D9400000           [09] loadk      3   1        ; "Failed to complete quest stage: "
05CD  12018000           [10] move       4   1      
05D1  C2008101           [11] concat     3   3   4  
05D5  A2400001           [12] call       2   2   1  
05D9  1E008000           [13] return     0   1      
                         * constants:
05DD  02                 sizek (2)
05DE  01                 const type 3
05DF  6B25B193           const [0]: (-1817107093)
05E3  04                 const type 4
05E4  21                 string size (33)
05E5  4661696C65642074+  "Failed t"
05ED  6F20636F6D706C65+  "o comple"
05F5  7465207175657374+  "te quest"
05FD  2073746167653A20+  " stage: "
0605  00                 "\0"
                         const [1]: "Failed to complete quest stage: "
                         * functions:
0606  00                 sizep (0)
                         * lines:
0607  0D                 sizelineinfo (13)
                         [pc] (line)
0608  33                 [01] (51)
0609  00                 [02] (51)
060A  00                 [03] (52)
060B  00                 [04] (52)
060C  33                 [05] (52)
060D  00                 [06] (54)
060E  00                 [07] (54)
060F  00                 [08] (55)
0610  34                 [09] (55)
0611  00                 [10] (55)
0612  00                 [11] (55)
0613  00                 [12] (55)
0614  34                 [13] (57)
                         * locals:
063C  00                 sizelocvars (0)
                         * upvalues:
063D  00                 sizeupvalues (0)
                         ** end of function **

                         
063E                     ** function [1] definition (level 2)
                         ** start of function **
063E  00                 string size (0)
                         source name: (none)
063F  3B                 line defined (59)
0640  5E                 last line defined (94)
0641  03                 nups (3)
0642  00                 numparams (0)
0643  00                 is_vararg (0)
0644  07                 maxstacksize (7)
                         * code:
0645  4D                 sizecode (77)
0646  1D000000           [01] getglobal  0   0        ; 1074689893
064A  5D400000           [02] getglobal  1   1        ; gGameData
064E  22800001           [03] call       0   2   2  
0652  18000000           [04] test       0       0    ; to [6] if true
0656  1AC00080           [05] jmp        4            ; to [10]
065A  1D800000           [06] getglobal  0   2        ; 538022378
065E  59C00000           [07] loadk      1   3        ; 0
0662  22400001           [08] call       0   2   1  
0666  1A80FD7F           [09] jmp        -9           ; to [1]
066A  17000000           [10] loadbool   0   0   0    ; false
fail op	8
066E  08000000           [11] setupval   0   0      
0672  17000000           [12] loadbool   0   0   0    ; false
fail op	8
0676  08008000           [13] setupval   0   1      
067A  19000100           [14] loadk      0   4        ; 0
067E  59C00000           [15] loadk      1   3        ; 0
0682  97000000           [16] loadbool   2   0   0    ; false
0686  DD400000           [17] getglobal  3   1        ; gGameData
068A  E440C101           [18] self       3   3   261  ; 1139718821
068E  5D810100           [19] getglobal  5   6        ; stage
0692  99C10100           [20] loadk      6   7        ; "OnCompleteStage"
0696  E2400002           [21] call       3   4   1  
069A  D3000000           [22] getupval   3   0      
069E  D8400000           [23] test       3       1    ; to [25] if false
06A2  1AC00980           [24] jmp        40           ; to [65]
06A6  DD800000           [25] getglobal  3   2        ; 538022378
06AA  19C10000           [26] loadk      4   3        ; 0
06AE  E2400001           [27] call       3   2   1  
06B2  DD000200           [28] getglobal  3   8        ; 1289681407
06B6  E2808000           [29] call       3   1   2  
06BA  43C08000           [30] add        1   1   3  
06BE  98400000           [31] test       2       1    ; to [33] if false
06C2  1A000280           [32] jmp        9            ; to [42]
fail op	21
06C6  15408084           [33] concat     0   265 1  
06CA  1A800180           [34] jmp        7            ; to [42]
06CE  97008000           [35] loadbool   2   1   0    ; true
06D2  DD800200           [36] getglobal  3   10       ; _T
06D6  CEC0C201           [37] gettable   3   3   267  ; "BackgroundMovie"
06DA  E400C301           [38] self       3   3   268  ; 1167009705
06DE  59410300           [39] loadk      5   13       ; "ShowBlockingMessage"
06E2  99810300           [40] loadk      6   14       ; "1"
06E6  E2400002           [41] call       3   4   1  
06EA  D3008000           [42] getupval   3   1      
06EE  D8000000           [43] test       3       0    ; to [45] if true
06F2  1A00FA7F           [44] jmp        -23          ; to [22]
fail op	21
06F6  15400000           [45] concat     0   0   1  
06FA  1A80F97F           [46] jmp        -25          ; to [22]
06FE  D7000000           [47] loadbool   3   0   0    ; false
fail op	8
0702  C8008000           [48] setupval   3   1      
0706  59C00000           [49] loadk      1   3        ; 0
070A  DDC00300           [50] getglobal  3   15       ; -1817107093
070E  19010400           [51] loadk      4   16       ; "Retrying CompleteStage."
0712  E2400001           [52] call       3   2   1  
0716  DD400000           [53] getglobal  3   1        ; gGameData
071A  E440C101           [54] self       3   3   261  ; 1139718821
071E  5D810100           [55] getglobal  5   6        ; stage
0722  99C10100           [56] loadk      6   7        ; "OnCompleteStage"
0726  E2400002           [57] call       3   4   1  
072A  DD400400           [58] getglobal  3   17       ; math
072E  CE80C401           [59] gettable   3   3   274  ; 1710846250
0732  04C14400           [60] mul        4   0   275  ; 0
0736  59010500           [61] loadk      5   20       ; 0
073A  E2808001           [62] call       3   3   2  
073E  12008001           [63] move       0   3      
0742  1A00F57F           [64] jmp        -43          ; to [22]
0746  98000000           [65] test       2       0    ; to [67] if true
074A  1A400180           [66] jmp        6            ; to [73]
074E  DD800200           [67] getglobal  3   10       ; _T
0752  CEC0C201           [68] gettable   3   3   267  ; "BackgroundMovie"
0756  E400C301           [69] self       3   3   268  ; 1167009705
075A  59410300           [70] loadk      5   13       ; "ShowBlockingMessage"
075E  99410500           [71] loadk      6   21       ; "0"
0762  E2400002           [72] call       3   4   1  
0766  D3000001           [73] getupval   3   2      
076A  CE80C501           [74] gettable   3   3   278  ; -1405662448
076E  17018000           [75] loadbool   4   1   0    ; true
0772  E2400001           [76] call       3   2   1  
0776  1E008000           [77] return     0   1      
                         * constants:
077A  17                 sizek (23)
077B  01                 const type 3
077C  65770E40           const [0]: (1074689893)
0780  04                 const type 4
0781  0A                 string size (10)
0782  6747616D65446174+  "gGameDat"
078A  6100               "a\0"
                         const [1]: "gGameData"
078C  01                 const type 3
078D  EA911120           const [2]: (538022378)
0791  03                 const type 3
0792  00000000           const [3]: (0)
0796  03                 const type 3
0797  0000A040           const [4]: (0)
079B  01                 const type 3
079C  A5BAEE43           const [5]: (1139718821)
07A0  04                 const type 4
07A1  06                 string size (6)
07A2  737461676500       "stage\0"
                         const [6]: "stage"
07A8  04                 const type 4
07A9  10                 string size (16)
07AA  4F6E436F6D706C65+  "OnComple"
07B2  7465537461676500   "teStage\0"
                         const [7]: "OnCompleteStage"
07BA  01                 const type 3
07BB  FFF9DE4C           const [8]: (1289681407)
07BF  03                 const type 3
07C0  0000803F           const [9]: (0)
07C4  04                 const type 4
07C5  03                 string size (3)
07C6  5F5400             "_T\0"
                         const [10]: "_T"
07C9  04                 const type 4
07CA  10                 string size (16)
07CB  4261636B67726F75+  "Backgrou"
07D3  6E644D6F76696500   "ndMovie\0"
                         const [11]: "BackgroundMovie"
07DB  01                 const type 3
07DC  A9278F45           const [12]: (1167009705)
07E0  04                 const type 4
07E1  14                 string size (20)
07E2  53686F77426C6F63+  "ShowBloc"
07EA  6B696E674D657373+  "kingMess"
07F2  61676500           "age\0"
                         const [13]: "ShowBlockingMessage"
07F6  04                 const type 4
07F7  02                 string size (2)
07F8  3100               "1\0"
                         const [14]: "1"
07FA  01                 const type 3
07FB  6B25B193           const [15]: (-1817107093)
07FF  04                 const type 4
0800  18                 string size (24)
0801  5265747279696E67+  "Retrying"
0809  20436F6D706C6574+  " Complet"
0811  6553746167652E00   "eStage.\0"
                         const [16]: "Retrying CompleteStage."
0819  04                 const type 4
081A  05                 string size (5)
081B  6D61746800         "math\0"
                         const [17]: "math"
0820  01                 const type 3
0821  2A71F965           const [18]: (1710846250)
0825  03                 const type 3
0826  00000040           const [19]: (0)
082A  03                 const type 3
082B  00007042           const [20]: (0)
082F  04                 const type 4
0830  02                 string size (2)
0831  3000               "0\0"
                         const [21]: "0"
0833  01                 const type 3
0834  104B37AC           const [22]: (-1405662448)
                         * functions:
0838  00                 sizep (0)
                         * lines:
0839  4D                 sizelineinfo (77)
                         [pc] (line)
083A  3C                 [01] (60)
083B  00                 [02] (60)
083C  00                 [03] (60)
083D  00                 [04] (60)
083E  3C                 [05] (60)
083F  00                 [06] (61)
0840  00                 [07] (61)
0841  00                 [08] (61)
0842  3C                 [09] (61)
0843  00                 [10] (64)
0844  00                 [11] (64)
0845  00                 [12] (65)
0846  3C                 [13] (65)
0847  00                 [14] (67)
0848  00                 [15] (68)
0849  00                 [16] (69)
084A  3C                 [17] (71)
084B  00                 [18] (71)
084C  00                 [19] (71)
084D  00                 [20] (71)
084E  3D                 [21] (71)
084F  00                 [22] (72)
0850  00                 [23] (72)
0851  00                 [24] (72)
0852  3D                 [25] (73)
0853  00                 [26] (73)
0854  00                 [27] (73)
0855  00                 [28] (74)
0856  3D                 [29] (74)
0857  00                 [30] (74)
0858  00                 [31] (76)
0859  00                 [32] (76)
085A  3D                 [33] (76)
085B  00                 [34] (76)
085C  00                 [35] (77)
085D  00                 [36] (78)
085E  40                 [37] (78)
085F  00                 [38] (78)
0860  00                 [39] (78)
0861  00                 [40] (78)
0862  40                 [41] (78)
0863  00                 [42] (80)
0864  00                 [43] (80)
0865  00                 [44] (80)
0866  41                 [45] (80)
0867  00                 [46] (80)
0868  00                 [47] (81)
0869  00                 [48] (81)
086A  41                 [49] (82)
086B  00                 [50] (83)
086C  00                 [51] (83)
086D  00                 [52] (83)
086E  43                 [53] (84)
086F  00                 [54] (84)
0870  00                 [55] (84)
0871  00                 [56] (84)
0872  44                 [57] (84)
0873  00                 [58] (85)
0874  00                 [59] (85)
0875  00                 [60] (85)
0876  45                 [61] (85)
0877  00                 [62] (85)
0878  00                 [63] (85)
0879  00                 [64] (86)
087A  47                 [65] (89)
087B  00                 [66] (89)
087C  00                 [67] (90)
087D  00                 [68] (90)
087E  47                 [69] (90)
087F  00                 [70] (90)
0880  00                 [71] (90)
0881  00                 [72] (90)
0882  47                 [73] (93)
0883  00                 [74] (93)
0884  00                 [75] (93)
0885  00                 [76] (93)
0886  47                 [77] (94)
                         * locals:
096E  00                 sizelocvars (0)
                         * upvalues:
096F  00                 sizeupvalues (0)
                         ** end of function **

                         
0970                     ** function [2] definition (level 2)
                         ** start of function **
0970  00                 string size (0)
                         source name: (none)
0971  60                 line defined (96)
0972  67                 last line defined (103)
0973  02                 nups (2)
0974  02                 numparams (2)
0975  00                 is_vararg (0)
0976  05                 maxstacksize (5)
                         * code:
0977  0D                 sizecode (13)
0978  18000000           [01] test       0       0    ; to [3] if true
097C  1A800080           [02] jmp        3            ; to [6]
0980  97008000           [03] loadbool   2   1   0    ; true
fail op	8
0984  88000000           [04] setupval   2   0      
0988  1A800180           [05] jmp        7            ; to [13]
098C  97008000           [06] loadbool   2   1   0    ; true
fail op	8
0990  88008000           [07] setupval   2   1      
0994  9D000000           [08] getglobal  2   0        ; -1817107093
0998  D9400000           [09] loadk      3   1        ; "Failed to give completion mail: "
099C  12018000           [10] move       4   1      
09A0  C2008101           [11] concat     3   3   4  
09A4  A2400001           [12] call       2   2   1  
09A8  1E008000           [13] return     0   1      
                         * constants:
09AC  02                 sizek (2)
09AD  01                 const type 3
09AE  6B25B193           const [0]: (-1817107093)
09B2  04                 const type 4
09B3  21                 string size (33)
09B4  4661696C65642074+  "Failed t"
09BC  6F20676976652063+  "o give c"
09C4  6F6D706C6574696F+  "ompletio"
09CC  6E206D61696C3A20+  "n mail: "
09D4  00                 "\0"
                         const [1]: "Failed to give completion mail: "
                         * functions:
09D5  00                 sizep (0)
                         * lines:
09D6  0D                 sizelineinfo (13)
                         [pc] (line)
09D7  61                 [01] (97)
09D8  00                 [02] (97)
09D9  00                 [03] (98)
09DA  00                 [04] (98)
09DB  61                 [05] (98)
09DC  00                 [06] (100)
09DD  00                 [07] (100)
09DE  00                 [08] (101)
09DF  62                 [09] (101)
09E0  00                 [10] (101)
09E1  00                 [11] (101)
09E2  00                 [12] (101)
09E3  62                 [13] (103)
                         * locals:
0A0B  00                 sizelocvars (0)
                         * upvalues:
0A0C  00                 sizeupvalues (0)
                         ** end of function **

                         
0A0D                     ** function [3] definition (level 2)
                         ** start of function **
0A0D  00                 string size (0)
                         source name: (none)
0A0E  69                 line defined (105)
0A0F  90                 last line defined (144)
0A10  01                 nups (3)
0A11  03                 numparams (0)
0A12  00                 is_vararg (0)
0A13  00                 maxstacksize (8)
                         * code:
0A15  5A                 sizecode (90)
0A16  1D000000           [01] getglobal  0   0        ; 1074689893
0A1A  5D400000           [02] getglobal  1   1        ; gGameData
0A1E  22800001           [03] call       0   2   2  
0A22  18000000           [04] test       0       0    ; to [6] if true
0A26  1AC00080           [05] jmp        4            ; to [10]
0A2A  1D800000           [06] getglobal  0   2        ; 538022378
0A2E  59C00000           [07] loadk      1   3        ; 0
0A32  22400001           [08] call       0   2   1  
0A36  1A80FD7F           [09] jmp        -9           ; to [1]
0A3A  17000000           [10] loadbool   0   0   0    ; false
fail op	8
0A3E  08000000           [11] setupval   0   0      
0A42  17000000           [12] loadbool   0   0   0    ; false
fail op	8
0A46  08008000           [13] setupval   0   1      
0A4A  19000100           [14] loadk      0   4        ; 0
0A4E  59C00000           [15] loadk      1   3        ; 0
0A52  97000000           [16] loadbool   2   0   0    ; false
0A56  DD400000           [17] getglobal  3   1        ; gGameData
0A5A  E440C101           [18] self       3   3   261  ; -363505475
0A5E  5D810100           [19] getglobal  5   6        ; keyChain
0A62  9DC10100           [20] getglobal  6   7        ; stage
0A66  83014203           [21] add        6   6   264  ; 0
0A6A  E2800002           [22] call       3   4   2  
0A6E  D8000000           [23] test       3       0    ; to [25] if true
0A72  1A000080           [24] jmp        1            ; to [26]
0A76  1E008000           [25] return     0   1      
0A7A  DD400000           [26] getglobal  3   1        ; gGameData
0A7E  E440C201           [27] self       3   3   265  ; -226738743
0A82  5D810100           [28] getglobal  5   6        ; keyChain
0A86  9DC10100           [29] getglobal  6   7        ; stage
0A8A  83014203           [30] add        6   6   264  ; 0
0A8E  D9810200           [31] loadk      7   10       ; "OnMail"
0A92  E2408002           [32] call       3   5   1  
0A96  D3000000           [33] getupval   3   0      
0A9A  D8400000           [34] test       3       1    ; to [36] if false
0A9E  1A400A80           [35] jmp        42           ; to [78]
0AA2  DD800000           [36] getglobal  3   2        ; 538022378
0AA6  19C10000           [37] loadk      4   3        ; 0
0AAA  E2400001           [38] call       3   2   1  
0AAE  DDC00200           [39] getglobal  3   11       ; 1289681407
0AB2  E2808000           [40] call       3   1   2  
0AB6  43C08000           [41] add        1   1   3  
0ABA  98400000           [42] test       2       1    ; to [44] if false
0ABE  1A000280           [43] jmp        9            ; to [53]
fail op	21
0AC2  15400084           [44] concat     0   264 1  
0AC6  1A800180           [45] jmp        7            ; to [53]
0ACA  97008000           [46] loadbool   2   1   0    ; true
0ACE  DD000300           [47] getglobal  3   12       ; _T
0AD2  CE40C301           [48] gettable   3   3   269  ; "BackgroundMovie"
0AD6  E480C301           [49] self       3   3   270  ; 1167009705
0ADA  59C10300           [50] loadk      5   15       ; "ShowBlockingMessage"
0ADE  99010400           [51] loadk      6   16       ; "1"
0AE2  E2400002           [52] call       3   4   1  
0AE6  D3008000           [53] getupval   3   1      
0AEA  D8000000           [54] test       3       0    ; to [56] if true
0AEE  1A00FA7F           [55] jmp        -23          ; to [33]
fail op	21
0AF2  15400000           [56] concat     0   0   1  
0AF6  1A80F97F           [57] jmp        -25          ; to [33]
0AFA  D7000000           [58] loadbool   3   0   0    ; false
fail op	8
0AFE  C8008000           [59] setupval   3   1      
0B02  59C00000           [60] loadk      1   3        ; 0
0B06  DD400400           [61] getglobal  3   17       ; -1817107093
0B0A  19810400           [62] loadk      4   18       ; "Retrying completion mail."
0B0E  E2400001           [63] call       3   2   1  
0B12  DD400000           [64] getglobal  3   1        ; gGameData
0B16  E440C201           [65] self       3   3   265  ; -226738743
0B1A  5D810100           [66] getglobal  5   6        ; keyChain
0B1E  9DC10100           [67] getglobal  6   7        ; stage
0B22  83014203           [68] add        6   6   264  ; 0
0B26  D9810200           [69] loadk      7   10       ; "OnMail"
0B2A  E2408002           [70] call       3   5   1  
0B2E  DDC00400           [71] getglobal  3   19       ; math
0B32  CE00C501           [72] gettable   3   3   276  ; 1710846250
0B36  04414500           [73] mul        4   0   277  ; 0
0B3A  59810500           [74] loadk      5   22       ; 0
0B3E  E2808001           [75] call       3   3   2  
0B42  12008001           [76] move       0   3      
0B46  1A80F47F           [77] jmp        -45          ; to [33]
0B4A  98000000           [78] test       2       0    ; to [80] if true
0B4E  1A400180           [79] jmp        6            ; to [86]
0B52  DD000300           [80] getglobal  3   12       ; _T
0B56  CE40C301           [81] gettable   3   3   269  ; "BackgroundMovie"
0B5A  E480C301           [82] self       3   3   270  ; 1167009705
0B5E  59C10300           [83] loadk      5   15       ; "ShowBlockingMessage"
0B62  99C10500           [84] loadk      6   23       ; "0"
0B66  E2400002           [85] call       3   4   1  
0B6A  D3000001           [86] getupval   3   2      
0B6E  CE00C601           [87] gettable   3   3   280  ; -1405662448
0B72  17018000           [88] loadbool   4   1   0    ; true
0B76  E2400001           [89] call       3   2   1  
0B7A  1E008000           [90] return     0   1      
                         * constants:
0B7E  19                 sizek (25)
0B7F  01                 const type 3
0B80  65770E40           const [0]: (1074689893)
0B84  04                 const type 4
0B85  0A                 string size (10)
0B86  6747616D65446174+  "gGameDat"
0B8E  6100               "a\0"
                         const [1]: "gGameData"
0B90  01                 const type 3
0B91  EA911120           const [2]: (538022378)
0B95  03                 const type 3
0B96  00000000           const [3]: (0)
0B9A  03                 const type 3
0B9B  0000A040           const [4]: (0)
0B9F  01                 const type 3
0BA0  BD5855EA           const [5]: (-363505475)
0BA4  04                 const type 4
0BA5  09                 string size (9)
0BA6  6B6579436861696E+  "keyChain"
0BAE  00                 "\0"
                         const [6]: "keyChain"
0BAF  04                 const type 4
0BB0  06                 string size (6)
0BB1  737461676500       "stage\0"
                         const [7]: "stage"
0BB7  03                 const type 3
0BB8  0000803F           const [8]: (0)
0BBC  01                 const type 3
0BBD  C93D7CF2           const [9]: (-226738743)
0BC1  04                 const type 4
0BC2  07                 string size (7)
0BC3  4F6E4D61696C00     "OnMail\0"
                         const [10]: "OnMail"
0BCA  01                 const type 3
0BCB  FFF9DE4C           const [11]: (1289681407)
0BCF  04                 const type 4
0BD0  03                 string size (3)
0BD1  5F5400             "_T\0"
                         const [12]: "_T"
0BD4  04                 const type 4
0BD5  10                 string size (16)
0BD6  4261636B67726F75+  "Backgrou"
0BDE  6E644D6F76696500   "ndMovie\0"
                         const [13]: "BackgroundMovie"
0BE6  01                 const type 3
0BE7  A9278F45           const [14]: (1167009705)
0BEB  04                 const type 4
0BEC  14                 string size (20)
0BED  53686F77426C6F63+  "ShowBloc"
0BF5  6B696E674D657373+  "kingMess"
0BFD  61676500           "age\0"
                         const [15]: "ShowBlockingMessage"
0C01  04                 const type 4
0C02  02                 string size (2)
0C03  3100               "1\0"
                         const [16]: "1"
0C05  01                 const type 3
0C06  6B25B193           const [17]: (-1817107093)
0C0A  04                 const type 4
0C0B  1A                 string size (26)
0C0C  5265747279696E67+  "Retrying"
0C14  20636F6D706C6574+  " complet"
0C1C  696F6E206D61696C+  "ion mail"
0C24  2E00               ".\0"
                         const [18]: "Retrying completion mail."
0C26  04                 const type 4
0C27  05                 string size (5)
0C28  6D61746800         "math\0"
                         const [19]: "math"
0C2D  01                 const type 3
0C2E  2A71F965           const [20]: (1710846250)
0C32  03                 const type 3
0C33  00000040           const [21]: (0)
0C37  03                 const type 3
0C38  00007042           const [22]: (0)
0C3C  04                 const type 4
0C3D  02                 string size (2)
0C3E  3000               "0\0"
                         const [23]: "0"
0C40  01                 const type 3
0C41  104B37AC           const [24]: (-1405662448)
                         * functions:
0C45  00                 sizep (0)
                         * lines:
0C46  5A                 sizelineinfo (90)
                         [pc] (line)
0C47  6A                 [01] (106)
0C48  00                 [02] (106)
0C49  00                 [03] (106)
0C4A  00                 [04] (106)
0C4B  6A                 [05] (106)
0C4C  00                 [06] (107)
0C4D  00                 [07] (107)
0C4E  00                 [08] (107)
0C4F  6A                 [09] (107)
0C50  00                 [10] (110)
0C51  00                 [11] (110)
0C52  00                 [12] (111)
0C53  6A                 [13] (111)
0C54  00                 [14] (113)
0C55  00                 [15] (114)
0C56  00                 [16] (115)
0C57  6A                 [17] (117)
0C58  00                 [18] (117)
0C59  00                 [19] (117)
0C5A  00                 [20] (117)
0C5B  6B                 [21] (117)
0C5C  00                 [22] (117)
0C5D  00                 [23] (117)
0C5E  00                 [24] (117)
0C5F  6B                 [25] (118)
0C60  00                 [26] (121)
0C61  00                 [27] (121)
0C62  00                 [28] (121)
0C63  6B                 [29] (121)
0C64  00                 [30] (121)
0C65  00                 [31] (121)
0C66  00                 [32] (121)
0C67  6B                 [33] (122)
0C68  00                 [34] (122)
0C69  00                 [35] (122)
0C6A  00                 [36] (123)
0C6B  6E                 [37] (123)
0C6C  00                 [38] (123)
0C6D  00                 [39] (124)
0C6E  00                 [40] (124)
0C6F  6E                 [41] (124)
0C70  00                 [42] (126)
0C71  00                 [43] (126)
0C72  00                 [44] (126)
0C73  6F                 [45] (126)
0C74  00                 [46] (127)
0C75  00                 [47] (-128)
0C76  00                 [48] (-128)
0C77  6F                 [49] (-128)
0C78  00                 [50] (-128)
0C79  00                 [51] (-128)
0C7A  00                 [52] (-128)
0C7B  71                 [53] (-126)
0C7C  00                 [54] (-126)
0C7D  00                 [55] (-126)
0C7E  00                 [56] (-126)
0C7F  72                 [57] (-126)
0C80  00                 [58] (-125)
0C81  00                 [59] (-125)
0C82  00                 [60] (-124)
0C83  73                 [61] (-123)
0C84  00                 [62] (-123)
0C85  00                 [63] (-123)
0C86  00                 [64] (-122)
0C87  75                 [65] (-122)
0C88  00                 [66] (-122)
0C89  00                 [67] (-122)
0C8A  00                 [68] (-122)
0C8B  75                 [69] (-122)
0C8C  00                 [70] (-122)
0C8D  00                 [71] (-121)
0C8E  00                 [72] (-121)
0C8F  75                 [73] (-121)
0C90  00                 [74] (-121)
0C91  00                 [75] (-121)
0C92  00                 [76] (-121)
0C93  75                 [77] (-120)
0C94  00                 [78] (-117)
0C95  00                 [79] (-117)
0C96  00                 [80] (-116)
0C97  75                 [81] (-116)
0C98  00                 [82] (-116)
0C99  00                 [83] (-116)
0C9A  00                 [84] (-116)
0C9B  75                 [85] (-116)
0C9C  00                 [86] (-113)
0C9D  00                 [87] (-113)
0C9E  00                 [88] (-113)
0C9F  75                 [89] (-113)
0CA0  00                 [90] (-112)
                         * locals:
0DAF  00                 sizelocvars (0)
                         * upvalues:
0DB0  00                 sizeupvalues (0)
                         ** end of function **

                         
0DB1                     ** function [4] definition (level 2)
                         ** start of function **
0DB1  00                 string size (0)
                         source name: (none)
0DB3  01                 line defined (146)
0DB4  9A                 last line defined (154)
0DB5  01                 nups (1)
0DB6  01                 numparams (1)
0DB7  01                 is_vararg (0)
0DB8  00                 maxstacksize (3)
                         * code:
0DBA  1C                 sizecode (28)
0DBB  18000000           [01] test       0       0    ; to [3] if true
0DBF  1A000380           [02] jmp        13           ; to [16]
0DC3  5D000000           [03] getglobal  1   0        ; _T
0DC7  9D000000           [04] getglobal  2   0        ; _T
0DCB  8E404001           [05] gettable   2   2   257  ; "HideSquadOverlay"
0DCF  98400000           [06] test       2       1    ; to [8] if false
0DD3  1A000080           [07] jmp        1            ; to [9]
0DD7  99800000           [08] loadk      2   2        ; 0
0DDB  83C04001           [09] add        2   2   259  ; 0
0DDF  4C808080           [10] settable   1   257 2    ; "HideSquadOverlay"
0DE3  53000000           [11] getupval   1   0      
0DE7  4E00C100           [12] gettable   1   1   260  ; -947863918
0DEB  97008000           [13] loadbool   2   1   0    ; true
0DEF  62400001           [14] call       1   2   1  
0DF3  1AC00280           [15] jmp        12           ; to [28]
0DF7  5D000000           [16] getglobal  1   0        ; _T
0DFB  9D000000           [17] getglobal  2   0        ; _T
0DFF  8E404001           [18] gettable   2   2   257  ; "HideSquadOverlay"
0E03  98400000           [19] test       2       1    ; to [21] if false
0E07  1A000080           [20] jmp        1            ; to [22]
0E0B  99C00000           [21] loadk      2   3        ; 0
0E0F  8DC04001           [22] sub        2   2   259  ; 0
0E13  4C808080           [23] settable   1   257 2    ; "HideSquadOverlay"
0E17  53000000           [24] getupval   1   0      
0E1B  4E00C100           [25] gettable   1   1   260  ; -947863918
0E1F  97000000           [26] loadbool   2   0   0    ; false
0E23  62400001           [27] call       1   2   1  
0E27  1E008000           [28] return     0   1      
                         * constants:
0E2B  05                 sizek (5)
0E2C  04                 const type 4
0E2D  03                 string size (3)
0E2E  5F5400             "_T\0"
                         const [0]: "_T"
0E31  04                 const type 4
0E32  11                 string size (17)
0E33  4869646553717561+  "HideSqua"
0E3B  644F7665726C6179+  "dOverlay"
0E43  00                 "\0"
                         const [1]: "HideSquadOverlay"
0E44  03                 const type 3
0E45  00000000           const [2]: (0)
0E49  03                 const type 3
0E4A  0000803F           const [3]: (0)
0E4E  01                 const type 3
0E4F  92BE80C7           const [4]: (-947863918)
                         * functions:
0E53  00                 sizep (0)
                         * lines:
0E54  1C                 sizelineinfo (28)
                         [pc] (line)
0E55  93                 [01] (-109)
0E56  00                 [02] (-109)
0E57  00                 [03] (-108)
0E58  00                 [04] (-108)
0E59  93                 [05] (-108)
0E5A  00                 [06] (-108)
0E5B  00                 [07] (-108)
0E5C  00                 [08] (-108)
0E5D  94                 [09] (-108)
0E5E  00                 [10] (-108)
0E5F  00                 [11] (-107)
0E60  00                 [12] (-107)
0E61  94                 [13] (-107)
0E62  00                 [14] (-107)
0E63  00                 [15] (-107)
0E64  00                 [16] (-105)
0E65  94                 [17] (-105)
0E66  00                 [18] (-105)
0E67  00                 [19] (-105)
0E68  00                 [20] (-105)
0E69  94                 [21] (-105)
0E6A  00                 [22] (-105)
0E6B  00                 [23] (-105)
0E6C  00                 [24] (-104)
0E6D  94                 [25] (-104)
0E6E  00                 [26] (-104)
0E6F  00                 [27] (-104)
0E70  00                 [28] (-102)
                         * locals:
0EC5  00                 sizelocvars (0)
                         * upvalues:
0EC6  00                 sizeupvalues (0)
                         ** end of function **

                         
0EC7                     ** function [5] definition (level 2)
                         ** start of function **
0EC7  00                 string size (0)
                         source name: (none)
0EC9  01                 line defined (156)
0ECA  AA                 last line defined (170)
0ECB  01                 nups (0)
0ECC  00                 numparams (1)
0ECD  01                 is_vararg (0)
0ECE  00                 maxstacksize (5)
                         * code:
0ED0  21                 sizecode (33)
0ED1  5D000000           [01] getglobal  1   0        ; gMatchingService
0ED5  6440C000           [02] self       1   1   257  ; 1962321666
fail op	9
0ED9  C9000000           [03] settable   3   0   0  
0EDD  62408001           [04] call       1   3   1  
0EE1  18000000           [05] test       0       0    ; to [7] if true
0EE5  1A400680           [06] jmp        26           ; to [33]
0EE9  5D800000           [07] getglobal  1   2        ; 1074689893
0EED  9DC00000           [08] getglobal  2   3        ; _T
0EF1  8E004101           [09] gettable   2   2   260  ; "SquadOverlay"
0EF5  62800001           [10] call       1   2   2  
0EF9  58000000           [11] test       1       0    ; to [13] if true
0EFD  1AC00080           [12] jmp        4            ; to [17]
0F01  5D400100           [13] getglobal  1   5        ; 538022378
0F05  99800100           [14] loadk      2   6        ; 0
0F09  62400001           [15] call       1   2   1  
0F0D  1A40FD7F           [16] jmp        -10          ; to [7]
0F11  5DC00000           [17] getglobal  1   3        ; _T
0F15  4E00C100           [18] gettable   1   1   260  ; "SquadOverlay"
0F19  64C0C100           [19] self       1   1   263  ; 1167009705
0F1D  D9000200           [20] loadk      3   8        ; "LeaveSquadUI"
0F21  19410200           [21] loadk      4   9        ; ""
0F25  62400002           [22] call       1   4   1  
0F29  5D000000           [23] getglobal  1   0        ; gMatchingService
0F2D  6480C200           [24] self       1   1   266  ; -1985412809
0F31  62800001           [25] call       1   2   2  
0F35  4A008000           [26] len        1   1      
fail op	21
0F39  15408085           [27] concat     0   267 1  
0F3D  1AC00080           [28] jmp        4            ; to [33]
0F41  5D400100           [29] getglobal  1   5        ; 538022378
0F45  99800100           [30] loadk      2   6        ; 0
0F49  62400001           [31] call       1   2   1  
0F4D  1A40FD7F           [32] jmp        -10          ; to [23]
0F51  1E008000           [33] return     0   1      
                         * constants:
0F55  0C                 sizek (12)
0F56  04                 const type 4
0F57  11                 string size (17)
0F58  674D61746368696E+  "gMatchin"
0F60  6753657276696365+  "gService"
0F68  00                 "\0"
                         const [0]: "gMatchingService"
0F69  01                 const type 3
0F6A  02A7F674           const [1]: (1962321666)
0F6E  01                 const type 3
0F6F  65770E40           const [2]: (1074689893)
0F73  04                 const type 4
0F74  03                 string size (3)
0F75  5F5400             "_T\0"
                         const [3]: "_T"
0F78  04                 const type 4
0F79  0D                 string size (13)
0F7A  53717561644F7665+  "SquadOve"
0F82  726C617900         "rlay\0"
                         const [4]: "SquadOverlay"
0F87  01                 const type 3
0F88  EA911120           const [5]: (538022378)
0F8C  03                 const type 3
0F8D  00000000           const [6]: (0)
0F91  01                 const type 3
0F92  A9278F45           const [7]: (1167009705)
0F96  04                 const type 4
0F97  0D                 string size (13)
0F98  4C65617665537175+  "LeaveSqu"
0FA0  6164554900         "adUI\0"
                         const [8]: "LeaveSquadUI"
0FA5  04                 const type 4
0FA6  01                 string size (0)
                         const [9]: ""
0FA8  01                 const type 3
0FA9  3701A989           const [10]: (-1985412809)
0FAD  03                 const type 3
0FAE  0000803F           const [11]: (0)
                         * functions:
0FB2  00                 sizep (0)
                         * lines:
0FB3  21                 sizelineinfo (33)
                         [pc] (line)
0FB4  9D                 [01] (-99)
0FB5  00                 [02] (-99)
0FB6  00                 [03] (-99)
0FB7  00                 [04] (-99)
0FB8  9D                 [05] (-97)
0FB9  00                 [06] (-97)
0FBA  00                 [07] (-96)
0FBB  00                 [08] (-96)
0FBC  9D                 [09] (-96)
0FBD  00                 [10] (-96)
0FBE  00                 [11] (-96)
0FBF  00                 [12] (-96)
0FC0  9D                 [13] (-95)
0FC1  00                 [14] (-95)
0FC2  00                 [15] (-95)
0FC3  00                 [16] (-95)
0FC4  9F                 [17] (-92)
0FC5  00                 [18] (-92)
0FC6  00                 [19] (-92)
0FC7  00                 [20] (-92)
0FC8  9F                 [21] (-92)
0FC9  00                 [22] (-92)
0FCA  00                 [23] (-90)
0FCB  00                 [24] (-90)
0FCC  A0                 [25] (-90)
0FCD  00                 [26] (-90)
0FCE  00                 [27] (-90)
0FCF  00                 [28] (-90)
0FD0  A0                 [29] (-89)
0FD1  00                 [30] (-89)
0FD2  00                 [31] (-89)
0FD3  00                 [32] (-89)
0FD4  A0                 [33] (-86)
                         * locals:
1038  00                 sizelocvars (0)
                         * upvalues:
1039  00                 sizeupvalues (0)
                         ** end of function **

                         
103A                     ** function [6] definition (level 2)
                         ** start of function **
103A  00                 string size (0)
                         source name: (none)
103C  01                 line defined (172)
103D  B4                 last line defined (180)
103E  01                 nups (0)
103F  00                 numparams (0)
1040  00                 is_vararg (0)
1041  00                 maxstacksize (3)
                         * code:
1043  2A                 sizecode (42)
1044  1D000000           [01] getglobal  0   0        ; 538022378
1048  59400000           [02] loadk      1   1        ; 0
104C  22400001           [03] call       0   2   1  
1050  1D800000           [04] getglobal  0   2        ; _T
1054  0EC04000           [05] gettable   0   0   259  ; "syncingInventory"
fail op	35
1058  63004100           [06] close      1  
105C  1A800280           [07] jmp        11           ; to [19]
1060  1D800000           [08] getglobal  0   2        ; _T
1064  0EC04000           [09] gettable   0   0   259  ; "syncingInventory"
fail op	35
1068  63404100           [10] close      1  
106C  1A800180           [11] jmp        7            ; to [19]
1070  1D800100           [12] getglobal  0   6        ; 1074689893
1074  5DC00100           [13] getglobal  1   7        ; gFlashMgr
1078  6400C200           [14] self       1   1   264  ; -1113309802
107C  62000001           [15] call       1   2   0  
1080  22800000           [16] call       0   0   2  
1084  18400000           [17] test       0       1    ; to [19] if false
1088  1A800580           [18] jmp        23           ; to [42]
108C  1D800000           [19] getglobal  0   2        ; _T
1090  0EC04000           [20] gettable   0   0   259  ; "syncingInventory"
fail op	35
1094  63004100           [21] close      1  
1098  1A800280           [22] jmp        11           ; to [34]
109C  1D800000           [23] getglobal  0   2        ; _T
10A0  0EC04000           [24] gettable   0   0   259  ; "syncingInventory"
fail op	35
10A4  63404100           [25] close      1  
10A8  1A800180           [26] jmp        7            ; to [34]
10AC  1D800100           [27] getglobal  0   6        ; 1074689893
10B0  5DC00100           [28] getglobal  1   7        ; gFlashMgr
10B4  6400C200           [29] self       1   1   264  ; -1113309802
10B8  62000001           [30] call       1   2   0  
10BC  22800000           [31] call       0   0   2  
10C0  18400000           [32] test       0       1    ; to [34] if false
10C4  1AC00080           [33] jmp        4            ; to [38]
10C8  1D000000           [34] getglobal  0   0        ; 538022378
10CC  59400200           [35] loadk      1   9        ; 0
10D0  22400001           [36] call       0   2   1  
10D4  1A00FB7F           [37] jmp        -19          ; to [19]
10D8  1D000000           [38] getglobal  0   0        ; 538022378
10DC  59400000           [39] loadk      1   1        ; 0
10E0  22400001           [40] call       0   2   1  
10E4  1A40F67F           [41] jmp        -38          ; to [4]
10E8  1E008000           [42] return     0   1      
                         * constants:
10EC  0A                 sizek (10)
10ED  01                 const type 3
10EE  EA911120           const [0]: (538022378)
10F2  03                 const type 3
10F3  00000040           const [1]: (0)
10F7  04                 const type 4
10F8  03                 string size (3)
10F9  5F5400             "_T\0"
                         const [2]: "_T"
10FC  04                 const type 4
10FD  11                 string size (17)
10FE  73796E63696E6749+  "syncingI"
1106  6E76656E746F7279+  "nventory"
110E  00                 "\0"
                         const [3]: "syncingInventory"
110F  00                 const type 0
                         const [4]: nil
1110  01                 const type 3
1111  01000000           const [5]: (1)
1115  01                 const type 3
1116  65770E40           const [6]: (1074689893)
111A  04                 const type 4
111B  0A                 string size (10)
111C  67466C6173684D67+  "gFlashMg"
1124  7200               "r\0"
                         const [7]: "gFlashMgr"
1126  01                 const type 3
1127  963DA4BD           const [8]: (-1113309802)
112B  03                 const type 3
112C  00000000           const [9]: (0)
                         * functions:
1130  00                 sizep (0)
                         * lines:
1131  2A                 sizelineinfo (42)
                         [pc] (line)
1132  AD                 [01] (-83)
1133  00                 [02] (-83)
1134  00                 [03] (-83)
1135  00                 [04] (-82)
1136  AD                 [05] (-82)
1137  00                 [06] (-82)
1138  00                 [07] (-82)
1139  00                 [08] (-82)
113A  AD                 [09] (-82)
113B  00                 [10] (-82)
113C  00                 [11] (-82)
113D  00                 [12] (-82)
113E  AE                 [13] (-82)
113F  00                 [14] (-82)
1140  00                 [15] (-82)
1141  00                 [16] (-82)
1142  AE                 [17] (-82)
1143  00                 [18] (-82)
1144  00                 [19] (-81)
1145  00                 [20] (-81)
1146  AE                 [21] (-81)
1147  00                 [22] (-81)
1148  00                 [23] (-81)
1149  00                 [24] (-81)
114A  AE                 [25] (-81)
114B  00                 [26] (-81)
114C  00                 [27] (-81)
114D  00                 [28] (-81)
114E  AE                 [29] (-81)
114F  00                 [30] (-81)
1150  00                 [31] (-81)
1151  00                 [32] (-81)
1152  AE                 [33] (-81)
1153  00                 [34] (-80)
1154  00                 [35] (-80)
1155  00                 [36] (-80)
1156  AE                 [37] (-80)
1157  00                 [38] (-78)
1158  00                 [39] (-78)
1159  00                 [40] (-78)
115A  AE                 [41] (-78)
115B  00                 [42] (-76)
                         * locals:
11DA  00                 sizelocvars (0)
                         * upvalues:
11DB  00                 sizeupvalues (0)
                         ** end of function **

                         
11DC                     ** function [7] definition (level 2)
                         ** start of function **
11DC  00                 string size (0)
                         source name: (none)
11DE  01                 line defined (182)
11DF  C2                 last line defined (194)
11E0  01                 nups (0)
11E1  00                 numparams (1)
11E2  01                 is_vararg (0)
11E3  00                 maxstacksize (3)
                         * code:
11E5  21                 sizecode (33)
11E6  5D000000           [01] getglobal  1   0        ; 538022378
11EA  99400000           [02] loadk      2   1        ; 0
11EE  62400001           [03] call       1   2   1  
11F2  18400000           [04] test       0       1    ; to [6] if false
11F6  1A400080           [05] jmp        2            ; to [8]
fail op	35
11FA  23804000           [06] close      0  
11FE  1A400280           [07] jmp        10           ; to [18]
1202  5DC00000           [08] getglobal  1   3        ; 1074689893
1206  9D000100           [09] getglobal  2   4        ; _T
120A  8E404101           [10] gettable   2   2   261  ; "curTransmission"
120E  62800001           [11] call       1   2   2  
1212  58000000           [12] test       1       0    ; to [14] if true
1216  1AC00080           [13] jmp        4            ; to [18]
121A  5D000000           [14] getglobal  1   0        ; 538022378
121E  99400000           [15] loadk      2   1        ; 0
1222  62400001           [16] call       1   2   1  
1226  1A40FD7F           [17] jmp        -10          ; to [8]
122A  5DC00000           [18] getglobal  1   3        ; 1074689893
122E  9D000100           [19] getglobal  2   4        ; _T
1232  8E404101           [20] gettable   2   2   261  ; "curTransmission"
1236  62800001           [21] call       1   2   2  
123A  58000000           [22] test       1       0    ; to [24] if true
123E  1A000180           [23] jmp        5            ; to [29]
1242  5D000100           [24] getglobal  1   4        ; _T
1246  4E80C100           [25] gettable   1   1   262  ; "QueuedTransmissions"
124A  4A008000           [26] len        1   1      
fail op	21
124E  15408080           [27] concat     0   257 1  
1252  1AC00080           [28] jmp        4            ; to [33]
1256  5D000000           [29] getglobal  1   0        ; 538022378
125A  99400000           [30] loadk      2   1        ; 0
125E  62400001           [31] call       1   2   1  
1262  1A00FC7F           [32] jmp        -15          ; to [18]
1266  1E008000           [33] return     0   1      
                         * constants:
126A  07                 sizek (7)
126B  01                 const type 3
126C  EA911120           const [0]: (538022378)
1270  03                 const type 3
1271  00000000           const [1]: (0)
1275  00                 const type 0
                         const [2]: nil
1276  01                 const type 3
1277  65770E40           const [3]: (1074689893)
127B  04                 const type 4
127C  03                 string size (3)
127D  5F5400             "_T\0"
                         const [4]: "_T"
1280  04                 const type 4
1281  10                 string size (16)
1282  6375725472616E73+  "curTrans"
128A  6D697373696F6E00   "mission\0"
                         const [5]: "curTransmission"
1292  04                 const type 4
1293  14                 string size (20)
1294  5175657565645472+  "QueuedTr"
129C  616E736D69737369+  "ansmissi"
12A4  6F6E7300           "ons\0"
                         const [6]: "QueuedTransmissions"
                         * functions:
12A8  00                 sizep (0)
                         * lines:
12A9  21                 sizelineinfo (33)
                         [pc] (line)
12AA  B7                 [01] (-73)
12AB  00                 [02] (-73)
12AC  00                 [03] (-73)
12AD  00                 [04] (-71)
12AE  B7                 [05] (-71)
12AF  00                 [06] (-71)
12B0  00                 [07] (-71)
12B1  00                 [08] (-70)
12B2  B7                 [09] (-70)
12B3  00                 [10] (-70)
12B4  00                 [11] (-70)
12B5  00                 [12] (-70)
12B6  B9                 [13] (-70)
12B7  00                 [14] (-69)
12B8  00                 [15] (-69)
12B9  00                 [16] (-69)
12BA  B9                 [17] (-69)
12BB  00                 [18] (-65)
12BC  00                 [19] (-65)
12BD  00                 [20] (-65)
12BE  B9                 [21] (-65)
12BF  00                 [22] (-65)
12C0  00                 [23] (-65)
12C1  00                 [24] (-65)
12C2  B9                 [25] (-65)
12C3  00                 [26] (-65)
12C4  00                 [27] (-65)
12C5  00                 [28] (-65)
12C6  BA                 [29] (-64)
12C7  00                 [30] (-64)
12C8  00                 [31] (-64)
12C9  00                 [32] (-64)
12CA  BA                 [33] (-62)
                         * locals:
132E  00                 sizelocvars (0)
                         * upvalues:
132F  00                 sizeupvalues (0)
                         ** end of function **

                         
1330                     ** function [8] definition (level 2)
                         ** start of function **
1330  00                 string size (0)
                         source name: (none)
1332  01                 line defined (196)
1333  D0                 last line defined (208)
1334  01                 nups (0)
1335  00                 numparams (0)
1336  00                 is_vararg (0)
1337  00                 maxstacksize (5)
                         * code:
1339  1F                 sizecode (31)
133A  1D000000           [01] getglobal  0   0        ; gGameData
133E  24404000           [02] self       0   0   257  ; 51109503
1342  22800001           [03] call       0   2   2  
1346  5D800000           [04] getglobal  1   2        ; 1074689893
134A  92000000           [05] move       2   0      
134E  62800001           [06] call       1   2   2  
1352  58400000           [07] test       1       1    ; to [9] if false
1356  1AC00480           [08] jmp        20           ; to [29]
135A  4EC04000           [09] gettable   1   0   259  ; "mOperatorCustomization"
135E  6400C100           [10] self       1   1   260  ; -1871371820
1362  DD400100           [11] getglobal  3   5        ; Lotus_Game
1366  CE80C101           [12] gettable   3   3   262  ; "TOSS_VOICE"
136A  62808001           [13] call       1   3   2  
136E  4EC0C100           [14] gettable   1   1   263  ; "mItemType"
1372  9D800000           [15] getglobal  2   2        ; 1074689893
1376  D2008000           [16] move       3   1      
137A  A2800001           [17] call       2   2   2  
137E  98400000           [18] test       2       1    ; to [20] if false
1382  1A000280           [19] jmp        9            ; to [29]
1386  9D000200           [20] getglobal  2   8        ; 2083004503
138A  D2008000           [21] move       3   1      
138E  A2800001           [22] call       2   2   2  
1392  DD800000           [23] getglobal  3   2        ; 1074689893
1396  12010001           [24] move       4   2      
139A  E2800001           [25] call       3   2   2  
139E  D8400000           [26] test       3       1    ; to [28] if false
13A2  1A000080           [27] jmp        1            ; to [29]
13A6  9E000001           [28] return     2   2      
13AA  C6008001           [29] loadnil    3   3      
13AE  DE000001           [30] return     3   2      
13B2  1E008000           [31] return     0   1      
                         * constants:
13B6  09                 sizek (9)
13B7  04                 const type 4
13B8  0A                 string size (10)
13B9  6747616D65446174+  "gGameDat"
13C1  6100               "a\0"
                         const [0]: "gGameData"
13C3  01                 const type 3
13C4  7FDE0B03           const [1]: (51109503)
13C8  01                 const type 3
13C9  65770E40           const [2]: (1074689893)
13CD  04                 const type 4
13CE  17                 string size (23)
13CF  6D4F70657261746F+  "mOperato"
13D7  72437573746F6D69+  "rCustomi"
13DF  7A6174696F6E00     "zation\0"
                         const [3]: "mOperatorCustomization"
13E6  01                 const type 3
13E7  D4217590           const [4]: (-1871371820)
13EB  04                 const type 4
13EC  0B                 string size (11)
13ED  4C6F7475735F4761+  "Lotus_Ga"
13F5  6D6500             "me\0"
                         const [5]: "Lotus_Game"
13F8  04                 const type 4
13F9  0B                 string size (11)
13FA  544F53535F564F49+  "TOSS_VOI"
1402  434500             "CE\0"
                         const [6]: "TOSS_VOICE"
1405  04                 const type 4
1406  0A                 string size (10)
1407  6D4974656D547970+  "mItemTyp"
140F  6500               "e\0"
                         const [7]: "mItemType"
1411  01                 const type 3
1412  5720287C           const [8]: (2083004503)
                         * functions:
1416  00                 sizep (0)
                         * lines:
1417  1F                 sizelineinfo (31)
                         [pc] (line)
1418  C5                 [01] (-59)
1419  00                 [02] (-59)
141A  00                 [03] (-59)
141B  00                 [04] (-58)
141C  C5                 [05] (-58)
141D  00                 [06] (-58)
141E  00                 [07] (-58)
141F  00                 [08] (-58)
1420  C5                 [09] (-57)
1421  00                 [10] (-57)
1422  00                 [11] (-57)
1423  00                 [12] (-57)
1424  C6                 [13] (-57)
1425  00                 [14] (-57)
1426  00                 [15] (-56)
1427  00                 [16] (-56)
1428  C6                 [17] (-56)
1429  00                 [18] (-56)
142A  00                 [19] (-56)
142B  00                 [20] (-55)
142C  C6                 [21] (-55)
142D  00                 [22] (-55)
142E  00                 [23] (-54)
142F  00                 [24] (-54)
1430  C6                 [25] (-54)
1431  00                 [26] (-54)
1432  00                 [27] (-54)
1433  00                 [28] (-53)
1434  C6                 [29] (-49)
1435  00                 [30] (-49)
1436  00                 [31] (-48)
                         * locals:
1494  00                 sizelocvars (0)
                         * upvalues:
1495  00                 sizeupvalues (0)
                         ** end of function **

                         
1496                     ** function [9] definition (level 2)
                         ** start of function **
1496  00                 string size (0)
                         source name: (none)
1498  01                 line defined (210)
1499  D8                 last line defined (216)
149A  01                 nups (1)
149B  01                 numparams (0)
149C  00                 is_vararg (0)
149D  00                 maxstacksize (3)
                         * code:
149F  0D                 sizecode (13)
14A0  13000000           [01] getupval   0   0      
14A4  22808000           [02] call       0   1   2  
14A8  5D000000           [03] getglobal  1   0        ; 1074689893
14AC  92000000           [04] move       2   0      
14B0  62800001           [05] call       1   2   2  
14B4  58400000           [06] test       1       1    ; to [8] if false
14B8  1A800080           [07] jmp        3            ; to [11]
14BC  64404000           [08] self       1   0   257  ; -1585739952
14C0  47000001           [09] tailcall   1   2   0  
14C4  5E000000           [10] return     1   0      
14C8  46008000           [11] loadnil    1   1      
14CC  5E000001           [12] return     1   2      
14D0  1E008000           [13] return     0   1      
                         * constants:
14D4  02                 sizek (2)
14D5  01                 const type 3
14D6  65770E40           const [0]: (1074689893)
14DA  01                 const type 3
14DB  50877BA1           const [1]: (-1585739952)
                         * functions:
14DF  00                 sizep (0)
                         * lines:
14E0  0D                 sizelineinfo (13)
                         [pc] (line)
14E1  D3                 [01] (-45)
14E2  00                 [02] (-45)
14E3  00                 [03] (-44)
14E4  00                 [04] (-44)
14E5  D3                 [05] (-44)
14E6  00                 [06] (-44)
14E7  00                 [07] (-44)
14E8  00                 [08] (-43)
14E9  D4                 [09] (-43)
14EA  00                 [10] (-43)
14EB  00                 [11] (-41)
14EC  00                 [12] (-41)
14ED  D4                 [13] (-40)
                         * locals:
1515  00                 sizelocvars (0)
                         * upvalues:
1516  00                 sizeupvalues (0)
                         ** end of function **

                         
1517                     ** function [10] definition (level 2)
                         ** start of function **
1517  00                 string size (0)
                         source name: (none)
1519  01                 line defined (218)
151A  96                 last line defined (406)
151B  03                 nups (8)
151C  08                 numparams (0)
151D  00                 is_vararg (0)
151E  00                 maxstacksize (33)
                         * code:
1521  03                 sizecode (507)
1522  19000000           [001] loadk      0   0        ; 0
1526  59400000           [002] loadk      1   1        ; 0
152A  99400000           [003] loadk      2   1        ; 0
152E  D9800000           [004] loadk      3   2        ; 0
1532  19C10000           [005] loadk      4   3        ; 0
1536  5D010100           [006] getglobal  5   4        ; gRegion
153A  6441C102           [007] self       5   5   261  ; -1875307917
153E  DD810100           [008] getglobal  7   6        ; -332969190
1542  19C20100           [009] loadk      8   7        ; "LotusHelmetAction"
1546  E2010001           [010] call       7   2   0  
154A  62810000           [011] call       5   0   2  
154E  9D010100           [012] getglobal  6   4        ; gRegion
1552  A4414103           [013] self       6   6   261  ; -1875307917
1556  1D820100           [014] getglobal  8   6        ; -332969190
155A  59020200           [015] loadk      9   8        ; "LotusHelmetMarker"
155E  22020001           [016] call       8   2   0  
1562  A2810000           [017] call       6   0   2  
1566  D7010000           [018] loadbool   7   0   0    ; false
fail op	8
156A  C8010000           [019] setupval   7   0      
156E  DD410200           [020] getglobal  7   9        ; 1074689893
1572  12028002           [021] move       8   5      
1576  E2810001           [022] call       7   2   2  
157A  D8410000           [023] test       7       1    ; to [25] if false
157E  1A400180           [024] jmp        6            ; to [31]
1582  DD810200           [025] getglobal  7   10       ; -1799570112
1586  12028002           [026] move       8   5      
158A  59C20200           [027] loadk      9   11       ; "OnFinished"
158E  E2418001           [028] call       7   3   1  
1592  E401C302           [029] self       7   5   268  ; -974578778
1596  E2410001           [030] call       7   2   1  
159A  C6018003           [031] loadnil    7   7      
159E  19420300           [032] loadk      8   13       ; 0
15A2  52020001           [033] move       9   2      
15A6  99820300           [034] loadk      10  14       ; 0
15AA  D9420300           [035] loadk      11  13       ; 0
15AE  13030000           [036] getupval   12  0      
15B2  18430000           [037] test       12      1    ; to [39] if false
15B6  1A001080           [038] jmp        65           ; to [104]
15BA  1DC30300           [039] getglobal  12  15       ; 538022378
15BE  59430300           [040] loadk      13  13       ; 0
15C2  22430001           [041] call       12  2   1  
15C6  1D430200           [042] getglobal  12  9        ; 1074689893
15CA  5D030400           [043] getglobal  13  16       ; gGameData
15CE  22830001           [044] call       12  2   2  
15D2  18030000           [045] test       12      0    ; to [47] if true
15D6  1A000080           [046] jmp        1            ; to [48]
15DA  1E008000           [047] return     0   1      
15DE  1D030400           [048] getglobal  12  16       ; gGameData
15E2  24434406           [049] self       12  12  273  ; 1865287165
15E6  22830001           [050] call       12  2   2  
15EA  24834406           [051] self       12  12  274  ; 1388869707
15EE  22830001           [052] call       12  2   2  
15F2  5DC30400           [053] getglobal  13  19       ; keyChain
fail op	35
15F6  63400306           [054] close      1  
15FA  1A000180           [055] jmp        5            ; to [61]
15FE  2403C502           [056] self       12  5   276  ; 766584623
1602  22430001           [057] call       12  2   1  
1606  24034503           [058] self       12  6   276  ; 766584623
160A  22430001           [059] call       12  2   1  
160E  1E008000           [060] return     0   1      
1612  1D430500           [061] getglobal  12  21       ; 1289681407
1616  22838000           [062] call       12  1   2  
161A  C3028305           [063] add        11  11  12 
fail op	21
161E  15C08204           [064] concat     0   9   11 
1622  1A40F87F           [065] jmp        -30          ; to [36]
1626  03824304           [066] add        8   8   270  ; 0
fail op	21
162A  15008280           [067] concat     0   257 8  
162E  1A800180           [068] jmp        7            ; to [76]
1632  24834503           [069] self       12  6   278  ; -1318948062
1636  22830001           [070] call       12  2   2  
163A  18430000           [071] test       12      1    ; to [73] if false
163E  1A800080           [072] jmp        3            ; to [76]
1642  24034303           [073] self       12  6   268  ; -974578778
1646  22430001           [074] call       12  2   1  
164A  1AC0F57F           [075] jmp        -40          ; to [36]
fail op	21
164E  15C04504           [076] concat     0   8   279
1652  1A40F57F           [077] jmp        -42          ; to [36]
1656  1D030600           [078] getglobal  12  24       ; -1941280958
165A  52038001           [079] move       13  3      
165E  92030002           [080] move       14  4      
1662  22838001           [081] call       12  3   2  
1666  52020006           [082] move       9   12     
166A  D9420300           [083] loadk      11  13       ; 0
166E  1D430600           [084] getglobal  12  25       ; transmissionSet
1672  24834606           [085] self       12  12  282  ; -781703361
1676  9D830100           [086] getglobal  14  6        ; -332969190
167A  D9C30600           [087] loadk      15  27       ; "IntroWhisper"
167E  1D040700           [088] getglobal  16  28       ; -1615931716
1682  52040005           [089] move       17  10     
1686  22840001           [090] call       16  2   2  
168A  C2038407           [091] concat     15  15  16 
168E  A2030001           [092] call       14  2   0  
1692  22830000           [093] call       12  0   2  
1696  D2010006           [094] move       7   12     
169A  13038000           [095] getupval   12  1      
169E  0E434706           [096] gettable   12  12  285  ; 910246418
16A2  52038003           [097] move       13  7      
16A6  22430001           [098] call       12  2   1  
16AA  83824305           [099] add        10  10  270  ; 0
fail op	21
16AE  15808200           [100] concat     0   1   10 
16B2  1A40EF7F           [101] jmp        -66          ; to [36]
16B6  99820300           [102] loadk      10  14       ; 0
16BA  1AC0EE7F           [103] jmp        -68          ; to [36]
16BE  13030001           [104] getupval   12  2      
16C2  57038000           [105] loadbool   13  1   0    ; true
16C6  22430001           [106] call       12  2   1  
16CA  1D830700           [107] getglobal  12  30       ; _T
16CE  0EC34706           [108] gettable   12  12  287  ; "curTransmission"
fail op	35
16D2  23C00106           [109] close      0  
16D6  1A000480           [110] jmp        17           ; to [128]
16DA  1D830700           [111] getglobal  12  30       ; _T
16DE  4B030000           [112] newtable   13  0   0    ; array=0, hash=0
16E2  0C430390           [113] settable   12  288 13   ; "QueuedTransmissions"
16E6  1D430800           [114] getglobal  12  33       ; gFlashMgr
16EA  24834806           [115] self       12  12  290  ; 1634586770
16EE  9DC30800           [116] getglobal  14  35       ; _G
16F2  8E034907           [117] gettable   14  14  292  ; "UIMovie_TransmissionMovie"
16F6  22838001           [118] call       12  3   2  
16FA  5D430200           [119] getglobal  13  9        ; 1074689893
16FE  92030006           [120] move       14  12     
1702  62830001           [121] call       13  2   2  
1706  58430000           [122] test       13      1    ; to [124] if false
170A  1AC00080           [123] jmp        4            ; to [128]
170E  64434906           [124] self       13  12  293  ; 1167009705
1712  D9830900           [125] loadk      15  38       ; "QueueClose"
1716  19C40900           [126] loadk      16  39       ; ""
171A  62430002           [127] call       13  4   1  
171E  5D430200           [128] getglobal  13  9        ; 1074689893
1722  92030003           [129] move       14  6      
1726  62830001           [130] call       13  2   2  
172A  58430000           [131] test       13      1    ; to [133] if false
172E  1A400080           [132] jmp        2            ; to [135]
1732  64034503           [133] self       13  6   276  ; 766584623
1736  62430001           [134] call       13  2   1  
173A  5D430200           [135] getglobal  13  9        ; 1074689893
173E  9D030A00           [136] getglobal  14  40       ; touchHelmetSound
1742  62830001           [137] call       13  2   2  
1746  58430000           [138] test       13      1    ; to [140] if false
174A  1A400180           [139] jmp        6            ; to [146]
174E  5D030100           [140] getglobal  13  4        ; gRegion
1752  6443CA06           [141] self       13  13  297  ; 630793108
1756  DD030A00           [142] getglobal  15  40       ; touchHelmetSound
175A  1D840A00           [143] getglobal  16  42       ; ZERO_VECTOR
175E  57040000           [144] loadbool   17  0   0    ; false
1762  62438002           [145] call       13  5   1  
1766  5D030100           [146] getglobal  13  4        ; gRegion
176A  64C3CA06           [147] self       13  13  299  ; -1456226250
176E  62830001           [148] call       13  2   2  
1772  D9420300           [149] loadk      11  13       ; 0
fail op	21
1776  1580C305           [150] concat     0   11  270
177A  1A000480           [151] jmp        17           ; to [169]
177E  9DC30300           [152] getglobal  14  15       ; 538022378
1782  D9430300           [153] loadk      15  13       ; 0
1786  A2430001           [154] call       14  2   1  
178A  9D430500           [155] getglobal  14  21       ; 1289681407
178E  A2838000           [156] call       14  1   2  
1792  9C030007           [157] div        14  14  0  
1796  C3828305           [158] add        11  11  14 
179A  8E03CB06           [159] gettable   14  13  300  ; "postProcess"
179E  DD830B00           [160] getglobal  15  46       ; 1668611480
17A2  1DC40B00           [161] getglobal  16  47       ; -1642362560
17A6  52048005           [162] move       17  11     
17AA  22840001           [163] call       16  2   2  
17AE  59440300           [164] loadk      17  13       ; 0
17B2  99840300           [165] loadk      18  14       ; 0
17B6  E2830002           [166] call       15  4   2  
17BA  8CC38396           [167] settable   14  301 15   ; "fade"
17BE  1A00FB7F           [168] jmp        -19          ; to [150]
17C2  8E03CB06           [169] gettable   14  13  300  ; "postProcess"
17C6  8C83C396           [170] settable   14  301 270  ; "fade" 0
17CA  93038001           [171] getupval   14  3      
17CE  8E034C07           [172] gettable   14  14  304  ; 2130280901
17D2  DD430C00           [173] getglobal  15  49       ; cinematicWRes
17D6  1D840C00           [174] getglobal  16  50       ; blockingInputFilter
17DA  A2438001           [175] call       14  3   1  
17DE  8E03CB06           [176] gettable   14  13  300  ; "postProcess"
17E2  8CC3CC96           [177] settable   14  301 307  ; "fade" 0
17E6  9D030100           [178] getglobal  14  4        ; gRegion
17EA  A4034D07           [179] self       14  14  308  ; 65205951
17EE  A2830001           [180] call       14  2   2  
17F2  DD430200           [181] getglobal  15  9        ; 1074689893
17F6  12040007           [182] move       16  14     
17FA  E2830001           [183] call       15  2   2  
17FE  D8030000           [184] test       15      0    ; to [186] if true
1802  1AC00180           [185] jmp        8            ; to [194]
1806  DDC30300           [186] getglobal  15  15       ; 538022378
180A  19440300           [187] loadk      16  13       ; 0
180E  E2430001           [188] call       15  2   1  
1812  DD030100           [189] getglobal  15  4        ; gRegion
1816  E403CD07           [190] self       15  15  308  ; 65205951
181A  E2830001           [191] call       15  2   2  
181E  92038007           [192] move       14  15     
1822  1A80FC7F           [193] jmp        -13          ; to [181]
1826  E4434D07           [194] self       15  14  309  ; -1957065004
182A  5D840D00           [195] getglobal  17  54       ; gLotusOperatorAvatarType
182E  E2838001           [196] call       15  3   2  
1832  D8430000           [197] test       15      1    ; to [199] if false
1836  1AC00380           [198] jmp        16           ; to [215]
183A  DD830700           [199] getglobal  15  30       ; _T
183E  CC03CE9B           [200] settable   15  311 312  ; "HideTransferenceFx" 1
1842  E4434E07           [201] self       15  14  313  ; -521198746
1846  E2430001           [202] call       15  2   1  
184A  DDC30300           [203] getglobal  15  15       ; 538022378
184E  19440300           [204] loadk      16  13       ; 0
1852  E2430001           [205] call       15  2   1  
1856  DD030100           [206] getglobal  15  4        ; gRegion
185A  E403CD07           [207] self       15  15  308  ; 65205951
185E  E2830001           [208] call       15  2   2  
1862  92038007           [209] move       14  15     
1866  E4434D07           [210] self       15  14  309  ; -1957065004
186A  5D840D00           [211] getglobal  17  54       ; gLotusOperatorAvatarType
186E  E2838001           [212] call       15  3   2  
1872  D8030000           [213] test       15      0    ; to [215] if true
1876  1AC0FC7F           [214] jmp        -12          ; to [203]
187A  C6030008           [215] loadnil    15  16     
187E  5D040100           [216] getglobal  17  4        ; gRegion
1882  6444C108           [217] self       17  17  261  ; -1875307917
1886  DD840100           [218] getglobal  19  6        ; -332969190
188A  19850E00           [219] loadk      20  58       ; "LotusHelmetTeleport"
188E  E2040001           [220] call       19  2   0  
1892  62840000           [221] call       17  0   2  
1896  9D440200           [222] getglobal  18  9        ; 1074689893
189A  D2048008           [223] move       19  17     
189E  A2840001           [224] call       18  2   2  
18A2  98440000           [225] test       18      1    ; to [227] if false
18A6  1A800180           [226] jmp        7            ; to [234]
18AA  A4C4CE08           [227] self       18  17  315  ; 196800914
18AE  A2840001           [228] call       18  2   2  
18B2  D2030009           [229] move       15  18     
18B6  A404CF08           [230] self       18  17  316  ; 54877834
18BA  A2840001           [231] call       18  2   2  
18BE  12040009           [232] move       16  18     
18C2  1AC00080           [233] jmp        4            ; to [238]
18C6  A4C44E07           [234] self       18  14  315  ; 196800914
18CA  A2840001           [235] call       18  2   2  
18CE  1D440F00           [236] getglobal  16  61       ; ZERO_ROTATION
18D2  D2030009           [237] move       15  18     
18D6  A4844F07           [238] self       18  14  318  ; 970454089
18DA  12058007           [239] move       20  15     
18DE  52050008           [240] move       21  16     
18E2  A2440002           [241] call       18  4   1  
18E6  A4C44F07           [242] self       18  14  319  ; 1292478819
18EA  A2840001           [243] call       18  2   2  
18EE  A4045009           [244] self       18  18  320  ; 1417583104
18F2  12050008           [245] move       20  16     
18F6  A2448001           [246] call       18  3   1  
18FA  A4445007           [247] self       18  14  321  ; 1998801764
18FE  12050008           [248] move       20  16     
1902  A2448001           [249] call       18  3   1  
1906  93040002           [250] getupval   18  4      
190A  8E845009           [251] gettable   18  18  322  ; -623804443
190E  D2040007           [252] move       19  14     
1912  A2440001           [253] call       18  2   1  
1916  9D040100           [254] getglobal  18  4        ; gRegion
191A  A4C45009           [255] self       18  18  323  ; 925677844
191E  A2840001           [256] call       18  2   2  
1922  A4045109           [257] self       18  18  324  ; -1813551355
1926  A2840001           [258] call       18  2   2  
192A  DD040100           [259] getglobal  19  4        ; gRegion
192E  E444C109           [260] self       19  19  261  ; -1875307917
1932  5D850100           [261] getglobal  21  6        ; -332969190
1936  99451100           [262] loadk      22  69       ; "LotusHelmetWarframeTeleport"
193A  62050001           [263] call       21  2   0  
193E  E2840000           [264] call       19  0   2  
1942  52048009           [265] move       17  19     
1946  DD440200           [266] getglobal  19  9        ; 1074689893
194A  12058008           [267] move       20  17     
194E  E2840001           [268] call       19  2   2  
1952  D8440000           [269] test       19      1    ; to [271] if false
1956  1A800180           [270] jmp        7            ; to [278]
195A  E4C4CE08           [271] self       19  17  315  ; 196800914
195E  E2840001           [272] call       19  2   2  
1962  D2038009           [273] move       15  19     
1966  E404CF08           [274] self       19  17  316  ; 54877834
196A  E2840001           [275] call       19  2   2  
196E  12048009           [276] move       16  19     
1972  1AC00080           [277] jmp        4            ; to [282]
1976  E4C44E09           [278] self       19  18  315  ; 196800914
197A  E2840001           [279] call       19  2   2  
197E  1D440F00           [280] getglobal  16  61       ; ZERO_ROTATION
1982  D2038009           [281] move       15  19     
1986  E4844F09           [282] self       19  18  318  ; 970454089
198A  52058007           [283] move       21  15     
198E  92050008           [284] move       22  16     
1992  E2440002           [285] call       19  4   1  
1996  E4C44F09           [286] self       19  18  319  ; 1292478819
199A  E2840001           [287] call       19  2   2  
199E  E404D009           [288] self       19  19  320  ; 1417583104
19A2  52050008           [289] move       21  16     
19A6  E2448001           [290] call       19  3   1  
19AA  E4445009           [291] self       19  18  321  ; 1998801764
19AE  52050008           [292] move       21  16     
19B2  E2448001           [293] call       19  3   1  
19B6  DDC40300           [294] getglobal  19  15       ; 538022378
19BA  19450300           [295] loadk      20  13       ; 0
19BE  E2440001           [296] call       19  2   1  
19C2  DD040100           [297] getglobal  19  4        ; gRegion
19C6  E444C109           [298] self       19  19  261  ; -1875307917
19CA  5D850100           [299] getglobal  21  6        ; -332969190
19CE  99851100           [300] loadk      22  70       ; "SacrificeHelmetCin"
19D2  62050001           [301] call       21  2   0  
19D6  E2840000           [302] call       19  0   2  
19DA  1D450200           [303] getglobal  20  9        ; 1074689893
19DE  52058009           [304] move       21  19     
19E2  22850001           [305] call       20  2   2  
19E6  18450000           [306] test       20      1    ; to [308] if false
19EA  1A800180           [307] jmp        7            ; to [315]
19EE  24C5D109           [308] self       20  19  327  ; 1710466201
19F2  93058002           [309] getupval   22  5      
19F6  A2058000           [310] call       22  1   0  
19FA  22450000           [311] call       20  0   1  
19FE  2405D209           [312] self       20  19  328  ; -1923578185
1A02  99451200           [313] loadk      22  73       ; "StartPlaying"
1A06  22458001           [314] call       20  3   1  
1A0A  D9820300           [315] loadk      11  14       ; 0
fail op	21
1A0E  15C08286           [316] concat     0   269 11 
1A12  1A000480           [317] jmp        17           ; to [335]
1A16  1DC50300           [318] getglobal  20  15       ; 538022378
1A1A  59450300           [319] loadk      21  13       ; 0
1A1E  22450001           [320] call       20  2   1  
1A22  1D450500           [321] getglobal  20  21       ; 1289681407
1A26  22858000           [322] call       20  1   2  
1A2A  1C05000A           [323] div        20  20  0  
1A2E  CD028505           [324] sub        11  11  20 
1A32  0E05CB06           [325] gettable   20  13  300  ; "postProcess"
1A36  5D850B00           [326] getglobal  21  46       ; 1668611480
1A3A  9DC50B00           [327] getglobal  22  47       ; -1642362560
fail op	0
1A3E  C0058005           [328] move       23  11     
1A42  A2850001           [329] call       22  2   2  
1A46  D9C50C00           [330] loadk      23  51       ; 0
1A4A  19460300           [331] loadk      24  13       ; 0
1A4E  62850002           [332] call       21  4   2  
1A52  0C458596           [333] settable   20  301 21   ; "fade"
1A56  1A00FB7F           [334] jmp        -19          ; to [316]
1A5A  0E05CB06           [335] gettable   20  13  300  ; "postProcess"
1A5E  0C45C396           [336] settable   20  301 269  ; "fade" 0
1A62  1D850700           [337] getglobal  20  30       ; _T
1A66  0C85D29B           [338] settable   20  311 330  ; "HideTransferenceFx" nil
1A6A  13050003           [339] getupval   20  6      
1A6E  22858000           [340] call       20  1   2  
1A72  53058000           [341] getupval   21  1      
1A76  4E45C70A           [342] gettable   21  21  285  ; 910246418
1A7A  9D450600           [343] getglobal  22  25       ; transmissionSet
1A7E  A485460B           [344] self       22  22  282  ; -781703361
1A82  1D860100           [345] getglobal  24  6        ; -332969190
1A86  59C61200           [346] loadk      25  75       ; "Intro1"
1A8A  22060001           [347] call       24  2   0  
1A8E  A2050000           [348] call       22  0   0  
1A92  62450000           [349] call       21  0   1  
1A96  5DC50300           [350] getglobal  21  15       ; 538022378
1A9A  99450300           [351] loadk      22  13       ; 0
1A9E  62450001           [352] call       21  2   1  
1AA2  53058000           [353] getupval   21  1      
1AA6  4E05D30A           [354] gettable   21  21  332  ; 1776858983
1AAA  62858000           [355] call       21  1   2  
1AAE  58050000           [356] test       21      0    ; to [358] if true
1AB2  1AC00080           [357] jmp        4            ; to [362]
1AB6  5DC50300           [358] getglobal  21  15       ; 538022378
1ABA  99450300           [359] loadk      22  13       ; 0
1ABE  62450001           [360] call       21  2   1  
1AC2  1A80FD7F           [361] jmp        -9           ; to [353]
1AC6  53058000           [362] getupval   21  1      
1ACA  4E45C70A           [363] gettable   21  21  285  ; 910246418
1ACE  A485460A           [364] self       22  20  282  ; -781703361
1AD2  1D860100           [365] getglobal  24  6        ; -332969190
1AD6  59461300           [366] loadk      25  77       ; "DSacSceneOneShip0120OperatorVoice"
1ADA  22060001           [367] call       24  2   0  
1ADE  A2050000           [368] call       22  0   0  
1AE2  62450000           [369] call       21  0   1  
1AE6  5DC50300           [370] getglobal  21  15       ; 538022378
1AEA  99050000           [371] loadk      22  0        ; 0
1AEE  62450001           [372] call       21  2   1  
1AF2  5D050100           [373] getglobal  21  4        ; gRegion
1AF6  6445CA0A           [374] self       21  21  297  ; 630793108
1AFA  DD851300           [375] getglobal  23  78       ; lotusShipIntroSound
1AFE  1D860A00           [376] getglobal  24  42       ; ZERO_VECTOR
1B02  57060000           [377] loadbool   25  0   0    ; false
1B06  9DC61300           [378] getglobal  26  79       ; Engine
1B0A  8E06540D           [379] gettable   26  26  336  ; "SP_MED"
1B0E  62850003           [380] call       21  6   2  
1B12  99450300           [381] loadk      22  13       ; 0
fail op	21
1B16  1500400B           [382] concat     0   22  256
1B1A  1A800580           [383] jmp        23           ; to [407]
1B1E  DDC50300           [384] getglobal  23  15       ; 538022378
1B22  19460300           [385] loadk      24  13       ; 0
1B26  E2450001           [386] call       23  2   1  
1B2A  DD450500           [387] getglobal  23  21       ; 1289681407
1B2E  E2858000           [388] call       23  1   2  
1B32  83C5050B           [389] add        22  22  23 
1B36  DD050100           [390] getglobal  23  4        ; gRegion
1B3A  E405CD0B           [391] self       23  23  308  ; 65205951
1B3E  E2850001           [392] call       23  2   2  
1B42  E445D40B           [393] self       23  23  337  ; 737034583
1B46  5DC61300           [394] getglobal  25  79       ; Engine
1B4A  4E86D40C           [395] gettable   25  25  338  ; "ANGRY"
1B4E  9DC60B00           [396] getglobal  26  47       ; -1642362560
1B52  DDC60B00           [397] getglobal  27  47       ; -1642362560
1B56  1D870B00           [398] getglobal  28  46       ; 1668611480
1B5A  5C07400B           [399] div        29  22  256  ; 0
1B5E  99470300           [400] loadk      30  13       ; 0
1B62  D9870300           [401] loadk      31  14       ; 0
1B66  22070002           [402] call       28  4   0  
1B6A  E2060000           [403] call       27  0   0  
1B6E  A2060000           [404] call       26  0   0  
1B72  E2450000           [405] call       23  0   1  
1B76  1A80F97F           [406] jmp        -25          ; to [382]
1B7A  DD450200           [407] getglobal  23  9        ; 1074689893
1B7E  1206800A           [408] move       24  21     
1B82  E2850001           [409] call       23  2   2  
1B86  D8450000           [410] test       23      1    ; to [412] if false
1B8A  1A400280           [411] jmp        10           ; to [422]
1B8E  DDC50300           [412] getglobal  23  15       ; 538022378
1B92  1DC61400           [413] getglobal  24  83       ; math
1B96  0E06550C           [414] gettable   24  24  340  ; -1962864584
1B9A  59460300           [415] loadk      25  13       ; 0
1B9E  A446D50A           [416] self       26  21  341  ; -1855097957
1BA2  A2860001           [417] call       26  2   2  
1BA6  8486550D           [418] mul        26  26  342  ; -51
1BAA  8D86050D           [419] sub        26  26  22 
1BAE  22068001           [420] call       24  3   0  
1BB2  E2450000           [421] call       23  0   1  
1BB6  D3058000           [422] getupval   23  1      
1BBA  CE45C70B           [423] gettable   23  23  285  ; 910246418
1BBE  2486460A           [424] self       24  20  282  ; -781703361
1BC2  9D860100           [425] getglobal  26  6        ; -332969190
1BC6  D9C61500           [426] loadk      27  87       ; "DSacSceneOneShip0150OperatorVoice"
1BCA  A2060001           [427] call       26  2   0  
1BCE  22060000           [428] call       24  0   0  
1BD2  E2450000           [429] call       23  0   1  
1BD6  DD450200           [430] getglobal  23  9        ; 1074689893
1BDA  1206800A           [431] move       24  21     
1BDE  E2850001           [432] call       23  2   2  
1BE2  D8450000           [433] test       23      1    ; to [435] if false
1BE6  1A000280           [434] jmp        9            ; to [444]
1BEA  DDC50300           [435] getglobal  23  15       ; 538022378
1BEE  1DC61400           [436] getglobal  24  83       ; math
1BF2  0E06550C           [437] gettable   24  24  340  ; -1962864584
1BF6  59460300           [438] loadk      25  13       ; 0
1BFA  A446D50A           [439] self       26  21  341  ; -1855097957
1BFE  A2860001           [440] call       26  2   2  
1C02  8406560D           [441] mul        26  26  344  ; -51
1C06  22068001           [442] call       24  3   0  
1C0A  E2450000           [443] call       23  0   1  
1C0E  D205000B           [444] move       23  22     
1C12  0DC6050B           [445] sub        24  22  23 
fail op	21
1C16  1500400C           [446] concat     0   24  256
1C1A  1A000680           [447] jmp        25           ; to [473]
1C1E  1DC60300           [448] getglobal  24  15       ; 538022378
1C22  59460300           [449] loadk      25  13       ; 0
1C26  22460001           [450] call       24  2   1  
1C2A  1D460500           [451] getglobal  24  21       ; 1289681407
1C2E  22868000           [452] call       24  1   2  
1C32  8305060B           [453] add        22  22  24 
1C36  1D060100           [454] getglobal  24  4        ; gRegion
1C3A  24064D0C           [455] self       24  24  308  ; 65205951
1C3E  22860001           [456] call       24  2   2  
1C42  2446540C           [457] self       24  24  337  ; 737034583
1C46  9DC61300           [458] getglobal  26  79       ; Engine
1C4A  8E86540D           [459] gettable   26  26  338  ; "ANGRY"
1C4E  DDC60B00           [460] getglobal  27  47       ; -1642362560
1C52  1DC70B00           [461] getglobal  28  47       ; -1642362560
1C56  5D870B00           [462] getglobal  29  46       ; 1668611480
1C5A  8DC7050B           [463] sub        30  22  23 
1C5E  9C07400F           [464] div        30  30  256  ; 0
1C62  8D870787           [465] sub        30  270 30   ; 0
1C66  D9470300           [466] loadk      31  13       ; 0
1C6A  19880300           [467] loadk      32  14       ; 0
1C6E  62070002           [468] call       29  4   0  
1C72  22070000           [469] call       28  0   0  
1C76  E2060000           [470] call       27  0   0  
1C7A  22460000           [471] call       24  0   1  
1C7E  1AC0F87F           [472] jmp        -28          ; to [445]
1C82  1D060100           [473] getglobal  24  4        ; gRegion
1C86  24064D0C           [474] self       24  24  308  ; 65205951
1C8A  22860001           [475] call       24  2   2  
1C8E  2446540C           [476] self       24  24  337  ; 737034583
1C92  9DC61300           [477] getglobal  26  79       ; Engine
1C96  8E46560D           [478] gettable   26  26  345  ; "NEUTRAL"
1C9A  D9460300           [479] loadk      27  13       ; 0
1C9E  22460002           [480] call       24  4   1  
1CA2  13068000           [481] getupval   24  1      
1CA6  0E46470C           [482] gettable   24  24  285  ; 910246418
1CAA  5D460600           [483] getglobal  25  25       ; transmissionSet
1CAE  6486C60C           [484] self       25  25  282  ; -781703361
1CB2  DD860100           [485] getglobal  27  6        ; -332969190
1CB6  19871600           [486] loadk      28  90       ; "Intro2"
1CBA  E2060001           [487] call       27  2   0  
1CBE  62060000           [488] call       25  0   0  
1CC2  22460000           [489] call       24  0   1  
1CC6  1DC60300           [490] getglobal  24  15       ; 538022378
1CCA  59460300           [491] loadk      25  13       ; 0
1CCE  22460001           [492] call       24  2   1  
1CD2  13068000           [493] getupval   24  1      
1CD6  0E06530C           [494] gettable   24  24  332  ; 1776858983
1CDA  22868000           [495] call       24  1   2  
1CDE  18060000           [496] test       24      0    ; to [498] if true
1CE2  1AC00080           [497] jmp        4            ; to [502]
1CE6  1DC60300           [498] getglobal  24  15       ; 538022378
1CEA  59460300           [499] loadk      25  13       ; 0
1CEE  22460001           [500] call       24  2   1  
1CF2  1A80FD7F           [501] jmp        -9           ; to [493]
1CF6  13060001           [502] getupval   24  2      
1CFA  57060000           [503] loadbool   25  0   0    ; false
1CFE  22460001           [504] call       24  2   1  
1D02  13068003           [505] getupval   24  7      
1D06  22468000           [506] call       24  1   1  
1D0A  1E008000           [507] return     0   1      
                         * constants:
1D0E  5B                 sizek (91)
1D0F  03                 const type 3
1D10  0000003F           const [0]: (0)
1D14  03                 const type 3
1D15  00000040           const [1]: (0)
1D19  03                 const type 3
1D1A  00007041           const [2]: (0)
1D1E  03                 const type 3
1D1F  0000A041           const [3]: (0)
1D23  04                 const type 4
1D24  08                 string size (8)
1D25  67526567696F6E00   "gRegion\0"
                         const [4]: "gRegion"
1D2D  01                 const type 3
1D2E  73123990           const [5]: (-1875307917)
1D32  01                 const type 3
1D33  1A4B27EC           const [6]: (-332969190)
1D37  04                 const type 4
1D38  12                 string size (18)
1D39  4C6F74757348656C+  "LotusHel"
1D41  6D6574416374696F+  "metActio"
1D49  6E00               "n\0"
                         const [7]: "LotusHelmetAction"
1D4B  04                 const type 4
1D4C  12                 string size (18)
1D4D  4C6F74757348656C+  "LotusHel"
1D55  6D65744D61726B65+  "metMarke"
1D5D  7200               "r\0"
                         const [8]: "LotusHelmetMarker"
1D5F  01                 const type 3
1D60  65770E40           const [9]: (1074689893)
1D64  01                 const type 3
1D65  40BDBC94           const [10]: (-1799570112)
1D69  04                 const type 4
1D6A  0B                 string size (11)
1D6B  4F6E46696E697368+  "OnFinish"
1D73  656400             "ed\0"
                         const [11]: "OnFinished"
1D76  01                 const type 3
1D77  A61BE9C5           const [12]: (-974578778)
1D7B  03                 const type 3
1D7C  00000000           const [13]: (0)
1D80  03                 const type 3
1D81  0000803F           const [14]: (0)
1D85  01                 const type 3
1D86  EA911120           const [15]: (538022378)
1D8A  04                 const type 4
1D8B  0A                 string size (10)
1D8C  6747616D65446174+  "gGameDat"
1D94  6100               "a\0"
                         const [16]: "gGameData"
1D96  01                 const type 3
1D97  FD052E6F           const [17]: (1865287165)
1D9B  01                 const type 3
1D9C  4B78C852           const [18]: (1388869707)
1DA0  04                 const type 4
1DA1  09                 string size (9)
1DA2  6B6579436861696E+  "keyChain"
1DAA  00                 "\0"
                         const [19]: "keyChain"
1DAB  01                 const type 3
1DAC  2F27B12D           const [20]: (766584623)
1DB0  01                 const type 3
1DB1  FFF9DE4C           const [21]: (1289681407)
1DB5  01                 const type 3
1DB6  227362B1           const [22]: (-1318948062)
1DBA  03                 const type 3
1DBB  00004040           const [23]: (0)
1DBF  01                 const type 3
1DC0  42674A8C           const [24]: (-1941280958)
1DC4  04                 const type 4
1DC5  10                 string size (16)
1DC6  7472616E736D6973+  "transmis"
1DCE  73696F6E53657400   "sionSet\0"
                         const [25]: "transmissionSet"
1DD6  01                 const type 3
1DD7  3F2768D1           const [26]: (-781703361)
1DDB  04                 const type 4
1DDC  0D                 string size (13)
1DDD  496E74726F576869+  "IntroWhi"
1DE5  7370657200         "sper\0"
                         const [27]: "IntroWhisper"
1DEA  01                 const type 3
1DEB  BCD6AE9F           const [28]: (-1615931716)
1DEF  01                 const type 3
1DF0  12424136           const [29]: (910246418)
1DF4  04                 const type 4
1DF5  03                 string size (3)
1DF6  5F5400             "_T\0"
                         const [30]: "_T"
1DF9  04                 const type 4
1DFA  10                 string size (16)
1DFB  6375725472616E73+  "curTrans"
1E03  6D697373696F6E00   "mission\0"
                         const [31]: "curTransmission"
1E0B  04                 const type 4
1E0C  14                 string size (20)
1E0D  5175657565645472+  "QueuedTr"
1E15  616E736D69737369+  "ansmissi"
1E1D  6F6E7300           "ons\0"
                         const [32]: "QueuedTransmissions"
1E21  04                 const type 4
1E22  0A                 string size (10)
1E23  67466C6173684D67+  "gFlashMg"
1E2B  7200               "r\0"
                         const [33]: "gFlashMgr"
1E2D  01                 const type 3
1E2E  92D06D61           const [34]: (1634586770)
1E32  04                 const type 4
1E33  03                 string size (3)
1E34  5F4700             "_G\0"
                         const [35]: "_G"
1E37  04                 const type 4
1E38  1A                 string size (26)
1E39  55494D6F7669655F+  "UIMovie_"
1E41  5472616E736D6973+  "Transmis"
1E49  73696F6E4D6F7669+  "sionMovi"
1E51  6500               "e\0"
                         const [36]: "UIMovie_TransmissionMovie"
1E53  01                 const type 3
1E54  A9278F45           const [37]: (1167009705)
1E58  04                 const type 4
1E59  0B                 string size (11)
1E5A  5175657565436C6F+  "QueueClo"
1E62  736500             "se\0"
                         const [38]: "QueueClose"
1E65  04                 const type 4
1E66  01                 string size (0)
                         const [39]: ""
1E68  04                 const type 4
1E69  11                 string size (17)
1E6A  746F75636848656C+  "touchHel"
1E72  6D6574536F756E64+  "metSound"
1E7A  00                 "\0"
                         const [40]: "touchHelmetSound"
1E7B  01                 const type 3
1E7C  94239925           const [41]: (630793108)
1E80  04                 const type 4
1E81  0C                 string size (12)
1E82  5A45524F5F564543+  "ZERO_VEC"
1E8A  544F5200           "TOR\0"
                         const [42]: "ZERO_VECTOR"
1E8E  01                 const type 3
1E8F  36C033A9           const [43]: (-1456226250)
1E93  04                 const type 4
1E94  0C                 string size (12)
1E95  706F737450726F63+  "postProc"
1E9D  65737300           "ess\0"
                         const [44]: "postProcess"
1EA1  04                 const type 4
1EA2  05                 string size (5)
1EA3  6661646500         "fade\0"
                         const [45]: "fade"
1EA8  01                 const type 3
1EA9  98FD7463           const [46]: (1668611480)
1EAD  01                 const type 3
1EAE  40891B9E           const [47]: (-1642362560)
1EB2  01                 const type 3
1EB3  C581F97E           const [48]: (2130280901)
1EB7  04                 const type 4
1EB8  0E                 string size (14)
1EB9  63696E656D617469+  "cinemati"
1EC1  635752657300       "cWRes\0"
                         const [49]: "cinematicWRes"
1EC7  04                 const type 4
1EC8  14                 string size (20)
1EC9  626C6F636B696E67+  "blocking"
1ED1  496E70757446696C+  "InputFil"
1ED9  74657200           "ter\0"
                         const [50]: "blockingInputFilter"
1EDD  03                 const type 3
1EDE  000080BF           const [51]: (0)
1EE2  01                 const type 3
1EE3  BFF6E203           const [52]: (65205951)
1EE7  01                 const type 3
1EE8  D48E598B           const [53]: (-1957065004)
1EEC  04                 const type 4
1EED  19                 string size (25)
1EEE  674C6F7475734F70+  "gLotusOp"
1EF6  657261746F724176+  "eratorAv"
1EFE  6174617254797065+  "atarType"
1F06  00                 "\0"
                         const [54]: "gLotusOperatorAvatarType"
1F07  04                 const type 4
1F08  13                 string size (19)
1F09  486964655472616E+  "HideTran"
1F11  73666572656E6365+  "sference"
1F19  467800             "Fx\0"
                         const [55]: "HideTransferenceFx"
1F1C  01                 const type 3
1F1D  01000000           const [56]: (1)
1F21  01                 const type 3
1F22  6623EFE0           const [57]: (-521198746)
1F26  04                 const type 4
1F27  14                 string size (20)
1F28  4C6F74757348656C+  "LotusHel"
1F30  6D657454656C6570+  "metTelep"
1F38  6F727400           "ort\0"
                         const [58]: "LotusHelmetTeleport"
1F3C  01                 const type 3
1F3D  92F1BA0B           const [59]: (196800914)
1F41  01                 const type 3
1F42  8A5E4503           const [60]: (54877834)
1F46  04                 const type 4
1F47  0E                 string size (14)
1F48  5A45524F5F524F54+  "ZERO_ROT"
1F50  4154494F4E00       "ATION\0"
                         const [61]: "ZERO_ROTATION"
1F56  01                 const type 3
1F57  49F4D739           const [62]: (970454089)
1F5B  01                 const type 3
1F5C  63A9094D           const [63]: (1292478819)
1F60  01                 const type 3
1F61  009A7E54           const [64]: (1417583104)
1F65  01                 const type 3
1F66  644B2377           const [65]: (1998801764)
1F6A  01                 const type 3
1F6B  E57FD1DA           const [66]: (-623804443)
1F6F  01                 const type 3
1F70  14B92C37           const [67]: (925677844)
1F74  01                 const type 3
1F75  0567E793           const [68]: (-1813551355)
1F79  04                 const type 4
1F7A  1C                 string size (28)
1F7B  4C6F74757348656C+  "LotusHel"
1F83  6D65745761726672+  "metWarfr"
1F8B  616D6554656C6570+  "ameTelep"
1F93  6F727400           "ort\0"
                         const [69]: "LotusHelmetWarframeTeleport"
1F97  04                 const type 4
1F98  13                 string size (19)
1F99  5361637269666963+  "Sacrific"
1FA1  6548656C6D657443+  "eHelmetC"
1FA9  696E00             "in\0"
                         const [70]: "SacrificeHelmetCin"
1FAC  01                 const type 3
1FAD  99A4F365           const [71]: (1710466201)
1FB1  01                 const type 3
1FB2  B786588D           const [72]: (-1923578185)
1FB6  04                 const type 4
1FB7  0D                 string size (13)
1FB8  5374617274506C61+  "StartPla"
1FC0  79696E6700         "ying\0"
                         const [73]: "StartPlaying"
1FC5  00                 const type 0
                         const [74]: nil
1FC6  04                 const type 4
1FC7  07                 string size (7)
1FC8  496E74726F3100     "Intro1\0"
                         const [75]: "Intro1"
1FCF  01                 const type 3
1FD0  67B7E869           const [76]: (1776858983)
1FD4  04                 const type 4
1FD5  22                 string size (34)
1FD6  445361635363656E+  "DSacScen"
1FDE  654F6E6553686970+  "eOneShip"
1FE6  303132304F706572+  "0120Oper"
1FEE  61746F72566F6963+  "atorVoic"
1FF6  6500               "e\0"
                         const [77]: "DSacSceneOneShip0120OperatorVoice"
1FF8  04                 const type 4
1FF9  14                 string size (20)
1FFA  6C6F747573536869+  "lotusShi"
2002  70496E74726F536F+  "pIntroSo"
200A  756E6400           "und\0"
                         const [78]: "lotusShipIntroSound"
200E  04                 const type 4
200F  07                 string size (7)
2010  456E67696E6500     "Engine\0"
                         const [79]: "Engine"
2017  04                 const type 4
2018  07                 string size (7)
2019  53505F4D454400     "SP_MED\0"
                         const [80]: "SP_MED"
2020  01                 const type 3
2021  5741EE2B           const [81]: (737034583)
2025  04                 const type 4
2026  06                 string size (6)
2027  414E47525900       "ANGRY\0"
                         const [82]: "ANGRY"
202D  04                 const type 4
202E  05                 string size (5)
202F  6D61746800         "math\0"
                         const [83]: "math"
2034  01                 const type 3
2035  3810018B           const [84]: (-1962864584)
2039  01                 const type 3
203A  9B736D91           const [85]: (-1855097957)
203E  03                 const type 3
203F  CDCC4C3F           const [86]: (-51)
2043  04                 const type 4
2044  22                 string size (34)
2045  445361635363656E+  "DSacScen"
204D  654F6E6553686970+  "eOneShip"
2055  303135304F706572+  "0150Oper"
205D  61746F72566F6963+  "atorVoic"
2065  6500               "e\0"
                         const [87]: "DSacSceneOneShip0150OperatorVoice"
2067  03                 const type 3
2068  CDCC4C3E           const [88]: (-51)
206C  04                 const type 4
206D  08                 string size (8)
206E  4E45555452414C00   "NEUTRAL\0"
                         const [89]: "NEUTRAL"
2076  04                 const type 4
2077  07                 string size (7)
2078  496E74726F3200     "Intro2\0"
                         const [90]: "Intro2"
                         * functions:
207F  00                 sizep (0)
                         * lines:
2081  03                 sizelineinfo (507)
                         [pc] (line)
2082  DB                 [001] (-37)
2083  00                 [002] (-36)
2084  00                 [003] (-35)
2085  00                 [004] (-34)
2086  DC                 [005] (-33)
2087  00                 [006] (-31)
2088  00                 [007] (-31)
2089  00                 [008] (-31)
208A  DD                 [009] (-31)
208B  00                 [010] (-31)
208C  00                 [011] (-31)
208D  00                 [012] (-30)
208E  DE                 [013] (-30)
208F  00                 [014] (-30)
2090  00                 [015] (-30)
2091  00                 [016] (-30)
2092  DF                 [017] (-30)
2093  00                 [018] (-28)
2094  00                 [019] (-28)
2095  00                 [020] (-27)
2096  E1                 [021] (-27)
2097  00                 [022] (-27)
2098  00                 [023] (-27)
2099  00                 [024] (-27)
209A  E1                 [025] (-26)
209B  00                 [026] (-26)
209C  00                 [027] (-26)
209D  00                 [028] (-26)
209E  E1                 [029] (-25)
209F  00                 [030] (-25)
20A0  00                 [031] (-22)
20A1  00                 [032] (-21)
20A2  E1                 [033] (-20)
20A3  00                 [034] (-19)
20A4  00                 [035] (-18)
20A5  00                 [036] (-17)
20A6  E1                 [037] (-17)
20A7  00                 [038] (-17)
20A8  00                 [039] (-16)
20A9  00                 [040] (-16)
20AA  E1                 [041] (-16)
20AB  00                 [042] (-14)
20AC  00                 [043] (-14)
20AD  00                 [044] (-14)
20AE  E2                 [045] (-14)
20AF  00                 [046] (-14)
20B0  00                 [047] (-13)
20B1  00                 [048] (-10)
20B2  E2                 [049] (-10)
20B3  00                 [050] (-10)
20B4  00                 [051] (-10)
20B5  00                 [052] (-10)
20B6  E2                 [053] (-10)
20B7  00                 [054] (-10)
20B8  00                 [055] (-10)
20B9  00                 [056] (-9)
20BA  E2                 [057] (-9)
20BB  00                 [058] (-8)
20BC  00                 [059] (-8)
20BD  00                 [060] (-7)
20BE  E2                 [061] (-4)
20BF  00                 [062] (-4)
20C0  00                 [063] (-4)
20C1  00                 [064] (-3)
20C2  E2                 [065] (-3)
20C3  00                 [066] (-2)
20C4  00                 [067] (-1)
20C5  00                 [068] (-1)
20C6  E4                 [069] (-1)
20C7  00                 [070] (-1)
20C8  00                 [071] (-1)
20C9  00                 [072] (-1)
20CA  E4                 [073] (0)
20CB  00                 [074] (0)
20CC  00                 [075] (0)
20CD  00                 [076] (1)
20CE  E5                 [077] (1)
20CF  00                 [078] (2)
20D0  00                 [079] (2)
20D1  00                 [080] (2)
20D2  E5                 [081] (2)
20D3  00                 [082] (2)
20D4  00                 [083] (3)
20D5  00                 [084] (4)
20D6  E5                 [085] (4)
20D7  00                 [086] (4)
20D8  00                 [087] (4)
20D9  00                 [088] (4)
20DA  E5                 [089] (4)
20DB  00                 [090] (4)
20DC  00                 [091] (4)
20DD  00                 [092] (4)
20DE  E5                 [093] (4)
20DF  00                 [094] (4)
20E0  00                 [095] (5)
20E1  00                 [096] (5)
20E2  E6                 [097] (5)
20E3  00                 [098] (5)
20E4  00                 [099] (6)
20E5  00                 [100] (7)
20E6  E6                 [101] (7)
20E7  00                 [102] (8)
20E8  00                 [103] (11)
20E9  00                 [104] (14)
20EA  E6                 [105] (14)
20EB  00                 [106] (14)
20EC  00                 [107] (16)
20ED  00                 [108] (16)
20EE  E6                 [109] (16)
20EF  00                 [110] (16)
20F0  00                 [111] (17)
20F1  00                 [112] (17)
20F2  E7                 [113] (17)
20F3  00                 [114] (18)
20F4  00                 [115] (18)
20F5  00                 [116] (18)
20F6  E7                 [117] (18)
20F7  00                 [118] (18)
20F8  00                 [119] (19)
20F9  00                 [120] (19)
20FA  EA                 [121] (19)
20FB  00                 [122] (19)
20FC  00                 [123] (19)
20FD  00                 [124] (20)
20FE  EB                 [125] (20)
20FF  00                 [126] (20)
2100  00                 [127] (20)
2101  00                 [128] (24)
2102  EC                 [129] (24)
2103  00                 [130] (24)
2104  00                 [131] (24)
2105  00                 [132] (24)
2106  ED                 [133] (25)
2107  00                 [134] (25)
2108  00                 [135] (28)
2109  00                 [136] (28)
210A  EE                 [137] (28)
210B  00                 [138] (28)
210C  00                 [139] (28)
210D  00                 [140] (29)
210E  EF                 [141] (29)
210F  00                 [142] (29)
2110  00                 [143] (29)
2111  00                 [144] (29)
2112  EF                 [145] (29)
2113  00                 [146] (32)
2114  00                 [147] (32)
2115  00                 [148] (32)
2116  EF                 [149] (34)
2117  00                 [150] (35)
2118  00                 [151] (35)
2119  00                 [152] (36)
211A  F0                 [153] (36)
211B  00                 [154] (36)
211C  00                 [155] (37)
211D  00                 [156] (37)
211E  F0                 [157] (37)
211F  00                 [158] (37)
2120  00                 [159] (38)
2121  00                 [160] (38)
2122  F0                 [161] (38)
2123  00                 [162] (38)
2124  00                 [163] (38)
2125  00                 [164] (38)
2126  F2                 [165] (38)
2127  00                 [166] (38)
2128  00                 [167] (38)
2129  00                 [168] (38)
212A  F2                 [169] (40)
212B  00                 [170] (40)
212C  00                 [171] (42)
212D  00                 [172] (42)
212E  F2                 [173] (42)
212F  00                 [174] (42)
2130  00                 [175] (42)
2131  00                 [176] (44)
2132  F2                 [177] (44)
2133  00                 [178] (46)
2134  00                 [179] (46)
2135  00                 [180] (46)
2136  F2                 [181] (47)
2137  00                 [182] (47)
2138  00                 [183] (47)
2139  00                 [184] (47)
213A  F3                 [185] (47)
213B  00                 [186] (48)
213C  00                 [187] (48)
213D  00                 [188] (48)
213E  F6                 [189] (49)
213F  00                 [190] (49)
2140  00                 [191] (49)
2141  00                 [192] (49)
2142  F6                 [193] (49)
2143  00                 [194] (52)
2144  00                 [195] (52)
2145  00                 [196] (52)
2146  F6                 [197] (52)
2147  00                 [198] (52)
2148  00                 [199] (53)
2149  00                 [200] (53)
214A  F6                 [201] (54)
214B  00                 [202] (54)
214C  00                 [203] (57)
214D  00                 [204] (57)
214E  F6                 [205] (57)
214F  00                 [206] (58)
2150  00                 [207] (58)
2151  00                 [208] (58)
2152  F6                 [209] (58)
2153  00                 [210] (59)
2154  00                 [211] (59)
2155  00                 [212] (59)
2156  F6                 [213] (59)
2157  00                 [214] (59)
2158  00                 [215] (62)
2159  00                 [216] (63)
215A  F6                 [217] (63)
215B  00                 [218] (63)
215C  00                 [219] (63)
215D  00                 [220] (63)
215E  F7                 [221] (63)
215F  00                 [222] (64)
2160  00                 [223] (64)
2161  00                 [224] (64)
2162  F7                 [225] (64)
2163  00                 [226] (64)
2164  00                 [227] (65)
2165  00                 [228] (65)
2166  F8                 [229] (65)
2167  00                 [230] (66)
2168  00                 [231] (66)
2169  00                 [232] (66)
216A  F8                 [233] (66)
216B  00                 [234] (68)
216C  00                 [235] (68)
216D  00                 [236] (68)
216E  F9                 [237] (68)
216F  00                 [238] (70)
2170  00                 [239] (70)
2171  00                 [240] (70)
2172  FC                 [241] (70)
2173  00                 [242] (71)
2174  00                 [243] (71)
2175  00                 [244] (71)
2176  FC                 [245] (71)
2177  00                 [246] (71)
2178  00                 [247] (72)
2179  00                 [248] (72)
217A  FC                 [249] (72)
217B  00                 [250] (74)
217C  00                 [251] (74)
217D  00                 [252] (74)
217E  FD                 [253] (74)
217F  00                 [254] (76)
2180  00                 [255] (76)
2181  00                 [256] (76)
2182  FD                 [257] (76)
2183  00                 [258] (76)
2184  00                 [259] (77)
2185  00                 [260] (77)
2186  FE                 [261] (77)
2187  00                 [262] (77)
2188  00                 [263] (77)
2189  00                 [264] (77)
218A  FF                 [265] (77)
218B  00                 [266] (78)
218C  00                 [267] (78)
218D  00                 [268] (78)
218E  FF                 [269] (78)
218F  00                 [270] (78)
2190  00                 [271] (79)
2191  00                 [272] (79)
2192  FF                 [273] (79)
2193  00                 [274] (80)
2194  00                 [275] (80)
2195  00                 [276] (80)
2196  FF                 [277] (80)
2197  00                 [278] (82)
2198  00                 [279] (82)
2199  00                 [280] (82)
219A  FF                 [281] (82)
219B  00                 [282] (84)
219C  00                 [283] (84)
219D  00                 [284] (84)
219E  FF                 [285] (84)
219F  00                 [286] (85)
21A0  00                 [287] (85)
21A1  00                 [288] (85)
21A2  00                 [289] (85)
21A3  01                 [290] (85)
21A4  00                 [291] (86)
21A5  00                 [292] (86)
21A6  00                 [293] (86)
21A7  01                 [294] (88)
21A8  00                 [295] (88)
21A9  00                 [296] (88)
21AA  00                 [297] (90)
21AB  01                 [298] (90)
21AC  00                 [299] (90)
21AD  00                 [300] (90)
21AE  01                 [301] (90)
21AF  01                 [302] (90)
21B0  00                 [303] (91)
21B1  00                 [304] (91)
21B2  01                 [305] (91)
21B3  01                 [306] (91)
21B4  00                 [307] (91)
21B5  00                 [308] (92)
21B6  02                 [309] (92)
21B7  01                 [310] (92)
21B8  00                 [311] (92)
21B9  00                 [312] (93)
21BA  02                 [313] (93)
21BB  01                 [314] (93)
21BC  00                 [315] (96)
21BD  00                 [316] (97)
21BE  02                 [317] (97)
21BF  01                 [318] (98)
21C0  00                 [319] (98)
21C1  00                 [320] (98)
21C2  02                 [321] (99)
21C3  01                 [322] (99)
21C4  00                 [323] (99)
21C5  00                 [324] (99)
21C6  02                 [325] (100)
21C7  01                 [326] (100)
21C8  00                 [327] (100)
21C9  00                 [328] (100)
21CA  03                 [329] (100)
21CB  01                 [330] (100)
21CC  00                 [331] (100)
21CD  00                 [332] (100)
21CE  04                 [333] (100)
21CF  01                 [334] (100)
21D0  00                 [335] (102)
21D1  00                 [336] (102)
21D2  04                 [337] (104)
21D3  01                 [338] (104)
21D4  00                 [339] (106)
21D5  00                 [340] (106)
21D6  04                 [341] (107)
21D7  01                 [342] (107)
21D8  00                 [343] (107)
21D9  00                 [344] (107)
21DA  04                 [345] (107)
21DB  01                 [346] (107)
21DC  00                 [347] (107)
21DD  00                 [348] (107)
21DE  04                 [349] (107)
21DF  01                 [350] (108)
21E0  00                 [351] (108)
21E1  00                 [352] (108)
21E2  04                 [353] (109)
21E3  01                 [354] (109)
21E4  00                 [355] (109)
21E5  00                 [356] (109)
21E6  04                 [357] (109)
21E7  01                 [358] (110)
21E8  00                 [359] (110)
21E9  00                 [360] (110)
21EA  04                 [361] (110)
21EB  01                 [362] (113)
21EC  00                 [363] (113)
21ED  00                 [364] (113)
21EE  04                 [365] (113)
21EF  01                 [366] (113)
21F0  00                 [367] (113)
21F1  00                 [368] (113)
21F2  04                 [369] (113)
21F3  01                 [370] (114)
21F4  00                 [371] (114)
21F5  00                 [372] (114)
21F6  04                 [373] (116)
21F7  01                 [374] (116)
21F8  00                 [375] (116)
21F9  00                 [376] (116)
21FA  05                 [377] (116)
21FB  01                 [378] (116)
21FC  00                 [379] (116)
21FD  00                 [380] (116)
21FE  05                 [381] (117)
21FF  01                 [382] (118)
2200  00                 [383] (118)
2201  00                 [384] (119)
2202  05                 [385] (119)
2203  01                 [386] (119)
2204  00                 [387] (120)
2205  00                 [388] (120)
2206  05                 [389] (120)
2207  01                 [390] (121)
2208  00                 [391] (121)
2209  00                 [392] (121)
220A  06                 [393] (121)
220B  01                 [394] (121)
220C  00                 [395] (121)
220D  00                 [396] (121)
220E  07                 [397] (121)
220F  01                 [398] (121)
2210  00                 [399] (121)
2211  00                 [400] (121)
2212  07                 [401] (121)
2213  01                 [402] (121)
2214  00                 [403] (121)
2215  00                 [404] (121)
2216  08                 [405] (121)
2217  01                 [406] (121)
2218  00                 [407] (124)
2219  00                 [408] (124)
221A  0B                 [409] (124)
221B  01                 [410] (124)
221C  00                 [411] (124)
221D  00                 [412] (125)
221E  0E                 [413] (125)
221F  01                 [414] (125)
2220  00                 [415] (125)
2221  00                 [416] (125)
2222  0E                 [417] (125)
2223  01                 [418] (125)
2224  00                 [419] (125)
2225  00                 [420] (125)
2226  0E                 [421] (125)
2227  01                 [422] (-128)
2228  00                 [423] (-128)
2229  00                 [424] (-128)
222A  10                 [425] (-128)
222B  01                 [426] (-128)
222C  00                 [427] (-128)
222D  00                 [428] (-128)
222E  10                 [429] (-128)
222F  01                 [430] (-126)
2230  00                 [431] (-126)
2231  00                 [432] (-126)
2232  10                 [433] (-126)
2233  01                 [434] (-126)
2234  00                 [435] (-125)
2235  00                 [436] (-125)
2236  10                 [437] (-125)
2237  01                 [438] (-125)
2238  00                 [439] (-125)
2239  00                 [440] (-125)
223A  11                 [441] (-125)
223B  01                 [442] (-125)
223C  00                 [443] (-125)
223D  00                 [444] (-122)
223E  11                 [445] (-121)
223F  01                 [446] (-121)
2240  00                 [447] (-121)
2241  00                 [448] (-120)
2242  11                 [449] (-120)
2243  01                 [450] (-120)
2244  00                 [451] (-119)
2245  00                 [452] (-119)
2246  12                 [453] (-119)
2247  01                 [454] (-118)
2248  00                 [455] (-118)
2249  00                 [456] (-118)
224A  12                 [457] (-118)
224B  01                 [458] (-118)
224C  00                 [459] (-118)
224D  00                 [460] (-118)
224E  12                 [461] (-118)
224F  01                 [462] (-118)
2250  00                 [463] (-118)
2251  00                 [464] (-118)
2252  12                 [465] (-118)
2253  01                 [466] (-118)
2254  00                 [467] (-118)
2255  00                 [468] (-118)
2256  12                 [469] (-118)
2257  01                 [470] (-118)
2258  00                 [471] (-118)
2259  00                 [472] (-118)
225A  13                 [473] (-116)
225B  01                 [474] (-116)
225C  00                 [475] (-116)
225D  00                 [476] (-116)
225E  13                 [477] (-116)
225F  01                 [478] (-116)
2260  00                 [479] (-116)
2261  00                 [480] (-116)
2262  13                 [481] (-115)
2263  01                 [482] (-115)
2264  00                 [483] (-115)
2265  00                 [484] (-115)
2266  13                 [485] (-115)
2267  01                 [486] (-115)
2268  00                 [487] (-115)
2269  00                 [488] (-115)
226A  13                 [489] (-115)
226B  01                 [490] (-114)
226C  00                 [491] (-114)
226D  00                 [492] (-114)
226E  14                 [493] (-113)
226F  01                 [494] (-113)
2270  00                 [495] (-113)
2271  00                 [496] (-113)
2272  14                 [497] (-113)
2273  01                 [498] (-112)
2274  00                 [499] (-112)
2275  00                 [500] (-112)
2276  14                 [501] (-112)
2277  01                 [502] (-109)
2278  00                 [503] (-109)
2279  00                 [504] (-109)
227A  14                 [505] (-107)
227B  01                 [506] (-107)
227C  00                 [507] (-106)
                         * locals:
286E  00                 sizelocvars (0)
                         * upvalues:
286F  00                 sizeupvalues (0)
                         ** end of function **

                         
2870                     ** function [11] definition (level 2)
                         ** start of function **
2870  00                 string size (0)
                         source name: (none)
2872  03                 line defined (408)
2873  CA                 last line defined (458)
2874  03                 nups (8)
2875  08                 numparams (0)
2876  00                 is_vararg (0)
2877  00                 maxstacksize (13)
                         * code:
287A  01                 sizecode (130)
287B  13000000           [001] getupval   0   0      
287F  22408000           [002] call       0   1   1  
2883  1D000000           [003] getglobal  0   0        ; 538022378
2887  59400000           [004] loadk      1   1        ; 0
288B  22400001           [005] call       0   2   1  
288F  1D800000           [006] getglobal  0   2        ; _T
2893  0EC04000           [007] gettable   0   0   259  ; "questInfo"
2897  18000000           [008] test       0       0    ; to [10] if true
289B  1A400280           [009] jmp        10           ; to [20]
289F  1D800000           [010] getglobal  0   2        ; _T
28A3  0EC04000           [011] gettable   0   0   259  ; "questInfo"
28A7  0E004100           [012] gettable   0   0   260  ; "difficulty"
28AB  18000000           [013] test       0       0    ; to [15] if true
28AF  1A000180           [014] jmp        5            ; to [20]
28B3  1D800000           [015] getglobal  0   2        ; _T
28B7  0EC04000           [016] gettable   0   0   259  ; "questInfo"
28BB  0E004100           [017] gettable   0   0   260  ; "difficulty"
fail op	21
28BF  55008082           [018] concat     1   261 0  
28C3  1AC01480           [019] jmp        84           ; to [104]
28C7  17000000           [020] loadbool   0   0   0    ; false
28CB  57000000           [021] loadbool   1   0   0    ; false
28CF  9D800100           [022] getglobal  2   6        ; gGameData
28D3  A4C04101           [023] self       2   2   263  ; 1865287165
28D7  A2800001           [024] call       2   2   2  
28DB  A4004201           [025] self       2   2   264  ; 1847590093
28DF  A2800001           [026] call       2   2   2  
28E3  D9400200           [027] loadk      3   9        ; 0
28E7  0A010001           [028] len        4   2      
28EB  59410200           [029] loadk      5   9        ; 0
28EF  D0800180           [030] forprep    3   7        ; to [38]
28F3  CE810101           [031] gettable   7   2   6  
28F7  CE81C203           [032] gettable   7   7   266  ; "mItemType"
28FB  13028000           [033] getupval   8   1      
fail op	35
28FF  23008203           [034] close      0  
2903  1A400080           [035] jmp        2            ; to [38]
2907  17008000           [036] loadbool   0   1   0    ; true
290B  1A000080           [037] jmp        1            ; to [39]
290F  D4C0FD7F           [038] forloop    3   -8       ; to [31] if loop
2913  18000000           [039] test       0       0    ; to [41] if true
2917  1A000080           [040] jmp        1            ; to [42]
291B  1A800280           [041] jmp        11           ; to [53]
291F  DD810000           [042] getglobal  7   2        ; _T
2923  CEC1C203           [043] gettable   7   7   267  ; "BackgroundMovie"
2927  E401C303           [044] self       7   7   268  ; 1167009705
292B  59420300           [045] loadk      9   13       ; "ShowBlockingMessage"
292F  99820300           [046] loadk      10  14       ; "1"
2933  E2410002           [047] call       7   4   1  
2937  57008000           [048] loadbool   1   1   0    ; true
293B  DD010000           [049] getglobal  7   0        ; 538022378
293F  19420000           [050] loadk      8   1        ; 0
2943  E2410001           [051] call       7   2   1  
2947  1A00F87F           [052] jmp        -31          ; to [22]
294B  58000000           [053] test       1       0    ; to [55] if true
294F  1A400180           [054] jmp        6            ; to [61]
2953  DD810000           [055] getglobal  7   2        ; _T
2957  CEC1C203           [056] gettable   7   7   267  ; "BackgroundMovie"
295B  E401C303           [057] self       7   7   268  ; 1167009705
295F  59420300           [058] loadk      9   13       ; "ShowBlockingMessage"
2963  99C20300           [059] loadk      10  15       ; "0"
2967  E2410002           [060] call       7   4   1  
296B  D3010001           [061] getupval   7   2      
296F  CE01C403           [062] gettable   7   7   272  ; 910246418
2973  1D420400           [063] getglobal  8   17       ; transmissionSet
2977  24824404           [064] self       8   8   274  ; -781703361
297B  9DC20400           [065] getglobal  10  19       ; -332969190
297F  D9020500           [066] loadk      11  20       ; "Ship2_CheckFoundry"
2983  A2020001           [067] call       10  2   0  
2987  22020000           [068] call       8   0   0  
298B  E2410000           [069] call       7   0   1  
298F  DD810000           [070] getglobal  7   2        ; _T
2993  1D820000           [071] getglobal  8   2        ; _T
2997  0E424504           [072] gettable   8   8   277  ; "QuestResetVars"
299B  18420000           [073] test       8       1    ; to [75] if false
299F  1A000080           [074] jmp        1            ; to [76]
29A3  0B020000           [075] newtable   8   0   0    ; array=0, hash=0
29A7  CC01828A           [076] settable   7   277 8    ; "QuestResetVars"
29AB  DD810000           [077] getglobal  7   2        ; _T
29AF  1DC20500           [078] getglobal  8   23       ; -421772368
29B3  53028001           [079] getupval   9   3      
29B7  8B020000           [080] newtable   10  0   0    ; array=0, hash=0
29BB  22828001           [081] call       8   3   2  
29BF  CC01028B           [082] settable   7   278 8    ; "Foundry_SearchTerm"
29C3  DD010600           [083] getglobal  7   24       ; table
29C7  CE41C603           [084] gettable   7   7   281  ; -431682403
29CB  1D820000           [085] getglobal  8   2        ; _T
29CF  0E424504           [086] gettable   8   8   277  ; "QuestResetVars"
29D3  59820500           [087] loadk      9   22       ; "Foundry_SearchTerm"
29D7  E2418001           [088] call       7   3   1  
29DB  C6018003           [089] loadnil    7   7      
29DF  1D820600           [090] getglobal  8   26       ; 1074689893
29E3  52028003           [091] move       9   7      
29E7  22820001           [092] call       8   2   2  
29EB  18020000           [093] test       8       0    ; to [95] if true
29EF  1A000280           [094] jmp        9            ; to [104]
29F3  1D020000           [095] getglobal  8   0        ; 538022378
29F7  59420100           [096] loadk      9   5        ; 0
29FB  22420001           [097] call       8   2   1  
29FF  1DC20600           [098] getglobal  8   27       ; gFlashMgr
2A03  24024704           [099] self       8   8   284  ; 1634586770
2A07  93020002           [100] getupval   10  4      
2A0B  22828001           [101] call       8   3   2  
2A0F  D2010004           [102] move       7   8      
2A13  1A40FC7F           [103] jmp        -14          ; to [90]
2A17  13028002           [104] getupval   8   5      
2A1B  57020000           [105] loadbool   9   0   0    ; false
2A1F  22420001           [106] call       8   2   1  
2A23  13020001           [107] getupval   8   2      
2A27  0E024404           [108] gettable   8   8   272  ; 910246418
2A2B  5D420400           [109] getglobal  9   17       ; transmissionSet
2A2F  6482C404           [110] self       9   9   274  ; -781703361
2A33  DDC20400           [111] getglobal  11  19       ; -332969190
2A37  19430700           [112] loadk      12  29       ; "Ship2_FoundryChecked"
2A3B  E2020001           [113] call       11  2   0  
2A3F  62020000           [114] call       9   0   0  
2A43  22420000           [115] call       8   0   1  
2A47  13028002           [116] getupval   8   5      
2A4B  22428000           [117] call       8   1   1  
2A4F  13020001           [118] getupval   8   2      
2A53  0E024404           [119] gettable   8   8   272  ; 910246418
2A57  53020003           [120] getupval   9   6      
2A5B  62828000           [121] call       9   1   2  
2A5F  6482C404           [122] self       9   9   274  ; -781703361
2A63  DDC20400           [123] getglobal  11  19       ; -332969190
2A67  19830700           [124] loadk      12  30       ; "DSacMOneFoundry0460OperatorVoice"
2A6B  E2020001           [125] call       11  2   0  
2A6F  62020000           [126] call       9   0   0  
2A73  22420000           [127] call       8   0   1  
2A77  13028003           [128] getupval   8   7      
2A7B  22428000           [129] call       8   1   1  
2A7F  1E008000           [130] return     0   1      
                         * constants:
2A83  1F                 sizek (31)
2A84  01                 const type 3
2A85  EA911120           const [0]: (538022378)
2A89  03                 const type 3
2A8A  00000040           const [1]: (0)
2A8E  04                 const type 4
2A8F  03                 string size (3)
2A90  5F5400             "_T\0"
                         const [2]: "_T"
2A93  04                 const type 4
2A94  0A                 string size (10)
2A95  7175657374496E66+  "questInf"
2A9D  6F00               "o\0"
                         const [3]: "questInfo"
2A9F  04                 const type 4
2AA0  0B                 string size (11)
2AA1  646966666963756C+  "difficul"
2AA9  747900             "ty\0"
                         const [4]: "difficulty"
2AAC  03                 const type 3
2AAD  00000000           const [5]: (0)
2AB1  04                 const type 4
2AB2  0A                 string size (10)
2AB3  6747616D65446174+  "gGameDat"
2ABB  6100               "a\0"
                         const [6]: "gGameData"
2ABD  01                 const type 3
2ABE  FD052E6F           const [7]: (1865287165)
2AC2  01                 const type 3
2AC3  CDFC1F6E           const [8]: (1847590093)
2AC7  03                 const type 3
2AC8  0000803F           const [9]: (0)
2ACC  04                 const type 4
2ACD  0A                 string size (10)
2ACE  6D4974656D547970+  "mItemTyp"
2AD6  6500               "e\0"
                         const [10]: "mItemType"
2AD8  04                 const type 4
2AD9  10                 string size (16)
2ADA  4261636B67726F75+  "Backgrou"
2AE2  6E644D6F76696500   "ndMovie\0"
                         const [11]: "BackgroundMovie"
2AEA  01                 const type 3
2AEB  A9278F45           const [12]: (1167009705)
2AEF  04                 const type 4
2AF0  14                 string size (20)
2AF1  53686F77426C6F63+  "ShowBloc"
2AF9  6B696E674D657373+  "kingMess"
2B01  61676500           "age\0"
                         const [13]: "ShowBlockingMessage"
2B05  04                 const type 4
2B06  02                 string size (2)
2B07  3100               "1\0"
                         const [14]: "1"
2B09  04                 const type 4
2B0A  02                 string size (2)
2B0B  3000               "0\0"
                         const [15]: "0"
2B0D  01                 const type 3
2B0E  12424136           const [16]: (910246418)
2B12  04                 const type 4
2B13  10                 string size (16)
2B14  7472616E736D6973+  "transmis"
2B1C  73696F6E53657400   "sionSet\0"
                         const [17]: "transmissionSet"
2B24  01                 const type 3
2B25  3F2768D1           const [18]: (-781703361)
2B29  01                 const type 3
2B2A  1A4B27EC           const [19]: (-332969190)
2B2E  04                 const type 4
2B2F  13                 string size (19)
2B30  53686970325F4368+  "Ship2_Ch"
2B38  65636B466F756E64+  "eckFound"
2B40  727900             "ry\0"
                         const [20]: "Ship2_CheckFoundry"
2B43  04                 const type 4
2B44  0F                 string size (15)
2B45  5175657374526573+  "QuestRes"
2B4D  65745661727300     "etVars\0"
                         const [21]: "QuestResetVars"
2B54  04                 const type 4
2B55  13                 string size (19)
2B56  466F756E6472795F+  "Foundry_"
2B5E  5365617263685465+  "SearchTe"
2B66  726D00             "rm\0"
                         const [22]: "Foundry_SearchTerm"
2B69  01                 const type 3
2B6A  B043DCE6           const [23]: (-421772368)
2B6E  04                 const type 4
2B6F  06                 string size (6)
2B70  7461626C6500       "table\0"
                         const [24]: "table"
2B76  01                 const type 3
2B77  9D0C45E6           const [25]: (-431682403)
2B7B  01                 const type 3
2B7C  65770E40           const [26]: (1074689893)
2B80  04                 const type 4
2B81  0A                 string size (10)
2B82  67466C6173684D67+  "gFlashMg"
2B8A  7200               "r\0"
                         const [27]: "gFlashMgr"
2B8C  01                 const type 3
2B8D  92D06D61           const [28]: (1634586770)
2B91  04                 const type 4
2B92  15                 string size (21)
2B93  53686970325F466F+  "Ship2_Fo"
2B9B  756E647279436865+  "undryChe"
2BA3  636B656400         "cked\0"
                         const [29]: "Ship2_FoundryChecked"
2BA8  04                 const type 4
2BA9  21                 string size (33)
2BAA  445361634D4F6E65+  "DSacMOne"
2BB2  466F756E64727930+  "Foundry0"
2BBA  3436304F70657261+  "460Opera"
2BC2  746F72566F696365+  "torVoice"
2BCA  00                 "\0"
                         const [30]: "DSacMOneFoundry0460OperatorVoice"
                         * functions:
2BCB  00                 sizep (0)
                         * lines:
2BCD  01                 sizelineinfo (130)
                         [pc] (line)
2BCE  99                 [001] (-103)
2BCF  01                 [002] (-103)
2BD0  00                 [003] (-101)
2BD1  00                 [004] (-101)
2BD2  99                 [005] (-101)
2BD3  01                 [006] (-99)
2BD4  00                 [007] (-99)
2BD5  00                 [008] (-99)
2BD6  9B                 [009] (-99)
2BD7  01                 [010] (-99)
2BD8  00                 [011] (-99)
2BD9  00                 [012] (-99)
2BDA  9B                 [013] (-99)
2BDB  01                 [014] (-99)
2BDC  00                 [015] (-99)
2BDD  00                 [016] (-99)
2BDE  9B                 [017] (-99)
2BDF  01                 [018] (-99)
2BE0  00                 [019] (-99)
2BE1  00                 [020] (-98)
2BE2  9D                 [021] (-97)
2BE3  01                 [022] (-95)
2BE4  00                 [023] (-95)
2BE5  00                 [024] (-95)
2BE6  9D                 [025] (-95)
2BE7  01                 [026] (-95)
2BE8  00                 [027] (-94)
2BE9  00                 [028] (-94)
2BEA  9D                 [029] (-94)
2BEB  01                 [030] (-94)
2BEC  00                 [031] (-93)
2BED  00                 [032] (-93)
2BEE  9D                 [033] (-93)
2BEF  01                 [034] (-93)
2BF0  00                 [035] (-93)
2BF1  00                 [036] (-92)
2BF2  9D                 [037] (-91)
2BF3  01                 [038] (-94)
2BF4  00                 [039] (-87)
2BF5  00                 [040] (-87)
2BF6  9D                 [041] (-86)
2BF7  01                 [042] (-83)
2BF8  00                 [043] (-83)
2BF9  00                 [044] (-83)
2BFA  9D                 [045] (-83)
2BFB  01                 [046] (-83)
2BFC  00                 [047] (-83)
2BFD  00                 [048] (-82)
2BFE  9D                 [049] (-81)
2BFF  01                 [050] (-81)
2C00  00                 [051] (-81)
2C01  00                 [052] (-81)
2C02  9D                 [053] (-78)
2C03  01                 [054] (-78)
2C04  00                 [055] (-77)
2C05  00                 [056] (-77)
2C06  9D                 [057] (-77)
2C07  01                 [058] (-77)
2C08  00                 [059] (-77)
2C09  00                 [060] (-77)
2C0A  9D                 [061] (-74)
2C0B  01                 [062] (-74)
2C0C  00                 [063] (-74)
2C0D  00                 [064] (-74)
2C0E  9D                 [065] (-74)
2C0F  01                 [066] (-74)
2C10  00                 [067] (-74)
2C11  00                 [068] (-74)
2C12  9D                 [069] (-74)
2C13  01                 [070] (-72)
2C14  00                 [071] (-72)
2C15  00                 [072] (-72)
2C16  9D                 [073] (-72)
2C17  01                 [074] (-72)
2C18  00                 [075] (-72)
2C19  00                 [076] (-72)
2C1A  9E                 [077] (-70)
2C1B  01                 [078] (-70)
2C1C  00                 [079] (-70)
2C1D  00                 [080] (-70)
2C1E  9F                 [081] (-70)
2C1F  01                 [082] (-70)
2C20  00                 [083] (-69)
2C21  00                 [084] (-69)
2C22  A1                 [085] (-69)
2C23  01                 [086] (-69)
2C24  00                 [087] (-69)
2C25  00                 [088] (-69)
2C26  A1                 [089] (-67)
2C27  01                 [090] (-66)
2C28  00                 [091] (-66)
2C29  00                 [092] (-66)
2C2A  A1                 [093] (-66)
2C2B  01                 [094] (-66)
2C2C  00                 [095] (-65)
2C2D  00                 [096] (-65)
2C2E  A1                 [097] (-65)
2C2F  01                 [098] (-64)
2C30  00                 [099] (-64)
2C31  00                 [100] (-64)
2C32  A1                 [101] (-64)
2C33  01                 [102] (-64)
2C34  00                 [103] (-64)
2C35  00                 [104] (-60)
2C36  A2                 [105] (-60)
2C37  01                 [106] (-60)
2C38  00                 [107] (-59)
2C39  00                 [108] (-59)
2C3A  A2                 [109] (-59)
2C3B  01                 [110] (-59)
2C3C  00                 [111] (-59)
2C3D  00                 [112] (-59)
2C3E  A2                 [113] (-59)
2C3F  01                 [114] (-59)
2C40  00                 [115] (-59)
2C41  00                 [116] (-58)
2C42  A2                 [117] (-58)
2C43  01                 [118] (-57)
2C44  00                 [119] (-57)
2C45  00                 [120] (-57)
2C46  A3                 [121] (-57)
2C47  01                 [122] (-57)
2C48  00                 [123] (-57)
2C49  00                 [124] (-57)
2C4A  A3                 [125] (-57)
2C4B  01                 [126] (-57)
2C4C  00                 [127] (-57)
2C4D  00                 [128] (-55)
2C4E  A3                 [129] (-55)
2C4F  01                 [130] (-54)
                         * locals:
2DD6  00                 sizelocvars (0)
                         * upvalues:
2DD7  00                 sizeupvalues (0)
                         ** end of function **

                         
2DD8                     ** function [12] definition (level 2)
                         ** start of function **
2DD8  00                 string size (0)
                         source name: (none)
2DDA  03                 line defined (460)
2DDB  CF                 last line defined (463)
2DDC  03                 nups (1)
2DDD  01                 numparams (0)
2DDE  00                 is_vararg (0)
2DDF  00                 maxstacksize (3)
                         * code:
2DE1  0E                 sizecode (14)
2DE2  1D000000           [01] getglobal  0   0        ; _T
2DE6  5D000000           [02] getglobal  1   0        ; _T
2DEA  4E40C000           [03] gettable   1   1   257  ; "UnlockQuestLockedRecipes"
2DEE  58400000           [04] test       1       1    ; to [6] if false
2DF2  1A000080           [05] jmp        1            ; to [7]
2DF6  4B000000           [06] newtable   1   0   0    ; array=0, hash=0
2DFA  0C408080           [07] settable   0   257 1    ; "UnlockQuestLockedRecipes"
2DFE  1D800000           [08] getglobal  0   2        ; table
2E02  0EC04000           [09] gettable   0   0   259  ; -431682403
2E06  5D000000           [10] getglobal  1   0        ; _T
2E0A  4E40C000           [11] gettable   1   1   257  ; "UnlockQuestLockedRecipes"
2E0E  93000000           [12] getupval   2   0      
2E12  22408001           [13] call       0   3   1  
2E16  1E008000           [14] return     0   1      
                         * constants:
2E1A  04                 sizek (4)
2E1B  04                 const type 4
2E1C  03                 string size (3)
2E1D  5F5400             "_T\0"
                         const [0]: "_T"
2E20  04                 const type 4
2E21  19                 string size (25)
2E22  556E6C6F636B5175+  "UnlockQu"
2E2A  6573744C6F636B65+  "estLocke"
2E32  6452656369706573+  "dRecipes"
2E3A  00                 "\0"
                         const [1]: "UnlockQuestLockedRecipes"
2E3B  04                 const type 4
2E3C  06                 string size (6)
2E3D  7461626C6500       "table\0"
                         const [2]: "table"
2E43  01                 const type 3
2E44  9D0C45E6           const [3]: (-431682403)
                         * functions:
2E48  00                 sizep (0)
                         * lines:
2E49  0E                 sizelineinfo (14)
                         [pc] (line)
2E4A  CD                 [01] (-51)
2E4B  01                 [02] (-51)
2E4C  00                 [03] (-51)
2E4D  00                 [04] (-51)
2E4E  CD                 [05] (-51)
2E4F  01                 [06] (-51)
2E50  00                 [07] (-51)
2E51  00                 [08] (-50)
2E52  CD                 [09] (-50)
2E53  01                 [10] (-50)
2E54  00                 [11] (-50)
2E55  00                 [12] (-50)
2E56  CD                 [13] (-50)
2E57  01                 [14] (-49)
                         * locals:
2E82  00                 sizelocvars (0)
                         * upvalues:
2E83  00                 sizeupvalues (0)
                         ** end of function **

                         
2E84                     ** function [13] definition (level 2)
                         ** start of function **
2E84  00                 string size (0)
                         source name: (none)
2E86  03                 line defined (465)
2E87  D3                 last line defined (467)
2E88  03                 nups (1)
2E89  01                 numparams (0)
2E8A  00                 is_vararg (0)
2E8B  00                 maxstacksize (2)
                         * code:
2E8D  03                 sizecode (3)
2E8E  17008000           [1] loadbool   0   1   0    ; true
fail op	8
2E92  08000000           [2] setupval   0   0      
2E96  1E008000           [3] return     0   1      
                         * constants:
2E9A  00                 sizek (0)
                         * functions:
2E9B  00                 sizep (0)
                         * lines:
2E9C  03                 sizelineinfo (3)
                         [pc] (line)
2E9D  D2                 [1] (-46)
2E9E  01                 [2] (-46)
2E9F  00                 [3] (-45)
                         * locals:
2EA9  00                 sizelocvars (0)
                         * upvalues:
2EAA  00                 sizeupvalues (0)
                         ** end of function **

                         
2EAB                     ** function [14] definition (level 2)
                         ** start of function **
2EAB  00                 string size (0)
                         source name: (none)
2EAD  03                 line defined (471)
2EAE  8C                 last line defined (524)
2EAF  04                 nups (2)
2EB0  02                 numparams (1)
2EB1  01                 is_vararg (0)
2EB2  00                 maxstacksize (21)
                         * code:
2EB5  01                 sizecode (151)
2EB6  59000000           [001] loadk      1   0        ; 0
2EBA  99400000           [002] loadk      2   1        ; 0
2EBE  D9800000           [003] loadk      3   2        ; 0
2EC2  19C10000           [004] loadk      4   3        ; 0
2EC6  5D010100           [005] getglobal  5   4        ; 508519041
2ECA  62818000           [006] call       5   1   2  
2ECE  9D410100           [007] getglobal  6   5        ; 538022378
2ED2  D2018000           [008] move       7   1      
2ED6  A2410001           [009] call       6   2   1  
2EDA  9D810100           [010] getglobal  6   6        ; gRegion
2EDE  A4C14103           [011] self       6   6   263  ; -1456226250
2EE2  A2810001           [012] call       6   2   2  
2EE6  8E014203           [013] gettable   6   6   264  ; "postProcess"
2EEA  CE414203           [014] gettable   7   6   265  ; "viewShake"
2EEE  CCC14285           [015] settable   7   266 267  ; "mShakeSpeed" 0
2EF2  CE414203           [016] gettable   7   6   265  ; "viewShake"
2EF6  CC414386           [017] settable   7   268 269  ; "mShakeStrength" -102
2EFA  CE414203           [018] gettable   7   6   265  ; "viewShake"
2EFE  1D020100           [019] getglobal  8   4        ; 508519041
2F02  59C20300           [020] loadk      9   15       ; 0
2F06  99020400           [021] loadk      10  16       ; 0
2F0A  D9020400           [022] loadk      11  16       ; 0
2F0E  22820002           [023] call       8   4   2  
2F12  CC010287           [024] settable   7   270 8    ; "mShakeFactorRot"
2F16  CE414203           [025] gettable   7   6   265  ; "viewShake"
2F1A  CCC1C288           [026] settable   7   273 267  ; "mShakeFactorPos" 0
2F1E  D9C10200           [027] loadk      7   11       ; 0
fail op	21
2F22  15C0C303           [028] concat     0   7   271
2F26  1A400D80           [029] jmp        54           ; to [84]
2F2A  1D420100           [030] getglobal  8   5        ; 538022378
2F2E  59C20200           [031] loadk      9   11       ; 0
2F32  22420001           [032] call       8   2   1  
2F36  1D820400           [033] getglobal  8   18       ; 1289681407
2F3A  22828000           [034] call       8   1   2  
2F3E  1C820004           [035] div        8   8   2  
2F42  C3018203           [036] add        7   7   8  
2F46  1DC20400           [037] getglobal  8   19       ; 1668611480
2F4A  5D020500           [038] getglobal  9   20       ; -1642362560
2F4E  9D420500           [039] getglobal  10  21       ; math
2F52  8E824505           [040] gettable   10  10  278  ; -688728047
2F56  CDC28187           [041] sub        11  271 7    ; 0
2F5A  19C30500           [042] loadk      12  23       ; 0
2F5E  A2828001           [043] call       10  3   2  
2F62  8D828287           [044] sub        10  271 10   ; 0
2F66  62820001           [045] call       9   2   2  
2F6A  99C20200           [046] loadk      10  11       ; 0
2F6E  D9C20300           [047] loadk      11  15       ; 0
2F72  22820002           [048] call       8   4   2  
2F76  64024600           [049] self       9   0   280  ; 2129303884
2F7A  62820001           [050] call       9   2   2  
2F7E  9D820600           [051] getglobal  10  26       ; -1828500651
2F82  D9C20200           [052] loadk      11  11       ; 0
2F86  12030002           [053] move       12  4      
2F8A  5D430500           [054] getglobal  13  21       ; math
2F8E  4EC3C606           [055] gettable   13  13  283  ; -1775039999
2F92  9D430500           [056] getglobal  14  21       ; math
2F96  8E034707           [057] gettable   14  14  284  ; 1114998071
2F9A  CE43C704           [058] gettable   15  9   285  ; "heading"
2F9E  A2030001           [059] call       14  2   0  
2FA2  62830000           [060] call       13  0   2  
2FA6  44430304           [061] mul        13  8   13 
2FAA  A2820002           [062] call       10  4   2  
2FAE  4C81828C           [063] settable   5   281 10   ; "bank"
2FB2  A4824700           [064] self       10  0   286  ; 1998801764
2FB6  1DC30700           [065] getglobal  12  31       ; -1359160945
2FBA  52038004           [066] move       13  9      
2FBE  92038002           [067] move       14  5      
2FC2  22038001           [068] call       12  3   0  
2FC6  A2420000           [069] call       10  0   1  
2FCA  9D020800           [070] getglobal  10  32       ; 1074689893
2FCE  D3020000           [071] getupval   11  0      
2FD2  A2820001           [072] call       10  2   2  
2FD6  98420000           [073] test       10      1    ; to [75] if false
2FDA  1A00F47F           [074] jmp        -47          ; to [28]
2FDE  93020000           [075] getupval   10  0      
2FE2  A4424805           [076] self       10  10  289  ; -688523144
2FE6  A2820001           [077] call       10  2   2  
2FEA  CE424203           [078] gettable   11  6   265  ; "viewShake"
2FEE  04034405           [079] mul        12  10  272  ; 0
2FF2  CC020385           [080] settable   11  266 12   ; "mShakeSpeed"
2FF6  CE424203           [081] gettable   11  6   265  ; "viewShake"
2FFA  CC820286           [082] settable   11  268 10   ; "mShakeStrength"
2FFE  1AC0F17F           [083] jmp        -56          ; to [28]
3002  CE424203           [084] gettable   11  6   265  ; "viewShake"
3006  CCC24285           [085] settable   11  266 267  ; "mShakeSpeed" 0
300A  CE424203           [086] gettable   11  6   265  ; "viewShake"
300E  CCC24286           [087] settable   11  268 267  ; "mShakeStrength" 0
3012  D3028000           [088] getupval   11  1      
3016  D8420000           [089] test       11      1    ; to [91] if false
301A  1A000580           [090] jmp        21           ; to [112]
301E  DD420100           [091] getglobal  11  5        ; 538022378
3022  19C30200           [092] loadk      12  11       ; 0
3026  E2420001           [093] call       11  2   1  
302A  E4024600           [094] self       11  0   280  ; 2129303884
302E  E2820001           [095] call       11  2   2  
3032  1D430500           [096] getglobal  12  21       ; math
3036  0EC34606           [097] gettable   12  12  283  ; -1775039999
303A  5D430500           [098] getglobal  13  21       ; math
303E  4E03C706           [099] gettable   13  13  284  ; 1114998071
3042  8E43C705           [100] gettable   14  11  285  ; "heading"
3046  62030001           [101] call       13  2   0  
304A  22830000           [102] call       12  0   2  
304E  04030302           [103] mul        12  4   12 
3052  4C01838C           [104] settable   5   281 12   ; "bank"
3056  24834700           [105] self       12  0   286  ; 1998801764
305A  9DC30700           [106] getglobal  14  31       ; -1359160945
305E  D2038005           [107] move       15  11     
3062  12048002           [108] move       16  5      
3066  A2038001           [109] call       14  3   0  
306A  22430000           [110] call       12  0   1  
306E  1AC0F97F           [111] jmp        -24          ; to [88]
3072  D9C10200           [112] loadk      7   11       ; 0
fail op	21
3076  15C0C303           [113] concat     0   7   271
307A  1AC00880           [114] jmp        36           ; to [151]
307E  1D430100           [115] getglobal  12  5        ; 538022378
3082  59C30200           [116] loadk      13  11       ; 0
3086  22430001           [117] call       12  2   1  
308A  1D830400           [118] getglobal  12  18       ; 1289681407
308E  22838000           [119] call       12  1   2  
3092  1CC30006           [120] div        12  12  3  
3096  C3018303           [121] add        7   7   12 
309A  24034600           [122] self       12  0   280  ; 2129303884
309E  22830001           [123] call       12  2   2  
30A2  5D830600           [124] getglobal  13  26       ; -1828500651
30A6  92030002           [125] move       14  4      
30AA  D9C30200           [126] loadk      15  11       ; 0
30AE  1D040500           [127] getglobal  16  20       ; -1642362560
30B2  5DC40400           [128] getglobal  17  19       ; 1668611480
30B6  92048003           [129] move       18  7      
30BA  D9C40200           [130] loadk      19  11       ; 0
30BE  19C50300           [131] loadk      20  15       ; 0
30C2  62040002           [132] call       17  4   0  
30C6  22040000           [133] call       16  0   0  
30CA  62830000           [134] call       13  0   2  
30CE  9D430500           [135] getglobal  14  21       ; math
30D2  8EC34607           [136] gettable   14  14  283  ; -1775039999
30D6  DD430500           [137] getglobal  15  21       ; math
30DA  CE03C707           [138] gettable   15  15  284  ; 1114998071
30DE  0E444706           [139] gettable   16  12  285  ; "heading"
30E2  E2030001           [140] call       15  2   0  
30E6  A2830000           [141] call       14  0   2  
30EA  44838306           [142] mul        13  13  14 
30EE  4C41838C           [143] settable   5   281 13   ; "bank"
30F2  64834700           [144] self       13  0   286  ; 1998801764
30F6  DDC30700           [145] getglobal  15  31       ; -1359160945
30FA  12040006           [146] move       16  12     
30FE  52048002           [147] move       17  5      
3102  E2038001           [148] call       15  3   0  
3106  62430000           [149] call       13  0   1  
310A  1A40F67F           [150] jmp        -38          ; to [113]
310E  1E008000           [151] return     0   1      
                         * constants:
3112  22                 sizek (34)
3113  03                 const type 3
3114  00000841           const [0]: (0)
3118  03                 const type 3
3119  00009040           const [1]: (0)
311D  03                 const type 3
311E  0000C040           const [2]: (0)
3122  03                 const type 3
3123  00005041           const [3]: (0)
3127  01                 const type 3
3128  81624F1E           const [4]: (508519041)
312C  01                 const type 3
312D  EA911120           const [5]: (538022378)
3131  04                 const type 4
3132  08                 string size (8)
3133  67526567696F6E00   "gRegion\0"
                         const [6]: "gRegion"
313B  01                 const type 3
313C  36C033A9           const [7]: (-1456226250)
3140  04                 const type 4
3141  0C                 string size (12)
3142  706F737450726F63+  "postProc"
314A  65737300           "ess\0"
                         const [8]: "postProcess"
314E  04                 const type 4
314F  0A                 string size (10)
3150  766965775368616B+  "viewShak"
3158  6500               "e\0"
                         const [9]: "viewShake"
315A  04                 const type 4
315B  0C                 string size (12)
315C  6D5368616B655370+  "mShakeSp"
3164  65656400           "eed\0"
                         const [10]: "mShakeSpeed"
3168  03                 const type 3
3169  00000000           const [11]: (0)
316D  04                 const type 4
316E  0F                 string size (15)
316F  6D5368616B655374+  "mShakeSt"
3177  72656E67746800     "rength\0"
                         const [12]: "mShakeStrength"
317E  03                 const type 3
317F  9A99993E           const [13]: (-102)
3183  04                 const type 4
3184  10                 string size (16)
3185  6D5368616B654661+  "mShakeFa"
318D  63746F72526F7400   "ctorRot\0"
                         const [14]: "mShakeFactorRot"
3195  03                 const type 3
3196  0000803F           const [15]: (0)
319A  03                 const type 3
319B  0000003F           const [16]: (0)
319F  04                 const type 4
31A0  10                 string size (16)
31A1  6D5368616B654661+  "mShakeFa"
31A9  63746F72506F7300   "ctorPos\0"
                         const [17]: "mShakeFactorPos"
31B1  01                 const type 3
31B2  FFF9DE4C           const [18]: (1289681407)
31B6  01                 const type 3
31B7  98FD7463           const [19]: (1668611480)
31BB  01                 const type 3
31BC  40891B9E           const [20]: (-1642362560)
31C0  04                 const type 4
31C1  05                 string size (5)
31C2  6D61746800         "math\0"
                         const [21]: "math"
31C7  01                 const type 3
31C8  11D8F2D6           const [22]: (-688728047)
31CC  03                 const type 3
31CD  00008040           const [23]: (0)
31D1  01                 const type 3
31D2  4C99EA7E           const [24]: (2129303884)
31D6  04                 const type 4
31D7  05                 string size (5)
31D8  62616E6B00         "bank\0"
                         const [25]: "bank"
31DD  01                 const type 3
31DE  554B0393           const [26]: (-1828500651)
31E2  01                 const type 3
31E3  010A3396           const [27]: (-1775039999)
31E7  01                 const type 3
31E8  37857542           const [28]: (1114998071)
31EC  04                 const type 4
31ED  08                 string size (8)
31EE  68656164696E6700   "heading\0"
                         const [29]: "heading"
31F6  01                 const type 3
31F7  644B2377           const [30]: (1998801764)
31FB  01                 const type 3
31FC  8FD9FCAE           const [31]: (-1359160945)
3200  01                 const type 3
3201  65770E40           const [32]: (1074689893)
3205  01                 const type 3
3206  78F8F5D6           const [33]: (-688523144)
                         * functions:
320A  00                 sizep (0)
                         * lines:
320C  01                 sizelineinfo (151)
                         [pc] (line)
320D  D8                 [001] (-40)
320E  01                 [002] (-39)
320F  00                 [003] (-38)
3210  00                 [004] (-36)
3211  D9                 [005] (-34)
3212  01                 [006] (-34)
3213  00                 [007] (-32)
3214  00                 [008] (-32)
3215  DA                 [009] (-32)
3216  01                 [010] (-30)
3217  00                 [011] (-30)
3218  00                 [012] (-30)
3219  DC                 [013] (-30)
321A  01                 [014] (-29)
321B  00                 [015] (-29)
321C  00                 [016] (-28)
321D  DE                 [017] (-28)
321E  01                 [018] (-27)
321F  00                 [019] (-27)
3220  00                 [020] (-27)
3221  DE                 [021] (-27)
3222  01                 [022] (-27)
3223  00                 [023] (-27)
3224  00                 [024] (-27)
3225  E0                 [025] (-26)
3226  01                 [026] (-26)
3227  00                 [027] (-24)
3228  00                 [028] (-23)
3229  E0                 [029] (-23)
322A  01                 [030] (-22)
322B  00                 [031] (-22)
322C  00                 [032] (-22)
322D  E0                 [033] (-21)
322E  01                 [034] (-21)
322F  00                 [035] (-21)
3230  00                 [036] (-21)
3231  E2                 [037] (-19)
3232  01                 [038] (-19)
3233  00                 [039] (-19)
3234  00                 [040] (-19)
3235  E2                 [041] (-19)
3236  01                 [042] (-19)
3237  00                 [043] (-19)
3238  00                 [044] (-19)
3239  E2                 [045] (-19)
323A  01                 [046] (-19)
323B  00                 [047] (-19)
323C  00                 [048] (-19)
323D  E2                 [049] (-17)
323E  01                 [050] (-17)
323F  00                 [051] (-16)
3240  00                 [052] (-16)
3241  E3                 [053] (-16)
3242  01                 [054] (-16)
3243  00                 [055] (-16)
3244  00                 [056] (-16)
3245  E3                 [057] (-16)
3246  01                 [058] (-16)
3247  00                 [059] (-16)
3248  00                 [060] (-16)
3249  E4                 [061] (-16)
324A  01                 [062] (-16)
324B  00                 [063] (-16)
324C  00                 [064] (-15)
324D  E4                 [065] (-15)
324E  01                 [066] (-15)
324F  00                 [067] (-15)
3250  00                 [068] (-15)
3251  E5                 [069] (-15)
3252  01                 [070] (-14)
3253  00                 [071] (-14)
3254  00                 [072] (-14)
3255  E5                 [073] (-14)
3256  01                 [074] (-14)
3257  00                 [075] (-13)
3258  00                 [076] (-13)
3259  E5                 [077] (-13)
325A  01                 [078] (-12)
325B  00                 [079] (-12)
325C  00                 [080] (-12)
325D  E5                 [081] (-11)
325E  01                 [082] (-11)
325F  00                 [083] (-10)
3260  00                 [084] (-8)
3261  E5                 [085] (-8)
3262  01                 [086] (-7)
3263  00                 [087] (-7)
3264  00                 [088] (-5)
3265  E5                 [089] (-5)
3266  01                 [090] (-5)
3267  00                 [091] (-4)
3268  00                 [092] (-4)
3269  E5                 [093] (-4)
326A  01                 [094] (-2)
326B  00                 [095] (-2)
326C  00                 [096] (-1)
326D  E6                 [097] (-1)
326E  01                 [098] (-1)
326F  00                 [099] (-1)
3270  00                 [100] (-1)
3271  E6                 [101] (-1)
3272  01                 [102] (-1)
3273  00                 [103] (-1)
3274  00                 [104] (-1)
3275  E8                 [105] (0)
3276  01                 [106] (0)
3277  00                 [107] (0)
3278  00                 [108] (0)
3279  E9                 [109] (0)
327A  01                 [110] (0)
327B  00                 [111] (0)
327C  00                 [112] (3)
327D  E9                 [113] (4)
327E  01                 [114] (4)
327F  00                 [115] (5)
3280  00                 [116] (5)
3281  EA                 [117] (5)
3282  01                 [118] (6)
3283  00                 [119] (6)
3284  00                 [120] (6)
3285  EA                 [121] (6)
3286  01                 [122] (8)
3287  00                 [123] (8)
3288  00                 [124] (9)
3289  EA                 [125] (9)
328A  01                 [126] (9)
328B  00                 [127] (9)
328C  00                 [128] (9)
328D  EB                 [129] (9)
328E  01                 [130] (9)
328F  00                 [131] (9)
3290  00                 [132] (9)
3291  EB                 [133] (9)
3292  01                 [134] (9)
3293  00                 [135] (9)
3294  00                 [136] (9)
3295  EB                 [137] (9)
3296  01                 [138] (9)
3297  00                 [139] (9)
3298  00                 [140] (9)
3299  EB                 [141] (9)
329A  01                 [142] (9)
329B  00                 [143] (9)
329C  00                 [144] (10)
329D  ED                 [145] (10)
329E  01                 [146] (10)
329F  00                 [147] (10)
32A0  00                 [148] (10)
32A1  ED                 [149] (10)
32A2  01                 [150] (10)
32A3  00                 [151] (12)
                         * locals:
3469  00                 sizelocvars (0)
                         * upvalues:
346A  00                 sizeupvalues (0)
                         ** end of function **

                         
346B                     ** function [15] definition (level 2)
                         ** start of function **
346B  00                 string size (0)
                         source name: (none)
346D  04                 line defined (526)
346E  EB                 last line defined (619)
346F  04                 nups (8)
3470  08                 numparams (0)
3471  00                 is_vararg (0)
3472  00                 maxstacksize (13)
                         * code:
3475  02                 sizecode (334)
3476  13000000           [001] getupval   0   0      
347A  22408000           [002] call       0   1   1  
347E  13008000           [003] getupval   0   1      
3482  22808000           [004] call       0   1   2  
3486  53000001           [005] getupval   1   2      
348A  4E00C000           [006] gettable   1   1   256  ; 910246418
348E  9D400000           [007] getglobal  2   1        ; transmissionSet
3492  A4804001           [008] self       2   2   258  ; -781703361
3496  1DC10000           [009] getglobal  4   3        ; -332969190
349A  59010100           [010] loadk      5   4        ; "Ship3_OrdisVitruvian"
349E  22010001           [011] call       4   2   0  
34A2  A2000000           [012] call       2   0   0  
34A6  62400000           [013] call       1   0   1  
34AA  53008001           [014] getupval   1   3      
34AE  62408000           [015] call       1   1   1  
34B2  53000001           [016] getupval   1   2      
34B6  4E00C000           [017] gettable   1   1   256  ; 910246418
34BA  A4804000           [018] self       2   0   258  ; -781703361
34BE  1DC10000           [019] getglobal  4   3        ; -332969190
34C2  59410100           [020] loadk      5   5        ; "DSacMTwoShip1000OperatorVoice"
34C6  22010001           [021] call       4   2   0  
34CA  A2000000           [022] call       2   0   0  
34CE  62400000           [023] call       1   0   1  
34D2  53008001           [024] getupval   1   3      
34D6  62408000           [025] call       1   1   1  
34DA  5D800100           [026] getglobal  1   6        ; gRegion
34DE  64C0C100           [027] self       1   1   263  ; -1875307917
34E2  DDC00000           [028] getglobal  3   3        ; -332969190
34E6  19010200           [029] loadk      4   8        ; "PlugInVitruvianAction"
34EA  E2000001           [030] call       3   2   0  
34EE  62800000           [031] call       1   0   2  
34F2  A440C200           [032] self       2   1   265  ; -974578778
34F6  A2400001           [033] call       2   2   1  
34FA  9D800100           [034] getglobal  2   6        ; gRegion
34FE  A4C04101           [035] self       2   2   263  ; -1875307917
3502  1DC10000           [036] getglobal  4   3        ; -332969190
3506  59810200           [037] loadk      5   10       ; "InstallVitruvianMarker"
350A  22010001           [038] call       4   2   0  
350E  A2800000           [039] call       2   0   2  
3512  DDC00200           [040] getglobal  3   11       ; 1074689893
3516  12010001           [041] move       4   2      
351A  E2800001           [042] call       3   2   2  
351E  D8400000           [043] test       3       1    ; to [45] if false
3522  1A400080           [044] jmp        2            ; to [47]
3526  E4404201           [045] self       3   2   265  ; -974578778
352A  E2400001           [046] call       3   2   1  
352E  D7000000           [047] loadbool   3   0   0    ; false
fail op	8
3532  C8000002           [048] setupval   3   4      
3536  DD000300           [049] getglobal  3   12       ; -1799570112
353A  12018000           [050] move       4   1      
353E  59410300           [051] loadk      5   13       ; "OnFinished"
3542  E2408001           [052] call       3   3   1  
3546  D3000002           [053] getupval   3   4      
354A  D8400000           [054] test       3       1    ; to [56] if false
354E  1A000480           [055] jmp        17           ; to [73]
3552  DD800300           [056] getglobal  3   14       ; gGameData
3556  E4C0C301           [057] self       3   3   271  ; 1865287165
355A  E2800001           [058] call       3   2   2  
355E  E400C401           [059] self       3   3   272  ; 1388869707
3562  E2800001           [060] call       3   2   2  
3566  1D410400           [061] getglobal  4   17       ; keyChain
fail op	35
356A  63008101           [062] close      1  
356E  1A000180           [063] jmp        5            ; to [69]
3572  E480C400           [064] self       3   1   274  ; 766584623
3576  E2400001           [065] call       3   2   1  
357A  E4804401           [066] self       3   2   274  ; 766584623
357E  E2400001           [067] call       3   2   1  
3582  1E008000           [068] return     0   1      
3586  DDC00400           [069] getglobal  3   19       ; 538022378
358A  19010500           [070] loadk      4   20       ; 0
358E  E2400001           [071] call       3   2   1  
3592  1AC0FA7F           [072] jmp        -20          ; to [53]
3596  DDC00200           [073] getglobal  3   11       ; 1074689893
359A  12010001           [074] move       4   2      
359E  E2800001           [075] call       3   2   2  
35A2  D8400000           [076] test       3       1    ; to [78] if false
35A6  1A400080           [077] jmp        2            ; to [80]
35AA  E4804401           [078] self       3   2   274  ; 766584623
35AE  E2400001           [079] call       3   2   1  
35B2  DD800100           [080] getglobal  3   6        ; gRegion
35B6  E440C501           [081] self       3   3   277  ; 65205951
35BA  E2800001           [082] call       3   2   2  
35BE  1DC10200           [083] getglobal  4   11       ; 1074689893
35C2  52018001           [084] move       5   3      
35C6  22810001           [085] call       4   2   2  
35CA  18010000           [086] test       4       0    ; to [88] if true
35CE  1AC00180           [087] jmp        8            ; to [96]
35D2  1DC10400           [088] getglobal  4   19       ; 538022378
35D6  59010500           [089] loadk      5   20       ; 0
35DA  22410001           [090] call       4   2   1  
35DE  1D810100           [091] getglobal  4   6        ; gRegion
35E2  24414502           [092] self       4   4   277  ; 65205951
35E6  22810001           [093] call       4   2   2  
35EA  D2000002           [094] move       3   4      
35EE  1A80FC7F           [095] jmp        -13          ; to [83]
35F2  2481C501           [096] self       4   3   278  ; 970454089
35F6  A4C1C500           [097] self       6   1   279  ; 196800914
35FA  A2810001           [098] call       6   2   2  
35FE  DD010600           [099] getglobal  7   24       ; 1287559689
3602  1D420600           [100] getglobal  8   25       ; 572299008
3606  59820600           [101] loadk      9   26       ; -51
360A  99020500           [102] loadk      10  20       ; 0
360E  D9020500           [103] loadk      11  20       ; 0
3612  22820002           [104] call       8   4   2  
3616  64C2C600           [105] self       9   1   283  ; 54877834
361A  62020001           [106] call       9   2   0  
361E  E2810000           [107] call       7   0   2  
3622  83C10103           [108] add        6   6   7  
3626  E4C1C600           [109] self       7   1   283  ; 54877834
362A  E2010001           [110] call       7   2   0  
362E  22410000           [111] call       4   0   1  
3632  2401C701           [112] self       4   3   284  ; 1292478819
3636  22810001           [113] call       4   2   2  
363A  24414702           [114] self       4   4   285  ; 1417583104
363E  A4C1C600           [115] self       6   1   283  ; 54877834
3642  A2010001           [116] call       6   2   0  
3646  22410000           [117] call       4   0   1  
364A  2481C701           [118] self       4   3   286  ; -1421644046
364E  9DC10700           [119] getglobal  6   31       ; plugInVitruvianDeco
3652  DDC10000           [120] getglobal  7   3        ; -332969190
3656  19020800           [121] loadk      8   32       ; "GAME_R1_ARM3"
365A  E2810001           [122] call       7   2   2  
365E  1D420600           [123] getglobal  8   25       ; 572299008
3662  59420800           [124] loadk      9   33       ; -51
3666  99020500           [125] loadk      10  20       ; 0
366A  D9820800           [126] loadk      11  34       ; -51
366E  22820002           [127] call       8   4   2  
3672  5DC20800           [128] getglobal  9   35       ; 508519041
3676  99020500           [129] loadk      10  20       ; 0
367A  D9020900           [130] loadk      11  36       ; 0
367E  19030900           [131] loadk      12  36       ; 0
3682  62020002           [132] call       9   4   0  
3686  22810000           [133] call       4   0   2  
368A  6441C901           [134] self       5   3   293  ; 2056776437
368E  DD810900           [135] getglobal  7   38       ; plugInVitruvianAnim
3692  17020000           [136] loadbool   8   0   0    ; false
3696  5DC20900           [137] getglobal  9   39       ; Engine
369A  4E02CA04           [138] gettable   9   9   296  ; "ATMM_ANIMATION_DRIVEN"
369E  9DC20900           [139] getglobal  10  39       ; Engine
36A2  8E424A05           [140] gettable   10  10  297  ; "PRT_ONCE"
36A6  D7028000           [141] loadbool   11  1   0    ; true
36AA  19830A00           [142] loadk      12  42       ; 0
36AE  62410004           [143] call       5   8   1  
36B2  64C1CA01           [144] self       5   3   299  ; -1925372830
36B6  D9010B00           [145] loadk      7   44       ; "PlugIn"
36BA  19420B00           [146] loadk      8   45       ; 0
36BE  62410002           [147] call       5   4   1  
36C2  5DC10200           [148] getglobal  5   11       ; 1074689893
36C6  92010002           [149] move       6   4      
36CA  62810001           [150] call       5   2   2  
36CE  58410000           [151] test       5       1    ; to [153] if false
36D2  1A000180           [152] jmp        5            ; to [158]
36D6  64814B02           [153] self       5   4   302  ; -1990411311
36DA  62410001           [154] call       5   2   1  
36DE  64C14B02           [155] self       5   4   303  ; 1521658607
36E2  D7010000           [156] loadbool   7   0   0    ; false
36E6  62418001           [157] call       5   3   1  
36EA  5D810100           [158] getglobal  5   6        ; gRegion
36EE  6401CC02           [159] self       5   5   304  ; 630793108
36F2  DD410C00           [160] getglobal  7   49       ; plugInVitruvianSound
36F6  1D820C00           [161] getglobal  8   50       ; ZERO_VECTOR
36FA  57020000           [162] loadbool   9   0   0    ; false
36FE  62818002           [163] call       5   5   2  
fail op	8
3702  48018002           [164] setupval   5   5      
3706  53010001           [165] getupval   5   2      
370A  4E01C002           [166] gettable   5   5   256  ; 910246418
370E  9D410000           [167] getglobal  6   1        ; transmissionSet
3712  A4814003           [168] self       6   6   258  ; -781703361
3716  1DC20000           [169] getglobal  8   3        ; -332969190
371A  59C20C00           [170] loadk      9   51       ; "Ship3_VitruvianConnected"
371E  22020001           [171] call       8   2   0  
3722  A2010000           [172] call       6   0   0  
3726  62410000           [173] call       5   0   1  
372A  64C1CA01           [174] self       5   3   299  ; -1925372830
372E  D9010D00           [175] loadk      7   52       ; "EndEarly"
3732  19420B00           [176] loadk      8   45       ; 0
3736  62410002           [177] call       5   4   1  
373A  6441C901           [178] self       5   3   293  ; 2056776437
373E  C6018003           [179] loadnil    7   7      
3742  17020000           [180] loadbool   8   0   0    ; false
3746  5DC20900           [181] getglobal  9   39       ; Engine
374A  4E42CD04           [182] gettable   9   9   309  ; "ATMM_PHYSICS_DRIVEN"
374E  9DC20900           [183] getglobal  10  39       ; Engine
3752  8E424A05           [184] gettable   10  10  297  ; "PRT_ONCE"
3756  D7020000           [185] loadbool   11  0   0    ; false
375A  62418003           [186] call       5   7   1  
375E  6481CD01           [187] self       5   3   310  ; -1302048094
3762  DDC10000           [188] getglobal  7   3        ; -332969190
3766  19C20D00           [189] loadk      8   55       ; "CameraTilt"
376A  E2810001           [190] call       7   2   2  
376E  17020000           [191] loadbool   8   0   0    ; false
3772  62410002           [192] call       5   4   1  
3776  5DC10400           [193] getglobal  5   19       ; 538022378
377A  99010E00           [194] loadk      6   56       ; 0
377E  62410001           [195] call       5   2   1  
3782  5D410E00           [196] getglobal  5   57       ; _T
3786  4E81CE02           [197] gettable   5   5   314  ; 127414788
378A  99C10E00           [198] loadk      6   59       ; -51
378E  D9410800           [199] loadk      7   33       ; -51
3792  19020F00           [200] loadk      8   60       ; -102
3796  62410002           [201] call       5   4   1  
379A  5D410E00           [202] getglobal  5   57       ; _T
379E  4E81CE02           [203] gettable   5   5   314  ; 127414788
37A2  99410F00           [204] loadk      6   61       ; -51
37A6  D9410800           [205] loadk      7   33       ; -51
37AA  19020F00           [206] loadk      8   60       ; -102
37AE  62410002           [207] call       5   4   1  
37B2  5D410E00           [208] getglobal  5   57       ; _T
37B6  4E81CE02           [209] gettable   5   5   314  ; 127414788
37BA  99410800           [210] loadk      6   33       ; -51
37BE  D9810800           [211] loadk      7   34       ; -51
37C2  19820F00           [212] loadk      8   62       ; -102
37C6  62410002           [213] call       5   4   1  
37CA  5D410E00           [214] getglobal  5   57       ; _T
37CE  4E81CE02           [215] gettable   5   5   314  ; 127414788
37D2  99810A00           [216] loadk      6   42       ; 0
37D6  D9810800           [217] loadk      7   34       ; -51
37DA  19820A00           [218] loadk      8   42       ; 0
37DE  62410002           [219] call       5   4   1  
37E2  5DC10400           [220] getglobal  5   19       ; 538022378
37E6  99810A00           [221] loadk      6   42       ; 0
37EA  62410001           [222] call       5   2   1  
37EE  59C10F00           [223] loadk      5   63       ; -51
37F2  9DC10200           [224] getglobal  6   11       ; 1074689893
37F6  DD410E00           [225] getglobal  7   57       ; _T
37FA  CE01D003           [226] gettable   7   7   320  ; "curTransmission"
37FE  A2810001           [227] call       6   2   2  
3802  98410000           [228] test       6       1    ; to [230] if false
3806  1A400580           [229] jmp        22           ; to [252]
380A  9D411000           [230] getglobal  6   65       ; math
380E  8E815003           [231] gettable   6   6   322  ; -1962864584
3812  DDC11000           [232] getglobal  7   67       ; 1289681407
3816  E2818000           [233] call       7   1   2  
381A  DCC101A2           [234] div        7   324 7    ; 10
381E  CDC18102           [235] sub        7   5   7  
3822  19421100           [236] loadk      8   69       ; -20
3826  A2818001           [237] call       6   3   2  
382A  52010003           [238] move       5   6      
382E  9D410E00           [239] getglobal  6   57       ; _T
3832  8E814E03           [240] gettable   6   6   314  ; 127414788
3836  DD811100           [241] getglobal  7   70       ; -1941280958
383A  19C21100           [242] loadk      8   71       ; 51
383E  59021200           [243] loadk      9   72       ; 102
3842  E2818001           [244] call       7   3   2  
3846  1D821100           [245] getglobal  8   70       ; -1941280958
384A  59421100           [246] loadk      9   69       ; -20
384E  92028002           [247] move       10  5      
3852  22828001           [248] call       8   3   2  
3856  59421200           [249] loadk      9   73       ; 0
385A  A2410002           [250] call       6   4   1  
385E  1AC0F87F           [251] jmp        -28          ; to [224]
3862  9D810100           [252] getglobal  6   6        ; gRegion
3866  A4014C03           [253] self       6   6   304  ; 630793108
386A  1D821200           [254] getglobal  8   74       ; lightsPowerDownSound
386E  5D820C00           [255] getglobal  9   50       ; ZERO_VECTOR
3872  97020000           [256] loadbool   10  0   0    ; false
3876  A2418002           [257] call       6   5   1  
387A  9D410E00           [258] getglobal  6   57       ; _T
387E  8E814E03           [259] gettable   6   6   314  ; 127414788
3882  D9410800           [260] loadk      7   33       ; -51
3886  19C20F00           [261] loadk      8   63       ; -51
388A  59020F00           [262] loadk      9   60       ; -102
388E  A2410002           [263] call       6   4   1  
3892  9D410E00           [264] getglobal  6   57       ; _T
3896  8E814E03           [265] gettable   6   6   314  ; 127414788
389A  D9C10F00           [266] loadk      7   63       ; -51
389E  19420800           [267] loadk      8   33       ; -51
38A2  59420800           [268] loadk      9   33       ; -51
38A6  A2410002           [269] call       6   4   1  
38AA  9D410E00           [270] getglobal  6   57       ; _T
38AE  8E814E03           [271] gettable   6   6   314  ; 127414788
38B2  D9C11200           [272] loadk      7   75       ; 111
38B6  19420800           [273] loadk      8   33       ; -51
38BA  59020500           [274] loadk      9   20       ; 0
38BE  A2410002           [275] call       6   4   1  
38C2  9DC10400           [276] getglobal  6   19       ; 538022378
38C6  D9011300           [277] loadk      7   76       ; 0
38CA  A2410001           [278] call       6   2   1  
38CE  97018000           [279] loadbool   6   1   0    ; true
fail op	8
38D2  88010003           [280] setupval   6   6      
38D6  9D810100           [281] getglobal  6   6        ; gRegion
38DA  A4014C03           [282] self       6   6   304  ; 630793108
38DE  1D421300           [283] getglobal  8   77       ; lightsPowerUpSound
38E2  5D820C00           [284] getglobal  9   50       ; ZERO_VECTOR
38E6  97020000           [285] loadbool   10  0   0    ; false
38EA  A2418002           [286] call       6   5   1  
38EE  9D410E00           [287] getglobal  6   57       ; _T
38F2  8E814E03           [288] gettable   6   6   314  ; 127414788
38F6  D9410800           [289] loadk      7   33       ; -51
38FA  19420800           [290] loadk      8   33       ; -51
38FE  59020500           [291] loadk      9   20       ; 0
3902  A2410002           [292] call       6   4   1  
3906  9D410E00           [293] getglobal  6   57       ; _T
390A  8E814E03           [294] gettable   6   6   314  ; 127414788
390E  D9410800           [295] loadk      7   33       ; -51
3912  19020500           [296] loadk      8   20       ; 0
3916  59020F00           [297] loadk      9   60       ; -102
391A  A2410002           [298] call       6   4   1  
391E  9D410E00           [299] getglobal  6   57       ; _T
3922  8E814E03           [300] gettable   6   6   314  ; 127414788
3926  D9C10F00           [301] loadk      7   63       ; -51
392A  19821300           [302] loadk      8   78       ; -51
392E  59421200           [303] loadk      9   73       ; 0
3932  A2410002           [304] call       6   4   1  
3936  9D410E00           [305] getglobal  6   57       ; _T
393A  8E814E03           [306] gettable   6   6   314  ; 127414788
393E  D9410800           [307] loadk      7   33       ; -51
3942  19821300           [308] loadk      8   78       ; -51
3946  59420800           [309] loadk      9   33       ; -51
394A  A2410002           [310] call       6   4   1  
394E  9D410E00           [311] getglobal  6   57       ; _T
3952  8E814E03           [312] gettable   6   6   314  ; 127414788
3956  D9411200           [313] loadk      7   73       ; 0
395A  19420800           [314] loadk      8   33       ; -51
395E  59020500           [315] loadk      9   20       ; 0
3962  A2410002           [316] call       6   4   1  
3966  9D410E00           [317] getglobal  6   57       ; _T
396A  8E814E03           [318] gettable   6   6   314  ; 127414788
396E  D9810A00           [319] loadk      7   42       ; 0
3972  19420800           [320] loadk      8   33       ; -51
3976  59820A00           [321] loadk      9   42       ; 0
397A  A2410002           [322] call       6   4   1  
397E  93010001           [323] getupval   6   2      
3982  8E014003           [324] gettable   6   6   256  ; 910246418
3986  DD410000           [325] getglobal  7   1        ; transmissionSet
398A  E481C003           [326] self       7   7   258  ; -781703361
398E  5DC20000           [327] getglobal  9   3        ; -332969190
3992  99C21300           [328] loadk      10  79       ; "Ship3_LightsOut"
3996  62020001           [329] call       9   2   0  
399A  E2010000           [330] call       7   0   0  
399E  A2410000           [331] call       6   0   1  
39A2  93018003           [332] getupval   6   7      
39A6  A2418000           [333] call       6   1   1  
39AA  1E008000           [334] return     0   1      
                         * constants:
39AE  50                 sizek (80)
39AF  01                 const type 3
39B0  12424136           const [0]: (910246418)
39B4  04                 const type 4
39B5  10                 string size (16)
39B6  7472616E736D6973+  "transmis"
39BE  73696F6E53657400   "sionSet\0"
                         const [1]: "transmissionSet"
39C6  01                 const type 3
39C7  3F2768D1           const [2]: (-781703361)
39CB  01                 const type 3
39CC  1A4B27EC           const [3]: (-332969190)
39D0  04                 const type 4
39D1  15                 string size (21)
39D2  53686970335F4F72+  "Ship3_Or"
39DA  6469735669747275+  "disVitru"
39E2  7669616E00         "vian\0"
                         const [4]: "Ship3_OrdisVitruvian"
39E7  04                 const type 4
39E8  1E                 string size (30)
39E9  445361634D54776F+  "DSacMTwo"
39F1  5368697031303030+  "Ship1000"
39F9  4F70657261746F72+  "Operator"
3A01  566F69636500       "Voice\0"
                         const [5]: "DSacMTwoShip1000OperatorVoice"
3A07  04                 const type 4
3A08  08                 string size (8)
3A09  67526567696F6E00   "gRegion\0"
                         const [6]: "gRegion"
3A11  01                 const type 3
3A12  73123990           const [7]: (-1875307917)
3A16  04                 const type 4
3A17  16                 string size (22)
3A18  506C7567496E5669+  "PlugInVi"
3A20  7472757669616E41+  "truvianA"
3A28  6374696F6E00       "ction\0"
                         const [8]: "PlugInVitruvianAction"
3A2E  01                 const type 3
3A2F  A61BE9C5           const [9]: (-974578778)
3A33  04                 const type 4
3A34  17                 string size (23)
3A35  496E7374616C6C56+  "InstallV"
3A3D  697472757669616E+  "itruvian"
3A45  4D61726B657200     "Marker\0"
                         const [10]: "InstallVitruvianMarker"
3A4C  01                 const type 3
3A4D  65770E40           const [11]: (1074689893)
3A51  01                 const type 3
3A52  40BDBC94           const [12]: (-1799570112)
3A56  04                 const type 4
3A57  0B                 string size (11)
3A58  4F6E46696E697368+  "OnFinish"
3A60  656400             "ed\0"
                         const [13]: "OnFinished"
3A63  04                 const type 4
3A64  0A                 string size (10)
3A65  6747616D65446174+  "gGameDat"
3A6D  6100               "a\0"
                         const [14]: "gGameData"
3A6F  01                 const type 3
3A70  FD052E6F           const [15]: (1865287165)
3A74  01                 const type 3
3A75  4B78C852           const [16]: (1388869707)
3A79  04                 const type 4
3A7A  09                 string size (9)
3A7B  6B6579436861696E+  "keyChain"
3A83  00                 "\0"
                         const [17]: "keyChain"
3A84  01                 const type 3
3A85  2F27B12D           const [18]: (766584623)
3A89  01                 const type 3
3A8A  EA911120           const [19]: (538022378)
3A8E  03                 const type 3
3A8F  00000000           const [20]: (0)
3A93  01                 const type 3
3A94  BFF6E203           const [21]: (65205951)
3A98  01                 const type 3
3A99  49F4D739           const [22]: (970454089)
3A9D  01                 const type 3
3A9E  92F1BA0B           const [23]: (196800914)
3AA2  01                 const type 3
3AA3  099ABE4C           const [24]: (1287559689)
3AA7  01                 const type 3
3AA8  00971C22           const [25]: (572299008)
3AAC  03                 const type 3
3AAD  CDCC4CBE           const [26]: (-51)
3AB1  01                 const type 3
3AB2  8A5E4503           const [27]: (54877834)
3AB6  01                 const type 3
3AB7  63A9094D           const [28]: (1292478819)
3ABB  01                 const type 3
3ABC  009A7E54           const [29]: (1417583104)
3AC0  01                 const type 3
3AC1  F26E43AB           const [30]: (-1421644046)
3AC5  04                 const type 4
3AC6  14                 string size (20)
3AC7  706C7567496E5669+  "plugInVi"
3ACF  7472757669616E44+  "truvianD"
3AD7  65636F00           "eco\0"
                         const [31]: "plugInVitruvianDeco"
3ADB  04                 const type 4
3ADC  0D                 string size (13)
3ADD  47414D455F52315F+  "GAME_R1_"
3AE5  41524D3300         "ARM3\0"
                         const [32]: "GAME_R1_ARM3"
3AEA  03                 const type 3
3AEB  CDCCCC3D           const [33]: (-51)
3AEF  03                 const type 3
3AF0  CDCC4C3D           const [34]: (-51)
3AF4  01                 const type 3
3AF5  81624F1E           const [35]: (508519041)
3AF9  03                 const type 3
3AFA  0000B442           const [36]: (0)
3AFE  01                 const type 3
3AFF  F5EA977A           const [37]: (2056776437)
3B03  04                 const type 4
3B04  14                 string size (20)
3B05  706C7567496E5669+  "plugInVi"
3B0D  7472757669616E41+  "truvianA"
3B15  6E696D00           "nim\0"
                         const [38]: "plugInVitruvianAnim"
3B19  04                 const type 4
3B1A  07                 string size (7)
3B1B  456E67696E6500     "Engine\0"
                         const [39]: "Engine"
3B22  04                 const type 4
3B23  16                 string size (22)
3B24  41544D4D5F414E49+  "ATMM_ANI"
3B2C  4D4154494F4E5F44+  "MATION_D"
3B34  524956454E00       "RIVEN\0"
                         const [40]: "ATMM_ANIMATION_DRIVEN"
3B3A  04                 const type 4
3B3B  09                 string size (9)
3B3C  5052545F4F4E4345+  "PRT_ONCE"
3B44  00                 "\0"
                         const [41]: "PRT_ONCE"
3B45  03                 const type 3
3B46  0000803F           const [42]: (0)
3B4A  01                 const type 3
3B4B  62243D8D           const [43]: (-1925372830)
3B4F  04                 const type 4
3B50  07                 string size (7)
3B51  506C7567496E00     "PlugIn\0"
                         const [44]: "PlugIn"
3B58  03                 const type 3
3B59  00008040           const [45]: (0)
3B5D  01                 const type 3
3B5E  D1BB5C89           const [46]: (-1990411311)
3B62  01                 const type 3
3B63  EFAAB25A           const [47]: (1521658607)
3B67  01                 const type 3
3B68  94239925           const [48]: (630793108)
3B6C  04                 const type 4
3B6D  15                 string size (21)
3B6E  706C7567496E5669+  "plugInVi"
3B76  7472757669616E53+  "truvianS"
3B7E  6F756E6400         "ound\0"
                         const [49]: "plugInVitruvianSound"
3B83  04                 const type 4
3B84  0C                 string size (12)
3B85  5A45524F5F564543+  "ZERO_VEC"
3B8D  544F5200           "TOR\0"
                         const [50]: "ZERO_VECTOR"
3B91  04                 const type 4
3B92  19                 string size (25)
3B93  53686970335F5669+  "Ship3_Vi"
3B9B  7472757669616E43+  "truvianC"
3BA3  6F6E6E6563746564+  "onnected"
3BAB  00                 "\0"
                         const [51]: "Ship3_VitruvianConnected"
3BAC  04                 const type 4
3BAD  09                 string size (9)
3BAE  456E644561726C79+  "EndEarly"
3BB6  00                 "\0"
                         const [52]: "EndEarly"
3BB7  04                 const type 4
3BB8  14                 string size (20)
3BB9  41544D4D5F504859+  "ATMM_PHY"
3BC1  534943535F445249+  "SICS_DRI"
3BC9  56454E00           "VEN\0"
                         const [53]: "ATMM_PHYSICS_DRIVEN"
3BCD  01                 const type 3
3BCE  A25264B2           const [54]: (-1302048094)
3BD2  04                 const type 4
3BD3  0B                 string size (11)
3BD4  43616D6572615469+  "CameraTi"
3BDC  6C7400             "lt\0"
                         const [55]: "CameraTilt"
3BDF  03                 const type 3
3BE0  0000E040           const [56]: (0)
3BE4  04                 const type 4
3BE5  03                 string size (3)
3BE6  5F5400             "_T\0"
                         const [57]: "_T"
3BE9  01                 const type 3
3BEA  04329807           const [58]: (127414788)
3BEE  03                 const type 3
3BEF  CDCCCC3E           const [59]: (-51)
3BF3  03                 const type 3
3BF4  9A99993E           const [60]: (-102)
3BF8  03                 const type 3
3BF9  CDCC4C3F           const [61]: (-51)
3BFD  03                 const type 3
3BFE  9A99193F           const [62]: (-102)
3C02  03                 const type 3
3C03  CDCC4C3E           const [63]: (-51)
3C07  04                 const type 4
3C08  10                 string size (16)
3C09  6375725472616E73+  "curTrans"
3C11  6D697373696F6E00   "mission\0"
                         const [64]: "curTransmission"
3C19  04                 const type 4
3C1A  05                 string size (5)
3C1B  6D61746800         "math\0"
                         const [65]: "math"
3C20  01                 const type 3
3C21  3810018B           const [66]: (-1962864584)
3C25  01                 const type 3
3C26  FFF9DE4C           const [67]: (1289681407)
3C2A  03                 const type 3
3C2B  0AD7233C           const [68]: (10)
3C2F  03                 const type 3
3C30  EC51B83D           const [69]: (-20)
3C34  01                 const type 3
3C35  42674A8C           const [70]: (-1941280958)
3C39  03                 const type 3
3C3A  3333333F           const [71]: (51)
3C3E  03                 const type 3
3C3F  6666663F           const [72]: (102)
3C43  03                 const type 3
3C44  0000003F           const [73]: (0)
3C48  04                 const type 4
3C49  15                 string size (21)
3C4A  6C6967687473506F+  "lightsPo"
3C52  776572446F776E53+  "werDownS"
3C5A  6F756E6400         "ound\0"
                         const [74]: "lightsPowerDownSound"
3C5F  03                 const type 3
3C60  6F12833A           const [75]: (111)
3C64  03                 const type 3
3C65  00000041           const [76]: (0)
3C69  04                 const type 4
3C6A  13                 string size (19)
3C6B  6C6967687473506F+  "lightsPo"
3C73  7765725570536F75+  "werUpSou"
3C7B  6E6400             "nd\0"
                         const [77]: "lightsPowerUpSound"
3C7E  03                 const type 3
3C7F  CDCCCC3C           const [78]: (-51)
3C83  04                 const type 4
3C84  10                 string size (16)
3C85  53686970335F4C69+  "Ship3_Li"
3C8D  676874734F757400   "ghtsOut\0"
                         const [79]: "Ship3_LightsOut"
                         * functions:
3C95  00                 sizep (0)
                         * lines:
3C97  02                 sizelineinfo (334)
                         [pc] (line)
3C98  0F                 [001] (15)
3C99  02                 [002] (15)
3C9A  00                 [003] (17)
3C9B  00                 [004] (17)
3C9C  0F                 [005] (19)
3C9D  02                 [006] (19)
3C9E  00                 [007] (19)
3C9F  00                 [008] (19)
3CA0  11                 [009] (19)
3CA1  02                 [010] (19)
3CA2  00                 [011] (19)
3CA3  00                 [012] (19)
3CA4  11                 [013] (19)
3CA5  02                 [014] (20)
3CA6  00                 [015] (20)
3CA7  00                 [016] (21)
3CA8  13                 [017] (21)
3CA9  02                 [018] (21)
3CAA  00                 [019] (21)
3CAB  00                 [020] (21)
3CAC  13                 [021] (21)
3CAD  02                 [022] (21)
3CAE  00                 [023] (21)
3CAF  00                 [024] (22)
3CB0  13                 [025] (22)
3CB1  02                 [026] (24)
3CB2  00                 [027] (24)
3CB3  00                 [028] (24)
3CB4  13                 [029] (24)
3CB5  02                 [030] (24)
3CB6  00                 [031] (24)
3CB7  00                 [032] (25)
3CB8  13                 [033] (25)
3CB9  02                 [034] (26)
3CBA  00                 [035] (26)
3CBB  00                 [036] (26)
3CBC  13                 [037] (26)
3CBD  02                 [038] (26)
3CBE  00                 [039] (26)
3CBF  00                 [040] (27)
3CC0  13                 [041] (27)
3CC1  02                 [042] (27)
3CC2  00                 [043] (27)
3CC3  00                 [044] (27)
3CC4  13                 [045] (28)
3CC5  02                 [046] (28)
3CC6  00                 [047] (31)
3CC7  00                 [048] (31)
3CC8  13                 [049] (32)
3CC9  02                 [050] (32)
3CCA  00                 [051] (32)
3CCB  00                 [052] (32)
3CCC  14                 [053] (34)
3CCD  02                 [054] (34)
3CCE  00                 [055] (34)
3CCF  00                 [056] (35)
3CD0  14                 [057] (35)
3CD1  02                 [058] (35)
3CD2  00                 [059] (35)
3CD3  00                 [060] (35)
3CD4  15                 [061] (35)
3CD5  02                 [062] (35)
3CD6  00                 [063] (35)
3CD7  00                 [064] (36)
3CD8  15                 [065] (36)
3CD9  02                 [066] (37)
3CDA  00                 [067] (37)
3CDB  00                 [068] (38)
3CDC  15                 [069] (40)
3CDD  02                 [070] (40)
3CDE  00                 [071] (40)
3CDF  00                 [072] (40)
3CE0  15                 [073] (43)
3CE1  02                 [074] (43)
3CE2  00                 [075] (43)
3CE3  00                 [076] (43)
3CE4  15                 [077] (43)
3CE5  02                 [078] (44)
3CE6  00                 [079] (44)
3CE7  00                 [080] (47)
3CE8  15                 [081] (47)
3CE9  02                 [082] (47)
3CEA  00                 [083] (48)
3CEB  00                 [084] (48)
3CEC  15                 [085] (48)
3CED  02                 [086] (48)
3CEE  00                 [087] (48)
3CEF  00                 [088] (49)
3CF0  15                 [089] (49)
3CF1  02                 [090] (49)
3CF2  00                 [091] (50)
3CF3  00                 [092] (50)
3CF4  16                 [093] (50)
3CF5  02                 [094] (50)
3CF6  00                 [095] (50)
3CF7  00                 [096] (53)
3CF8  16                 [097] (53)
3CF9  02                 [098] (53)
3CFA  00                 [099] (53)
3CFB  00                 [100] (53)
3CFC  18                 [101] (53)
3CFD  02                 [102] (53)
3CFE  00                 [103] (53)
3CFF  00                 [104] (53)
3D00  18                 [105] (53)
3D01  02                 [106] (53)
3D02  00                 [107] (53)
3D03  00                 [108] (53)
3D04  18                 [109] (53)
3D05  02                 [110] (53)
3D06  00                 [111] (53)
3D07  00                 [112] (54)
3D08  18                 [113] (54)
3D09  02                 [114] (54)
3D0A  00                 [115] (54)
3D0B  00                 [116] (54)
3D0C  18                 [117] (54)
3D0D  02                 [118] (55)
3D0E  00                 [119] (55)
3D0F  00                 [120] (55)
3D10  18                 [121] (55)
3D11  02                 [122] (55)
3D12  00                 [123] (55)
3D13  00                 [124] (55)
3D14  19                 [125] (55)
3D15  02                 [126] (55)
3D16  00                 [127] (55)
3D17  00                 [128] (55)
3D18  19                 [129] (55)
3D19  02                 [130] (55)
3D1A  00                 [131] (55)
3D1B  00                 [132] (55)
3D1C  1A                 [133] (55)
3D1D  02                 [134] (57)
3D1E  00                 [135] (57)
3D1F  00                 [136] (57)
3D20  1A                 [137] (57)
3D21  02                 [138] (57)
3D22  00                 [139] (57)
3D23  00                 [140] (57)
3D24  1A                 [141] (57)
3D25  02                 [142] (57)
3D26  00                 [143] (57)
3D27  00                 [144] (58)
3D28  1A                 [145] (58)
3D29  02                 [146] (58)
3D2A  00                 [147] (58)
3D2B  00                 [148] (60)
3D2C  1A                 [149] (60)
3D2D  02                 [150] (60)
3D2E  00                 [151] (60)
3D2F  00                 [152] (60)
3D30  1A                 [153] (61)
3D31  02                 [154] (61)
3D32  00                 [155] (62)
3D33  00                 [156] (62)
3D34  1B                 [157] (62)
3D35  02                 [158] (64)
3D36  00                 [159] (64)
3D37  00                 [160] (64)
3D38  1B                 [161] (64)
3D39  02                 [162] (64)
3D3A  00                 [163] (64)
3D3B  00                 [164] (64)
3D3C  1B                 [165] (65)
3D3D  02                 [166] (65)
3D3E  00                 [167] (65)
3D3F  00                 [168] (65)
3D40  1B                 [169] (65)
3D41  02                 [170] (65)
3D42  00                 [171] (65)
3D43  00                 [172] (65)
3D44  1B                 [173] (65)
3D45  02                 [174] (67)
3D46  00                 [175] (67)
3D47  00                 [176] (67)
3D48  1C                 [177] (67)
3D49  02                 [178] (69)
3D4A  00                 [179] (69)
3D4B  00                 [180] (69)
3D4C  1C                 [181] (69)
3D4D  02                 [182] (69)
3D4E  00                 [183] (69)
3D4F  00                 [184] (69)
3D50  1F                 [185] (69)
3D51  02                 [186] (69)
3D52  00                 [187] (70)
3D53  00                 [188] (70)
3D54  1F                 [189] (70)
3D55  02                 [190] (70)
3D56  00                 [191] (70)
3D57  00                 [192] (70)
3D58  20                 [193] (72)
3D59  02                 [194] (72)
3D5A  00                 [195] (72)
3D5B  00                 [196] (74)
3D5C  20                 [197] (74)
3D5D  02                 [198] (74)
3D5E  00                 [199] (74)
3D5F  00                 [200] (74)
3D60  20                 [201] (74)
3D61  02                 [202] (75)
3D62  00                 [203] (75)
3D63  00                 [204] (75)
3D64  20                 [205] (75)
3D65  02                 [206] (75)
3D66  00                 [207] (75)
3D67  00                 [208] (76)
3D68  22                 [209] (76)
3D69  02                 [210] (76)
3D6A  00                 [211] (76)
3D6B  00                 [212] (76)
3D6C  22                 [213] (76)
3D6D  02                 [214] (77)
3D6E  00                 [215] (77)
3D6F  00                 [216] (77)
3D70  22                 [217] (77)
3D71  02                 [218] (77)
3D72  00                 [219] (77)
3D73  00                 [220] (79)
3D74  23                 [221] (79)
3D75  02                 [222] (79)
3D76  00                 [223] (81)
3D77  00                 [224] (82)
3D78  23                 [225] (82)
3D79  02                 [226] (82)
3D7A  00                 [227] (82)
3D7B  00                 [228] (82)
3D7C  23                 [229] (82)
3D7D  02                 [230] (83)
3D7E  00                 [231] (83)
3D7F  00                 [232] (83)
3D80  23                 [233] (83)
3D81  02                 [234] (83)
3D82  00                 [235] (83)
3D83  00                 [236] (83)
3D84  23                 [237] (83)
3D85  02                 [238] (83)
3D86  00                 [239] (84)
3D87  00                 [240] (84)
3D88  23                 [241] (84)
3D89  02                 [242] (84)
3D8A  00                 [243] (84)
3D8B  00                 [244] (84)
3D8C  23                 [245] (84)
3D8D  02                 [246] (84)
3D8E  00                 [247] (84)
3D8F  00                 [248] (84)
3D90  23                 [249] (84)
3D91  02                 [250] (84)
3D92  00                 [251] (84)
3D93  00                 [252] (87)
3D94  24                 [253] (87)
3D95  02                 [254] (87)
3D96  00                 [255] (87)
3D97  00                 [256] (87)
3D98  24                 [257] (87)
3D99  02                 [258] (88)
3D9A  00                 [259] (88)
3D9B  00                 [260] (88)
3D9C  25                 [261] (88)
3D9D  02                 [262] (88)
3D9E  00                 [263] (88)
3D9F  00                 [264] (89)
3DA0  25                 [265] (89)
3DA1  02                 [266] (89)
3DA2  00                 [267] (89)
3DA3  00                 [268] (89)
3DA4  26                 [269] (89)
3DA5  02                 [270] (90)
3DA6  00                 [271] (90)
3DA7  00                 [272] (90)
3DA8  28                 [273] (90)
3DA9  02                 [274] (90)
3DAA  00                 [275] (90)
3DAB  00                 [276] (92)
3DAC  28                 [277] (92)
3DAD  02                 [278] (92)
3DAE  00                 [279] (94)
3DAF  00                 [280] (94)
3DB0  28                 [281] (96)
3DB1  02                 [282] (96)
3DB2  00                 [283] (96)
3DB3  00                 [284] (96)
3DB4  28                 [285] (96)
3DB5  02                 [286] (96)
3DB6  00                 [287] (97)
3DB7  00                 [288] (97)
3DB8  2B                 [289] (97)
3DB9  02                 [290] (97)
3DBA  00                 [291] (97)
3DBB  00                 [292] (97)
3DBC  2B                 [293] (98)
3DBD  02                 [294] (98)
3DBE  00                 [295] (98)
3DBF  00                 [296] (98)
3DC0  2B                 [297] (98)
3DC1  02                 [298] (98)
3DC2  00                 [299] (99)
3DC3  00                 [300] (99)
3DC4  2B                 [301] (99)
3DC5  02                 [302] (99)
3DC6  00                 [303] (99)
3DC7  00                 [304] (99)
3DC8  2B                 [305] (100)
3DC9  02                 [306] (100)
3DCA  00                 [307] (100)
3DCB  00                 [308] (100)
3DCC  2C                 [309] (100)
3DCD  02                 [310] (100)
3DCE  00                 [311] (101)
3DCF  00                 [312] (101)
3DD0  2C                 [313] (101)
3DD1  02                 [314] (101)
3DD2  00                 [315] (101)
3DD3  00                 [316] (101)
3DD4  2F                 [317] (102)
3DD5  02                 [318] (102)
3DD6  00                 [319] (102)
3DD7  00                 [320] (102)
3DD8  2F                 [321] (102)
3DD9  02                 [322] (102)
3DDA  00                 [323] (104)
3DDB  00                 [324] (104)
3DDC  2F                 [325] (104)
3DDD  02                 [326] (104)
3DDE  00                 [327] (104)
3DDF  00                 [328] (104)
3DE0  30                 [329] (104)
3DE1  02                 [330] (104)
3DE2  00                 [331] (104)
3DE3  00                 [332] (106)
3DE4  30                 [333] (106)
3DE5  02                 [334] (107)
                         * locals:
41D0  00                 sizelocvars (0)
                         * upvalues:
41D1  00                 sizeupvalues (0)
                         ** end of function **

                         
41D2                     ** function [16] definition (level 2)
                         ** start of function **
41D2  00                 string size (0)
                         source name: (none)
41D4  04                 line defined (621)
41D5  90                 last line defined (656)
41D6  05                 nups (5)
41D7  05                 numparams (0)
41D8  00                 is_vararg (0)
41D9  00                 maxstacksize (5)
                         * code:
41DB  38                 sizecode (56)
41DC  1D000000           [01] getglobal  0   0        ; _T
41E0  5D000000           [02] getglobal  1   0        ; _T
41E4  4E40C000           [03] gettable   1   1   257  ; "QuestResetVars"
41E8  58400000           [04] test       1       1    ; to [6] if false
41EC  1A000080           [05] jmp        1            ; to [7]
41F0  4B000000           [06] newtable   1   0   0    ; array=0, hash=0
41F4  0C408080           [07] settable   0   257 1    ; "QuestResetVars"
41F8  1D000000           [08] getglobal  0   0        ; _T
41FC  5DC00000           [09] getglobal  1   3        ; -421772368
4200  93000000           [10] getupval   2   0      
4204  CB000000           [11] newtable   3   0   0    ; array=0, hash=0
4208  62808001           [12] call       1   3   2  
420C  0C400081           [13] settable   0   258 1    ; "Foundry_SearchTerm"
4210  1D000100           [14] getglobal  0   4        ; table
4214  0E404100           [15] gettable   0   0   261  ; -431682403
4218  5D000000           [16] getglobal  1   0        ; _T
421C  4E40C000           [17] gettable   1   1   257  ; "QuestResetVars"
4220  99800000           [18] loadk      2   2        ; "Foundry_SearchTerm"
4224  22408001           [19] call       0   3   1  
4228  13008000           [20] getupval   0   1      
422C  22408000           [21] call       0   1   1  
4230  17000000           [22] loadbool   0   0   0    ; false
4234  65000000           [23] closure    1   0      
4238  13000001           [24] getupval   0   2      
423C  12000000           [25] move       0   0      
4240  92008000           [26] move       2   1      
4244  A2408000           [27] call       2   1   1  
4248  18400000           [28] test       0       1    ; to [30] if false
424C  1AC00580           [29] jmp        24           ; to [54]
4250  9D800100           [30] getglobal  2   6        ; 538022378
4254  D9C00100           [31] loadk      3   7        ; 0
4258  A2400001           [32] call       2   2   1  
425C  9D000200           [33] getglobal  2   8        ; gFlashMgr
4260  A4404201           [34] self       2   2   265  ; 1634586770
4264  13018001           [35] getupval   4   3      
4268  A2808001           [36] call       2   3   2  
426C  DD800200           [37] getglobal  3   10       ; 1074689893
4270  12010001           [38] move       4   2      
4274  E2800001           [39] call       3   2   2  
4278  D8400000           [40] test       3       1    ; to [42] if false
427C  1A40FC7F           [41] jmp        -14          ; to [28]
4280  DD800200           [42] getglobal  3   10       ; 1074689893
4284  12010001           [43] move       4   2      
4288  E2800001           [44] call       3   2   2  
428C  D8400000           [45] test       3       1    ; to [47] if false
4290  1AC00080           [46] jmp        4            ; to [51]
4294  DD800100           [47] getglobal  3   6        ; 538022378
4298  19C10100           [48] loadk      4   7        ; 0
429C  E2400001           [49] call       3   2   1  
42A0  1A80FD7F           [50] jmp        -9           ; to [42]
42A4  D2008000           [51] move       3   1      
42A8  E2408000           [52] call       3   1   1  
42AC  1A40F97F           [53] jmp        -26          ; to [28]
42B0  D3000002           [54] getupval   3   4      
42B4  E2408000           [55] call       3   1   1  
42B8  1E008000           [56] return     0   1      
                         * constants:
42BC  0B                 sizek (11)
42BD  04                 const type 4
42BE  03                 string size (3)
42BF  5F5400             "_T\0"
                         const [0]: "_T"
42C2  04                 const type 4
42C3  0F                 string size (15)
42C4  5175657374526573+  "QuestRes"
42CC  65745661727300     "etVars\0"
                         const [1]: "QuestResetVars"
42D3  04                 const type 4
42D4  13                 string size (19)
42D5  466F756E6472795F+  "Foundry_"
42DD  5365617263685465+  "SearchTe"
42E5  726D00             "rm\0"
                         const [2]: "Foundry_SearchTerm"
42E8  01                 const type 3
42E9  B043DCE6           const [3]: (-421772368)
42ED  04                 const type 4
42EE  06                 string size (6)
42EF  7461626C6500       "table\0"
                         const [4]: "table"
42F5  01                 const type 3
42F6  9D0C45E6           const [5]: (-431682403)
42FA  01                 const type 3
42FB  EA911120           const [6]: (538022378)
42FF  03                 const type 3
4300  00000000           const [7]: (0)
4304  04                 const type 4
4305  0A                 string size (10)
4306  67466C6173684D67+  "gFlashMg"
430E  7200               "r\0"
                         const [8]: "gFlashMgr"
4310  01                 const type 3
4311  92D06D61           const [9]: (1634586770)
4315  01                 const type 3
4316  65770E40           const [10]: (1074689893)
                         * functions:
431A  01                 sizep (1)
                         
431B                     ** function [0] definition (level 3)
                         ** start of function **
431B  00                 string size (0)
                         source name: (none)
431D  04                 line defined (630)
431E  FF                 last line defined (639)
431F  04                 nups (2)
4320  02                 numparams (0)
4321  00                 is_vararg (0)
4322  00                 maxstacksize (7)
                         * code:
4324  15                 sizecode (21)
4325  1D000000           [01] getglobal  0   0        ; gGameData
4329  24404000           [02] self       0   0   257  ; 1865287165
432D  22800001           [03] call       0   2   2  
4331  24804000           [04] self       0   0   258  ; -744042907
4335  22800001           [05] call       0   2   2  
4339  59C00000           [06] loadk      1   3        ; 0
433D  8A000000           [07] len        2   0      
4341  D9C00000           [08] loadk      3   3        ; 0
4345  50400280           [09] forprep    1   10       ; to [20]
4349  4E010100           [10] gettable   5   0   4  
434D  4E01C102           [11] gettable   5   5   260  ; "mItemType"
4351  93010000           [12] getupval   6   0      
fail op	35
4355  23808102           [13] close      0  
4359  1A000180           [14] jmp        5            ; to [20]
435D  5D410100           [15] getglobal  5   5        ; _T
4361  4CC14183           [16] settable   5   262 263  ; "Foundry_SearchTerm" nil
4365  57018000           [17] loadbool   5   1   0    ; true
fail op	8
4369  48018000           [18] setupval   5   1      
436D  1A000080           [19] jmp        1            ; to [21]
4371  5400FD7F           [20] forloop    1   -11      ; to [10] if loop
4375  1E008000           [21] return     0   1      
                         * constants:
4379  08                 sizek (8)
437A  04                 const type 4
437B  0A                 string size (10)
437C  6747616D65446174+  "gGameDat"
4384  6100               "a\0"
                         const [0]: "gGameData"
4386  01                 const type 3
4387  FD052E6F           const [1]: (1865287165)
438B  01                 const type 3
438C  65CEA6D3           const [2]: (-744042907)
4390  03                 const type 3
4391  0000803F           const [3]: (0)
4395  04                 const type 4
4396  0A                 string size (10)
4397  6D4974656D547970+  "mItemTyp"
439F  6500               "e\0"
                         const [4]: "mItemType"
43A1  04                 const type 4
43A2  03                 string size (3)
43A3  5F5400             "_T\0"
                         const [5]: "_T"
43A6  04                 const type 4
43A7  13                 string size (19)
43A8  466F756E6472795F+  "Foundry_"
43B0  5365617263685465+  "SearchTe"
43B8  726D00             "rm\0"
                         const [6]: "Foundry_SearchTerm"
43BB  00                 const type 0
                         const [7]: nil
                         * functions:
43BC  00                 sizep (0)
                         * lines:
43BD  15                 sizelineinfo (21)
                         [pc] (line)
43BE  77                 [01] (119)
43BF  02                 [02] (119)
43C0  00                 [03] (119)
43C1  00                 [04] (119)
43C2  77                 [05] (119)
43C3  02                 [06] (120)
43C4  00                 [07] (120)
43C5  00                 [08] (120)
43C6  77                 [09] (120)
43C7  02                 [10] (121)
43C8  00                 [11] (121)
43C9  00                 [12] (121)
43CA  77                 [13] (121)
43CB  02                 [14] (121)
43CC  00                 [15] (122)
43CD  00                 [16] (122)
43CE  77                 [17] (123)
43CF  02                 [18] (123)
43D0  00                 [19] (124)
43D1  00                 [20] (120)
43D2  78                 [21] (127)
                         * locals:
4412  00                 sizelocvars (0)
                         * upvalues:
4413  00                 sizeupvalues (0)
                         ** end of function **

                         * lines:
4414  38                 sizelineinfo (56)
                         [pc] (line)
4415  6E                 [01] (110)
4416  02                 [02] (110)
4417  00                 [03] (110)
4418  00                 [04] (110)
4419  6E                 [05] (110)
441A  02                 [06] (110)
441B  00                 [07] (110)
441C  00                 [08] (112)
441D  6E                 [09] (112)
441E  02                 [10] (112)
441F  00                 [11] (112)
4420  00                 [12] (112)
4421  6E                 [13] (112)
4422  02                 [14] (113)
4423  00                 [15] (113)
4424  00                 [16] (113)
4425  6E                 [17] (113)
4426  02                 [18] (113)
4427  00                 [19] (113)
4428  00                 [20] (115)
4429  6E                 [21] (115)
442A  02                 [22] (117)
442B  00                 [23] (127)
442C  00                 [24] (127)
442D  6E                 [25] (127)
442E  02                 [26] (-127)
442F  00                 [27] (-127)
4430  00                 [28] (-125)
4431  70                 [29] (-125)
4432  02                 [30] (-124)
4433  00                 [31] (-124)
4434  00                 [32] (-124)
4435  70                 [33] (-122)
4436  02                 [34] (-122)
4437  00                 [35] (-122)
4438  00                 [36] (-122)
4439  70                 [37] (-121)
443A  02                 [38] (-121)
443B  00                 [39] (-121)
443C  00                 [40] (-121)
443D  70                 [41] (-121)
443E  02                 [42] (-120)
443F  00                 [43] (-120)
4440  00                 [44] (-120)
4441  70                 [45] (-120)
4442  02                 [46] (-120)
4443  00                 [47] (-119)
4444  00                 [48] (-119)
4445  70                 [49] (-119)
4446  02                 [50] (-119)
4447  00                 [51] (-117)
4448  00                 [52] (-117)
4449  71                 [53] (-116)
444A  02                 [54] (-113)
444B  00                 [55] (-113)
444C  00                 [56] (-112)
                         * locals:
44F5  00                 sizelocvars (0)
                         * upvalues:
44F6  00                 sizeupvalues (0)
                         ** end of function **

                         
44F7                     ** function [17] definition (level 2)
                         ** start of function **
44F7  00                 string size (0)
                         source name: (none)
44F9  05                 line defined (659)
44FA  D5                 last line defined (853)
44FB  06                 nups (9)
44FC  09                 numparams (0)
44FD  00                 is_vararg (0)
44FE  00                 maxstacksize (44)
                         * code:
4501  03                 sizecode (455)
4502  13000000           [001] getupval   0   0      
4506  22408000           [002] call       0   1   1  
450A  1D000000           [003] getglobal  0   0        ; _T
450E  5D000000           [004] getglobal  1   0        ; _T
4512  4E40C000           [005] gettable   1   1   257  ; "QuestResetVars"
4516  58400000           [006] test       1       1    ; to [8] if false
451A  1A000080           [007] jmp        1            ; to [9]
451E  4B000000           [008] newtable   1   0   0    ; array=0, hash=0
4522  0C408080           [009] settable   0   257 1    ; "QuestResetVars"
4526  1D000000           [010] getglobal  0   0        ; _T
452A  0CC04081           [011] settable   0   258 259  ; "Arsenal_ForceUmbraUnlock" 1
452E  1D000100           [012] getglobal  0   4        ; table
4532  0E404100           [013] gettable   0   0   261  ; -431682403
4536  5D000000           [014] getglobal  1   0        ; _T
453A  4E40C000           [015] gettable   1   1   257  ; "QuestResetVars"
453E  99800000           [016] loadk      2   2        ; "Arsenal_ForceUmbraUnlock"
4542  22408001           [017] call       0   3   1  
4546  1D000000           [018] getglobal  0   0        ; _T
454A  0E804100           [019] gettable   0   0   262  ; "StreamShipQuestLayer"
454E  18400000           [020] test       0       1    ; to [22] if false
4552  1AC00080           [021] jmp        4            ; to [26]
4556  1DC00100           [022] getglobal  0   7        ; 538022378
455A  59000200           [023] loadk      1   8        ; 0
455E  22400001           [024] call       0   2   1  
4562  1AC0FD7F           [025] jmp        -8           ; to [18]
4566  1D400200           [026] getglobal  0   9        ; gRegion
456A  24804200           [027] self       0   0   266  ; -1875307917
456E  9DC00200           [028] getglobal  2   11       ; -332969190
4572  D9000300           [029] loadk      3   12       ; "QUESTLAYER_SacrificeArsenalCin"
4576  A2000001           [030] call       2   2   0  
457A  22800000           [031] call       0   0   2  
457E  5D000000           [032] getglobal  1   0        ; _T
4582  4E40C300           [033] gettable   1   1   269  ; -813688002
4586  9D800300           [034] getglobal  2   14       ; extraLayer
458A  E4C04300           [035] self       3   0   271  ; 196800914
458E  E2800001           [036] call       3   2   2  
4592  24014400           [037] self       4   0   272  ; 54877834
4596  22010001           [038] call       4   2   0  
459A  62800000           [039] call       1   0   2  
459E  86008002           [040] loadnil    2   5      
45A2  9D010000           [041] getglobal  6   0        ; _T
45A6  8E414403           [042] gettable   6   6   273  ; "ExcaliburUmbraEquipped"
45AA  98410000           [043] test       6       1    ; to [45] if false
45AE  1A802280           [044] jmp        139          ; to [184]
45B2  9DC10100           [045] getglobal  6   7        ; 538022378
45B6  D9010200           [046] loadk      7   8        ; 0
45BA  A2410001           [047] call       6   2   1  
45BE  9D810400           [048] getglobal  6   18       ; gGameData
45C2  A4C14403           [049] self       6   6   275  ; 1865287165
45C6  A2810001           [050] call       6   2   2  
45CA  A4014503           [051] self       6   6   276  ; 1388869707
45CE  A2810001           [052] call       6   2   2  
45D2  DD410500           [053] getglobal  7   21       ; keyChain
fail op	35
45D6  63C00103           [054] close      1  
45DA  1A800080           [055] jmp        3            ; to [59]
45DE  9D010000           [056] getglobal  6   0        ; _T
45E2  8C814581           [057] settable   6   258 278  ; "Arsenal_ForceUmbraUnlock" nil
45E6  1E008000           [058] return     0   1      
45EA  9DC10500           [059] getglobal  6   23       ; gFlashMgr
45EE  A4014603           [060] self       6   6   280  ; 1634586770
45F2  13028000           [061] getupval   8   1      
45F6  A2818001           [062] call       6   3   2  
45FA  92000003           [063] move       2   6      
45FE  9D410600           [064] getglobal  6   25       ; 1074689893
4602  D2010001           [065] move       7   2      
4606  A2810001           [066] call       6   2   2  
460A  98410000           [067] test       6       1    ; to [69] if false
460E  1AC0F87F           [068] jmp        -28          ; to [41]
4612  9D810400           [069] getglobal  6   18       ; gGameData
4616  A4C14403           [070] self       6   6   275  ; 1865287165
461A  A2810001           [071] call       6   2   2  
461E  E4814603           [072] self       7   6   282  ; 1094587633
4622  5DC20600           [073] getglobal  9   27       ; Lotus_Game
4626  4E02C704           [074] gettable   9   9   284  ; "LOT_NORMAL"
462A  E2818001           [075] call       7   3   2  
462E  12018003           [076] move       4   7      
4632  E4414702           [077] self       7   4   285  ; 1288286795
4636  E2810001           [078] call       7   2   2  
463A  52018003           [079] move       5   7      
463E  E4814703           [080] self       7   6   286  ; 1516752192
4642  5DC20600           [081] getglobal  9   27       ; Lotus_Game
4646  4E02C704           [082] gettable   9   9   284  ; "LOT_NORMAL"
464A  92020002           [083] move       10  4      
464E  E2810002           [084] call       7   4   2  
4652  D2008003           [085] move       3   7      
4656  DD410200           [086] getglobal  7   9        ; gRegion
465A  E4C1C703           [087] self       7   7   287  ; 65205951
465E  E2810001           [088] call       7   2   2  
4662  E401C803           [089] self       7   7   288  ; -1917464545
4666  E2810001           [090] call       7   2   2  
466A  E441C803           [091] self       7   7   289  ; 1769516121
466E  E2810001           [092] call       7   2   2  
4672  1D420600           [093] getglobal  8   25       ; 1074689893
4676  52028003           [094] move       9   7      
467A  22820001           [095] call       8   2   2  
467E  18420000           [096] test       8       1    ; to [98] if false
4682  1A800480           [097] jmp        19           ; to [117]
4686  2482C803           [098] self       8   7   290  ; -1957065004
468A  93020001           [099] getupval   10  2      
468E  22828001           [100] call       8   3   2  
4692  18020000           [101] test       8       0    ; to [103] if true
4696  1A400380           [102] jmp        14           ; to [117]
469A  1DC20100           [103] getglobal  8   7        ; 538022378
469E  59020200           [104] loadk      9   8        ; 0
46A2  22420001           [105] call       8   2   1  
46A6  1DC20100           [106] getglobal  8   7        ; 538022378
46AA  59020200           [107] loadk      9   8        ; 0
46AE  22420001           [108] call       8   2   1  
46B2  24C24801           [109] self       8   2   291  ; 1167009705
46B6  99020900           [110] loadk      10  36       ; "SacrificeQuestBlockInput"
46BA  D9420900           [111] loadk      11  37       ; ""
46BE  22420002           [112] call       8   4   1  
46C2  1DC20100           [113] getglobal  8   7        ; 538022378
46C6  59820900           [114] loadk      9   38       ; 0
46CA  22420001           [115] call       8   2   1  
46CE  1A801080           [116] jmp        67           ; to [184]
46D2  06020004           [117] loadnil    8   8      
46D6  5D420600           [118] getglobal  9   25       ; 1074689893
46DA  92020001           [119] move       10  2      
46DE  62820001           [120] call       9   2   2  
46E2  58420000           [121] test       9       1    ; to [123] if false
46E6  1A40EB7F           [122] jmp        -82          ; to [41]
46EA  5D020000           [123] getglobal  9   0        ; _T
46EE  4E42C404           [124] gettable   9   9   273  ; "ExcaliburUmbraEquipped"
46F2  58420000           [125] test       9       1    ; to [127] if false
46F6  1A40EA7F           [126] jmp        -86          ; to [41]
46FA  5DC20100           [127] getglobal  9   7        ; 538022378
46FE  99020200           [128] loadk      10  8        ; 0
4702  62420001           [129] call       9   2   1  
4706  64824603           [130] self       9   6   282  ; 1094587633
470A  DDC20600           [131] getglobal  11  27       ; Lotus_Game
470E  CE02C705           [132] gettable   11  11  284  ; "LOT_NORMAL"
4712  62828001           [133] call       9   3   2  
4716  12018004           [134] move       4   9      
471A  64424702           [135] self       9   4   285  ; 1288286795
471E  62820001           [136] call       9   2   2  
fail op	35
4722  63408104           [137] close      1  
4726  1A000280           [138] jmp        9            ; to [148]
472A  64424702           [139] self       9   4   285  ; 1288286795
472E  62820001           [140] call       9   2   2  
4732  52018004           [141] move       5   9      
4736  64824703           [142] self       9   6   286  ; 1516752192
473A  DDC20600           [143] getglobal  11  27       ; Lotus_Game
473E  CE02C705           [144] gettable   11  11  284  ; "LOT_NORMAL"
4742  12030002           [145] move       12  4      
4746  62820002           [146] call       9   4   2  
474A  D2008004           [147] move       3   9      
474E  5D020000           [148] getglobal  9   0        ; _T
4752  4EC2C904           [149] gettable   9   9   295  ; "MenuSuitAvatar"
4756  9D420600           [150] getglobal  10  25       ; 1074689893
475A  D2028004           [151] move       11  9      
475E  A2820001           [152] call       10  2   2  
4762  98420000           [153] test       10      1    ; to [155] if false
4766  1A80F67F           [154] jmp        -37          ; to [118]
476A  A402C804           [155] self       10  9   288  ; -1917464545
476E  A2820001           [156] call       10  2   2  
4772  A4424805           [157] self       10  10  289  ; 1769516121
4776  A2820001           [158] call       10  2   2  
477A  DD420600           [159] getglobal  11  25       ; 1074689893
477E  12030005           [160] move       12  10     
4782  E2820001           [161] call       11  2   2  
4786  D8420000           [162] test       11      1    ; to [164] if false
478A  1AC00080           [163] jmp        4            ; to [168]
478E  E4824805           [164] self       11  10  290  ; -1957065004
4792  53030001           [165] getupval   13  2      
4796  E2828001           [166] call       11  3   2  
479A  1A400080           [167] jmp        2            ; to [170]
479E  D7420000           [168] loadbool   11  0   1    ; false, to [170]
47A2  D7028000           [169] loadbool   11  1   0    ; true
fail op	35
47A6  63008205           [170] close      1  
47AA  1A40F27F           [171] jmp        -54          ; to [118]
47AE  D8020000           [172] test       11      0    ; to [174] if true
47B2  1AC00080           [173] jmp        4            ; to [178]
47B6  2403CA04           [174] self       12  9   296  ; -1262835566
47BA  9D430A00           [175] getglobal  14  41       ; excaliburUmbraIdleAnim
47BE  22438001           [176] call       12  3   1  
47C2  1A800080           [177] jmp        3            ; to [181]
47C6  2403CA04           [178] self       12  9   296  ; -1262835566
47CA  86030007           [179] loadnil    14  14     
47CE  22438001           [180] call       12  3   1  
47D2  12028005           [181] move       8   11     
47D6  1A80EF7F           [182] jmp        -65          ; to [118]
47DA  1A00DC7F           [183] jmp        -143         ; to [41]
47DE  1D430600           [184] getglobal  12  25       ; 1074689893
47E2  52038001           [185] move       13  3      
47E6  22830001           [186] call       12  2   2  
47EA  18430000           [187] test       12      1    ; to [189] if false
47EE  1A800980           [188] jmp        39           ; to [228]
47F2  17038000           [189] loadbool   12  1   0    ; true
47F6  6483CA01           [190] self       13  3   298  ; -1474540701
47FA  DDC30600           [191] getglobal  15  27       ; Lotus_Game
47FE  CEC3CA07           [192] gettable   15  15  299  ; "SUIT_SLOT"
4802  62838001           [193] call       13  3   2  
4806  8E03CB06           [194] gettable   14  13  300  ; "mItemId"
480A  DD830400           [195] getglobal  15  18       ; gGameData
480E  E4C3C407           [196] self       15  15  275  ; 1865287165
4812  E2830001           [197] call       15  2   2  
4816  2444CB07           [198] self       16  15  301  ; -744042907
481A  22840001           [199] call       16  2   2  
481E  59840900           [200] loadk      17  38       ; 0
4822  8A040008           [201] len        18  16     
4826  D9840900           [202] loadk      19  38       ; 0
482A  50440280           [203] forprep    17  10       ; to [214]
482E  4E050508           [204] gettable   21  16  20 
4832  8E85CB0A           [205] gettable   22  21  302  ; "mItemType"
4836  D3050001           [206] getupval   23  2      
fail op	35
483A  23C0050B           [207] close      0  
483E  1A000180           [208] jmp        5            ; to [214]
4842  8E05CB0A           [209] gettable   22  21  300  ; "mItemId"
fail op	35
4846  2380030B           [210] close      0  
484A  1A400080           [211] jmp        2            ; to [214]
484E  17030000           [212] loadbool   12  0   0    ; false
4852  1A000080           [213] jmp        1            ; to [215]
4856  5404FD7F           [214] forloop    17  -11      ; to [204] if loop
485A  18030000           [215] test       12      0    ; to [217] if true
485E  1A800280           [216] jmp        11           ; to [228]
4862  A4C5CB07           [217] self       22  15  303  ; 1851169770
4866  1DC60600           [218] getglobal  24  27       ; Lotus_Game
486A  0E06470C           [219] gettable   24  24  284  ; "LOT_NORMAL"
486E  52068001           [220] move       25  3      
4872  A2450002           [221] call       22  4   1  
4876  9D850400           [222] getglobal  22  18       ; gGameData
487A  A4054C0B           [223] self       22  22  304  ; 1776726008
487E  1DC60600           [224] getglobal  24  27       ; Lotus_Game
4882  0E06470C           [225] gettable   24  24  284  ; "LOT_NORMAL"
4886  52068001           [226] move       25  3      
488A  A2450002           [227] call       22  4   1  
488E  9D850400           [228] getglobal  22  18       ; gGameData
4892  A4C5440B           [229] self       22  22  275  ; 1865287165
4896  A2850001           [230] call       22  2   2  
489A  A405450B           [231] self       22  22  276  ; 1388869707
489E  A2850001           [232] call       22  2   2  
48A2  DD450500           [233] getglobal  23  21       ; keyChain
fail op	35
48A6  63C0050B           [234] close      1  
48AA  1A800080           [235] jmp        3            ; to [239]
48AE  9D050000           [236] getglobal  22  0        ; _T
48B2  8C854581           [237] settable   22  258 278  ; "Arsenal_ForceUmbraUnlock" nil
48B6  1E008000           [238] return     0   1      
48BA  93058001           [239] getupval   22  3      
48BE  D7058000           [240] loadbool   23  1   0    ; true
48C2  A2450001           [241] call       22  2   1  
48C6  9D450200           [242] getglobal  22  9        ; gRegion
48CA  A4454C0B           [243] self       22  22  305  ; 152279552
48CE  1D860C00           [244] getglobal  24  50       ; gLotusOperatorAvatarType
48D2  A2858001           [245] call       22  3   2  
48D6  98050000           [246] test       22      0    ; to [248] if true
48DA  1A000080           [247] jmp        1            ; to [249]
48DE  8E85490B           [248] gettable   22  22  294  ; 0
48E2  DD450600           [249] getglobal  23  25       ; 1074689893
48E6  1206000B           [250] move       24  22     
48EA  E2850001           [251] call       23  2   2  
48EE  D8450000           [252] test       23      1    ; to [254] if false
48F2  1AC00080           [253] jmp        4            ; to [258]
48F6  D3050002           [254] getupval   23  4      
48FA  CEC5CC0B           [255] gettable   23  23  307  ; -623804443
48FE  1206000B           [256] move       24  22     
4902  E2450001           [257] call       23  2   1  
4906  DD450200           [258] getglobal  23  9        ; gRegion
490A  E4C5C70B           [259] self       23  23  287  ; 65205951
490E  E2850001           [260] call       23  2   2  
4912  E405CD0B           [261] self       23  23  308  ; 1129512439
4916  5D460D00           [262] getglobal  25  53       ; blockingInputFilter
491A  E2458001           [263] call       23  3   1  
491E  DD050000           [264] getglobal  23  0        ; _T
4922  CEC5C90B           [265] gettable   23  23  295  ; "MenuSuitAvatar"
4926  E485CD0B           [266] self       23  23  310  ; -725453761
492A  E2450001           [267] call       23  2   1  
492E  DD050000           [268] getglobal  23  0        ; _T
4932  CC85C593           [269] settable   23  295 278  ; "MenuSuitAvatar" nil
4936  DD450200           [270] getglobal  23  9        ; gRegion
493A  E445CC0B           [271] self       23  23  305  ; 152279552
493E  5DC60D00           [272] getglobal  25  55       ; gDojoPlaceableDecorationType
4942  E2858001           [273] call       23  3   2  
4946  19860900           [274] loadk      24  38       ; 0
494A  4A06800B           [275] len        25  23     
494E  99860900           [276] loadk      26  38       ; 0
4952  10860180           [277] forprep    24  7        ; to [285]
4956  0EC7860B           [278] gettable   28  23  27 
495A  6447470E           [279] self       29  28  285  ; 1288286795
495E  62870001           [280] call       29  2   2  
fail op	35
4962  6340C90E           [281] close      1  
4966  1A400080           [282] jmp        2            ; to [285]
496A  64874D0E           [283] self       29  28  310  ; -725453761
496E  62470001           [284] call       29  2   1  
4972  14C6FD7F           [285] forloop    24  -8       ; to [278] if loop
4976  5D070000           [286] getglobal  29  0        ; _T
497A  4E07CE0E           [287] gettable   29  29  312  ; 728823693
497E  92078000           [288] move       30  1      
4982  62870001           [289] call       29  2   2  
4986  58470000           [290] test       29      1    ; to [292] if false
498A  1AC00080           [291] jmp        4            ; to [296]
498E  5DC70100           [292] getglobal  29  7        ; 538022378
4992  99070200           [293] loadk      30  8        ; 0
4996  62470001           [294] call       29  2   1  
499A  1A40FD7F           [295] jmp        -10          ; to [286]
499E  5D470200           [296] getglobal  29  9        ; gRegion
49A2  6447CC0E           [297] self       29  29  305  ; 152279552
49A6  DD470E00           [298] getglobal  31  57       ; gPetAvatarType
49AA  62878001           [299] call       29  3   2  
49AE  9D870E00           [300] getglobal  30  58       ; 1672515847
49B2  D207800E           [301] move       31  29     
49B6  A2070101           [302] call       30  2   4  
49BA  1A400080           [303] jmp        2            ; to [306]
49BE  E4884D11           [304] self       35  34  310  ; -725453761
49C2  E2480001           [305] call       35  2   1  
49C6  96870000           [306] tforloop   30      2    ; to [308] if exit
49CA  1AC0FE7F           [307] jmp        -4           ; to [304]
49CE  DD480200           [308] getglobal  35  9        ; gRegion
49D2  E488C211           [309] self       35  35  266  ; -1875307917
49D6  5DC90200           [310] getglobal  37  11       ; -332969190
49DA  99C90E00           [311] loadk      38  59       ; "SacrificeArsenalCin"
49DE  62090001           [312] call       37  2   0  
49E2  E2880000           [313] call       35  0   2  
49E6  2409CF11           [314] self       36  35  316  ; 1710466201
49EA  93098002           [315] getupval   38  5      
49EE  A2098000           [316] call       38  1   0  
49F2  22490000           [317] call       36  0   1  
49F6  2449CF11           [318] self       36  35  317  ; -1923578185
49FA  99890F00           [319] loadk      38  62       ; "StartPlaying"
49FE  22498001           [320] call       36  3   1  
4A02  13090003           [321] getupval   36  6      
4A06  57098000           [322] loadbool   37  1   0    ; true
4A0A  22490001           [323] call       36  2   1  
4A0E  1D490200           [324] getglobal  36  9        ; gRegion
4A12  24894212           [325] self       36  36  266  ; -1875307917
4A16  9DC90200           [326] getglobal  38  11       ; -332969190
4A1A  D9C90F00           [327] loadk      39  63       ; "Arsenal"
4A1E  A2090001           [328] call       38  2   0  
4A22  22890000           [329] call       36  0   2  
4A26  64095012           [330] self       37  36  320  ; 766584623
4A2A  62490001           [331] call       37  2   1  
4A2E  5D490200           [332] getglobal  37  9        ; gRegion
4A32  6489C212           [333] self       37  37  266  ; -1875307917
4A36  DDC90200           [334] getglobal  39  11       ; -332969190
4A3A  194A1000           [335] loadk      40  65       ; "GeneticLab"
4A3E  E2090001           [336] call       39  2   0  
4A42  62890000           [337] call       37  0   2  
4A46  A489D012           [338] self       38  37  322  ; -1318948062
4A4A  A2890001           [339] call       38  2   2  
4A4E  98090000           [340] test       38      0    ; to [342] if true
4A52  1A800080           [341] jmp        3            ; to [345]
4A56  A409D012           [342] self       38  37  320  ; 766584623
4A5A  A2490001           [343] call       38  2   1  
4A5E  1A000080           [344] jmp        1            ; to [346]
4A62  46098012           [345] loadnil    37  37     
4A66  9D090000           [346] getglobal  38  0        ; _T
4A6A  8E494313           [347] gettable   38  38  269  ; -813688002
4A6E  DDC91000           [348] getglobal  39  67       ; memoryLevel
4A72  1D0A1100           [349] getglobal  40  68       ; 572299008
4A76  590A0200           [350] loadk      41  8        ; 0
4A7A  994A1100           [351] loadk      42  69       ; 0
4A7E  D90A0200           [352] loadk      43  8        ; 0
4A82  228A0002           [353] call       40  4   2  
4A86  5D8A1100           [354] getglobal  41  70       ; ZERO_ROTATION
4A8A  A2890002           [355] call       38  4   2  
4A8E  DDC90100           [356] getglobal  39  7        ; 538022378
4A92  19CA1100           [357] loadk      40  71       ; 0
4A96  E2490001           [358] call       39  2   1  
4A9A  DD490600           [359] getglobal  39  25       ; 1074689893
4A9E  120A0001           [360] move       40  2      
4AA2  E2890001           [361] call       39  2   2  
4AA6  D8490000           [362] test       39      1    ; to [364] if false
4AAA  1A000180           [363] jmp        5            ; to [369]
4AAE  E4095201           [364] self       39  2   328  ; -1517569684
4AB2  E2490001           [365] call       39  2   1  
4AB6  DDC90100           [366] getglobal  39  7        ; 538022378
4ABA  190A0200           [367] loadk      40  8        ; 0
4ABE  E2490001           [368] call       39  2   1  
4AC2  E449D211           [369] self       39  35  329  ; 1438910546
4AC6  E2890001           [370] call       39  2   2  
4ACA  D8090000           [371] test       39      0    ; to [373] if true
4ACE  1AC00080           [372] jmp        4            ; to [377]
4AD2  DDC90100           [373] getglobal  39  7        ; 538022378
4AD6  190A0200           [374] loadk      40  8        ; 0
4ADA  E2490001           [375] call       39  2   1  
4ADE  1AC0FD7F           [376] jmp        -8           ; to [369]
4AE2  DDC90100           [377] getglobal  39  7        ; 538022378
4AE6  190A0200           [378] loadk      40  8        ; 0
4AEA  E2490001           [379] call       39  2   1  
4AEE  DDC90100           [380] getglobal  39  7        ; 538022378
4AF2  190A0200           [381] loadk      40  8        ; 0
4AF6  E2490001           [382] call       39  2   1  
4AFA  DD090000           [383] getglobal  39  0        ; _T
4AFE  CE09CE13           [384] gettable   39  39  312  ; 728823693
4B02  120A0013           [385] move       40  38     
4B06  E2890001           [386] call       39  2   2  
4B0A  D8490000           [387] test       39      1    ; to [389] if false
4B0E  1AC00080           [388] jmp        4            ; to [393]
4B12  DDC90100           [389] getglobal  39  7        ; 538022378
4B16  190A0200           [390] loadk      40  8        ; 0
4B1A  E2490001           [391] call       39  2   1  
4B1E  1A40FD7F           [392] jmp        -10          ; to [383]
4B22  DD490200           [393] getglobal  39  9        ; gRegion
4B26  E489C213           [394] self       39  39  266  ; -1875307917
4B2A  5DCA0200           [395] getglobal  41  11       ; -332969190
4B2E  998A1200           [396] loadk      42  74       ; "StartMemory"
4B32  620A0001           [397] call       41  2   0  
4B36  E2890000           [398] call       39  0   2  
4B3A  244ACF13           [399] self       40  39  317  ; -1923578185
4B3E  99CA1200           [400] loadk      42  75       ; "Execute"
4B42  224A8001           [401] call       40  3   1  
4B46  1D0A0000           [402] getglobal  40  0        ; _T
4B4A  0E0A5314           [403] gettable   40  40  332  ; "UmbraMemoryActivated"
4B4E  184A0000           [404] test       40      1    ; to [406] if false
4B52  1AC00080           [405] jmp        4            ; to [410]
4B56  1DCA0100           [406] getglobal  40  7        ; 538022378
4B5A  590A0200           [407] loadk      41  8        ; 0
4B5E  224A0001           [408] call       40  2   1  
4B62  1AC0FD7F           [409] jmp        -8           ; to [402]
4B66  1DCA0100           [410] getglobal  40  7        ; 538022378
4B6A  594A1300           [411] loadk      41  77       ; 0
4B6E  224A0001           [412] call       40  2   1  
4B72  1D0A0000           [413] getglobal  40  0        ; _T
4B76  0C8A4581           [414] settable   40  258 278  ; "Arsenal_ForceUmbraUnlock" nil
4B7A  1D4A0200           [415] getglobal  40  9        ; gRegion
4B7E  248A5314           [416] self       40  40  334  ; -1456226250
4B82  228A0001           [417] call       40  2   2  
4B86  0ECA5314           [418] gettable   40  40  335  ; "postProcess"
4B8A  0C0A42A8           [419] settable   40  336 264  ; "fade" 0
4B8E  244A5412           [420] self       40  36  337  ; -974578778
4B92  224A0001           [421] call       40  2   1  
4B96  1D0A0000           [422] getglobal  40  0        ; _T
4B9A  0E0A5314           [423] gettable   40  40  332  ; "UmbraMemoryActivated"
4B9E  180A0000           [424] test       40      0    ; to [426] if true
4BA2  1AC00080           [425] jmp        4            ; to [430]
4BA6  1DCA0100           [426] getglobal  40  7        ; 538022378
4BAA  590A0200           [427] loadk      41  8        ; 0
4BAE  224A0001           [428] call       40  2   1  
4BB2  1AC0FD7F           [429] jmp        -8           ; to [422]
4BB6  130A8003           [430] getupval   40  7      
4BBA  224A8000           [431] call       40  1   1  
4BBE  1D4A0600           [432] getglobal  40  25       ; 1074689893
4BC2  520A8012           [433] move       41  37     
4BC6  228A0001           [434] call       40  2   2  
4BCA  184A0000           [435] test       40      1    ; to [437] if false
4BCE  1A400080           [436] jmp        2            ; to [439]
4BD2  244AD412           [437] self       40  37  337  ; -974578778
4BD6  224A0001           [438] call       40  2   1  
4BDA  130A0003           [439] getupval   40  6      
4BDE  570A0000           [440] loadbool   41  0   0    ; false
4BE2  224A0001           [441] call       40  2   1  
4BE6  1D0A0000           [442] getglobal  40  0        ; _T
4BEA  0E8A5414           [443] gettable   40  40  338  ; -120716020
4BEE  520A0013           [444] move       41  38     
4BF2  224A0001           [445] call       40  2   1  
4BF6  1D0A0000           [446] getglobal  40  0        ; _T
4BFA  0E8A5414           [447] gettable   40  40  338  ; -120716020
4BFE  520A8000           [448] move       41  1      
4C02  224A0001           [449] call       40  2   1  
4C06  130A8001           [450] getupval   40  3      
4C0A  570A0000           [451] loadbool   41  0   0    ; false
4C0E  224A0001           [452] call       40  2   1  
4C12  130A0004           [453] getupval   40  8      
4C16  224A8000           [454] call       40  1   1  
4C1A  1E008000           [455] return     0   1      
                         * constants:
4C1E  53                 sizek (83)
4C1F  04                 const type 4
4C20  03                 string size (3)
4C21  5F5400             "_T\0"
                         const [0]: "_T"
4C24  04                 const type 4
4C25  0F                 string size (15)
4C26  5175657374526573+  "QuestRes"
4C2E  65745661727300     "etVars\0"
                         const [1]: "QuestResetVars"
4C35  04                 const type 4
4C36  19                 string size (25)
4C37  417273656E616C5F+  "Arsenal_"
4C3F  466F726365556D62+  "ForceUmb"
4C47  7261556E6C6F636B+  "raUnlock"
4C4F  00                 "\0"
                         const [2]: "Arsenal_ForceUmbraUnlock"
4C50  01                 const type 3
4C51  01000000           const [3]: (1)
4C55  04                 const type 4
4C56  06                 string size (6)
4C57  7461626C6500       "table\0"
                         const [4]: "table"
4C5D  01                 const type 3
4C5E  9D0C45E6           const [5]: (-431682403)
4C62  04                 const type 4
4C63  15                 string size (21)
4C64  53747265616D5368+  "StreamSh"
4C6C  697051756573744C+  "ipQuestL"
4C74  6179657200         "ayer\0"
                         const [6]: "StreamShipQuestLayer"
4C79  01                 const type 3
4C7A  EA911120           const [7]: (538022378)
4C7E  03                 const type 3
4C7F  00000000           const [8]: (0)
4C83  04                 const type 4
4C84  08                 string size (8)
4C85  67526567696F6E00   "gRegion\0"
                         const [9]: "gRegion"
4C8D  01                 const type 3
4C8E  73123990           const [10]: (-1875307917)
4C92  01                 const type 3
4C93  1A4B27EC           const [11]: (-332969190)
4C97  04                 const type 4
4C98  1F                 string size (31)
4C99  51554553544C4159+  "QUESTLAY"
4CA1  45525F5361637269+  "ER_Sacri"
4CA9  6669636541727365+  "ficeArse"
4CB1  6E616C43696E00     "nalCin\0"
                         const [12]: "QUESTLAYER_SacrificeArsenalCin"
4CB8  01                 const type 3
4CB9  3E1B80CF           const [13]: (-813688002)
4CBD  04                 const type 4
4CBE  0B                 string size (11)
4CBF  65787472614C6179+  "extraLay"
4CC7  657200             "er\0"
                         const [14]: "extraLayer"
4CCA  01                 const type 3
4CCB  92F1BA0B           const [15]: (196800914)
4CCF  01                 const type 3
4CD0  8A5E4503           const [16]: (54877834)
4CD4  04                 const type 4
4CD5  17                 string size (23)
4CD6  457863616C696275+  "Excalibu"
4CDE  72556D6272614571+  "rUmbraEq"
4CE6  75697070656400     "uipped\0"
                         const [17]: "ExcaliburUmbraEquipped"
4CED  04                 const type 4
4CEE  0A                 string size (10)
4CEF  6747616D65446174+  "gGameDat"
4CF7  6100               "a\0"
                         const [18]: "gGameData"
4CF9  01                 const type 3
4CFA  FD052E6F           const [19]: (1865287165)
4CFE  01                 const type 3
4CFF  4B78C852           const [20]: (1388869707)
4D03  04                 const type 4
4D04  09                 string size (9)
4D05  6B6579436861696E+  "keyChain"
4D0D  00                 "\0"
                         const [21]: "keyChain"
4D0E  00                 const type 0
                         const [22]: nil
4D0F  04                 const type 4
4D10  0A                 string size (10)
4D11  67466C6173684D67+  "gFlashMg"
4D19  7200               "r\0"
                         const [23]: "gFlashMgr"
4D1B  01                 const type 3
4D1C  92D06D61           const [24]: (1634586770)
4D20  01                 const type 3
4D21  65770E40           const [25]: (1074689893)
4D25  01                 const type 3
4D26  F1143E41           const [26]: (1094587633)
4D2A  04                 const type 4
4D2B  0B                 string size (11)
4D2C  4C6F7475735F4761+  "Lotus_Ga"
4D34  6D6500             "me\0"
                         const [27]: "Lotus_Game"
4D37  04                 const type 4
4D38  0B                 string size (11)
4D39  4C4F545F4E4F524D+  "LOT_NORM"
4D41  414C00             "AL\0"
                         const [28]: "LOT_NORMAL"
4D44  01                 const type 3
4D45  4BB2C94C           const [29]: (1288286795)
4D49  01                 const type 3
4D4A  40CD675A           const [30]: (1516752192)
4D4E  01                 const type 3
4D4F  BFF6E203           const [31]: (65205951)
4D53  01                 const type 3
4D54  1FD0B58D           const [32]: (-1917464545)
4D58  01                 const type 3
4D59  59AC7869           const [33]: (1769516121)
4D5D  01                 const type 3
4D5E  D48E598B           const [34]: (-1957065004)
4D62  01                 const type 3
4D63  A9278F45           const [35]: (1167009705)
4D67  04                 const type 4
4D68  19                 string size (25)
4D69  5361637269666963+  "Sacrific"
4D71  655175657374426C+  "eQuestBl"
4D79  6F636B496E707574+  "ockInput"
4D81  00                 "\0"
                         const [36]: "SacrificeQuestBlockInput"
4D82  04                 const type 4
4D83  01                 string size (0)
                         const [37]: ""
4D85  03                 const type 3
4D86  0000803F           const [38]: (0)
4D8A  04                 const type 4
4D8B  0F                 string size (15)
4D8C  4D656E7553756974+  "MenuSuit"
4D94  41766174617200     "Avatar\0"
                         const [39]: "MenuSuitAvatar"
4D9B  01                 const type 3
4D9C  92A8BAB4           const [40]: (-1262835566)
4DA0  04                 const type 4
4DA1  17                 string size (23)
4DA2  657863616C696275+  "excalibu"
4DAA  72556D6272614964+  "rUmbraId"
4DB2  6C65416E696D00     "leAnim\0"
                         const [41]: "excaliburUmbraIdleAnim"
4DB9  01                 const type 3
4DBA  634B1CA8           const [42]: (-1474540701)
4DBE  04                 const type 4
4DBF  0A                 string size (10)
4DC0  535549545F534C4F+  "SUIT_SLO"
4DC8  5400               "T\0"
                         const [43]: "SUIT_SLOT"
4DCA  04                 const type 4
4DCB  08                 string size (8)
4DCC  6D4974656D496400   "mItemId\0"
                         const [44]: "mItemId"
4DD4  01                 const type 3
4DD5  65CEA6D3           const [45]: (-744042907)
4DD9  04                 const type 4
4DDA  0A                 string size (10)
4DDB  6D4974656D547970+  "mItemTyp"
4DE3  6500               "e\0"
                         const [46]: "mItemType"
4DE5  01                 const type 3
4DE6  EA9B566E           const [47]: (1851169770)
4DEA  01                 const type 3
4DEB  F8AFE669           const [48]: (1776726008)
4DEF  01                 const type 3
4DF0  009A1309           const [49]: (152279552)
4DF4  04                 const type 4
4DF5  19                 string size (25)
4DF6  674C6F7475734F70+  "gLotusOp"
4DFE  657261746F724176+  "eratorAv"
4E06  6174617254797065+  "atarType"
4E0E  00                 "\0"
                         const [50]: "gLotusOperatorAvatarType"
4E0F  01                 const type 3
4E10  E57FD1DA           const [51]: (-623804443)
4E14  01                 const type 3
4E15  F7FD5243           const [52]: (1129512439)
4E19  04                 const type 4
4E1A  14                 string size (20)
4E1B  626C6F636B696E67+  "blocking"
4E23  496E70757446696C+  "InputFil"
4E2B  74657200           "ter\0"
                         const [53]: "blockingInputFilter"
4E2F  01                 const type 3
4E30  3F74C2D4           const [54]: (-725453761)
4E34  04                 const type 4
4E35  1D                 string size (29)
4E36  67446F6A6F506C61+  "gDojoPla"
4E3E  636561626C654465+  "ceableDe"
4E46  636F726174696F6E+  "coration"
4E4E  5479706500         "Type\0"
                         const [55]: "gDojoPlaceableDecorationType"
4E53  01                 const type 3
4E54  8DF7702B           const [56]: (728823693)
4E58  04                 const type 4
4E59  0F                 string size (15)
4E5A  6750657441766174+  "gPetAvat"
4E62  61725479706500     "arType\0"
                         const [57]: "gPetAvatarType"
4E69  01                 const type 3
4E6A  0791B063           const [58]: (1672515847)
4E6E  04                 const type 4
4E6F  14                 string size (20)
4E70  5361637269666963+  "Sacrific"
4E78  65417273656E616C+  "eArsenal"
4E80  43696E00           "Cin\0"
                         const [59]: "SacrificeArsenalCin"
4E84  01                 const type 3
4E85  99A4F365           const [60]: (1710466201)
4E89  01                 const type 3
4E8A  B786588D           const [61]: (-1923578185)
4E8E  04                 const type 4
4E8F  0D                 string size (13)
4E90  5374617274506C61+  "StartPla"
4E98  79696E6700         "ying\0"
                         const [62]: "StartPlaying"
4E9D  04                 const type 4
4E9E  08                 string size (8)
4E9F  417273656E616C00   "Arsenal\0"
                         const [63]: "Arsenal"
4EA7  01                 const type 3
4EA8  2F27B12D           const [64]: (766584623)
4EAC  04                 const type 4
4EAD  0B                 string size (11)
4EAE  47656E657469634C+  "GeneticL"
4EB6  616200             "ab\0"
                         const [65]: "GeneticLab"
4EB9  01                 const type 3
4EBA  227362B1           const [66]: (-1318948062)
4EBE  04                 const type 4
4EBF  0C                 string size (12)
4EC0  6D656D6F72794C65+  "memoryLe"
4EC8  76656C00           "vel\0"
                         const [67]: "memoryLevel"
4ECC  01                 const type 3
4ECD  00971C22           const [68]: (572299008)
4ED1  03                 const type 3
4ED2  0000C8C2           const [69]: (0)
4ED6  04                 const type 4
4ED7  0E                 string size (14)
4ED8  5A45524F5F524F54+  "ZERO_ROT"
4EE0  4154494F4E00       "ATION\0"
                         const [70]: "ZERO_ROTATION"
4EE6  03                 const type 3
4EE7  00008040           const [71]: (0)
4EEB  01                 const type 3
4EEC  6CB98BA5           const [72]: (-1517569684)
4EF0  01                 const type 3
4EF1  5208C455           const [73]: (1438910546)
4EF5  04                 const type 4
4EF6  0C                 string size (12)
4EF7  53746172744D656D+  "StartMem"
4EFF  6F727900           "ory\0"
                         const [74]: "StartMemory"
4F03  04                 const type 4
4F04  08                 string size (8)
4F05  4578656375746500   "Execute\0"
                         const [75]: "Execute"
4F0D  04                 const type 4
4F0E  15                 string size (21)
4F0F  556D6272614D656D+  "UmbraMem"
4F17  6F72794163746976+  "oryActiv"
4F1F  6174656400         "ated\0"
                         const [76]: "UmbraMemoryActivated"
4F24  03                 const type 3
4F25  00000041           const [77]: (0)
4F29  01                 const type 3
4F2A  36C033A9           const [78]: (-1456226250)
4F2E  04                 const type 4
4F2F  0C                 string size (12)
4F30  706F737450726F63+  "postProc"
4F38  65737300           "ess\0"
                         const [79]: "postProcess"
4F3C  04                 const type 4
4F3D  05                 string size (5)
4F3E  6661646500         "fade\0"
                         const [80]: "fade"
4F43  01                 const type 3
4F44  A61BE9C5           const [81]: (-974578778)
4F48  01                 const type 3
4F49  0C05CEF8           const [82]: (-120716020)
                         * functions:
4F4D  00                 sizep (0)
                         * lines:
4F4F  03                 sizelineinfo (455)
                         [pc] (line)
4F50  94                 [001] (-108)
4F51  02                 [002] (-108)
4F52  00                 [003] (-106)
4F53  00                 [004] (-106)
4F54  94                 [005] (-106)
4F55  02                 [006] (-106)
4F56  00                 [007] (-106)
4F57  00                 [008] (-106)
4F58  96                 [009] (-106)
4F59  02                 [010] (-104)
4F5A  00                 [011] (-104)
4F5B  00                 [012] (-103)
4F5C  96                 [013] (-103)
4F5D  02                 [014] (-103)
4F5E  00                 [015] (-103)
4F5F  00                 [016] (-103)
4F60  96                 [017] (-103)
4F61  02                 [018] (-101)
4F62  00                 [019] (-101)
4F63  00                 [020] (-101)
4F64  96                 [021] (-101)
4F65  02                 [022] (-100)
4F66  00                 [023] (-100)
4F67  00                 [024] (-100)
4F68  96                 [025] (-100)
4F69  02                 [026] (-97)
4F6A  00                 [027] (-97)
4F6B  00                 [028] (-97)
4F6C  96                 [029] (-97)
4F6D  02                 [030] (-97)
4F6E  00                 [031] (-97)
4F6F  00                 [032] (-96)
4F70  96                 [033] (-96)
4F71  02                 [034] (-96)
4F72  00                 [035] (-96)
4F73  00                 [036] (-96)
4F74  98                 [037] (-96)
4F75  02                 [038] (-96)
4F76  00                 [039] (-96)
4F77  00                 [040] (-94)
4F78  98                 [041] (-90)
4F79  02                 [042] (-90)
4F7A  00                 [043] (-90)
4F7B  00                 [044] (-90)
4F7C  99                 [045] (-89)
4F7D  02                 [046] (-89)
4F7E  00                 [047] (-89)
4F7F  00                 [048] (-87)
4F80  99                 [049] (-87)
4F81  02                 [050] (-87)
4F82  00                 [051] (-87)
4F83  00                 [052] (-87)
4F84  99                 [053] (-87)
4F85  02                 [054] (-87)
4F86  00                 [055] (-87)
4F87  00                 [056] (-86)
4F88  99                 [057] (-86)
4F89  02                 [058] (-85)
4F8A  00                 [059] (-82)
4F8B  00                 [060] (-82)
4F8C  99                 [061] (-82)
4F8D  02                 [062] (-82)
4F8E  00                 [063] (-82)
4F8F  00                 [064] (-81)
4F90  99                 [065] (-81)
4F91  02                 [066] (-81)
4F92  00                 [067] (-81)
4F93  00                 [068] (-81)
4F94  9B                 [069] (-80)
4F95  02                 [070] (-80)
4F96  00                 [071] (-80)
4F97  00                 [072] (-79)
4F98  9B                 [073] (-79)
4F99  02                 [074] (-79)
4F9A  00                 [075] (-79)
4F9B  00                 [076] (-79)
4F9C  9B                 [077] (-78)
4F9D  02                 [078] (-78)
4F9E  00                 [079] (-78)
4F9F  00                 [080] (-77)
4FA0  9B                 [081] (-77)
4FA1  02                 [082] (-77)
4FA2  00                 [083] (-77)
4FA3  00                 [084] (-77)
4FA4  9C                 [085] (-77)
4FA5  02                 [086] (-75)
4FA6  00                 [087] (-75)
4FA7  00                 [088] (-75)
4FA8  9C                 [089] (-75)
4FA9  02                 [090] (-75)
4FAA  00                 [091] (-75)
4FAB  00                 [092] (-75)
4FAC  9C                 [093] (-74)
4FAD  02                 [094] (-74)
4FAE  00                 [095] (-74)
4FAF  00                 [096] (-74)
4FB0  9C                 [097] (-74)
4FB1  02                 [098] (-74)
4FB2  00                 [099] (-74)
4FB3  00                 [100] (-74)
4FB4  9F                 [101] (-74)
4FB5  02                 [102] (-74)
4FB6  00                 [103] (-73)
4FB7  00                 [104] (-73)
4FB8  9F                 [105] (-73)
4FB9  02                 [106] (-72)
4FBA  00                 [107] (-72)
4FBB  00                 [108] (-72)
4FBC  9F                 [109] (-71)
4FBD  02                 [110] (-71)
4FBE  00                 [111] (-71)
4FBF  00                 [112] (-71)
4FC0  9F                 [113] (-70)
4FC1  02                 [114] (-70)
4FC2  00                 [115] (-70)
4FC3  00                 [116] (-69)
4FC4  9F                 [117] (-66)
4FC5  02                 [118] (-65)
4FC6  00                 [119] (-65)
4FC7  00                 [120] (-65)
4FC8  9F                 [121] (-65)
4FC9  02                 [122] (-65)
4FCA  00                 [123] (-65)
4FCB  00                 [124] (-65)
4FCC  A0                 [125] (-65)
4FCD  02                 [126] (-65)
4FCE  00                 [127] (-64)
4FCF  00                 [128] (-64)
4FD0  A0                 [129] (-64)
4FD1  02                 [130] (-63)
4FD2  00                 [131] (-63)
4FD3  00                 [132] (-63)
4FD4  A0                 [133] (-63)
4FD5  02                 [134] (-63)
4FD6  00                 [135] (-62)
4FD7  00                 [136] (-62)
4FD8  A0                 [137] (-62)
4FD9  02                 [138] (-62)
4FDA  00                 [139] (-61)
4FDB  00                 [140] (-61)
4FDC  A0                 [141] (-61)
4FDD  02                 [142] (-60)
4FDE  00                 [143] (-60)
4FDF  00                 [144] (-60)
4FE0  A0                 [145] (-60)
4FE1  02                 [146] (-60)
4FE2  00                 [147] (-60)
4FE3  00                 [148] (-58)
4FE4  A0                 [149] (-58)
4FE5  02                 [150] (-57)
4FE6  00                 [151] (-57)
4FE7  00                 [152] (-57)
4FE8  A0                 [153] (-57)
4FE9  02                 [154] (-57)
4FEA  00                 [155] (-56)
4FEB  00                 [156] (-56)
4FEC  A2                 [157] (-56)
4FED  02                 [158] (-56)
4FEE  00                 [159] (-55)
4FEF  00                 [160] (-55)
4FF0  A6                 [161] (-55)
4FF1  02                 [162] (-55)
4FF2  00                 [163] (-55)
4FF3  00                 [164] (-55)
4FF4  A6                 [165] (-55)
4FF5  02                 [166] (-55)
4FF6  00                 [167] (-55)
4FF7  00                 [168] (-55)
4FF8  A6                 [169] (-55)
4FF9  02                 [170] (-54)
4FFA  00                 [171] (-54)
4FFB  00                 [172] (-53)
4FFC  A6                 [173] (-53)
4FFD  02                 [174] (-52)
4FFE  00                 [175] (-52)
4FFF  00                 [176] (-52)
5000  A7                 [177] (-52)
5001  02                 [178] (-50)
5002  00                 [179] (-50)
5003  00                 [180] (-50)
5004  A7                 [181] (-48)
5005  02                 [182] (-46)
5006  00                 [183] (-44)
5007  00                 [184] (-40)
5008  A7                 [185] (-40)
5009  02                 [186] (-40)
500A  00                 [187] (-40)
500B  00                 [188] (-40)
500C  A9                 [189] (-39)
500D  02                 [190] (-38)
500E  00                 [191] (-38)
500F  00                 [192] (-38)
5010  A9                 [193] (-38)
5011  02                 [194] (-37)
5012  00                 [195] (-36)
5013  00                 [196] (-36)
5014  A9                 [197] (-36)
5015  02                 [198] (-35)
5016  00                 [199] (-35)
5017  00                 [200] (-33)
5018  A9                 [201] (-33)
5019  02                 [202] (-33)
501A  00                 [203] (-33)
501B  00                 [204] (-32)
501C  A9                 [205] (-31)
501D  02                 [206] (-31)
501E  00                 [207] (-31)
501F  00                 [208] (-31)
5020  A9                 [209] (-31)
5021  02                 [210] (-31)
5022  00                 [211] (-31)
5023  00                 [212] (-30)
5024  A9                 [213] (-29)
5025  02                 [214] (-33)
5026  00                 [215] (-25)
5027  00                 [216] (-25)
5028  A9                 [217] (-24)
5029  02                 [218] (-24)
502A  00                 [219] (-24)
502B  00                 [220] (-24)
502C  AA                 [221] (-24)
502D  02                 [222] (-23)
502E  00                 [223] (-23)
502F  00                 [224] (-23)
5030  AA                 [225] (-23)
5031  02                 [226] (-23)
5032  00                 [227] (-23)
5033  00                 [228] (-19)
5034  AB                 [229] (-19)
5035  02                 [230] (-19)
5036  00                 [231] (-19)
5037  00                 [232] (-19)
5038  AE                 [233] (-19)
5039  02                 [234] (-19)
503A  00                 [235] (-19)
503B  00                 [236] (-18)
503C  AE                 [237] (-18)
503D  02                 [238] (-17)
503E  00                 [239] (-14)
503F  00                 [240] (-14)
5040  AE                 [241] (-14)
5041  02                 [242] (-12)
5042  00                 [243] (-12)
5043  00                 [244] (-12)
5044  AE                 [245] (-12)
5045  02                 [246] (-11)
5046  00                 [247] (-11)
5047  00                 [248] (-11)
5048  AE                 [249] (-10)
5049  02                 [250] (-10)
504A  00                 [251] (-10)
504B  00                 [252] (-10)
504C  AF                 [253] (-10)
504D  02                 [254] (-9)
504E  00                 [255] (-9)
504F  00                 [256] (-9)
5050  AF                 [257] (-9)
5051  02                 [258] (-6)
5052  00                 [259] (-6)
5053  00                 [260] (-6)
5054  AF                 [261] (-6)
5055  02                 [262] (-6)
5056  00                 [263] (-6)
5057  00                 [264] (-4)
5058  AF                 [265] (-4)
5059  02                 [266] (-4)
505A  00                 [267] (-4)
505B  00                 [268] (-3)
505C  AF                 [269] (-3)
505D  02                 [270] (-1)
505E  00                 [271] (-1)
505F  00                 [272] (-1)
5060  B0                 [273] (-1)
5061  02                 [274] (0)
5062  00                 [275] (0)
5063  00                 [276] (0)
5064  B0                 [277] (0)
5065  02                 [278] (1)
5066  00                 [279] (2)
5067  00                 [280] (2)
5068  B0                 [281] (2)
5069  02                 [282] (2)
506A  00                 [283] (3)
506B  00                 [284] (3)
506C  B1                 [285] (0)
506D  02                 [286] (7)
506E  00                 [287] (7)
506F  00                 [288] (7)
5070  B1                 [289] (7)
5071  02                 [290] (7)
5072  00                 [291] (7)
5073  00                 [292] (8)
5074  B1                 [293] (8)
5075  02                 [294] (8)
5076  00                 [295] (8)
5077  00                 [296] (12)
5078  B1                 [297] (12)
5079  02                 [298] (12)
507A  00                 [299] (12)
507B  00                 [300] (13)
507C  B1                 [301] (13)
507D  02                 [302] (13)
507E  00                 [303] (13)
507F  00                 [304] (14)
5080  B2                 [305] (14)
5081  02                 [306] (13)
5082  00                 [307] (14)
5083  00                 [308] (17)
5084  B2                 [309] (17)
5085  02                 [310] (17)
5086  00                 [311] (17)
5087  00                 [312] (17)
5088  B2                 [313] (17)
5089  02                 [314] (18)
508A  00                 [315] (18)
508B  00                 [316] (18)
508C  B3                 [317] (18)
508D  02                 [318] (19)
508E  00                 [319] (19)
508F  00                 [320] (19)
5090  B3                 [321] (21)
5091  02                 [322] (21)
5092  00                 [323] (21)
5093  00                 [324] (23)
5094  B3                 [325] (23)
5095  02                 [326] (23)
5096  00                 [327] (23)
5097  00                 [328] (23)
5098  B3                 [329] (23)
5099  02                 [330] (24)
509A  00                 [331] (24)
509B  00                 [332] (25)
509C  B3                 [333] (25)
509D  02                 [334] (25)
509E  00                 [335] (25)
509F  00                 [336] (25)
50A0  B3                 [337] (25)
50A1  02                 [338] (26)
50A2  00                 [339] (26)
50A3  00                 [340] (26)
50A4  B5                 [341] (26)
50A5  02                 [342] (27)
50A6  00                 [343] (27)
50A7  00                 [344] (27)
50A8  B5                 [345] (29)
50A9  02                 [346] (32)
50AA  00                 [347] (32)
50AB  00                 [348] (32)
50AC  B5                 [349] (32)
50AD  02                 [350] (32)
50AE  00                 [351] (32)
50AF  00                 [352] (32)
50B0  B5                 [353] (32)
50B1  02                 [354] (32)
50B2  00                 [355] (32)
50B3  00                 [356] (34)
50B4  B5                 [357] (34)
50B5  02                 [358] (34)
50B6  00                 [359] (35)
50B7  00                 [360] (35)
50B8  B5                 [361] (35)
50B9  02                 [362] (35)
50BA  00                 [363] (35)
50BB  00                 [364] (36)
50BC  B5                 [365] (36)
50BD  02                 [366] (37)
50BE  00                 [367] (37)
50BF  00                 [368] (37)
50C0  B6                 [369] (40)
50C1  02                 [370] (40)
50C2  00                 [371] (40)
50C3  00                 [372] (40)
50C4  B6                 [373] (41)
50C5  02                 [374] (41)
50C6  00                 [375] (41)
50C7  00                 [376] (41)
50C8  B6                 [377] (45)
50C9  02                 [378] (45)
50CA  00                 [379] (45)
50CB  00                 [380] (46)
50CC  B6                 [381] (46)
50CD  02                 [382] (46)
50CE  00                 [383] (50)
50CF  00                 [384] (50)
50D0  B6                 [385] (50)
50D1  02                 [386] (50)
50D2  00                 [387] (50)
50D3  00                 [388] (50)
50D4  B6                 [389] (51)
50D5  02                 [390] (51)
50D6  00                 [391] (51)
50D7  00                 [392] (51)
50D8  B6                 [393] (55)
50D9  02                 [394] (55)
50DA  00                 [395] (55)
50DB  00                 [396] (55)
50DC  B6                 [397] (55)
50DD  02                 [398] (55)
50DE  00                 [399] (56)
50DF  00                 [400] (56)
50E0  B6                 [401] (56)
50E1  02                 [402] (58)
50E2  00                 [403] (58)
50E3  00                 [404] (58)
50E4  B6                 [405] (58)
50E5  02                 [406] (59)
50E6  00                 [407] (59)
50E7  00                 [408] (59)
50E8  B7                 [409] (59)
50E9  02                 [410] (62)
50EA  00                 [411] (62)
50EB  00                 [412] (62)
50EC  B7                 [413] (64)
50ED  02                 [414] (64)
50EE  00                 [415] (65)
50EF  00                 [416] (65)
50F0  B7                 [417] (65)
50F1  02                 [418] (65)
50F2  00                 [419] (65)
50F3  00                 [420] (66)
50F4  B8                 [421] (66)
50F5  02                 [422] (68)
50F6  00                 [423] (68)
50F7  00                 [424] (68)
50F8  B8                 [425] (68)
50F9  02                 [426] (69)
50FA  00                 [427] (69)
50FB  00                 [428] (69)
50FC  B8                 [429] (69)
50FD  02                 [430] (72)
50FE  00                 [431] (72)
50FF  00                 [432] (74)
5100  B9                 [433] (74)
5101  02                 [434] (74)
5102  00                 [435] (74)
5103  00                 [436] (74)
5104  B9                 [437] (75)
5105  02                 [438] (75)
5106  00                 [439] (78)
5107  00                 [440] (78)
5108  B9                 [441] (78)
5109  02                 [442] (80)
510A  00                 [443] (80)
510B  00                 [444] (80)
510C  B9                 [445] (80)
510D  02                 [446] (81)
510E  00                 [447] (81)
510F  00                 [448] (81)
5110  BA                 [449] (81)
5111  02                 [450] (82)
5112  00                 [451] (82)
5113  00                 [452] (82)
5114  BA                 [453] (84)
5115  02                 [454] (84)
5116  00                 [455] (85)
                         * locals:
566C  00                 sizelocvars (0)
                         * upvalues:
566D  00                 sizeupvalues (0)
                         ** end of function **

                         
566E                     ** function [18] definition (level 2)
                         ** start of function **
566E  00                 string size (0)
                         source name: (none)
5670  06                 line defined (855)
5671  E4                 last line defined (868)
5672  06                 nups (1)
5673  01                 numparams (1)
5674  01                 is_vararg (0)
5675  00                 maxstacksize (6)
                         * code:
5677  2E                 sizecode (46)
5678  53000000           [01] getupval   1   0      
567C  97008000           [02] loadbool   2   1   0    ; true
5680  62400001           [03] call       1   2   1  
5684  5D000000           [04] getglobal  1   0        ; _T
5688  4C008080           [05] settable   1   257 0    ; "VitruvianStage"
568C  5D800000           [06] getglobal  1   2        ; gFlashMgr
5690  64C0C000           [07] self       1   1   259  ; 1967690300
5694  DD000100           [08] getglobal  3   4        ; vitruvianMovie
5698  62808001           [09] call       1   3   2  
569C  9D400100           [10] getglobal  2   5        ; 1074689893
56A0  D2008000           [11] move       3   1      
56A4  A2800001           [12] call       2   2   2  
56A8  98400000           [13] test       2       1    ; to [15] if false
56AC  1AC00080           [14] jmp        4            ; to [19]
56B0  9D800100           [15] getglobal  2   6        ; 538022378
56B4  D9C00100           [16] loadk      3   7        ; 0
56B8  A2400001           [17] call       2   2   1  
56BC  1A80FD7F           [18] jmp        -9           ; to [10]
56C0  9D000000           [19] getglobal  2   0        ; _T
56C4  CB000000           [20] newtable   3   0   0    ; array=0, hash=0
56C8  8CC00084           [21] settable   2   264 3    ; "QueuedTransmissions"
56CC  9D800000           [22] getglobal  2   2        ; gFlashMgr
56D0  A4404201           [23] self       2   2   265  ; 1634586770
56D4  1D810200           [24] getglobal  4   10       ; _G
56D8  0EC14202           [25] gettable   4   4   267  ; "UIMovie_TransmissionMovie"
56DC  A2808001           [26] call       2   3   2  
56E0  52000001           [27] move       1   2      
56E4  9D400100           [28] getglobal  2   5        ; 1074689893
56E8  DD000000           [29] getglobal  3   0        ; _T
56EC  CE00C301           [30] gettable   3   3   268  ; "curTransmission"
56F0  A2800001           [31] call       2   2   2  
56F4  98400000           [32] test       2       1    ; to [34] if false
56F8  1A000280           [33] jmp        9            ; to [43]
56FC  9D400100           [34] getglobal  2   5        ; 1074689893
5700  D2008000           [35] move       3   1      
5704  A2800001           [36] call       2   2   2  
5708  98400000           [37] test       2       1    ; to [39] if false
570C  1AC00080           [38] jmp        4            ; to [43]
5710  A440C300           [39] self       2   1   269  ; 1167009705
5714  19810300           [40] loadk      4   14       ; "QueueClose"
5718  59C10300           [41] loadk      5   15       ; ""
571C  A2400002           [42] call       2   4   1  
5720  93000000           [43] getupval   2   0      
5724  D7000000           [44] loadbool   3   0   0    ; false
5728  A2400001           [45] call       2   2   1  
572C  1E008000           [46] return     0   1      
                         * constants:
5730  10                 sizek (16)
5731  04                 const type 4
5732  03                 string size (3)
5733  5F5400             "_T\0"
                         const [0]: "_T"
5736  04                 const type 4
5737  0F                 string size (15)
5738  5669747275766961+  "Vitruvia"
5740  6E537461676500     "nStage\0"
                         const [1]: "VitruvianStage"
5747  04                 const type 4
5748  0A                 string size (10)
5749  67466C6173684D67+  "gFlashMg"
5751  7200               "r\0"
                         const [2]: "gFlashMgr"
5753  01                 const type 3
5754  3C924875           const [3]: (1967690300)
5758  04                 const type 4
5759  0F                 string size (15)
575A  7669747275766961+  "vitruvia"
5762  6E4D6F76696500     "nMovie\0"
                         const [4]: "vitruvianMovie"
5769  01                 const type 3
576A  65770E40           const [5]: (1074689893)
576E  01                 const type 3
576F  EA911120           const [6]: (538022378)
5773  03                 const type 3
5774  00000000           const [7]: (0)
5778  04                 const type 4
5779  14                 string size (20)
577A  5175657565645472+  "QueuedTr"
5782  616E736D69737369+  "ansmissi"
578A  6F6E7300           "ons\0"
                         const [8]: "QueuedTransmissions"
578E  01                 const type 3
578F  92D06D61           const [9]: (1634586770)
5793  04                 const type 4
5794  03                 string size (3)
5795  5F4700             "_G\0"
                         const [10]: "_G"
5798  04                 const type 4
5799  1A                 string size (26)
579A  55494D6F7669655F+  "UIMovie_"
57A2  5472616E736D6973+  "Transmis"
57AA  73696F6E4D6F7669+  "sionMovi"
57B2  6500               "e\0"
                         const [11]: "UIMovie_TransmissionMovie"
57B4  04                 const type 4
57B5  10                 string size (16)
57B6  6375725472616E73+  "curTrans"
57BE  6D697373696F6E00   "mission\0"
                         const [12]: "curTransmission"
57C6  01                 const type 3
57C7  A9278F45           const [13]: (1167009705)
57CB  04                 const type 4
57CC  0B                 string size (11)
57CD  5175657565436C6F+  "QueueClo"
57D5  736500             "se\0"
                         const [14]: "QueueClose"
57D8  04                 const type 4
57D9  01                 string size (0)
                         const [15]: ""
                         * functions:
57DB  00                 sizep (0)
                         * lines:
57DC  2E                 sizelineinfo (46)
                         [pc] (line)
57DD  58                 [01] (88)
57DE  03                 [02] (88)
57DF  00                 [03] (88)
57E0  00                 [04] (89)
57E1  58                 [05] (89)
57E2  03                 [06] (90)
57E3  00                 [07] (90)
57E4  00                 [08] (90)
57E5  58                 [09] (90)
57E6  03                 [10] (91)
57E7  00                 [11] (91)
57E8  00                 [12] (91)
57E9  59                 [13] (91)
57EA  03                 [14] (91)
57EB  00                 [15] (92)
57EC  00                 [16] (92)
57ED  59                 [17] (92)
57EE  03                 [18] (92)
57EF  00                 [19] (94)
57F0  00                 [20] (94)
57F1  5A                 [21] (94)
57F2  03                 [22] (95)
57F3  00                 [23] (95)
57F4  00                 [24] (95)
57F5  5A                 [25] (95)
57F6  03                 [26] (95)
57F7  00                 [27] (95)
57F8  00                 [28] (96)
57F9  5A                 [29] (96)
57FA  03                 [30] (96)
57FB  00                 [31] (96)
57FC  00                 [32] (96)
57FD  5A                 [33] (96)
57FE  03                 [34] (96)
57FF  00                 [35] (96)
5800  00                 [36] (96)
5801  5B                 [37] (96)
5802  03                 [38] (96)
5803  00                 [39] (97)
5804  00                 [40] (97)
5805  5B                 [41] (97)
5806  03                 [42] (97)
5807  00                 [43] (99)
5808  00                 [44] (99)
5809  5B                 [45] (99)
580A  03                 [46] (100)
                         * locals:
5895  00                 sizelocvars (0)
                         * upvalues:
5896  00                 sizeupvalues (0)
                         ** end of function **

                         
5897                     ** function [19] definition (level 2)
                         ** start of function **
5897  00                 string size (0)
                         source name: (none)
5899  06                 line defined (870)
589A  E9                 last line defined (873)
589B  06                 nups (0)
589C  00                 numparams (0)
589D  00                 is_vararg (0)
589E  00                 maxstacksize (4)
                         * code:
58A0  0A                 sizecode (10)
58A1  1D000000           [01] getglobal  0   0        ; 538022378
58A5  59400000           [02] loadk      1   1        ; 0
58A9  22400001           [03] call       0   2   1  
58AD  1D800000           [04] getglobal  0   2        ; _T
58B1  0EC04000           [05] gettable   0   0   259  ; "BackgroundMovie"
58B5  24004100           [06] self       0   0   260  ; 1167009705
58B9  99400100           [07] loadk      2   5        ; "RefreshShipDecos"
58BD  D9800100           [08] loadk      3   6        ; ""
58C1  22400002           [09] call       0   4   1  
58C5  1E008000           [10] return     0   1      
                         * constants:
58C9  07                 sizek (7)
58CA  01                 const type 3
58CB  EA911120           const [0]: (538022378)
58CF  03                 const type 3
58D0  00004040           const [1]: (0)
58D4  04                 const type 4
58D5  03                 string size (3)
58D6  5F5400             "_T\0"
                         const [2]: "_T"
58D9  04                 const type 4
58DA  10                 string size (16)
58DB  4261636B67726F75+  "Backgrou"
58E3  6E644D6F76696500   "ndMovie\0"
                         const [3]: "BackgroundMovie"
58EB  01                 const type 3
58EC  A9278F45           const [4]: (1167009705)
58F0  04                 const type 4
58F1  11                 string size (17)
58F2  5265667265736853+  "RefreshS"
58FA  6869704465636F73+  "hipDecos"
5902  00                 "\0"
                         const [5]: "RefreshShipDecos"
5903  04                 const type 4
5904  01                 string size (0)
                         const [6]: ""
                         * functions:
5906  00                 sizep (0)
                         * lines:
5907  0A                 sizelineinfo (10)
                         [pc] (line)
5908  67                 [01] (103)
5909  03                 [02] (103)
590A  00                 [03] (103)
590B  00                 [04] (104)
590C  67                 [05] (104)
590D  03                 [06] (104)
590E  00                 [07] (104)
590F  00                 [08] (104)
5910  67                 [09] (104)
5911  03                 [10] (105)
                         * locals:
5930  00                 sizelocvars (0)
                         * upvalues:
5931  00                 sizeupvalues (0)
                         ** end of function **

                         
5932                     ** function [20] definition (level 2)
                         ** start of function **
5932  00                 string size (0)
                         source name: (none)
5934  06                 line defined (875)
5935  92                 last line defined (914)
5936  07                 nups (5)
5937  05                 numparams (0)
5938  00                 is_vararg (0)
5939  00                 maxstacksize (12)
                         * code:
593B  7B                 sizecode (123)
593C  1D000000           [001] getglobal  0   0        ; gRegion
5940  24404000           [002] self       0   0   257  ; 65205951
5944  22800001           [003] call       0   2   2  
5948  64804000           [004] self       1   0   258  ; 1265388858
594C  DDC00000           [005] getglobal  3   3        ; blockingInputFilter
5950  62408001           [006] call       1   3   1  
5954  64004100           [007] self       1   0   260  ; -1957065004
5958  DD400100           [008] getglobal  3   5        ; gLotusOperatorAvatarType
595C  62808001           [009] call       1   3   2  
5960  58400000           [010] test       1       1    ; to [12] if false
5964  1AC00380           [011] jmp        16           ; to [28]
5968  5D800100           [012] getglobal  1   6        ; _T
596C  4C00C283           [013] settable   1   263 264  ; "HideTransferenceFx" 1
5970  64404200           [014] self       1   0   265  ; -521198746
5974  62400001           [015] call       1   2   1  
5978  5D800200           [016] getglobal  1   10       ; 538022378
597C  99C00200           [017] loadk      2   11       ; 0
5980  62400001           [018] call       1   2   1  
5984  5D000000           [019] getglobal  1   0        ; gRegion
5988  6440C000           [020] self       1   1   257  ; 65205951
598C  62800001           [021] call       1   2   2  
5990  12008000           [022] move       0   1      
5994  64004100           [023] self       1   0   260  ; -1957065004
5998  DD400100           [024] getglobal  3   5        ; gLotusOperatorAvatarType
599C  62808001           [025] call       1   3   2  
59A0  58000000           [026] test       1       0    ; to [28] if true
59A4  1AC0FC7F           [027] jmp        -12          ; to [16]
59A8  5D000000           [028] getglobal  1   0        ; gRegion
59AC  6400C300           [029] self       1   1   268  ; -1875307917
59B0  DD400300           [030] getglobal  3   13       ; -332969190
59B4  19810300           [031] loadk      4   14       ; "SacrificeMemoryWakeUp"
59B8  E2000001           [032] call       3   2   0  
59BC  62800000           [033] call       1   0   2  
59C0  A4C0C300           [034] self       2   1   271  ; 196800914
59C4  A2800001           [035] call       2   2   2  
59C8  E400C400           [036] self       3   1   272  ; 54877834
59CC  E2800001           [037] call       3   2   2  
59D0  24414400           [038] self       4   0   273  ; 970454089
59D4  92010001           [039] move       6   2      
59D8  D2018001           [040] move       7   3      
59DC  22410002           [041] call       4   4   1  
59E0  24814400           [042] self       4   0   274  ; 1292478819
59E4  22810001           [043] call       4   2   2  
59E8  24C14402           [044] self       4   4   275  ; 1417583104
59EC  92018001           [045] move       6   3      
59F0  22418001           [046] call       4   3   1  
59F4  24014500           [047] self       4   0   276  ; 1998801764
59F8  9D410500           [048] getglobal  6   21       ; -1359160945
59FC  D2018001           [049] move       7   3      
5A00  1D820500           [050] getglobal  8   22       ; 508519041
5A04  59C20500           [051] loadk      9   23       ; 0
5A08  99C20200           [052] loadk      10  11       ; 0
5A0C  D9C20200           [053] loadk      11  11       ; 0
5A10  22020002           [054] call       8   4   0  
5A14  A2010000           [055] call       6   0   0  
5A18  22410000           [056] call       4   0   1  
5A1C  1D010000           [057] getglobal  4   0        ; gRegion
5A20  24014302           [058] self       4   4   268  ; -1875307917
5A24  9D410300           [059] getglobal  6   13       ; -332969190
5A28  D9010600           [060] loadk      7   24       ; "SacrificeWakeUpCin"
5A2C  A2010001           [061] call       6   2   0  
5A30  22810000           [062] call       4   0   2  
5A34  5D410600           [063] getglobal  5   25       ; 1074689893
5A38  92010002           [064] move       6   4      
5A3C  62810001           [065] call       5   2   2  
5A40  58410000           [066] test       5       1    ; to [68] if false
5A44  1A800180           [067] jmp        7            ; to [75]
5A48  64814602           [068] self       5   4   282  ; 1710466201
5A4C  D3010000           [069] getupval   7   0      
5A50  E2018000           [070] call       7   1   0  
5A54  62410000           [071] call       5   0   1  
5A58  64C14602           [072] self       5   4   283  ; -1923578185
5A5C  D9010700           [073] loadk      7   28       ; "StartPlaying"
5A60  62418001           [074] call       5   3   1  
5A64  5D810100           [075] getglobal  5   6        ; _T
5A68  4C41C783           [076] settable   5   263 285  ; "HideTransferenceFx" nil
5A6C  5D410600           [077] getglobal  5   25       ; 1074689893
5A70  92010002           [078] move       6   4      
5A74  62810001           [079] call       5   2   2  
5A78  58410000           [080] test       5       1    ; to [82] if false
5A7C  1AC00180           [081] jmp        8            ; to [90]
5A80  64814702           [082] self       5   4   286  ; 1438910546
5A84  62810001           [083] call       5   2   2  
5A88  58010000           [084] test       5       0    ; to [86] if true
5A8C  1AC00080           [085] jmp        4            ; to [90]
5A90  5D810200           [086] getglobal  5   10       ; 538022378
5A94  99C10200           [087] loadk      6   11       ; 0
5A98  62410001           [088] call       5   2   1  
5A9C  1A80FC7F           [089] jmp        -13          ; to [77]
5AA0  64C14700           [090] self       5   0   287  ; -1302048094
5AA4  DD410300           [091] getglobal  7   13       ; -332969190
5AA8  19020800           [092] loadk      8   32       ; "RefreshShipDecosAfterDelay"
5AAC  E2810001           [093] call       7   2   2  
5AB0  17020000           [094] loadbool   8   0   0    ; false
5AB4  62410002           [095] call       5   4   1  
5AB8  53018000           [096] getupval   5   1      
5ABC  99410800           [097] loadk      6   33       ; 0
5AC0  62410001           [098] call       5   2   1  
5AC4  53010001           [099] getupval   5   2      
5AC8  4E81C802           [100] gettable   5   5   290  ; 910246418
5ACC  93018001           [101] getupval   6   3      
5AD0  A2818000           [102] call       6   1   2  
5AD4  A4C14803           [103] self       6   6   291  ; -781703361
5AD8  1D420300           [104] getglobal  8   13       ; -332969190
5ADC  59020900           [105] loadk      9   36       ; "DSacPartTwoVitruvian1410OperatorVoice"
5AE0  22020001           [106] call       8   2   0  
5AE4  A2010000           [107] call       6   0   0  
5AE8  62410000           [108] call       5   0   1  
5AEC  5D810200           [109] getglobal  5   10       ; 538022378
5AF0  99C10200           [110] loadk      6   11       ; 0
5AF4  62410001           [111] call       5   2   1  
5AF8  53010001           [112] getupval   5   2      
5AFC  4E81C802           [113] gettable   5   5   290  ; 910246418
5B00  9D410900           [114] getglobal  6   37       ; transmissionSet
5B04  A4C14803           [115] self       6   6   291  ; -781703361
5B08  1D420300           [116] getglobal  8   13       ; -332969190
5B0C  59820900           [117] loadk      9   38       ; "VitruvianStage1_Ordis3"
5B10  22020001           [118] call       8   2   0  
5B14  A2010000           [119] call       6   0   0  
5B18  62410000           [120] call       5   0   1  
5B1C  53010002           [121] getupval   5   4      
5B20  62418000           [122] call       5   1   1  
5B24  1E008000           [123] return     0   1      
                         * constants:
5B28  27                 sizek (39)
5B29  04                 const type 4
5B2A  08                 string size (8)
5B2B  67526567696F6E00   "gRegion\0"
                         const [0]: "gRegion"
5B33  01                 const type 3
5B34  BFF6E203           const [1]: (65205951)
5B38  01                 const type 3
5B39  3A4D6C4B           const [2]: (1265388858)
5B3D  04                 const type 4
5B3E  14                 string size (20)
5B3F  626C6F636B696E67+  "blocking"
5B47  496E70757446696C+  "InputFil"
5B4F  74657200           "ter\0"
                         const [3]: "blockingInputFilter"
5B53  01                 const type 3
5B54  D48E598B           const [4]: (-1957065004)
5B58  04                 const type 4
5B59  19                 string size (25)
5B5A  674C6F7475734F70+  "gLotusOp"
5B62  657261746F724176+  "eratorAv"
5B6A  6174617254797065+  "atarType"
5B72  00                 "\0"
                         const [5]: "gLotusOperatorAvatarType"
5B73  04                 const type 4
5B74  03                 string size (3)
5B75  5F5400             "_T\0"
                         const [6]: "_T"
5B78  04                 const type 4
5B79  13                 string size (19)
5B7A  486964655472616E+  "HideTran"
5B82  73666572656E6365+  "sference"
5B8A  467800             "Fx\0"
                         const [7]: "HideTransferenceFx"
5B8D  01                 const type 3
5B8E  01000000           const [8]: (1)
5B92  01                 const type 3
5B93  6623EFE0           const [9]: (-521198746)
5B97  01                 const type 3
5B98  EA911120           const [10]: (538022378)
5B9C  03                 const type 3
5B9D  00000000           const [11]: (0)
5BA1  01                 const type 3
5BA2  73123990           const [12]: (-1875307917)
5BA6  01                 const type 3
5BA7  1A4B27EC           const [13]: (-332969190)
5BAB  04                 const type 4
5BAC  16                 string size (22)
5BAD  5361637269666963+  "Sacrific"
5BB5  654D656D6F727957+  "eMemoryW"
5BBD  616B65557000       "akeUp\0"
                         const [14]: "SacrificeMemoryWakeUp"
5BC3  01                 const type 3
5BC4  92F1BA0B           const [15]: (196800914)
5BC8  01                 const type 3
5BC9  8A5E4503           const [16]: (54877834)
5BCD  01                 const type 3
5BCE  49F4D739           const [17]: (970454089)
5BD2  01                 const type 3
5BD3  63A9094D           const [18]: (1292478819)
5BD7  01                 const type 3
5BD8  009A7E54           const [19]: (1417583104)
5BDC  01                 const type 3
5BDD  644B2377           const [20]: (1998801764)
5BE1  01                 const type 3
5BE2  8FD9FCAE           const [21]: (-1359160945)
5BE6  01                 const type 3
5BE7  81624F1E           const [22]: (508519041)
5BEB  03                 const type 3
5BEC  0000B442           const [23]: (0)
5BF0  04                 const type 4
5BF1  13                 string size (19)
5BF2  5361637269666963+  "Sacrific"
5BFA  6557616B65557043+  "eWakeUpC"
5C02  696E00             "in\0"
                         const [24]: "SacrificeWakeUpCin"
5C05  01                 const type 3
5C06  65770E40           const [25]: (1074689893)
5C0A  01                 const type 3
5C0B  99A4F365           const [26]: (1710466201)
5C0F  01                 const type 3
5C10  B786588D           const [27]: (-1923578185)
5C14  04                 const type 4
5C15  0D                 string size (13)
5C16  5374617274506C61+  "StartPla"
5C1E  79696E6700         "ying\0"
                         const [28]: "StartPlaying"
5C23  00                 const type 0
                         const [29]: nil
5C24  01                 const type 3
5C25  5208C455           const [30]: (1438910546)
5C29  01                 const type 3
5C2A  A25264B2           const [31]: (-1302048094)
5C2E  04                 const type 4
5C2F  1B                 string size (27)
5C30  5265667265736853+  "RefreshS"
5C38  6869704465636F73+  "hipDecos"
5C40  416674657244656C+  "AfterDel"
5C48  617900             "ay\0"
                         const [32]: "RefreshShipDecosAfterDelay"
5C4B  03                 const type 3
5C4C  00000040           const [33]: (0)
5C50  01                 const type 3
5C51  12424136           const [34]: (910246418)
5C55  01                 const type 3
5C56  3F2768D1           const [35]: (-781703361)
5C5A  04                 const type 4
5C5B  26                 string size (38)
5C5C  4453616350617274+  "DSacPart"
5C64  54776F5669747275+  "TwoVitru"
5C6C  7669616E31343130+  "vian1410"
5C74  4F70657261746F72+  "Operator"
5C7C  566F69636500       "Voice\0"
                         const [36]: "DSacPartTwoVitruvian1410OperatorVoice"
5C82  04                 const type 4
5C83  10                 string size (16)
5C84  7472616E736D6973+  "transmis"
5C8C  73696F6E53657400   "sionSet\0"
                         const [37]: "transmissionSet"
5C94  04                 const type 4
5C95  17                 string size (23)
5C96  5669747275766961+  "Vitruvia"
5C9E  6E5374616765315F+  "nStage1_"
5CA6  4F726469733300     "Ordis3\0"
                         const [38]: "VitruvianStage1_Ordis3"
                         * functions:
5CAD  00                 sizep (0)
                         * lines:
5CAE  7B                 sizelineinfo (123)
                         [pc] (line)
5CAF  6C                 [001] (108)
5CB0  03                 [002] (108)
5CB1  00                 [003] (108)
5CB2  00                 [004] (109)
5CB3  6C                 [005] (109)
5CB4  03                 [006] (109)
5CB5  00                 [007] (110)
5CB6  00                 [008] (110)
5CB7  6C                 [009] (110)
5CB8  03                 [010] (110)
5CB9  00                 [011] (110)
5CBA  00                 [012] (111)
5CBB  6D                 [013] (111)
5CBC  03                 [014] (112)
5CBD  00                 [015] (112)
5CBE  00                 [016] (115)
5CBF  6D                 [017] (115)
5CC0  03                 [018] (115)
5CC1  00                 [019] (116)
5CC2  00                 [020] (116)
5CC3  6D                 [021] (116)
5CC4  03                 [022] (116)
5CC5  00                 [023] (117)
5CC6  00                 [024] (117)
5CC7  6E                 [025] (117)
5CC8  03                 [026] (117)
5CC9  00                 [027] (117)
5CCA  00                 [028] (120)
5CCB  6E                 [029] (120)
5CCC  03                 [030] (120)
5CCD  00                 [031] (120)
5CCE  00                 [032] (120)
5CCF  6E                 [033] (120)
5CD0  03                 [034] (121)
5CD1  00                 [035] (121)
5CD2  00                 [036] (121)
5CD3  6E                 [037] (121)
5CD4  03                 [038] (123)
5CD5  00                 [039] (123)
5CD6  00                 [040] (123)
5CD7  6E                 [041] (123)
5CD8  03                 [042] (124)
5CD9  00                 [043] (124)
5CDA  00                 [044] (124)
5CDB  6F                 [045] (124)
5CDC  03                 [046] (124)
5CDD  00                 [047] (125)
5CDE  00                 [048] (125)
5CDF  6F                 [049] (125)
5CE0  03                 [050] (125)
5CE1  00                 [051] (125)
5CE2  00                 [052] (125)
5CE3  70                 [053] (125)
5CE4  03                 [054] (125)
5CE5  00                 [055] (125)
5CE6  00                 [056] (125)
5CE7  70                 [057] (127)
5CE8  03                 [058] (127)
5CE9  00                 [059] (127)
5CEA  00                 [060] (127)
5CEB  73                 [061] (127)
5CEC  03                 [062] (127)
5CED  00                 [063] (-128)
5CEE  00                 [064] (-128)
5CEF  73                 [065] (-128)
5CF0  03                 [066] (-128)
5CF1  00                 [067] (-128)
5CF2  00                 [068] (-127)
5CF3  73                 [069] (-127)
5CF4  03                 [070] (-127)
5CF5  00                 [071] (-127)
5CF6  00                 [072] (-126)
5CF7  74                 [073] (-126)
5CF8  03                 [074] (-126)
5CF9  00                 [075] (-123)
5CFA  00                 [076] (-123)
5CFB  74                 [077] (-121)
5CFC  03                 [078] (-121)
5CFD  00                 [079] (-121)
5CFE  00                 [080] (-121)
5CFF  74                 [081] (-121)
5D00  03                 [082] (-121)
5D01  00                 [083] (-121)
5D02  00                 [084] (-121)
5D03  74                 [085] (-121)
5D04  03                 [086] (-120)
5D05  00                 [087] (-120)
5D06  00                 [088] (-120)
5D07  75                 [089] (-120)
5D08  03                 [090] (-117)
5D09  00                 [091] (-117)
5D0A  00                 [092] (-117)
5D0B  75                 [093] (-117)
5D0C  03                 [094] (-117)
5D0D  00                 [095] (-117)
5D0E  00                 [096] (-116)
5D0F  75                 [097] (-116)
5D10  03                 [098] (-116)
5D11  00                 [099] (-114)
5D12  00                 [100] (-114)
5D13  75                 [101] (-114)
5D14  03                 [102] (-114)
5D15  00                 [103] (-114)
5D16  00                 [104] (-114)
5D17  75                 [105] (-114)
5D18  03                 [106] (-114)
5D19  00                 [107] (-114)
5D1A  00                 [108] (-114)
5D1B  78                 [109] (-113)
5D1C  03                 [110] (-113)
5D1D  00                 [111] (-113)
5D1E  00                 [112] (-112)
5D1F  78                 [113] (-112)
5D20  03                 [114] (-112)
5D21  00                 [115] (-112)
5D22  00                 [116] (-112)
5D23  78                 [117] (-112)
5D24  03                 [118] (-112)
5D25  00                 [119] (-112)
5D26  00                 [120] (-112)
5D27  78                 [121] (-111)
5D28  03                 [122] (-111)
5D29  00                 [123] (-110)
                         * locals:
5E9B  00                 sizelocvars (0)
                         * upvalues:
5E9C  00                 sizeupvalues (0)
                         ** end of function **

                         
5E9D                     ** function [21] definition (level 2)
                         ** start of function **
5E9D  00                 string size (0)
                         source name: (none)
5E9F  07                 line defined (916)
5EA0  B3                 last line defined (947)
5EA1  07                 nups (6)
5EA2  06                 numparams (0)
5EA3  00                 is_vararg (0)
5EA4  00                 maxstacksize (6)
                         * code:
5EA6  6A                 sizecode (106)
5EA7  13000000           [001] getupval   0   0      
5EAB  22408000           [002] call       0   1   1  
5EAF  13008000           [003] getupval   0   1      
5EB3  59000000           [004] loadk      1   0        ; 0
5EB7  22400001           [005] call       0   2   1  
5EBB  13000001           [006] getupval   0   2      
5EBF  22808000           [007] call       0   1   2  
5EC3  53008001           [008] getupval   1   3      
5EC7  4E40C000           [009] gettable   1   1   257  ; 910246418
5ECB  9D800000           [010] getglobal  2   2        ; transmissionSet
5ECF  A4C04001           [011] self       2   2   259  ; -781703361
5ED3  1D010100           [012] getglobal  4   4        ; -332969190
5ED7  59410100           [013] loadk      5   5        ; "VitruvianStage2_Ordis1"
5EDB  22010001           [014] call       4   2   0  
5EDF  A2000000           [015] call       2   0   0  
5EE3  62400000           [016] call       1   0   1  
5EE7  53000002           [017] getupval   1   4      
5EEB  62408000           [018] call       1   1   1  
5EEF  5D800100           [019] getglobal  1   6        ; gRegion
5EF3  64C0C100           [020] self       1   1   263  ; 630793108
5EF7  DD000200           [021] getglobal  3   8        ; lightsFlickerSound
5EFB  1D410200           [022] getglobal  4   9        ; ZERO_VECTOR
5EFF  57010000           [023] loadbool   5   0   0    ; false
5F03  62408002           [024] call       1   5   1  
5F07  5D800200           [025] getglobal  1   10       ; _T
5F0B  4EC0C200           [026] gettable   1   1   267  ; 127414788
5F0F  99000300           [027] loadk      2   12       ; -51
5F13  D9400300           [028] loadk      3   13       ; -51
5F17  19810300           [029] loadk      4   14       ; -102
5F1B  62400002           [030] call       1   4   1  
5F1F  5D800200           [031] getglobal  1   10       ; _T
5F23  4EC0C200           [032] gettable   1   1   267  ; 127414788
5F27  99400300           [033] loadk      2   13       ; -51
5F2B  D9000300           [034] loadk      3   12       ; -51
5F2F  19010300           [035] loadk      4   12       ; -51
5F33  62400002           [036] call       1   4   1  
5F37  5D800200           [037] getglobal  1   10       ; _T
5F3B  4EC0C200           [038] gettable   1   1   267  ; 127414788
5F3F  99C00300           [039] loadk      2   15       ; 111
5F43  D9000300           [040] loadk      3   12       ; -51
5F47  19010400           [041] loadk      4   16       ; 0
5F4B  62400002           [042] call       1   4   1  
5F4F  5D400400           [043] getglobal  1   17       ; 538022378
5F53  99800400           [044] loadk      2   18       ; 0
5F57  62400001           [045] call       1   2   1  
5F5B  5D800200           [046] getglobal  1   10       ; _T
5F5F  4EC0C200           [047] gettable   1   1   267  ; 127414788
5F63  99000300           [048] loadk      2   12       ; -51
5F67  D9000300           [049] loadk      3   12       ; -51
5F6B  19010400           [050] loadk      4   16       ; 0
5F6F  62400002           [051] call       1   4   1  
5F73  5D800200           [052] getglobal  1   10       ; _T
5F77  4EC0C200           [053] gettable   1   1   267  ; 127414788
5F7B  99000300           [054] loadk      2   12       ; -51
5F7F  D9000400           [055] loadk      3   16       ; 0
5F83  19810300           [056] loadk      4   14       ; -102
5F87  62400002           [057] call       1   4   1  
5F8B  5D800200           [058] getglobal  1   10       ; _T
5F8F  4EC0C200           [059] gettable   1   1   267  ; 127414788
5F93  99400300           [060] loadk      2   13       ; -51
5F97  D9C00400           [061] loadk      3   19       ; -51
5F9B  19010500           [062] loadk      4   20       ; 0
5F9F  62400002           [063] call       1   4   1  
5FA3  5D800200           [064] getglobal  1   10       ; _T
5FA7  4EC0C200           [065] gettable   1   1   267  ; 127414788
5FAB  99000300           [066] loadk      2   12       ; -51
5FAF  D9C00400           [067] loadk      3   19       ; -51
5FB3  19010300           [068] loadk      4   12       ; -51
5FB7  62400002           [069] call       1   4   1  
5FBB  5D800200           [070] getglobal  1   10       ; _T
5FBF  4EC0C200           [071] gettable   1   1   267  ; 127414788
5FC3  99000500           [072] loadk      2   20       ; 0
5FC7  D9000300           [073] loadk      3   12       ; -51
5FCB  19010400           [074] loadk      4   16       ; 0
5FCF  62400002           [075] call       1   4   1  
5FD3  5D800200           [076] getglobal  1   10       ; _T
5FD7  4EC0C200           [077] gettable   1   1   267  ; 127414788
5FDB  99800400           [078] loadk      2   18       ; 0
5FDF  D9000300           [079] loadk      3   12       ; -51
5FE3  19810400           [080] loadk      4   18       ; 0
5FE7  62400002           [081] call       1   4   1  
5FEB  53008001           [082] getupval   1   3      
5FEF  4E40C000           [083] gettable   1   1   257  ; 910246418
5FF3  9D800000           [084] getglobal  2   2        ; transmissionSet
5FF7  A4C04001           [085] self       2   2   259  ; -781703361
5FFB  1D010100           [086] getglobal  4   4        ; -332969190
5FFF  59410500           [087] loadk      5   21       ; "VitruvianStage2_Ordis2"
6003  22010001           [088] call       4   2   0  
6007  A2000000           [089] call       2   0   0  
600B  62400000           [090] call       1   0   1  
600F  5D400400           [091] getglobal  1   17       ; 538022378
6013  99000400           [092] loadk      2   16       ; 0
6017  62400001           [093] call       1   2   1  
601B  53008001           [094] getupval   1   3      
601F  4E40C000           [095] gettable   1   1   257  ; 910246418
6023  A4C04000           [096] self       2   0   259  ; -781703361
6027  1D010100           [097] getglobal  4   4        ; -332969190
602B  59810500           [098] loadk      5   22       ; "DSacMThreeVitruvian1780OperatorVoice"
602F  22010001           [099] call       4   2   0  
6033  A2000000           [100] call       2   0   0  
6037  62400000           [101] call       1   0   1  
603B  53000002           [102] getupval   1   4      
603F  62408000           [103] call       1   1   1  
6043  53008002           [104] getupval   1   5      
6047  62408000           [105] call       1   1   1  
604B  1E008000           [106] return     0   1      
                         * constants:
604F  17                 sizek (23)
6050  03                 const type 3
6051  00004040           const [0]: (0)
6055  01                 const type 3
6056  12424136           const [1]: (910246418)
605A  04                 const type 4
605B  10                 string size (16)
605C  7472616E736D6973+  "transmis"
6064  73696F6E53657400   "sionSet\0"
                         const [2]: "transmissionSet"
606C  01                 const type 3
606D  3F2768D1           const [3]: (-781703361)
6071  01                 const type 3
6072  1A4B27EC           const [4]: (-332969190)
6076  04                 const type 4
6077  17                 string size (23)
6078  5669747275766961+  "Vitruvia"
6080  6E5374616765325F+  "nStage2_"
6088  4F726469733100     "Ordis1\0"
                         const [5]: "VitruvianStage2_Ordis1"
608F  04                 const type 4
6090  08                 string size (8)
6091  67526567696F6E00   "gRegion\0"
                         const [6]: "gRegion"
6099  01                 const type 3
609A  94239925           const [7]: (630793108)
609E  04                 const type 4
609F  13                 string size (19)
60A0  6C6967687473466C+  "lightsFl"
60A8  69636B6572536F75+  "ickerSou"
60B0  6E6400             "nd\0"
                         const [8]: "lightsFlickerSound"
60B3  04                 const type 4
60B4  0C                 string size (12)
60B5  5A45524F5F564543+  "ZERO_VEC"
60BD  544F5200           "TOR\0"
                         const [9]: "ZERO_VECTOR"
60C1  04                 const type 4
60C2  03                 string size (3)
60C3  5F5400             "_T\0"
                         const [10]: "_T"
60C6  01                 const type 3
60C7  04329807           const [11]: (127414788)
60CB  03                 const type 3
60CC  CDCCCC3D           const [12]: (-51)
60D0  03                 const type 3
60D1  CDCC4C3E           const [13]: (-51)
60D5  03                 const type 3
60D6  9A99993E           const [14]: (-102)
60DA  03                 const type 3
60DB  6F12833A           const [15]: (111)
60DF  03                 const type 3
60E0  00000000           const [16]: (0)
60E4  01                 const type 3
60E5  EA911120           const [17]: (538022378)
60E9  03                 const type 3
60EA  0000803F           const [18]: (0)
60EE  03                 const type 3
60EF  CDCCCC3C           const [19]: (-51)
60F3  03                 const type 3
60F4  0000003F           const [20]: (0)
60F8  04                 const type 4
60F9  17                 string size (23)
60FA  5669747275766961+  "Vitruvia"
6102  6E5374616765325F+  "nStage2_"
610A  4F726469733200     "Ordis2\0"
                         const [21]: "VitruvianStage2_Ordis2"
6111  04                 const type 4
6112  25                 string size (37)
6113  445361634D546872+  "DSacMThr"
611B  6565566974727576+  "eeVitruv"
6123  69616E313738304F+  "ian1780O"
612B  70657261746F7256+  "peratorV"
6133  6F69636500         "oice\0"
                         const [22]: "DSacMThreeVitruvian1780OperatorVoice"
                         * functions:
6138  00                 sizep (0)
                         * lines:
6139  6A                 sizelineinfo (106)
                         [pc] (line)
613A  95                 [001] (-107)
613B  03                 [002] (-107)
613C  00                 [003] (-105)
613D  00                 [004] (-105)
613E  95                 [005] (-105)
613F  03                 [006] (-103)
6140  00                 [007] (-103)
6141  00                 [008] (-101)
6142  97                 [009] (-101)
6143  03                 [010] (-101)
6144  00                 [011] (-101)
6145  00                 [012] (-101)
6146  97                 [013] (-101)
6147  03                 [014] (-101)
6148  00                 [015] (-101)
6149  00                 [016] (-101)
614A  97                 [017] (-100)
614B  03                 [018] (-100)
614C  00                 [019] (-97)
614D  00                 [020] (-97)
614E  99                 [021] (-97)
614F  03                 [022] (-97)
6150  00                 [023] (-97)
6151  00                 [024] (-97)
6152  99                 [025] (-96)
6153  03                 [026] (-96)
6154  00                 [027] (-96)
6155  00                 [028] (-96)
6156  9B                 [029] (-96)
6157  03                 [030] (-96)
6158  00                 [031] (-95)
6159  00                 [032] (-95)
615A  9B                 [033] (-95)
615B  03                 [034] (-95)
615C  00                 [035] (-95)
615D  00                 [036] (-95)
615E  9B                 [037] (-94)
615F  03                 [038] (-94)
6160  00                 [039] (-94)
6161  00                 [040] (-94)
6162  9B                 [041] (-94)
6163  03                 [042] (-94)
6164  00                 [043] (-92)
6165  00                 [044] (-92)
6166  9B                 [045] (-92)
6167  03                 [046] (-90)
6168  00                 [047] (-90)
6169  00                 [048] (-90)
616A  9B                 [049] (-90)
616B  03                 [050] (-90)
616C  00                 [051] (-90)
616D  00                 [052] (-89)
616E  9B                 [053] (-89)
616F  03                 [054] (-89)
6170  00                 [055] (-89)
6171  00                 [056] (-89)
6172  9B                 [057] (-89)
6173  03                 [058] (-88)
6174  00                 [059] (-88)
6175  00                 [060] (-88)
6176  9B                 [061] (-88)
6177  03                 [062] (-88)
6178  00                 [063] (-88)
6179  00                 [064] (-87)
617A  9C                 [065] (-87)
617B  03                 [066] (-87)
617C  00                 [067] (-87)
617D  00                 [068] (-87)
617E  9C                 [069] (-87)
617F  03                 [070] (-86)
6180  00                 [071] (-86)
6181  00                 [072] (-86)
6182  9F                 [073] (-86)
6183  03                 [074] (-86)
6184  00                 [075] (-86)
6185  00                 [076] (-85)
6186  9F                 [077] (-85)
6187  03                 [078] (-85)
6188  00                 [079] (-85)
6189  00                 [080] (-85)
618A  9F                 [081] (-85)
618B  03                 [082] (-83)
618C  00                 [083] (-83)
618D  00                 [084] (-83)
618E  9F                 [085] (-83)
618F  03                 [086] (-83)
6190  00                 [087] (-83)
6191  00                 [088] (-83)
6192  9F                 [089] (-83)
6193  03                 [090] (-83)
6194  00                 [091] (-82)
6195  00                 [092] (-82)
6196  9F                 [093] (-82)
6197  03                 [094] (-81)
6198  00                 [095] (-81)
6199  00                 [096] (-81)
619A  A0                 [097] (-81)
619B  03                 [098] (-81)
619C  00                 [099] (-81)
619D  00                 [100] (-81)
619E  A0                 [101] (-81)
619F  03                 [102] (-80)
61A0  00                 [103] (-80)
61A1  00                 [104] (-78)
61A2  A0                 [105] (-78)
61A3  03                 [106] (-77)
                         * locals:
62E2  00                 sizelocvars (0)
                         * upvalues:
62E3  00                 sizeupvalues (0)
                         ** end of function **

                         
62E4                     ** function [22] definition (level 2)
                         ** start of function **
62E4  00                 string size (0)
                         source name: (none)
62E6  07                 line defined (949)
62E7  BE                 last line defined (958)
62E8  07                 nups (0)
62E9  00                 numparams (1)
62EA  01                 is_vararg (0)
62EB  00                 maxstacksize (7)
                         * code:
62ED  1C                 sizecode (28)
62EE  5D000000           [01] getglobal  1   0        ; 538022378
62F2  99400000           [02] loadk      2   1        ; 0
62F6  62400001           [03] call       1   2   1  
62FA  5D800000           [04] getglobal  1   2        ; gRegion
62FE  64C0C000           [05] self       1   1   259  ; -1875307917
6302  DD000100           [06] getglobal  3   4        ; -332969190
6306  19410100           [07] loadk      4   5        ; "SacrificeWarframeNavigationTeleport"
630A  E2000001           [08] call       3   2   0  
630E  62800000           [09] call       1   0   2  
6312  9D800100           [10] getglobal  2   6        ; 1074689893
6316  D2008000           [11] move       3   1      
631A  A2800001           [12] call       2   2   2  
631E  98000000           [13] test       2       0    ; to [15] if true
6322  1A000080           [14] jmp        1            ; to [16]
6326  1E008000           [15] return     0   1      
632A  A4C04100           [16] self       2   0   263  ; 970454089
632E  2401C200           [17] self       4   1   264  ; 196800914
6332  22810001           [18] call       4   2   2  
6336  6441C200           [19] self       5   1   265  ; 54877834
633A  62010001           [20] call       5   2   0  
633E  A2400000           [21] call       2   0   1  
6342  A4804200           [22] self       2   0   266  ; 1292478819
6346  A2800001           [23] call       2   2   2  
634A  A4C04201           [24] self       2   2   267  ; 1417583104
634E  2441C200           [25] self       4   1   265  ; 54877834
6352  22010001           [26] call       4   2   0  
6356  A2400000           [27] call       2   0   1  
635A  1E008000           [28] return     0   1      
                         * constants:
635E  0C                 sizek (12)
635F  01                 const type 3
6360  EA911120           const [0]: (538022378)
6364  03                 const type 3
6365  00004040           const [1]: (0)
6369  04                 const type 4
636A  08                 string size (8)
636B  67526567696F6E00   "gRegion\0"
                         const [2]: "gRegion"
6373  01                 const type 3
6374  73123990           const [3]: (-1875307917)
6378  01                 const type 3
6379  1A4B27EC           const [4]: (-332969190)
637D  04                 const type 4
637E  24                 string size (36)
637F  5361637269666963+  "Sacrific"
6387  655761726672616D+  "eWarfram"
638F  654E617669676174+  "eNavigat"
6397  696F6E54656C6570+  "ionTelep"
639F  6F727400           "ort\0"
                         const [5]: "SacrificeWarframeNavigationTeleport"
63A3  01                 const type 3
63A4  65770E40           const [6]: (1074689893)
63A8  01                 const type 3
63A9  49F4D739           const [7]: (970454089)
63AD  01                 const type 3
63AE  92F1BA0B           const [8]: (196800914)
63B2  01                 const type 3
63B3  8A5E4503           const [9]: (54877834)
63B7  01                 const type 3
63B8  63A9094D           const [10]: (1292478819)
63BC  01                 const type 3
63BD  009A7E54           const [11]: (1417583104)
                         * functions:
63C1  00                 sizep (0)
                         * lines:
63C2  1C                 sizelineinfo (28)
                         [pc] (line)
63C3  B6                 [01] (-74)
63C4  03                 [02] (-74)
63C5  00                 [03] (-74)
63C6  00                 [04] (-73)
63C7  B6                 [05] (-73)
63C8  03                 [06] (-73)
63C9  00                 [07] (-73)
63CA  00                 [08] (-73)
63CB  B6                 [09] (-73)
63CC  03                 [10] (-72)
63CD  00                 [11] (-72)
63CE  00                 [12] (-72)
63CF  B7                 [13] (-72)
63D0  03                 [14] (-72)
63D1  00                 [15] (-71)
63D2  00                 [16] (-68)
63D3  B7                 [17] (-68)
63D4  03                 [18] (-68)
63D5  00                 [19] (-68)
63D6  00                 [20] (-68)
63D7  B7                 [21] (-68)
63D8  03                 [22] (-67)
63D9  00                 [23] (-67)
63DA  00                 [24] (-67)
63DB  B7                 [25] (-67)
63DC  03                 [26] (-67)
63DD  00                 [27] (-67)
63DE  00                 [28] (-66)
                         * locals:
6433  00                 sizelocvars (0)
                         * upvalues:
6434  00                 sizeupvalues (0)
                         ** end of function **

                         
6435                     ** function [23] definition (level 2)
                         ** start of function **
6435  00                 string size (0)
                         source name: (none)
6437  07                 line defined (960)
6438  82                 last line defined (1026)
6439  08                 nups (7)
643A  07                 numparams (0)
643B  00                 is_vararg (0)
643C  00                 maxstacksize (17)
                         * code:
643F  01                 sizecode (189)
6440  13000000           [001] getupval   0   0      
6444  22408000           [002] call       0   1   1  
6448  06000000           [003] loadnil    0   0      
644C  53008000           [004] getupval   1   1      
6450  62808000           [005] call       1   1   2  
6454  9D000000           [006] getglobal  2   0        ; 1074689893
6458  D2008000           [007] move       3   1      
645C  A2800001           [008] call       2   2   2  
6460  98400000           [009] test       2       1    ; to [11] if false
6464  1A800080           [010] jmp        3            ; to [14]
6468  A440C000           [011] self       2   1   257  ; -952849075
646C  A2800001           [012] call       2   2   2  
6470  12000001           [013] move       0   2      
6474  9D800000           [014] getglobal  2   2        ; gRegion
6478  A4C04001           [015] self       2   2   259  ; 65205951
647C  A2800001           [016] call       2   2   2  
6480  E4004101           [017] self       3   2   260  ; -1302048094
6484  5D410100           [018] getglobal  5   5        ; -332969190
6488  99810100           [019] loadk      6   6        ; "Vitruvian3TeleportToNavigation"
648C  62810001           [020] call       5   2   2  
6490  97010000           [021] loadbool   6   0   0    ; false
6494  E2400002           [022] call       3   4   1  
6498  E4C04101           [023] self       3   2   263  ; 1129512439
649C  5D010200           [024] getglobal  5   8        ; blockingInputFilter
64A0  E2408001           [025] call       3   3   1  
64A4  DD400200           [026] getglobal  3   9        ; 538022378
64A8  19810200           [027] loadk      4   10       ; 0
64AC  E2400001           [028] call       3   2   1  
64B0  D3000001           [029] getupval   3   2      
64B4  19C10200           [030] loadk      4   11       ; 0
64B8  E2400001           [031] call       3   2   1  
64BC  D3008001           [032] getupval   3   3      
64C0  E2808000           [033] call       3   1   2  
64C4  13010002           [034] getupval   4   4      
64C8  0E014302           [035] gettable   4   4   268  ; 910246418
64CC  6441C301           [036] self       5   3   269  ; -781703361
64D0  DD410100           [037] getglobal  7   5        ; -332969190
64D4  19820300           [038] loadk      8   14       ; "DSacMFourVitruvian2060OperatorVoice"
64D8  E2010001           [039] call       7   2   0  
64DC  62010000           [040] call       5   0   0  
64E0  22410000           [041] call       4   0   1  
64E4  13018002           [042] getupval   4   5      
64E8  57018000           [043] loadbool   5   1   0    ; true
64EC  22410001           [044] call       4   2   1  
64F0  13010002           [045] getupval   4   4      
64F4  0E014302           [046] gettable   4   4   268  ; 910246418
64F8  5DC10300           [047] getglobal  5   15       ; transmissionSet
64FC  6441C302           [048] self       5   5   269  ; -781703361
6500  DD410100           [049] getglobal  7   5        ; -332969190
6504  19020400           [050] loadk      8   16       ; "VitruvianStage3_Ordis"
6508  E2010001           [051] call       7   2   0  
650C  62010000           [052] call       5   0   0  
6510  22410000           [053] call       4   0   1  
6514  1D810000           [054] getglobal  4   2        ; gRegion
6518  24414402           [055] self       4   4   273  ; -1875307917
651C  9D410100           [056] getglobal  6   5        ; -332969190
6520  D9810400           [057] loadk      7   18       ; "SacrificeOperatorNavigationTeleport"
6524  A2010001           [058] call       6   2   0  
6528  22810000           [059] call       4   0   2  
652C  64C14401           [060] self       5   2   275  ; -1957065004
6530  DD010500           [061] getglobal  7   20       ; gLotusOperatorAvatarType
6534  62818001           [062] call       5   3   2  
6538  58410000           [063] test       5       1    ; to [65] if false
653C  1A801080           [064] jmp        67           ; to [132]
6540  64414501           [065] self       5   2   277  ; 1998801764
6544  E4814502           [066] self       7   4   278  ; 54877834
6548  E2010001           [067] call       7   2   0  
654C  62410000           [068] call       5   0   1  
6550  5DC10500           [069] getglobal  5   23       ; _T
6554  4C41468C           [070] settable   5   280 281  ; "HideTransferenceFx" 1
6558  5DC10500           [071] getglobal  5   23       ; _T
655C  A4C14602           [072] self       6   4   283  ; 196800914
6560  A2810001           [073] call       6   2   2  
6564  4C81018D           [074] settable   5   282 6    ; "OverrideTransferencePos"
6568  64014701           [075] self       5   2   284  ; -521198746
656C  62410001           [076] call       5   2   1  
6570  5D010000           [077] getglobal  5   0        ; 1074689893
6574  92010001           [078] move       6   2      
6578  62810001           [079] call       5   2   2  
657C  58410000           [080] test       5       1    ; to [82] if false
6580  1A000180           [081] jmp        5            ; to [87]
6584  64C14401           [082] self       5   2   275  ; -1957065004
6588  DD010500           [083] getglobal  7   20       ; gLotusOperatorAvatarType
658C  62818001           [084] call       5   3   2  
6590  58410000           [085] test       5       1    ; to [87] if false
6594  1AC00180           [086] jmp        8            ; to [95]
6598  5D410200           [087] getglobal  5   9        ; 538022378
659C  99410700           [088] loadk      6   29       ; 0
65A0  62410001           [089] call       5   2   1  
65A4  5D810000           [090] getglobal  5   2        ; gRegion
65A8  64C1C002           [091] self       5   5   259  ; 65205951
65AC  62810001           [092] call       5   2   2  
65B0  92008002           [093] move       2   5      
65B4  1A40FB7F           [094] jmp        -18          ; to [77]
65B8  64814701           [095] self       5   2   286  ; 2056776437
65BC  DDC10700           [096] getglobal  7   31       ; operatorTransferenceAnim
65C0  17020000           [097] loadbool   8   0   0    ; false
65C4  5D020800           [098] getglobal  9   32       ; Engine
65C8  4E42C804           [099] gettable   9   9   289  ; "ATMM_ANIMATION_DRIVEN"
65CC  9D020800           [100] getglobal  10  32       ; Engine
65D0  8E824805           [101] gettable   10  10  290  ; "PRT_ONCE"
65D4  D7028000           [102] loadbool   11  1   0    ; true
65D8  19C30800           [103] loadk      12  35       ; 0
65DC  62410004           [104] call       5   8   1  
65E0  5D010000           [105] getglobal  5   0        ; 1074689893
65E4  92010000           [106] move       6   0      
65E8  62810001           [107] call       5   2   2  
65EC  58410000           [108] test       5       1    ; to [110] if false
65F0  1AC00080           [109] jmp        4            ; to [114]
65F4  64014901           [110] self       5   2   292  ; 630793108
65F8  D2010000           [111] move       7   0      
65FC  17020000           [112] loadbool   8   0   0    ; false
6600  62410002           [113] call       5   4   1  
6604  5D010000           [114] getglobal  5   0        ; 1074689893
6608  9D410900           [115] getglobal  6   37       ; riftJumpFx
660C  62810001           [116] call       5   2   2  
6610  58410000           [117] test       5       1    ; to [119] if false
6614  1AC00180           [118] jmp        8            ; to [127]
6618  5D810000           [119] getglobal  5   2        ; gRegion
661C  6481C902           [120] self       5   5   294  ; -1110225722
6620  DD410900           [121] getglobal  7   37       ; riftJumpFx
6624  24C24601           [122] self       8   2   283  ; 196800914
6628  22820001           [123] call       8   2   2  
662C  64824501           [124] self       9   2   278  ; 54877834
6630  62020001           [125] call       9   2   0  
6634  62410000           [126] call       5   0   1  
6638  5D410200           [127] getglobal  5   9        ; 538022378
663C  99410700           [128] loadk      6   29       ; 0
6640  62410001           [129] call       5   2   1  
6644  5DC10500           [130] getglobal  5   23       ; _T
6648  4CC1498C           [131] settable   5   280 295  ; "HideTransferenceFx" nil
664C  64014A01           [132] self       5   2   296  ; -1917464545
6650  62810001           [133] call       5   2   2  
6654  6441CA02           [134] self       5   5   297  ; 1769516121
6658  62810001           [135] call       5   2   2  
665C  6481CA02           [136] self       5   5   298  ; -1300631377
6660  D7018000           [137] loadbool   7   1   0    ; true
6664  1D420100           [138] getglobal  8   5        ; -332969190
6668  59C20A00           [139] loadk      9   43       ; "OPERATOR_TRANSFERENCE"
666C  22020001           [140] call       8   2   0  
6670  62410000           [141] call       5   0   1  
6674  64014B01           [142] self       5   2   300  ; 1292478819
6678  62810001           [143] call       5   2   2  
667C  6441CB02           [144] self       5   5   301  ; 1417583104
6680  E4814502           [145] self       7   4   278  ; 54877834
6684  E2010001           [146] call       7   2   0  
6688  62410000           [147] call       5   0   1  
668C  64814B01           [148] self       5   2   302  ; -1421644046
6690  DDC10B00           [149] getglobal  7   47       ; operatorTransferenceFx
6694  1D020C00           [150] getglobal  8   48       ; EMPTY_SYMBOL
6698  62410002           [151] call       5   4   1  
669C  5D410100           [152] getglobal  5   5        ; -332969190
66A0  99410C00           [153] loadk      6   49       ; "SolarMapOrigin"
66A4  62810001           [154] call       5   2   2  
66A8  9D810000           [155] getglobal  6   2        ; gRegion
66AC  A4814C03           [156] self       6   6   306  ; 152279552
66B0  1DC20C00           [157] getglobal  8   51       ; gUIConsoleTriggerType
66B4  A2818001           [158] call       6   3   2  
66B8  D9810200           [159] loadk      7   10       ; 0
66BC  0A020003           [160] len        8   6      
66C0  59820200           [161] loadk      9   10       ; 0
66C4  D0C10280           [162] forprep    7   12       ; to [175]
66C8  CE820203           [163] gettable   11  6   10 
66CC  1D030000           [164] getglobal  12  0        ; 1074689893
66D0  52038005           [165] move       13  11     
66D4  22830001           [166] call       12  2   2  
66D8  18430000           [167] test       12      1    ; to [169] if false
66DC  1A400180           [168] jmp        6            ; to [175]
66E0  2403CD05           [169] self       12  11  308  ; -830264577
66E4  22830001           [170] call       12  2   2  
fail op	35
66E8  63400106           [171] close      1  
66EC  1A400080           [172] jmp        2            ; to [175]
66F0  2443CD05           [173] self       12  11  309  ; 766584623
66F4  22430001           [174] call       12  2   1  
66F8  D481FC7F           [175] forloop    7   -13      ; to [163] if loop
66FC  13030002           [176] getupval   12  4      
6700  0E034306           [177] gettable   12  12  268  ; 910246418
6704  6443C301           [178] self       13  3   269  ; -781703361
6708  DD430100           [179] getglobal  15  5        ; -332969190
670C  19840D00           [180] loadk      16  54       ; "DSacMFourVitruvian2090OperatorVoice"
6710  E2030001           [181] call       15  2   0  
6714  62030000           [182] call       13  0   0  
6718  22430000           [183] call       12  0   1  
671C  13038002           [184] getupval   12  5      
6720  57038000           [185] loadbool   13  1   0    ; true
6724  22430001           [186] call       12  2   1  
6728  13030003           [187] getupval   12  6      
672C  22438000           [188] call       12  1   1  
6730  1E008000           [189] return     0   1      
                         * constants:
6734  37                 sizek (55)
6735  01                 const type 3
6736  65770E40           const [0]: (1074689893)
673A  01                 const type 3
673B  4DAD34C7           const [1]: (-952849075)
673F  04                 const type 4
6740  08                 string size (8)
6741  67526567696F6E00   "gRegion\0"
                         const [2]: "gRegion"
6749  01                 const type 3
674A  BFF6E203           const [3]: (65205951)
674E  01                 const type 3
674F  A25264B2           const [4]: (-1302048094)
6753  01                 const type 3
6754  1A4B27EC           const [5]: (-332969190)
6758  04                 const type 4
6759  1F                 string size (31)
675A  5669747275766961+  "Vitruvia"
6762  6E3354656C65706F+  "n3Telepo"
676A  7274546F4E617669+  "rtToNavi"
6772  676174696F6E00     "gation\0"
                         const [6]: "Vitruvian3TeleportToNavigation"
6779  01                 const type 3
677A  F7FD5243           const [7]: (1129512439)
677E  04                 const type 4
677F  14                 string size (20)
6780  626C6F636B696E67+  "blocking"
6788  496E70757446696C+  "InputFil"
6790  74657200           "ter\0"
                         const [8]: "blockingInputFilter"
6794  01                 const type 3
6795  EA911120           const [9]: (538022378)
6799  03                 const type 3
679A  0000803F           const [10]: (0)
679E  03                 const type 3
679F  00008040           const [11]: (0)
67A3  01                 const type 3
67A4  12424136           const [12]: (910246418)
67A8  01                 const type 3
67A9  3F2768D1           const [13]: (-781703361)
67AD  04                 const type 4
67AE  24                 string size (36)
67AF  445361634D466F75+  "DSacMFou"
67B7  7256697472757669+  "rVitruvi"
67BF  616E323036304F70+  "an2060Op"
67C7  657261746F72566F+  "eratorVo"
67CF  69636500           "ice\0"
                         const [14]: "DSacMFourVitruvian2060OperatorVoice"
67D3  04                 const type 4
67D4  10                 string size (16)
67D5  7472616E736D6973+  "transmis"
67DD  73696F6E53657400   "sionSet\0"
                         const [15]: "transmissionSet"
67E5  04                 const type 4
67E6  16                 string size (22)
67E7  5669747275766961+  "Vitruvia"
67EF  6E5374616765335F+  "nStage3_"
67F7  4F7264697300       "Ordis\0"
                         const [16]: "VitruvianStage3_Ordis"
67FD  01                 const type 3
67FE  73123990           const [17]: (-1875307917)
6802  04                 const type 4
6803  24                 string size (36)
6804  5361637269666963+  "Sacrific"
680C  654F70657261746F+  "eOperato"
6814  724E617669676174+  "rNavigat"
681C  696F6E54656C6570+  "ionTelep"
6824  6F727400           "ort\0"
                         const [18]: "SacrificeOperatorNavigationTeleport"
6828  01                 const type 3
6829  D48E598B           const [19]: (-1957065004)
682D  04                 const type 4
682E  19                 string size (25)
682F  674C6F7475734F70+  "gLotusOp"
6837  657261746F724176+  "eratorAv"
683F  6174617254797065+  "atarType"
6847  00                 "\0"
                         const [20]: "gLotusOperatorAvatarType"
6848  01                 const type 3
6849  644B2377           const [21]: (1998801764)
684D  01                 const type 3
684E  8A5E4503           const [22]: (54877834)
6852  04                 const type 4
6853  03                 string size (3)
6854  5F5400             "_T\0"
                         const [23]: "_T"
6857  04                 const type 4
6858  13                 string size (19)
6859  486964655472616E+  "HideTran"
6861  73666572656E6365+  "sference"
6869  467800             "Fx\0"
                         const [24]: "HideTransferenceFx"
686C  01                 const type 3
686D  01000000           const [25]: (1)
6871  04                 const type 4
6872  18                 string size (24)
6873  4F76657272696465+  "Override"
687B  5472616E73666572+  "Transfer"
6883  656E6365506F7300   "encePos\0"
                         const [26]: "OverrideTransferencePos"
688B  01                 const type 3
688C  92F1BA0B           const [27]: (196800914)
6890  01                 const type 3
6891  6623EFE0           const [28]: (-521198746)
6895  03                 const type 3
6896  00000000           const [29]: (0)
689A  01                 const type 3
689B  F5EA977A           const [30]: (2056776437)
689F  04                 const type 4
68A0  19                 string size (25)
68A1  6F70657261746F72+  "operator"
68A9  5472616E73666572+  "Transfer"
68B1  656E6365416E696D+  "enceAnim"
68B9  00                 "\0"
                         const [31]: "operatorTransferenceAnim"
68BA  04                 const type 4
68BB  07                 string size (7)
68BC  456E67696E6500     "Engine\0"
                         const [32]: "Engine"
68C3  04                 const type 4
68C4  16                 string size (22)
68C5  41544D4D5F414E49+  "ATMM_ANI"
68CD  4D4154494F4E5F44+  "MATION_D"
68D5  524956454E00       "RIVEN\0"
                         const [33]: "ATMM_ANIMATION_DRIVEN"
68DB  04                 const type 4
68DC  09                 string size (9)
68DD  5052545F4F4E4345+  "PRT_ONCE"
68E5  00                 "\0"
                         const [34]: "PRT_ONCE"
68E6  03                 const type 3
68E7  0000403F           const [35]: (0)
68EB  01                 const type 3
68EC  94239925           const [36]: (630793108)
68F0  04                 const type 4
68F1  0B                 string size (11)
68F2  726966744A756D70+  "riftJump"
68FA  467800             "Fx\0"
                         const [37]: "riftJumpFx"
68FD  01                 const type 3
68FE  C64CD3BD           const [38]: (-1110225722)
6902  00                 const type 0
                         const [39]: nil
6903  01                 const type 3
6904  1FD0B58D           const [40]: (-1917464545)
6908  01                 const type 3
6909  59AC7869           const [41]: (1769516121)
690D  01                 const type 3
690E  AFF079B2           const [42]: (-1300631377)
6912  04                 const type 4
6913  16                 string size (22)
6914  4F50455241544F52+  "OPERATOR"
691C  5F5452414E534645+  "_TRANSFE"
6924  52454E434500       "RENCE\0"
                         const [43]: "OPERATOR_TRANSFERENCE"
692A  01                 const type 3
692B  63A9094D           const [44]: (1292478819)
692F  01                 const type 3
6930  009A7E54           const [45]: (1417583104)
6934  01                 const type 3
6935  F26E43AB           const [46]: (-1421644046)
6939  04                 const type 4
693A  17                 string size (23)
693B  6F70657261746F72+  "operator"
6943  5472616E73666572+  "Transfer"
694B  656E6365467800     "enceFx\0"
                         const [47]: "operatorTransferenceFx"
6952  04                 const type 4
6953  0D                 string size (13)
6954  454D5054595F5359+  "EMPTY_SY"
695C  4D424F4C00         "MBOL\0"
                         const [48]: "EMPTY_SYMBOL"
6961  04                 const type 4
6962  0F                 string size (15)
6963  536F6C61724D6170+  "SolarMap"
696B  4F726967696E00     "Origin\0"
                         const [49]: "SolarMapOrigin"
6972  01                 const type 3
6973  009A1309           const [50]: (152279552)
6977  04                 const type 4
6978  16                 string size (22)
6979  675549436F6E736F+  "gUIConso"
6981  6C65547269676765+  "leTrigge"
6989  725479706500       "rType\0"
                         const [51]: "gUIConsoleTriggerType"
698F  01                 const type 3
6990  FF2A83CE           const [52]: (-830264577)
6994  01                 const type 3
6995  2F27B12D           const [53]: (766584623)
6999  04                 const type 4
699A  24                 string size (36)
699B  445361634D466F75+  "DSacMFou"
69A3  7256697472757669+  "rVitruvi"
69AB  616E323039304F70+  "an2090Op"
69B3  657261746F72566F+  "eratorVo"
69BB  69636500           "ice\0"
                         const [54]: "DSacMFourVitruvian2090OperatorVoice"
                         * functions:
69BF  00                 sizep (0)
                         * lines:
69C1  01                 sizelineinfo (189)
                         [pc] (line)
69C2  C1                 [001] (-63)
69C3  03                 [002] (-63)
69C4  00                 [003] (-61)
69C5  00                 [004] (-60)
69C6  C1                 [005] (-60)
69C7  03                 [006] (-59)
69C8  00                 [007] (-59)
69C9  00                 [008] (-59)
69CA  C3                 [009] (-59)
69CB  03                 [010] (-59)
69CC  00                 [011] (-58)
69CD  00                 [012] (-58)
69CE  C4                 [013] (-58)
69CF  03                 [014] (-55)
69D0  00                 [015] (-55)
69D1  00                 [016] (-55)
69D2  C4                 [017] (-54)
69D3  03                 [018] (-54)
69D4  00                 [019] (-54)
69D5  00                 [020] (-54)
69D6  C5                 [021] (-54)
69D7  03                 [022] (-54)
69D8  00                 [023] (-53)
69D9  00                 [024] (-53)
69DA  C5                 [025] (-53)
69DB  03                 [026] (-52)
69DC  00                 [027] (-52)
69DD  00                 [028] (-52)
69DE  C5                 [029] (-50)
69DF  03                 [030] (-50)
69E0  00                 [031] (-50)
69E1  00                 [032] (-48)
69E2  C5                 [033] (-48)
69E3  03                 [034] (-46)
69E4  00                 [035] (-46)
69E5  00                 [036] (-46)
69E6  C5                 [037] (-46)
69E7  03                 [038] (-46)
69E8  00                 [039] (-46)
69E9  00                 [040] (-46)
69EA  C6                 [041] (-46)
69EB  03                 [042] (-45)
69EC  00                 [043] (-45)
69ED  00                 [044] (-45)
69EE  C6                 [045] (-43)
69EF  03                 [046] (-43)
69F0  00                 [047] (-43)
69F1  00                 [048] (-43)
69F2  C6                 [049] (-43)
69F3  03                 [050] (-43)
69F4  00                 [051] (-43)
69F5  00                 [052] (-43)
69F6  C9                 [053] (-43)
69F7  03                 [054] (-41)
69F8  00                 [055] (-41)
69F9  00                 [056] (-41)
69FA  C9                 [057] (-41)
69FB  03                 [058] (-41)
69FC  00                 [059] (-41)
69FD  00                 [060] (-40)
69FE  C9                 [061] (-40)
69FF  03                 [062] (-40)
6A00  00                 [063] (-40)
6A01  00                 [064] (-40)
6A02  CA                 [065] (-39)
6A03  03                 [066] (-39)
6A04  00                 [067] (-39)
6A05  00                 [068] (-39)
6A06  CA                 [069] (-38)
6A07  03                 [070] (-38)
6A08  00                 [071] (-37)
6A09  00                 [072] (-37)
6A0A  CA                 [073] (-37)
6A0B  03                 [074] (-37)
6A0C  00                 [075] (-36)
6A0D  00                 [076] (-36)
6A0E  CA                 [077] (-34)
6A0F  03                 [078] (-34)
6A10  00                 [079] (-34)
6A11  00                 [080] (-34)
6A12  CA                 [081] (-34)
6A13  03                 [082] (-34)
6A14  00                 [083] (-34)
6A15  00                 [084] (-34)
6A16  CA                 [085] (-34)
6A17  03                 [086] (-34)
6A18  00                 [087] (-33)
6A19  00                 [088] (-33)
6A1A  CB                 [089] (-33)
6A1B  03                 [090] (-32)
6A1C  00                 [091] (-32)
6A1D  00                 [092] (-32)
6A1E  CB                 [093] (-32)
6A1F  03                 [094] (-32)
6A20  00                 [095] (-29)
6A21  00                 [096] (-29)
6A22  CB                 [097] (-29)
6A23  03                 [098] (-29)
6A24  00                 [099] (-29)
6A25  00                 [100] (-29)
6A26  CC                 [101] (-29)
6A27  03                 [102] (-29)
6A28  00                 [103] (-29)
6A29  00                 [104] (-29)
6A2A  CC                 [105] (-28)
6A2B  03                 [106] (-28)
6A2C  00                 [107] (-28)
6A2D  00                 [108] (-28)
6A2E  CC                 [109] (-28)
6A2F  03                 [110] (-27)
6A30  00                 [111] (-27)
6A31  00                 [112] (-27)
6A32  CE                 [113] (-27)
6A33  03                 [114] (-25)
6A34  00                 [115] (-25)
6A35  00                 [116] (-25)
6A36  CE                 [117] (-25)
6A37  03                 [118] (-25)
6A38  00                 [119] (-24)
6A39  00                 [120] (-24)
6A3A  CE                 [121] (-24)
6A3B  03                 [122] (-24)
6A3C  00                 [123] (-24)
6A3D  00                 [124] (-24)
6A3E  D0                 [125] (-24)
6A3F  03                 [126] (-24)
6A40  00                 [127] (-21)
6A41  00                 [128] (-21)
6A42  D0                 [129] (-21)
6A43  03                 [130] (-19)
6A44  00                 [131] (-19)
6A45  00                 [132] (-16)
6A46  D2                 [133] (-16)
6A47  03                 [134] (-16)
6A48  00                 [135] (-16)
6A49  00                 [136] (-16)
6A4A  D2                 [137] (-16)
6A4B  03                 [138] (-16)
6A4C  00                 [139] (-16)
6A4D  00                 [140] (-16)
6A4E  D2                 [141] (-16)
6A4F  03                 [142] (-14)
6A50  00                 [143] (-14)
6A51  00                 [144] (-14)
6A52  D2                 [145] (-14)
6A53  03                 [146] (-14)
6A54  00                 [147] (-14)
6A55  00                 [148] (-13)
6A56  D2                 [149] (-13)
6A57  03                 [150] (-13)
6A58  00                 [151] (-13)
6A59  00                 [152] (-11)
6A5A  D2                 [153] (-11)
6A5B  03                 [154] (-11)
6A5C  00                 [155] (-10)
6A5D  00                 [156] (-10)
6A5E  D2                 [157] (-10)
6A5F  03                 [158] (-10)
6A60  00                 [159] (-9)
6A61  00                 [160] (-9)
6A62  D2                 [161] (-9)
6A63  03                 [162] (-9)
6A64  00                 [163] (-8)
6A65  00                 [164] (-7)
6A66  D3                 [165] (-7)
6A67  03                 [166] (-7)
6A68  00                 [167] (-7)
6A69  00                 [168] (-7)
6A6A  D3                 [169] (-7)
6A6B  03                 [170] (-7)
6A6C  00                 [171] (-7)
6A6D  00                 [172] (-7)
6A6E  D3                 [173] (-6)
6A6F  03                 [174] (-6)
6A70  00                 [175] (-9)
6A71  00                 [176] (-2)
6A72  D5                 [177] (-2)
6A73  03                 [178] (-2)
6A74  00                 [179] (-2)
6A75  00                 [180] (-2)
6A76  D5                 [181] (-2)
6A77  03                 [182] (-2)
6A78  00                 [183] (-2)
6A79  00                 [184] (-1)
6A7A  D5                 [185] (-1)
6A7B  03                 [186] (-1)
6A7C  00                 [187] (1)
6A7D  00                 [188] (1)
6A7E  D5                 [189] (2)
                         * locals:
6CB6  00                 sizelocvars (0)
                         * upvalues:
6CB7  00                 sizeupvalues (0)
                         ** end of function **

                         
6CB8                     ** function [24] definition (level 2)
                         ** start of function **
6CB8  00                 string size (0)
                         source name: (none)
6CBA  08                 line defined (1028)
6CBB  CC                 last line defined (1100)
6CBC  08                 nups (5)
6CBD  05                 numparams (0)
6CBE  00                 is_vararg (0)
6CBF  00                 maxstacksize (9)
                         * code:
6CC2  01                 sizecode (150)
6CC3  1D000000           [001] getglobal  0   0        ; gRegion
6CC7  24404000           [002] self       0   0   257  ; -1456226250
6CCB  22800001           [003] call       0   2   2  
6CCF  24804000           [004] self       0   0   258  ; 1127159716
6CD3  22800001           [005] call       0   2   2  
6CD7  0C00C181           [006] settable   0   259 260  ; "fade" 0
6CDB  1D400100           [007] getglobal  0   5        ; 1074689893
6CDF  5D800100           [008] getglobal  1   6        ; gGameData
6CE3  22800001           [009] call       0   2   2  
6CE7  18000000           [010] test       0       0    ; to [12] if true
6CEB  1AC00080           [011] jmp        4            ; to [16]
6CEF  1DC00100           [012] getglobal  0   7        ; 538022378
6CF3  59000200           [013] loadk      1   8        ; 0
6CF7  22400001           [014] call       0   2   1  
6CFB  1A80FD7F           [015] jmp        -9           ; to [7]
6CFF  06000000           [016] loadnil    0   0      
6D03  5D000000           [017] getglobal  1   0        ; gRegion
6D07  6440C200           [018] self       1   1   265  ; 65205951
6D0B  62800001           [019] call       1   2   2  
6D0F  12008000           [020] move       0   1      
6D13  5D400100           [021] getglobal  1   5        ; 1074689893
6D17  92000000           [022] move       2   0      
6D1B  62800001           [023] call       1   2   2  
6D1F  58400000           [024] test       1       1    ; to [26] if false
6D23  1A80FD7F           [025] jmp        -9           ; to [17]
6D27  64804200           [026] self       1   0   266  ; 1129512439
6D2B  DDC00200           [027] getglobal  3   11       ; blockingInputFilter
6D2F  62408001           [028] call       1   3   1  
6D33  5D000000           [029] getglobal  1   0        ; gRegion
6D37  6440C000           [030] self       1   1   257  ; -1456226250
6D3B  62800001           [031] call       1   2   2  
6D3F  6480C000           [032] self       1   1   258  ; 1127159716
6D43  62800001           [033] call       1   2   2  
6D47  4C00C281           [034] settable   1   259 264  ; "fade" 0
6D4B  53000000           [035] getupval   1   0      
6D4F  62408000           [036] call       1   1   1  
6D53  53008000           [037] getupval   1   1      
6D57  4E00C300           [038] gettable   1   1   268  ; 910246418
6D5B  9D400300           [039] getglobal  2   13       ; transmissionSet
6D5F  A4804301           [040] self       2   2   270  ; -781703361
6D63  1DC10300           [041] getglobal  4   15       ; -332969190
6D67  59010400           [042] loadk      5   16       ; "AlignmentChoice_Ordis"
6D6B  22010001           [043] call       4   2   0  
6D6F  A2000000           [044] call       2   0   0  
6D73  62400000           [045] call       1   0   1  
6D77  53000001           [046] getupval   1   2      
6D7B  97008000           [047] loadbool   2   1   0    ; true
6D7F  62400001           [048] call       1   2   1  
6D83  53008001           [049] getupval   1   3      
6D87  62808000           [050] call       1   1   2  
6D8B  93008000           [051] getupval   2   1      
6D8F  8E004301           [052] gettable   2   2   268  ; 910246418
6D93  E480C300           [053] self       3   1   270  ; -781703361
6D97  5DC10300           [054] getglobal  5   15       ; -332969190
6D9B  99410400           [055] loadk      6   17       ; "DSacMFiveShip2660OperatorVoice"
6D9F  62010001           [056] call       5   2   0  
6DA3  E2000000           [057] call       3   0   0  
6DA7  A2400000           [058] call       2   0   1  
6DAB  93000001           [059] getupval   2   2      
6DAF  D7008000           [060] loadbool   3   1   0    ; true
6DB3  A2400001           [061] call       2   2   1  
6DB7  A4804400           [062] self       2   0   274  ; 1265388858
6DBB  1DC10200           [063] getglobal  4   11       ; blockingInputFilter
6DBF  A2408001           [064] call       2   3   1  
6DC3  86000001           [065] loadnil    2   2      
6DC7  DDC00400           [066] getglobal  3   19       ; _T
6DCB  1DC10400           [067] getglobal  4   19       ; _T
6DCF  0E014502           [068] gettable   4   4   276  ; "TaggedDialog"
6DD3  18410000           [069] test       4       1    ; to [71] if false
6DD7  1A000080           [070] jmp        1            ; to [72]
6DDB  0B010000           [071] newtable   4   0   0    ; array=0, hash=0
6DDF  CC00018A           [072] settable   3   276 4    ; "TaggedDialog"
6DE3  DDC00400           [073] getglobal  3   19       ; _T
6DE7  CE00C501           [074] gettable   3   3   276  ; "TaggedDialog"
6DEB  0B810000           [075] newtable   4   0   2    ; array=0, hash=2
6DEF  0CC1458B           [076] settable   4   278 279  ; "mName" ""
6DF3  65010000           [077] closure    5   0      
6DF7  12000001           [078] move       0   2      
6DFB  0C41018C           [079] settable   4   280 5    ; "mCallback"
6DFF  CC00818A           [080] settable   3   277 4    ; "AlignmentChoice"
6E03  DD000000           [081] getglobal  3   0        ; gRegion
6E07  E440C601           [082] self       3   3   281  ; -1110225722
6E0B  5D810600           [083] getglobal  5   26       ; alignmentChoiceTriggerType
6E0F  A4C14600           [084] self       6   0   283  ; 196800914
6E13  A2810001           [085] call       6   2   2  
6E17  DD010700           [086] getglobal  7   28       ; ZERO_ROTATION
6E1B  E2808002           [087] call       3   5   2  
6E1F  2441C701           [088] self       4   3   285  ; 229081559
6E23  92010000           [089] move       6   0      
6E27  22418001           [090] call       4   3   1  
6E2B  98400000           [091] test       2       1    ; to [93] if false
6E2F  1AC00080           [092] jmp        4            ; to [97]
6E33  1DC10100           [093] getglobal  4   7        ; 538022378
6E37  59010200           [094] loadk      5   8        ; 0
6E3B  22410001           [095] call       4   2   1  
6E3F  1A40FE7F           [096] jmp        -6           ; to [91]
6E43  1DC10100           [097] getglobal  4   7        ; 538022378
6E47  59010200           [098] loadk      5   8        ; 0
6E4B  22410001           [099] call       4   2   1  
6E4F  2481C701           [100] self       4   3   286  ; -725453761
6E53  22410001           [101] call       4   2   1  
6E57  1DC10400           [102] getglobal  4   19       ; _T
6E5B  0E014502           [103] gettable   4   4   276  ; "TaggedDialog"
6E5F  0CC1C78A           [104] settable   4   277 287  ; "AlignmentChoice" nil
6E63  06010002           [105] loadnil    4   4      
6E67  5D010800           [106] getglobal  5   32       ; Lotus_Game
6E6B  4E41C802           [107] gettable   5   5   289  ; "AT_POSITIVE"
fail op	35
6E6F  23400101           [108] close      0  
6E73  1A000180           [109] jmp        5            ; to [115]
6E77  5DC10300           [110] getglobal  5   15       ; -332969190
6E7B  99810800           [111] loadk      6   34       ; "AlignmentChoice_Sun"
6E7F  62810001           [112] call       5   2   2  
6E83  12018002           [113] move       4   5      
6E87  1A000580           [114] jmp        21           ; to [136]
6E8B  5D010800           [115] getglobal  5   32       ; Lotus_Game
6E8F  4EC1C802           [116] gettable   5   5   291  ; "AT_NEUTRAL"
fail op	35
6E93  23400101           [117] close      0  
6E97  1A000180           [118] jmp        5            ; to [124]
6E9B  5DC10300           [119] getglobal  5   15       ; -332969190
6E9F  99010900           [120] loadk      6   36       ; "AlignmentChoice_Neutral"
6EA3  62810001           [121] call       5   2   2  
6EA7  12018002           [122] move       4   5      
6EAB  1AC00280           [123] jmp        12           ; to [136]
6EAF  5D010800           [124] getglobal  5   32       ; Lotus_Game
6EB3  4E41C902           [125] gettable   5   5   293  ; "AT_NEGATIVE"
fail op	35
6EB7  23400101           [126] close      0  
6EBB  1A000180           [127] jmp        5            ; to [133]
6EBF  5DC10300           [128] getglobal  5   15       ; -332969190
6EC3  99810900           [129] loadk      6   38       ; "AlignmentChoice_Moon"
6EC7  62810001           [130] call       5   2   2  
6ECB  12018002           [131] move       4   5      
6ECF  1A800080           [132] jmp        3            ; to [136]
6ED3  5DC10900           [133] getglobal  5   39       ; -1817107093
6ED7  99010A00           [134] loadk      6   40       ; "SacrificeQuestPlayerShip.lua -- Error: Invalid alignment selection"
6EDB  62410001           [135] call       5   2   1  
6EDF  18010000           [136] test       4       0    ; to [138] if true
6EE3  1A400280           [137] jmp        10           ; to [148]
6EE7  53018000           [138] getupval   5   1      
6EEB  4E01C302           [139] gettable   5   5   268  ; 910246418
6EEF  9D410300           [140] getglobal  6   13       ; transmissionSet
6EF3  A4814303           [141] self       6   6   270  ; -781703361
6EF7  12020002           [142] move       8   4      
6EFB  A2018001           [143] call       6   3   0  
6EFF  62410000           [144] call       5   0   1  
6F03  53010001           [145] getupval   5   2      
6F07  97018000           [146] loadbool   6   1   0    ; true
6F0B  62410001           [147] call       5   2   1  
6F0F  53010002           [148] getupval   5   4      
6F13  62418000           [149] call       5   1   1  
6F17  1E008000           [150] return     0   1      
                         * constants:
6F1B  29                 sizek (41)
6F1C  04                 const type 4
6F1D  08                 string size (8)
6F1E  67526567696F6E00   "gRegion\0"
                         const [0]: "gRegion"
6F26  01                 const type 3
6F27  36C033A9           const [1]: (-1456226250)
6F2B  01                 const type 3
6F2C  A4172F43           const [2]: (1127159716)
6F30  04                 const type 4
6F31  05                 string size (5)
6F32  6661646500         "fade\0"
                         const [3]: "fade"
6F37  03                 const type 3
6F38  0000803F           const [4]: (0)
6F3C  01                 const type 3
6F3D  65770E40           const [5]: (1074689893)
6F41  04                 const type 4
6F42  0A                 string size (10)
6F43  6747616D65446174+  "gGameDat"
6F4B  6100               "a\0"
                         const [6]: "gGameData"
6F4D  01                 const type 3
6F4E  EA911120           const [7]: (538022378)
6F52  03                 const type 3
6F53  00000000           const [8]: (0)
6F57  01                 const type 3
6F58  BFF6E203           const [9]: (65205951)
6F5C  01                 const type 3
6F5D  F7FD5243           const [10]: (1129512439)
6F61  04                 const type 4
6F62  14                 string size (20)
6F63  626C6F636B696E67+  "blocking"
6F6B  496E70757446696C+  "InputFil"
6F73  74657200           "ter\0"
                         const [11]: "blockingInputFilter"
6F77  01                 const type 3
6F78  12424136           const [12]: (910246418)
6F7C  04                 const type 4
6F7D  10                 string size (16)
6F7E  7472616E736D6973+  "transmis"
6F86  73696F6E53657400   "sionSet\0"
                         const [13]: "transmissionSet"
6F8E  01                 const type 3
6F8F  3F2768D1           const [14]: (-781703361)
6F93  01                 const type 3
6F94  1A4B27EC           const [15]: (-332969190)
6F98  04                 const type 4
6F99  16                 string size (22)
6F9A  416C69676E6D656E+  "Alignmen"
6FA2  7443686F6963655F+  "tChoice_"
6FAA  4F7264697300       "Ordis\0"
                         const [16]: "AlignmentChoice_Ordis"
6FB0  04                 const type 4
6FB1  1F                 string size (31)
6FB2  445361634D466976+  "DSacMFiv"
6FBA  6553686970323636+  "eShip266"
6FC2  304F70657261746F+  "0Operato"
6FCA  72566F69636500     "rVoice\0"
                         const [17]: "DSacMFiveShip2660OperatorVoice"
6FD1  01                 const type 3
6FD2  3A4D6C4B           const [18]: (1265388858)
6FD6  04                 const type 4
6FD7  03                 string size (3)
6FD8  5F5400             "_T\0"
                         const [19]: "_T"
6FDB  04                 const type 4
6FDC  0D                 string size (13)
6FDD  5461676765644469+  "TaggedDi"
6FE5  616C6F6700         "alog\0"
                         const [20]: "TaggedDialog"
6FEA  04                 const type 4
6FEB  10                 string size (16)
6FEC  416C69676E6D656E+  "Alignmen"
6FF4  7443686F69636500   "tChoice\0"
                         const [21]: "AlignmentChoice"
6FFC  04                 const type 4
6FFD  06                 string size (6)
6FFE  6D4E616D6500       "mName\0"
                         const [22]: "mName"
7004  04                 const type 4
7005  01                 string size (0)
                         const [23]: ""
7007  04                 const type 4
7008  0A                 string size (10)
7009  6D43616C6C626163+  "mCallbac"
7011  6B00               "k\0"
                         const [24]: "mCallback"
7013  01                 const type 3
7014  C64CD3BD           const [25]: (-1110225722)
7018  04                 const type 4
7019  1B                 string size (27)
701A  616C69676E6D656E+  "alignmen"
7022  7443686F69636554+  "tChoiceT"
702A  7269676765725479+  "riggerTy"
7032  706500             "pe\0"
                         const [26]: "alignmentChoiceTriggerType"
7035  01                 const type 3
7036  92F1BA0B           const [27]: (196800914)
703A  04                 const type 4
703B  0E                 string size (14)
703C  5A45524F5F524F54+  "ZERO_ROT"
7044  4154494F4E00       "ATION\0"
                         const [28]: "ZERO_ROTATION"
704A  01                 const type 3
704B  D781A70D           const [29]: (229081559)
704F  01                 const type 3
7050  3F74C2D4           const [30]: (-725453761)
7054  00                 const type 0
                         const [31]: nil
7055  04                 const type 4
7056  0B                 string size (11)
7057  4C6F7475735F4761+  "Lotus_Ga"
705F  6D6500             "me\0"
                         const [32]: "Lotus_Game"
7062  04                 const type 4
7063  0C                 string size (12)
7064  41545F504F534954+  "AT_POSIT"
706C  49564500           "IVE\0"
                         const [33]: "AT_POSITIVE"
7070  04                 const type 4
7071  14                 string size (20)
7072  416C69676E6D656E+  "Alignmen"
707A  7443686F6963655F+  "tChoice_"
7082  53756E00           "Sun\0"
                         const [34]: "AlignmentChoice_Sun"
7086  04                 const type 4
7087  0B                 string size (11)
7088  41545F4E45555452+  "AT_NEUTR"
7090  414C00             "AL\0"
                         const [35]: "AT_NEUTRAL"
7093  04                 const type 4
7094  18                 string size (24)
7095  416C69676E6D656E+  "Alignmen"
709D  7443686F6963655F+  "tChoice_"
70A5  4E65757472616C00   "Neutral\0"
                         const [36]: "AlignmentChoice_Neutral"
70AD  04                 const type 4
70AE  0C                 string size (12)
70AF  41545F4E45474154+  "AT_NEGAT"
70B7  49564500           "IVE\0"
                         const [37]: "AT_NEGATIVE"
70BB  04                 const type 4
70BC  15                 string size (21)
70BD  416C69676E6D656E+  "Alignmen"
70C5  7443686F6963655F+  "tChoice_"
70CD  4D6F6F6E00         "Moon\0"
                         const [38]: "AlignmentChoice_Moon"
70D2  01                 const type 3
70D3  6B25B193           const [39]: (-1817107093)
70D7  04                 const type 4
70D8  43                 string size (67)
70D9  5361637269666963+  "Sacrific"
70E1  655175657374506C+  "eQuestPl"
70E9  6179657253686970+  "ayerShip"
70F1  2E6C7561202D2D20+  ".lua -- "
70F9  4572726F723A2049+  "Error: I"
7101  6E76616C69642061+  "nvalid a"
7109  6C69676E6D656E74+  "lignment"
7111  2073656C65637469+  " selecti"
7119  6F6E00             "on\0"
                         const [40]: "SacrificeQuestPlayerShip.lua -- Error: Invalid alignment selection"
                         * functions:
711C  01                 sizep (1)
                         
711D                     ** function [0] definition (level 3)
                         ** start of function **
711D  00                 string size (0)
                         source name: (none)
711F  08                 line defined (1057)
7120  AD                 last line defined (1069)
7121  08                 nups (1)
7122  01                 numparams (1)
7123  01                 is_vararg (0)
7124  00                 maxstacksize (9)
                         * code:
7126  18                 sizecode (24)
7127  64004000           [01] self       1   0   256  ; 1116211586
712B  D9400000           [02] loadk      3   1        ; "Alignment_Ship"
712F  1D810000           [03] getglobal  4   2        ; -421772368
7133  59C10000           [04] loadk      5   3        ; "/Lotus/Language/Sacrifice/Alignment_Ship_Sun"
7137  86010003           [05] loadnil    6   6      
713B  22818001           [06] call       4   3   2  
713F  5D810000           [07] getglobal  5   2        ; -421772368
7143  99010100           [08] loadk      6   4        ; "/Lotus/Language/Sacrifice/Alignment_Ship_Neutral"
7147  C6018003           [09] loadnil    7   7      
714B  62818001           [10] call       5   3   2  
714F  9D810000           [11] getglobal  6   2        ; -421772368
7153  D9410100           [12] loadk      7   5        ; "/Lotus/Language/Sacrifice/Alignment_Ship_Moon"
7157  06020004           [13] loadnil    8   8      
715B  A2818001           [14] call       6   3   2  
715F  CBC10000           [15] newtable   7   0   3    ; array=0, hash=3
7163  1DC20100           [16] getglobal  8   7        ; alignmentOpenSound
7167  CC010283           [17] settable   7   262 8    ; "open"
716B  1D420200           [18] getglobal  8   9        ; alignmentFocusSound
716F  CC010284           [19] settable   7   264 8    ; "focus"
7173  1DC20200           [20] getglobal  8   11       ; alignmentSelectSound
7177  CC010285           [21] settable   7   266 8    ; "select"
717B  62808003           [22] call       1   7   2  
fail op	8
717F  48000000           [23] setupval   1   0      
7183  1E008000           [24] return     0   1      
                         * constants:
7187  0C                 sizek (12)
7188  01                 const type 3
7189  82098842           const [0]: (1116211586)
718D  04                 const type 4
718E  0F                 string size (15)
718F  416C69676E6D656E+  "Alignmen"
7197  745F5368697000     "t_Ship\0"
                         const [1]: "Alignment_Ship"
719E  01                 const type 3
719F  B043DCE6           const [2]: (-421772368)
71A3  04                 const type 4
71A4  2D                 string size (45)
71A5  2F4C6F7475732F4C+  "/Lotus/L"
71AD  616E67756167652F+  "anguage/"
71B5  5361637269666963+  "Sacrific"
71BD  652F416C69676E6D+  "e/Alignm"
71C5  656E745F53686970+  "ent_Ship"
71CD  5F53756E00         "_Sun\0"
                         const [3]: "/Lotus/Language/Sacrifice/Alignment_Ship_Sun"
71D2  04                 const type 4
71D3  31                 string size (49)
71D4  2F4C6F7475732F4C+  "/Lotus/L"
71DC  616E67756167652F+  "anguage/"
71E4  5361637269666963+  "Sacrific"
71EC  652F416C69676E6D+  "e/Alignm"
71F4  656E745F53686970+  "ent_Ship"
71FC  5F4E65757472616C+  "_Neutral"
7204  00                 "\0"
                         const [4]: "/Lotus/Language/Sacrifice/Alignment_Ship_Neutral"
7205  04                 const type 4
7206  2E                 string size (46)
7207  2F4C6F7475732F4C+  "/Lotus/L"
720F  616E67756167652F+  "anguage/"
7217  5361637269666963+  "Sacrific"
721F  652F416C69676E6D+  "e/Alignm"
7227  656E745F53686970+  "ent_Ship"
722F  5F4D6F6F6E00       "_Moon\0"
                         const [5]: "/Lotus/Language/Sacrifice/Alignment_Ship_Moon"
7235  04                 const type 4
7236  05                 string size (5)
7237  6F70656E00         "open\0"
                         const [6]: "open"
723C  04                 const type 4
723D  13                 string size (19)
723E  616C69676E6D656E+  "alignmen"
7246  744F70656E536F75+  "tOpenSou"
724E  6E6400             "nd\0"
                         const [7]: "alignmentOpenSound"
7251  04                 const type 4
7252  06                 string size (6)
7253  666F63757300       "focus\0"
                         const [8]: "focus"
7259  04                 const type 4
725A  14                 string size (20)
725B  616C69676E6D656E+  "alignmen"
7263  74466F637573536F+  "tFocusSo"
726B  756E6400           "und\0"
                         const [9]: "alignmentFocusSound"
726F  04                 const type 4
7270  07                 string size (7)
7271  73656C65637400     "select\0"
                         const [10]: "select"
7278  04                 const type 4
7279  15                 string size (21)
727A  616C69676E6D656E+  "alignmen"
7282  7453656C65637453+  "tSelectS"
728A  6F756E6400         "ound\0"
                         const [11]: "alignmentSelectSound"
                         * functions:
728F  00                 sizep (0)
                         * lines:
7290  18                 sizelineinfo (24)
                         [pc] (line)
7291  22                 [01] (34)
7292  04                 [02] (35)
7293  00                 [03] (36)
7294  00                 [04] (36)
7295  23                 [05] (36)
7296  04                 [06] (36)
7297  00                 [07] (37)
7298  00                 [08] (37)
7299  24                 [09] (37)
729A  04                 [10] (37)
729B  00                 [11] (38)
729C  00                 [12] (38)
729D  24                 [13] (38)
729E  04                 [14] (38)
729F  00                 [15] (38)
72A0  00                 [16] (40)
72A1  24                 [17] (40)
72A2  04                 [18] (41)
72A3  00                 [19] (41)
72A4  00                 [20] (42)
72A5  24                 [21] (42)
72A6  04                 [22] (34)
72A7  00                 [23] (44)
72A8  00                 [24] (45)
                         * locals:
72F1  00                 sizelocvars (0)
                         * upvalues:
72F2  00                 sizeupvalues (0)
                         ** end of function **

                         * lines:
72F4  01                 sizelineinfo (150)
                         [pc] (line)
72F5  05                 [001] (5)
72F6  04                 [002] (5)
72F7  00                 [003] (5)
72F8  00                 [004] (5)
72F9  05                 [005] (5)
72FA  04                 [006] (5)
72FB  00                 [007] (7)
72FC  00                 [008] (7)
72FD  05                 [009] (7)
72FE  04                 [010] (7)
72FF  00                 [011] (7)
7300  00                 [012] (8)
7301  05                 [013] (8)
7302  04                 [014] (8)
7303  00                 [015] (8)
7304  00                 [016] (11)
7305  05                 [017] (12)
7306  04                 [018] (12)
7307  00                 [019] (12)
7308  00                 [020] (12)
7309  05                 [021] (13)
730A  04                 [022] (13)
730B  00                 [023] (13)
730C  00                 [024] (13)
730D  07                 [025] (13)
730E  04                 [026] (15)
730F  00                 [027] (15)
7310  00                 [028] (15)
7311  07                 [029] (16)
7312  04                 [030] (16)
7313  00                 [031] (16)
7314  00                 [032] (16)
7315  07                 [033] (16)
7316  04                 [034] (16)
7317  00                 [035] (18)
7318  00                 [036] (18)
7319  07                 [037] (20)
731A  04                 [038] (20)
731B  00                 [039] (20)
731C  00                 [040] (20)
731D  07                 [041] (20)
731E  04                 [042] (20)
731F  00                 [043] (20)
7320  00                 [044] (20)
7321  08                 [045] (20)
7322  04                 [046] (21)
7323  00                 [047] (21)
7324  00                 [048] (21)
7325  08                 [049] (23)
7326  04                 [050] (23)
7327  00                 [051] (24)
7328  00                 [052] (24)
7329  08                 [053] (24)
732A  04                 [054] (24)
732B  00                 [055] (24)
732C  00                 [056] (24)
732D  08                 [057] (24)
732E  04                 [058] (24)
732F  00                 [059] (25)
7330  00                 [060] (25)
7331  0B                 [061] (25)
7332  04                 [062] (27)
7333  00                 [063] (27)
7334  00                 [064] (27)
7335  0C                 [065] (29)
7336  04                 [066] (30)
7337  00                 [067] (30)
7338  00                 [068] (30)
7339  0C                 [069] (30)
733A  04                 [070] (30)
733B  00                 [071] (30)
733C  00                 [072] (30)
733D  0C                 [073] (31)
733E  04                 [074] (31)
733F  00                 [075] (31)
7340  00                 [076] (32)
7341  0C                 [077] (45)
7342  04                 [078] (45)
7343  00                 [079] (45)
7344  00                 [080] (46)
7345  0D                 [081] (48)
7346  04                 [082] (48)
7347  00                 [083] (48)
7348  00                 [084] (48)
7349  0D                 [085] (48)
734A  04                 [086] (48)
734B  00                 [087] (48)
734C  00                 [088] (49)
734D  0D                 [089] (49)
734E  04                 [090] (49)
734F  00                 [091] (51)
7350  00                 [092] (51)
7351  0D                 [093] (52)
7352  04                 [094] (52)
7353  00                 [095] (52)
7354  00                 [096] (52)
7355  0D                 [097] (54)
7356  04                 [098] (54)
7357  00                 [099] (54)
7358  00                 [100] (55)
7359  0F                 [101] (55)
735A  04                 [102] (57)
735B  00                 [103] (57)
735C  00                 [104] (57)
735D  0F                 [105] (59)
735E  04                 [106] (60)
735F  00                 [107] (60)
7360  00                 [108] (60)
7361  0F                 [109] (60)
7362  04                 [110] (61)
7363  00                 [111] (61)
7364  00                 [112] (61)
7365  10                 [113] (61)
7366  04                 [114] (61)
7367  00                 [115] (62)
7368  00                 [116] (62)
7369  10                 [117] (62)
736A  04                 [118] (62)
736B  00                 [119] (63)
736C  00                 [120] (63)
736D  10                 [121] (63)
736E  04                 [122] (63)
736F  00                 [123] (63)
7370  00                 [124] (64)
7371  10                 [125] (64)
7372  04                 [126] (64)
7373  00                 [127] (64)
7374  00                 [128] (65)
7375  10                 [129] (65)
7376  04                 [130] (65)
7377  00                 [131] (65)
7378  00                 [132] (65)
7379  10                 [133] (67)
737A  04                 [134] (67)
737B  00                 [135] (67)
737C  00                 [136] (70)
737D  12                 [137] (70)
737E  04                 [138] (71)
737F  00                 [139] (71)
7380  00                 [140] (71)
7381  12                 [141] (71)
7382  04                 [142] (71)
7383  00                 [143] (71)
7384  00                 [144] (71)
7385  14                 [145] (72)
7386  04                 [146] (72)
7387  00                 [147] (72)
7388  00                 [148] (75)
7389  14                 [149] (75)
738A  04                 [150] (76)
                         * locals:
754D  00                 sizelocvars (0)
                         * upvalues:
754E  00                 sizeupvalues (0)
                         ** end of function **

                         
754F                     ** function [25] definition (level 2)
                         ** start of function **
754F  00                 string size (0)
                         source name: (none)
7551  08                 line defined (1102)
7552  D9                 last line defined (1113)
7553  08                 nups (1)
7554  01                 numparams (0)
7555  00                 is_vararg (0)
7556  00                 maxstacksize (3)
                         * code:
7558  1D                 sizecode (29)
7559  13000000           [01] getupval   0   0      
755D  22408000           [02] call       0   1   1  
7561  1D000000           [03] getglobal  0   0        ; _T
7565  5D000000           [04] getglobal  1   0        ; _T
7569  4E40C000           [05] gettable   1   1   257  ; "QuestResetVars"
756D  58400000           [06] test       1       1    ; to [8] if false
7571  1A000080           [07] jmp        1            ; to [9]
7575  4B000000           [08] newtable   1   0   0    ; array=0, hash=0
7579  0C408080           [09] settable   0   257 1    ; "QuestResetVars"
757D  1D000000           [10] getglobal  0   0        ; _T
7581  0CC04081           [11] settable   0   258 259  ; "Arsenal_ForceUmbraUnlock" 1
7585  1D000100           [12] getglobal  0   4        ; allowEquippingUmbraSword
7589  18000000           [13] test       0       0    ; to [15] if true
758D  1A400080           [14] jmp        2            ; to [17]
7591  1D000000           [15] getglobal  0   0        ; _T
7595  0CC0C082           [16] settable   0   261 259  ; "Arsenal_ForceUmbraSwordUnlock" 1
7599  1D800100           [17] getglobal  0   6        ; table
759D  0EC04100           [18] gettable   0   0   263  ; -431682403
75A1  5D000000           [19] getglobal  1   0        ; _T
75A5  4E40C000           [20] gettable   1   1   257  ; "QuestResetVars"
75A9  99800000           [21] loadk      2   2        ; "Arsenal_ForceUmbraUnlock"
75AD  22408001           [22] call       0   3   1  
75B1  1D800100           [23] getglobal  0   6        ; table
75B5  0EC04100           [24] gettable   0   0   263  ; -431682403
75B9  5D000000           [25] getglobal  1   0        ; _T
75BD  4E40C000           [26] gettable   1   1   257  ; "QuestResetVars"
75C1  99400100           [27] loadk      2   5        ; "Arsenal_ForceUmbraSwordUnlock"
75C5  22408001           [28] call       0   3   1  
75C9  1E008000           [29] return     0   1      
                         * constants:
75CD  08                 sizek (8)
75CE  04                 const type 4
75CF  03                 string size (3)
75D0  5F5400             "_T\0"
                         const [0]: "_T"
75D3  04                 const type 4
75D4  0F                 string size (15)
75D5  5175657374526573+  "QuestRes"
75DD  65745661727300     "etVars\0"
                         const [1]: "QuestResetVars"
75E4  04                 const type 4
75E5  19                 string size (25)
75E6  417273656E616C5F+  "Arsenal_"
75EE  466F726365556D62+  "ForceUmb"
75F6  7261556E6C6F636B+  "raUnlock"
75FE  00                 "\0"
                         const [2]: "Arsenal_ForceUmbraUnlock"
75FF  01                 const type 3
7600  01000000           const [3]: (1)
7604  04                 const type 4
7605  19                 string size (25)
7606  616C6C6F77457175+  "allowEqu"
760E  697070696E67556D+  "ippingUm"
7616  62726153776F7264+  "braSword"
761E  00                 "\0"
                         const [4]: "allowEquippingUmbraSword"
761F  04                 const type 4
7620  1E                 string size (30)
7621  417273656E616C5F+  "Arsenal_"
7629  466F726365556D62+  "ForceUmb"
7631  726153776F726455+  "raSwordU"
7639  6E6C6F636B00       "nlock\0"
                         const [5]: "Arsenal_ForceUmbraSwordUnlock"
763F  04                 const type 4
7640  06                 string size (6)
7641  7461626C6500       "table\0"
                         const [6]: "table"
7647  01                 const type 3
7648  9D0C45E6           const [7]: (-431682403)
                         * functions:
764C  00                 sizep (0)
                         * lines:
764D  1D                 sizelineinfo (29)
                         [pc] (line)
764E  4F                 [01] (79)
764F  04                 [02] (79)
7650  00                 [03] (81)
7651  00                 [04] (81)
7652  4F                 [05] (81)
7653  04                 [06] (81)
7654  00                 [07] (81)
7655  00                 [08] (81)
7656  51                 [09] (81)
7657  04                 [10] (83)
7658  00                 [11] (83)
7659  00                 [12] (84)
765A  51                 [13] (84)
765B  04                 [14] (84)
765C  00                 [15] (85)
765D  00                 [16] (85)
765E  51                 [17] (87)
765F  04                 [18] (87)
7660  00                 [19] (87)
7661  00                 [20] (87)
7662  51                 [21] (87)
7663  04                 [22] (87)
7664  00                 [23] (88)
7665  00                 [24] (88)
7666  51                 [25] (88)
7667  04                 [26] (88)
7668  00                 [27] (88)
7669  00                 [28] (88)
766A  51                 [29] (89)
                         * locals:
76C2  00                 sizelocvars (0)
                         * upvalues:
76C3  00                 sizeupvalues (0)
                         ** end of function **

                         
76C4                     ** function [26] definition (level 2)
                         ** start of function **
76C4  00                 string size (0)
                         source name: (none)
76C6  08                 line defined (1115)
76C7  EB                 last line defined (1131)
76C8  08                 nups (2)
76C9  02                 numparams (0)
76CA  00                 is_vararg (0)
76CB  00                 maxstacksize (5)
                         * code:
76CD  28                 sizecode (40)
76CE  13000000           [01] getupval   0   0      
76D2  22408000           [02] call       0   1   1  
76D6  1D000000           [03] getglobal  0   0        ; -469071827
76DA  59400000           [04] loadk      1   1        ; "Sacrifice - A Day Later! -- Started!"
76DE  22400001           [05] call       0   2   1  
76E2  13008000           [06] getupval   0   1      
76E6  0E804000           [07] gettable   0   0   258  ; -984420368
76EA  5DC00000           [08] getglobal  1   3        ; operatorTwinDecoType
76EE  9D000100           [09] getglobal  2   4        ; operatorTwinVisibilityTriggerType
76F2  D7008000           [10] loadbool   3   1   0    ; true
76F6  22400002           [11] call       0   4   1  
76FA  1D400100           [12] getglobal  0   5        ; 538022378
76FE  59800100           [13] loadk      1   6        ; 0
7702  22400001           [14] call       0   2   1  
7706  1DC00100           [15] getglobal  0   7        ; gRegion
770A  24004200           [16] self       0   0   264  ; -1875307917
770E  9D400200           [17] getglobal  2   9        ; -332969190
7712  D9800200           [18] loadk      3   10       ; "OperatorTwin"
7716  A2000001           [19] call       2   2   0  
771A  22800000           [20] call       0   0   2  
771E  5DC00200           [21] getglobal  1   11       ; 1074689893
7722  92000000           [22] move       2   0      
7726  62800001           [23] call       1   2   2  
772A  58000000           [24] test       1       0    ; to [26] if true
772E  1A800280           [25] jmp        11           ; to [37]
7732  5DC00100           [26] getglobal  1   7        ; gRegion
7736  6400C200           [27] self       1   1   264  ; -1875307917
773A  DD400200           [28] getglobal  3   9        ; -332969190
773E  19810200           [29] loadk      4   10       ; "OperatorTwin"
7742  E2000001           [30] call       3   2   0  
7746  62800000           [31] call       1   0   2  
774A  12008000           [32] move       0   1      
774E  5D400100           [33] getglobal  1   5        ; 538022378
7752  99800100           [34] loadk      2   6        ; 0
7756  62400001           [35] call       1   2   1  
775A  1AC0FB7F           [36] jmp        -16          ; to [21]
775E  5D400100           [37] getglobal  1   5        ; 538022378
7762  99000300           [38] loadk      2   12       ; 0
7766  62400001           [39] call       1   2   1  
776A  1E008000           [40] return     0   1      
                         * constants:
776E  0D                 sizek (13)
776F  01                 const type 3
7770  2D880AE4           const [0]: (-469071827)
7774  04                 const type 4
7775  25                 string size (37)
7776  5361637269666963+  "Sacrific"
777E  65202D2041204461+  "e - A Da"
7786  79204C6174657221+  "y Later!"
778E  202D2D2053746172+  " -- Star"
7796  7465642100         "ted!\0"
                         const [1]: "Sacrifice - A Day Later! -- Started!"
779B  01                 const type 3
779C  F0EF52C5           const [2]: (-984420368)
77A0  04                 const type 4
77A1  15                 string size (21)
77A2  6F70657261746F72+  "operator"
77AA  5477696E4465636F+  "TwinDeco"
77B2  5479706500         "Type\0"
                         const [3]: "operatorTwinDecoType"
77B7  04                 const type 4
77B8  22                 string size (34)
77B9  6F70657261746F72+  "operator"
77C1  5477696E56697369+  "TwinVisi"
77C9  62696C6974795472+  "bilityTr"
77D1  6967676572547970+  "iggerTyp"
77D9  6500               "e\0"
                         const [4]: "operatorTwinVisibilityTriggerType"
77DB  01                 const type 3
77DC  EA911120           const [5]: (538022378)
77E0  03                 const type 3
77E1  00000000           const [6]: (0)
77E5  04                 const type 4
77E6  08                 string size (8)
77E7  67526567696F6E00   "gRegion\0"
                         const [7]: "gRegion"
77EF  01                 const type 3
77F0  73123990           const [8]: (-1875307917)
77F4  01                 const type 3
77F5  1A4B27EC           const [9]: (-332969190)
77F9  04                 const type 4
77FA  0D                 string size (13)
77FB  4F70657261746F72+  "Operator"
7803  5477696E00         "Twin\0"
                         const [10]: "OperatorTwin"
7808  01                 const type 3
7809  65770E40           const [11]: (1074689893)
780D  03                 const type 3
780E  0000803F           const [12]: (0)
                         * functions:
7812  00                 sizep (0)
                         * lines:
7813  28                 sizelineinfo (40)
                         [pc] (line)
7814  5D                 [01] (93)
7815  04                 [02] (93)
7816  00                 [03] (95)
7817  00                 [04] (95)
7818  5D                 [05] (95)
7819  04                 [06] (97)
781A  00                 [07] (97)
781B  00                 [08] (97)
781C  5F                 [09] (97)
781D  04                 [10] (97)
781E  00                 [11] (97)
781F  00                 [12] (98)
7820  5F                 [13] (98)
7821  04                 [14] (98)
7822  00                 [15] (99)
7823  00                 [16] (99)
7824  5F                 [17] (99)
7825  04                 [18] (99)
7826  00                 [19] (99)
7827  00                 [20] (99)
7828  61                 [21] (101)
7829  04                 [22] (101)
782A  00                 [23] (101)
782B  00                 [24] (101)
782C  61                 [25] (101)
782D  04                 [26] (102)
782E  00                 [27] (102)
782F  00                 [28] (102)
7830  61                 [29] (102)
7831  04                 [30] (102)
7832  00                 [31] (102)
7833  00                 [32] (102)
7834  61                 [33] (103)
7835  04                 [34] (103)
7836  00                 [35] (103)
7837  00                 [36] (103)
7838  61                 [37] (106)
7839  04                 [38] (106)
783A  00                 [39] (106)
783B  00                 [40] (107)
                         * locals:
78B4  00                 sizelocvars (0)
                         * upvalues:
78B5  00                 sizeupvalues (0)
                         ** end of function **

                         
78B6                     ** function [27] definition (level 2)
                         ** start of function **
78B6  00                 string size (0)
                         source name: (none)
78B8  08                 line defined (1133)
78B9  8F                 last line defined (1167)
78BA  09                 nups (6)
78BB  06                 numparams (0)
78BC  00                 is_vararg (0)
78BD  00                 maxstacksize (6)
                         * code:
78BF  4F                 sizecode (79)
78C0  13000000           [01] getupval   0   0      
78C4  22408000           [02] call       0   1   1  
78C8  1D000000           [03] getglobal  0   0        ; -469071827
78CC  59400000           [04] loadk      1   1        ; "SHIP THE END -- Started!"
78D0  22400001           [05] call       0   2   1  
78D4  13008000           [06] getupval   0   1      
78D8  22808000           [07] call       0   1   2  
78DC  53000001           [08] getupval   1   2      
78E0  4E80C000           [09] gettable   1   1   258  ; 910246418
78E4  A4C04000           [10] self       2   0   259  ; -781703361
78E8  1D010100           [11] getglobal  4   4        ; -332969190
78EC  59410100           [12] loadk      5   5        ; "DSacMSixShip3040OperatorVoice"
78F0  22010001           [13] call       4   2   0  
78F4  A2000000           [14] call       2   0   0  
78F8  62400000           [15] call       1   0   1  
78FC  53008001           [16] getupval   1   3      
7900  97008000           [17] loadbool   2   1   0    ; true
7904  62400001           [18] call       1   2   1  
7908  53000001           [19] getupval   1   2      
790C  4E80C000           [20] gettable   1   1   258  ; 910246418
7910  9D800100           [21] getglobal  2   6        ; transmissionSet
7914  A4C04001           [22] self       2   2   259  ; -781703361
7918  1D010100           [23] getglobal  4   4        ; -332969190
791C  59C10100           [24] loadk      5   7        ; "ShipEnd_Ordis1"
7920  22010001           [25] call       4   2   0  
7924  A2000000           [26] call       2   0   0  
7928  62400000           [27] call       1   0   1  
792C  53008001           [28] getupval   1   3      
7930  97008000           [29] loadbool   2   1   0    ; true
7934  62400001           [30] call       1   2   1  
7938  53000001           [31] getupval   1   2      
793C  4E80C000           [32] gettable   1   1   258  ; 910246418
7940  A4C04000           [33] self       2   0   259  ; -781703361
7944  1D010100           [34] getglobal  4   4        ; -332969190
7948  59010200           [35] loadk      5   8        ; "DSacMSixShip3070OperatorVoice"
794C  22010001           [36] call       4   2   0  
7950  A2000000           [37] call       2   0   0  
7954  62400000           [38] call       1   0   1  
7958  53008001           [39] getupval   1   3      
795C  97008000           [40] loadbool   2   1   0    ; true
7960  62400001           [41] call       1   2   1  
7964  5D400200           [42] getglobal  1   9        ; 538022378
7968  99800200           [43] loadk      2   10       ; 0
796C  62400001           [44] call       1   2   1  
7970  5D000000           [45] getglobal  1   0        ; -469071827
7974  99C00200           [46] loadk      2   11       ; "SHIP THE END -- Complete!"
7978  62400001           [47] call       1   2   1  
797C  5D000300           [48] getglobal  1   12       ; 1074689893
7980  9D400300           [49] getglobal  2   13       ; gGameData
7984  62800001           [50] call       1   2   2  
7988  58000000           [51] test       1       0    ; to [53] if true
798C  1AC00080           [52] jmp        4            ; to [57]
7990  5D400200           [53] getglobal  1   9        ; 538022378
7994  99800300           [54] loadk      2   14       ; 0
7998  62400001           [55] call       1   2   1  
799C  1A80FD7F           [56] jmp        -9           ; to [48]
79A0  5D400300           [57] getglobal  1   13       ; gGameData
79A4  64C0C300           [58] self       1   1   271  ; -1896407433
79A8  DD000100           [59] getglobal  3   4        ; -332969190
79AC  19010400           [60] loadk      4   16       ; "SacrificeADayLater"
79B0  E2800001           [61] call       3   2   2  
79B4  19410400           [62] loadk      4   17       ; 0
79B8  57010000           [63] loadbool   5   0   0    ; false
79BC  62408002           [64] call       1   5   1  
79C0  53000002           [65] getupval   1   4      
79C4  62408000           [66] call       1   1   1  
79C8  5D800400           [67] getglobal  1   18       ; _T
79CC  4EC0C400           [68] gettable   1   1   275  ; "CheckQuestCompletionCache"
79D0  58000000           [69] test       1       0    ; to [71] if true
79D4  1A400180           [70] jmp        6            ; to [77]
79D8  5D800400           [71] getglobal  1   18       ; _T
79DC  4EC0C400           [72] gettable   1   1   275  ; "CheckQuestCompletionCache"
79E0  9D000500           [73] getglobal  2   20       ; keyChain
79E4  A4404501           [74] self       2   2   277  ; 455421500
79E8  A2800001           [75] call       2   2   2  
79EC  4C804501           [76] settable   1   2   278  ; nil
79F0  53008002           [77] getupval   1   5      
79F4  62408000           [78] call       1   1   1  
79F8  1E008000           [79] return     0   1      
                         * constants:
79FC  17                 sizek (23)
79FD  01                 const type 3
79FE  2D880AE4           const [0]: (-469071827)
7A02  04                 const type 4
7A03  19                 string size (25)
7A04  5348495020544845+  "SHIP THE"
7A0C  20454E44202D2D20+  " END -- "
7A14  5374617274656421+  "Started!"
7A1C  00                 "\0"
                         const [1]: "SHIP THE END -- Started!"
7A1D  01                 const type 3
7A1E  12424136           const [2]: (910246418)
7A22  01                 const type 3
7A23  3F2768D1           const [3]: (-781703361)
7A27  01                 const type 3
7A28  1A4B27EC           const [4]: (-332969190)
7A2C  04                 const type 4
7A2D  1E                 string size (30)
7A2E  445361634D536978+  "DSacMSix"
7A36  5368697033303430+  "Ship3040"
7A3E  4F70657261746F72+  "Operator"
7A46  566F69636500       "Voice\0"
                         const [5]: "DSacMSixShip3040OperatorVoice"
7A4C  04                 const type 4
7A4D  10                 string size (16)
7A4E  7472616E736D6973+  "transmis"
7A56  73696F6E53657400   "sionSet\0"
                         const [6]: "transmissionSet"
7A5E  04                 const type 4
7A5F  0F                 string size (15)
7A60  53686970456E645F+  "ShipEnd_"
7A68  4F726469733100     "Ordis1\0"
                         const [7]: "ShipEnd_Ordis1"
7A6F  04                 const type 4
7A70  1E                 string size (30)
7A71  445361634D536978+  "DSacMSix"
7A79  5368697033303730+  "Ship3070"
7A81  4F70657261746F72+  "Operator"
7A89  566F69636500       "Voice\0"
                         const [8]: "DSacMSixShip3070OperatorVoice"
7A8F  01                 const type 3
7A90  EA911120           const [9]: (538022378)
7A94  03                 const type 3
7A95  00004040           const [10]: (0)
7A99  04                 const type 4
7A9A  1A                 string size (26)
7A9B  5348495020544845+  "SHIP THE"
7AA3  20454E44202D2D20+  " END -- "
7AAB  436F6D706C657465+  "Complete"
7AB3  2100               "!\0"
                         const [11]: "SHIP THE END -- Complete!"
7AB5  01                 const type 3
7AB6  65770E40           const [12]: (1074689893)
7ABA  04                 const type 4
7ABB  0A                 string size (10)
7ABC  6747616D65446174+  "gGameDat"
7AC4  6100               "a\0"
                         const [13]: "gGameData"
7AC6  03                 const type 3
7AC7  00000000           const [14]: (0)
7ACB  01                 const type 3
7ACC  771EF78E           const [15]: (-1896407433)
7AD0  04                 const type 4
7AD1  13                 string size (19)
7AD2  5361637269666963+  "Sacrific"
7ADA  65414461794C6174+  "eADayLat"
7AE2  657200             "er\0"
                         const [16]: "SacrificeADayLater"
7AE5  03                 const type 3
7AE6  00C0A847           const [17]: (0)
7AEA  04                 const type 4
7AEB  03                 string size (3)
7AEC  5F5400             "_T\0"
                         const [18]: "_T"
7AEF  04                 const type 4
7AF0  1A                 string size (26)
7AF1  436865636B517565+  "CheckQue"
7AF9  7374436F6D706C65+  "stComple"
7B01  74696F6E43616368+  "tionCach"
7B09  6500               "e\0"
                         const [19]: "CheckQuestCompletionCache"
7B0B  04                 const type 4
7B0C  09                 string size (9)
7B0D  6B6579436861696E+  "keyChain"
7B15  00                 "\0"
                         const [20]: "keyChain"
7B16  01                 const type 3
7B17  3C2E251B           const [21]: (455421500)
7B1B  00                 const type 0
                         const [22]: nil
                         * functions:
7B1C  00                 sizep (0)
                         * lines:
7B1D  4F                 sizelineinfo (79)
                         [pc] (line)
7B1E  6F                 [01] (111)
7B1F  04                 [02] (111)
7B20  00                 [03] (113)
7B21  00                 [04] (113)
7B22  6F                 [05] (113)
7B23  04                 [06] (115)
7B24  00                 [07] (115)
7B25  00                 [08] (119)
7B26  71                 [09] (119)
7B27  04                 [10] (119)
7B28  00                 [11] (119)
7B29  00                 [12] (119)
7B2A  71                 [13] (119)
7B2B  04                 [14] (119)
7B2C  00                 [15] (119)
7B2D  00                 [16] (120)
7B2E  71                 [17] (120)
7B2F  04                 [18] (120)
7B30  00                 [19] (121)
7B31  00                 [20] (121)
7B32  73                 [21] (121)
7B33  04                 [22] (121)
7B34  00                 [23] (121)
7B35  00                 [24] (121)
7B36  73                 [25] (121)
7B37  04                 [26] (121)
7B38  00                 [27] (121)
7B39  00                 [28] (122)
7B3A  77                 [29] (122)
7B3B  04                 [30] (122)
7B3C  00                 [31] (123)
7B3D  00                 [32] (123)
7B3E  77                 [33] (123)
7B3F  04                 [34] (123)
7B40  00                 [35] (123)
7B41  00                 [36] (123)
7B42  77                 [37] (123)
7B43  04                 [38] (123)
7B44  00                 [39] (124)
7B45  00                 [40] (124)
7B46  77                 [41] (124)
7B47  04                 [42] (126)
7B48  00                 [43] (126)
7B49  00                 [44] (126)
7B4A  77                 [45] (127)
7B4B  04                 [46] (127)
7B4C  00                 [47] (127)
7B4D  00                 [48] (-127)
7B4E  77                 [49] (-127)
7B4F  04                 [50] (-127)
7B50  00                 [51] (-127)
7B51  00                 [52] (-127)
7B52  77                 [53] (-126)
7B53  04                 [54] (-126)
7B54  00                 [55] (-126)
7B55  00                 [56] (-126)
7B56  77                 [57] (-122)
7B57  04                 [58] (-122)
7B58  00                 [59] (-122)
7B59  00                 [60] (-122)
7B5A  78                 [61] (-122)
7B5B  04                 [62] (-122)
7B5C  00                 [63] (-122)
7B5D  00                 [64] (-122)
7B5E  78                 [65] (-119)
7B5F  04                 [66] (-119)
7B60  00                 [67] (-118)
7B61  00                 [68] (-118)
7B62  78                 [69] (-118)
7B63  04                 [70] (-118)
7B64  00                 [71] (-117)
7B65  00                 [72] (-117)
7B66  79                 [73] (-117)
7B67  04                 [74] (-117)
7B68  00                 [75] (-117)
7B69  00                 [76] (-117)
7B6A  79                 [77] (-115)
7B6B  04                 [78] (-115)
7B6C  00                 [79] (-113)
                         * locals:
7C5A  00                 sizelocvars (0)
                         * upvalues:
7C5B  00                 sizeupvalues (0)
                         ** end of function **

                         
7C5C                     ** function [28] definition (level 2)
                         ** start of function **
7C5C  00                 string size (0)
                         source name: (none)
7C5E  09                 line defined (1169)
7C5F  95                 last line defined (1173)
7C60  09                 nups (1)
7C61  01                 numparams (0)
7C62  00                 is_vararg (0)
7C63  00                 maxstacksize (2)
                         * code:
7C65  03                 sizecode (3)
7C66  13000000           [1] getupval   0   0      
7C6A  22408000           [2] call       0   1   1  
7C6E  1E008000           [3] return     0   1      
                         * constants:
7C72  00                 sizek (0)
                         * functions:
7C73  00                 sizep (0)
                         * lines:
7C74  03                 sizelineinfo (3)
                         [pc] (line)
7C75  93                 [1] (-109)
7C76  04                 [2] (-109)
7C77  00                 [3] (-107)
                         * locals:
7C81  00                 sizelocvars (0)
                         * upvalues:
7C82  00                 sizeupvalues (0)
                         ** end of function **

                         * lines:
7C84  01                 sizelineinfo (178)
                         [pc] (line)
7C85  20                 [001] (32)
7C86  00                 [002] (32)
7C87  00                 [003] (32)
7C88  00                 [004] (33)
7C89  20                 [005] (33)
7C8A  00                 [006] (33)
7C8B  00                 [007] (35)
7C8C  00                 [008] (35)
7C8D  20                 [009] (35)
7C8E  00                 [010] (36)
7C8F  00                 [011] (36)
7C90  00                 [012] (36)
7C91  21                 [013] (37)
7C92  00                 [014] (39)
7C93  00                 [015] (45)
7C94  00                 [016] (45)
7C95  21                 [017] (45)
7C96  00                 [018] (46)
7C97  00                 [019] (46)
7C98  00                 [020] (46)
7C99  21                 [021] (47)
7C9A  00                 [022] (47)
7C9B  00                 [023] (47)
7C9C  00                 [024] (57)
7C9D  23                 [025] (57)
7C9E  00                 [026] (57)
7C9F  00                 [027] (57)
7CA0  00                 [028] (50)
7CA1  23                 [029] (94)
7CA2  00                 [030] (94)
7CA3  00                 [031] (94)
7CA4  00                 [032] (94)
7CA5  23                 [033] (103)
7CA6  00                 [034] (103)
7CA7  00                 [035] (103)
7CA8  00                 [036] (103)
7CA9  24                 [037] (96)
7CAA  00                 [038] (-112)
7CAB  00                 [039] (-112)
7CAC  00                 [040] (-112)
7CAD  24                 [041] (-112)
7CAE  00                 [042] (-102)
7CAF  00                 [043] (-102)
7CB0  00                 [044] (-86)
7CB1  24                 [045] (-76)
7CB2  00                 [046] (-62)
7CB3  00                 [047] (-48)
7CB4  00                 [048] (-40)
7CB5  25                 [049] (-40)
7CB6  00                 [050] (-106)
7CB7  00                 [051] (-106)
7CB8  00                 [052] (-106)
7CB9  27                 [053] (-106)
7CBA  00                 [054] (-106)
7CBB  00                 [055] (-106)
7CBC  00                 [056] (-106)
7CBD  2D                 [057] (-106)
7CBE  00                 [058] (-106)
7CBF  00                 [059] (-106)
7CC0  00                 [060] (-38)
7CC1  2D                 [061] (-54)
7CC2  00                 [062] (-54)
7CC3  00                 [063] (-54)
7CC4  00                 [064] (-54)
7CC5  2D                 [065] (-54)
7CC6  00                 [066] (-54)
7CC7  00                 [067] (-54)
7CC8  00                 [068] (-54)
7CC9  2E                 [069] (-54)
7CCA  00                 [070] (-54)
7CCB  00                 [071] (-104)
7CCC  00                 [072] (-49)
7CCD  2E                 [073] (-49)
7CCE  00                 [074] (-45)
7CCF  00                 [075] (-45)
7CD0  00                 [076] (-45)
7CD1  2E                 [077] (-47)
7CD2  00                 [078] (-43)
7CD3  00                 [079] (-42)
7CD4  00                 [080] (12)
7CD5  2F                 [081] (12)
7CD6  00                 [082] (12)
7CD7  00                 [083] (12)
7CD8  00                 [084] (-41)
7CD9  2F                 [085] (107)
7CDA  00                 [086] (107)
7CDB  00                 [087] (107)
7CDC  00                 [088] (107)
7CDD  2F                 [089] (107)
7CDE  00                 [090] (107)
7CDF  00                 [091] (107)
7CE0  00                 [092] (107)
7CE1  39                 [093] (107)
7CE2  00                 [094] (107)
7CE3  00                 [095] (14)
7CE4  00                 [096] (-112)
7CE5  39                 [097] (-112)
7CE6  00                 [098] (-112)
7CE7  00                 [099] (-112)
7CE8  00                 [100] (-112)
7CE9  39                 [101] (-112)
7CEA  00                 [102] (-112)
7CEB  00                 [103] (109)
7CEC  00                 [104] (-110)
7CED  39                 [105] (85)
7CEE  00                 [106] (85)
7CEF  00                 [107] (85)
7CF0  00                 [108] (85)
7CF1  32                 [109] (85)
7CF2  00                 [110] (85)
7CF3  00                 [111] (85)
7CF4  00                 [112] (85)
7CF5  5E                 [113] (85)
7CF6  00                 [114] (85)
7CF7  00                 [115] (85)
7CF8  00                 [116] (-109)
7CF9  5E                 [117] (100)
7CFA  00                 [118] (100)
7CFB  00                 [119] (105)
7CFC  00                 [120] (105)
7CFD  5E                 [121] (102)
7CFE  00                 [122] (-110)
7CFF  00                 [123] (-110)
7D00  00                 [124] (-110)
7D01  5E                 [125] (-110)
7D02  00                 [126] (-110)
7D03  00                 [127] (-110)
7D04  00                 [128] (-77)
7D05  67                 [129] (-77)
7D06  00                 [130] (-77)
7D07  00                 [131] (-77)
7D08  00                 [132] (-77)
7D09  67                 [133] (-77)
7D0A  00                 [134] (-77)
7D0B  00                 [135] (-77)
7D0C  00                 [136] (-108)
7D0D  67                 [137] (-66)
7D0E  00                 [138] (-66)
7D0F  00                 [139] (-75)
7D10  00                 [140] (2)
7D11  67                 [141] (2)
7D12  00                 [142] (2)
7D13  00                 [143] (2)
7D14  00                 [144] (2)
7D15  60                 [145] (2)
7D16  00                 [146] (2)
7D17  00                 [147] (2)
7D18  00                 [148] (2)
7D19  90                 [149] (-64)
7D1A  00                 [150] (76)
7D1B  00                 [151] (76)
7D1C  00                 [152] (76)
7D1D  90                 [153] (76)
7D1E  00                 [154] (76)
7D1F  00                 [155] (76)
7D20  00                 [156] (76)
7D21  90                 [157] (4)
7D22  00                 [158] (89)
7D23  00                 [159] (89)
7D24  00                 [160] (89)
7D25  90                 [161] (78)
7D26  00                 [162] (107)
7D27  00                 [163] (107)
7D28  00                 [164] (107)
7D29  9A                 [165] (-113)
7D2A  00                 [166] (-113)
7D2B  00                 [167] (-113)
7D2C  00                 [168] (-113)
7D2D  9A                 [169] (-113)
7D2E  00                 [170] (-113)
7D2F  00                 [171] (-113)
7D30  00                 [172] (-113)
7D31  AA                 [173] (109)
7D32  00                 [174] (-107)
7D33  00                 [175] (-107)
7D34  00                 [176] (-107)
7D35  B4                 [177] (-111)
7D36  00                 [178] (-107)
                         * locals:
7F4D  00                 sizelocvars (0)
                         * upvalues:
7F4E  00                 sizeupvalues (0)
                         ** end of function **

7F4F                     ** end of chunk **
