1	C:\wlua_dump\path\Lotus\Scripts\WeaponAttachmentsFuris.lua
Pos   Hex Data           Description or Code
------------------------------------------------------------------------
0000                     ** source chunk: C:\wlua_dump\path\Lotus\Scripts\WeaponAttachmentsFuris.lua
                         ** global header start **
0000  7F                 header signature: ""
0001  00                 version (major:minor hex digits)
0002  00                 format (0=official)
0003  00                 endianness (1=little endian)
0004  00                 size of int (bytes)
0005  00                 size of size_t (bytes)
0006  02                 size of Instruction (bytes)
0007  03                 size of number (bytes)
0008  30                 integral (1=integral)
448
                         * number type: single
                         * x86 standard (32-bit, little endian, doubles)
                         ** global header end **
AttachWeaponToHand
RestoreWeaponToDefaultHand
ReloadDropClips
DestroyClipInHand
AttachClipToHand
AttachClipToWeapon
MakeClipsVisible
HideAnimatedClipAndDropMesh
ShowAnimatedClip
SpinBasedOnFireRate
WeaponFire
UpdateAltFireSpin
DynamicClipApplyCustomization
LoadedClipApplyCustomization
offsetPos
defaultRotation
clipBone
clipType
Lotus_Game
LWPT_GUN_CLIP
darkSectorCreatedClipType
createdClipType
gRegion
clipType
gRegion
clipType
EMPTY_SYMBOL
clipBone
offsetPos
ZERO_ROTATION
clipType
clipBone
EMPTY_SYMBOL
alsoHideAttachment
clipType
Lotus_Game
LWPT_GUN_CLIP
darkSectorModeOnly
clipBone
darkSectorCreatedClipType
createdClipType
gRegion
alsoHideAttachment
clipType
Lotus_Game
LWPT_GUN_CLIP
ZERO_ROTATION
ZERO_VECTOR
secondClipBone

darkSectorModeOnly
clipBone
ZERO_ROTATION
ZERO_VECTOR
secondClipBone

alsoHideAttachment
clipType
Lotus_Game
LWPT_GUN_CLIP
defaultRotation
_T
priString
gGameRules
gLotusHubGameRulesType
fastCharge
decayRate
maxCharge
spinMinVelocity
spinMaxVelocity
heading
x
pitch
y
bank
z
_T
priString
math
maxCharge
primaryIncrement
altString
secondaryIncrement
gGameRules
gLotusHubGameRulesType
defaultRotation
_T
altString
x
heading
y
pitch
z
bank
diffMultiplier
math
spinMinVelocity
spinMaxVelocity
gLotusWeaponType
Engine
THIRD_PERSON
Lotus_Game
LWPT_GUN_CLIP
gLotusWeaponAttachmentType
Lotus_Game
LWPT_GUN_CLIP
                         
0001                     ** function [0] definition (level 1)
                         ** start of function **
0001  00                 string size (0)
                         source name: (none)
0002  00                 line defined (0)
0003  00                 last line defined (0)
0004  00                 nups (0)
0005  00                 numparams (0)
0006  02                 is_vararg (2)
0007  03                 maxstacksize (3)
                         * code:
0008  30                 sizecode (48)
0009  17000000           [01] loadbool   0   0   0    ; false
000D  65000000           [02] closure    1   0      
0011  60000000           [03] setglobal  1   0        ; AttachWeaponToHand
0015  60400000           [04] setglobal  1   1        ; -895740768
0019  65400000           [05] closure    1   1      
001D  60800000           [06] setglobal  1   2        ; RestoreWeaponToDefaultHand
0021  60C00000           [07] setglobal  1   3        ; -954492938
0025  65800000           [08] closure    1   2      
0029  60000100           [09] setglobal  1   4        ; ReloadDropClips
002D  60400100           [10] setglobal  1   5        ; -451708853
0031  65C00000           [11] closure    1   3      
0035  60800100           [12] setglobal  1   6        ; DestroyClipInHand
0039  60C00100           [13] setglobal  1   7        ; 1625788474
003D  65000100           [14] closure    1   4      
0041  60000200           [15] setglobal  1   8        ; AttachClipToHand
0045  60400200           [16] setglobal  1   9        ; -323792115
0049  65400100           [17] closure    1   5      
004D  60800200           [18] setglobal  1   10       ; AttachClipToWeapon
0051  60C00200           [19] setglobal  1   11       ; -13882873
0055  65800100           [20] closure    1   6      
0059  60000300           [21] setglobal  1   12       ; MakeClipsVisible
005D  60400300           [22] setglobal  1   13       ; -1643103359
0061  65C00100           [23] closure    1   7      
0065  60800300           [24] setglobal  1   14       ; HideAnimatedClipAndDropMesh
0069  60C00300           [25] setglobal  1   15       ; -665773931
006D  65000200           [26] closure    1   8      
0071  60000400           [27] setglobal  1   16       ; ShowAnimatedClip
0075  60400400           [28] setglobal  1   17       ; 1899341046
0079  65400200           [29] closure    1   9      
007D  12000000           [30] move       0   0      
0081  60800400           [31] setglobal  1   18       ; SpinBasedOnFireRate
0085  60C00400           [32] setglobal  1   19       ; -2059053609
0089  65800200           [33] closure    1   10     
008D  60000500           [34] setglobal  1   20       ; WeaponFire
0091  60400500           [35] setglobal  1   21       ; 1217915629
0095  65C00200           [36] closure    1   11     
0099  60800500           [37] setglobal  1   22       ; UpdateAltFireSpin
009D  60C00500           [38] setglobal  1   23       ; -2094355784
00A1  65000300           [39] closure    1   12     
00A5  A5400300           [40] closure    2   13     
00A9  12008000           [41] move       0   1      
00AD  A0000600           [42] setglobal  2   24       ; DynamicClipApplyCustomization
00B1  A0400600           [43] setglobal  2   25       ; -1197429750
00B5  A5800300           [44] closure    2   14     
00B9  12008000           [45] move       0   1      
00BD  A0800600           [46] setglobal  2   26       ; LoadedClipApplyCustomization
00C1  A0C00600           [47] setglobal  2   27       ; 458903176
00C5  1E008000           [48] return     0   1      
                         * constants:
00C9  1C                 sizek (28)
00CA  04                 const type 4
00CB  13                 string size (19)
00CC  4174746163685765+  "AttachWe"
00D4  61706F6E546F4861+  "aponToHa"
00DC  6E6400             "nd\0"
                         const [0]: "AttachWeaponToHand"
00DF  01                 const type 3
00E0  A0149CCA           const [1]: (-895740768)
00E4  04                 const type 4
00E5  1B                 string size (27)
00E6  526573746F726557+  "RestoreW"
00EE  6561706F6E546F44+  "eaponToD"
00F6  656661756C744861+  "efaultHa"
00FE  6E6400             "nd\0"
                         const [2]: "RestoreWeaponToDefaultHand"
0101  01                 const type 3
0102  F6971BC7           const [3]: (-954492938)
0106  04                 const type 4
0107  10                 string size (16)
0108  52656C6F61644472+  "ReloadDr"
0110  6F70436C69707300   "opClips\0"
                         const [4]: "ReloadDropClips"
0118  01                 const type 3
0119  4B7813E5           const [5]: (-451708853)
011D  04                 const type 4
011E  12                 string size (18)
011F  44657374726F7943+  "DestroyC"
0127  6C6970496E48616E+  "lipInHan"
012F  6400               "d\0"
                         const [6]: "DestroyClipInHand"
0131  01                 const type 3
0132  3A90E760           const [7]: (1625788474)
0136  04                 const type 4
0137  11                 string size (17)
0138  417474616368436C+  "AttachCl"
0140  6970546F48616E64+  "ipToHand"
0148  00                 "\0"
                         const [8]: "AttachClipToHand"
0149  01                 const type 3
014A  0D53B3EC           const [9]: (-323792115)
014E  04                 const type 4
014F  13                 string size (19)
0150  417474616368436C+  "AttachCl"
0158  6970546F57656170+  "ipToWeap"
0160  6F6E00             "on\0"
                         const [10]: "AttachClipToWeapon"
0163  01                 const type 3
0164  072A2CFF           const [11]: (-13882873)
0168  04                 const type 4
0169  11                 string size (17)
016A  4D616B65436C6970+  "MakeClip"
0172  7356697369626C65+  "sVisible"
017A  00                 "\0"
                         const [12]: "MakeClipsVisible"
017B  01                 const type 3
017C  813B109E           const [13]: (-1643103359)
0180  04                 const type 4
0181  1C                 string size (28)
0182  48696465416E696D+  "HideAnim"
018A  61746564436C6970+  "atedClip"
0192  416E6444726F704D+  "AndDropM"
019A  65736800           "esh\0"
                         const [14]: "HideAnimatedClipAndDropMesh"
019E  01                 const type 3
019F  951851D8           const [15]: (-665773931)
01A3  04                 const type 4
01A4  11                 string size (17)
01A5  53686F77416E696D+  "ShowAnim"
01AD  61746564436C6970+  "atedClip"
01B5  00                 "\0"
                         const [16]: "ShowAnimatedClip"
01B6  01                 const type 3
01B7  F6A43571           const [17]: (1899341046)
01BB  04                 const type 4
01BC  14                 string size (20)
01BD  5370696E42617365+  "SpinBase"
01C5  644F6E4669726552+  "dOnFireR"
01CD  61746500           "ate\0"
                         const [18]: "SpinBasedOnFireRate"
01D1  01                 const type 3
01D2  D7554585           const [19]: (-2059053609)
01D6  04                 const type 4
01D7  0B                 string size (11)
01D8  576561706F6E4669+  "WeaponFi"
01E0  726500             "re\0"
                         const [20]: "WeaponFire"
01E3  01                 const type 3
01E4  EDEA9748           const [21]: (1217915629)
01E8  04                 const type 4
01E9  12                 string size (18)
01EA  557064617465416C+  "UpdateAl"
01F2  7446697265537069+  "tFireSpi"
01FA  6E00               "n\0"
                         const [22]: "UpdateAltFireSpin"
01FC  01                 const type 3
01FD  B8AA2A83           const [23]: (-2094355784)
0201  04                 const type 4
0202  1E                 string size (30)
0203  44796E616D696343+  "DynamicC"
020B  6C69704170706C79+  "lipApply"
0213  437573746F6D697A+  "Customiz"
021B  6174696F6E00       "ation\0"
                         const [24]: "DynamicClipApplyCustomization"
0221  01                 const type 3
0222  0AACA0B8           const [25]: (-1197429750)
0226  04                 const type 4
0227  1D                 string size (29)
0228  4C6F61646564436C+  "LoadedCl"
0230  69704170706C7943+  "ipApplyC"
0238  7573746F6D697A61+  "ustomiza"
0240  74696F6E00         "tion\0"
                         const [26]: "LoadedClipApplyCustomization"
0245  01                 const type 3
0246  884E5A1B           const [27]: (458903176)
                         * functions:
024A  0F                 sizep (15)
                         
024B                     ** function [0] definition (level 2)
                         ** start of function **
024B  00                 string size (0)
                         source name: (none)
024C  1D                 line defined (29)
024D  26                 last line defined (38)
024E  00                 nups (0)
024F  01                 numparams (1)
0250  00                 is_vararg (0)
0251  07                 maxstacksize (7)
                         * code:
0252  17                 sizecode (23)
0253  64004000           [01] self       1   0   256  ; 421792552
0257  62800001           [02] call       1   2   2  
025B  9D400000           [03] getglobal  2   1        ; 1074689893
025F  D2008000           [04] move       3   1      
0263  A2800001           [05] call       2   2   2  
0267  98400000           [06] test       2       1    ; to [8] if false
026B  1A800380           [07] jmp        15           ; to [23]
026F  A480C000           [08] self       2   1   258  ; -1538682285
0273  A2800001           [09] call       2   2   2  
0277  DD400000           [10] getglobal  3   1        ; 1074689893
027B  12010001           [11] move       4   2      
027F  E2800001           [12] call       3   2   2  
0283  D8400000           [13] test       3       1    ; to [15] if false
0287  1AC00180           [14] jmp        8            ; to [23]
028B  E4C04000           [15] self       3   0   259  ; -1484030041
028F  5D010100           [16] getglobal  5   4        ; offsetPos
0293  9D410100           [17] getglobal  6   5        ; defaultRotation
0297  E2400002           [18] call       3   4   1  
029B  E4804100           [19] self       3   0   262  ; 1010603981
029F  52010001           [20] move       5   2      
02A3  9DC10100           [21] getglobal  6   7        ; clipBone
02A7  E2400002           [22] call       3   4   1  
02AB  1E008000           [23] return     0   1      
                         * constants:
02AF  08                 sizek (8)
02B0  01                 const type 3
02B1  280B2419           const [0]: (421792552)
02B5  01                 const type 3
02B6  65770E40           const [1]: (1074689893)
02BA  01                 const type 3
02BB  539249A4           const [2]: (-1538682285)
02BF  01                 const type 3
02C0  A77F8BA7           const [3]: (-1484030041)
02C4  04                 const type 4
02C5  0A                 string size (10)
02C6  6F6666736574506F+  "offsetPo"
02CE  7300               "s\0"
                         const [4]: "offsetPos"
02D0  04                 const type 4
02D1  10                 string size (16)
02D2  64656661756C7452+  "defaultR"
02DA  6F746174696F6E00   "otation\0"
                         const [5]: "defaultRotation"
02E2  01                 const type 3
02E3  CD973C3C           const [6]: (1010603981)
02E7  04                 const type 4
02E8  09                 string size (9)
02E9  636C6970426F6E65+  "clipBone"
02F1  00                 "\0"
                         const [7]: "clipBone"
                         * functions:
02F2  00                 sizep (0)
                         * lines:
02F3  17                 sizelineinfo (23)
                         [pc] (line)
02F4  1E                 [01] (30)
02F5  00                 [02] (30)
02F6  00                 [03] (31)
02F7  00                 [04] (31)
02F8  1E                 [05] (31)
02F9  00                 [06] (31)
02FA  00                 [07] (31)
02FB  00                 [08] (32)
02FC  1F                 [09] (32)
02FD  00                 [10] (33)
02FE  00                 [11] (33)
02FF  00                 [12] (33)
0300  1F                 [13] (33)
0301  00                 [14] (33)
0302  00                 [15] (34)
0303  00                 [16] (34)
0304  1F                 [17] (34)
0305  00                 [18] (34)
0306  00                 [19] (35)
0307  00                 [20] (35)
0308  1F                 [21] (35)
0309  00                 [22] (35)
030A  00                 [23] (38)
                         * locals:
0350  00                 sizelocvars (0)
                         * upvalues:
0351  00                 sizeupvalues (0)
                         ** end of function **

                         
0352                     ** function [1] definition (level 2)
                         ** start of function **
0352  00                 string size (0)
                         source name: (none)
0353  28                 line defined (40)
0354  2A                 last line defined (42)
0355  00                 nups (0)
0356  01                 numparams (1)
0357  00                 is_vararg (0)
0358  03                 maxstacksize (3)
                         * code:
0359  03                 sizecode (3)
035A  64004000           [1] self       1   0   256  ; 317525569
035E  62400001           [2] call       1   2   1  
0362  1E008000           [3] return     0   1      
                         * constants:
0366  01                 sizek (1)
0367  01                 const type 3
0368  410EED12           const [0]: (317525569)
                         * functions:
036C  00                 sizep (0)
                         * lines:
036D  03                 sizelineinfo (3)
                         [pc] (line)
036E  29                 [1] (41)
036F  00                 [2] (41)
0370  00                 [3] (42)
                         * locals:
037A  00                 sizelocvars (0)
                         * upvalues:
037B  00                 sizeupvalues (0)
                         ** end of function **

                         
037C                     ** function [2] definition (level 2)
                         ** start of function **
037C  00                 string size (0)
                         source name: (none)
037D  2C                 line defined (44)
037E  4B                 last line defined (75)
037F  00                 nups (0)
0380  01                 numparams (1)
0381  00                 is_vararg (0)
0382  0C                 maxstacksize (12)
                         * code:
0383  48                 sizecode (72)
0384  64004000           [01] self       1   0   256  ; -1625438872
0388  DD400000           [02] getglobal  3   1        ; clipType
038C  62808001           [03] call       1   3   2  
0390  A4804000           [04] self       2   0   258  ; 421792552
0394  A2800001           [05] call       2   2   2  
0398  DDC00000           [06] getglobal  3   3        ; 1074689893
039C  12010001           [07] move       4   2      
03A0  E2800001           [08] call       3   2   2  
03A4  D8400000           [09] test       3       1    ; to [11] if false
03A8  1A400380           [10] jmp        14           ; to [25]
03AC  E4004101           [11] self       3   2   260  ; 830516712
03B0  E2800001           [12] call       3   2   2  
03B4  D8000000           [13] test       3       0    ; to [15] if true
03B8  1A400280           [14] jmp        10           ; to [25]
03BC  DDC00000           [15] getglobal  3   3        ; 1074689893
03C0  12018000           [16] move       4   1      
03C4  E2800001           [17] call       3   2   2  
03C8  D8000000           [18] test       3       0    ; to [20] if true
03CC  1A000180           [19] jmp        5            ; to [25]
03D0  E4404101           [20] self       3   2   261  ; 1264818901
03D4  5D810100           [21] getglobal  5   6        ; Lotus_Game
03D8  4EC1C102           [22] gettable   5   5   263  ; "LWPT_GUN_CLIP"
03DC  E2808001           [23] call       3   3   2  
03E0  52008001           [24] move       1   3      
03E4  E4004200           [25] self       3   0   264  ; -1944400657
03E8  E2800001           [26] call       3   2   2  
03EC  D8000000           [27] test       3       0    ; to [29] if true
03F0  1A800A80           [28] jmp        43           ; to [72]
03F4  E4404200           [29] self       3   0   265  ; 196800914
03F8  E2800001           [30] call       3   2   2  
03FC  24814200           [31] self       4   0   266  ; 54877834
0400  22810001           [32] call       4   2   2  
0404  5DC10000           [33] getglobal  5   3        ; 1074689893
0408  92018000           [34] move       6   1      
040C  62810001           [35] call       5   2   2  
0410  58410000           [36] test       5       1    ; to [38] if false
0414  1A400280           [37] jmp        10           ; to [48]
0418  64C1C200           [38] self       5   1   267  ; 2109594123
041C  D7010000           [39] loadbool   7   0   0    ; false
0420  17028000           [40] loadbool   8   1   0    ; true
0424  62410002           [41] call       5   4   1  
0428  6441C200           [42] self       5   1   265  ; 196800914
042C  62810001           [43] call       5   2   2  
0430  D2008002           [44] move       3   5      
0434  6481C200           [45] self       5   1   266  ; 54877834
0438  62810001           [46] call       5   2   2  
043C  12018002           [47] move       4   5      
0440  46018002           [48] loadnil    5   5      
0444  A4014301           [49] self       6   2   268  ; 1049255893
0448  A2810001           [50] call       6   2   2  
044C  98010000           [51] test       6       0    ; to [53] if true
0450  1A000080           [52] jmp        1            ; to [54]
0454  5D410300           [53] getglobal  5   13       ; darkSectorCreatedClipType
0458  9DC10000           [54] getglobal  6   3        ; 1074689893
045C  D2018002           [55] move       7   5      
0460  A2810001           [56] call       6   2   2  
0464  98010000           [57] test       6       0    ; to [59] if true
0468  1A000080           [58] jmp        1            ; to [60]
046C  5D810300           [59] getglobal  5   14       ; createdClipType
0470  9DC10000           [60] getglobal  6   3        ; 1074689893
0474  D2018002           [61] move       7   5      
0478  A2810001           [62] call       6   2   2  
047C  98410000           [63] test       6       1    ; to [65] if false
0480  1A800180           [64] jmp        7            ; to [72]
0484  9DC10300           [65] getglobal  6   15       ; gRegion
0488  A4014403           [66] self       6   6   272  ; -1110225722
048C  12028002           [67] move       8   5      
0490  52028001           [68] move       9   3      
0494  92020002           [69] move       10  4      
0498  D2020001           [70] move       11  2      
049C  A2410003           [71] call       6   6   1  
04A0  1E008000           [72] return     0   1      
                         * constants:
04A4  11                 sizek (17)
04A5  01                 const type 3
04A6  68C51D9F           const [0]: (-1625438872)
04AA  04                 const type 4
04AB  09                 string size (9)
04AC  636C697054797065+  "clipType"
04B4  00                 "\0"
                         const [1]: "clipType"
04B5  01                 const type 3
04B6  280B2419           const [2]: (421792552)
04BA  01                 const type 3
04BB  65770E40           const [3]: (1074689893)
04BF  01                 const type 3
04C0  E8AD8031           const [4]: (830516712)
04C4  01                 const type 3
04C5  D59A634B           const [5]: (1264818901)
04C9  04                 const type 4
04CA  0B                 string size (11)
04CB  4C6F7475735F4761+  "Lotus_Ga"
04D3  6D6500             "me\0"
                         const [6]: "Lotus_Game"
04D6  04                 const type 4
04D7  0E                 string size (14)
04D8  4C5750545F47554E+  "LWPT_GUN"
04E0  5F434C495000       "_CLIP\0"
                         const [7]: "LWPT_GUN_CLIP"
04E6  01                 const type 3
04E7  EFCC1A8C           const [8]: (-1944400657)
04EB  01                 const type 3
04EC  92F1BA0B           const [9]: (196800914)
04F0  01                 const type 3
04F1  8A5E4503           const [10]: (54877834)
04F5  01                 const type 3
04F6  0BDABD7D           const [11]: (2109594123)
04FA  01                 const type 3
04FB  D55F8A3E           const [12]: (1049255893)
04FF  04                 const type 4
0500  1A                 string size (26)
0501  6461726B53656374+  "darkSect"
0509  6F72437265617465+  "orCreate"
0511  64436C6970547970+  "dClipTyp"
0519  6500               "e\0"
                         const [13]: "darkSectorCreatedClipType"
051B  04                 const type 4
051C  10                 string size (16)
051D  6372656174656443+  "createdC"
0525  6C69705479706500   "lipType\0"
                         const [14]: "createdClipType"
052D  04                 const type 4
052E  08                 string size (8)
052F  67526567696F6E00   "gRegion\0"
                         const [15]: "gRegion"
0537  01                 const type 3
0538  C64CD3BD           const [16]: (-1110225722)
                         * functions:
053C  00                 sizep (0)
                         * lines:
053D  48                 sizelineinfo (72)
                         [pc] (line)
053E  2D                 [01] (45)
053F  00                 [02] (45)
0540  00                 [03] (45)
0541  00                 [04] (46)
0542  2D                 [05] (46)
0543  00                 [06] (47)
0544  00                 [07] (47)
0545  00                 [08] (47)
0546  2D                 [09] (47)
0547  00                 [10] (47)
0548  00                 [11] (47)
0549  00                 [12] (47)
054A  2E                 [13] (47)
054B  00                 [14] (47)
054C  00                 [15] (47)
054D  00                 [16] (47)
054E  2E                 [17] (47)
054F  00                 [18] (47)
0550  00                 [19] (47)
0551  00                 [20] (48)
0552  2F                 [21] (48)
0553  00                 [22] (48)
0554  00                 [23] (48)
0555  00                 [24] (48)
0556  2F                 [25] (51)
0557  00                 [26] (51)
0558  00                 [27] (51)
0559  00                 [28] (51)
055A  2F                 [29] (52)
055B  00                 [30] (52)
055C  00                 [31] (53)
055D  00                 [32] (53)
055E  2F                 [33] (55)
055F  00                 [34] (55)
0560  00                 [35] (55)
0561  00                 [36] (55)
0562  2F                 [37] (55)
0563  00                 [38] (56)
0564  00                 [39] (56)
0565  00                 [40] (56)
0566  2F                 [41] (56)
0567  00                 [42] (57)
0568  00                 [43] (57)
0569  00                 [44] (57)
056A  2F                 [45] (58)
056B  00                 [46] (58)
056C  00                 [47] (58)
056D  00                 [48] (63)
056E  2F                 [49] (64)
056F  00                 [50] (64)
0570  00                 [51] (64)
0571  00                 [52] (64)
0572  2F                 [53] (65)
0573  00                 [54] (67)
0574  00                 [55] (67)
0575  00                 [56] (67)
0576  2F                 [57] (67)
0577  00                 [58] (67)
0578  00                 [59] (68)
0579  00                 [60] (71)
057A  2F                 [61] (71)
057B  00                 [62] (71)
057C  00                 [63] (71)
057D  00                 [64] (71)
057E  2F                 [65] (72)
057F  00                 [66] (72)
0580  00                 [67] (72)
0581  00                 [68] (72)
0582  2F                 [69] (72)
0583  00                 [70] (72)
0584  00                 [71] (72)
0585  00                 [72] (75)
                         * locals:
065E  00                 sizelocvars (0)
                         * upvalues:
065F  00                 sizeupvalues (0)
                         ** end of function **

                         
0660                     ** function [3] definition (level 2)
                         ** start of function **
0660  00                 string size (0)
                         source name: (none)
0661  4D                 line defined (77)
0662  56                 last line defined (86)
0663  00                 nups (0)
0664  01                 numparams (1)
0665  00                 is_vararg (0)
0666  06                 maxstacksize (6)
                         * code:
0667  17                 sizecode (23)
0668  64004000           [01] self       1   0   256  ; 421792552
066C  62800001           [02] call       1   2   2  
0670  6440C000           [03] self       1   1   257  ; -1538682285
0674  62800001           [04] call       1   2   2  
0678  9D800000           [05] getglobal  2   2        ; 1074689893
067C  D2008000           [06] move       3   1      
0680  A2800001           [07] call       2   2   2  
0684  98000000           [08] test       2       0    ; to [10] if true
0688  1A000080           [09] jmp        1            ; to [11]
068C  1E008000           [10] return     0   1      
0690  A4C0C000           [11] self       2   1   259  ; -1625438872
0694  1D010100           [12] getglobal  4   4        ; clipType
0698  A2808001           [13] call       2   3   2  
069C  DD800000           [14] getglobal  3   2        ; 1074689893
06A0  12010001           [15] move       4   2      
06A4  E2800001           [16] call       3   2   2  
06A8  D8400000           [17] test       3       1    ; to [19] if false
06AC  1AC00080           [18] jmp        4            ; to [23]
06B0  DD400100           [19] getglobal  3   5        ; gRegion
06B4  E480C101           [20] self       3   3   262  ; -1693828985
06B8  52010001           [21] move       5   2      
06BC  E2408001           [22] call       3   3   1  
06C0  1E008000           [23] return     0   1      
                         * constants:
06C4  07                 sizek (7)
06C5  01                 const type 3
06C6  280B2419           const [0]: (421792552)
06CA  01                 const type 3
06CB  539249A4           const [1]: (-1538682285)
06CF  01                 const type 3
06D0  65770E40           const [2]: (1074689893)
06D4  01                 const type 3
06D5  68C51D9F           const [3]: (-1625438872)
06D9  04                 const type 4
06DA  09                 string size (9)
06DB  636C697054797065+  "clipType"
06E3  00                 "\0"
                         const [4]: "clipType"
06E4  04                 const type 4
06E5  08                 string size (8)
06E6  67526567696F6E00   "gRegion\0"
                         const [5]: "gRegion"
06EE  01                 const type 3
06EF  87380A9B           const [6]: (-1693828985)
                         * functions:
06F3  00                 sizep (0)
                         * lines:
06F4  17                 sizelineinfo (23)
                         [pc] (line)
06F5  4E                 [01] (78)
06F6  00                 [02] (78)
06F7  00                 [03] (78)
06F8  00                 [04] (78)
06F9  4E                 [05] (79)
06FA  00                 [06] (79)
06FB  00                 [07] (79)
06FC  00                 [08] (79)
06FD  4E                 [09] (79)
06FE  00                 [10] (80)
06FF  00                 [11] (82)
0700  00                 [12] (82)
0701  4E                 [13] (82)
0702  00                 [14] (83)
0703  00                 [15] (83)
0704  00                 [16] (83)
0705  4F                 [17] (83)
0706  00                 [18] (83)
0707  00                 [19] (84)
0708  00                 [20] (84)
0709  4F                 [21] (84)
070A  00                 [22] (84)
070B  00                 [23] (86)
                         * locals:
0751  00                 sizelocvars (0)
                         * upvalues:
0752  00                 sizeupvalues (0)
                         ** end of function **

                         
0753                     ** function [4] definition (level 2)
                         ** start of function **
0753  00                 string size (0)
                         source name: (none)
0754  58                 line defined (88)
0755  68                 last line defined (104)
0756  00                 nups (0)
0757  01                 numparams (1)
0758  00                 is_vararg (0)
0759  08                 maxstacksize (8)
                         * code:
075A  2C                 sizecode (44)
075B  64004000           [01] self       1   0   256  ; -1625438872
075F  DD400000           [02] getglobal  3   1        ; clipType
0763  62808001           [03] call       1   3   2  
0767  A4804000           [04] self       2   0   258  ; 421792552
076B  A2800001           [05] call       2   2   2  
076F  DDC00000           [06] getglobal  3   3        ; 1074689893
0773  12018000           [07] move       4   1      
0777  E2800001           [08] call       3   2   2  
077B  D8000000           [09] test       3       0    ; to [11] if true
077F  1A000180           [10] jmp        5            ; to [16]
0783  E4004100           [11] self       3   0   260  ; -1421644046
0787  5D410000           [12] getglobal  5   1        ; clipType
078B  9D410100           [13] getglobal  6   5        ; EMPTY_SYMBOL
078F  E2800002           [14] call       3   4   2  
0793  52008001           [15] move       1   3      
0797  DDC00000           [16] getglobal  3   3        ; 1074689893
079B  12010001           [17] move       4   2      
079F  E2800001           [18] call       3   2   2  
07A3  D8400000           [19] test       3       1    ; to [21] if false
07A7  1A800580           [20] jmp        23           ; to [44]
07AB  E4804101           [21] self       3   2   262  ; -1538682285
07AF  E2800001           [22] call       3   2   2  
07B3  1DC10000           [23] getglobal  4   3        ; 1074689893
07B7  52018000           [24] move       5   1      
07BB  22810001           [25] call       4   2   2  
07BF  18410000           [26] test       4       1    ; to [28] if false
07C3  1AC00380           [27] jmp        16           ; to [44]
07C7  1DC10000           [28] getglobal  4   3        ; 1074689893
07CB  52018001           [29] move       5   3      
07CF  22810001           [30] call       4   2   2  
07D3  18410000           [31] test       4       1    ; to [33] if false
07D7  1A800280           [32] jmp        11           ; to [44]
07DB  24C1C100           [33] self       4   1   263  ; 1146685999
07DF  92018001           [34] move       6   3      
07E3  DD010200           [35] getglobal  7   8        ; clipBone
07E7  22410002           [36] call       4   4   1  
07EB  2441C200           [37] self       4   1   265  ; -1484030041
07EF  9D810200           [38] getglobal  6   10       ; offsetPos
07F3  DDC10200           [39] getglobal  7   11       ; ZERO_ROTATION
07F7  22410002           [40] call       4   4   1  
07FB  2401C300           [41] self       4   1   268  ; 2109594123
07FF  97018000           [42] loadbool   6   1   0    ; true
0803  22418001           [43] call       4   3   1  
0807  1E008000           [44] return     0   1      
                         * constants:
080B  0D                 sizek (13)
080C  01                 const type 3
080D  68C51D9F           const [0]: (-1625438872)
0811  04                 const type 4
0812  09                 string size (9)
0813  636C697054797065+  "clipType"
081B  00                 "\0"
                         const [1]: "clipType"
081C  01                 const type 3
081D  280B2419           const [2]: (421792552)
0821  01                 const type 3
0822  65770E40           const [3]: (1074689893)
0826  01                 const type 3
0827  F26E43AB           const [4]: (-1421644046)
082B  04                 const type 4
082C  0D                 string size (13)
082D  454D5054595F5359+  "EMPTY_SY"
0835  4D424F4C00         "MBOL\0"
                         const [5]: "EMPTY_SYMBOL"
083A  01                 const type 3
083B  539249A4           const [6]: (-1538682285)
083F  01                 const type 3
0840  2F0A5944           const [7]: (1146685999)
0844  04                 const type 4
0845  09                 string size (9)
0846  636C6970426F6E65+  "clipBone"
084E  00                 "\0"
                         const [8]: "clipBone"
084F  01                 const type 3
0850  A77F8BA7           const [9]: (-1484030041)
0854  04                 const type 4
0855  0A                 string size (10)
0856  6F6666736574506F+  "offsetPo"
085E  7300               "s\0"
                         const [10]: "offsetPos"
0860  04                 const type 4
0861  0E                 string size (14)
0862  5A45524F5F524F54+  "ZERO_ROT"
086A  4154494F4E00       "ATION\0"
                         const [11]: "ZERO_ROTATION"
0870  01                 const type 3
0871  0BDABD7D           const [12]: (2109594123)
                         * functions:
0875  00                 sizep (0)
                         * lines:
0876  2C                 sizelineinfo (44)
                         [pc] (line)
0877  59                 [01] (89)
0878  00                 [02] (89)
0879  00                 [03] (89)
087A  00                 [04] (90)
087B  59                 [05] (90)
087C  00                 [06] (92)
087D  00                 [07] (92)
087E  00                 [08] (92)
087F  59                 [09] (92)
0880  00                 [10] (92)
0881  00                 [11] (93)
0882  00                 [12] (93)
0883  5A                 [13] (93)
0884  00                 [14] (93)
0885  00                 [15] (93)
0886  00                 [16] (96)
0887  5A                 [17] (96)
0888  00                 [18] (96)
0889  00                 [19] (96)
088A  00                 [20] (96)
088B  5C                 [21] (97)
088C  00                 [22] (97)
088D  00                 [23] (98)
088E  00                 [24] (98)
088F  5C                 [25] (98)
0890  00                 [26] (98)
0891  00                 [27] (98)
0892  00                 [28] (98)
0893  5C                 [29] (98)
0894  00                 [30] (98)
0895  00                 [31] (98)
0896  00                 [32] (98)
0897  5C                 [33] (99)
0898  00                 [34] (99)
0899  00                 [35] (99)
089A  00                 [36] (99)
089B  5C                 [37] (100)
089C  00                 [38] (100)
089D  00                 [39] (100)
089E  00                 [40] (100)
089F  5D                 [41] (101)
08A0  00                 [42] (101)
08A1  00                 [43] (101)
08A2  00                 [44] (104)
                         * locals:
0927  00                 sizelocvars (0)
                         * upvalues:
0928  00                 sizeupvalues (0)
                         ** end of function **

                         
0929                     ** function [5] definition (level 2)
                         ** start of function **
0929  00                 string size (0)
                         source name: (none)
092A  6A                 line defined (106)
092B  78                 last line defined (120)
092C  00                 nups (0)
092D  01                 numparams (1)
092E  00                 is_vararg (0)
092F  07                 maxstacksize (7)
                         * code:
0930  24                 sizecode (36)
0931  64004000           [01] self       1   0   256  ; 421792552
0935  62800001           [02] call       1   2   2  
0939  6440C000           [03] self       1   1   257  ; -1538682285
093D  62800001           [04] call       1   2   2  
0941  9D800000           [05] getglobal  2   2        ; 1074689893
0945  D2008000           [06] move       3   1      
0949  A2800001           [07] call       2   2   2  
094D  98000000           [08] test       2       0    ; to [10] if true
0951  1A000080           [09] jmp        1            ; to [11]
0955  1E008000           [10] return     0   1      
0959  A4C0C000           [11] self       2   1   259  ; -1625438872
095D  1D010100           [12] getglobal  4   4        ; clipType
0961  A2808001           [13] call       2   3   2  
0965  DD800000           [14] getglobal  3   2        ; 1074689893
0969  12010001           [15] move       4   2      
096D  E2800001           [16] call       3   2   2  
0971  D8400000           [17] test       3       1    ; to [19] if false
0975  1A000480           [18] jmp        17           ; to [36]
0979  DD800000           [19] getglobal  3   2        ; 1074689893
097D  1D410100           [20] getglobal  4   5        ; clipBone
0981  E2800001           [21] call       3   2   2  
0985  D8000000           [22] test       3       0    ; to [24] if true
0989  1A000180           [23] jmp        5            ; to [29]
098D  E4804101           [24] self       3   2   262  ; 1146685999
0991  52010000           [25] move       5   0      
0995  9DC10100           [26] getglobal  6   7        ; EMPTY_SYMBOL
0999  E2400002           [27] call       3   4   1  
099D  1AC00080           [28] jmp        4            ; to [33]
09A1  E4804101           [29] self       3   2   262  ; 1146685999
09A5  52010000           [30] move       5   0      
09A9  9D410100           [31] getglobal  6   5        ; clipBone
09AD  E2400002           [32] call       3   4   1  
09B1  E4004201           [33] self       3   2   264  ; 2109594123
09B5  5D410200           [34] getglobal  5   9        ; alsoHideAttachment
09B9  E2408001           [35] call       3   3   1  
09BD  1E008000           [36] return     0   1      
                         * constants:
09C1  0A                 sizek (10)
09C2  01                 const type 3
09C3  280B2419           const [0]: (421792552)
09C7  01                 const type 3
09C8  539249A4           const [1]: (-1538682285)
09CC  01                 const type 3
09CD  65770E40           const [2]: (1074689893)
09D1  01                 const type 3
09D2  68C51D9F           const [3]: (-1625438872)
09D6  04                 const type 4
09D7  09                 string size (9)
09D8  636C697054797065+  "clipType"
09E0  00                 "\0"
                         const [4]: "clipType"
09E1  04                 const type 4
09E2  09                 string size (9)
09E3  636C6970426F6E65+  "clipBone"
09EB  00                 "\0"
                         const [5]: "clipBone"
09EC  01                 const type 3
09ED  2F0A5944           const [6]: (1146685999)
09F1  04                 const type 4
09F2  0D                 string size (13)
09F3  454D5054595F5359+  "EMPTY_SY"
09FB  4D424F4C00         "MBOL\0"
                         const [7]: "EMPTY_SYMBOL"
0A00  01                 const type 3
0A01  0BDABD7D           const [8]: (2109594123)
0A05  04                 const type 4
0A06  13                 string size (19)
0A07  616C736F48696465+  "alsoHide"
0A0F  4174746163686D65+  "Attachme"
0A17  6E7400             "nt\0"
                         const [9]: "alsoHideAttachment"
                         * functions:
0A1A  00                 sizep (0)
                         * lines:
0A1B  24                 sizelineinfo (36)
                         [pc] (line)
0A1C  6B                 [01] (107)
0A1D  00                 [02] (107)
0A1E  00                 [03] (107)
0A1F  00                 [04] (107)
0A20  6B                 [05] (108)
0A21  00                 [06] (108)
0A22  00                 [07] (108)
0A23  00                 [08] (108)
0A24  6B                 [09] (108)
0A25  00                 [10] (109)
0A26  00                 [11] (111)
0A27  00                 [12] (111)
0A28  6B                 [13] (111)
0A29  00                 [14] (112)
0A2A  00                 [15] (112)
0A2B  00                 [16] (112)
0A2C  6C                 [17] (112)
0A2D  00                 [18] (112)
0A2E  00                 [19] (113)
0A2F  00                 [20] (113)
0A30  6C                 [21] (113)
0A31  00                 [22] (113)
0A32  00                 [23] (113)
0A33  00                 [24] (114)
0A34  6C                 [25] (114)
0A35  00                 [26] (114)
0A36  00                 [27] (114)
0A37  00                 [28] (114)
0A38  6C                 [29] (116)
0A39  00                 [30] (116)
0A3A  00                 [31] (116)
0A3B  00                 [32] (116)
0A3C  6C                 [33] (118)
0A3D  00                 [34] (118)
0A3E  00                 [35] (118)
0A3F  00                 [36] (120)
                         * locals:
0AAC  00                 sizelocvars (0)
                         * upvalues:
0AAD  00                 sizeupvalues (0)
                         ** end of function **

                         
0AAE                     ** function [6] definition (level 2)
                         ** start of function **
0AAE  00                 string size (0)
                         source name: (none)
0AAF  7A                 line defined (122)
0AB0  84                 last line defined (132)
0AB1  01                 nups (0)
0AB2  00                 numparams (1)
0AB3  01                 is_vararg (0)
0AB4  00                 maxstacksize (7)
                         * code:
0AB6  26                 sizecode (38)
0AB7  64004000           [01] self       1   0   256  ; -1625438872
0ABB  DD400000           [02] getglobal  3   1        ; clipType
0ABF  62808001           [03] call       1   3   2  
0AC3  A4804000           [04] self       2   0   258  ; 421792552
0AC7  A2800001           [05] call       2   2   2  
0ACB  DDC00000           [06] getglobal  3   3        ; 1074689893
0ACF  12010001           [07] move       4   2      
0AD3  E2800001           [08] call       3   2   2  
0AD7  D8400000           [09] test       3       1    ; to [11] if false
0ADB  1A400380           [10] jmp        14           ; to [25]
0ADF  E4004101           [11] self       3   2   260  ; 830516712
0AE3  E2800001           [12] call       3   2   2  
0AE7  D8000000           [13] test       3       0    ; to [15] if true
0AEB  1A400280           [14] jmp        10           ; to [25]
0AEF  DDC00000           [15] getglobal  3   3        ; 1074689893
0AF3  12018000           [16] move       4   1      
0AF7  E2800001           [17] call       3   2   2  
0AFB  D8000000           [18] test       3       0    ; to [20] if true
0AFF  1A000180           [19] jmp        5            ; to [25]
0B03  E4404101           [20] self       3   2   261  ; 1264818901
0B07  5D810100           [21] getglobal  5   6        ; Lotus_Game
0B0B  4EC1C102           [22] gettable   5   5   263  ; "LWPT_GUN_CLIP"
0B0F  E2808001           [23] call       3   3   2  
0B13  52008001           [24] move       1   3      
0B17  E4004200           [25] self       3   0   264  ; -1944400657
0B1B  E2800001           [26] call       3   2   2  
0B1F  D8000000           [27] test       3       0    ; to [29] if true
0B23  1A000280           [28] jmp        9            ; to [38]
0B27  DDC00000           [29] getglobal  3   3        ; 1074689893
0B2B  12018000           [30] move       4   1      
0B2F  E2800001           [31] call       3   2   2  
0B33  D8400000           [32] test       3       1    ; to [34] if false
0B37  1AC00080           [33] jmp        4            ; to [38]
0B3B  E440C200           [34] self       3   1   265  ; 2109594123
0B3F  57018000           [35] loadbool   5   1   0    ; true
0B43  97018000           [36] loadbool   6   1   0    ; true
0B47  E2400002           [37] call       3   4   1  
0B4B  1E008000           [38] return     0   1      
                         * constants:
0B4F  0A                 sizek (10)
0B50  01                 const type 3
0B51  68C51D9F           const [0]: (-1625438872)
0B55  04                 const type 4
0B56  09                 string size (9)
0B57  636C697054797065+  "clipType"
0B5F  00                 "\0"
                         const [1]: "clipType"
0B60  01                 const type 3
0B61  280B2419           const [2]: (421792552)
0B65  01                 const type 3
0B66  65770E40           const [3]: (1074689893)
0B6A  01                 const type 3
0B6B  E8AD8031           const [4]: (830516712)
0B6F  01                 const type 3
0B70  D59A634B           const [5]: (1264818901)
0B74  04                 const type 4
0B75  0B                 string size (11)
0B76  4C6F7475735F4761+  "Lotus_Ga"
0B7E  6D6500             "me\0"
                         const [6]: "Lotus_Game"
0B81  04                 const type 4
0B82  0E                 string size (14)
0B83  4C5750545F47554E+  "LWPT_GUN"
0B8B  5F434C495000       "_CLIP\0"
                         const [7]: "LWPT_GUN_CLIP"
0B91  01                 const type 3
0B92  EFCC1A8C           const [8]: (-1944400657)
0B96  01                 const type 3
0B97  0BDABD7D           const [9]: (2109594123)
                         * functions:
0B9B  00                 sizep (0)
                         * lines:
0B9C  26                 sizelineinfo (38)
                         [pc] (line)
0B9D  7B                 [01] (123)
0B9E  00                 [02] (123)
0B9F  00                 [03] (123)
0BA0  00                 [04] (124)
0BA1  7B                 [05] (124)
0BA2  00                 [06] (125)
0BA3  00                 [07] (125)
0BA4  00                 [08] (125)
0BA5  7B                 [09] (125)
0BA6  00                 [10] (125)
0BA7  00                 [11] (125)
0BA8  00                 [12] (125)
0BA9  7C                 [13] (125)
0BAA  00                 [14] (125)
0BAB  00                 [15] (125)
0BAC  00                 [16] (125)
0BAD  7C                 [17] (125)
0BAE  00                 [18] (125)
0BAF  00                 [19] (125)
0BB0  00                 [20] (126)
0BB1  7D                 [21] (126)
0BB2  00                 [22] (126)
0BB3  00                 [23] (126)
0BB4  00                 [24] (126)
0BB5  7D                 [25] (-127)
0BB6  00                 [26] (-127)
0BB7  00                 [27] (-127)
0BB8  00                 [28] (-127)
0BB9  7D                 [29] (-127)
0BBA  00                 [30] (-127)
0BBB  00                 [31] (-127)
0BBC  00                 [32] (-127)
0BBD  7D                 [33] (-127)
0BBE  00                 [34] (-126)
0BBF  00                 [35] (-126)
0BC0  00                 [36] (-126)
0BC1  7D                 [37] (-126)
0BC2  00                 [38] (-124)
                         * locals:
0C35  00                 sizelocvars (0)
                         * upvalues:
0C36  00                 sizeupvalues (0)
                         ** end of function **

                         
0C37                     ** function [7] definition (level 2)
                         ** start of function **
0C37  00                 string size (0)
                         source name: (none)
0C39  01                 line defined (134)
0C3A  AD                 last line defined (173)
0C3B  01                 nups (0)
0C3C  00                 numparams (1)
0C3D  01                 is_vararg (0)
0C3E  00                 maxstacksize (11)
                         * code:
0C40  5C                 sizecode (92)
0C41  64004000           [01] self       1   0   256  ; 421792552
0C45  62800001           [02] call       1   2   2  
0C49  A440C000           [03] self       2   1   257  ; 1049255893
0C4D  A2800001           [04] call       2   2   2  
0C51  DD800000           [05] getglobal  3   2        ; darkSectorModeOnly
0C55  D8000000           [06] test       3       0    ; to [8] if true
0C59  1A800080           [07] jmp        3            ; to [11]
0C5D  98400000           [08] test       2       1    ; to [10] if false
0C61  1A000080           [09] jmp        1            ; to [11]
0C65  1E008000           [10] return     0   1      
0C69  E4C04000           [11] self       3   0   259  ; -1944400657
0C6D  E2800001           [12] call       3   2   2  
0C71  D8000000           [13] test       3       0    ; to [15] if true
0C75  1A000180           [14] jmp        5            ; to [20]
0C79  DD000100           [15] getglobal  3   4        ; 1074689893
0C7D  1D410100           [16] getglobal  4   5        ; clipBone
0C81  E2800001           [17] call       3   2   2  
0C85  D8000000           [18] test       3       0    ; to [20] if true
0C89  1A000080           [19] jmp        1            ; to [21]
0C8D  1E008000           [20] return     0   1      
0C91  C6008001           [21] loadnil    3   3      
0C95  98000000           [22] test       2       0    ; to [24] if true
0C99  1A000080           [23] jmp        1            ; to [25]
0C9D  DD800100           [24] getglobal  3   6        ; darkSectorCreatedClipType
0CA1  1D010100           [25] getglobal  4   4        ; 1074689893
0CA5  52018001           [26] move       5   3      
0CA9  22810001           [27] call       4   2   2  
0CAD  18010000           [28] test       4       0    ; to [30] if true
0CB1  1A000080           [29] jmp        1            ; to [31]
0CB5  DDC00100           [30] getglobal  3   7        ; createdClipType
0CB9  1D010100           [31] getglobal  4   4        ; 1074689893
0CBD  52018001           [32] move       5   3      
0CC1  22810001           [33] call       4   2   2  
0CC5  18410000           [34] test       4       1    ; to [36] if false
0CC9  1A800280           [35] jmp        11           ; to [47]
0CCD  1D010200           [36] getglobal  4   8        ; gRegion
0CD1  24414202           [37] self       4   4   265  ; -1110225722
0CD5  92018001           [38] move       6   3      
0CD9  E4814200           [39] self       7   0   266  ; -1565518332
0CDD  5D420100           [40] getglobal  9   5        ; clipBone
0CE1  E2818001           [41] call       7   3   2  
0CE5  24C24200           [42] self       8   0   267  ; -1328951599
0CE9  9D420100           [43] getglobal  10  5        ; clipBone
0CED  22828001           [44] call       8   3   2  
0CF1  52028000           [45] move       9   1      
0CF5  22410003           [46] call       4   6   1  
0CF9  1D010300           [47] getglobal  4   12       ; alsoHideAttachment
0CFD  18010000           [48] test       4       0    ; to [50] if true
0D01  1A000680           [49] jmp        25           ; to [75]
0D05  24414300           [50] self       4   0   269  ; -1625438872
0D09  9D810300           [51] getglobal  6   14       ; clipType
0D0D  22818001           [52] call       4   3   2  
0D11  5D010100           [53] getglobal  5   4        ; 1074689893
0D15  92010002           [54] move       6   4      
0D19  62810001           [55] call       5   2   2  
0D1D  58010000           [56] test       5       0    ; to [58] if true
0D21  1A000280           [57] jmp        9            ; to [67]
0D25  64C1C300           [58] self       5   1   271  ; 830516712
0D29  62810001           [59] call       5   2   2  
0D2D  58010000           [60] test       5       0    ; to [62] if true
0D31  1A000180           [61] jmp        5            ; to [67]
0D35  6401C400           [62] self       5   1   272  ; 1264818901
0D39  DD410400           [63] getglobal  7   17       ; Lotus_Game
0D3D  CE81C403           [64] gettable   7   7   274  ; "LWPT_GUN_CLIP"
0D41  62818001           [65] call       5   3   2  
0D45  12018002           [66] move       4   5      
0D49  5D010100           [67] getglobal  5   4        ; 1074689893
0D4D  92010002           [68] move       6   4      
0D51  62810001           [69] call       5   2   2  
0D55  58410000           [70] test       5       1    ; to [72] if false
0D59  1A800080           [71] jmp        3            ; to [75]
0D5D  64C14402           [72] self       5   4   275  ; 2109594123
0D61  D7010000           [73] loadbool   7   0   0    ; false
0D65  62418001           [74] call       5   3   1  
0D69  64014500           [75] self       5   0   276  ; 112745428
0D6D  DD410100           [76] getglobal  7   5        ; clipBone
0D71  1D420500           [77] getglobal  8   21       ; ZERO_ROTATION
0D75  5D820500           [78] getglobal  9   22       ; ZERO_VECTOR
0D79  9D820500           [79] getglobal  10  22       ; ZERO_VECTOR
0D7D  62410003           [80] call       5   6   1  
0D81  5DC10500           [81] getglobal  5   23       ; -1615931716
0D85  9D010600           [82] getglobal  6   24       ; secondClipBone
0D89  62810001           [83] call       5   2   2  
fail op	35
0D8D  6340C602           [84] close      1  
0D91  1A400180           [85] jmp        6            ; to [92]
0D95  64014500           [86] self       5   0   276  ; 112745428
0D99  DD010600           [87] getglobal  7   24       ; secondClipBone
0D9D  1D420500           [88] getglobal  8   21       ; ZERO_ROTATION
0DA1  5D820500           [89] getglobal  9   22       ; ZERO_VECTOR
0DA5  9D820500           [90] getglobal  10  22       ; ZERO_VECTOR
0DA9  62410003           [91] call       5   6   1  
0DAD  1E008000           [92] return     0   1      
                         * constants:
0DB1  1A                 sizek (26)
0DB2  01                 const type 3
0DB3  280B2419           const [0]: (421792552)
0DB7  01                 const type 3
0DB8  D55F8A3E           const [1]: (1049255893)
0DBC  04                 const type 4
0DBD  13                 string size (19)
0DBE  6461726B53656374+  "darkSect"
0DC6  6F724D6F64654F6E+  "orModeOn"
0DCE  6C7900             "ly\0"
                         const [2]: "darkSectorModeOnly"
0DD1  01                 const type 3
0DD2  EFCC1A8C           const [3]: (-1944400657)
0DD6  01                 const type 3
0DD7  65770E40           const [4]: (1074689893)
0DDB  04                 const type 4
0DDC  09                 string size (9)
0DDD  636C6970426F6E65+  "clipBone"
0DE5  00                 "\0"
                         const [5]: "clipBone"
0DE6  04                 const type 4
0DE7  1A                 string size (26)
0DE8  6461726B53656374+  "darkSect"
0DF0  6F72437265617465+  "orCreate"
0DF8  64436C6970547970+  "dClipTyp"
0E00  6500               "e\0"
                         const [6]: "darkSectorCreatedClipType"
0E02  04                 const type 4
0E03  10                 string size (16)
0E04  6372656174656443+  "createdC"
0E0C  6C69705479706500   "lipType\0"
                         const [7]: "createdClipType"
0E14  04                 const type 4
0E15  08                 string size (8)
0E16  67526567696F6E00   "gRegion\0"
                         const [8]: "gRegion"
0E1E  01                 const type 3
0E1F  C64CD3BD           const [9]: (-1110225722)
0E23  01                 const type 3
0E24  0416B0A2           const [10]: (-1565518332)
0E28  01                 const type 3
0E29  D1CEC9B0           const [11]: (-1328951599)
0E2D  04                 const type 4
0E2E  13                 string size (19)
0E2F  616C736F48696465+  "alsoHide"
0E37  4174746163686D65+  "Attachme"
0E3F  6E7400             "nt\0"
                         const [12]: "alsoHideAttachment"
0E42  01                 const type 3
0E43  68C51D9F           const [13]: (-1625438872)
0E47  04                 const type 4
0E48  09                 string size (9)
0E49  636C697054797065+  "clipType"
0E51  00                 "\0"
                         const [14]: "clipType"
0E52  01                 const type 3
0E53  E8AD8031           const [15]: (830516712)
0E57  01                 const type 3
0E58  D59A634B           const [16]: (1264818901)
0E5C  04                 const type 4
0E5D  0B                 string size (11)
0E5E  4C6F7475735F4761+  "Lotus_Ga"
0E66  6D6500             "me\0"
                         const [17]: "Lotus_Game"
0E69  04                 const type 4
0E6A  0E                 string size (14)
0E6B  4C5750545F47554E+  "LWPT_GUN"
0E73  5F434C495000       "_CLIP\0"
                         const [18]: "LWPT_GUN_CLIP"
0E79  01                 const type 3
0E7A  0BDABD7D           const [19]: (2109594123)
0E7E  01                 const type 3
0E7F  D45BB806           const [20]: (112745428)
0E83  04                 const type 4
0E84  0E                 string size (14)
0E85  5A45524F5F524F54+  "ZERO_ROT"
0E8D  4154494F4E00       "ATION\0"
                         const [21]: "ZERO_ROTATION"
0E93  04                 const type 4
0E94  0C                 string size (12)
0E95  5A45524F5F564543+  "ZERO_VEC"
0E9D  544F5200           "TOR\0"
                         const [22]: "ZERO_VECTOR"
0EA1  01                 const type 3
0EA2  BCD6AE9F           const [23]: (-1615931716)
0EA6  04                 const type 4
0EA7  0F                 string size (15)
0EA8  7365636F6E64436C+  "secondCl"
0EB0  6970426F6E6500     "ipBone\0"
                         const [24]: "secondClipBone"
0EB7  04                 const type 4
0EB8  01                 string size (0)
                         const [25]: ""
                         * functions:
0EBA  00                 sizep (0)
                         * lines:
0EBB  5C                 sizelineinfo (92)
                         [pc] (line)
0EBC  87                 [01] (-121)
0EBD  00                 [02] (-121)
0EBE  00                 [03] (-120)
0EBF  00                 [04] (-120)
0EC0  87                 [05] (-119)
0EC1  00                 [06] (-119)
0EC2  00                 [07] (-119)
0EC3  00                 [08] (-119)
0EC4  88                 [09] (-119)
0EC5  00                 [10] (-118)
0EC6  00                 [11] (-116)
0EC7  00                 [12] (-116)
0EC8  88                 [13] (-116)
0EC9  00                 [14] (-116)
0ECA  00                 [15] (-116)
0ECB  00                 [16] (-116)
0ECC  89                 [17] (-116)
0ECD  00                 [18] (-116)
0ECE  00                 [19] (-116)
0ECF  00                 [20] (-115)
0ED0  89                 [21] (-111)
0ED1  00                 [22] (-110)
0ED2  00                 [23] (-110)
0ED3  00                 [24] (-109)
0ED4  89                 [25] (-107)
0ED5  00                 [26] (-107)
0ED6  00                 [27] (-107)
0ED7  00                 [28] (-107)
0ED8  89                 [29] (-107)
0ED9  00                 [30] (-106)
0EDA  00                 [31] (-103)
0EDB  00                 [32] (-103)
0EDC  89                 [33] (-103)
0EDD  00                 [34] (-103)
0EDE  00                 [35] (-103)
0EDF  00                 [36] (-102)
0EE0  8A                 [37] (-102)
0EE1  00                 [38] (-102)
0EE2  00                 [39] (-102)
0EE3  00                 [40] (-102)
0EE4  8C                 [41] (-102)
0EE5  00                 [42] (-102)
0EE6  00                 [43] (-102)
0EE7  00                 [44] (-102)
0EE8  8C                 [45] (-102)
0EE9  00                 [46] (-102)
0EEA  00                 [47] (-98)
0EEB  00                 [48] (-98)
0EEC  8C                 [49] (-98)
0EED  00                 [50] (-97)
0EEE  00                 [51] (-97)
0EEF  00                 [52] (-97)
0EF0  8C                 [53] (-96)
0EF1  00                 [54] (-96)
0EF2  00                 [55] (-96)
0EF3  00                 [56] (-96)
0EF4  8C                 [57] (-96)
0EF5  00                 [58] (-96)
0EF6  00                 [59] (-96)
0EF7  00                 [60] (-96)
0EF8  8C                 [61] (-96)
0EF9  00                 [62] (-95)
0EFA  00                 [63] (-95)
0EFB  00                 [64] (-95)
0EFC  8C                 [65] (-95)
0EFD  00                 [66] (-95)
0EFE  00                 [67] (-93)
0EFF  00                 [68] (-93)
0F00  8C                 [69] (-93)
0F01  00                 [70] (-93)
0F02  00                 [71] (-93)
0F03  00                 [72] (-92)
0F04  8C                 [73] (-92)
0F05  00                 [74] (-92)
0F06  00                 [75] (-87)
0F07  00                 [76] (-87)
0F08  8D                 [77] (-87)
0F09  00                 [78] (-87)
0F0A  00                 [79] (-87)
0F0B  00                 [80] (-87)
0F0C  91                 [81] (-86)
0F0D  00                 [82] (-86)
0F0E  00                 [83] (-86)
0F0F  00                 [84] (-86)
0F10  92                 [85] (-86)
0F11  00                 [86] (-85)
0F12  00                 [87] (-85)
0F13  00                 [88] (-85)
0F14  92                 [89] (-85)
0F15  00                 [90] (-85)
0F16  00                 [91] (-85)
0F17  00                 [92] (-83)
                         * locals:
102C  00                 sizelocvars (0)
                         * upvalues:
102D  00                 sizeupvalues (0)
                         ** end of function **

                         
102E                     ** function [8] definition (level 2)
                         ** start of function **
102E  00                 string size (0)
                         source name: (none)
1030  01                 line defined (175)
1031  C9                 last line defined (201)
1032  01                 nups (0)
1033  00                 numparams (1)
1034  01                 is_vararg (0)
1035  00                 maxstacksize (12)
                         * code:
1037  4A                 sizecode (74)
1038  64004000           [01] self       1   0   256  ; 421792552
103C  62800001           [02] call       1   2   2  
1040  A440C000           [03] self       2   1   257  ; 1049255893
1044  A2800001           [04] call       2   2   2  
1048  DD800000           [05] getglobal  3   2        ; darkSectorModeOnly
104C  D8000000           [06] test       3       0    ; to [8] if true
1050  1A800080           [07] jmp        3            ; to [11]
1054  98400000           [08] test       2       1    ; to [10] if false
1058  1A000080           [09] jmp        1            ; to [11]
105C  1E008000           [10] return     0   1      
1060  E4C04000           [11] self       3   0   259  ; -1944400657
1064  E2800001           [12] call       3   2   2  
1068  D8000000           [13] test       3       0    ; to [15] if true
106C  1A000180           [14] jmp        5            ; to [20]
1070  DD000100           [15] getglobal  3   4        ; 1074689893
1074  1D410100           [16] getglobal  4   5        ; clipBone
1078  E2800001           [17] call       3   2   2  
107C  D8000000           [18] test       3       0    ; to [20] if true
1080  1A000080           [19] jmp        1            ; to [21]
1084  1E008000           [20] return     0   1      
1088  E4804100           [21] self       3   0   262  ; 112745428
108C  5D410100           [22] getglobal  5   5        ; clipBone
1090  9DC10100           [23] getglobal  6   7        ; ZERO_ROTATION
1094  DD010200           [24] getglobal  7   8        ; ZERO_VECTOR
1098  1D420200           [25] getglobal  8   9        ; 572299008
109C  59820200           [26] loadk      9   10       ; 0
10A0  99820200           [27] loadk      10  10       ; 0
10A4  D9820200           [28] loadk      11  10       ; 0
10A8  22020002           [29] call       8   4   0  
10AC  E2400000           [30] call       3   0   1  
10B0  DDC00200           [31] getglobal  3   11       ; -1615931716
10B4  1D010300           [32] getglobal  4   12       ; secondClipBone
10B8  E2800001           [33] call       3   2   2  
fail op	35
10BC  6340C301           [34] close      1  
10C0  1A400280           [35] jmp        10           ; to [46]
10C4  E4804100           [36] self       3   0   262  ; 112745428
10C8  5D010300           [37] getglobal  5   12       ; secondClipBone
10CC  9DC10100           [38] getglobal  6   7        ; ZERO_ROTATION
10D0  DD010200           [39] getglobal  7   8        ; ZERO_VECTOR
10D4  1D420200           [40] getglobal  8   9        ; 572299008
10D8  59820200           [41] loadk      9   10       ; 0
10DC  99820200           [42] loadk      10  10       ; 0
10E0  D9820200           [43] loadk      11  10       ; 0
10E4  22020002           [44] call       8   4   0  
10E8  E2400000           [45] call       3   0   1  
10EC  DD800300           [46] getglobal  3   14       ; alsoHideAttachment
10F0  D8000000           [47] test       3       0    ; to [49] if true
10F4  1A000680           [48] jmp        25           ; to [74]
10F8  E4C04300           [49] self       3   0   271  ; -1625438872
10FC  5D010400           [50] getglobal  5   16       ; clipType
1100  E2808001           [51] call       3   3   2  
1104  1D010100           [52] getglobal  4   4        ; 1074689893
1108  52018001           [53] move       5   3      
110C  22810001           [54] call       4   2   2  
1110  18010000           [55] test       4       0    ; to [57] if true
1114  1A000280           [56] jmp        9            ; to [66]
1118  2441C400           [57] self       4   1   273  ; 830516712
111C  22810001           [58] call       4   2   2  
1120  18010000           [59] test       4       0    ; to [61] if true
1124  1A000180           [60] jmp        5            ; to [66]
1128  2481C400           [61] self       4   1   274  ; 1264818901
112C  9DC10400           [62] getglobal  6   19       ; Lotus_Game
1130  8E014503           [63] gettable   6   6   276  ; "LWPT_GUN_CLIP"
1134  22818001           [64] call       4   3   2  
1138  D2000002           [65] move       3   4      
113C  1D010100           [66] getglobal  4   4        ; 1074689893
1140  52018001           [67] move       5   3      
1144  22810001           [68] call       4   2   2  
1148  18410000           [69] test       4       1    ; to [71] if false
114C  1A800080           [70] jmp        3            ; to [74]
1150  2441C501           [71] self       4   3   277  ; 2109594123
1154  97018000           [72] loadbool   6   1   0    ; true
1158  22418001           [73] call       4   3   1  
115C  1E008000           [74] return     0   1      
                         * constants:
1160  16                 sizek (22)
1161  01                 const type 3
1162  280B2419           const [0]: (421792552)
1166  01                 const type 3
1167  D55F8A3E           const [1]: (1049255893)
116B  04                 const type 4
116C  13                 string size (19)
116D  6461726B53656374+  "darkSect"
1175  6F724D6F64654F6E+  "orModeOn"
117D  6C7900             "ly\0"
                         const [2]: "darkSectorModeOnly"
1180  01                 const type 3
1181  EFCC1A8C           const [3]: (-1944400657)
1185  01                 const type 3
1186  65770E40           const [4]: (1074689893)
118A  04                 const type 4
118B  09                 string size (9)
118C  636C6970426F6E65+  "clipBone"
1194  00                 "\0"
                         const [5]: "clipBone"
1195  01                 const type 3
1196  D45BB806           const [6]: (112745428)
119A  04                 const type 4
119B  0E                 string size (14)
119C  5A45524F5F524F54+  "ZERO_ROT"
11A4  4154494F4E00       "ATION\0"
                         const [7]: "ZERO_ROTATION"
11AA  04                 const type 4
11AB  0C                 string size (12)
11AC  5A45524F5F564543+  "ZERO_VEC"
11B4  544F5200           "TOR\0"
                         const [8]: "ZERO_VECTOR"
11B8  01                 const type 3
11B9  00971C22           const [9]: (572299008)
11BD  03                 const type 3
11BE  0000803F           const [10]: (0)
11C2  01                 const type 3
11C3  BCD6AE9F           const [11]: (-1615931716)
11C7  04                 const type 4
11C8  0F                 string size (15)
11C9  7365636F6E64436C+  "secondCl"
11D1  6970426F6E6500     "ipBone\0"
                         const [12]: "secondClipBone"
11D8  04                 const type 4
11D9  01                 string size (0)
                         const [13]: ""
11DB  04                 const type 4
11DC  13                 string size (19)
11DD  616C736F48696465+  "alsoHide"
11E5  4174746163686D65+  "Attachme"
11ED  6E7400             "nt\0"
                         const [14]: "alsoHideAttachment"
11F0  01                 const type 3
11F1  68C51D9F           const [15]: (-1625438872)
11F5  04                 const type 4
11F6  09                 string size (9)
11F7  636C697054797065+  "clipType"
11FF  00                 "\0"
                         const [16]: "clipType"
1200  01                 const type 3
1201  E8AD8031           const [17]: (830516712)
1205  01                 const type 3
1206  D59A634B           const [18]: (1264818901)
120A  04                 const type 4
120B  0B                 string size (11)
120C  4C6F7475735F4761+  "Lotus_Ga"
1214  6D6500             "me\0"
                         const [19]: "Lotus_Game"
1217  04                 const type 4
1218  0E                 string size (14)
1219  4C5750545F47554E+  "LWPT_GUN"
1221  5F434C495000       "_CLIP\0"
                         const [20]: "LWPT_GUN_CLIP"
1227  01                 const type 3
1228  0BDABD7D           const [21]: (2109594123)
                         * functions:
122C  00                 sizep (0)
                         * lines:
122D  4A                 sizelineinfo (74)
                         [pc] (line)
122E  B0                 [01] (-80)
122F  00                 [02] (-80)
1230  00                 [03] (-79)
1231  00                 [04] (-79)
1232  B0                 [05] (-78)
1233  00                 [06] (-78)
1234  00                 [07] (-78)
1235  00                 [08] (-78)
1236  B1                 [09] (-78)
1237  00                 [10] (-77)
1238  00                 [11] (-75)
1239  00                 [12] (-75)
123A  B1                 [13] (-75)
123B  00                 [14] (-75)
123C  00                 [15] (-75)
123D  00                 [16] (-75)
123E  B2                 [17] (-75)
123F  00                 [18] (-75)
1240  00                 [19] (-75)
1241  00                 [20] (-74)
1242  B2                 [21] (-70)
1243  00                 [22] (-70)
1244  00                 [23] (-70)
1245  00                 [24] (-70)
1246  B2                 [25] (-70)
1247  00                 [26] (-70)
1248  00                 [27] (-70)
1249  00                 [28] (-70)
124A  B2                 [29] (-70)
124B  00                 [30] (-70)
124C  00                 [31] (-69)
124D  00                 [32] (-69)
124E  B2                 [33] (-69)
124F  00                 [34] (-69)
1250  00                 [35] (-69)
1251  00                 [36] (-68)
1252  B3                 [37] (-68)
1253  00                 [38] (-68)
1254  00                 [39] (-68)
1255  00                 [40] (-68)
1256  B5                 [41] (-68)
1257  00                 [42] (-68)
1258  00                 [43] (-68)
1259  00                 [44] (-68)
125A  B5                 [45] (-68)
125B  00                 [46] (-64)
125C  00                 [47] (-64)
125D  00                 [48] (-64)
125E  B5                 [49] (-63)
125F  00                 [50] (-63)
1260  00                 [51] (-63)
1261  00                 [52] (-62)
1262  B5                 [53] (-62)
1263  00                 [54] (-62)
1264  00                 [55] (-62)
1265  00                 [56] (-62)
1266  B5                 [57] (-62)
1267  00                 [58] (-62)
1268  00                 [59] (-62)
1269  00                 [60] (-62)
126A  B5                 [61] (-61)
126B  00                 [62] (-61)
126C  00                 [63] (-61)
126D  00                 [64] (-61)
126E  B5                 [65] (-61)
126F  00                 [66] (-59)
1270  00                 [67] (-59)
1271  00                 [68] (-59)
1272  B5                 [69] (-59)
1273  00                 [70] (-59)
1274  00                 [71] (-58)
1275  00                 [72] (-58)
1276  B5                 [73] (-58)
1277  00                 [74] (-55)
                         * locals:
1356  00                 sizelocvars (0)
                         * upvalues:
1357  00                 sizeupvalues (0)
                         ** end of function **

                         
1358                     ** function [9] definition (level 2)
                         ** start of function **
1358  00                 string size (0)
                         source name: (none)
135A  01                 line defined (203)
135B  84                 last line defined (260)
135C  02                 nups (1)
135D  01                 numparams (1)
135E  01                 is_vararg (0)
135F  00                 maxstacksize (14)
                         * code:
1362  01                 sizecode (153)
1363  5D000000           [001] getglobal  1   0        ; 538022378
1367  99400000           [002] loadk      2   1        ; 0
136B  62400001           [003] call       1   2   1  
136F  64804000           [004] self       1   0   258  ; -1870903749
1373  62800001           [005] call       1   2   2  
1377  9DC00000           [006] getglobal  2   3        ; 1074689893
137B  D2008000           [007] move       3   1      
137F  A2800001           [008] call       2   2   2  
1383  98000000           [009] test       2       0    ; to [11] if true
1387  1A000080           [010] jmp        1            ; to [12]
138B  1E008000           [011] return     0   1      
138F  A400C100           [012] self       2   1   260  ; -1944400657
1393  A2800001           [013] call       2   2   2  
1397  98400000           [014] test       2       1    ; to [16] if false
139B  1A000080           [015] jmp        1            ; to [17]
139F  1E008000           [016] return     0   1      
13A3  A440C100           [017] self       2   1   261  ; 421792552
13A7  A2800001           [018] call       2   2   2  
13AB  DDC00000           [019] getglobal  3   3        ; 1074689893
13AF  12010001           [020] move       4   2      
13B3  E2800001           [021] call       3   2   2  
13B7  D8000000           [022] test       3       0    ; to [24] if true
13BB  1A000080           [023] jmp        1            ; to [25]
13BF  1E008000           [024] return     0   1      
13C3  E4804101           [025] self       3   2   262  ; -1538682285
13C7  E2800001           [026] call       3   2   2  
13CB  1DC10000           [027] getglobal  4   3        ; 1074689893
13CF  52018001           [028] move       5   3      
13D3  22810001           [029] call       4   2   2  
13D7  18010000           [030] test       4       0    ; to [32] if true
13DB  1A000080           [031] jmp        1            ; to [33]
13DF  1E008000           [032] return     0   1      
13E3  1DC10100           [033] getglobal  4   7        ; defaultRotation
13E7  57018000           [034] loadbool   5   1   0    ; true
13EB  9D010200           [035] getglobal  6   8        ; _T
13EF  DD410200           [036] getglobal  7   9        ; priString
13F3  8EC10103           [037] gettable   6   6   7  
fail op	35
13F7  23804203           [038] close      0  
13FB  1AC00080           [039] jmp        4            ; to [44]
13FF  9D010200           [040] getglobal  6   8        ; _T
1403  DD410200           [041] getglobal  7   9        ; priString
1407  0B020000           [042] newtable   8   0   0    ; array=0, hash=0
140B  8C018203           [043] settable   6   7   8  
140F  9D010200           [044] getglobal  6   8        ; _T
1413  DD410200           [045] getglobal  7   9        ; priString
1417  8EC10103           [046] gettable   6   6   7  
141B  E4C1C201           [047] self       7   3   267  ; -605089866
141F  E2810001           [048] call       7   2   2  
1423  8EC10103           [049] gettable   6   6   7  
fail op	35
1427  23804203           [050] close      0  
142B  1A400180           [051] jmp        6            ; to [58]
142F  9D010200           [052] getglobal  6   8        ; _T
1433  DD410200           [053] getglobal  7   9        ; priString
1437  8EC10103           [054] gettable   6   6   7  
143B  E4C1C201           [055] self       7   3   267  ; -605089866
143F  E2810001           [056] call       7   2   2  
1443  8C41C003           [057] settable   6   7   257  ; 0
1447  9D010300           [058] getglobal  6   12       ; gGameRules
144B  A4414303           [059] self       6   6   269  ; -1957065004
144F  1D820300           [060] getglobal  8   14       ; gLotusHubGameRulesType
1453  A2818001           [061] call       6   3   2  
1457  98010000           [062] test       6       0    ; to [64] if true
145B  1A000080           [063] jmp        1            ; to [65]
145F  1E008000           [064] return     0   1      
1463  9DC10300           [065] getglobal  6   15       ; 572299008
1467  A2818000           [066] call       6   1   2  
146B  DDC10000           [067] getglobal  7   3        ; 1074689893
146F  12020001           [068] move       8   2      
1473  E2810001           [069] call       7   2   2  
1477  D8410000           [070] test       7       1    ; to [72] if false
147B  1A001480           [071] jmp        81           ; to [153]
147F  DDC10000           [072] getglobal  7   3        ; 1074689893
1483  12028001           [073] move       8   3      
1487  E2810001           [074] call       7   2   2  
148B  D8410000           [075] test       7       1    ; to [77] if false
148F  1AC01280           [076] jmp        76           ; to [153]
1493  DD010400           [077] getglobal  7   16       ; 1668611480
1497  1D020200           [078] getglobal  8   8        ; _T
149B  5D420200           [079] getglobal  9   9        ; priString
149F  0E420204           [080] gettable   8   8   9  
14A3  64C2C201           [081] self       9   3   267  ; -605089866
14A7  62820001           [082] call       9   2   2  
14AB  0E420204           [083] gettable   8   8   9  
14AF  5D420400           [084] getglobal  9   17       ; fastCharge
14B3  1C420204           [085] div        8   8   9  
14B7  59420000           [086] loadk      9   1        ; 0
14BB  99820400           [087] loadk      10  18       ; 0
14BF  E2810002           [088] call       7   4   2  
14C3  1D020200           [089] getglobal  8   8        ; _T
14C7  5D420200           [090] getglobal  9   9        ; priString
14CB  0E420204           [091] gettable   8   8   9  
14CF  64C2C201           [092] self       9   3   267  ; -605089866
14D3  62820001           [093] call       9   2   2  
14D7  9D020400           [094] getglobal  10  16       ; 1668611480
14DB  DD020200           [095] getglobal  11  8        ; _T
14DF  1D430200           [096] getglobal  12  9        ; priString
14E3  CE028305           [097] gettable   11  11  12 
14E7  24C3C201           [098] self       12  3   267  ; -605089866
14EB  22830001           [099] call       12  2   2  
14EF  CE028305           [100] gettable   11  11  12 
14F3  1DC30400           [101] getglobal  12  19       ; decayRate
14F7  5D030500           [102] getglobal  13  20       ; 1289681407
14FB  62838000           [103] call       13  1   2  
14FF  04430306           [104] mul        12  12  13 
1503  CD028305           [105] sub        11  11  12 
1507  19430000           [106] loadk      12  1        ; 0
150B  5D430500           [107] getglobal  13  21       ; maxCharge
150F  A2820002           [108] call       10  4   2  
1513  0C828204           [109] settable   8   9   10 
1517  1D820500           [110] getglobal  8   22       ; -523730508
151B  5DC20500           [111] getglobal  9   23       ; spinMinVelocity
151F  9D020600           [112] getglobal  10  24       ; spinMaxVelocity
1523  D2028003           [113] move       11  7      
1527  22820002           [114] call       8   4   2  
152B  92010004           [115] move       6   8      
152F  1D420600           [116] getglobal  8   25       ; 562846818
1533  52020003           [117] move       9   6      
1537  22820001           [118] call       8   2   2  
fail op	21
153B  55008280           [119] concat     1   257 8  
153F  1A400080           [120] jmp        2            ; to [123]
1543  58010000           [121] test       5       0    ; to [123] if true
1547  1A400680           [122] jmp        26           ; to [149]
154B  24824600           [123] self       8   0   282  ; 917683095
154F  22820001           [124] call       8   2   2  
1553  5D020500           [125] getglobal  9   20       ; 1289681407
1557  62828000           [126] call       9   1   2  
155B  44420203           [127] mul        9   6   9  
155F  93020000           [128] getupval   10  0      
1563  98020000           [129] test       10      0    ; to [131] if true
1567  1A000080           [130] jmp        1            ; to [132]
156B  44C2C604           [131] mul        9   9   283  ; 0
156F  8E024702           [132] gettable   10  4   284  ; "heading"
1573  CE42C704           [133] gettable   11  9   285  ; "x"
1577  83C20205           [134] add        10  10  11 
157B  0C81028E           [135] settable   4   284 10   ; "heading"
157F  8E824702           [136] gettable   10  4   286  ; "pitch"
1583  CEC2C704           [137] gettable   11  9   287  ; "y"
1587  83C20205           [138] add        10  10  11 
158B  0C81028F           [139] settable   4   286 10   ; "pitch"
158F  8E024802           [140] gettable   10  4   288  ; "bank"
1593  CE42C804           [141] gettable   11  9   289  ; "z"
1597  83C20205           [142] add        10  10  11 
159B  0C810290           [143] settable   4   288 10   ; "bank"
159F  A4824800           [144] self       10  0   290  ; -1484030041
15A3  12030004           [145] move       12  8      
15A7  52030002           [146] move       13  4      
15AB  A2420002           [147] call       10  4   1  
15AF  57010000           [148] loadbool   5   0   0    ; false
15B3  9D020000           [149] getglobal  10  0        ; 538022378
15B7  D9420000           [150] loadk      11  1        ; 0
15BB  A2420001           [151] call       10  2   1  
15BF  1A40EA7F           [152] jmp        -86          ; to [67]
15C3  1E008000           [153] return     0   1      
                         * constants:
15C7  23                 sizek (35)
15C8  01                 const type 3
15C9  EA911120           const [0]: (538022378)
15CD  03                 const type 3
15CE  00000000           const [1]: (0)
15D2  01                 const type 3
15D3  3B467C90           const [2]: (-1870903749)
15D7  01                 const type 3
15D8  65770E40           const [3]: (1074689893)
15DC  01                 const type 3
15DD  EFCC1A8C           const [4]: (-1944400657)
15E1  01                 const type 3
15E2  280B2419           const [5]: (421792552)
15E6  01                 const type 3
15E7  539249A4           const [6]: (-1538682285)
15EB  04                 const type 4
15EC  10                 string size (16)
15ED  64656661756C7452+  "defaultR"
15F5  6F746174696F6E00   "otation\0"
                         const [7]: "defaultRotation"
15FD  04                 const type 4
15FE  03                 string size (3)
15FF  5F5400             "_T\0"
                         const [8]: "_T"
1602  04                 const type 4
1603  0A                 string size (10)
1604  707269537472696E+  "priStrin"
160C  6700               "g\0"
                         const [9]: "priString"
160E  00                 const type 0
                         const [10]: nil
160F  01                 const type 3
1610  B60FEFDB           const [11]: (-605089866)
1614  04                 const type 4
1615  0B                 string size (11)
1616  6747616D6552756C+  "gGameRul"
161E  657300             "es\0"
                         const [12]: "gGameRules"
1621  01                 const type 3
1622  D48E598B           const [13]: (-1957065004)
1626  04                 const type 4
1627  17                 string size (23)
1628  674C6F7475734875+  "gLotusHu"
1630  6247616D6552756C+  "bGameRul"
1638  65735479706500     "esType\0"
                         const [14]: "gLotusHubGameRulesType"
163F  01                 const type 3
1640  00971C22           const [15]: (572299008)
1644  01                 const type 3
1645  98FD7463           const [16]: (1668611480)
1649  04                 const type 4
164A  0B                 string size (11)
164B  6661737443686172+  "fastChar"
1653  676500             "ge\0"
                         const [17]: "fastCharge"
1656  03                 const type 3
1657  0000803F           const [18]: (0)
165B  04                 const type 4
165C  0A                 string size (10)
165D  6465636179526174+  "decayRat"
1665  6500               "e\0"
                         const [19]: "decayRate"
1667  01                 const type 3
1668  FFF9DE4C           const [20]: (1289681407)
166C  04                 const type 4
166D  0A                 string size (10)
166E  6D61784368617267+  "maxCharg"
1676  6500               "e\0"
                         const [21]: "maxCharge"
1678  01                 const type 3
1679  B481C8E0           const [22]: (-523730508)
167D  04                 const type 4
167E  10                 string size (16)
167F  7370696E4D696E56+  "spinMinV"
1687  656C6F6369747900   "elocity\0"
                         const [23]: "spinMinVelocity"
168F  04                 const type 4
1690  10                 string size (16)
1691  7370696E4D617856+  "spinMaxV"
1699  656C6F6369747900   "elocity\0"
                         const [24]: "spinMaxVelocity"
16A1  01                 const type 3
16A2  625C8C21           const [25]: (562846818)
16A6  01                 const type 3
16A7  97BBB236           const [26]: (917683095)
16AB  03                 const type 3
16AC  000080BF           const [27]: (0)
16B0  04                 const type 4
16B1  08                 string size (8)
16B2  68656164696E6700   "heading\0"
                         const [28]: "heading"
16BA  04                 const type 4
16BB  02                 string size (2)
16BC  7800               "x\0"
                         const [29]: "x"
16BE  04                 const type 4
16BF  06                 string size (6)
16C0  706974636800       "pitch\0"
                         const [30]: "pitch"
16C6  04                 const type 4
16C7  02                 string size (2)
16C8  7900               "y\0"
                         const [31]: "y"
16CA  04                 const type 4
16CB  05                 string size (5)
16CC  62616E6B00         "bank\0"
                         const [32]: "bank"
16D1  04                 const type 4
16D2  02                 string size (2)
16D3  7A00               "z\0"
                         const [33]: "z"
16D5  01                 const type 3
16D6  A77F8BA7           const [34]: (-1484030041)
                         * functions:
16DA  00                 sizep (0)
                         * lines:
16DC  01                 sizelineinfo (153)
                         [pc] (line)
16DD  CC                 [001] (-52)
16DE  00                 [002] (-52)
16DF  00                 [003] (-52)
16E0  00                 [004] (-51)
16E1  CC                 [005] (-51)
16E2  00                 [006] (-50)
16E3  00                 [007] (-50)
16E4  00                 [008] (-50)
16E5  CC                 [009] (-50)
16E6  00                 [010] (-50)
16E7  00                 [011] (-49)
16E8  00                 [012] (-47)
16E9  CD                 [013] (-47)
16EA  00                 [014] (-47)
16EB  00                 [015] (-47)
16EC  00                 [016] (-46)
16ED  CD                 [017] (-44)
16EE  00                 [018] (-44)
16EF  00                 [019] (-43)
16F0  00                 [020] (-43)
16F1  CE                 [021] (-43)
16F2  00                 [022] (-43)
16F3  00                 [023] (-43)
16F4  00                 [024] (-42)
16F5  CE                 [025] (-40)
16F6  00                 [026] (-40)
16F7  00                 [027] (-39)
16F8  00                 [028] (-39)
16F9  CE                 [029] (-39)
16FA  00                 [030] (-39)
16FB  00                 [031] (-39)
16FC  00                 [032] (-38)
16FD  CE                 [033] (-36)
16FE  00                 [034] (-35)
16FF  00                 [035] (-33)
1700  00                 [036] (-33)
1701  CE                 [037] (-33)
1702  00                 [038] (-33)
1703  00                 [039] (-33)
1704  00                 [040] (-32)
1705  CF                 [041] (-32)
1706  00                 [042] (-32)
1707  00                 [043] (-32)
1708  00                 [044] (-29)
1709  D1                 [045] (-29)
170A  00                 [046] (-29)
170B  00                 [047] (-29)
170C  00                 [048] (-29)
170D  D1                 [049] (-29)
170E  00                 [050] (-29)
170F  00                 [051] (-29)
1710  00                 [052] (-28)
1711  D1                 [053] (-28)
1712  00                 [054] (-28)
1713  00                 [055] (-28)
1714  00                 [056] (-28)
1715  D1                 [057] (-28)
1716  00                 [058] (-25)
1717  00                 [059] (-25)
1718  00                 [060] (-25)
1719  D2                 [061] (-25)
171A  00                 [062] (-25)
171B  00                 [063] (-25)
171C  00                 [064] (-24)
171D  D4                 [065] (-21)
171E  00                 [066] (-21)
171F  00                 [067] (-20)
1720  00                 [068] (-20)
1721  D4                 [069] (-20)
1722  00                 [070] (-20)
1723  00                 [071] (-20)
1724  00                 [072] (-20)
1725  D5                 [073] (-20)
1726  00                 [074] (-20)
1727  00                 [075] (-20)
1728  00                 [076] (-20)
1729  D5                 [077] (-19)
172A  00                 [078] (-19)
172B  00                 [079] (-19)
172C  00                 [080] (-19)
172D  D5                 [081] (-19)
172E  00                 [082] (-19)
172F  00                 [083] (-19)
1730  00                 [084] (-19)
1731  D5                 [085] (-19)
1732  00                 [086] (-19)
1733  00                 [087] (-19)
1734  00                 [088] (-19)
1735  D5                 [089] (-17)
1736  00                 [090] (-17)
1737  00                 [091] (-17)
1738  00                 [092] (-17)
1739  D6                 [093] (-17)
173A  00                 [094] (-17)
173B  00                 [095] (-17)
173C  00                 [096] (-17)
173D  D8                 [097] (-17)
173E  00                 [098] (-17)
173F  00                 [099] (-17)
1740  00                 [100] (-17)
1741  D8                 [101] (-17)
1742  00                 [102] (-17)
1743  00                 [103] (-17)
1744  00                 [104] (-17)
1745  D9                 [105] (-17)
1746  00                 [106] (-17)
1747  00                 [107] (-17)
1748  00                 [108] (-17)
1749  D9                 [109] (-17)
174A  00                 [110] (-15)
174B  00                 [111] (-15)
174C  00                 [112] (-15)
174D  D9                 [113] (-15)
174E  00                 [114] (-15)
174F  00                 [115] (-15)
1750  00                 [116] (-13)
1751  D9                 [117] (-13)
1752  00                 [118] (-13)
1753  00                 [119] (-13)
1754  00                 [120] (-13)
1755  D9                 [121] (-13)
1756  00                 [122] (-13)
1757  00                 [123] (-12)
1758  00                 [124] (-12)
1759  DA                 [125] (-11)
175A  00                 [126] (-11)
175B  00                 [127] (-11)
175C  00                 [128] (-10)
175D  DC                 [129] (-10)
175E  00                 [130] (-10)
175F  00                 [131] (-9)
1760  00                 [132] (-6)
1761  DD                 [133] (-6)
1762  00                 [134] (-6)
1763  00                 [135] (-6)
1764  00                 [136] (-5)
1765  DF                 [137] (-5)
1766  00                 [138] (-5)
1767  00                 [139] (-5)
1768  00                 [140] (-4)
1769  DF                 [141] (-4)
176A  00                 [142] (-4)
176B  00                 [143] (-4)
176C  00                 [144] (-2)
176D  DF                 [145] (-2)
176E  00                 [146] (-2)
176F  00                 [147] (-2)
1770  00                 [148] (-1)
1771  DF                 [149] (2)
1772  00                 [150] (2)
1773  00                 [151] (2)
1774  00                 [152] (2)
1775  DF                 [153] (4)
                         * locals:
1941  00                 sizelocvars (0)
                         * upvalues:
1942  00                 sizeupvalues (0)
                         ** end of function **

                         
1943                     ** function [10] definition (level 2)
                         ** start of function **
1943  00                 string size (0)
                         source name: (none)
1945  02                 line defined (262)
1946  9B                 last line defined (283)
1947  02                 nups (0)
1948  00                 numparams (1)
1949  01                 is_vararg (0)
194A  00                 maxstacksize (10)
                         * code:
194C  51                 sizecode (81)
194D  64004000           [01] self       1   0   256  ; 421792552
1951  62800001           [02] call       1   2   2  
1955  A440C000           [03] self       2   1   257  ; -1538682285
1959  A2800001           [04] call       2   2   2  
195D  DD800000           [05] getglobal  3   2        ; 1074689893
1961  12010001           [06] move       4   2      
1965  E2800001           [07] call       3   2   2  
1969  D8000000           [08] test       3       0    ; to [10] if true
196D  1A000080           [09] jmp        1            ; to [11]
1971  1E008000           [10] return     0   1      
1975  DDC00000           [11] getglobal  3   3        ; _T
1979  1D010100           [12] getglobal  4   4        ; priString
197D  CE008101           [13] gettable   3   3   4  
fail op	35
1981  6340C101           [14] close      1  
1985  1AC00780           [15] jmp        32           ; to [48]
1989  DDC00000           [16] getglobal  3   3        ; _T
198D  1D010100           [17] getglobal  4   4        ; priString
1991  CE008101           [18] gettable   3   3   4  
1995  24814101           [19] self       4   2   262  ; -605089866
1999  22810001           [20] call       4   2   2  
199D  CE008101           [21] gettable   3   3   4  
fail op	35
19A1  2340C101           [22] close      0  
19A5  1A400180           [23] jmp        6            ; to [30]
19A9  DDC00000           [24] getglobal  3   3        ; _T
19AD  1D010100           [25] getglobal  4   4        ; priString
19B1  CE008101           [26] gettable   3   3   4  
19B5  24814101           [27] self       4   2   262  ; -605089866
19B9  22810001           [28] call       4   2   2  
19BD  CCC04102           [29] settable   3   4   263  ; 0
19C1  DDC00000           [30] getglobal  3   3        ; _T
19C5  1D010100           [31] getglobal  4   4        ; priString
19C9  CE008101           [32] gettable   3   3   4  
19CD  24814101           [33] self       4   2   262  ; -605089866
19D1  22810001           [34] call       4   2   2  
19D5  5D010200           [35] getglobal  5   8        ; math
19D9  4E41C202           [36] gettable   5   5   265  ; 1710846250
19DD  9D810200           [37] getglobal  6   10       ; maxCharge
19E1  DDC10000           [38] getglobal  7   3        ; _T
19E5  1D020100           [39] getglobal  8   4        ; priString
19E9  CE018203           [40] gettable   7   7   8  
19ED  24824101           [41] self       8   2   262  ; -605089866
19F1  22820001           [42] call       8   2   2  
19F5  CE018203           [43] gettable   7   7   8  
19F9  1DC20200           [44] getglobal  8   11       ; primaryIncrement
19FD  C3018203           [45] add        7   7   8  
1A01  62818001           [46] call       5   3   2  
1A05  CC400102           [47] settable   3   4   5  
1A09  DDC00000           [48] getglobal  3   3        ; _T
1A0D  1D010300           [49] getglobal  4   12       ; altString
1A11  CE008101           [50] gettable   3   3   4  
fail op	35
1A15  6340C101           [51] close      1  
1A19  1AC00680           [52] jmp        28           ; to [81]
1A1D  DDC00000           [53] getglobal  3   3        ; _T
1A21  1D010300           [54] getglobal  4   12       ; altString
1A25  CE008101           [55] gettable   3   3   4  
1A29  24814101           [56] self       4   2   262  ; -605089866
1A2D  22810001           [57] call       4   2   2  
1A31  CE008101           [58] gettable   3   3   4  
fail op	35
1A35  2340C101           [59] close      0  
1A39  1A400180           [60] jmp        6            ; to [67]
1A3D  DDC00000           [61] getglobal  3   3        ; _T
1A41  1D010300           [62] getglobal  4   12       ; altString
1A45  CE008101           [63] gettable   3   3   4  
1A49  24814101           [64] self       4   2   262  ; -605089866
1A4D  22810001           [65] call       4   2   2  
1A51  CCC04102           [66] settable   3   4   263  ; 0
1A55  DDC00000           [67] getglobal  3   3        ; _T
1A59  1D010300           [68] getglobal  4   12       ; altString
1A5D  CE008101           [69] gettable   3   3   4  
1A61  24814101           [70] self       4   2   262  ; -605089866
1A65  22810001           [71] call       4   2   2  
1A69  5DC10000           [72] getglobal  5   3        ; _T
1A6D  9D010300           [73] getglobal  6   12       ; altString
1A71  4E818102           [74] gettable   5   5   6  
1A75  A4814101           [75] self       6   2   262  ; -605089866
1A79  A2810001           [76] call       6   2   2  
1A7D  4E818102           [77] gettable   5   5   6  
1A81  9D410300           [78] getglobal  6   13       ; secondaryIncrement
1A85  43818102           [79] add        5   5   6  
1A89  CC400102           [80] settable   3   4   5  
1A8D  1E008000           [81] return     0   1      
                         * constants:
1A91  0E                 sizek (14)
1A92  01                 const type 3
1A93  280B2419           const [0]: (421792552)
1A97  01                 const type 3
1A98  539249A4           const [1]: (-1538682285)
1A9C  01                 const type 3
1A9D  65770E40           const [2]: (1074689893)
1AA1  04                 const type 4
1AA2  03                 string size (3)
1AA3  5F5400             "_T\0"
                         const [3]: "_T"
1AA6  04                 const type 4
1AA7  0A                 string size (10)
1AA8  707269537472696E+  "priStrin"
1AB0  6700               "g\0"
                         const [4]: "priString"
1AB2  00                 const type 0
                         const [5]: nil
1AB3  01                 const type 3
1AB4  B60FEFDB           const [6]: (-605089866)
1AB8  03                 const type 3
1AB9  00000000           const [7]: (0)
1ABD  04                 const type 4
1ABE  05                 string size (5)
1ABF  6D61746800         "math\0"
                         const [8]: "math"
1AC4  01                 const type 3
1AC5  2A71F965           const [9]: (1710846250)
1AC9  04                 const type 4
1ACA  0A                 string size (10)
1ACB  6D61784368617267+  "maxCharg"
1AD3  6500               "e\0"
                         const [10]: "maxCharge"
1AD5  04                 const type 4
1AD6  11                 string size (17)
1AD7  7072696D61727949+  "primaryI"
1ADF  6E6372656D656E74+  "ncrement"
1AE7  00                 "\0"
                         const [11]: "primaryIncrement"
1AE8  04                 const type 4
1AE9  0A                 string size (10)
1AEA  616C74537472696E+  "altStrin"
1AF2  6700               "g\0"
                         const [12]: "altString"
1AF4  04                 const type 4
1AF5  13                 string size (19)
1AF6  7365636F6E646172+  "secondar"
1AFE  79496E6372656D65+  "yIncreme"
1B06  6E7400             "nt\0"
                         const [13]: "secondaryIncrement"
                         * functions:
1B09  00                 sizep (0)
                         * lines:
1B0A  51                 sizelineinfo (81)
                         [pc] (line)
1B0B  07                 [01] (7)
1B0C  01                 [02] (7)
1B0D  00                 [03] (8)
1B0E  00                 [04] (8)
1B0F  07                 [05] (10)
1B10  01                 [06] (10)
1B11  00                 [07] (10)
1B12  00                 [08] (10)
1B13  08                 [09] (10)
1B14  01                 [10] (11)
1B15  00                 [11] (14)
1B16  00                 [12] (14)
1B17  08                 [13] (14)
1B18  01                 [14] (14)
1B19  00                 [15] (14)
1B1A  00                 [16] (15)
1B1B  0A                 [17] (15)
1B1C  01                 [18] (15)
1B1D  00                 [19] (15)
1B1E  00                 [20] (15)
1B1F  0A                 [21] (15)
1B20  01                 [22] (15)
1B21  00                 [23] (15)
1B22  00                 [24] (16)
1B23  0A                 [25] (16)
1B24  01                 [26] (16)
1B25  00                 [27] (16)
1B26  00                 [28] (16)
1B27  0A                 [29] (16)
1B28  01                 [30] (18)
1B29  00                 [31] (18)
1B2A  00                 [32] (18)
1B2B  0A                 [33] (18)
1B2C  01                 [34] (18)
1B2D  00                 [35] (18)
1B2E  00                 [36] (18)
1B2F  0B                 [37] (18)
1B30  01                 [38] (18)
1B31  00                 [39] (18)
1B32  00                 [40] (18)
1B33  0E                 [41] (18)
1B34  01                 [42] (18)
1B35  00                 [43] (18)
1B36  00                 [44] (18)
1B37  0E                 [45] (18)
1B38  01                 [46] (18)
1B39  00                 [47] (18)
1B3A  00                 [48] (21)
1B3B  0E                 [49] (21)
1B3C  01                 [50] (21)
1B3D  00                 [51] (21)
1B3E  00                 [52] (21)
1B3F  0E                 [53] (22)
1B40  01                 [54] (22)
1B41  00                 [55] (22)
1B42  00                 [56] (22)
1B43  0E                 [57] (22)
1B44  01                 [58] (22)
1B45  00                 [59] (22)
1B46  00                 [60] (22)
1B47  0F                 [61] (23)
1B48  01                 [62] (23)
1B49  00                 [63] (23)
1B4A  00                 [64] (23)
1B4B  0F                 [65] (23)
1B4C  01                 [66] (23)
1B4D  00                 [67] (25)
1B4E  00                 [68] (25)
1B4F  0F                 [69] (25)
1B50  01                 [70] (25)
1B51  00                 [71] (25)
1B52  00                 [72] (25)
1B53  0F                 [73] (25)
1B54  01                 [74] (25)
1B55  00                 [75] (25)
1B56  00                 [76] (25)
1B57  0F                 [77] (25)
1B58  01                 [78] (25)
1B59  00                 [79] (25)
1B5A  00                 [80] (25)
1B5B  0F                 [81] (27)
                         * locals:
1C4F  00                 sizelocvars (0)
                         * upvalues:
1C50  00                 sizeupvalues (0)
                         ** end of function **

                         
1C51                     ** function [11] definition (level 2)
                         ** start of function **
1C51  00                 string size (0)
                         source name: (none)
1C53  02                 line defined (285)
1C54  89                 last line defined (393)
1C55  03                 nups (0)
1C56  00                 numparams (1)
1C57  01                 is_vararg (0)
1C58  00                 maxstacksize (19)
                         * code:
1C5B  02                 sizecode (379)
1C5C  5D000000           [001] getglobal  1   0        ; gGameRules
1C60  6440C000           [002] self       1   1   257  ; -1957065004
1C64  DD800000           [003] getglobal  3   2        ; gLotusHubGameRulesType
1C68  62808001           [004] call       1   3   2  
1C6C  58000000           [005] test       1       0    ; to [7] if true
1C70  1A000080           [006] jmp        1            ; to [8]
1C74  1E008000           [007] return     0   1      
1C78  5DC00000           [008] getglobal  1   3        ; 538022378
1C7C  99000100           [009] loadk      2   4        ; 0
1C80  62400001           [010] call       1   2   1  
1C84  64404100           [011] self       1   0   261  ; -1870903749
1C88  62800001           [012] call       1   2   2  
1C8C  9D800100           [013] getglobal  2   6        ; 1074689893
1C90  D2008000           [014] move       3   1      
1C94  A2800001           [015] call       2   2   2  
1C98  98000000           [016] test       2       0    ; to [18] if true
1C9C  1A000080           [017] jmp        1            ; to [19]
1CA0  1E008000           [018] return     0   1      
1CA4  A4C0C100           [019] self       2   1   263  ; 421792552
1CA8  A2800001           [020] call       2   2   2  
1CAC  DD800100           [021] getglobal  3   6        ; 1074689893
1CB0  12010001           [022] move       4   2      
1CB4  E2800001           [023] call       3   2   2  
1CB8  D8000000           [024] test       3       0    ; to [26] if true
1CBC  1A000080           [025] jmp        1            ; to [27]
1CC0  1E008000           [026] return     0   1      
1CC4  E4004201           [027] self       3   2   264  ; -1538682285
1CC8  E2800001           [028] call       3   2   2  
1CCC  1D410200           [029] getglobal  4   9        ; defaultRotation
1CD0  57018000           [030] loadbool   5   1   0    ; true
1CD4  9D810200           [031] getglobal  6   10       ; _T
1CD8  DDC10200           [032] getglobal  7   11       ; altString
1CDC  8EC10103           [033] gettable   6   6   7  
fail op	35
1CE0  23004303           [034] close      0  
1CE4  1AC00080           [035] jmp        4            ; to [40]
1CE8  9D810200           [036] getglobal  6   10       ; _T
1CEC  DDC10200           [037] getglobal  7   11       ; altString
1CF0  0B020000           [038] newtable   8   0   0    ; array=0, hash=0
1CF4  8C018203           [039] settable   6   7   8  
1CF8  9D810100           [040] getglobal  6   6        ; 1074689893
1CFC  D2018001           [041] move       7   3      
1D00  A2810001           [042] call       6   2   2  
1D04  98410000           [043] test       6       1    ; to [45] if false
1D08  1A400380           [044] jmp        14           ; to [59]
1D0C  9D810200           [045] getglobal  6   10       ; _T
1D10  DDC10200           [046] getglobal  7   11       ; altString
1D14  8EC10103           [047] gettable   6   6   7  
1D18  E441C301           [048] self       7   3   269  ; -605089866
1D1C  E2810001           [049] call       7   2   2  
1D20  8EC10103           [050] gettable   6   6   7  
fail op	35
1D24  23004303           [051] close      0  
1D28  1A400180           [052] jmp        6            ; to [59]
1D2C  9D810200           [053] getglobal  6   10       ; _T
1D30  DDC10200           [054] getglobal  7   11       ; altString
1D34  8EC10103           [055] gettable   6   6   7  
1D38  E441C301           [056] self       7   3   269  ; -605089866
1D3C  E2810001           [057] call       7   2   2  
1D40  8C01C103           [058] settable   6   7   260  ; 0
1D44  9D810300           [059] getglobal  6   14       ; 572299008
1D48  A2818000           [060] call       6   1   2  
1D4C  DD810300           [061] getglobal  7   14       ; 572299008
1D50  E2818000           [062] call       7   1   2  
1D54  1D820300           [063] getglobal  8   14       ; 572299008
1D58  22828000           [064] call       8   1   2  
1D5C  5D820300           [065] getglobal  9   14       ; 572299008
1D60  62828000           [066] call       9   1   2  
1D64  A4C24300           [067] self       10  0   271  ; 917683095
1D68  A2820001           [068] call       10  2   2  
1D6C  DD820100           [069] getglobal  11  6        ; 1074689893
1D70  12030001           [070] move       12  2      
1D74  E2820001           [071] call       11  2   2  
1D78  D8420000           [072] test       11      1    ; to [74] if false
1D7C  1A004C80           [073] jmp        305          ; to [379]
1D80  DD820100           [074] getglobal  11  6        ; 1074689893
1D84  12038001           [075] move       12  3      
1D88  E2820001           [076] call       11  2   2  
1D8C  D8420000           [077] test       11      1    ; to [79] if false
1D90  1AC04A80           [078] jmp        300          ; to [379]
1D94  DD820200           [079] getglobal  11  10       ; _T
1D98  1DC30200           [080] getglobal  12  11       ; altString
1D9C  CE028305           [081] gettable   11  11  12 
1DA0  2443C301           [082] self       12  3   269  ; -605089866
1DA4  22830001           [083] call       12  2   2  
1DA8  CE028305           [084] gettable   11  11  12 
1DAC  C4C20288           [085] mul        11  272 11   ; 0
1DB0  0E834402           [086] gettable   12  4   274  ; "heading"
1DB4  0D038305           [087] sub        12  11  12 
1DB8  8C018388           [088] settable   6   273 12   ; "x"
1DBC  0E034502           [089] gettable   12  4   276  ; "pitch"
1DC0  0D038305           [090] sub        12  11  12 
1DC4  8C018389           [091] settable   6   275 12   ; "y"
1DC8  0E834502           [092] gettable   12  4   278  ; "bank"
1DCC  0D038305           [093] sub        12  11  12 
1DD0  8C01838A           [094] settable   6   277 12   ; "z"
1DD4  0E434403           [095] gettable   12  6   273  ; "x"
1DD8  5DC30500           [096] getglobal  13  23       ; diffMultiplier
1DDC  04430306           [097] mul        12  12  13 
1DE0  CC018388           [098] settable   7   273 12   ; "x"
1DE4  0EC34403           [099] gettable   12  6   275  ; "y"
1DE8  5DC30500           [100] getglobal  13  23       ; diffMultiplier
1DEC  04430306           [101] mul        12  12  13 
1DF0  CC018389           [102] settable   7   275 12   ; "y"
1DF4  0E434503           [103] gettable   12  6   277  ; "z"
1DF8  5DC30500           [104] getglobal  13  23       ; diffMultiplier
1DFC  04430306           [105] mul        12  12  13 
1E00  CC01838A           [106] settable   7   277 12   ; "z"
1E04  0E434403           [107] gettable   12  6   273  ; "x"
fail op	21
1E08  15004106           [108] concat     0   12  260
1E0C  1A400680           [109] jmp        26           ; to [136]
1E10  1D030600           [110] getglobal  12  24       ; math
1E14  0E434606           [111] gettable   12  12  281  ; 1710846250
1E18  4E43C403           [112] gettable   13  7   273  ; "x"
1E1C  9D830600           [113] getglobal  14  26       ; spinMinVelocity
1E20  8E434407           [114] gettable   14  14  273  ; "x"
fail op	0
1E24  80030007           [115] move       14  14     
1E28  22838001           [116] call       12  3   2  
1E2C  4C028388           [117] settable   9   273 12   ; "x"
1E30  1D030600           [118] getglobal  12  24       ; math
1E34  0EC34606           [119] gettable   12  12  283  ; -1962864584
1E38  4E43C404           [120] gettable   13  9   273  ; "x"
1E3C  9D030700           [121] getglobal  14  28       ; spinMaxVelocity
1E40  8E434407           [122] gettable   14  14  273  ; "x"
fail op	0
1E44  80030007           [123] move       14  14     
1E48  22838001           [124] call       12  3   2  
1E4C  5D430700           [125] getglobal  13  29       ; 1289681407
1E50  62838000           [126] call       13  1   2  
1E54  04430306           [127] mul        12  12  13 
1E58  4C028388           [128] settable   9   273 12   ; "x"
1E5C  1D030600           [129] getglobal  12  24       ; math
1E60  0EC34606           [130] gettable   12  12  283  ; -1962864584
1E64  4E434403           [131] gettable   13  6   273  ; "x"
1E68  8E43C404           [132] gettable   14  9   273  ; "x"
1E6C  22838001           [133] call       12  3   2  
1E70  4C028388           [134] settable   9   273 12   ; "x"
1E74  1A800580           [135] jmp        23           ; to [159]
1E78  1D030600           [136] getglobal  12  24       ; math
1E7C  0EC34606           [137] gettable   12  12  283  ; -1962864584
1E80  4E43C403           [138] gettable   13  7   273  ; "x"
1E84  9D830600           [139] getglobal  14  26       ; spinMinVelocity
1E88  8E434407           [140] gettable   14  14  273  ; "x"
1E8C  22838001           [141] call       12  3   2  
1E90  4C028388           [142] settable   9   273 12   ; "x"
1E94  1D030600           [143] getglobal  12  24       ; math
1E98  0E434606           [144] gettable   12  12  281  ; 1710846250
1E9C  4E43C404           [145] gettable   13  9   273  ; "x"
1EA0  9D030700           [146] getglobal  14  28       ; spinMaxVelocity
1EA4  8E434407           [147] gettable   14  14  273  ; "x"
1EA8  22838001           [148] call       12  3   2  
1EAC  5D430700           [149] getglobal  13  29       ; 1289681407
1EB0  62838000           [150] call       13  1   2  
1EB4  04430306           [151] mul        12  12  13 
1EB8  4C028388           [152] settable   9   273 12   ; "x"
1EBC  1D030600           [153] getglobal  12  24       ; math
1EC0  0E434606           [154] gettable   12  12  281  ; 1710846250
1EC4  4E434403           [155] gettable   13  6   273  ; "x"
1EC8  8E43C404           [156] gettable   14  9   273  ; "x"
1ECC  22838001           [157] call       12  3   2  
1ED0  4C028388           [158] settable   9   273 12   ; "x"
1ED4  0EC34403           [159] gettable   12  6   275  ; "y"
fail op	21
1ED8  15004106           [160] concat     0   12  260
1EDC  1A400680           [161] jmp        26           ; to [188]
1EE0  1D030600           [162] getglobal  12  24       ; math
1EE4  0E434606           [163] gettable   12  12  281  ; 1710846250
1EE8  4EC3C403           [164] gettable   13  7   275  ; "y"
1EEC  9D830600           [165] getglobal  14  26       ; spinMinVelocity
1EF0  8EC34407           [166] gettable   14  14  275  ; "y"
fail op	0
1EF4  80030007           [167] move       14  14     
1EF8  22838001           [168] call       12  3   2  
1EFC  4C028389           [169] settable   9   275 12   ; "y"
1F00  1D030600           [170] getglobal  12  24       ; math
1F04  0EC34606           [171] gettable   12  12  283  ; -1962864584
1F08  4EC3C404           [172] gettable   13  9   275  ; "y"
1F0C  9D030700           [173] getglobal  14  28       ; spinMaxVelocity
1F10  8EC34407           [174] gettable   14  14  275  ; "y"
fail op	0
1F14  80030007           [175] move       14  14     
1F18  22838001           [176] call       12  3   2  
1F1C  5D430700           [177] getglobal  13  29       ; 1289681407
1F20  62838000           [178] call       13  1   2  
1F24  04430306           [179] mul        12  12  13 
1F28  4C028389           [180] settable   9   275 12   ; "y"
1F2C  1D030600           [181] getglobal  12  24       ; math
1F30  0EC34606           [182] gettable   12  12  283  ; -1962864584
1F34  4EC34403           [183] gettable   13  6   275  ; "y"
1F38  8EC3C404           [184] gettable   14  9   275  ; "y"
1F3C  22838001           [185] call       12  3   2  
1F40  4C028389           [186] settable   9   275 12   ; "y"
1F44  1A800580           [187] jmp        23           ; to [211]
1F48  1D030600           [188] getglobal  12  24       ; math
1F4C  0EC34606           [189] gettable   12  12  283  ; -1962864584
1F50  4EC3C403           [190] gettable   13  7   275  ; "y"
1F54  9D830600           [191] getglobal  14  26       ; spinMinVelocity
1F58  8EC34407           [192] gettable   14  14  275  ; "y"
1F5C  22838001           [193] call       12  3   2  
1F60  4C028389           [194] settable   9   275 12   ; "y"
1F64  1D030600           [195] getglobal  12  24       ; math
1F68  0E434606           [196] gettable   12  12  281  ; 1710846250
1F6C  4EC3C404           [197] gettable   13  9   275  ; "y"
1F70  9D030700           [198] getglobal  14  28       ; spinMaxVelocity
1F74  8EC34407           [199] gettable   14  14  275  ; "y"
1F78  22838001           [200] call       12  3   2  
1F7C  5D430700           [201] getglobal  13  29       ; 1289681407
1F80  62838000           [202] call       13  1   2  
1F84  04430306           [203] mul        12  12  13 
1F88  4C028389           [204] settable   9   275 12   ; "y"
1F8C  1D030600           [205] getglobal  12  24       ; math
1F90  0E434606           [206] gettable   12  12  281  ; 1710846250
1F94  4EC34403           [207] gettable   13  6   275  ; "y"
1F98  8EC3C404           [208] gettable   14  9   275  ; "y"
1F9C  22838001           [209] call       12  3   2  
1FA0  4C028389           [210] settable   9   275 12   ; "y"
1FA4  0E434503           [211] gettable   12  6   277  ; "z"
fail op	21
1FA8  15004106           [212] concat     0   12  260
1FAC  1A400680           [213] jmp        26           ; to [240]
1FB0  1D030600           [214] getglobal  12  24       ; math
1FB4  0E434606           [215] gettable   12  12  281  ; 1710846250
1FB8  4E43C503           [216] gettable   13  7   277  ; "z"
1FBC  9D830600           [217] getglobal  14  26       ; spinMinVelocity
1FC0  8E434507           [218] gettable   14  14  277  ; "z"
fail op	0
1FC4  80030007           [219] move       14  14     
1FC8  22838001           [220] call       12  3   2  
1FCC  4C02838A           [221] settable   9   277 12   ; "z"
1FD0  1D030600           [222] getglobal  12  24       ; math
1FD4  0EC34606           [223] gettable   12  12  283  ; -1962864584
1FD8  4E43C504           [224] gettable   13  9   277  ; "z"
1FDC  9D030700           [225] getglobal  14  28       ; spinMaxVelocity
1FE0  8E434507           [226] gettable   14  14  277  ; "z"
fail op	0
1FE4  80030007           [227] move       14  14     
1FE8  22838001           [228] call       12  3   2  
1FEC  5D430700           [229] getglobal  13  29       ; 1289681407
1FF0  62838000           [230] call       13  1   2  
1FF4  04430306           [231] mul        12  12  13 
1FF8  4C02838A           [232] settable   9   277 12   ; "z"
1FFC  1D030600           [233] getglobal  12  24       ; math
2000  0EC34606           [234] gettable   12  12  283  ; -1962864584
2004  4E434503           [235] gettable   13  6   277  ; "z"
2008  8E43C504           [236] gettable   14  9   277  ; "z"
200C  22838001           [237] call       12  3   2  
2010  4C02838A           [238] settable   9   277 12   ; "z"
2014  1A800580           [239] jmp        23           ; to [263]
2018  1D030600           [240] getglobal  12  24       ; math
201C  0EC34606           [241] gettable   12  12  283  ; -1962864584
2020  4E43C503           [242] gettable   13  7   277  ; "z"
2024  9D830600           [243] getglobal  14  26       ; spinMinVelocity
2028  8E434507           [244] gettable   14  14  277  ; "z"
202C  22838001           [245] call       12  3   2  
2030  4C02838A           [246] settable   9   277 12   ; "z"
2034  1D030600           [247] getglobal  12  24       ; math
2038  0E434606           [248] gettable   12  12  281  ; 1710846250
203C  4E43C504           [249] gettable   13  9   277  ; "z"
2040  9D030700           [250] getglobal  14  28       ; spinMaxVelocity
2044  8E434507           [251] gettable   14  14  277  ; "z"
2048  22838001           [252] call       12  3   2  
204C  5D430700           [253] getglobal  13  29       ; 1289681407
2050  62838000           [254] call       13  1   2  
2054  04430306           [255] mul        12  12  13 
2058  4C02838A           [256] settable   9   277 12   ; "z"
205C  1D030600           [257] getglobal  12  24       ; math
2060  0E434606           [258] gettable   12  12  281  ; 1710846250
2064  4E434503           [259] gettable   13  6   277  ; "z"
2068  8E43C504           [260] gettable   14  9   277  ; "z"
206C  22838001           [261] call       12  3   2  
2070  4C02838A           [262] settable   9   277 12   ; "z"
2074  12028004           [263] move       8   9      
2078  0E834402           [264] gettable   12  4   274  ; "heading"
207C  4E434404           [265] gettable   13  8   273  ; "x"
2080  03430306           [266] add        12  12  13 
2084  0C010389           [267] settable   4   274 12   ; "heading"
2088  0E034502           [268] gettable   12  4   276  ; "pitch"
208C  4EC34404           [269] gettable   13  8   275  ; "y"
2090  03430306           [270] add        12  12  13 
2094  0C01038A           [271] settable   4   276 12   ; "pitch"
2098  0E834502           [272] gettable   12  4   278  ; "bank"
209C  4E434504           [273] gettable   13  8   277  ; "z"
20A0  03430306           [274] add        12  12  13 
20A4  0C01038B           [275] settable   4   278 12   ; "bank"
20A8  24834700           [276] self       12  0   286  ; -1484030041
20AC  92030005           [277] move       14  10     
20B0  D2030002           [278] move       15  4      
20B4  22430002           [279] call       12  4   1  
20B8  57010000           [280] loadbool   5   0   0    ; false
20BC  1DC30700           [281] getglobal  12  31       ; 562846818
20C0  52038004           [282] move       13  9      
20C4  22830001           [283] call       12  2   2  
fail op	21
20C8  15004806           [284] concat     0   12  288
20CC  1A001680           [285] jmp        89           ; to [375]
20D0  1D830200           [286] getglobal  12  10       ; _T
20D4  5DC30200           [287] getglobal  13  11       ; altString
20D8  0E430306           [288] gettable   12  12  13 
20DC  6443C301           [289] self       13  3   269  ; -605089866
20E0  62830001           [290] call       13  2   2  
20E4  0E430306           [291] gettable   12  12  13 
fail op	33
20E8  21008390           [292] tforloop   0       12   ; to [294] if exit
20EC  1AC00780           [293] jmp        32           ; to [326]
20F0  1D830200           [294] getglobal  12  10       ; _T
20F4  5DC30200           [295] getglobal  13  11       ; altString
20F8  0E430306           [296] gettable   12  12  13 
20FC  6443C301           [297] self       13  3   269  ; -605089866
2100  62830001           [298] call       13  2   2  
2104  9D830200           [299] getglobal  14  10       ; _T
2108  DDC30200           [300] getglobal  15  11       ; altString
210C  8EC30307           [301] gettable   14  14  15 
2110  E443C301           [302] self       15  3   269  ; -605089866
2114  E2830001           [303] call       15  2   2  
2118  8EC30307           [304] gettable   14  14  15 
211C  8D434807           [305] sub        14  14  289  ; 0
2120  0C838306           [306] settable   12  13  14 
2124  0E834402           [307] gettable   12  4   274  ; "heading"
fail op	35
2128  63004106           [308] close      1  
212C  1A800080           [309] jmp        3            ; to [313]
2130  0E834402           [310] gettable   12  4   274  ; "heading"
2134  0D034406           [311] sub        12  12  272  ; 0
2138  0C010389           [312] settable   4   274 12   ; "heading"
213C  0E034502           [313] gettable   12  4   276  ; "pitch"
fail op	35
2140  63004106           [314] close      1  
2144  1A800080           [315] jmp        3            ; to [319]
2148  0E034502           [316] gettable   12  4   276  ; "pitch"
214C  0D034406           [317] sub        12  12  272  ; 0
2150  0C01038A           [318] settable   4   276 12   ; "pitch"
2154  0E834502           [319] gettable   12  4   278  ; "bank"
fail op	35
2158  63004106           [320] close      1  
215C  1AC0F67F           [321] jmp        -36          ; to [286]
2160  0E834502           [322] gettable   12  4   278  ; "bank"
2164  0D034406           [323] sub        12  12  272  ; 0
2168  0C01038B           [324] settable   4   278 12   ; "bank"
216C  1AC0F57F           [325] jmp        -40          ; to [286]
2170  1D830200           [326] getglobal  12  10       ; _T
2174  5DC30200           [327] getglobal  13  11       ; altString
2178  0E430306           [328] gettable   12  12  13 
217C  6443C301           [329] self       13  3   269  ; -605089866
2180  62830001           [330] call       13  2   2  
2184  0E430306           [331] gettable   12  12  13 
fail op	33
2188  21004806           [332] tforloop   0       288  ; to [334] if exit
218C  1A000580           [333] jmp        21           ; to [355]
2190  1D830200           [334] getglobal  12  10       ; _T
2194  5DC30200           [335] getglobal  13  11       ; altString
2198  0E430306           [336] gettable   12  12  13 
219C  6443C301           [337] self       13  3   269  ; -605089866
21A0  62830001           [338] call       13  2   2  
21A4  9D030600           [339] getglobal  14  24       ; math
21A8  8EC34607           [340] gettable   14  14  283  ; -1962864584
21AC  D9030100           [341] loadk      15  4        ; 0
21B0  1D840200           [342] getglobal  16  10       ; _T
21B4  5DC40200           [343] getglobal  17  11       ; altString
21B8  0E440408           [344] gettable   16  16  17 
21BC  6444C301           [345] self       17  3   269  ; -605089866
21C0  62840001           [346] call       17  2   2  
21C4  0E440408           [347] gettable   16  16  17 
21C8  5D440700           [348] getglobal  17  29       ; 1289681407
21CC  62848000           [349] call       17  1   2  
21D0  4484C808           [350] mul        17  17  290  ; 0
21D4  0D440408           [351] sub        16  16  17 
21D8  A2838001           [352] call       14  3   2  
21DC  0C838306           [353] settable   12  13  14 
21E0  1AC00480           [354] jmp        20           ; to [375]
21E4  1D830200           [355] getglobal  12  10       ; _T
21E8  5DC30200           [356] getglobal  13  11       ; altString
21EC  0E430306           [357] gettable   12  12  13 
21F0  6443C301           [358] self       13  3   269  ; -605089866
21F4  62830001           [359] call       13  2   2  
21F8  9D030600           [360] getglobal  14  24       ; math
21FC  8E434607           [361] gettable   14  14  281  ; 1710846250
2200  D9430800           [362] loadk      15  33       ; 0
2204  1D840200           [363] getglobal  16  10       ; _T
2208  5DC40200           [364] getglobal  17  11       ; altString
220C  0E440408           [365] gettable   16  16  17 
2210  6444C301           [366] self       17  3   269  ; -605089866
2214  62840001           [367] call       17  2   2  
2218  0E440408           [368] gettable   16  16  17 
221C  5D440700           [369] getglobal  17  29       ; 1289681407
2220  62848000           [370] call       17  1   2  
2224  4484C808           [371] mul        17  17  290  ; 0
2228  03440408           [372] add        16  16  17 
222C  A2838001           [373] call       14  3   2  
2230  0C838306           [374] settable   12  13  14 
2234  1DC30000           [375] getglobal  12  3        ; 538022378
2238  59030100           [376] loadk      13  4        ; 0
223C  22430001           [377] call       12  2   1  
2240  1A40B27F           [378] jmp        -310         ; to [69]
2244  1E008000           [379] return     0   1      
                         * constants:
2248  23                 sizek (35)
2249  04                 const type 4
224A  0B                 string size (11)
224B  6747616D6552756C+  "gGameRul"
2253  657300             "es\0"
                         const [0]: "gGameRules"
2256  01                 const type 3
2257  D48E598B           const [1]: (-1957065004)
225B  04                 const type 4
225C  17                 string size (23)
225D  674C6F7475734875+  "gLotusHu"
2265  6247616D6552756C+  "bGameRul"
226D  65735479706500     "esType\0"
                         const [2]: "gLotusHubGameRulesType"
2274  01                 const type 3
2275  EA911120           const [3]: (538022378)
2279  03                 const type 3
227A  00000000           const [4]: (0)
227E  01                 const type 3
227F  3B467C90           const [5]: (-1870903749)
2283  01                 const type 3
2284  65770E40           const [6]: (1074689893)
2288  01                 const type 3
2289  280B2419           const [7]: (421792552)
228D  01                 const type 3
228E  539249A4           const [8]: (-1538682285)
2292  04                 const type 4
2293  10                 string size (16)
2294  64656661756C7452+  "defaultR"
229C  6F746174696F6E00   "otation\0"
                         const [9]: "defaultRotation"
22A4  04                 const type 4
22A5  03                 string size (3)
22A6  5F5400             "_T\0"
                         const [10]: "_T"
22A9  04                 const type 4
22AA  0A                 string size (10)
22AB  616C74537472696E+  "altStrin"
22B3  6700               "g\0"
                         const [11]: "altString"
22B5  00                 const type 0
                         const [12]: nil
22B6  01                 const type 3
22B7  B60FEFDB           const [13]: (-605089866)
22BB  01                 const type 3
22BC  00971C22           const [14]: (572299008)
22C0  01                 const type 3
22C1  97BBB236           const [15]: (917683095)
22C5  03                 const type 3
22C6  0000B443           const [16]: (0)
22CA  04                 const type 4
22CB  02                 string size (2)
22CC  7800               "x\0"
                         const [17]: "x"
22CE  04                 const type 4
22CF  08                 string size (8)
22D0  68656164696E6700   "heading\0"
                         const [18]: "heading"
22D8  04                 const type 4
22D9  02                 string size (2)
22DA  7900               "y\0"
                         const [19]: "y"
22DC  04                 const type 4
22DD  06                 string size (6)
22DE  706974636800       "pitch\0"
                         const [20]: "pitch"
22E4  04                 const type 4
22E5  02                 string size (2)
22E6  7A00               "z\0"
                         const [21]: "z"
22E8  04                 const type 4
22E9  05                 string size (5)
22EA  62616E6B00         "bank\0"
                         const [22]: "bank"
22EF  04                 const type 4
22F0  0F                 string size (15)
22F1  646966664D756C74+  "diffMult"
22F9  69706C69657200     "iplier\0"
                         const [23]: "diffMultiplier"
2300  04                 const type 4
2301  05                 string size (5)
2302  6D61746800         "math\0"
                         const [24]: "math"
2307  01                 const type 3
2308  2A71F965           const [25]: (1710846250)
230C  04                 const type 4
230D  10                 string size (16)
230E  7370696E4D696E56+  "spinMinV"
2316  656C6F6369747900   "elocity\0"
                         const [26]: "spinMinVelocity"
231E  01                 const type 3
231F  3810018B           const [27]: (-1962864584)
2323  04                 const type 4
2324  10                 string size (16)
2325  7370696E4D617856+  "spinMaxV"
232D  656C6F6369747900   "elocity\0"
                         const [28]: "spinMaxVelocity"
2335  01                 const type 3
2336  FFF9DE4C           const [29]: (1289681407)
233A  01                 const type 3
233B  A77F8BA7           const [30]: (-1484030041)
233F  01                 const type 3
2340  625C8C21           const [31]: (562846818)
2344  03                 const type 3
2345  0000003F           const [32]: (0)
2349  03                 const type 3
234A  0000803F           const [33]: (0)
234E  03                 const type 3
234F  00004040           const [34]: (0)
                         * functions:
2353  00                 sizep (0)
                         * lines:
2355  02                 sizelineinfo (379)
                         [pc] (line)
2356  1E                 [001] (30)
2357  01                 [002] (30)
2358  00                 [003] (30)
2359  00                 [004] (30)
235A  1E                 [005] (30)
235B  01                 [006] (30)
235C  00                 [007] (31)
235D  00                 [008] (34)
235E  1E                 [009] (34)
235F  01                 [010] (34)
2360  00                 [011] (35)
2361  00                 [012] (35)
2362  1E                 [013] (36)
2363  01                 [014] (36)
2364  00                 [015] (36)
2365  00                 [016] (36)
2366  1E                 [017] (36)
2367  01                 [018] (37)
2368  00                 [019] (39)
2369  00                 [020] (39)
236A  1E                 [021] (40)
236B  01                 [022] (40)
236C  00                 [023] (40)
236D  00                 [024] (40)
236E  1F                 [025] (40)
236F  01                 [026] (41)
2370  00                 [027] (43)
2371  00                 [028] (43)
2372  22                 [029] (45)
2373  01                 [030] (46)
2374  00                 [031] (48)
2375  00                 [032] (48)
2376  22                 [033] (48)
2377  01                 [034] (48)
2378  00                 [035] (48)
2379  00                 [036] (49)
237A  22                 [037] (49)
237B  01                 [038] (49)
237C  00                 [039] (49)
237D  00                 [040] (52)
237E  23                 [041] (52)
237F  01                 [042] (52)
2380  00                 [043] (52)
2381  00                 [044] (52)
2382  23                 [045] (53)
2383  01                 [046] (53)
2384  00                 [047] (53)
2385  00                 [048] (53)
2386  24                 [049] (53)
2387  01                 [050] (53)
2388  00                 [051] (53)
2389  00                 [052] (53)
238A  24                 [053] (54)
238B  01                 [054] (54)
238C  00                 [055] (54)
238D  00                 [056] (54)
238E  24                 [057] (54)
238F  01                 [058] (54)
2390  00                 [059] (58)
2391  00                 [060] (58)
2392  24                 [061] (59)
2393  01                 [062] (59)
2394  00                 [063] (60)
2395  00                 [064] (60)
2396  24                 [065] (61)
2397  01                 [066] (61)
2398  00                 [067] (62)
2399  00                 [068] (62)
239A  25                 [069] (63)
239B  01                 [070] (63)
239C  00                 [071] (63)
239D  00                 [072] (63)
239E  27                 [073] (63)
239F  01                 [074] (63)
23A0  00                 [075] (63)
23A1  00                 [076] (63)
23A2  27                 [077] (63)
23A3  01                 [078] (63)
23A4  00                 [079] (64)
23A5  00                 [080] (64)
23A6  28                 [081] (64)
23A7  01                 [082] (64)
23A8  00                 [083] (64)
23A9  00                 [084] (64)
23AA  28                 [085] (64)
23AB  01                 [086] (66)
23AC  00                 [087] (66)
23AD  00                 [088] (66)
23AE  28                 [089] (67)
23AF  01                 [090] (67)
23B0  00                 [091] (67)
23B1  00                 [092] (68)
23B2  28                 [093] (68)
23B3  01                 [094] (68)
23B4  00                 [095] (69)
23B5  00                 [096] (69)
23B6  28                 [097] (69)
23B7  01                 [098] (69)
23B8  00                 [099] (70)
23B9  00                 [100] (70)
23BA  29                 [101] (70)
23BB  01                 [102] (70)
23BC  00                 [103] (71)
23BD  00                 [104] (71)
23BE  2B                 [105] (71)
23BF  01                 [106] (71)
23C0  00                 [107] (73)
23C1  00                 [108] (73)
23C2  2B                 [109] (73)
23C3  01                 [110] (74)
23C4  00                 [111] (74)
23C5  00                 [112] (74)
23C6  2D                 [113] (74)
23C7  01                 [114] (74)
23C8  00                 [115] (74)
23C9  00                 [116] (74)
23CA  2E                 [117] (74)
23CB  01                 [118] (75)
23CC  00                 [119] (75)
23CD  00                 [120] (75)
23CE  30                 [121] (75)
23CF  01                 [122] (75)
23D0  00                 [123] (75)
23D1  00                 [124] (75)
23D2  30                 [125] (75)
23D3  01                 [126] (75)
23D4  00                 [127] (75)
23D5  00                 [128] (75)
23D6  30                 [129] (76)
23D7  01                 [130] (76)
23D8  00                 [131] (76)
23D9  00                 [132] (76)
23DA  30                 [133] (76)
23DB  01                 [134] (76)
23DC  00                 [135] (76)
23DD  00                 [136] (78)
23DE  30                 [137] (78)
23DF  01                 [138] (78)
23E0  00                 [139] (78)
23E1  00                 [140] (78)
23E2  31                 [141] (78)
23E3  01                 [142] (78)
23E4  00                 [143] (79)
23E5  00                 [144] (79)
23E6  31                 [145] (79)
23E7  01                 [146] (79)
23E8  00                 [147] (79)
23E9  00                 [148] (79)
23EA  31                 [149] (79)
23EB  01                 [150] (79)
23EC  00                 [151] (79)
23ED  00                 [152] (79)
23EE  31                 [153] (80)
23EF  01                 [154] (80)
23F0  00                 [155] (80)
23F1  00                 [156] (80)
23F2  34                 [157] (80)
23F3  01                 [158] (80)
23F4  00                 [159] (83)
23F5  00                 [160] (83)
23F6  34                 [161] (83)
23F7  01                 [162] (84)
23F8  00                 [163] (84)
23F9  00                 [164] (84)
23FA  34                 [165] (84)
23FB  01                 [166] (84)
23FC  00                 [167] (84)
23FD  00                 [168] (84)
23FE  34                 [169] (84)
23FF  01                 [170] (85)
2400  00                 [171] (85)
2401  00                 [172] (85)
2402  34                 [173] (85)
2403  01                 [174] (85)
2404  00                 [175] (85)
2405  00                 [176] (85)
2406  35                 [177] (85)
2407  01                 [178] (85)
2408  00                 [179] (85)
2409  00                 [180] (85)
240A  35                 [181] (86)
240B  01                 [182] (86)
240C  00                 [183] (86)
240D  00                 [184] (86)
240E  35                 [185] (86)
240F  01                 [186] (86)
2410  00                 [187] (86)
2411  00                 [188] (88)
2412  35                 [189] (88)
2413  01                 [190] (88)
2414  00                 [191] (88)
2415  00                 [192] (88)
2416  35                 [193] (88)
2417  01                 [194] (88)
2418  00                 [195] (89)
2419  00                 [196] (89)
241A  35                 [197] (89)
241B  01                 [198] (89)
241C  00                 [199] (89)
241D  00                 [200] (89)
241E  35                 [201] (89)
241F  01                 [202] (89)
2420  00                 [203] (89)
2421  00                 [204] (89)
2422  35                 [205] (90)
2423  01                 [206] (90)
2424  00                 [207] (90)
2425  00                 [208] (90)
2426  36                 [209] (90)
2427  01                 [210] (90)
2428  00                 [211] (93)
2429  00                 [212] (93)
242A  36                 [213] (93)
242B  01                 [214] (94)
242C  00                 [215] (94)
242D  00                 [216] (94)
242E  36                 [217] (94)
242F  01                 [218] (94)
2430  00                 [219] (94)
2431  00                 [220] (94)
2432  36                 [221] (94)
2433  01                 [222] (95)
2434  00                 [223] (95)
2435  00                 [224] (95)
2436  36                 [225] (95)
2437  01                 [226] (95)
2438  00                 [227] (95)
2439  00                 [228] (95)
243A  36                 [229] (95)
243B  01                 [230] (95)
243C  00                 [231] (95)
243D  00                 [232] (95)
243E  3A                 [233] (96)
243F  01                 [234] (96)
2440  00                 [235] (96)
2441  00                 [236] (96)
2442  3A                 [237] (96)
2443  01                 [238] (96)
2444  00                 [239] (96)
2445  00                 [240] (98)
2446  3B                 [241] (98)
2447  01                 [242] (98)
2448  00                 [243] (98)
2449  00                 [244] (98)
244A  3B                 [245] (98)
244B  01                 [246] (98)
244C  00                 [247] (99)
244D  00                 [248] (99)
244E  3C                 [249] (99)
244F  01                 [250] (99)
2450  00                 [251] (99)
2451  00                 [252] (99)
2452  3C                 [253] (99)
2453  01                 [254] (99)
2454  00                 [255] (99)
2455  00                 [256] (99)
2456  3D                 [257] (100)
2457  01                 [258] (100)
2458  00                 [259] (100)
2459  00                 [260] (100)
245A  3D                 [261] (100)
245B  01                 [262] (100)
245C  00                 [263] (103)
245D  00                 [264] (105)
245E  3E                 [265] (105)
245F  01                 [266] (105)
2460  00                 [267] (105)
2461  00                 [268] (106)
2462  3E                 [269] (106)
2463  01                 [270] (106)
2464  00                 [271] (106)
2465  00                 [272] (107)
2466  3F                 [273] (107)
2467  01                 [274] (107)
2468  00                 [275] (107)
2469  00                 [276] (109)
246A  3F                 [277] (109)
246B  01                 [278] (109)
246C  00                 [279] (109)
246D  00                 [280] (110)
246E  3F                 [281] (112)
246F  01                 [282] (112)
2470  00                 [283] (112)
2471  00                 [284] (112)
2472  3F                 [285] (112)
2473  01                 [286] (113)
2474  00                 [287] (113)
2475  00                 [288] (113)
2476  3F                 [289] (113)
2477  01                 [290] (113)
2478  00                 [291] (113)
2479  00                 [292] (113)
247A  3F                 [293] (113)
247B  01                 [294] (114)
247C  00                 [295] (114)
247D  00                 [296] (114)
247E  3F                 [297] (114)
247F  01                 [298] (114)
2480  00                 [299] (114)
2481  00                 [300] (114)
2482  3F                 [301] (114)
2483  01                 [302] (114)
2484  00                 [303] (114)
2485  00                 [304] (114)
2486  3F                 [305] (114)
2487  01                 [306] (114)
2488  00                 [307] (115)
2489  00                 [308] (115)
248A  3F                 [309] (115)
248B  01                 [310] (116)
248C  00                 [311] (116)
248D  00                 [312] (116)
248E  40                 [313] (119)
248F  01                 [314] (119)
2490  00                 [315] (119)
2491  00                 [316] (120)
2492  40                 [317] (120)
2493  01                 [318] (120)
2494  00                 [319] (123)
2495  00                 [320] (123)
2496  40                 [321] (123)
2497  01                 [322] (124)
2498  00                 [323] (124)
2499  00                 [324] (124)
249A  40                 [325] (125)
249B  01                 [326] (-128)
249C  00                 [327] (-128)
249D  00                 [328] (-128)
249E  40                 [329] (-128)
249F  01                 [330] (-128)
24A0  00                 [331] (-128)
24A1  00                 [332] (-128)
24A2  40                 [333] (-128)
24A3  01                 [334] (-127)
24A4  00                 [335] (-127)
24A5  00                 [336] (-127)
24A6  40                 [337] (-127)
24A7  01                 [338] (-127)
24A8  00                 [339] (-127)
24A9  00                 [340] (-127)
24AA  42                 [341] (-127)
24AB  01                 [342] (-127)
24AC  00                 [343] (-127)
24AD  00                 [344] (-127)
24AE  42                 [345] (-127)
24AF  01                 [346] (-127)
24B0  00                 [347] (-127)
24B1  00                 [348] (-127)
24B2  42                 [349] (-127)
24B3  01                 [350] (-127)
24B4  00                 [351] (-127)
24B5  00                 [352] (-127)
24B6  43                 [353] (-127)
24B7  01                 [354] (-127)
24B8  00                 [355] (-125)
24B9  00                 [356] (-125)
24BA  43                 [357] (-125)
24BB  01                 [358] (-125)
24BC  00                 [359] (-125)
24BD  00                 [360] (-125)
24BE  43                 [361] (-125)
24BF  01                 [362] (-125)
24C0  00                 [363] (-125)
24C1  00                 [364] (-125)
24C2  44                 [365] (-125)
24C3  01                 [366] (-125)
24C4  00                 [367] (-125)
24C5  00                 [368] (-125)
24C6  44                 [369] (-125)
24C7  01                 [370] (-125)
24C8  00                 [371] (-125)
24C9  00                 [372] (-125)
24CA  44                 [373] (-125)
24CB  01                 [374] (-125)
24CC  00                 [375] (-121)
24CD  00                 [376] (-121)
24CE  45                 [377] (-121)
24CF  01                 [378] (-121)
24D0  00                 [379] (-119)
                         * locals:
2942  00                 sizelocvars (0)
                         * upvalues:
2943  00                 sizeupvalues (0)
                         ** end of function **

                         
2944                     ** function [12] definition (level 2)
                         ** start of function **
2944  00                 string size (0)
                         source name: (none)
2946  03                 line defined (395)
2947  98                 last line defined (408)
2948  03                 nups (0)
2949  00                 numparams (3)
294A  03                 is_vararg (0)
294B  00                 maxstacksize (15)
                         * code:
294D  1B                 sizecode (27)
294E  E4004000           [01] self       3   0   256  ; -1348043987
2952  E2800001           [02] call       3   2   2  
2956  1D410000           [03] getglobal  4   1        ; 1074689893
295A  52018001           [04] move       5   3      
295E  22810001           [05] call       4   2   2  
2962  18010000           [06] test       4       0    ; to [8] if true
2966  1A000080           [07] jmp        1            ; to [9]
296A  1E008000           [08] return     0   1      
296E  2481C001           [09] self       4   3   258  ; -1216321311
2972  92010001           [10] move       6   2      
2976  22418001           [11] call       4   3   1  
297A  24C1C000           [12] self       4   1   259  ; -1446451954
297E  22810001           [13] call       4   2   2  
fail op	21
2982  15000182           [14] concat     0   260 4  
2986  1A800280           [15] jmp        11           ; to [27]
298A  59010100           [16] loadk      5   4        ; 0
298E  8D414102           [17] sub        6   4   261  ; 0
2992  D9410100           [18] loadk      7   5        ; 0
2996  50410180           [19] forprep    5   6        ; to [26]
299A  64824101           [20] self       9   2   262  ; 1728877662
299E  D2020004           [21] move       11  8      
29A2  24C3C100           [22] self       12  1   263  ; -748264490
29A6  92030004           [23] move       14  8      
29AA  22038001           [24] call       12  3   0  
29AE  62420000           [25] call       9   0   1  
29B2  5401FE7F           [26] forloop    5   -7       ; to [20] if loop
29B6  1E008000           [27] return     0   1      
                         * constants:
29BA  08                 sizek (8)
29BB  01                 const type 3
29BC  2D7BA6AF           const [0]: (-1348043987)
29C0  01                 const type 3
29C1  65770E40           const [1]: (1074689893)
29C5  01                 const type 3
29C6  E16880B7           const [2]: (-1216321311)
29CA  01                 const type 3
29CB  0EE5C8A9           const [3]: (-1446451954)
29CF  03                 const type 3
29D0  00000000           const [4]: (0)
29D4  03                 const type 3
29D5  0000803F           const [5]: (0)
29D9  01                 const type 3
29DA  5E940C67           const [6]: (1728877662)
29DE  01                 const type 3
29DF  D66366D3           const [7]: (-748264490)
                         * functions:
29E3  00                 sizep (0)
                         * lines:
29E4  1B                 sizelineinfo (27)
                         [pc] (line)
29E5  8C                 [01] (-116)
29E6  01                 [02] (-116)
29E7  00                 [03] (-115)
29E8  00                 [04] (-115)
29E9  8C                 [05] (-115)
29EA  01                 [06] (-115)
29EB  00                 [07] (-115)
29EC  00                 [08] (-114)
29ED  8D                 [09] (-111)
29EE  01                 [10] (-111)
29EF  00                 [11] (-111)
29F0  00                 [12] (-110)
29F1  8D                 [13] (-110)
29F2  01                 [14] (-109)
29F3  00                 [15] (-109)
29F4  00                 [16] (-108)
29F5  8D                 [17] (-108)
29F6  01                 [18] (-108)
29F7  00                 [19] (-108)
29F8  00                 [20] (-107)
29F9  8D                 [21] (-107)
29FA  01                 [22] (-107)
29FB  00                 [23] (-107)
29FC  00                 [24] (-107)
29FD  8D                 [25] (-107)
29FE  01                 [26] (-108)
29FF  00                 [27] (-104)
                         * locals:
2A51  00                 sizelocvars (0)
                         * upvalues:
2A52  00                 sizeupvalues (0)
                         ** end of function **

                         
2A53                     ** function [13] definition (level 2)
                         ** start of function **
2A53  00                 string size (0)
                         source name: (none)
2A55  03                 line defined (410)
2A56  B9                 last line defined (441)
2A57  03                 nups (1)
2A58  01                 numparams (1)
2A59  01                 is_vararg (0)
2A5A  00                 maxstacksize (12)
                         * code:
2A5C  45                 sizecode (69)
2A5D  64004000           [01] self       1   0   256  ; 129677183
2A61  62800001           [02] call       1   2   2  
2A65  9D400000           [03] getglobal  2   1        ; 1074689893
2A69  D2008000           [04] move       3   1      
2A6D  A2800001           [05] call       2   2   2  
2A71  98000000           [06] test       2       0    ; to [8] if true
2A75  1A000080           [07] jmp        1            ; to [9]
2A79  1E008000           [08] return     0   1      
2A7D  86000001           [09] loadnil    2   2      
2A81  E480C000           [10] self       3   1   258  ; -1957065004
2A85  5DC10000           [11] getglobal  5   3        ; gLotusWeaponType
2A89  E2808001           [12] call       3   3   2  
2A8D  D8000000           [13] test       3       0    ; to [15] if true
2A91  1A400080           [14] jmp        2            ; to [17]
2A95  92008000           [15] move       2   1      
2A99  1A800080           [16] jmp        3            ; to [20]
2A9D  E400C000           [17] self       3   1   256  ; 129677183
2AA1  E2800001           [18] call       3   2   2  
2AA5  92008001           [19] move       2   3      
2AA9  DD400000           [20] getglobal  3   1        ; 1074689893
2AAD  12010001           [21] move       4   2      
2AB1  E2800001           [22] call       3   2   2  
2AB5  D8000000           [23] test       3       0    ; to [25] if true
2AB9  1A000080           [24] jmp        1            ; to [26]
2ABD  1E008000           [25] return     0   1      
2AC1  E4004101           [26] self       3   2   260  ; -227172805
2AC5  E2800001           [27] call       3   2   2  
2AC9  24414101           [28] self       4   2   261  ; -479621877
2ACD  9D810100           [29] getglobal  6   6        ; Engine
2AD1  8EC14103           [30] gettable   6   6   263  ; "THIRD_PERSON"
2AD5  D2018001           [31] move       7   3      
2AD9  22810002           [32] call       4   4   2  
2ADD  5D410000           [33] getglobal  5   1        ; 1074689893
2AE1  92010002           [34] move       6   4      
2AE5  62810001           [35] call       5   2   2  
2AE9  58010000           [36] test       5       0    ; to [38] if true
2AED  1A000080           [37] jmp        1            ; to [39]
2AF1  1E008000           [38] return     0   1      
2AF5  64014201           [39] self       5   2   264  ; 830516712
2AF9  62810001           [40] call       5   2   2  
2AFD  58010000           [41] test       5       0    ; to [43] if true
2B01  1A000580           [42] jmp        21           ; to [64]
2B05  64414201           [43] self       5   2   265  ; 1264818901
2B09  DD810200           [44] getglobal  7   10       ; Lotus_Game
2B0D  CEC1C203           [45] gettable   7   7   267  ; "LWPT_GUN_CLIP"
2B11  62818001           [46] call       5   3   2  
2B15  9D410000           [47] getglobal  6   1        ; 1074689893
2B19  D2018002           [48] move       7   5      
2B1D  A2810001           [49] call       6   2   2  
2B21  98410000           [50] test       6       1    ; to [52] if false
2B25  1AC00280           [51] jmp        12           ; to [64]
2B29  A401C302           [52] self       6   5   268  ; -1298130151
2B2D  A2810001           [53] call       6   2   2  
2B31  DD410000           [54] getglobal  7   1        ; 1074689893
2B35  12020003           [55] move       8   6      
2B39  E2810001           [56] call       7   2   2  
2B3D  D8410000           [57] test       7       1    ; to [59] if false
2B41  1A000180           [58] jmp        5            ; to [64]
2B45  E4414300           [59] self       7   0   269  ; 919598577
2B49  52020003           [60] move       9   6      
2B4D  97028000           [61] loadbool   10  1   0    ; true
2B51  D7028000           [62] loadbool   11  1   0    ; true
2B55  E2418002           [63] call       7   5   1  
2B59  D3010000           [64] getupval   7   0      
2B5D  12020001           [65] move       8   2      
2B61  52020002           [66] move       9   4      
2B65  92020000           [67] move       10  0      
2B69  E2410002           [68] call       7   4   1  
2B6D  1E008000           [69] return     0   1      
                         * constants:
2B71  0E                 sizek (14)
2B72  01                 const type 3
2B73  7FB7BA07           const [0]: (129677183)
2B77  01                 const type 3
2B78  65770E40           const [1]: (1074689893)
2B7C  01                 const type 3
2B7D  D48E598B           const [2]: (-1957065004)
2B81  04                 const type 4
2B82  11                 string size (17)
2B83  674C6F7475735765+  "gLotusWe"
2B8B  61706F6E54797065+  "aponType"
2B93  00                 "\0"
                         const [3]: "gLotusWeaponType"
2B94  01                 const type 3
2B95  3B9E75F2           const [4]: (-227172805)
2B99  01                 const type 3
2B9A  0B8D69E3           const [5]: (-479621877)
2B9E  04                 const type 4
2B9F  07                 string size (7)
2BA0  456E67696E6500     "Engine\0"
                         const [6]: "Engine"
2BA7  04                 const type 4
2BA8  0D                 string size (13)
2BA9  54484952445F5045+  "THIRD_PE"
2BB1  52534F4E00         "RSON\0"
                         const [7]: "THIRD_PERSON"
2BB6  01                 const type 3
2BB7  E8AD8031           const [8]: (830516712)
2BBB  01                 const type 3
2BBC  D59A634B           const [9]: (1264818901)
2BC0  04                 const type 4
2BC1  0B                 string size (11)
2BC2  4C6F7475735F4761+  "Lotus_Ga"
2BCA  6D6500             "me\0"
                         const [10]: "Lotus_Game"
2BCD  04                 const type 4
2BCE  0E                 string size (14)
2BCF  4C5750545F47554E+  "LWPT_GUN"
2BD7  5F434C495000       "_CLIP\0"
                         const [11]: "LWPT_GUN_CLIP"
2BDD  01                 const type 3
2BDE  191BA0B2           const [12]: (-1298130151)
2BE2  01                 const type 3
2BE3  F1F5CF36           const [13]: (919598577)
                         * functions:
2BE7  00                 sizep (0)
                         * lines:
2BE8  45                 sizelineinfo (69)
                         [pc] (line)
2BE9  9B                 [01] (-101)
2BEA  01                 [02] (-101)
2BEB  00                 [03] (-100)
2BEC  00                 [04] (-100)
2BED  9B                 [05] (-100)
2BEE  01                 [06] (-100)
2BEF  00                 [07] (-100)
2BF0  00                 [08] (-99)
2BF1  9C                 [09] (-97)
2BF2  01                 [10] (-96)
2BF3  00                 [11] (-96)
2BF4  00                 [12] (-96)
2BF5  9C                 [13] (-96)
2BF6  01                 [14] (-96)
2BF7  00                 [15] (-95)
2BF8  00                 [16] (-95)
2BF9  9C                 [17] (-93)
2BFA  01                 [18] (-93)
2BFB  00                 [19] (-93)
2BFC  00                 [20] (-91)
2BFD  9C                 [21] (-91)
2BFE  01                 [22] (-91)
2BFF  00                 [23] (-91)
2C00  00                 [24] (-91)
2C01  9C                 [25] (-90)
2C02  01                 [26] (-88)
2C03  00                 [27] (-88)
2C04  00                 [28] (-87)
2C05  9D                 [29] (-87)
2C06  01                 [30] (-87)
2C07  00                 [31] (-87)
2C08  00                 [32] (-87)
2C09  9F                 [33] (-86)
2C0A  01                 [34] (-86)
2C0B  00                 [35] (-86)
2C0C  00                 [36] (-86)
2C0D  A0                 [37] (-86)
2C0E  01                 [38] (-85)
2C0F  00                 [39] (-82)
2C10  00                 [40] (-82)
2C11  A0                 [41] (-82)
2C12  01                 [42] (-82)
2C13  00                 [43] (-81)
2C14  00                 [44] (-81)
2C15  A0                 [45] (-81)
2C16  01                 [46] (-81)
2C17  00                 [47] (-80)
2C18  00                 [48] (-80)
2C19  A0                 [49] (-80)
2C1A  01                 [50] (-80)
2C1B  00                 [51] (-80)
2C1C  00                 [52] (-79)
2C1D  A0                 [53] (-79)
2C1E  01                 [54] (-78)
2C1F  00                 [55] (-78)
2C20  00                 [56] (-78)
2C21  A1                 [57] (-78)
2C22  01                 [58] (-78)
2C23  00                 [59] (-77)
2C24  00                 [60] (-77)
2C25  A1                 [61] (-77)
2C26  01                 [62] (-77)
2C27  00                 [63] (-77)
2C28  00                 [64] (-72)
2C29  A3                 [65] (-72)
2C2A  01                 [66] (-72)
2C2B  00                 [67] (-72)
2C2C  00                 [68] (-72)
2C2D  A3                 [69] (-71)
                         * locals:
2CFD  00                 sizelocvars (0)
                         * upvalues:
2CFE  00                 sizeupvalues (0)
                         ** end of function **

                         
2CFF                     ** function [14] definition (level 2)
                         ** start of function **
2CFF  00                 string size (0)
                         source name: (none)
2D01  03                 line defined (443)
2D02  D9                 last line defined (473)
2D03  03                 nups (1)
2D04  01                 numparams (1)
2D05  01                 is_vararg (0)
2D06  00                 maxstacksize (10)
                         * code:
2D08  47                 sizecode (71)
2D09  5D000000           [01] getglobal  1   0        ; 1074689893
2D0D  92000000           [02] move       2   0      
2D11  62800001           [03] call       1   2   2  
2D15  58000000           [04] test       1       0    ; to [6] if true
2D19  1A000080           [05] jmp        1            ; to [7]
2D1D  1E008000           [06] return     0   1      
2D21  64404000           [07] self       1   0   257  ; -1870903749
2D25  62800001           [08] call       1   2   2  
2D29  9D000000           [09] getglobal  2   0        ; 1074689893
2D2D  D2008000           [10] move       3   1      
2D31  A2800001           [11] call       2   2   2  
2D35  98000000           [12] test       2       0    ; to [14] if true
2D39  1A800180           [13] jmp        7            ; to [21]
2D3D  9D800000           [14] getglobal  2   2        ; 538022378
2D41  D9C00000           [15] loadk      3   3        ; 0
2D45  A2400001           [16] call       2   2   1  
2D49  A4404000           [17] self       2   0   257  ; -1870903749
2D4D  A2800001           [18] call       2   2   2  
2D51  52000001           [19] move       1   2      
2D55  1AC0FC7F           [20] jmp        -12          ; to [9]
2D59  A400C100           [21] self       2   1   260  ; -1957065004
2D5D  1D410100           [22] getglobal  4   5        ; gLotusWeaponAttachmentType
2D61  A2808001           [23] call       2   3   2  
2D65  98400000           [24] test       2       1    ; to [26] if false
2D69  1A000080           [25] jmp        1            ; to [27]
2D6D  1E008000           [26] return     0   1      
2D71  A480C100           [27] self       2   1   262  ; 421792552
2D75  A2800001           [28] call       2   2   2  
2D79  DD000000           [29] getglobal  3   0        ; 1074689893
2D7D  12010001           [30] move       4   2      
2D81  E2800001           [31] call       3   2   2  
2D85  D8000000           [32] test       3       0    ; to [34] if true
2D89  1A800180           [33] jmp        7            ; to [41]
2D8D  DD800000           [34] getglobal  3   2        ; 538022378
2D91  19C10000           [35] loadk      4   3        ; 0
2D95  E2400001           [36] call       3   2   1  
2D99  E480C100           [37] self       3   1   262  ; 421792552
2D9D  E2800001           [38] call       3   2   2  
2DA1  92008001           [39] move       2   3      
2DA5  1AC0FC7F           [40] jmp        -12          ; to [29]
2DA9  E4C04101           [41] self       3   2   263  ; 830516712
2DAD  E2800001           [42] call       3   2   2  
2DB1  D8000000           [43] test       3       0    ; to [45] if true
2DB5  1A000580           [44] jmp        21           ; to [66]
2DB9  E4004201           [45] self       3   2   264  ; 1264818901
2DBD  5D410200           [46] getglobal  5   9        ; Lotus_Game
2DC1  4E81C202           [47] gettable   5   5   266  ; "LWPT_GUN_CLIP"
2DC5  E2808001           [48] call       3   3   2  
2DC9  1D010000           [49] getglobal  4   0        ; 1074689893
2DCD  52018001           [50] move       5   3      
2DD1  22810001           [51] call       4   2   2  
2DD5  18410000           [52] test       4       1    ; to [54] if false
2DD9  1AC00280           [53] jmp        12           ; to [66]
2DDD  24C1C201           [54] self       4   3   267  ; -1298130151
2DE1  22810001           [55] call       4   2   2  
2DE5  5D010000           [56] getglobal  5   0        ; 1074689893
2DE9  92010002           [57] move       6   4      
2DED  62810001           [58] call       5   2   2  
2DF1  58410000           [59] test       5       1    ; to [61] if false
2DF5  1A000180           [60] jmp        5            ; to [66]
2DF9  64014300           [61] self       5   0   268  ; 919598577
2DFD  D2010002           [62] move       7   4      
2E01  17028000           [63] loadbool   8   1   0    ; true
2E05  57028000           [64] loadbool   9   1   0    ; true
2E09  62418002           [65] call       5   5   1  
2E0D  53010000           [66] getupval   5   0      
2E11  92010001           [67] move       6   2      
2E15  D2018000           [68] move       7   1      
2E19  12020000           [69] move       8   0      
2E1D  62410002           [70] call       5   4   1  
2E21  1E008000           [71] return     0   1      
                         * constants:
2E25  0D                 sizek (13)
2E26  01                 const type 3
2E27  65770E40           const [0]: (1074689893)
2E2B  01                 const type 3
2E2C  3B467C90           const [1]: (-1870903749)
2E30  01                 const type 3
2E31  EA911120           const [2]: (538022378)
2E35  03                 const type 3
2E36  00000000           const [3]: (0)
2E3A  01                 const type 3
2E3B  D48E598B           const [4]: (-1957065004)
2E3F  04                 const type 4
2E40  1B                 string size (27)
2E41  674C6F7475735765+  "gLotusWe"
2E49  61706F6E41747461+  "aponAtta"
2E51  63686D656E745479+  "chmentTy"
2E59  706500             "pe\0"
                         const [5]: "gLotusWeaponAttachmentType"
2E5C  01                 const type 3
2E5D  280B2419           const [6]: (421792552)
2E61  01                 const type 3
2E62  E8AD8031           const [7]: (830516712)
2E66  01                 const type 3
2E67  D59A634B           const [8]: (1264818901)
2E6B  04                 const type 4
2E6C  0B                 string size (11)
2E6D  4C6F7475735F4761+  "Lotus_Ga"
2E75  6D6500             "me\0"
                         const [9]: "Lotus_Game"
2E78  04                 const type 4
2E79  0E                 string size (14)
2E7A  4C5750545F47554E+  "LWPT_GUN"
2E82  5F434C495000       "_CLIP\0"
                         const [10]: "LWPT_GUN_CLIP"
2E88  01                 const type 3
2E89  191BA0B2           const [11]: (-1298130151)
2E8D  01                 const type 3
2E8E  F1F5CF36           const [12]: (919598577)
                         * functions:
2E92  00                 sizep (0)
                         * lines:
2E93  47                 sizelineinfo (71)
                         [pc] (line)
2E94  BC                 [01] (-68)
2E95  01                 [02] (-68)
2E96  00                 [03] (-68)
2E97  00                 [04] (-68)
2E98  BC                 [05] (-68)
2E99  01                 [06] (-67)
2E9A  00                 [07] (-65)
2E9B  00                 [08] (-65)
2E9C  BC                 [09] (-64)
2E9D  01                 [10] (-64)
2E9E  00                 [11] (-64)
2E9F  00                 [12] (-64)
2EA0  BC                 [13] (-64)
2EA1  01                 [14] (-63)
2EA2  00                 [15] (-63)
2EA3  00                 [16] (-63)
2EA4  BC                 [17] (-62)
2EA5  01                 [18] (-62)
2EA6  00                 [19] (-62)
2EA7  00                 [20] (-62)
2EA8  BD                 [21] (-59)
2EA9  01                 [22] (-59)
2EAA  00                 [23] (-59)
2EAB  00                 [24] (-59)
2EAC  BF                 [25] (-59)
2EAD  01                 [26] (-58)
2EAE  00                 [27] (-55)
2EAF  00                 [28] (-55)
2EB0  BF                 [29] (-54)
2EB1  01                 [30] (-54)
2EB2  00                 [31] (-54)
2EB3  00                 [32] (-54)
2EB4  C0                 [33] (-54)
2EB5  01                 [34] (-53)
2EB6  00                 [35] (-53)
2EB7  00                 [36] (-53)
2EB8  C0                 [37] (-52)
2EB9  01                 [38] (-52)
2EBA  00                 [39] (-52)
2EBB  00                 [40] (-52)
2EBC  C0                 [41] (-49)
2EBD  01                 [42] (-49)
2EBE  00                 [43] (-49)
2EBF  00                 [44] (-49)
2EC0  C0                 [45] (-48)
2EC1  01                 [46] (-48)
2EC2  00                 [47] (-48)
2EC3  00                 [48] (-48)
2EC4  C0                 [49] (-47)
2EC5  01                 [50] (-47)
2EC6  00                 [51] (-47)
2EC7  00                 [52] (-47)
2EC8  C1                 [53] (-47)
2EC9  01                 [54] (-46)
2ECA  00                 [55] (-46)
2ECB  00                 [56] (-45)
2ECC  C1                 [57] (-45)
2ECD  01                 [58] (-45)
2ECE  00                 [59] (-45)
2ECF  00                 [60] (-45)
2ED0  C1                 [61] (-44)
2ED1  01                 [62] (-44)
2ED2  00                 [63] (-44)
2ED3  00                 [64] (-44)
2ED4  C2                 [65] (-44)
2ED5  01                 [66] (-40)
2ED6  00                 [67] (-40)
2ED7  00                 [68] (-40)
2ED8  C2                 [69] (-40)
2ED9  01                 [70] (-40)
2EDA  00                 [71] (-39)
                         * locals:
2FB0  00                 sizelocvars (0)
                         * upvalues:
2FB1  00                 sizeupvalues (0)
                         ** end of function **

                         * lines:
2FB2  30                 sizelineinfo (48)
                         [pc] (line)
2FB3  16                 [01] (22)
2FB4  00                 [02] (38)
2FB5  00                 [03] (38)
2FB6  00                 [04] (29)
2FB7  26                 [05] (42)
2FB8  00                 [06] (42)
2FB9  00                 [07] (40)
2FBA  00                 [08] (75)
2FBB  26                 [09] (75)
2FBC  00                 [10] (44)
2FBD  00                 [11] (86)
2FBE  00                 [12] (86)
2FBF  1D                 [13] (77)
2FC0  00                 [14] (104)
2FC1  00                 [15] (104)
2FC2  00                 [16] (88)
2FC3  2A                 [17] (120)
2FC4  00                 [18] (120)
2FC5  00                 [19] (106)
2FC6  00                 [20] (-124)
2FC7  2A                 [21] (-124)
2FC8  00                 [22] (122)
2FC9  00                 [23] (-83)
2FCA  00                 [24] (-83)
2FCB  28                 [25] (-122)
2FCC  00                 [26] (-55)
2FCD  00                 [27] (-55)
2FCE  00                 [28] (-81)
2FCF  4B                 [29] (4)
2FD0  00                 [30] (4)
2FD1  00                 [31] (4)
2FD2  00                 [32] (-53)
2FD3  4B                 [33] (27)
2FD4  00                 [34] (27)
2FD5  00                 [35] (6)
2FD6  00                 [36] (-119)
2FD7  2C                 [37] (-119)
2FD8  00                 [38] (29)
2FD9  00                 [39] (-104)
2FDA  00                 [40] (-71)
2FDB  56                 [41] (-71)
2FDC  00                 [42] (-71)
2FDD  00                 [43] (-102)
2FDE  00                 [44] (-39)
2FDF  56                 [45] (-39)
2FE0  00                 [46] (-39)
2FE1  00                 [47] (-69)
2FE2  00                 [48] (-39)
                         * locals:
3073  00                 sizelocvars (0)
                         * upvalues:
3074  00                 sizeupvalues (0)
                         ** end of function **

3075                     ** end of chunk **
