1	C:\wlua_dump\path\Lotus\Scripts\WeaponAttachmentsOperatorMeleeWeapon.lua
Pos   Hex Data           Description or Code
------------------------------------------------------------------------
0000                     ** source chunk: C:\wlua_dump\path\Lotus\Scripts\WeaponAttachmentsOperatorMeleeWeapon.lua
                         ** global header start **
0000  7F                 header signature: ""
0001  00                 version (major:minor hex digits)
0002  00                 format (0=official)
0003  00                 endianness (1=little endian)
0004  00                 size of int (bytes)
0005  00                 size of size_t (bytes)
0006  02                 size of Instruction (bytes)
0007  14                 size of number (bytes)
0008  B9                 integral (1=integral)
4185
                         * number type: single
                         * x86 standard (32-bit, little endian, doubles)
                         ** global header end **
Lotus.Powersuits.Operator.OperatorLib
GAME_R1_WEAPON1
tag
BlastFireball
duration
damage
BlastSelfShield
absorbPerEnergy
BlastAllyShield
shield
radius
energyCost
BlastSlow
slow
BlastBurst
range
BlastConfuse
chance
BlastDisarm
BlastBulletAttractor
BlastDamagePickup
upgrade
/Lotus/Upgrades/CosmeticEnhancers/OperatorArmour/HeatResistOnBlast
resistance
/Lotus/Upgrades/CosmeticEnhancers/OperatorArmour/ProcResistOnBlast
/Lotus/Upgrades/CosmeticEnhancers/OperatorArmour/RobotStunOnBlast
stunDuration
maxHealthAsDamage
damageRange
GetBlastRobotStunDescription
GetBlastPunctureResistDescription
GetBlastHeatResistDescription
GetDescriptionInfo
OnMeleeAttack
SlowTarget
ConfuseTarget
DamageBoostPickup
RobotStun
OnMeleeHit
DURATION
stunDuration
HEALTH
math
maxHealthAsDamage
DISTANCE
damageRange
cjson
AMOUNT
math
resistance
cjson
AMOUNT
math
resistance
cjson
tag
DURATION

duration
DAMAGE
math
damage
BlastCharge
PERCENT
SHIELD
shield
RADIUS
radius
ENERGY
energyCost
AMOUNT
absorbPerEnergy
slow
range
CHANCE
chance
cjson
math
handBone
gRegion
fireballProjType
Engine
SLOT_6
damage
MeleeSlam
_T
voidStrike
multiplier
duration
launchSound
RS_IN_RIFT
RS_OUT_RIFT
gRegion
blastAllyShieldEffect
ZERO_ROTATION
shield
radius
energyCost
gTennoAvatarType
blastAllyShieldAvatarEffect
EMPTY_SYMBOL
ZERO_VECTOR
Engine
baseAmount
damage
SLOT_6
MeleeSlam
radius
range
checkForCover
DT_ELECTRICITY
Game
PT_ELECTROCUTION
handBone
gRegion
blastBurstType
Lotus_Game
AP_ATTACK
tag
duration
AP_DEFENSE
shield
AP_POWER
slow
range
AP_TACTIC
chance
AP_WARD
upgrade
OnMeleeHit
tag
slow
duration
BLAST_CONFUSE
tag
duration
damage
Game
WEAPON_DAMAGE_AMOUNT
STACKING_MULTIPLY
WEAPON_MELEE_DAMAGE
WEAPON_MELEE_SLAM_DAMAGE_BONUS
Lotus_Game
instigator
affected
buffType
BT_PERCENT_TIMER
buffData
buffDataExtra
math
abilityType
/Lotus/Upgrades/Focus/Ward/Active/BlastDamagePickupFocusUpgrade
stunDuration
blastRobotStunnedEffect
gRegion
blastRobotStunExplosion
ZERO_ROTATION
_T
robotStun
maxHealthAsDamage
math
damageRange
Engine
baseAmount
DT_ELECTRICITY
TENNO
gLotusNpcAvatarType
Engine
DHT_MELEE
gRegion
Lotus_Game
AP_WARD
tag
duration
chance
ZERO_VECTOR
y
damagePickupType
ZERO_ROTATION
AR_IMMUNE_ALL
AP_POWER
slow
SlowTarget
AP_TACTIC
ConfuseTarget
AR_RESIST_ALL
disarmAgentType
disarmMeleeWeapon
bulletAttractorType
GAME_C1_HIP1
upgrade
resistance
math
Game
AVATAR_DAMAGE_RESISTANCE
ADD
DT_FIRE
DT_PUNCTURE
ResistanceTable_RK_ROBOTIC
ResistanceTable_RK_MACHINERY
_T
robotStun
maxHealthAsDamage
baseAmount
DT_ELECTRICITY
PT_STUNNED
stunDuration
blastRobotStunnedEffect
EMPTY_SYMBOL
RobotStun
tag
absorbPerEnergy
gRegion
Game
AVATAR_DAMAGE_RESISTANCE
SET
Engine
DT_ENERGY_DRAIN
selfShieldSpawner
GAME_R1_WEAPON1
ZERO_VECTOR
ZERO_ROTATION
PM_PARRY
                         
0001                     ** function [0] definition (level 1)
                         ** start of function **
0001  00                 string size (0)
                         source name: (none)
0002  00                 line defined (0)
0003  00                 last line defined (0)
0004  00                 nups (0)
0005  00                 numparams (0)
0006  02                 is_vararg (2)
0007  14                 maxstacksize (20)
                         * code:
0009  02                 sizecode (313)
000A  1D000000           [001] getglobal  0   0        ; 849075268
000E  59400000           [002] loadk      1   1        ; "Lotus.Powersuits.Operator.OperatorLib"
0012  22800001           [003] call       0   2   2  
0016  5D800000           [004] getglobal  1   2        ; -332969190
001A  99C00000           [005] loadk      2   3        ; "GAME_R1_WEAPON1"
001E  62800001           [006] call       1   2   2  
0022  8BC00000           [007] newtable   2   0   3    ; array=0, hash=3
0026  DD800000           [008] getglobal  3   2        ; -332969190
002A  19410100           [009] loadk      4   5        ; "BlastFireball"
002E  E2800001           [010] call       3   2   2  
0032  8CC00082           [011] settable   2   260 3    ; "tag"
0036  CB000002           [012] newtable   3   4   0    ; array=4, hash=0
003A  19C10100           [013] loadk      4   7        ; -51
003E  59010200           [014] loadk      5   8        ; -102
0042  99410200           [015] loadk      6   9        ; -102
0046  D9810200           [016] loadk      7   10       ; -102
004A  DB400002           [017] setlist    3   4   1    ; index 1 to 4
004E  8CC00083           [018] settable   2   262 3    ; "duration"
0052  CB000002           [019] newtable   3   4   0    ; array=4, hash=0
0056  19010300           [020] loadk      4   12       ; 0
005A  59410300           [021] loadk      5   13       ; 0
005E  99810300           [022] loadk      6   14       ; 0
0062  D9C10300           [023] loadk      7   15       ; 0
0066  DB400002           [024] setlist    3   4   1    ; index 1 to 4
006A  8CC08085           [025] settable   2   267 3    ; "damage"
006E  CB800000           [026] newtable   3   0   2    ; array=0, hash=2
0072  1D810000           [027] getglobal  4   2        ; -332969190
0076  59010400           [028] loadk      5   16       ; "BlastSelfShield"
007A  22810001           [029] call       4   2   2  
007E  CC000182           [030] settable   3   260 4    ; "tag"
0082  0B010003           [031] newtable   4   6   0    ; array=6, hash=0
0086  59810400           [032] loadk      5   18       ; 0
008A  99C10400           [033] loadk      6   19       ; 0
008E  D9010500           [034] loadk      7   20       ; 0
0092  19420500           [035] loadk      8   21       ; 0
0096  59820500           [036] loadk      9   22       ; 0
009A  99C20500           [037] loadk      10  23       ; 0
009E  1B410003           [038] setlist    4   6   1    ; index 1 to 6
00A2  CC008188           [039] settable   3   273 4    ; "absorbPerEnergy"
00A6  0B010100           [040] newtable   4   0   4    ; array=0, hash=4
00AA  5D810000           [041] getglobal  5   2        ; -332969190
00AE  99010600           [042] loadk      6   24       ; "BlastAllyShield"
00B2  62810001           [043] call       5   2   2  
00B6  0C410182           [044] settable   4   260 5    ; "tag"
00BA  4B010002           [045] newtable   5   4   0    ; array=4, hash=0
00BE  99810600           [046] loadk      6   26       ; 0
00C2  D9C10600           [047] loadk      7   27       ; 0
00C6  19020700           [048] loadk      8   28       ; 0
00CA  59420700           [049] loadk      9   29       ; 0
00CE  5B410002           [050] setlist    5   4   1    ; index 1 to 4
00D2  0C41818C           [051] settable   4   281 5    ; "shield"
00D6  4B010002           [052] newtable   5   4   0    ; array=4, hash=0
00DA  99C10700           [053] loadk      6   31       ; 0
00DE  D9010800           [054] loadk      7   32       ; 0
00E2  19420800           [055] loadk      8   33       ; 0
00E6  59820800           [056] loadk      9   34       ; 0
00EA  5B410002           [057] setlist    5   4   1    ; index 1 to 4
00EE  0C41018F           [058] settable   4   286 5    ; "radius"
00F2  4B010002           [059] newtable   5   4   0    ; array=4, hash=0
00F6  99010900           [060] loadk      6   36       ; 0
00FA  D9010900           [061] loadk      7   36       ; 0
00FE  19020900           [062] loadk      8   36       ; 0
0102  59020900           [063] loadk      9   36       ; 0
0106  5B410002           [064] setlist    5   4   1    ; index 1 to 4
010A  0C418191           [065] settable   4   291 5    ; "energyCost"
010E  4BC10000           [066] newtable   5   0   3    ; array=0, hash=3
0112  9D810000           [067] getglobal  6   2        ; -332969190
0116  D9410900           [068] loadk      7   37       ; "BlastSlow"
011A  A2810001           [069] call       6   2   2  
011E  4C810182           [070] settable   5   260 6    ; "tag"
0122  8B010003           [071] newtable   6   6   0    ; array=6, hash=0
0126  D9C10900           [072] loadk      7   39       ; -51
012A  19420200           [073] loadk      8   9        ; -102
012E  59020A00           [074] loadk      9   40       ; -51
0132  99420A00           [075] loadk      10  41       ; 0
0136  D9820200           [076] loadk      11  10       ; -102
013A  19830A00           [077] loadk      12  42       ; -51
013E  9B410003           [078] setlist    6   6   1    ; index 1 to 6
0142  4C810193           [079] settable   5   294 6    ; "slow"
0146  8B010003           [080] newtable   6   6   0    ; array=6, hash=0
014A  D9C10A00           [081] loadk      7   43       ; 0
014E  19020800           [082] loadk      8   32       ; 0
0152  59820800           [083] loadk      9   34       ; 0
0156  99020B00           [084] loadk      10  44       ; 0
015A  D9420B00           [085] loadk      11  45       ; 0
015E  19830B00           [086] loadk      12  46       ; 0
0162  9B410003           [087] setlist    6   6   1    ; index 1 to 6
0166  4C810183           [088] settable   5   262 6    ; "duration"
016A  8BC10000           [089] newtable   6   0   3    ; array=0, hash=3
016E  DD810000           [090] getglobal  7   2        ; -332969190
0172  19C20B00           [091] loadk      8   47       ; "BlastBurst"
0176  E2810001           [092] call       7   2   2  
017A  8CC10182           [093] settable   6   260 7    ; "tag"
017E  CB010002           [094] newtable   7   4   0    ; array=4, hash=0
0182  19C20A00           [095] loadk      8   43       ; 0
0186  59020800           [096] loadk      9   32       ; 0
018A  99820800           [097] loadk      10  34       ; 0
018E  D9020B00           [098] loadk      11  44       ; 0
0192  DB410002           [099] setlist    7   4   1    ; index 1 to 4
0196  8CC10198           [100] settable   6   304 7    ; "range"
019A  CB010002           [101] newtable   7   4   0    ; array=4, hash=0
019E  19020300           [102] loadk      8   12       ; 0
01A2  59420C00           [103] loadk      9   49       ; 0
01A6  99420300           [104] loadk      10  13       ; 0
01AA  D9820300           [105] loadk      11  14       ; 0
01AE  DB410002           [106] setlist    7   4   1    ; index 1 to 4
01B2  8CC18185           [107] settable   6   267 7    ; "damage"
01B6  CBC10000           [108] newtable   7   0   3    ; array=0, hash=3
01BA  1D820000           [109] getglobal  8   2        ; -332969190
01BE  59820C00           [110] loadk      9   50       ; "BlastConfuse"
01C2  22820001           [111] call       8   2   2  
01C6  CC010282           [112] settable   7   260 8    ; "tag"
01CA  0B020002           [113] newtable   8   4   0    ; array=4, hash=0
01CE  59C20900           [114] loadk      9   39       ; -51
01D2  99420200           [115] loadk      10  9        ; -102
01D6  D9020A00           [116] loadk      11  40       ; -51
01DA  19430A00           [117] loadk      12  41       ; 0
01DE  1B420002           [118] setlist    8   4   1    ; index 1 to 4
01E2  CC018299           [119] settable   7   307 8    ; "chance"
01E6  0B020002           [120] newtable   8   4   0    ; array=4, hash=0
01EA  59C20A00           [121] loadk      9   43       ; 0
01EE  99820800           [122] loadk      10  34       ; 0
01F2  D9420B00           [123] loadk      11  45       ; 0
01F6  19030D00           [124] loadk      12  52       ; 0
01FA  1B420002           [125] setlist    8   4   1    ; index 1 to 4
01FE  CC010283           [126] settable   7   262 8    ; "duration"
0202  0B820000           [127] newtable   8   0   2    ; array=0, hash=2
0206  5D820000           [128] getglobal  9   2        ; -332969190
020A  99420D00           [129] loadk      10  53       ; "BlastDisarm"
020E  62820001           [130] call       9   2   2  
0212  0C420282           [131] settable   8   260 9    ; "tag"
0216  4B020003           [132] newtable   9   6   0    ; array=6, hash=0
021A  99C20100           [133] loadk      10  7        ; -51
021E  D9020200           [134] loadk      11  8        ; -102
0222  19C30900           [135] loadk      12  39       ; -51
0226  59830D00           [136] loadk      13  54       ; 0
022A  99C30D00           [137] loadk      14  55       ; 51
022E  D9430A00           [138] loadk      15  41       ; 0
0232  5B420003           [139] setlist    9   6   1    ; index 1 to 6
0236  0C428299           [140] settable   8   307 9    ; "chance"
023A  4B820000           [141] newtable   9   0   2    ; array=0, hash=2
023E  9D820000           [142] getglobal  10  2        ; -332969190
0242  D9020E00           [143] loadk      11  56       ; "BlastBulletAttractor"
0246  A2820001           [144] call       10  2   2  
024A  4C820282           [145] settable   9   260 10   ; "tag"
024E  8B020002           [146] newtable   10  4   0    ; array=4, hash=0
0252  D9C20A00           [147] loadk      11  43       ; 0
0256  19030800           [148] loadk      12  32       ; 0
025A  59830800           [149] loadk      13  34       ; 0
025E  99030B00           [150] loadk      14  44       ; 0
0262  9B420002           [151] setlist    10  4   1    ; index 1 to 4
0266  4C820283           [152] settable   9   262 10   ; "duration"
026A  8B020100           [153] newtable   10  0   4    ; array=0, hash=4
026E  DD820000           [154] getglobal  11  2        ; -332969190
0272  19430E00           [155] loadk      12  57       ; "BlastDamagePickup"
0276  E2820001           [156] call       11  2   2  
027A  8CC20282           [157] settable   10  260 11   ; "tag"
027E  CB020002           [158] newtable   11  4   0    ; array=4, hash=0
0282  19830D00           [159] loadk      12  54       ; 0
0286  59430A00           [160] loadk      13  41       ; 0
028A  99830E00           [161] loadk      14  58       ; 0
028E  D9030300           [162] loadk      15  12       ; 0
0292  DB420002           [163] setlist    11  4   1    ; index 1 to 4
0296  8CC28299           [164] settable   10  307 11   ; "chance"
029A  CB020002           [165] newtable   11  4   0    ; array=4, hash=0
029E  19C30E00           [166] loadk      12  59       ; 0
02A2  59030800           [167] loadk      13  32       ; 0
02A6  99030F00           [168] loadk      14  60       ; 0
02AA  D9430B00           [169] loadk      15  45       ; 0
02AE  DB420002           [170] setlist    11  4   1    ; index 1 to 4
02B2  8CC20283           [171] settable   10  262 11   ; "duration"
02B6  CB020002           [172] newtable   11  4   0    ; array=4, hash=0
02BA  19C30900           [173] loadk      12  39       ; -51
02BE  59030A00           [174] loadk      13  40       ; -51
02C2  99830200           [175] loadk      14  10       ; -102
02C6  D9030300           [176] loadk      15  12       ; 0
02CA  DB420002           [177] setlist    11  4   1    ; index 1 to 4
02CE  8CC28285           [178] settable   10  267 11   ; "damage"
02D2  CB820000           [179] newtable   11  0   2    ; array=0, hash=2
02D6  1D830F00           [180] getglobal  12  62       ; 738251817
02DA  59C30F00           [181] loadk      13  63       ; "/Lotus/Upgrades/CosmeticEnhancers/OperatorArmour/HeatResistOnBlast"
02DE  22830001           [182] call       12  2   2  
02E2  CC02839E           [183] settable   11  317 12   ; "upgrade"
02E6  0B030002           [184] newtable   12  4   0    ; array=4, hash=0
02EA  59431000           [185] loadk      13  65       ; 0
02EE  99830D00           [186] loadk      14  54       ; 0
02F2  D9831000           [187] loadk      15  66       ; 0
02F6  19440A00           [188] loadk      16  41       ; 0
02FA  1B430002           [189] setlist    12  4   1    ; index 1 to 4
02FE  CC0203A0           [190] settable   11  320 12   ; "resistance"
0302  0B830000           [191] newtable   12  0   2    ; array=0, hash=2
0306  5D830F00           [192] getglobal  13  62       ; 738251817
030A  99C31000           [193] loadk      14  67       ; "/Lotus/Upgrades/CosmeticEnhancers/OperatorArmour/ProcResistOnBlast"
030E  62830001           [194] call       13  2   2  
0312  0C43839E           [195] settable   12  317 13   ; "upgrade"
0316  4B030002           [196] newtable   13  4   0    ; array=4, hash=0
031A  99431000           [197] loadk      14  65       ; 0
031E  D9830D00           [198] loadk      15  54       ; 0
0322  19841000           [199] loadk      16  66       ; 0
0326  59440A00           [200] loadk      17  41       ; 0
032A  5B430002           [201] setlist    13  4   1    ; index 1 to 4
032E  0C4303A0           [202] settable   12  320 13   ; "resistance"
0332  4B030100           [203] newtable   13  0   4    ; array=0, hash=4
0336  9D830F00           [204] getglobal  14  62       ; 738251817
033A  D9031100           [205] loadk      15  68       ; "/Lotus/Upgrades/CosmeticEnhancers/OperatorArmour/RobotStunOnBlast"
033E  A2830001           [206] call       14  2   2  
0342  4C83839E           [207] settable   13  317 14   ; "upgrade"
0346  4CC3CEA2           [208] settable   13  325 315  ; "stunDuration" 0
034A  8B030002           [209] newtable   14  4   0    ; array=4, hash=0
034E  D9030200           [210] loadk      15  8        ; -102
0352  19440200           [211] loadk      16  9        ; -102
0356  59C41100           [212] loadk      17  71       ; 102
035A  99840200           [213] loadk      18  10       ; -102
035E  9B430002           [214] setlist    14  4   1    ; index 1 to 4
0362  4C8303A3           [215] settable   13  326 14   ; "maxHealthAsDamage"
0366  8B030002           [216] newtable   14  4   0    ; array=4, hash=0
036A  D9C30700           [217] loadk      15  31       ; 0
036E  19040B00           [218] loadk      16  44       ; 0
0372  59840B00           [219] loadk      17  46       ; 0
0376  99441200           [220] loadk      18  73       ; 0
037A  9B430002           [221] setlist    14  4   1    ; index 1 to 4
037E  4C8303A4           [222] settable   13  328 14   ; "damageRange"
0382  A5030000           [223] closure    14  0      
0386  12008006           [224] move       0   13     
038A  A0831200           [225] setglobal  14  74       ; GetBlastRobotStunDescription
038E  A0C31200           [226] setglobal  14  75       ; 1471029821
0392  A5430000           [227] closure    14  1      
0396  12000006           [228] move       0   12     
039A  A0031300           [229] setglobal  14  76       ; GetBlastPunctureResistDescription
039E  A0431300           [230] setglobal  14  77       ; 1868694495
03A2  A5830000           [231] closure    14  2      
03A6  12008005           [232] move       0   11     
03AA  A0831300           [233] setglobal  14  78       ; GetBlastHeatResistDescription
03AE  A0C31300           [234] setglobal  14  79       ; -443897542
03B2  A5C30000           [235] closure    14  3      
03B6  12000001           [236] move       0   2      
03BA  12000002           [237] move       0   4      
03BE  12008001           [238] move       0   3      
03C2  12008002           [239] move       0   5      
03C6  12000003           [240] move       0   6      
03CA  12008003           [241] move       0   7      
03CE  12000004           [242] move       0   8      
03D2  12008004           [243] move       0   9      
03D6  12000005           [244] move       0   10     
03DA  A0031400           [245] setglobal  14  80       ; GetDescriptionInfo
03DE  A0431400           [246] setglobal  14  81       ; 504423499
03E2  A5030100           [247] closure    14  4      
03E6  12000001           [248] move       0   2      
03EA  E5430100           [249] closure    15  5      
03EE  12008000           [250] move       0   1      
03F2  12000002           [251] move       0   4      
03F6  25840100           [252] closure    16  6      
03FA  12000003           [253] move       0   6      
03FE  65C40100           [254] closure    17  7      
0402  12000000           [255] move       0   0      
0406  12000001           [256] move       0   2      
040A  12000007           [257] move       0   14     
040E  12000002           [258] move       0   4      
0412  12008007           [259] move       0   15     
0416  12008002           [260] move       0   5      
041A  12000003           [261] move       0   6      
041E  12000008           [262] move       0   16     
0422  12000004           [263] move       0   8      
0426  12008003           [264] move       0   7      
042A  12008004           [265] move       0   9      
042E  12000005           [266] move       0   10     
0432  12008006           [267] move       0   13     
0436  12000006           [268] move       0   12     
043A  12008005           [269] move       0   11     
043E  60841400           [270] setglobal  17  82       ; OnMeleeAttack
0442  60C41400           [271] setglobal  17  83       ; 2012075841
0446  4B840000           [272] newtable   17  0   2    ; array=0, hash=2
044A  4C045593           [273] settable   17  294 340  ; "slow" 0
044E  4C045583           [274] settable   17  262 340  ; "duration" 0
0452  A5040200           [275] closure    18  8      
0456  12008002           [276] move       0   5      
045A  12008008           [277] move       0   17     
045E  A0441500           [278] setglobal  18  85       ; SlowTarget
0462  A0841500           [279] setglobal  18  86       ; 666313292
0466  99041500           [280] loadk      18  84       ; 0
046A  E5440200           [281] closure    19  9      
046E  12000009           [282] move       0   18     
0472  E0C41500           [283] setglobal  19  87       ; ConfuseTarget
0476  E0041600           [284] setglobal  19  88       ; 1282220407
047A  E5840200           [285] closure    19  10     
047E  12000000           [286] move       0   0      
0482  12000005           [287] move       0   10     
0486  E0441600           [288] setglobal  19  89       ; DamageBoostPickup
048A  E0841600           [289] setglobal  19  90       ; 1306961378
048E  E5C40200           [290] closure    19  11     
0492  12008006           [291] move       0   13     
0496  E0C41600           [292] setglobal  19  91       ; RobotStun
049A  E0041700           [293] setglobal  19  92       ; 1583590152
049E  E5040300           [294] closure    19  12     
04A2  12000000           [295] move       0   0      
04A6  12000005           [296] move       0   10     
04AA  12008002           [297] move       0   5      
04AE  12008008           [298] move       0   17     
04B2  12008003           [299] move       0   7      
04B6  12000009           [300] move       0   18     
04BA  12000004           [301] move       0   8      
04BE  12008004           [302] move       0   9      
04C2  12008005           [303] move       0   11     
04C6  12000006           [304] move       0   12     
04CA  12008006           [305] move       0   13     
04CE  E0441700           [306] setglobal  19  93       ; OnMeleeHit
04D2  E0841700           [307] setglobal  19  94       ; 59822935
04D6  E5440300           [308] closure    19  13     
04DA  12000000           [309] move       0   0      
04DE  12008001           [310] move       0   3      
04E2  E0040400           [311] setglobal  19  16       ; BlastSelfShield
04E6  E0C41700           [312] setglobal  19  95       ; 1936442602
04EA  1E008000           [313] return     0   1      
                         * constants:
04EE  60                 sizek (96)
04EF  01                 const type 3
04F0  44DC9B32           const [0]: (849075268)
04F4  04                 const type 4
04F5  26                 string size (38)
04F6  4C6F7475732E506F+  "Lotus.Po"
04FE  7765727375697473+  "wersuits"
0506  2E4F70657261746F+  ".Operato"
050E  722E4F7065726174+  "r.Operat"
0516  6F724C696200       "orLib\0"
                         const [1]: "Lotus.Powersuits.Operator.OperatorLib"
051C  01                 const type 3
051D  1A4B27EC           const [2]: (-332969190)
0521  04                 const type 4
0522  10                 string size (16)
0523  47414D455F52315F+  "GAME_R1_"
052B  574541504F4E3100   "WEAPON1\0"
                         const [3]: "GAME_R1_WEAPON1"
0533  04                 const type 4
0534  04                 string size (4)
0535  74616700           "tag\0"
                         const [4]: "tag"
0539  04                 const type 4
053A  0E                 string size (14)
053B  426C617374466972+  "BlastFir"
0543  6562616C6C00       "eball\0"
                         const [5]: "BlastFireball"
0549  04                 const type 4
054A  09                 string size (9)
054B  6475726174696F6E+  "duration"
0553  00                 "\0"
                         const [6]: "duration"
0554  03                 const type 3
0555  CDCCCC3D           const [7]: (-51)
0559  03                 const type 3
055A  9A99193E           const [8]: (-102)
055E  03                 const type 3
055F  9A99993E           const [9]: (-102)
0563  03                 const type 3
0564  9A99193F           const [10]: (-102)
0568  04                 const type 4
0569  07                 string size (7)
056A  64616D61676500     "damage\0"
                         const [11]: "damage"
0571  03                 const type 3
0572  0000803F           const [12]: (0)
0576  03                 const type 3
0577  0000C03F           const [13]: (0)
057B  03                 const type 3
057C  00000040           const [14]: (0)
0580  03                 const type 3
0581  00002040           const [15]: (0)
0585  04                 const type 4
0586  10                 string size (16)
0587  426C61737453656C+  "BlastSel"
058F  66536869656C6400   "fShield\0"
                         const [16]: "BlastSelfShield"
0597  04                 const type 4
0598  10                 string size (16)
0599  6162736F72625065+  "absorbPe"
05A1  72456E6572677900   "rEnergy\0"
                         const [17]: "absorbPerEnergy"
05A9  03                 const type 3
05AA  00001643           const [18]: (0)
05AE  03                 const type 3
05AF  00004843           const [19]: (0)
05B3  03                 const type 3
05B4  00007A43           const [20]: (0)
05B8  03                 const type 3
05B9  00009643           const [21]: (0)
05BD  03                 const type 3
05BE  0000AF43           const [22]: (0)
05C2  03                 const type 3
05C3  0000C843           const [23]: (0)
05C7  04                 const type 4
05C8  10                 string size (16)
05C9  426C617374416C6C+  "BlastAll"
05D1  79536869656C6400   "yShield\0"
                         const [24]: "BlastAllyShield"
05D9  04                 const type 4
05DA  07                 string size (7)
05DB  736869656C6400     "shield\0"
                         const [25]: "shield"
05E2  03                 const type 3
05E3  00004842           const [26]: (0)
05E7  03                 const type 3
05E8  0000A042           const [27]: (0)
05EC  03                 const type 3
05ED  0000F042           const [28]: (0)
05F1  03                 const type 3
05F2  00002043           const [29]: (0)
05F6  04                 const type 4
05F7  07                 string size (7)
05F8  72616469757300     "radius\0"
                         const [30]: "radius"
05FF  03                 const type 3
0600  0000A040           const [31]: (0)
0604  03                 const type 3
0605  0000C040           const [32]: (0)
0609  03                 const type 3
060A  0000E040           const [33]: (0)
060E  03                 const type 3
060F  00000041           const [34]: (0)
0613  04                 const type 4
0614  0B                 string size (11)
0615  656E65726779436F+  "energyCo"
061D  737400             "st\0"
                         const [35]: "energyCost"
0620  03                 const type 3
0621  0000C841           const [36]: (0)
0625  04                 const type 4
0626  0A                 string size (10)
0627  426C617374536C6F+  "BlastSlo"
062F  7700               "w\0"
                         const [37]: "BlastSlow"
0631  04                 const type 4
0632  05                 string size (5)
0633  736C6F7700         "slow\0"
                         const [38]: "slow"
0638  03                 const type 3
0639  CDCC4C3E           const [39]: (-51)
063D  03                 const type 3
063E  CDCCCC3E           const [40]: (-51)
0642  03                 const type 3
0643  0000003F           const [41]: (0)
0647  03                 const type 3
0648  CDCC4C3F           const [42]: (-51)
064C  03                 const type 3
064D  00008040           const [43]: (0)
0651  03                 const type 3
0652  00002041           const [44]: (0)
0656  03                 const type 3
0657  00004041           const [45]: (0)
065B  03                 const type 3
065C  00007041           const [46]: (0)
0660  04                 const type 4
0661  0B                 string size (11)
0662  426C617374427572+  "BlastBur"
066A  737400             "st\0"
                         const [47]: "BlastBurst"
066D  04                 const type 4
066E  06                 string size (6)
066F  72616E676500       "range\0"
                         const [48]: "range"
0675  03                 const type 3
0676  0000A03F           const [49]: (0)
067A  04                 const type 4
067B  0D                 string size (13)
067C  426C617374436F6E+  "BlastCon"
0684  6675736500         "fuse\0"
                         const [50]: "BlastConfuse"
0689  04                 const type 4
068A  07                 string size (7)
068B  6368616E636500     "chance\0"
                         const [51]: "chance"
0692  03                 const type 3
0693  00008041           const [52]: (0)
0697  04                 const type 4
0698  0C                 string size (12)
0699  426C617374446973+  "BlastDis"
06A1  61726D00           "arm\0"
                         const [53]: "BlastDisarm"
06A5  03                 const type 3
06A6  0000803E           const [54]: (0)
06AA  03                 const type 3
06AB  3333B33E           const [55]: (51)
06AF  04                 const type 4
06B0  15                 string size (21)
06B1  426C61737442756C+  "BlastBul"
06B9  6C65744174747261+  "letAttra"
06C1  63746F7200         "ctor\0"
                         const [56]: "BlastBulletAttractor"
06C6  04                 const type 4
06C7  12                 string size (18)
06C8  426C61737444616D+  "BlastDam"
06D0  6167655069636B75+  "agePicku"
06D8  7000               "p\0"
                         const [57]: "BlastDamagePickup"
06DA  03                 const type 3
06DB  0000403F           const [58]: (0)
06DF  03                 const type 3
06E0  00004040           const [59]: (0)
06E4  03                 const type 3
06E5  00001041           const [60]: (0)
06E9  04                 const type 4
06EA  08                 string size (8)
06EB  7570677261646500   "upgrade\0"
                         const [61]: "upgrade"
06F3  01                 const type 3
06F4  29D4002C           const [62]: (738251817)
06F8  04                 const type 4
06F9  43                 string size (67)
06FA  2F4C6F7475732F55+  "/Lotus/U"
0702  706772616465732F+  "pgrades/"
070A  436F736D65746963+  "Cosmetic"
0712  456E68616E636572+  "Enhancer"
071A  732F4F7065726174+  "s/Operat"
0722  6F7241726D6F7572+  "orArmour"
072A  2F48656174526573+  "/HeatRes"
0732  6973744F6E426C61+  "istOnBla"
073A  737400             "st\0"
                         const [63]: "/Lotus/Upgrades/CosmeticEnhancers/OperatorArmour/HeatResistOnBlast"
073D  04                 const type 4
073E  0B                 string size (11)
073F  726573697374616E+  "resistan"
0747  636500             "ce\0"
                         const [64]: "resistance"
074A  03                 const type 3
074B  0000003E           const [65]: (0)
074F  03                 const type 3
0750  0000C03E           const [66]: (0)
0754  04                 const type 4
0755  43                 string size (67)
0756  2F4C6F7475732F55+  "/Lotus/U"
075E  706772616465732F+  "pgrades/"
0766  436F736D65746963+  "Cosmetic"
076E  456E68616E636572+  "Enhancer"
0776  732F4F7065726174+  "s/Operat"
077E  6F7241726D6F7572+  "orArmour"
0786  2F50726F63526573+  "/ProcRes"
078E  6973744F6E426C61+  "istOnBla"
0796  737400             "st\0"
                         const [67]: "/Lotus/Upgrades/CosmeticEnhancers/OperatorArmour/ProcResistOnBlast"
0799  04                 const type 4
079A  42                 string size (66)
079B  2F4C6F7475732F55+  "/Lotus/U"
07A3  706772616465732F+  "pgrades/"
07AB  436F736D65746963+  "Cosmetic"
07B3  456E68616E636572+  "Enhancer"
07BB  732F4F7065726174+  "s/Operat"
07C3  6F7241726D6F7572+  "orArmour"
07CB  2F526F626F745374+  "/RobotSt"
07D3  756E4F6E426C6173+  "unOnBlas"
07DB  7400               "t\0"
                         const [68]: "/Lotus/Upgrades/CosmeticEnhancers/OperatorArmour/RobotStunOnBlast"
07DD  04                 const type 4
07DE  0D                 string size (13)
07DF  7374756E44757261+  "stunDura"
07E7  74696F6E00         "tion\0"
                         const [69]: "stunDuration"
07EC  04                 const type 4
07ED  12                 string size (18)
07EE  6D61784865616C74+  "maxHealt"
07F6  68417344616D6167+  "hAsDamag"
07FE  6500               "e\0"
                         const [70]: "maxHealthAsDamage"
0800  03                 const type 3
0801  6666E63E           const [71]: (102)
0805  04                 const type 4
0806  0C                 string size (12)
0807  64616D6167655261+  "damageRa"
080F  6E676500           "nge\0"
                         const [72]: "damageRange"
0813  03                 const type 3
0814  0000A041           const [73]: (0)
0818  04                 const type 4
0819  1D                 string size (29)
081A  476574426C617374+  "GetBlast"
0822  526F626F74537475+  "RobotStu"
082A  6E44657363726970+  "nDescrip"
0832  74696F6E00         "tion\0"
                         const [74]: "GetBlastRobotStunDescription"
0837  01                 const type 3
0838  3D22AE57           const [75]: (1471029821)
083C  04                 const type 4
083D  22                 string size (34)
083E  476574426C617374+  "GetBlast"
0846  50756E6374757265+  "Puncture"
084E  5265736973744465+  "ResistDe"
0856  736372697074696F+  "scriptio"
085E  6E00               "n\0"
                         const [76]: "GetBlastPunctureResistDescription"
0860  01                 const type 3
0861  DF03626F           const [77]: (1868694495)
0865  04                 const type 4
0866  1E                 string size (30)
0867  476574426C617374+  "GetBlast"
086F  4865617452657369+  "HeatResi"
0877  7374446573637269+  "stDescri"
087F  7074696F6E00       "ption\0"
                         const [78]: "GetBlastHeatResistDescription"
0885  01                 const type 3
0886  3AA98AE5           const [79]: (-443897542)
088A  04                 const type 4
088B  13                 string size (19)
088C  4765744465736372+  "GetDescr"
0894  697074696F6E496E+  "iptionIn"
089C  666F00             "fo\0"
                         const [80]: "GetDescriptionInfo"
089F  01                 const type 3
08A0  4BE4101E           const [81]: (504423499)
08A4  04                 const type 4
08A5  0E                 string size (14)
08A6  4F6E4D656C656541+  "OnMeleeA"
08AE  747461636B00       "ttack\0"
                         const [82]: "OnMeleeAttack"
08B4  01                 const type 3
08B5  41D7ED77           const [83]: (2012075841)
08B9  03                 const type 3
08BA  00000000           const [84]: (0)
08BE  04                 const type 4
08BF  0B                 string size (11)
08C0  536C6F7754617267+  "SlowTarg"
08C8  657400             "et\0"
                         const [85]: "SlowTarget"
08CB  01                 const type 3
08CC  4C22B727           const [86]: (666313292)
08D0  04                 const type 4
08D1  0E                 string size (14)
08D2  436F6E6675736554+  "ConfuseT"
08DA  617267657400       "arget\0"
                         const [87]: "ConfuseTarget"
08E0  01                 const type 3
08E1  77216D4C           const [88]: (1282220407)
08E5  04                 const type 4
08E6  12                 string size (18)
08E7  44616D616765426F+  "DamageBo"
08EF  6F73745069636B75+  "ostPicku"
08F7  7000               "p\0"
                         const [89]: "DamageBoostPickup"
08F9  01                 const type 3
08FA  E2A5E64D           const [90]: (1306961378)
08FE  04                 const type 4
08FF  0A                 string size (10)
0900  526F626F74537475+  "RobotStu"
0908  6E00               "n\0"
                         const [91]: "RobotStun"
090A  01                 const type 3
090B  08AB635E           const [92]: (1583590152)
090F  04                 const type 4
0910  0B                 string size (11)
0911  4F6E4D656C656548+  "OnMeleeH"
0919  697400             "it\0"
                         const [93]: "OnMeleeHit"
091C  01                 const type 3
091D  57D39003           const [94]: (59822935)
0921  01                 const type 3
0922  EAC46B73           const [95]: (1936442602)
                         * functions:
0926  0E                 sizep (14)
                         
0927                     ** function [0] definition (level 2)
                         ** start of function **
0927  00                 string size (0)
                         source name: (none)
0928  79                 line defined (121)
0929  81                 last line defined (129)
092A  01                 nups (1)
092B  01                 numparams (1)
092C  01                 is_vararg (0)
092D  00                 maxstacksize (7)
                         * code:
092F  24                 sizecode (36)
0930  4BC00000           [01] newtable   1   0   3    ; array=0, hash=3
0934  93000000           [02] getupval   2   0      
0938  8E404001           [03] gettable   2   2   257  ; "stunDuration"
093C  4C800080           [04] settable   1   256 2    ; "DURATION"
0940  9DC00000           [05] getglobal  2   3        ; math
0944  8E004101           [06] gettable   2   2   260  ; -150971781
0948  D3000000           [07] getupval   3   0      
094C  CE40C101           [08] gettable   3   3   261  ; "maxHealthAsDamage"
0950  1DC10000           [09] getglobal  4   3        ; math
0954  0E814102           [10] gettable   4   4   262  ; 1710846250
0958  53010000           [11] getupval   5   0      
095C  4E41C102           [12] gettable   5   5   261  ; "maxHealthAsDamage"
0960  4A018002           [13] len        5   5      
0964  92010000           [14] move       6   0      
0968  22818001           [15] call       4   3   2  
096C  CE008101           [16] gettable   3   3   4  
0970  C4C0C101           [17] mul        3   3   263  ; 0
0974  A2800001           [18] call       2   2   2  
0978  4C800081           [19] settable   1   258 2    ; "HEALTH"
097C  93000000           [20] getupval   2   0      
0980  8E404201           [21] gettable   2   2   265  ; "damageRange"
0984  DDC00000           [22] getglobal  3   3        ; math
0988  CE80C101           [23] gettable   3   3   262  ; 1710846250
098C  13010000           [24] getupval   4   0      
0990  0E414202           [25] gettable   4   4   265  ; "damageRange"
0994  0A010002           [26] len        4   4      
0998  52010000           [27] move       5   0      
099C  E2808001           [28] call       3   3   2  
09A0  8EC00001           [29] gettable   2   2   3  
09A4  4C800084           [30] settable   1   264 2    ; "DISTANCE"
09A8  9D800200           [31] getglobal  2   10       ; cjson
09AC  8EC04201           [32] gettable   2   2   267  ; -1916729509
09B0  D2008000           [33] move       3   1      
09B4  87000001           [34] tailcall   2   2   0  
09B8  9E000000           [35] return     2   0      
09BC  1E008000           [36] return     0   1      
                         * constants:
09C0  0C                 sizek (12)
09C1  04                 const type 4
09C2  09                 string size (9)
09C3  4455524154494F4E+  "DURATION"
09CB  00                 "\0"
                         const [0]: "DURATION"
09CC  04                 const type 4
09CD  0D                 string size (13)
09CE  7374756E44757261+  "stunDura"
09D6  74696F6E00         "tion\0"
                         const [1]: "stunDuration"
09DB  04                 const type 4
09DC  07                 string size (7)
09DD  4845414C544800     "HEALTH\0"
                         const [2]: "HEALTH"
09E4  04                 const type 4
09E5  05                 string size (5)
09E6  6D61746800         "math\0"
                         const [3]: "math"
09EB  01                 const type 3
09EC  7B5A00F7           const [4]: (-150971781)
09F0  04                 const type 4
09F1  12                 string size (18)
09F2  6D61784865616C74+  "maxHealt"
09FA  68417344616D6167+  "hAsDamag"
0A02  6500               "e\0"
                         const [5]: "maxHealthAsDamage"
0A04  01                 const type 3
0A05  2A71F965           const [6]: (1710846250)
0A09  03                 const type 3
0A0A  0000C842           const [7]: (0)
0A0E  04                 const type 4
0A0F  09                 string size (9)
0A10  44495354414E4345+  "DISTANCE"
0A18  00                 "\0"
                         const [8]: "DISTANCE"
0A19  04                 const type 4
0A1A  0C                 string size (12)
0A1B  64616D6167655261+  "damageRa"
0A23  6E676500           "nge\0"
                         const [9]: "damageRange"
0A27  04                 const type 4
0A28  06                 string size (6)
0A29  636A736F6E00       "cjson\0"
                         const [10]: "cjson"
0A2F  01                 const type 3
0A30  5B07C18D           const [11]: (-1916729509)
                         * functions:
0A34  00                 sizep (0)
                         * lines:
0A35  24                 sizelineinfo (36)
                         [pc] (line)
0A36  7A                 [01] (122)
0A37  00                 [02] (123)
0A38  00                 [03] (123)
0A39  00                 [04] (123)
0A3A  7B                 [05] (124)
0A3B  00                 [06] (124)
0A3C  00                 [07] (124)
0A3D  00                 [08] (124)
0A3E  7B                 [09] (124)
0A3F  00                 [10] (124)
0A40  00                 [11] (124)
0A41  00                 [12] (124)
0A42  7B                 [13] (124)
0A43  00                 [14] (124)
0A44  00                 [15] (124)
0A45  00                 [16] (124)
0A46  7C                 [17] (124)
0A47  00                 [18] (124)
0A48  00                 [19] (124)
0A49  00                 [20] (125)
0A4A  7C                 [21] (125)
0A4B  00                 [22] (125)
0A4C  00                 [23] (125)
0A4D  00                 [24] (125)
0A4E  7C                 [25] (125)
0A4F  00                 [26] (125)
0A50  00                 [27] (125)
0A51  00                 [28] (125)
0A52  7C                 [29] (125)
0A53  00                 [30] (125)
0A54  00                 [31] (-128)
0A55  00                 [32] (-128)
0A56  7C                 [33] (-128)
0A57  00                 [34] (-128)
0A58  00                 [35] (-128)
0A59  00                 [36] (-127)
                         * locals:
0AC6  00                 sizelocvars (0)
                         * upvalues:
0AC7  00                 sizeupvalues (0)
                         ** end of function **

                         
0AC8                     ** function [1] definition (level 2)
                         ** start of function **
0AC8  00                 string size (0)
                         source name: (none)
0ACA  01                 line defined (131)
0ACB  89                 last line defined (137)
0ACC  01                 nups (1)
0ACD  01                 numparams (1)
0ACE  01                 is_vararg (0)
0ACF  00                 maxstacksize (7)
                         * code:
0AD1  16                 sizecode (22)
0AD2  4B400000           [01] newtable   1   0   1    ; array=0, hash=1
0AD6  9D400000           [02] getglobal  2   1        ; math
0ADA  8E804001           [03] gettable   2   2   258  ; -150971781
0ADE  D3000000           [04] getupval   3   0      
0AE2  CEC0C001           [05] gettable   3   3   259  ; "resistance"
0AE6  1D410000           [06] getglobal  4   1        ; math
0AEA  0E014102           [07] gettable   4   4   260  ; 1710846250
0AEE  53010000           [08] getupval   5   0      
0AF2  4EC1C002           [09] gettable   5   5   259  ; "resistance"
0AF6  4A018002           [10] len        5   5      
0AFA  92010000           [11] move       6   0      
0AFE  22818001           [12] call       4   3   2  
0B02  CE008101           [13] gettable   3   3   4  
0B06  C440C101           [14] mul        3   3   261  ; 0
0B0A  A2800001           [15] call       2   2   2  
0B0E  4C800080           [16] settable   1   256 2    ; "AMOUNT"
0B12  9D800100           [17] getglobal  2   6        ; cjson
0B16  8EC04101           [18] gettable   2   2   263  ; -1916729509
0B1A  D2008000           [19] move       3   1      
0B1E  87000001           [20] tailcall   2   2   0  
0B22  9E000000           [21] return     2   0      
0B26  1E008000           [22] return     0   1      
                         * constants:
0B2A  08                 sizek (8)
0B2B  04                 const type 4
0B2C  07                 string size (7)
0B2D  414D4F554E5400     "AMOUNT\0"
                         const [0]: "AMOUNT"
0B34  04                 const type 4
0B35  05                 string size (5)
0B36  6D61746800         "math\0"
                         const [1]: "math"
0B3B  01                 const type 3
0B3C  7B5A00F7           const [2]: (-150971781)
0B40  04                 const type 4
0B41  0B                 string size (11)
0B42  726573697374616E+  "resistan"
0B4A  636500             "ce\0"
                         const [3]: "resistance"
0B4D  01                 const type 3
0B4E  2A71F965           const [4]: (1710846250)
0B52  03                 const type 3
0B53  0000C842           const [5]: (0)
0B57  04                 const type 4
0B58  06                 string size (6)
0B59  636A736F6E00       "cjson\0"
                         const [6]: "cjson"
0B5F  01                 const type 3
0B60  5B07C18D           const [7]: (-1916729509)
                         * functions:
0B64  00                 sizep (0)
                         * lines:
0B65  16                 sizelineinfo (22)
                         [pc] (line)
0B66  84                 [01] (-124)
0B67  00                 [02] (-123)
0B68  00                 [03] (-123)
0B69  00                 [04] (-123)
0B6A  85                 [05] (-123)
0B6B  00                 [06] (-123)
0B6C  00                 [07] (-123)
0B6D  00                 [08] (-123)
0B6E  85                 [09] (-123)
0B6F  00                 [10] (-123)
0B70  00                 [11] (-123)
0B71  00                 [12] (-123)
0B72  85                 [13] (-123)
0B73  00                 [14] (-123)
0B74  00                 [15] (-123)
0B75  00                 [16] (-123)
0B76  85                 [17] (-120)
0B77  00                 [18] (-120)
0B78  00                 [19] (-120)
0B79  00                 [20] (-120)
0B7A  85                 [21] (-120)
0B7B  00                 [22] (-119)
                         * locals:
0BBE  00                 sizelocvars (0)
                         * upvalues:
0BBF  00                 sizeupvalues (0)
                         ** end of function **

                         
0BC0                     ** function [2] definition (level 2)
                         ** start of function **
0BC0  00                 string size (0)
                         source name: (none)
0BC2  01                 line defined (139)
0BC3  91                 last line defined (145)
0BC4  01                 nups (1)
0BC5  01                 numparams (1)
0BC6  01                 is_vararg (0)
0BC7  00                 maxstacksize (7)
                         * code:
0BC9  16                 sizecode (22)
0BCA  4B400000           [01] newtable   1   0   1    ; array=0, hash=1
0BCE  9D400000           [02] getglobal  2   1        ; math
0BD2  8E804001           [03] gettable   2   2   258  ; -150971781
0BD6  D3000000           [04] getupval   3   0      
0BDA  CEC0C001           [05] gettable   3   3   259  ; "resistance"
0BDE  1D410000           [06] getglobal  4   1        ; math
0BE2  0E014102           [07] gettable   4   4   260  ; 1710846250
0BE6  53010000           [08] getupval   5   0      
0BEA  4EC1C002           [09] gettable   5   5   259  ; "resistance"
0BEE  4A018002           [10] len        5   5      
0BF2  92010000           [11] move       6   0      
0BF6  22818001           [12] call       4   3   2  
0BFA  CE008101           [13] gettable   3   3   4  
0BFE  C440C101           [14] mul        3   3   261  ; 0
0C02  A2800001           [15] call       2   2   2  
0C06  4C800080           [16] settable   1   256 2    ; "AMOUNT"
0C0A  9D800100           [17] getglobal  2   6        ; cjson
0C0E  8EC04101           [18] gettable   2   2   263  ; -1916729509
0C12  D2008000           [19] move       3   1      
0C16  87000001           [20] tailcall   2   2   0  
0C1A  9E000000           [21] return     2   0      
0C1E  1E008000           [22] return     0   1      
                         * constants:
0C22  08                 sizek (8)
0C23  04                 const type 4
0C24  07                 string size (7)
0C25  414D4F554E5400     "AMOUNT\0"
                         const [0]: "AMOUNT"
0C2C  04                 const type 4
0C2D  05                 string size (5)
0C2E  6D61746800         "math\0"
                         const [1]: "math"
0C33  01                 const type 3
0C34  7B5A00F7           const [2]: (-150971781)
0C38  04                 const type 4
0C39  0B                 string size (11)
0C3A  726573697374616E+  "resistan"
0C42  636500             "ce\0"
                         const [3]: "resistance"
0C45  01                 const type 3
0C46  2A71F965           const [4]: (1710846250)
0C4A  03                 const type 3
0C4B  0000C842           const [5]: (0)
0C4F  04                 const type 4
0C50  06                 string size (6)
0C51  636A736F6E00       "cjson\0"
                         const [6]: "cjson"
0C57  01                 const type 3
0C58  5B07C18D           const [7]: (-1916729509)
                         * functions:
0C5C  00                 sizep (0)
                         * lines:
0C5D  16                 sizelineinfo (22)
                         [pc] (line)
0C5E  8C                 [01] (-116)
0C5F  00                 [02] (-115)
0C60  00                 [03] (-115)
0C61  00                 [04] (-115)
0C62  8D                 [05] (-115)
0C63  00                 [06] (-115)
0C64  00                 [07] (-115)
0C65  00                 [08] (-115)
0C66  8D                 [09] (-115)
0C67  00                 [10] (-115)
0C68  00                 [11] (-115)
0C69  00                 [12] (-115)
0C6A  8D                 [13] (-115)
0C6B  00                 [14] (-115)
0C6C  00                 [15] (-115)
0C6D  00                 [16] (-115)
0C6E  8D                 [17] (-112)
0C6F  00                 [18] (-112)
0C70  00                 [19] (-112)
0C71  00                 [20] (-112)
0C72  8D                 [21] (-112)
0C73  00                 [22] (-111)
                         * locals:
0CB6  00                 sizelocvars (0)
                         * upvalues:
0CB7  00                 sizeupvalues (0)
                         ** end of function **

                         
0CB8                     ** function [3] definition (level 2)
                         ** start of function **
0CB8  00                 string size (0)
                         source name: (none)
0CBA  01                 line defined (147)
0CBB  CE                 last line defined (206)
0CBC  01                 nups (9)
0CBD  09                 numparams (3)
0CBE  03                 is_vararg (0)
0CBF  00                 maxstacksize (11)
                         * code:
0CC2  01                 sizecode (208)
0CC3  CB000000           [001] newtable   3   0   0    ; array=0, hash=0
0CC7  25010000           [002] closure    4   0      
0CCB  12008000           [003] move       0   1      
0CCF  5D010000           [004] getglobal  5   0        ; -332969190
0CD3  92010000           [005] move       6   0      
0CD7  62810001           [006] call       5   2   2  
0CDB  93010000           [007] getupval   6   0      
0CDF  8E414003           [008] gettable   6   6   257  ; "tag"
fail op	35
0CE3  23808102           [009] close      0  
0CE7  1A800480           [010] jmp        19           ; to [30]
0CEB  8B810000           [011] newtable   6   0   2    ; array=0, hash=2
0CEF  D9C10000           [012] loadk      7   3        ; ""
0CF3  12020002           [013] move       8   4      
0CF7  53020000           [014] getupval   9   0      
0CFB  4E02C104           [015] gettable   9   9   260  ; "duration"
0CFF  22820001           [016] call       8   2   2  
0D03  C2018203           [017] concat     7   7   8  
0D07  8CC10181           [018] settable   6   258 7    ; "DURATION"
0D0B  DD810100           [019] getglobal  7   6        ; math
0D0F  CEC1C103           [020] gettable   7   7   263  ; -150971781
0D13  12020002           [021] move       8   4      
0D17  53020000           [022] getupval   9   0      
0D1B  4E02C204           [023] gettable   9   9   264  ; "damage"
0D1F  22820001           [024] call       8   2   2  
0D23  04424204           [025] mul        8   8   265  ; 0
0D27  E2810001           [026] call       7   2   2  
0D2B  8CC18182           [027] settable   6   261 7    ; "DAMAGE"
0D2F  D2000003           [028] move       3   6      
0D33  1A002B80           [029] jmp        173          ; to [203]
0D37  9D010000           [030] getglobal  6   0        ; -332969190
0D3B  D9810200           [031] loadk      7   10       ; "BlastCharge"
0D3F  A2810001           [032] call       6   2   2  
fail op	35
0D43  23808102           [033] close      0  
0D47  1A400380           [034] jmp        14           ; to [49]
0D4B  8B410000           [035] newtable   6   0   1    ; array=0, hash=1
0D4F  DD810100           [036] getglobal  7   6        ; math
0D53  CEC1C103           [037] gettable   7   7   263  ; -150971781
0D57  24024301           [038] self       8   2   268  ; 955459000
0D5B  99420300           [039] loadk      10  13       ; 0
0D5F  22828001           [040] call       8   3   2  
0D63  24824304           [041] self       8   8   270  ; -1378524997
0D67  22820001           [042] call       8   2   2  
0D6B  04420004           [043] mul        8   8   1  
0D6F  04424204           [044] mul        8   8   265  ; 0
0D73  E2810001           [045] call       7   2   2  
0D77  8CC18185           [046] settable   6   267 7    ; "PERCENT"
0D7B  D2000003           [047] move       3   6      
0D7F  1A402680           [048] jmp        154          ; to [203]
0D83  93018000           [049] getupval   6   1      
0D87  8E414003           [050] gettable   6   6   257  ; "tag"
fail op	35
0D8B  23808102           [051] close      0  
0D8F  1A400480           [052] jmp        18           ; to [71]
0D93  8BC10000           [053] newtable   6   0   3    ; array=0, hash=3
0D97  D2010002           [054] move       7   4      
0D9B  13028000           [055] getupval   8   1      
0D9F  0E024404           [056] gettable   8   8   272  ; "shield"
0DA3  E2810001           [057] call       7   2   2  
0DA7  8CC18187           [058] settable   6   271 7    ; "SHIELD"
0DAB  D2010002           [059] move       7   4      
0DAF  13028000           [060] getupval   8   1      
0DB3  0E824404           [061] gettable   8   8   274  ; "radius"
0DB7  E2810001           [062] call       7   2   2  
0DBB  8CC18188           [063] settable   6   273 7    ; "RADIUS"
0DBF  D2010002           [064] move       7   4      
0DC3  13028000           [065] getupval   8   1      
0DC7  0E024504           [066] gettable   8   8   276  ; "energyCost"
0DCB  E2810001           [067] call       7   2   2  
0DCF  8CC18189           [068] settable   6   275 7    ; "ENERGY"
0DD3  D2000003           [069] move       3   6      
0DD7  1AC02080           [070] jmp        132          ; to [203]
0DDB  93010001           [071] getupval   6   2      
0DDF  8E414003           [072] gettable   6   6   257  ; "tag"
fail op	35
0DE3  23808102           [073] close      0  
0DE7  1AC00180           [074] jmp        8            ; to [83]
0DEB  8B410000           [075] newtable   6   0   1    ; array=0, hash=1
0DEF  D2010002           [076] move       7   4      
0DF3  13020001           [077] getupval   8   2      
0DF7  0E824504           [078] gettable   8   8   278  ; "absorbPerEnergy"
0DFB  E2810001           [079] call       7   2   2  
0DFF  8CC1818A           [080] settable   6   277 7    ; "AMOUNT"
0E03  D2000003           [081] move       3   6      
0E07  1AC01D80           [082] jmp        120          ; to [203]
0E0B  93018001           [083] getupval   6   3      
0E0F  8E414003           [084] gettable   6   6   257  ; "tag"
fail op	35
0E13  23808102           [085] close      0  
0E17  1A000480           [086] jmp        17           ; to [104]
0E1B  8B810000           [087] newtable   6   0   2    ; array=0, hash=2
0E1F  DD810100           [088] getglobal  7   6        ; math
0E23  CEC1C103           [089] gettable   7   7   263  ; -150971781
0E27  12020002           [090] move       8   4      
0E2B  53028001           [091] getupval   9   3      
0E2F  4EC2C504           [092] gettable   9   9   279  ; "slow"
0E33  22820001           [093] call       8   2   2  
0E37  04424204           [094] mul        8   8   265  ; 0
0E3B  E2810001           [095] call       7   2   2  
0E3F  8CC18185           [096] settable   6   267 7    ; "PERCENT"
0E43  D2010002           [097] move       7   4      
0E47  13028001           [098] getupval   8   3      
0E4B  0E024104           [099] gettable   8   8   260  ; "duration"
0E4F  E2810001           [100] call       7   2   2  
0E53  8CC10181           [101] settable   6   258 7    ; "DURATION"
0E57  D2000003           [102] move       3   6      
0E5B  1A801880           [103] jmp        99           ; to [203]
0E5F  93010002           [104] getupval   6   4      
0E63  8E414003           [105] gettable   6   6   257  ; "tag"
fail op	35
0E67  23808102           [106] close      0  
0E6B  1A000480           [107] jmp        17           ; to [125]
0E6F  8B810000           [108] newtable   6   0   2    ; array=0, hash=2
0E73  D2010002           [109] move       7   4      
0E77  13020002           [110] getupval   8   4      
0E7B  0E024604           [111] gettable   8   8   280  ; "range"
0E7F  E2810001           [112] call       7   2   2  
0E83  8CC18188           [113] settable   6   273 7    ; "RADIUS"
0E87  DD810100           [114] getglobal  7   6        ; math
0E8B  CEC1C103           [115] gettable   7   7   263  ; -150971781
0E8F  12020002           [116] move       8   4      
0E93  53020002           [117] getupval   9   4      
0E97  4E02C204           [118] gettable   9   9   264  ; "damage"
0E9B  22820001           [119] call       8   2   2  
0E9F  04424204           [120] mul        8   8   265  ; 0
0EA3  E2810001           [121] call       7   2   2  
0EA7  8CC18182           [122] settable   6   261 7    ; "DAMAGE"
0EAB  D2000003           [123] move       3   6      
0EAF  1A401380           [124] jmp        78           ; to [203]
0EB3  93018002           [125] getupval   6   5      
0EB7  8E414003           [126] gettable   6   6   257  ; "tag"
fail op	35
0EBB  23808102           [127] close      0  
0EBF  1A000480           [128] jmp        17           ; to [146]
0EC3  8B810000           [129] newtable   6   0   2    ; array=0, hash=2
0EC7  DD810100           [130] getglobal  7   6        ; math
0ECB  CEC1C103           [131] gettable   7   7   263  ; -150971781
0ECF  12020002           [132] move       8   4      
0ED3  53028002           [133] getupval   9   5      
0ED7  4E82C604           [134] gettable   9   9   282  ; "chance"
0EDB  22820001           [135] call       8   2   2  
0EDF  04424204           [136] mul        8   8   265  ; 0
0EE3  E2810001           [137] call       7   2   2  
0EE7  8CC1818C           [138] settable   6   281 7    ; "CHANCE"
0EEB  D2010002           [139] move       7   4      
0EEF  13028002           [140] getupval   8   5      
0EF3  0E024104           [141] gettable   8   8   260  ; "duration"
0EF7  E2810001           [142] call       7   2   2  
0EFB  8CC10181           [143] settable   6   258 7    ; "DURATION"
0EFF  D2000003           [144] move       3   6      
0F03  1A000E80           [145] jmp        57           ; to [203]
0F07  93010003           [146] getupval   6   6      
0F0B  8E414003           [147] gettable   6   6   257  ; "tag"
fail op	35
0F0F  23808102           [148] close      0  
0F13  1AC00280           [149] jmp        12           ; to [162]
0F17  8B410000           [150] newtable   6   0   1    ; array=0, hash=1
0F1B  DD810100           [151] getglobal  7   6        ; math
0F1F  CEC1C103           [152] gettable   7   7   263  ; -150971781
0F23  12020002           [153] move       8   4      
0F27  53020003           [154] getupval   9   6      
0F2B  4E82C604           [155] gettable   9   9   282  ; "chance"
0F2F  22820001           [156] call       8   2   2  
0F33  04424204           [157] mul        8   8   265  ; 0
0F37  E2810001           [158] call       7   2   2  
0F3B  8CC1818C           [159] settable   6   281 7    ; "CHANCE"
0F3F  D2000003           [160] move       3   6      
0F43  1A000A80           [161] jmp        41           ; to [203]
0F47  93018003           [162] getupval   6   7      
0F4B  8E414003           [163] gettable   6   6   257  ; "tag"
fail op	35
0F4F  23808102           [164] close      0  
0F53  1AC00180           [165] jmp        8            ; to [174]
0F57  8B410000           [166] newtable   6   0   1    ; array=0, hash=1
0F5B  D2010002           [167] move       7   4      
0F5F  13028003           [168] getupval   8   7      
0F63  0E024104           [169] gettable   8   8   260  ; "duration"
0F67  E2810001           [170] call       7   2   2  
0F6B  8CC10181           [171] settable   6   258 7    ; "DURATION"
0F6F  D2000003           [172] move       3   6      
0F73  1A000780           [173] jmp        29           ; to [203]
0F77  93010004           [174] getupval   6   8      
0F7B  8E414003           [175] gettable   6   6   257  ; "tag"
fail op	35
0F7F  23808102           [176] close      0  
0F83  1A000680           [177] jmp        25           ; to [203]
0F87  8BC10000           [178] newtable   6   0   3    ; array=0, hash=3
0F8B  D2010002           [179] move       7   4      
0F8F  13020004           [180] getupval   8   8      
0F93  0E024104           [181] gettable   8   8   260  ; "duration"
0F97  E2810001           [182] call       7   2   2  
0F9B  8CC10181           [183] settable   6   258 7    ; "DURATION"
0F9F  DD810100           [184] getglobal  7   6        ; math
0FA3  CEC1C103           [185] gettable   7   7   263  ; -150971781
0FA7  12020002           [186] move       8   4      
0FAB  53020004           [187] getupval   9   8      
0FAF  4E02C204           [188] gettable   9   9   264  ; "damage"
0FB3  22820001           [189] call       8   2   2  
0FB7  04424204           [190] mul        8   8   265  ; 0
0FBB  E2810001           [191] call       7   2   2  
0FBF  8CC18182           [192] settable   6   261 7    ; "DAMAGE"
0FC3  DD810100           [193] getglobal  7   6        ; math
0FC7  CEC1C103           [194] gettable   7   7   263  ; -150971781
0FCB  12020002           [195] move       8   4      
0FCF  53020004           [196] getupval   9   8      
0FD3  4E82C604           [197] gettable   9   9   282  ; "chance"
0FD7  22820001           [198] call       8   2   2  
0FDB  04424204           [199] mul        8   8   265  ; 0
0FDF  E2810001           [200] call       7   2   2  
0FE3  8CC1818C           [201] settable   6   281 7    ; "CHANCE"
0FE7  D2000003           [202] move       3   6      
0FEB  9DC10600           [203] getglobal  6   27       ; cjson
0FEF  8E014703           [204] gettable   6   6   284  ; -1916729509
0FF3  D2018001           [205] move       7   3      
0FF7  87010001           [206] tailcall   6   2   0  
0FFB  9E010000           [207] return     6   0      
0FFF  1E008000           [208] return     0   1      
                         * constants:
1003  1D                 sizek (29)
1004  01                 const type 3
1005  1A4B27EC           const [0]: (-332969190)
1009  04                 const type 4
100A  04                 string size (4)
100B  74616700           "tag\0"
                         const [1]: "tag"
100F  04                 const type 4
1010  09                 string size (9)
1011  4455524154494F4E+  "DURATION"
1019  00                 "\0"
                         const [2]: "DURATION"
101A  04                 const type 4
101B  01                 string size (0)
                         const [3]: ""
101D  04                 const type 4
101E  09                 string size (9)
101F  6475726174696F6E+  "duration"
1027  00                 "\0"
                         const [4]: "duration"
1028  04                 const type 4
1029  07                 string size (7)
102A  44414D41474500     "DAMAGE\0"
                         const [5]: "DAMAGE"
1031  04                 const type 4
1032  05                 string size (5)
1033  6D61746800         "math\0"
                         const [6]: "math"
1038  01                 const type 3
1039  7B5A00F7           const [7]: (-150971781)
103D  04                 const type 4
103E  07                 string size (7)
103F  64616D61676500     "damage\0"
                         const [8]: "damage"
1046  03                 const type 3
1047  0000C842           const [9]: (0)
104B  04                 const type 4
104C  0C                 string size (12)
104D  426C617374436861+  "BlastCha"
1055  72676500           "rge\0"
                         const [10]: "BlastCharge"
1059  04                 const type 4
105A  08                 string size (8)
105B  50455243454E5400   "PERCENT\0"
                         const [11]: "PERCENT"
1063  01                 const type 3
1064  B825F338           const [12]: (955459000)
1068  03                 const type 3
1069  00000000           const [13]: (0)
106D  01                 const type 3
106E  BB60D5AD           const [14]: (-1378524997)
1072  04                 const type 4
1073  07                 string size (7)
1074  534849454C4400     "SHIELD\0"
                         const [15]: "SHIELD"
107B  04                 const type 4
107C  07                 string size (7)
107D  736869656C6400     "shield\0"
                         const [16]: "shield"
1084  04                 const type 4
1085  07                 string size (7)
1086  52414449555300     "RADIUS\0"
                         const [17]: "RADIUS"
108D  04                 const type 4
108E  07                 string size (7)
108F  72616469757300     "radius\0"
                         const [18]: "radius"
1096  04                 const type 4
1097  07                 string size (7)
1098  454E4552475900     "ENERGY\0"
                         const [19]: "ENERGY"
109F  04                 const type 4
10A0  0B                 string size (11)
10A1  656E65726779436F+  "energyCo"
10A9  737400             "st\0"
                         const [20]: "energyCost"
10AC  04                 const type 4
10AD  07                 string size (7)
10AE  414D4F554E5400     "AMOUNT\0"
                         const [21]: "AMOUNT"
10B5  04                 const type 4
10B6  10                 string size (16)
10B7  6162736F72625065+  "absorbPe"
10BF  72456E6572677900   "rEnergy\0"
                         const [22]: "absorbPerEnergy"
10C7  04                 const type 4
10C8  05                 string size (5)
10C9  736C6F7700         "slow\0"
                         const [23]: "slow"
10CE  04                 const type 4
10CF  06                 string size (6)
10D0  72616E676500       "range\0"
                         const [24]: "range"
10D6  04                 const type 4
10D7  07                 string size (7)
10D8  4348414E434500     "CHANCE\0"
                         const [25]: "CHANCE"
10DF  04                 const type 4
10E0  07                 string size (7)
10E1  6368616E636500     "chance\0"
                         const [26]: "chance"
10E8  04                 const type 4
10E9  06                 string size (6)
10EA  636A736F6E00       "cjson\0"
                         const [27]: "cjson"
10F0  01                 const type 3
10F1  5B07C18D           const [28]: (-1916729509)
                         * functions:
10F5  01                 sizep (1)
                         
10F6                     ** function [0] definition (level 3)
                         ** start of function **
10F6  00                 string size (0)
                         source name: (none)
10F8  01                 line defined (150)
10F9  98                 last line defined (152)
10FA  01                 nups (1)
10FB  01                 numparams (1)
10FC  01                 is_vararg (0)
10FD  00                 maxstacksize (4)
                         * code:
10FF  08                 sizecode (8)
1100  5D000000           [1] getglobal  1   0        ; math
1104  4E40C000           [2] gettable   1   1   257  ; 1710846250
1108  93000000           [3] getupval   2   0      
110C  CA000000           [4] len        3   0      
1110  62808001           [5] call       1   3   2  
1114  4E400000           [6] gettable   1   0   1  
1118  5E000001           [7] return     1   2      
111C  1E008000           [8] return     0   1      
                         * constants:
1120  02                 sizek (2)
1121  04                 const type 4
1122  05                 string size (5)
1123  6D61746800         "math\0"
                         const [0]: "math"
1128  01                 const type 3
1129  2A71F965           const [1]: (1710846250)
                         * functions:
112D  00                 sizep (0)
                         * lines:
112E  08                 sizelineinfo (8)
                         [pc] (line)
112F  97                 [1] (-105)
1130  00                 [2] (-105)
1131  00                 [3] (-105)
1132  00                 [4] (-105)
1133  97                 [5] (-105)
1134  00                 [6] (-105)
1135  00                 [7] (-105)
1136  00                 [8] (-104)
                         * locals:
114F  00                 sizelocvars (0)
                         * upvalues:
1150  00                 sizeupvalues (0)
                         ** end of function **

                         * lines:
1152  01                 sizelineinfo (208)
                         [pc] (line)
1153  94                 [001] (-108)
1154  00                 [002] (-104)
1155  00                 [003] (-104)
1156  00                 [004] (-102)
1157  98                 [005] (-102)
1158  00                 [006] (-102)
1159  00                 [007] (-101)
115A  00                 [008] (-101)
115B  98                 [009] (-101)
115C  00                 [010] (-101)
115D  00                 [011] (-100)
115E  00                 [012] (-99)
115F  9A                 [013] (-99)
1160  00                 [014] (-99)
1161  00                 [015] (-99)
1162  00                 [016] (-99)
1163  9A                 [017] (-99)
1164  00                 [018] (-99)
1165  00                 [019] (-98)
1166  00                 [020] (-98)
1167  9A                 [021] (-98)
1168  00                 [022] (-98)
1169  00                 [023] (-98)
116A  00                 [024] (-98)
116B  9B                 [025] (-98)
116C  00                 [026] (-98)
116D  00                 [027] (-98)
116E  00                 [028] (-97)
116F  9B                 [029] (-97)
1170  00                 [030] (-96)
1171  00                 [031] (-96)
1172  00                 [032] (-96)
1173  9B                 [033] (-96)
1174  00                 [034] (-96)
1175  00                 [035] (-95)
1176  00                 [036] (-94)
1177  9B                 [037] (-94)
1178  00                 [038] (-94)
1179  00                 [039] (-94)
117A  00                 [040] (-94)
117B  9C                 [041] (-94)
117C  00                 [042] (-94)
117D  00                 [043] (-94)
117E  00                 [044] (-94)
117F  9D                 [045] (-94)
1180  00                 [046] (-94)
1181  00                 [047] (-93)
1182  00                 [048] (-93)
1183  9D                 [049] (-92)
1184  00                 [050] (-92)
1185  00                 [051] (-92)
1186  00                 [052] (-92)
1187  9D                 [053] (-91)
1188  00                 [054] (-90)
1189  00                 [055] (-90)
118A  00                 [056] (-90)
118B  9D                 [057] (-90)
118C  00                 [058] (-90)
118D  00                 [059] (-89)
118E  00                 [060] (-89)
118F  9D                 [061] (-89)
1190  00                 [062] (-89)
1191  00                 [063] (-89)
1192  00                 [064] (-88)
1193  9D                 [065] (-88)
1194  00                 [066] (-88)
1195  00                 [067] (-88)
1196  00                 [068] (-88)
1197  9D                 [069] (-87)
1198  00                 [070] (-87)
1199  00                 [071] (-86)
119A  00                 [072] (-86)
119B  9E                 [073] (-86)
119C  00                 [074] (-86)
119D  00                 [075] (-85)
119E  00                 [076] (-84)
119F  9E                 [077] (-84)
11A0  00                 [078] (-84)
11A1  00                 [079] (-84)
11A2  00                 [080] (-84)
11A3  9E                 [081] (-83)
11A4  00                 [082] (-83)
11A5  00                 [083] (-82)
11A6  00                 [084] (-82)
11A7  9E                 [085] (-82)
11A8  00                 [086] (-82)
11A9  00                 [087] (-81)
11AA  00                 [088] (-80)
11AB  9E                 [089] (-80)
11AC  00                 [090] (-80)
11AD  00                 [091] (-80)
11AE  00                 [092] (-80)
11AF  9E                 [093] (-80)
11B0  00                 [094] (-80)
11B1  00                 [095] (-80)
11B2  00                 [096] (-80)
11B3  9E                 [097] (-79)
11B4  00                 [098] (-79)
11B5  00                 [099] (-79)
11B6  00                 [100] (-79)
11B7  9E                 [101] (-79)
11B8  00                 [102] (-78)
11B9  00                 [103] (-78)
11BA  00                 [104] (-77)
11BB  9E                 [105] (-77)
11BC  00                 [106] (-77)
11BD  00                 [107] (-77)
11BE  00                 [108] (-76)
11BF  9F                 [109] (-75)
11C0  00                 [110] (-75)
11C1  00                 [111] (-75)
11C2  00                 [112] (-75)
11C3  9F                 [113] (-75)
11C4  00                 [114] (-74)
11C5  00                 [115] (-74)
11C6  00                 [116] (-74)
11C7  A0                 [117] (-74)
11C8  00                 [118] (-74)
11C9  00                 [119] (-74)
11CA  00                 [120] (-74)
11CB  A0                 [121] (-74)
11CC  00                 [122] (-74)
11CD  00                 [123] (-73)
11CE  00                 [124] (-73)
11CF  A0                 [125] (-72)
11D0  00                 [126] (-72)
11D1  00                 [127] (-72)
11D2  00                 [128] (-72)
11D3  A0                 [129] (-71)
11D4  00                 [130] (-70)
11D5  00                 [131] (-70)
11D6  00                 [132] (-70)
11D7  A0                 [133] (-70)
11D8  00                 [134] (-70)
11D9  00                 [135] (-70)
11DA  00                 [136] (-70)
11DB  A1                 [137] (-70)
11DC  00                 [138] (-70)
11DD  00                 [139] (-69)
11DE  00                 [140] (-69)
11DF  A2                 [141] (-69)
11E0  00                 [142] (-69)
11E1  00                 [143] (-69)
11E2  00                 [144] (-68)
11E3  A2                 [145] (-68)
11E4  00                 [146] (-67)
11E5  00                 [147] (-67)
11E6  00                 [148] (-67)
11E7  A2                 [149] (-67)
11E8  00                 [150] (-66)
11E9  00                 [151] (-65)
11EA  00                 [152] (-65)
11EB  A2                 [153] (-65)
11EC  00                 [154] (-65)
11ED  00                 [155] (-65)
11EE  00                 [156] (-65)
11EF  A2                 [157] (-65)
11F0  00                 [158] (-65)
11F1  00                 [159] (-65)
11F2  00                 [160] (-64)
11F3  A2                 [161] (-64)
11F4  00                 [162] (-63)
11F5  00                 [163] (-63)
11F6  00                 [164] (-63)
11F7  A2                 [165] (-63)
11F8  00                 [166] (-62)
11F9  00                 [167] (-61)
11FA  00                 [168] (-61)
11FB  A2                 [169] (-61)
11FC  00                 [170] (-61)
11FD  00                 [171] (-61)
11FE  00                 [172] (-60)
11FF  A2                 [173] (-60)
1200  00                 [174] (-59)
1201  00                 [175] (-59)
1202  00                 [176] (-59)
1203  A2                 [177] (-59)
1204  00                 [178] (-58)
1205  00                 [179] (-57)
1206  00                 [180] (-57)
1207  A2                 [181] (-57)
1208  00                 [182] (-57)
1209  00                 [183] (-57)
120A  00                 [184] (-56)
120B  A3                 [185] (-56)
120C  00                 [186] (-56)
120D  00                 [187] (-56)
120E  00                 [188] (-56)
120F  A3                 [189] (-56)
1210  00                 [190] (-56)
1211  00                 [191] (-56)
1212  00                 [192] (-56)
1213  A4                 [193] (-55)
1214  00                 [194] (-55)
1215  00                 [195] (-55)
1216  00                 [196] (-55)
1217  A4                 [197] (-55)
1218  00                 [198] (-55)
1219  00                 [199] (-55)
121A  00                 [200] (-55)
121B  A4                 [201] (-55)
121C  00                 [202] (-54)
121D  00                 [203] (-51)
121E  00                 [204] (-51)
121F  A4                 [205] (-51)
1220  00                 [206] (-51)
1221  00                 [207] (-51)
1222  00                 [208] (-50)
                         * locals:
1493  00                 sizelocvars (0)
                         * upvalues:
1494  00                 sizeupvalues (0)
                         ** end of function **

                         
1495                     ** function [4] definition (level 2)
                         ** start of function **
1495  00                 string size (0)
                         source name: (none)
1497  01                 line defined (208)
1498  F7                 last line defined (247)
1499  01                 nups (1)
149A  01                 numparams (2)
149B  02                 is_vararg (0)
149C  00                 maxstacksize (15)
                         * code:
149E  6D                 sizecode (109)
149F  A4004000           [001] self       2   0   256  ; -1917464545
14A3  A2800001           [002] call       2   2   2  
14A7  E4404001           [003] self       3   2   257  ; -2079759465
14AB  E2800001           [004] call       3   2   2  
14AF  24814000           [005] self       4   0   258  ; -1565518332
14B3  9DC10000           [006] getglobal  6   3        ; handBone
14B7  22818001           [007] call       4   3   2  
14BB  5D010100           [008] getglobal  5   4        ; -304944129
14BF  92010002           [009] move       6   4      
14C3  D2018001           [010] move       7   3      
14C7  62818001           [011] call       5   3   2  
14CB  9D410100           [012] getglobal  6   5        ; gRegion
14CF  A4814103           [013] self       6   6   262  ; -1110225722
14D3  1DC20100           [014] getglobal  8   7        ; fireballProjType
14D7  52020002           [015] move       9   4      
14DB  92028002           [016] move       10  5      
14DF  D2020000           [017] move       11  0      
14E3  A2810003           [018] call       6   6   2  
14E7  DD010200           [019] getglobal  7   8        ; 1074689893
14EB  12020003           [020] move       8   6      
14EF  E2810001           [021] call       7   2   2  
14F3  D8410000           [022] test       7       1    ; to [24] if false
14F7  1A001580           [023] jmp        85           ; to [109]
14FB  E4414201           [024] self       7   2   265  ; 1674984496
14FF  5D820200           [025] getglobal  9   10       ; Engine
1503  4EC2C204           [026] gettable   9   9   267  ; "SLOT_6"
1507  E2818001           [027] call       7   3   2  
150B  24024303           [028] self       8   6   268  ; 1986606410
150F  92020000           [029] move       10  0      
1513  22428001           [030] call       8   3   1  
1517  24424303           [031] self       8   6   269  ; -1970657126
151B  92028003           [032] move       10  7      
151F  22428001           [033] call       8   3   1  
1523  24824300           [034] self       8   0   270  ; 1309201817
1527  22820001           [035] call       8   2   2  
152B  18020000           [036] test       8       0    ; to [38] if true
152F  1A400A80           [037] jmp        42           ; to [80]
1533  13020000           [038] getupval   8   0      
1537  0EC24304           [039] gettable   8   8   271  ; "damage"
153B  0E420004           [040] gettable   8   8   1  
153F  64424201           [041] self       9   2   265  ; 1674984496
1543  DD820200           [042] getglobal  11  10       ; Engine
1547  CEC2C205           [043] gettable   11  11  267  ; "SLOT_6"
154B  62828001           [044] call       9   3   2  
154F  9D020200           [045] getglobal  10  8        ; 1074689893
1553  D2028004           [046] move       11  9      
1557  A2820001           [047] call       10  2   2  
155B  98420000           [048] test       10      1    ; to [50] if false
155F  1A400680           [049] jmp        26           ; to [76]
1563  A402C404           [050] self       10  9   272  ; 293133101
1567  1D430400           [051] getglobal  12  17       ; -332969190
156B  59830400           [052] loadk      13  18       ; "MeleeSlam"
156F  22030001           [053] call       12  2   0  
1573  A2820000           [054] call       10  0   2  
1577  04820204           [055] mul        8   8   10 
157B  9D020200           [056] getglobal  10  8        ; 1074689893
157F  DDC20400           [057] getglobal  11  19       ; _T
1583  CE02C505           [058] gettable   11  11  276  ; "voidStrike"
1587  A2820001           [059] call       10  2   2  
158B  98420000           [060] test       10      1    ; to [62] if false
158F  1A400380           [061] jmp        14           ; to [76]
1593  A4424500           [062] self       10  0   277  ; -605089866
1597  A2820001           [063] call       10  2   2  
159B  DD020200           [064] getglobal  11  8        ; 1074689893
159F  1DC30400           [065] getglobal  12  19       ; _T
15A3  0E034506           [066] gettable   12  12  276  ; "voidStrike"
15A7  0E830206           [067] gettable   12  12  10 
15AB  E2820001           [068] call       11  2   2  
15AF  D8420000           [069] test       11      1    ; to [71] if false
15B3  1A000180           [070] jmp        5            ; to [76]
15B7  DDC20400           [071] getglobal  11  19       ; _T
15BB  CE02C505           [072] gettable   11  11  276  ; "voidStrike"
15BF  CE828205           [073] gettable   11  11  10 
15C3  CE82C505           [074] gettable   11  11  278  ; "multiplier"
15C7  04C20204           [075] mul        8   8   11 
15CB  E4C24503           [076] self       11  6   279  ; 358296647
15CF  52030004           [077] move       13  8      
15D3  E2428001           [078] call       11  3   1  
15D7  1A800080           [079] jmp        3            ; to [83]
15DB  E4C24503           [080] self       11  6   279  ; 358296647
15DF  59030600           [081] loadk      13  24       ; 0
15E3  E2428001           [082] call       11  3   1  
15E7  E4424603           [083] self       11  6   281  ; -2101470751
15EB  53030000           [084] getupval   13  0      
15EF  4E83C606           [085] gettable   13  13  282  ; "duration"
15F3  4E438006           [086] gettable   13  13  1  
15F7  E2428001           [087] call       11  3   1  
15FB  E4C24600           [088] self       11  0   283  ; 630793108
15FF  5D030700           [089] getglobal  13  28       ; launchSound
1603  97030000           [090] loadbool   14  0   0    ; false
1607  E2420002           [091] call       11  4   1  
160B  E4424700           [092] self       11  0   285  ; -1989965367
160F  E2820001           [093] call       11  2   2  
1613  D8420000           [094] test       11      1    ; to [96] if false
1617  1A000380           [095] jmp        13           ; to [109]
161B  E4824700           [096] self       11  0   286  ; 757002394
161F  E2820001           [097] call       11  2   2  
1623  D8020000           [098] test       11      0    ; to [100] if true
1627  1A000180           [099] jmp        5            ; to [105]
162B  E4C24703           [100] self       11  6   287  ; 687996862
162F  5D830200           [101] getglobal  13  10       ; Engine
1633  4E03C806           [102] gettable   13  13  288  ; "RS_IN_RIFT"
1637  E2428001           [103] call       11  3   1  
163B  1AC00080           [104] jmp        4            ; to [109]
163F  E4C24703           [105] self       11  6   287  ; 687996862
1643  5D830200           [106] getglobal  13  10       ; Engine
1647  4E43C806           [107] gettable   13  13  289  ; "RS_OUT_RIFT"
164B  E2428001           [108] call       11  3   1  
164F  1E008000           [109] return     0   1      
                         * constants:
1653  22                 sizek (34)
1654  01                 const type 3
1655  1FD0B58D           const [0]: (-1917464545)
1659  01                 const type 3
165A  97630984           const [1]: (-2079759465)
165E  01                 const type 3
165F  0416B0A2           const [2]: (-1565518332)
1663  04                 const type 4
1664  09                 string size (9)
1665  68616E64426F6E65+  "handBone"
166D  00                 "\0"
                         const [3]: "handBone"
166E  01                 const type 3
166F  FFEBD2ED           const [4]: (-304944129)
1673  04                 const type 4
1674  08                 string size (8)
1675  67526567696F6E00   "gRegion\0"
                         const [5]: "gRegion"
167D  01                 const type 3
167E  C64CD3BD           const [6]: (-1110225722)
1682  04                 const type 4
1683  11                 string size (17)
1684  6669726562616C6C+  "fireball"
168C  50726F6A54797065+  "ProjType"
1694  00                 "\0"
                         const [7]: "fireballProjType"
1695  01                 const type 3
1696  65770E40           const [8]: (1074689893)
169A  01                 const type 3
169B  303CD663           const [9]: (1674984496)
169F  04                 const type 4
16A0  07                 string size (7)
16A1  456E67696E6500     "Engine\0"
                         const [10]: "Engine"
16A8  04                 const type 4
16A9  07                 string size (7)
16AA  534C4F545F3600     "SLOT_6\0"
                         const [11]: "SLOT_6"
16B1  01                 const type 3
16B2  4A356976           const [12]: (1986606410)
16B6  01                 const type 3
16B7  9A288A8A           const [13]: (-1970657126)
16BB  01                 const type 3
16BC  99D5084E           const [14]: (1309201817)
16C0  04                 const type 4
16C1  07                 string size (7)
16C2  64616D61676500     "damage\0"
                         const [15]: "damage"
16C9  01                 const type 3
16CA  2DDB7811           const [16]: (293133101)
16CE  01                 const type 3
16CF  1A4B27EC           const [17]: (-332969190)
16D3  04                 const type 4
16D4  0A                 string size (10)
16D5  4D656C6565536C61+  "MeleeSla"
16DD  6D00               "m\0"
                         const [18]: "MeleeSlam"
16DF  04                 const type 4
16E0  03                 string size (3)
16E1  5F5400             "_T\0"
                         const [19]: "_T"
16E4  04                 const type 4
16E5  0B                 string size (11)
16E6  766F696453747269+  "voidStri"
16EE  6B6500             "ke\0"
                         const [20]: "voidStrike"
16F1  01                 const type 3
16F2  B60FEFDB           const [21]: (-605089866)
16F6  04                 const type 4
16F7  0B                 string size (11)
16F8  6D756C7469706C69+  "multipli"
1700  657200             "er\0"
                         const [22]: "multiplier"
1703  01                 const type 3
1704  472C5B15           const [23]: (358296647)
1708  03                 const type 3
1709  00000000           const [24]: (0)
170D  01                 const type 3
170E  E119BE82           const [25]: (-2101470751)
1712  04                 const type 4
1713  09                 string size (9)
1714  6475726174696F6E+  "duration"
171C  00                 "\0"
                         const [26]: "duration"
171D  01                 const type 3
171E  94239925           const [27]: (630793108)
1722  04                 const type 4
1723  0C                 string size (12)
1724  6C61756E6368536F+  "launchSo"
172C  756E6400           "und\0"
                         const [28]: "launchSound"
1730  01                 const type 3
1731  C9896389           const [29]: (-1989965367)
1735  01                 const type 3
1736  9AF01E2D           const [30]: (757002394)
173A  01                 const type 3
173B  BEFF0129           const [31]: (687996862)
173F  04                 const type 4
1740  0B                 string size (11)
1741  52535F494E5F5249+  "RS_IN_RI"
1749  465400             "FT\0"
                         const [32]: "RS_IN_RIFT"
174C  04                 const type 4
174D  0C                 string size (12)
174E  52535F4F55545F52+  "RS_OUT_R"
1756  49465400           "IFT\0"
                         const [33]: "RS_OUT_RIFT"
                         * functions:
175A  00                 sizep (0)
                         * lines:
175B  6D                 sizelineinfo (109)
                         [pc] (line)
175C  D1                 [001] (-47)
175D  00                 [002] (-47)
175E  00                 [003] (-45)
175F  00                 [004] (-45)
1760  D1                 [005] (-44)
1761  00                 [006] (-44)
1762  00                 [007] (-44)
1763  00                 [008] (-43)
1764  D3                 [009] (-43)
1765  00                 [010] (-43)
1766  00                 [011] (-43)
1767  00                 [012] (-41)
1768  D3                 [013] (-41)
1769  00                 [014] (-41)
176A  00                 [015] (-41)
176B  00                 [016] (-41)
176C  D4                 [017] (-41)
176D  00                 [018] (-41)
176E  00                 [019] (-40)
176F  00                 [020] (-40)
1770  D4                 [021] (-40)
1771  00                 [022] (-40)
1772  00                 [023] (-40)
1773  00                 [024] (-39)
1774  D4                 [025] (-39)
1775  00                 [026] (-39)
1776  00                 [027] (-39)
1777  00                 [028] (-38)
1778  D5                 [029] (-38)
1779  00                 [030] (-38)
177A  00                 [031] (-37)
177B  00                 [032] (-37)
177C  D5                 [033] (-37)
177D  00                 [034] (-36)
177E  00                 [035] (-36)
177F  00                 [036] (-36)
1780  D5                 [037] (-36)
1781  00                 [038] (-35)
1782  00                 [039] (-35)
1783  00                 [040] (-35)
1784  D5                 [041] (-34)
1785  00                 [042] (-34)
1786  00                 [043] (-34)
1787  00                 [044] (-34)
1788  D7                 [045] (-33)
1789  00                 [046] (-33)
178A  00                 [047] (-33)
178B  00                 [048] (-33)
178C  D7                 [049] (-33)
178D  00                 [050] (-32)
178E  00                 [051] (-32)
178F  00                 [052] (-32)
1790  D7                 [053] (-32)
1791  00                 [054] (-32)
1792  00                 [055] (-32)
1793  00                 [056] (-31)
1794  D7                 [057] (-31)
1795  00                 [058] (-31)
1796  00                 [059] (-31)
1797  00                 [060] (-31)
1798  D7                 [061] (-31)
1799  00                 [062] (-30)
179A  00                 [063] (-30)
179B  00                 [064] (-29)
179C  D7                 [065] (-29)
179D  00                 [066] (-29)
179E  00                 [067] (-29)
179F  00                 [068] (-29)
17A0  D7                 [069] (-29)
17A1  00                 [070] (-29)
17A2  00                 [071] (-28)
17A3  00                 [072] (-28)
17A4  D8                 [073] (-28)
17A5  00                 [074] (-28)
17A6  00                 [075] (-28)
17A7  00                 [076] (-24)
17A8  D8                 [077] (-24)
17A9  00                 [078] (-24)
17AA  00                 [079] (-24)
17AB  00                 [080] (-22)
17AC  D8                 [081] (-22)
17AD  00                 [082] (-22)
17AE  00                 [083] (-20)
17AF  00                 [084] (-20)
17B0  D8                 [085] (-20)
17B1  00                 [086] (-20)
17B2  00                 [087] (-20)
17B3  00                 [088] (-19)
17B4  D8                 [089] (-19)
17B5  00                 [090] (-19)
17B6  00                 [091] (-19)
17B7  00                 [092] (-17)
17B8  D9                 [093] (-17)
17B9  00                 [094] (-17)
17BA  00                 [095] (-17)
17BB  00                 [096] (-16)
17BC  D9                 [097] (-16)
17BD  00                 [098] (-16)
17BE  00                 [099] (-16)
17BF  00                 [100] (-15)
17C0  D9                 [101] (-15)
17C1  00                 [102] (-15)
17C2  00                 [103] (-15)
17C3  00                 [104] (-15)
17C4  D9                 [105] (-13)
17C5  00                 [106] (-13)
17C6  00                 [107] (-13)
17C7  00                 [108] (-13)
17C8  DA                 [109] (-9)
                         * locals:
1910  00                 sizelocvars (0)
                         * upvalues:
1911  00                 sizeupvalues (0)
                         ** end of function **

                         
1912                     ** function [5] definition (level 2)
                         ** start of function **
1912  00                 string size (0)
                         source name: (none)
1914  01                 line defined (249)
1915  91                 last line defined (273)
1916  02                 nups (2)
1917  02                 numparams (2)
1918  02                 is_vararg (0)
1919  00                 maxstacksize (20)
                         * code:
191B  47                 sizecode (71)
191C  A4004000           [01] self       2   0   256  ; -1565518332
1920  13010000           [02] getupval   4   0      
1924  A2808001           [03] call       2   3   2  
1928  DD400000           [04] getglobal  3   1        ; gRegion
192C  E480C001           [05] self       3   3   258  ; -1110225722
1930  5DC10000           [06] getglobal  5   3        ; blastAllyShieldEffect
1934  92010001           [07] move       6   2      
1938  DD010100           [08] getglobal  7   4        ; ZERO_ROTATION
193C  12020000           [09] move       8   0      
1940  E2400003           [10] call       3   6   1  
1944  E4404100           [11] self       3   0   261  ; -1917464545
1948  E2800001           [12] call       3   2   2  
194C  E480C101           [13] self       3   3   262  ; 1769516121
1950  E2800001           [14] call       3   2   2  
1954  13018000           [15] getupval   4   1      
1958  0EC14102           [16] gettable   4   4   263  ; "shield"
195C  0E410002           [17] gettable   4   4   1  
1960  53018000           [18] getupval   5   1      
1964  4E01C202           [19] gettable   5   5   264  ; "radius"
1968  4E418002           [20] gettable   5   5   1  
196C  93018000           [21] getupval   6   1      
1970  8E414203           [22] gettable   6   6   265  ; "energyCost"
1974  8E410003           [23] gettable   6   6   1  
1978  DD410000           [24] getglobal  7   1        ; gRegion
197C  E481C203           [25] self       7   7   266  ; 152279552
1980  5DC20200           [26] getglobal  9   11       ; gTennoAvatarType
1984  92020001           [27] move       10  2      
1988  D9020300           [28] loadk      11  12       ; 0
198C  12038002           [29] move       12  5      
1990  E2810003           [30] call       7   6   2  
1994  1D420300           [31] getglobal  8   13       ; 1672515847
1998  52028003           [32] move       9   7      
199C  22020101           [33] call       8   2   4  
19A0  1A400880           [34] jmp        34           ; to [69]
fail op	35
19A4  63000006           [35] close      1  
19A8  1AC00780           [36] jmp        32           ; to [69]
19AC  64834306           [37] self       13  12  270  ; 1800191191
19B0  D2030000           [38] move       15  0      
19B4  62838001           [39] call       13  3   2  
19B8  58030000           [40] test       13      0    ; to [42] if true
19BC  1A800680           [41] jmp        27           ; to [69]
19C0  64C3C301           [42] self       13  3   271  ; 1722612532
19C4  62830001           [43] call       13  2   2  
fail op	33
19C8  21400303           [44] tforloop   0       13   ; to [46] if exit
19CC  1A800580           [45] jmp        23           ; to [69]
19D0  6403C401           [46] self       13  3   272  ; -338878752
fail op	0
19D4  C0030003           [47] move       15  6      
19D8  62438001           [48] call       13  3   1  
19DC  6443C401           [49] self       13  3   273  ; 142650380
19E0  62430001           [50] call       13  2   1  
19E4  64834406           [51] self       13  12  274  ; -1421644046
19E8  DDC30400           [52] getglobal  15  19       ; blastAllyShieldAvatarEffect
19EC  1D040500           [53] getglobal  16  20       ; EMPTY_SYMBOL
19F0  5D440500           [54] getglobal  17  21       ; ZERO_VECTOR
19F4  9D040100           [55] getglobal  18  4        ; ZERO_ROTATION
19F8  D2040000           [56] move       19  0      
19FC  62438003           [57] call       13  7   1  
1A00  5D430000           [58] getglobal  13  1        ; gRegion
1A04  6483C506           [59] self       13  13  278  ; -1520831144
1A08  62830001           [60] call       13  2   2  
1A0C  58030000           [61] test       13      0    ; to [63] if true
1A10  1A400180           [62] jmp        6            ; to [69]
1A14  64C34506           [63] self       13  12  279  ; -1544157541
1A18  62830001           [64] call       13  2   2  
1A1C  6403C606           [65] self       13  13  280  ; -1877044716
1A20  D2030002           [66] move       15  4      
1A24  17048000           [67] loadbool   16  1   0    ; true
1A28  62430002           [68] call       13  4   1  
1A2C  16820000           [69] tforloop   8       2    ; to [71] if exit
1A30  1AC0F67F           [70] jmp        -36          ; to [35]
1A34  1E008000           [71] return     0   1      
                         * constants:
1A38  19                 sizek (25)
1A39  01                 const type 3
1A3A  0416B0A2           const [0]: (-1565518332)
1A3E  04                 const type 4
1A3F  08                 string size (8)
1A40  67526567696F6E00   "gRegion\0"
                         const [1]: "gRegion"
1A48  01                 const type 3
1A49  C64CD3BD           const [2]: (-1110225722)
1A4D  04                 const type 4
1A4E  16                 string size (22)
1A4F  626C617374416C6C+  "blastAll"
1A57  79536869656C6445+  "yShieldE"
1A5F  666665637400       "ffect\0"
                         const [3]: "blastAllyShieldEffect"
1A65  04                 const type 4
1A66  0E                 string size (14)
1A67  5A45524F5F524F54+  "ZERO_ROT"
1A6F  4154494F4E00       "ATION\0"
                         const [4]: "ZERO_ROTATION"
1A75  01                 const type 3
1A76  1FD0B58D           const [5]: (-1917464545)
1A7A  01                 const type 3
1A7B  59AC7869           const [6]: (1769516121)
1A7F  04                 const type 4
1A80  07                 string size (7)
1A81  736869656C6400     "shield\0"
                         const [7]: "shield"
1A88  04                 const type 4
1A89  07                 string size (7)
1A8A  72616469757300     "radius\0"
                         const [8]: "radius"
1A91  04                 const type 4
1A92  0B                 string size (11)
1A93  656E65726779436F+  "energyCo"
1A9B  737400             "st\0"
                         const [9]: "energyCost"
1A9E  01                 const type 3
1A9F  009A1309           const [10]: (152279552)
1AA3  04                 const type 4
1AA4  11                 string size (17)
1AA5  6754656E6E6F4176+  "gTennoAv"
1AAD  6174617254797065+  "atarType"
1AB5  00                 "\0"
                         const [11]: "gTennoAvatarType"
1AB6  03                 const type 3
1AB7  00000000           const [12]: (0)
1ABB  01                 const type 3
1ABC  0791B063           const [13]: (1672515847)
1AC0  01                 const type 3
1AC1  D7BC4C6B           const [14]: (1800191191)
1AC5  01                 const type 3
1AC6  34FBAC66           const [15]: (1722612532)
1ACA  01                 const type 3
1ACB  E01ECDEB           const [16]: (-338878752)
1ACF  01                 const type 3
1AD0  0CAC8008           const [17]: (142650380)
1AD4  01                 const type 3
1AD5  F26E43AB           const [18]: (-1421644046)
1AD9  04                 const type 4
1ADA  1C                 string size (28)
1ADB  626C617374416C6C+  "blastAll"
1AE3  79536869656C6441+  "yShieldA"
1AEB  7661746172456666+  "vatarEff"
1AF3  65637400           "ect\0"
                         const [19]: "blastAllyShieldAvatarEffect"
1AF7  04                 const type 4
1AF8  0D                 string size (13)
1AF9  454D5054595F5359+  "EMPTY_SY"
1B01  4D424F4C00         "MBOL\0"
                         const [20]: "EMPTY_SYMBOL"
1B06  04                 const type 4
1B07  0C                 string size (12)
1B08  5A45524F5F564543+  "ZERO_VEC"
1B10  544F5200           "TOR\0"
                         const [21]: "ZERO_VECTOR"
1B14  01                 const type 3
1B15  58F559A5           const [22]: (-1520831144)
1B19  01                 const type 3
1B1A  9B06F6A3           const [23]: (-1544157541)
1B1E  01                 const type 3
1B1F  14921E90           const [24]: (-1877044716)
                         * functions:
1B23  00                 sizep (0)
                         * lines:
1B24  47                 sizelineinfo (71)
                         [pc] (line)
1B25  FA                 [01] (-6)
1B26  00                 [02] (-6)
1B27  00                 [03] (-6)
1B28  00                 [04] (-5)
1B29  FA                 [05] (-5)
1B2A  00                 [06] (-5)
1B2B  00                 [07] (-5)
1B2C  00                 [08] (-5)
1B2D  FA                 [09] (-5)
1B2E  00                 [10] (-5)
1B2F  00                 [11] (-3)
1B30  00                 [12] (-3)
1B31  FB                 [13] (-3)
1B32  00                 [14] (-3)
1B33  00                 [15] (-1)
1B34  00                 [16] (-1)
1B35  FB                 [17] (-1)
1B36  00                 [18] (0)
1B37  00                 [19] (0)
1B38  00                 [20] (0)
1B39  FB                 [21] (1)
1B3A  00                 [22] (1)
1B3B  00                 [23] (1)
1B3C  00                 [24] (3)
1B3D  FB                 [25] (3)
1B3E  00                 [26] (3)
1B3F  00                 [27] (3)
1B40  00                 [28] (3)
1B41  FB                 [29] (3)
1B42  00                 [30] (3)
1B43  00                 [31] (4)
1B44  00                 [32] (4)
1B45  FB                 [33] (4)
1B46  00                 [34] (4)
1B47  00                 [35] (5)
1B48  00                 [36] (5)
1B49  FB                 [37] (5)
1B4A  00                 [38] (5)
1B4B  00                 [39] (5)
1B4C  00                 [40] (5)
1B4D  FD                 [41] (5)
1B4E  00                 [42] (6)
1B4F  00                 [43] (6)
1B50  00                 [44] (6)
1B51  FD                 [45] (6)
1B52  00                 [46] (7)
1B53  00                 [47] (7)
1B54  00                 [48] (7)
1B55  FD                 [49] (8)
1B56  00                 [50] (8)
1B57  00                 [51] (10)
1B58  00                 [52] (10)
1B59  FD                 [53] (10)
1B5A  00                 [54] (10)
1B5B  00                 [55] (10)
1B5C  00                 [56] (10)
1B5D  FF                 [57] (10)
1B5E  00                 [58] (11)
1B5F  00                 [59] (11)
1B60  00                 [60] (11)
1B61  FF                 [61] (11)
1B62  00                 [62] (11)
1B63  00                 [63] (12)
1B64  00                 [64] (12)
1B65  FF                 [65] (12)
1B66  00                 [66] (12)
1B67  00                 [67] (12)
1B68  00                 [68] (12)
1B69  00                 [69] (4)
1B6A  01                 [70] (15)
1B6B  00                 [71] (17)
                         * locals:
1C41  00                 sizelocvars (0)
                         * upvalues:
1C42  00                 sizeupvalues (0)
                         ** end of function **

                         
1C43                     ** function [6] definition (level 2)
                         ** start of function **
1C43  00                 string size (0)
                         source name: (none)
1C45  02                 line defined (275)
1C46  AD                 last line defined (301)
1C47  02                 nups (1)
1C48  01                 numparams (2)
1C49  02                 is_vararg (0)
1C4A  00                 maxstacksize (13)
                         * code:
1C4C  52                 sizecode (82)
1C4D  A4004000           [01] self       2   0   256  ; 1309201817
1C51  A2800001           [02] call       2   2   2  
1C55  98000000           [03] test       2       0    ; to [5] if true
1C59  1A800E80           [04] jmp        59           ; to [64]
1C5D  9D400000           [05] getglobal  2   1        ; Engine
1C61  8E804001           [06] gettable   2   2   258  ; 697389864
1C65  A2808000           [07] call       2   1   2  
1C69  D3000000           [08] getupval   3   0      
1C6D  CE00C101           [09] gettable   3   3   260  ; "damage"
1C71  CE408001           [10] gettable   3   3   1  
1C75  8CC08081           [11] settable   2   259 3    ; "baseAmount"
1C79  E4404100           [12] self       3   0   261  ; -1917464545
1C7D  E2800001           [13] call       3   2   2  
1C81  E480C101           [14] self       3   3   262  ; 1674984496
1C85  5D410000           [15] getglobal  5   1        ; Engine
1C89  4EC1C102           [16] gettable   5   5   263  ; "SLOT_6"
1C8D  E2808001           [17] call       3   3   2  
1C91  1D010200           [18] getglobal  4   8        ; 1074689893
1C95  52018001           [19] move       5   3      
1C99  22810001           [20] call       4   2   2  
1C9D  18410000           [21] test       4       1    ; to [23] if false
1CA1  1AC00180           [22] jmp        8            ; to [31]
1CA5  0EC14001           [23] gettable   4   2   259  ; "baseAmount"
1CA9  6441C201           [24] self       5   3   265  ; 293133101
1CAD  DD810200           [25] getglobal  7   10       ; -332969190
1CB1  19C20200           [26] loadk      8   11       ; "MeleeSlam"
1CB5  E2010001           [27] call       7   2   0  
1CB9  62810000           [28] call       5   0   2  
1CBD  04410102           [29] mul        4   4   5  
1CC1  8C008181           [30] settable   2   259 4    ; "baseAmount"
1CC5  13010000           [31] getupval   4   0      
1CC9  0E414302           [32] gettable   4   4   269  ; "range"
1CCD  0E410002           [33] gettable   4   4   1  
1CD1  8C000186           [34] settable   2   268 4    ; "radius"
1CD5  8CC04387           [35] settable   2   270 271  ; "checkForCover" 0
1CD9  24014401           [36] self       4   2   272  ; -995861768
1CDD  9D410000           [37] getglobal  6   1        ; Engine
1CE1  8E414403           [38] gettable   6   6   273  ; "DT_ELECTRICITY"
1CE5  D9810400           [39] loadk      7   18       ; 0
1CE9  22410002           [40] call       4   4   1  
1CED  24C14401           [41] self       4   2   275  ; 1398603399
1CF1  9D010500           [42] getglobal  6   20       ; Game
1CF5  8E414503           [43] gettable   6   6   277  ; "PT_ELECTROCUTION"
1CF9  D7018000           [44] loadbool   7   1   0    ; true
1CFD  22410002           [45] call       4   4   1  
1D01  24814501           [46] self       4   2   278  ; -420630141
1D05  92010000           [47] move       6   0      
1D09  22418001           [48] call       4   3   1  
1D0D  24C14501           [49] self       4   2   279  ; -2049256907
1D11  A4414100           [50] self       6   0   261  ; -1917464545
1D15  A2810001           [51] call       6   2   2  
1D19  A4014603           [52] self       6   6   280  ; 1769516121
1D1D  A2010001           [53] call       6   2   0  
1D21  22410000           [54] call       4   0   1  
1D25  24414601           [55] self       4   2   281  ; 1784265504
1D29  A4814600           [56] self       6   0   282  ; -1565518332
1D2D  1DC20600           [57] getglobal  8   27       ; handBone
1D31  A2018001           [58] call       6   3   0  
1D35  22410000           [59] call       4   0   1  
1D39  1D010700           [60] getglobal  4   28       ; gRegion
1D3D  24414702           [61] self       4   4   285  ; 1271047331
1D41  92010001           [62] move       6   2      
1D45  22418001           [63] call       4   3   1  
1D49  24414100           [64] self       4   0   261  ; -1917464545
1D4D  22810001           [65] call       4   2   2  
1D51  24814702           [66] self       4   4   286  ; -2079759465
1D55  22810001           [67] call       4   2   2  
1D59  64814600           [68] self       5   0   282  ; -1565518332
1D5D  DDC10600           [69] getglobal  7   27       ; handBone
1D61  62818001           [70] call       5   3   2  
1D65  9DC10700           [71] getglobal  6   31       ; -304944129
1D69  D2018002           [72] move       7   5      
1D6D  12020002           [73] move       8   4      
1D71  A2818001           [74] call       6   3   2  
1D75  DD010700           [75] getglobal  7   28       ; gRegion
1D79  E401C803           [76] self       7   7   288  ; -1110225722
1D7D  5D420800           [77] getglobal  9   33       ; blastBurstType
1D81  92028002           [78] move       10  5      
1D85  D2020003           [79] move       11  6      
1D89  12030000           [80] move       12  0      
1D8D  E2810003           [81] call       7   6   2  
1D91  1E008000           [82] return     0   1      
                         * constants:
1D95  22                 sizek (34)
1D96  01                 const type 3
1D97  99D5084E           const [0]: (1309201817)
1D9B  04                 const type 4
1D9C  07                 string size (7)
1D9D  456E67696E6500     "Engine\0"
                         const [1]: "Engine"
1DA4  01                 const type 3
1DA5  28539129           const [2]: (697389864)
1DA9  04                 const type 4
1DAA  0B                 string size (11)
1DAB  62617365416D6F75+  "baseAmou"
1DB3  6E7400             "nt\0"
                         const [3]: "baseAmount"
1DB6  04                 const type 4
1DB7  07                 string size (7)
1DB8  64616D61676500     "damage\0"
                         const [4]: "damage"
1DBF  01                 const type 3
1DC0  1FD0B58D           const [5]: (-1917464545)
1DC4  01                 const type 3
1DC5  303CD663           const [6]: (1674984496)
1DC9  04                 const type 4
1DCA  07                 string size (7)
1DCB  534C4F545F3600     "SLOT_6\0"
                         const [7]: "SLOT_6"
1DD2  01                 const type 3
1DD3  65770E40           const [8]: (1074689893)
1DD7  01                 const type 3
1DD8  2DDB7811           const [9]: (293133101)
1DDC  01                 const type 3
1DDD  1A4B27EC           const [10]: (-332969190)
1DE1  04                 const type 4
1DE2  0A                 string size (10)
1DE3  4D656C6565536C61+  "MeleeSla"
1DEB  6D00               "m\0"
                         const [11]: "MeleeSlam"
1DED  04                 const type 4
1DEE  07                 string size (7)
1DEF  72616469757300     "radius\0"
                         const [12]: "radius"
1DF6  04                 const type 4
1DF7  06                 string size (6)
1DF8  72616E676500       "range\0"
                         const [13]: "range"
1DFE  04                 const type 4
1DFF  0E                 string size (14)
1E00  636865636B466F72+  "checkFor"
1E08  436F76657200       "Cover\0"
                         const [14]: "checkForCover"
1E0E  01                 const type 3
1E0F  00000000           const [15]: (0)
1E13  01                 const type 3
1E14  F85AA4C4           const [16]: (-995861768)
1E18  04                 const type 4
1E19  0F                 string size (15)
1E1A  44545F454C454354+  "DT_ELECT"
1E22  52494349545900     "RICITY\0"
                         const [17]: "DT_ELECTRICITY"
1E29  03                 const type 3
1E2A  0000803F           const [18]: (0)
1E2E  01                 const type 3
1E2F  87FE5C53           const [19]: (1398603399)
1E33  04                 const type 4
1E34  05                 string size (5)
1E35  47616D6500         "Game\0"
                         const [20]: "Game"
1E3A  04                 const type 4
1E3B  11                 string size (17)
1E3C  50545F454C454354+  "PT_ELECT"
1E44  524F435554494F4E+  "ROCUTION"
1E4C  00                 "\0"
                         const [21]: "PT_ELECTROCUTION"
1E4D  01                 const type 3
1E4E  83B1EDE6           const [22]: (-420630141)
1E52  01                 const type 3
1E53  35D2DA85           const [23]: (-2049256907)
1E57  01                 const type 3
1E58  59AC7869           const [24]: (1769516121)
1E5C  01                 const type 3
1E5D  20BB596A           const [25]: (1784265504)
1E61  01                 const type 3
1E62  0416B0A2           const [26]: (-1565518332)
1E66  04                 const type 4
1E67  09                 string size (9)
1E68  68616E64426F6E65+  "handBone"
1E70  00                 "\0"
                         const [27]: "handBone"
1E71  04                 const type 4
1E72  08                 string size (8)
1E73  67526567696F6E00   "gRegion\0"
                         const [28]: "gRegion"
1E7B  01                 const type 3
1E7C  A3A4C24B           const [29]: (1271047331)
1E80  01                 const type 3
1E81  97630984           const [30]: (-2079759465)
1E85  01                 const type 3
1E86  FFEBD2ED           const [31]: (-304944129)
1E8A  01                 const type 3
1E8B  C64CD3BD           const [32]: (-1110225722)
1E8F  04                 const type 4
1E90  0F                 string size (15)
1E91  626C617374427572+  "blastBur"
1E99  73745479706500     "stType\0"
                         const [33]: "blastBurstType"
                         * functions:
1EA0  00                 sizep (0)
                         * lines:
1EA1  52                 sizelineinfo (82)
                         [pc] (line)
1EA2  14                 [01] (20)
1EA3  01                 [02] (20)
1EA4  00                 [03] (20)
1EA5  00                 [04] (20)
1EA6  14                 [05] (21)
1EA7  01                 [06] (21)
1EA8  00                 [07] (21)
1EA9  00                 [08] (23)
1EAA  14                 [09] (23)
1EAB  01                 [10] (23)
1EAC  00                 [11] (23)
1EAD  00                 [12] (24)
1EAE  14                 [13] (24)
1EAF  01                 [14] (24)
1EB0  00                 [15] (24)
1EB1  00                 [16] (24)
1EB2  15                 [17] (24)
1EB3  01                 [18] (25)
1EB4  00                 [19] (25)
1EB5  00                 [20] (25)
1EB6  15                 [21] (25)
1EB7  01                 [22] (25)
1EB8  00                 [23] (26)
1EB9  00                 [24] (26)
1EBA  15                 [25] (26)
1EBB  01                 [26] (26)
1EBC  00                 [27] (26)
1EBD  00                 [28] (26)
1EBE  17                 [29] (26)
1EBF  01                 [30] (26)
1EC0  00                 [31] (29)
1EC1  00                 [32] (29)
1EC2  17                 [33] (29)
1EC3  01                 [34] (29)
1EC4  00                 [35] (30)
1EC5  00                 [36] (31)
1EC6  17                 [37] (31)
1EC7  01                 [38] (31)
1EC8  00                 [39] (31)
1EC9  00                 [40] (31)
1ECA  17                 [41] (32)
1ECB  01                 [42] (32)
1ECC  00                 [43] (32)
1ECD  00                 [44] (32)
1ECE  18                 [45] (32)
1ECF  01                 [46] (33)
1ED0  00                 [47] (33)
1ED1  00                 [48] (33)
1ED2  18                 [49] (34)
1ED3  01                 [50] (34)
1ED4  00                 [51] (34)
1ED5  00                 [52] (34)
1ED6  18                 [53] (34)
1ED7  01                 [54] (34)
1ED8  00                 [55] (35)
1ED9  00                 [56] (35)
1EDA  18                 [57] (35)
1EDB  01                 [58] (35)
1EDC  00                 [59] (35)
1EDD  00                 [60] (37)
1EDE  18                 [61] (37)
1EDF  01                 [62] (37)
1EE0  00                 [63] (37)
1EE1  00                 [64] (40)
1EE2  18                 [65] (40)
1EE3  01                 [66] (40)
1EE4  00                 [67] (40)
1EE5  00                 [68] (41)
1EE6  19                 [69] (41)
1EE7  01                 [70] (41)
1EE8  00                 [71] (42)
1EE9  00                 [72] (42)
1EEA  19                 [73] (42)
1EEB  01                 [74] (42)
1EEC  00                 [75] (44)
1EED  00                 [76] (44)
1EEE  19                 [77] (44)
1EEF  01                 [78] (44)
1EF0  00                 [79] (44)
1EF1  00                 [80] (44)
1EF2  19                 [81] (44)
1EF3  01                 [82] (45)
                         * locals:
1FEA  00                 sizelocvars (0)
                         * upvalues:
1FEB  00                 sizeupvalues (0)
                         ** end of function **

                         
1FEC                     ** function [7] definition (level 2)
                         ** start of function **
1FEC  00                 string size (0)
                         source name: (none)
1FEE  02                 line defined (303)
1FEF  EB                 last line defined (363)
1FF0  02                 nups (15)
1FF1  0F                 numparams (1)
1FF2  01                 is_vararg (0)
1FF3  00                 maxstacksize (19)
                         * code:
1FF6  01                 sizecode (197)
1FF7  57000000           [001] loadbool   1   0   0    ; false
1FFB  93000000           [002] getupval   2   0      
1FFF  8E004001           [003] gettable   2   2   256  ; 518391456
2003  D2000000           [004] move       3   0      
2007  A2800001           [005] call       2   2   2  
200B  DD400000           [006] getglobal  3   1        ; Lotus_Game
200F  CE80C001           [007] gettable   3   3   258  ; "AP_ATTACK"
fail op	35
2013  23C00001           [008] close      0  
2017  1A800380           [009] jmp        15           ; to [25]
201B  D3000000           [010] getupval   3   0      
201F  CEC0C001           [011] gettable   3   3   259  ; -75093794
2023  12010000           [012] move       4   0      
2027  53018000           [013] getupval   5   1      
202B  4E01C102           [014] gettable   5   5   260  ; "tag"
202F  93018000           [015] getupval   6   1      
2033  8E414103           [016] gettable   6   6   261  ; "duration"
2037  E2800002           [017] call       3   4   2  
fail op	21
203B  15C00083           [018] concat     0   262 3  
203F  1A401A80           [019] jmp        106          ; to [126]
2043  13010001           [020] getupval   4   2      
2047  52010000           [021] move       5   0      
204B  92018001           [022] move       6   3      
204F  22418001           [023] call       4   3   1  
2053  1A001980           [024] jmp        101          ; to [126]
2057  1D410000           [025] getglobal  4   1        ; Lotus_Game
205B  0EC14102           [026] gettable   4   4   263  ; "AP_DEFENSE"
fail op	35
205F  23000101           [027] close      0  
2063  1A800380           [028] jmp        15           ; to [44]
2067  13010000           [029] getupval   4   0      
206B  0EC14002           [030] gettable   4   4   259  ; -75093794
206F  52010000           [031] move       5   0      
2073  93018001           [032] getupval   6   3      
2077  8E014103           [033] gettable   6   6   260  ; "tag"
207B  D3018001           [034] getupval   7   3      
207F  CE01C203           [035] gettable   7   7   264  ; "shield"
2083  22810002           [036] call       4   4   2  
fail op	21
2087  15000183           [037] concat     0   262 4  
208B  1A801580           [038] jmp        87           ; to [126]
208F  53010002           [039] getupval   5   4      
2093  92010000           [040] move       6   0      
2097  D2010002           [041] move       7   4      
209B  62418001           [042] call       5   3   1  
209F  1A401480           [043] jmp        82           ; to [126]
20A3  5D410000           [044] getglobal  5   1        ; Lotus_Game
20A7  4E41C202           [045] gettable   5   5   265  ; "AP_POWER"
fail op	35
20AB  23400101           [046] close      0  
20AF  1A800680           [047] jmp        27           ; to [75]
20B3  53010000           [048] getupval   5   0      
20B7  4EC1C002           [049] gettable   5   5   259  ; -75093794
20BB  92010000           [050] move       6   0      
20BF  D3018002           [051] getupval   7   5      
20C3  CE01C103           [052] gettable   7   7   260  ; "tag"
20C7  13028002           [053] getupval   8   5      
20CB  0E824204           [054] gettable   8   8   266  ; "slow"
20CF  62810002           [055] call       5   4   2  
fail op	21
20D3  55400183           [056] concat     1   262 5  
20D7  1A000080           [057] jmp        1            ; to [59]
20DB  57400000           [058] loadbool   1   0   1    ; false, to [60]
20DF  57008000           [059] loadbool   1   1   0    ; true
20E3  53010000           [060] getupval   5   0      
20E7  4EC1C002           [061] gettable   5   5   259  ; -75093794
20EB  92010000           [062] move       6   0      
20EF  D3010003           [063] getupval   7   6      
20F3  CE01C103           [064] gettable   7   7   260  ; "tag"
20F7  13020003           [065] getupval   8   6      
20FB  0EC24204           [066] gettable   8   8   267  ; "range"
20FF  62810002           [067] call       5   4   2  
fail op	21
2103  15400183           [068] concat     0   262 5  
2107  1AC00D80           [069] jmp        56           ; to [126]
210B  93018003           [070] getupval   6   7      
210F  D2010000           [071] move       7   0      
2113  12028002           [072] move       8   5      
2117  A2418001           [073] call       6   3   1  
211B  1A800C80           [074] jmp        51           ; to [126]
211F  9D410000           [075] getglobal  6   1        ; Lotus_Game
2123  8E014303           [076] gettable   6   6   268  ; "AP_TACTIC"
fail op	35
2127  23800101           [077] close      0  
212B  1A400580           [078] jmp        22           ; to [101]
212F  93010000           [079] getupval   6   0      
2133  8EC14003           [080] gettable   6   6   259  ; -75093794
2137  D2010000           [081] move       7   0      
213B  13020004           [082] getupval   8   8      
213F  0E024104           [083] gettable   8   8   260  ; "tag"
2143  53020004           [084] getupval   9   8      
2147  4E42C304           [085] gettable   9   9   269  ; "chance"
214B  A2810002           [086] call       6   4   2  
fail op	21
214F  55800183           [087] concat     1   262 6  
2153  1A400280           [088] jmp        10           ; to [99]
2157  93010000           [089] getupval   6   0      
215B  8EC14003           [090] gettable   6   6   259  ; -75093794
215F  D2010000           [091] move       7   0      
2163  13028004           [092] getupval   8   9      
2167  0E024104           [093] gettable   8   8   260  ; "tag"
216B  53028004           [094] getupval   9   9      
216F  4E42C304           [095] gettable   9   9   269  ; "chance"
2173  A2810002           [096] call       6   4   2  
fail op	21
2177  15800183           [097] concat     0   262 6  
217B  1A800680           [098] jmp        27           ; to [126]
217F  57008000           [099] loadbool   1   1   0    ; true
2183  1A000680           [100] jmp        25           ; to [126]
2187  9D410000           [101] getglobal  6   1        ; Lotus_Game
218B  8E814303           [102] gettable   6   6   270  ; "AP_WARD"
fail op	35
218F  23800101           [103] close      0  
2193  1A000580           [104] jmp        21           ; to [126]
2197  93010000           [105] getupval   6   0      
219B  8EC14003           [106] gettable   6   6   259  ; -75093794
219F  D2010000           [107] move       7   0      
21A3  13020005           [108] getupval   8   10     
21A7  0E024104           [109] gettable   8   8   260  ; "tag"
21AB  53020005           [110] getupval   9   10     
21AF  4E42C104           [111] gettable   9   9   261  ; "duration"
21B3  A2810002           [112] call       6   4   2  
fail op	21
21B7  55800183           [113] concat     1   262 6  
21BB  1A400280           [114] jmp        10           ; to [125]
21BF  93010000           [115] getupval   6   0      
21C3  8EC14003           [116] gettable   6   6   259  ; -75093794
21C7  D2010000           [117] move       7   0      
21CB  13028005           [118] getupval   8   11     
21CF  0E024104           [119] gettable   8   8   260  ; "tag"
21D3  53028005           [120] getupval   9   11     
21D7  4E42C104           [121] gettable   9   9   261  ; "duration"
21DB  A2810002           [122] call       6   4   2  
fail op	21
21DF  15800183           [123] concat     0   262 6  
21E3  1A000080           [124] jmp        1            ; to [126]
21E7  57008000           [125] loadbool   1   1   0    ; true
21EB  58400000           [126] test       1       1    ; to [128] if false
21EF  1AC00A80           [127] jmp        44           ; to [172]
21F3  A4C14300           [128] self       6   0   271  ; -1917464545
21F7  A2810001           [129] call       6   2   2  
21FB  A4014403           [130] self       6   6   272  ; 1769516121
21FF  A2810001           [131] call       6   2   2  
2203  DD410400           [132] getglobal  7   17       ; 1074689893
2207  12020003           [133] move       8   6      
220B  E2810001           [134] call       7   2   2  
220F  D8410000           [135] test       7       1    ; to [137] if false
2213  1A800880           [136] jmp        35           ; to [172]
2217  E4814403           [137] self       7   6   274  ; 50729289
221B  E2810001           [138] call       7   2   2  
221F  19820100           [139] loadk      8   6        ; 0
2223  4DC2C403           [140] sub        9   7   275  ; 0
2227  99C20400           [141] loadk      10  19       ; 0
222B  10C20680           [142] forprep    8   28       ; to [171]
222F  24034503           [143] self       12  6   276  ; 955459000
2233  92038005           [144] move       14  11     
2237  22838001           [145] call       12  3   2  
223B  5D430400           [146] getglobal  13  17       ; 1074689893
223F  92030006           [147] move       14  12     
2243  62830001           [148] call       13  2   2  
2247  58430000           [149] test       13      1    ; to [151] if false
224B  1AC00480           [150] jmp        20           ; to [171]
224F  64434506           [151] self       13  12  277  ; -1957065004
2253  D3030006           [152] getupval   15  12     
2257  CE83C507           [153] gettable   15  15  278  ; "upgrade"
225B  62838001           [154] call       13  3   2  
225F  58430000           [155] test       13      1    ; to [157] if false
2263  1AC00280           [156] jmp        12           ; to [169]
2267  64434506           [157] self       13  12  277  ; -1957065004
226B  D3038006           [158] getupval   15  13     
226F  CE83C507           [159] gettable   15  15  278  ; "upgrade"
2273  62838001           [160] call       13  3   2  
2277  58430000           [161] test       13      1    ; to [163] if false
227B  1A400180           [162] jmp        6            ; to [169]
227F  64434506           [163] self       13  12  277  ; -1957065004
2283  D3030007           [164] getupval   15  14     
2287  CE83C507           [165] gettable   15  15  278  ; "upgrade"
228B  62838001           [166] call       13  3   2  
228F  58030000           [167] test       13      0    ; to [169] if true
2293  1A400080           [168] jmp        2            ; to [171]
2297  57008000           [169] loadbool   1   1   0    ; true
229B  1A000080           [170] jmp        1            ; to [172]
229F  1482F87F           [171] forloop    8   -29      ; to [143] if loop
22A3  58000000           [172] test       1       0    ; to [174] if true
22A7  1A800580           [173] jmp        23           ; to [197]
22AB  64C34300           [174] self       13  0   271  ; -1917464545
22AF  62830001           [175] call       13  2   2  
22B3  6403C406           [176] self       13  13  272  ; 1769516121
22B7  62830001           [177] call       13  2   2  
22BB  9D430400           [178] getglobal  14  17       ; 1074689893
22BF  D2038006           [179] move       15  13     
22C3  A2830001           [180] call       14  2   2  
22C7  98430000           [181] test       14      1    ; to [183] if false
22CB  1A400380           [182] jmp        14           ; to [197]
22CF  A4C3C506           [183] self       14  13  279  ; -363477704
22D3  19840100           [184] loadk      16  6        ; 0
22D7  A2838001           [185] call       14  3   2  
22DB  DD430400           [186] getglobal  15  17       ; 1074689893
22DF  12040007           [187] move       16  14     
22E3  E2830001           [188] call       15  2   2  
22E7  D8430000           [189] test       15      1    ; to [191] if false
22EB  1A400180           [190] jmp        6            ; to [197]
22EF  E4034607           [191] self       15  14  280  ; -722806278
22F3  5D440600           [192] getglobal  17  25       ; -332969190
22F7  99840600           [193] loadk      18  26       ; "OnMeleeHit"
22FB  62840001           [194] call       17  2   2  
22FF  97048000           [195] loadbool   18  1   0    ; true
2303  E2430002           [196] call       15  4   1  
2307  1E008000           [197] return     0   1      
                         * constants:
230B  1B                 sizek (27)
230C  01                 const type 3
230D  A006E61E           const [0]: (518391456)
2311  04                 const type 4
2312  0B                 string size (11)
2313  4C6F7475735F4761+  "Lotus_Ga"
231B  6D6500             "me\0"
                         const [1]: "Lotus_Game"
231E  04                 const type 4
231F  0A                 string size (10)
2320  41505F4154544143+  "AP_ATTAC"
2328  4B00               "K\0"
                         const [2]: "AP_ATTACK"
232A  01                 const type 3
232B  DE2886FB           const [3]: (-75093794)
232F  04                 const type 4
2330  04                 string size (4)
2331  74616700           "tag\0"
                         const [4]: "tag"
2335  04                 const type 4
2336  09                 string size (9)
2337  6475726174696F6E+  "duration"
233F  00                 "\0"
                         const [5]: "duration"
2340  03                 const type 3
2341  00000000           const [6]: (0)
2345  04                 const type 4
2346  0B                 string size (11)
2347  41505F444546454E+  "AP_DEFEN"
234F  534500             "SE\0"
                         const [7]: "AP_DEFENSE"
2352  04                 const type 4
2353  07                 string size (7)
2354  736869656C6400     "shield\0"
                         const [8]: "shield"
235B  04                 const type 4
235C  09                 string size (9)
235D  41505F504F574552+  "AP_POWER"
2365  00                 "\0"
                         const [9]: "AP_POWER"
2366  04                 const type 4
2367  05                 string size (5)
2368  736C6F7700         "slow\0"
                         const [10]: "slow"
236D  04                 const type 4
236E  06                 string size (6)
236F  72616E676500       "range\0"
                         const [11]: "range"
2375  04                 const type 4
2376  0A                 string size (10)
2377  41505F5441435449+  "AP_TACTI"
237F  4300               "C\0"
                         const [12]: "AP_TACTIC"
2381  04                 const type 4
2382  07                 string size (7)
2383  6368616E636500     "chance\0"
                         const [13]: "chance"
238A  04                 const type 4
238B  08                 string size (8)
238C  41505F5741524400   "AP_WARD\0"
                         const [14]: "AP_WARD"
2394  01                 const type 3
2395  1FD0B58D           const [15]: (-1917464545)
2399  01                 const type 3
239A  59AC7869           const [16]: (1769516121)
239E  01                 const type 3
239F  65770E40           const [17]: (1074689893)
23A3  01                 const type 3
23A4  49110603           const [18]: (50729289)
23A8  03                 const type 3
23A9  0000803F           const [19]: (0)
23AD  01                 const type 3
23AE  B825F338           const [20]: (955459000)
23B2  01                 const type 3
23B3  D48E598B           const [21]: (-1957065004)
23B7  04                 const type 4
23B8  08                 string size (8)
23B9  7570677261646500   "upgrade\0"
                         const [22]: "upgrade"
23C1  01                 const type 3
23C2  38C555EA           const [23]: (-363477704)
23C6  01                 const type 3
23C7  FAD9EAD4           const [24]: (-722806278)
23CB  01                 const type 3
23CC  1A4B27EC           const [25]: (-332969190)
23D0  04                 const type 4
23D1  0B                 string size (11)
23D2  4F6E4D656C656548+  "OnMeleeH"
23DA  697400             "it\0"
                         const [26]: "OnMeleeHit"
                         * functions:
23DD  00                 sizep (0)
                         * lines:
23DF  01                 sizelineinfo (197)
                         [pc] (line)
23E0  30                 [001] (48)
23E1  01                 [002] (50)
23E2  00                 [003] (50)
23E3  00                 [004] (50)
23E4  32                 [005] (50)
23E5  01                 [006] (51)
23E6  00                 [007] (51)
23E7  00                 [008] (51)
23E8  32                 [009] (51)
23E9  01                 [010] (52)
23EA  00                 [011] (52)
23EB  00                 [012] (52)
23EC  32                 [013] (52)
23ED  01                 [014] (52)
23EE  00                 [015] (52)
23EF  00                 [016] (52)
23F0  32                 [017] (52)
23F1  01                 [018] (53)
23F2  00                 [019] (53)
23F3  00                 [020] (54)
23F4  33                 [021] (54)
23F5  01                 [022] (54)
23F6  00                 [023] (54)
23F7  00                 [024] (55)
23F8  33                 [025] (56)
23F9  01                 [026] (56)
23FA  00                 [027] (56)
23FB  00                 [028] (56)
23FC  33                 [029] (57)
23FD  01                 [030] (57)
23FE  00                 [031] (57)
23FF  00                 [032] (57)
2400  33                 [033] (57)
2401  01                 [034] (57)
2402  00                 [035] (57)
2403  00                 [036] (57)
2404  34                 [037] (58)
2405  01                 [038] (58)
2406  00                 [039] (59)
2407  00                 [040] (59)
2408  34                 [041] (59)
2409  01                 [042] (59)
240A  00                 [043] (60)
240B  00                 [044] (61)
240C  34                 [045] (61)
240D  01                 [046] (61)
240E  00                 [047] (61)
240F  00                 [048] (62)
2410  34                 [049] (62)
2411  01                 [050] (62)
2412  00                 [051] (62)
2413  00                 [052] (62)
2414  34                 [053] (62)
2415  01                 [054] (62)
2416  00                 [055] (62)
2417  00                 [056] (62)
2418  34                 [057] (62)
2419  01                 [058] (62)
241A  00                 [059] (62)
241B  00                 [060] (64)
241C  34                 [061] (64)
241D  01                 [062] (64)
241E  00                 [063] (64)
241F  00                 [064] (64)
2420  34                 [065] (64)
2421  01                 [066] (64)
2422  00                 [067] (64)
2423  00                 [068] (65)
2424  35                 [069] (65)
2425  01                 [070] (66)
2426  00                 [071] (66)
2427  00                 [072] (66)
2428  35                 [073] (66)
2429  01                 [074] (67)
242A  00                 [075] (68)
242B  00                 [076] (68)
242C  36                 [077] (68)
242D  01                 [078] (68)
242E  00                 [079] (70)
242F  00                 [080] (70)
2430  36                 [081] (70)
2431  01                 [082] (70)
2432  00                 [083] (70)
2433  00                 [084] (70)
2434  36                 [085] (70)
2435  01                 [086] (70)
2436  00                 [087] (70)
2437  00                 [088] (70)
2438  36                 [089] (71)
2439  01                 [090] (71)
243A  00                 [091] (71)
243B  00                 [092] (71)
243C  37                 [093] (71)
243D  01                 [094] (71)
243E  00                 [095] (71)
243F  00                 [096] (71)
2440  38                 [097] (71)
2441  01                 [098] (71)
2442  00                 [099] (73)
2443  00                 [100] (74)
2444  38                 [101] (75)
2445  01                 [102] (75)
2446  00                 [103] (75)
2447  00                 [104] (75)
2448  38                 [105] (77)
2449  01                 [106] (77)
244A  00                 [107] (77)
244B  00                 [108] (77)
244C  38                 [109] (77)
244D  01                 [110] (77)
244E  00                 [111] (77)
244F  00                 [112] (77)
2450  39                 [113] (77)
2451  01                 [114] (77)
2452  00                 [115] (78)
2453  00                 [116] (78)
2454  39                 [117] (78)
2455  01                 [118] (78)
2456  00                 [119] (78)
2457  00                 [120] (78)
2458  39                 [121] (78)
2459  01                 [122] (78)
245A  00                 [123] (78)
245B  00                 [124] (78)
245C  39                 [125] (80)
245D  01                 [126] (84)
245E  00                 [127] (84)
245F  00                 [128] (85)
2460  39                 [129] (85)
2461  01                 [130] (85)
2462  00                 [131] (85)
2463  00                 [132] (86)
2464  39                 [133] (86)
2465  01                 [134] (86)
2466  00                 [135] (86)
2467  00                 [136] (86)
2468  39                 [137] (87)
2469  01                 [138] (87)
246A  00                 [139] (88)
246B  00                 [140] (88)
246C  39                 [141] (88)
246D  01                 [142] (88)
246E  00                 [143] (89)
246F  00                 [144] (89)
2470  3A                 [145] (89)
2471  01                 [146] (90)
2472  00                 [147] (90)
2473  00                 [148] (90)
2474  3A                 [149] (90)
2475  01                 [150] (90)
2476  00                 [151] (90)
2477  00                 [152] (90)
2478  3B                 [153] (90)
2479  01                 [154] (90)
247A  00                 [155] (90)
247B  00                 [156] (90)
247C  3B                 [157] (90)
247D  01                 [158] (90)
247E  00                 [159] (90)
247F  00                 [160] (90)
2480  3B                 [161] (90)
2481  01                 [162] (90)
2482  00                 [163] (90)
2483  00                 [164] (90)
2484  3B                 [165] (90)
2485  01                 [166] (90)
2486  00                 [167] (90)
2487  00                 [168] (90)
2488  3C                 [169] (91)
2489  01                 [170] (92)
248A  00                 [171] (88)
248B  00                 [172] (98)
248C  3D                 [173] (98)
248D  01                 [174] (99)
248E  00                 [175] (99)
248F  00                 [176] (99)
2490  3D                 [177] (99)
2491  01                 [178] (100)
2492  00                 [179] (100)
2493  00                 [180] (100)
2494  3D                 [181] (100)
2495  01                 [182] (100)
2496  00                 [183] (101)
2497  00                 [184] (101)
2498  3D                 [185] (101)
2499  01                 [186] (102)
249A  00                 [187] (102)
249B  00                 [188] (102)
249C  3E                 [189] (102)
249D  01                 [190] (102)
249E  00                 [191] (103)
249F  00                 [192] (103)
24A0  3E                 [193] (103)
24A1  01                 [194] (103)
24A2  00                 [195] (103)
24A3  00                 [196] (103)
24A4  3E                 [197] (107)
                         * locals:
26F4  00                 sizelocvars (0)
                         * upvalues:
26F5  00                 sizeupvalues (0)
                         ** end of function **

                         
26F6                     ** function [8] definition (level 2)
                         ** start of function **
26F6  00                 string size (0)
                         source name: (none)
26F8  02                 line defined (369)
26F9  F9                 last line defined (377)
26FA  02                 nups (2)
26FB  02                 numparams (1)
26FC  01                 is_vararg (0)
26FD  00                 maxstacksize (5)
                         * code:
26FF  15                 sizecode (21)
2700  64004000           [01] self       1   0   256  ; -565659446
2704  D3000000           [02] getupval   3   0      
2708  CE40C001           [03] gettable   3   3   257  ; "tag"
270C  13018000           [04] getupval   4   1      
2710  0E814002           [05] gettable   4   4   258  ; "slow"
2714  0D018181           [06] sub        4   259 4    ; 0
2718  62400002           [07] call       1   4   1  
271C  5D000100           [08] getglobal  1   4        ; 538022378
2720  93008000           [09] getupval   2   1      
2724  8E404101           [10] gettable   2   2   261  ; "duration"
2728  62400001           [11] call       1   2   1  
272C  5D800100           [12] getglobal  1   6        ; 1074689893
2730  92000000           [13] move       2   0      
2734  62800001           [14] call       1   2   2  
2738  58400000           [15] test       1       1    ; to [17] if false
273C  1AC00080           [16] jmp        4            ; to [21]
2740  64C04100           [17] self       1   0   263  ; 964965923
2744  D3000000           [18] getupval   3   0      
2748  CE40C001           [19] gettable   3   3   257  ; "tag"
274C  62408001           [20] call       1   3   1  
2750  1E008000           [21] return     0   1      
                         * constants:
2754  08                 sizek (8)
2755  01                 const type 3
2756  CAB848DE           const [0]: (-565659446)
275A  04                 const type 4
275B  04                 string size (4)
275C  74616700           "tag\0"
                         const [1]: "tag"
2760  04                 const type 4
2761  05                 string size (5)
2762  736C6F7700         "slow\0"
                         const [2]: "slow"
2767  03                 const type 3
2768  0000803F           const [3]: (0)
276C  01                 const type 3
276D  EA911120           const [4]: (538022378)
2771  04                 const type 4
2772  09                 string size (9)
2773  6475726174696F6E+  "duration"
277B  00                 "\0"
                         const [5]: "duration"
277C  01                 const type 3
277D  65770E40           const [6]: (1074689893)
2781  01                 const type 3
2782  23368439           const [7]: (964965923)
                         * functions:
2786  00                 sizep (0)
                         * lines:
2787  15                 sizelineinfo (21)
                         [pc] (line)
2788  72                 [01] (114)
2789  01                 [02] (114)
278A  00                 [03] (114)
278B  00                 [04] (114)
278C  72                 [05] (114)
278D  01                 [06] (114)
278E  00                 [07] (114)
278F  00                 [08] (116)
2790  72                 [09] (116)
2791  01                 [10] (116)
2792  00                 [11] (116)
2793  00                 [12] (118)
2794  72                 [13] (118)
2795  01                 [14] (118)
2796  00                 [15] (118)
2797  00                 [16] (118)
2798  72                 [17] (119)
2799  01                 [18] (119)
279A  00                 [19] (119)
279B  00                 [20] (119)
279C  72                 [21] (121)
                         * locals:
27DC  00                 sizelocvars (0)
                         * upvalues:
27DD  00                 sizeupvalues (0)
                         ** end of function **

                         
27DE                     ** function [9] definition (level 2)
                         ** start of function **
27DE  00                 string size (0)
                         source name: (none)
27E0  02                 line defined (380)
27E1  85                 last line defined (389)
27E2  03                 nups (1)
27E3  01                 numparams (1)
27E4  01                 is_vararg (0)
27E5  00                 maxstacksize (6)
                         * code:
27E7  16                 sizecode (22)
27E8  5D000000           [01] getglobal  1   0        ; -332969190
27EC  99400000           [02] loadk      2   1        ; "BLAST_CONFUSE"
27F0  E4804000           [03] self       3   0   258  ; -605089866
27F4  E2800001           [04] call       3   2   2  
27F8  82C00001           [05] concat     2   2   3  
27FC  62800001           [06] call       1   2   2  
2800  A4C04000           [07] self       2   0   259  ; 1445902558
2804  12018000           [08] move       4   1      
2808  52018000           [09] move       5   1      
280C  A2400002           [10] call       2   4   1  
2810  9D000100           [11] getglobal  2   4        ; 538022378
2814  D3000000           [12] getupval   3   0      
2818  A2400001           [13] call       2   2   1  
281C  9D400100           [14] getglobal  2   5        ; 1074689893
2820  D2000000           [15] move       3   0      
2824  A2800001           [16] call       2   2   2  
2828  98400000           [17] test       2       1    ; to [19] if false
282C  1A800080           [18] jmp        3            ; to [22]
2830  A4804100           [19] self       2   0   262  ; 307051124
2834  12018000           [20] move       4   1      
2838  A2408001           [21] call       2   3   1  
283C  1E008000           [22] return     0   1      
                         * constants:
2840  07                 sizek (7)
2841  01                 const type 3
2842  1A4B27EC           const [0]: (-332969190)
2846  04                 const type 4
2847  0E                 string size (14)
2848  424C4153545F434F+  "BLAST_CO"
2850  4E4655534500       "NFUSE\0"
                         const [1]: "BLAST_CONFUSE"
2856  01                 const type 3
2857  B60FEFDB           const [2]: (-605089866)
285B  01                 const type 3
285C  DEB82E56           const [3]: (1445902558)
2860  01                 const type 3
2861  EA911120           const [4]: (538022378)
2865  01                 const type 3
2866  65770E40           const [5]: (1074689893)
286A  01                 const type 3
286B  743A4D12           const [6]: (307051124)
                         * functions:
286F  00                 sizep (0)
                         * lines:
2870  16                 sizelineinfo (22)
                         [pc] (line)
2871  7D                 [01] (125)
2872  01                 [02] (125)
2873  00                 [03] (125)
2874  00                 [04] (125)
2875  7D                 [05] (125)
2876  01                 [06] (125)
2877  00                 [07] (126)
2878  00                 [08] (126)
2879  7D                 [09] (126)
287A  01                 [10] (126)
287B  00                 [11] (-128)
287C  00                 [12] (-128)
287D  7D                 [13] (-128)
287E  01                 [14] (-126)
287F  00                 [15] (-126)
2880  00                 [16] (-126)
2881  7D                 [17] (-126)
2882  01                 [18] (-126)
2883  00                 [19] (-125)
2884  00                 [20] (-125)
2885  7D                 [21] (-125)
2886  01                 [22] (-123)
                         * locals:
28C9  00                 sizelocvars (0)
                         * upvalues:
28CA  00                 sizeupvalues (0)
                         ** end of function **

                         
28CB                     ** function [10] definition (level 2)
                         ** start of function **
28CB  00                 string size (0)
                         source name: (none)
28CD  03                 line defined (391)
28CE  9D                 last line defined (413)
28CF  03                 nups (2)
28D0  02                 numparams (4)
28D1  04                 is_vararg (0)
28D2  00                 maxstacksize (15)
                         * code:
28D4  57                 sizecode (87)
28D5  2401C001           [01] self       4   3   256  ; 129677183
28D9  22810001           [02] call       4   2   2  
28DD  64414000           [03] self       5   0   257  ; -1888201767
28E1  62810001           [04] call       5   2   2  
28E5  9D810000           [05] getglobal  6   2        ; 1074689893
28E9  D2018002           [06] move       7   5      
28ED  A2810001           [07] call       6   2   2  
28F1  98410000           [08] test       6       1    ; to [10] if false
28F5  1A001380           [09] jmp        77           ; to [87]
28F9  9D810000           [10] getglobal  6   2        ; 1074689893
28FD  D2010002           [11] move       7   4      
2901  A2810001           [12] call       6   2   2  
2905  98410000           [13] test       6       1    ; to [15] if false
2909  1AC01180           [14] jmp        72           ; to [87]
290D  93010000           [15] getupval   6   0      
2911  8EC14003           [16] gettable   6   6   259  ; -75093794
2915  D2010002           [17] move       7   4      
2919  13028000           [18] getupval   8   1      
291D  0E024104           [19] gettable   8   8   260  ; "tag"
2921  53028000           [20] getupval   9   1      
2925  4E42C104           [21] gettable   9   9   261  ; "duration"
2929  A2810002           [22] call       6   4   2  
fail op	21
292D  15800183           [23] concat     0   262 6  
2931  1A400F80           [24] jmp        62           ; to [87]
2935  D3018000           [25] getupval   7   1      
2939  CEC1C103           [26] gettable   7   7   263  ; "damage"
293D  CE818103           [27] gettable   7   7   6  
2941  13028000           [28] getupval   8   1      
2945  0E424104           [29] gettable   8   8   261  ; "duration"
2949  0E820104           [30] gettable   8   8   6  
294D  6402C202           [31] self       9   5   264  ; -1917464545
2951  62820001           [32] call       9   2   2  
2955  6442C204           [33] self       9   9   265  ; -693144043
2959  D2020004           [34] move       11  8      
295D  1D830200           [35] getglobal  12  10       ; Game
2961  0EC34206           [36] gettable   12  12  267  ; "WEAPON_DAMAGE_AMOUNT"
2965  5D830200           [37] getglobal  13  10       ; Game
2969  4E03C306           [38] gettable   13  13  268  ; "STACKING_MULTIPLY"
296D  92038003           [39] move       14  7      
2971  62420003           [40] call       9   6   1  
2975  6402C202           [41] self       9   5   264  ; -1917464545
2979  62820001           [42] call       9   2   2  
297D  6442C204           [43] self       9   9   265  ; -693144043
2981  D2020004           [44] move       11  8      
2985  1D830200           [45] getglobal  12  10       ; Game
2989  0E434306           [46] gettable   12  12  269  ; "WEAPON_MELEE_DAMAGE"
298D  5D830200           [47] getglobal  13  10       ; Game
2991  4E03C306           [48] gettable   13  13  268  ; "STACKING_MULTIPLY"
2995  92038003           [49] move       14  7      
2999  62420003           [50] call       9   6   1  
299D  6402C202           [51] self       9   5   264  ; -1917464545
29A1  62820001           [52] call       9   2   2  
29A5  6442C204           [53] self       9   9   265  ; -693144043
29A9  D2020004           [54] move       11  8      
29AD  1D830200           [55] getglobal  12  10       ; Game
29B1  0E834306           [56] gettable   12  12  270  ; "WEAPON_MELEE_SLAM_DAMAGE_BONUS"
29B5  5D830200           [57] getglobal  13  10       ; Game
29B9  4E03C306           [58] gettable   13  13  268  ; "STACKING_MULTIPLY"
29BD  92038003           [59] move       14  7      
29C1  62420003           [60] call       9   6   1  
29C5  5DC20300           [61] getglobal  9   15       ; Lotus_Game
29C9  4E02C404           [62] gettable   9   9   272  ; -84065502
29CD  62828000           [63] call       9   1   2  
29D1  4C428188           [64] settable   9   273 5    ; "instigator"
29D5  8B028000           [65] newtable   10  1   0    ; array=1, hash=0
29D9  D2028002           [66] move       11  5      
29DD  9B428000           [67] setlist    10  1   1    ; index 1 to 1
29E1  4C820289           [68] settable   9   274 10   ; "affected"
29E5  9DC20300           [69] getglobal  10  15       ; Lotus_Game
29E9  8E024505           [70] gettable   10  10  276  ; "BT_PERCENT_TIMER"
29ED  4C828289           [71] settable   9   275 10   ; "buffType"
29F1  4C02828A           [72] settable   9   277 8    ; "buffData"
29F5  9DC20500           [73] getglobal  10  23       ; math
29F9  8E024605           [74] gettable   10  10  280  ; -1124579617
29FD  C442C603           [75] mul        11  7   281  ; 0
2A01  A2820001           [76] call       10  2   2  
2A05  4C82028B           [77] settable   9   278 10   ; "buffDataExtra"
2A09  9DC20600           [78] getglobal  10  27       ; 738251817
2A0D  D9020700           [79] loadk      11  28       ; "/Lotus/Upgrades/Focus/Ward/Active/BlastDamagePickupFocusUpgrade"
2A11  A2820001           [80] call       10  2   2  
2A15  4C82028D           [81] settable   9   282 10   ; "abilityType"
2A19  A442C702           [82] self       10  5   285  ; 1481577430
2A1D  12038004           [83] move       12  9      
2A21  57038000           [84] loadbool   13  1   0    ; true
2A25  97038000           [85] loadbool   14  1   0    ; true
2A29  A2428002           [86] call       10  5   1  
2A2D  1E008000           [87] return     0   1      
                         * constants:
2A31  1E                 sizek (30)
2A32  01                 const type 3
2A33  7FB7BA07           const [0]: (129677183)
2A37  01                 const type 3
2A38  D953748F           const [1]: (-1888201767)
2A3C  01                 const type 3
2A3D  65770E40           const [2]: (1074689893)
2A41  01                 const type 3
2A42  DE2886FB           const [3]: (-75093794)
2A46  04                 const type 4
2A47  04                 string size (4)
2A48  74616700           "tag\0"
                         const [4]: "tag"
2A4C  04                 const type 4
2A4D  09                 string size (9)
2A4E  6475726174696F6E+  "duration"
2A56  00                 "\0"
                         const [5]: "duration"
2A57  03                 const type 3
2A58  00000000           const [6]: (0)
2A5C  04                 const type 4
2A5D  07                 string size (7)
2A5E  64616D61676500     "damage\0"
                         const [7]: "damage"
2A65  01                 const type 3
2A66  1FD0B58D           const [8]: (-1917464545)
2A6A  01                 const type 3
2A6B  1576AFD6           const [9]: (-693144043)
2A6F  04                 const type 4
2A70  05                 string size (5)
2A71  47616D6500         "Game\0"
                         const [10]: "Game"
2A76  04                 const type 4
2A77  15                 string size (21)
2A78  574541504F4E5F44+  "WEAPON_D"
2A80  414D4147455F414D+  "AMAGE_AM"
2A88  4F554E5400         "OUNT\0"
                         const [11]: "WEAPON_DAMAGE_AMOUNT"
2A8D  04                 const type 4
2A8E  12                 string size (18)
2A8F  535441434B494E47+  "STACKING"
2A97  5F4D554C5449504C+  "_MULTIPL"
2A9F  5900               "Y\0"
                         const [12]: "STACKING_MULTIPLY"
2AA1  04                 const type 4
2AA2  14                 string size (20)
2AA3  574541504F4E5F4D+  "WEAPON_M"
2AAB  454C45455F44414D+  "ELEE_DAM"
2AB3  41474500           "AGE\0"
                         const [13]: "WEAPON_MELEE_DAMAGE"
2AB7  04                 const type 4
2AB8  1F                 string size (31)
2AB9  574541504F4E5F4D+  "WEAPON_M"
2AC1  454C45455F534C41+  "ELEE_SLA"
2AC9  4D5F44414D414745+  "M_DAMAGE"
2AD1  5F424F4E555300     "_BONUS\0"
                         const [14]: "WEAPON_MELEE_SLAM_DAMAGE_BONUS"
2AD8  04                 const type 4
2AD9  0B                 string size (11)
2ADA  4C6F7475735F4761+  "Lotus_Ga"
2AE2  6D6500             "me\0"
                         const [15]: "Lotus_Game"
2AE5  01                 const type 3
2AE6  2243FDFA           const [16]: (-84065502)
2AEA  04                 const type 4
2AEB  0B                 string size (11)
2AEC  696E737469676174+  "instigat"
2AF4  6F7200             "or\0"
                         const [17]: "instigator"
2AF7  04                 const type 4
2AF8  09                 string size (9)
2AF9  6166666563746564+  "affected"
2B01  00                 "\0"
                         const [18]: "affected"
2B02  04                 const type 4
2B03  09                 string size (9)
2B04  6275666654797065+  "buffType"
2B0C  00                 "\0"
                         const [19]: "buffType"
2B0D  04                 const type 4
2B0E  11                 string size (17)
2B0F  42545F5045524345+  "BT_PERCE"
2B17  4E545F54494D4552+  "NT_TIMER"
2B1F  00                 "\0"
                         const [20]: "BT_PERCENT_TIMER"
2B20  04                 const type 4
2B21  09                 string size (9)
2B22  6275666644617461+  "buffData"
2B2A  00                 "\0"
                         const [21]: "buffData"
2B2B  04                 const type 4
2B2C  0E                 string size (14)
2B2D  6275666644617461+  "buffData"
2B35  457874726100       "Extra\0"
                         const [22]: "buffDataExtra"
2B3B  04                 const type 4
2B3C  05                 string size (5)
2B3D  6D61746800         "math\0"
                         const [23]: "math"
2B42  01                 const type 3
2B43  DF46F8BC           const [24]: (-1124579617)
2B47  03                 const type 3
2B48  0000C842           const [25]: (0)
2B4C  04                 const type 4
2B4D  0C                 string size (12)
2B4E  6162696C69747954+  "abilityT"
2B56  79706500           "ype\0"
                         const [26]: "abilityType"
2B5A  01                 const type 3
2B5B  29D4002C           const [27]: (738251817)
2B5F  04                 const type 4
2B60  40                 string size (64)
2B61  2F4C6F7475732F55+  "/Lotus/U"
2B69  706772616465732F+  "pgrades/"
2B71  466F6375732F5761+  "Focus/Wa"
2B79  72642F4163746976+  "rd/Activ"
2B81  652F426C61737444+  "e/BlastD"
2B89  616D616765506963+  "amagePic"
2B91  6B7570466F637573+  "kupFocus"
2B99  5570677261646500   "Upgrade\0"
                         const [28]: "/Lotus/Upgrades/Focus/Ward/Active/BlastDamagePickupFocusUpgrade"
2BA1  01                 const type 3
2BA2  D6134F58           const [29]: (1481577430)
                         * functions:
2BA6  00                 sizep (0)
                         * lines:
2BA7  57                 sizelineinfo (87)
                         [pc] (line)
2BA8  88                 [01] (-120)
2BA9  01                 [02] (-120)
2BAA  00                 [03] (-119)
2BAB  00                 [04] (-119)
2BAC  88                 [05] (-118)
2BAD  01                 [06] (-118)
2BAE  00                 [07] (-118)
2BAF  00                 [08] (-118)
2BB0  89                 [09] (-118)
2BB1  01                 [10] (-118)
2BB2  00                 [11] (-118)
2BB3  00                 [12] (-118)
2BB4  89                 [13] (-118)
2BB5  01                 [14] (-118)
2BB6  00                 [15] (-117)
2BB7  00                 [16] (-117)
2BB8  8A                 [17] (-117)
2BB9  01                 [18] (-117)
2BBA  00                 [19] (-117)
2BBB  00                 [20] (-117)
2BBC  8A                 [21] (-117)
2BBD  01                 [22] (-117)
2BBE  00                 [23] (-116)
2BBF  00                 [24] (-116)
2BC0  8A                 [25] (-115)
2BC1  01                 [26] (-115)
2BC2  00                 [27] (-115)
2BC3  00                 [28] (-114)
2BC4  8A                 [29] (-114)
2BC5  01                 [30] (-114)
2BC6  00                 [31] (-113)
2BC7  00                 [32] (-113)
2BC8  8A                 [33] (-113)
2BC9  01                 [34] (-113)
2BCA  00                 [35] (-113)
2BCB  00                 [36] (-113)
2BCC  8A                 [37] (-113)
2BCD  01                 [38] (-113)
2BCE  00                 [39] (-113)
2BCF  00                 [40] (-113)
2BD0  8A                 [41] (-112)
2BD1  01                 [42] (-112)
2BD2  00                 [43] (-112)
2BD3  00                 [44] (-112)
2BD4  8A                 [45] (-112)
2BD5  01                 [46] (-112)
2BD6  00                 [47] (-112)
2BD7  00                 [48] (-112)
2BD8  8A                 [49] (-112)
2BD9  01                 [50] (-112)
2BDA  00                 [51] (-111)
2BDB  00                 [52] (-111)
2BDC  8A                 [53] (-111)
2BDD  01                 [54] (-111)
2BDE  00                 [55] (-111)
2BDF  00                 [56] (-111)
2BE0  8B                 [57] (-111)
2BE1  01                 [58] (-111)
2BE2  00                 [59] (-111)
2BE3  00                 [60] (-111)
2BE4  8B                 [61] (-109)
2BE5  01                 [62] (-109)
2BE6  00                 [63] (-109)
2BE7  00                 [64] (-108)
2BE8  8B                 [65] (-107)
2BE9  01                 [66] (-107)
2BEA  00                 [67] (-107)
2BEB  00                 [68] (-107)
2BEC  8B                 [69] (-106)
2BED  01                 [70] (-106)
2BEE  00                 [71] (-106)
2BEF  00                 [72] (-105)
2BF0  8B                 [73] (-104)
2BF1  01                 [74] (-104)
2BF2  00                 [75] (-104)
2BF3  00                 [76] (-104)
2BF4  8B                 [77] (-104)
2BF5  01                 [78] (-103)
2BF6  00                 [79] (-103)
2BF7  00                 [80] (-103)
2BF8  8B                 [81] (-103)
2BF9  01                 [82] (-102)
2BFA  00                 [83] (-102)
2BFB  00                 [84] (-102)
2BFC  8B                 [85] (-102)
2BFD  01                 [86] (-102)
2BFE  00                 [87] (-99)
                         * locals:
2D04  00                 sizelocvars (0)
                         * upvalues:
2D05  00                 sizeupvalues (0)
                         ** end of function **

                         
2D06                     ** function [11] definition (level 2)
                         ** start of function **
2D06  00                 string size (0)
                         source name: (none)
2D08  03                 line defined (415)
2D09  C8                 last line defined (456)
2D0A  03                 nups (1)
2D0B  01                 numparams (1)
2D0C  01                 is_vararg (0)
2D0D  00                 maxstacksize (19)
                         * code:
2D10  01                 sizecode (143)
2D11  53000000           [001] getupval   1   0      
2D15  4E00C000           [002] gettable   1   1   256  ; "stunDuration"
2D19  A4404000           [003] self       2   0   257  ; -1625438872
2D1D  1D810000           [004] getglobal  4   2        ; blastRobotStunnedEffect
2D21  A2808001           [005] call       2   3   2  
2D25  C6008001           [006] loadnil    3   3      
2D29  1DC10000           [007] getglobal  4   3        ; 1074689893
2D2D  52010001           [008] move       5   2      
2D31  22810001           [009] call       4   2   2  
2D35  18010000           [010] test       4       0    ; to [12] if true
2D39  1A800280           [011] jmp        11           ; to [23]
2D3D  24014100           [012] self       4   0   260  ; -242235676
2D41  22810001           [013] call       4   2   2  
2D45  5DC10000           [014] getglobal  5   3        ; 1074689893
2D49  92010002           [015] move       6   4      
2D4D  62810001           [016] call       5   2   2  
2D51  58410000           [017] test       5       1    ; to [19] if false
2D55  1AC00080           [018] jmp        4            ; to [23]
2D59  64414002           [019] self       5   4   257  ; -1625438872
2D5D  DD810000           [020] getglobal  7   2        ; blastRobotStunnedEffect
2D61  62818001           [021] call       5   3   2  
2D65  92008002           [022] move       2   5      
2D69  5DC10000           [023] getglobal  5   3        ; 1074689893
2D6D  92010001           [024] move       6   2      
2D71  62810001           [025] call       5   2   2  
2D75  58410000           [026] test       5       1    ; to [28] if false
2D79  1A800080           [027] jmp        3            ; to [31]
2D7D  64414101           [028] self       5   2   261  ; 129677183
2D81  62810001           [029] call       5   2   2  
2D85  D2008002           [030] move       3   5      
fail op	21
2D89  15400083           [031] concat     0   262 1  
2D8D  1AC00380           [032] jmp        16           ; to [49]
2D91  5DC10000           [033] getglobal  5   3        ; 1074689893
2D95  92010000           [034] move       6   0      
2D99  62810001           [035] call       5   2   2  
2D9D  58410000           [036] test       5       1    ; to [38] if false
2DA1  1A800280           [037] jmp        11           ; to [49]
2DA5  64C14100           [038] self       5   0   263  ; 1511086594
2DA9  62810001           [039] call       5   2   2  
2DAD  58410000           [040] test       5       1    ; to [42] if false
2DB1  1A800180           [041] jmp        7            ; to [49]
2DB5  5D010200           [042] getglobal  5   8        ; 1289681407
2DB9  62818000           [043] call       5   1   2  
2DBD  4D408100           [044] sub        1   1   5  
2DC1  5D410200           [045] getglobal  5   9        ; 538022378
2DC5  99810100           [046] loadk      6   6        ; 0
2DC9  62410001           [047] call       5   2   1  
2DCD  1A40FB7F           [048] jmp        -18          ; to [31]
2DD1  5DC10000           [049] getglobal  5   3        ; 1074689893
2DD5  92010001           [050] move       6   2      
2DD9  62810001           [051] call       5   2   2  
2DDD  58410000           [052] test       5       1    ; to [54] if false
2DE1  1A400080           [053] jmp        2            ; to [56]
2DE5  64814201           [054] self       5   2   266  ; -725453761
2DE9  62410001           [055] call       5   2   1  
2DED  5DC10200           [056] getglobal  5   11       ; gRegion
2DF1  6401C302           [057] self       5   5   268  ; -1110225722
2DF5  DD410300           [058] getglobal  7   13       ; blastRobotStunExplosion
2DF9  24824300           [059] self       8   0   270  ; -427739093
2DFD  22820001           [060] call       8   2   2  
2E01  5DC20300           [061] getglobal  9   15       ; ZERO_ROTATION
2E05  92028001           [062] move       10  3      
2E09  62410003           [063] call       5   6   1  
2E0D  64014400           [064] self       5   0   272  ; -605089866
2E11  62810001           [065] call       5   2   2  
2E15  9D410400           [066] getglobal  6   17       ; _T
2E19  8E814403           [067] gettable   6   6   274  ; "robotStun"
2E1D  8E410103           [068] gettable   6   6   5  
2E21  D3010000           [069] getupval   7   0      
2E25  CEC1C403           [070] gettable   7   7   275  ; "maxHealthAsDamage"
2E29  1D020500           [071] getglobal  8   20       ; math
2E2D  0E424504           [072] gettable   8   8   277  ; 1710846250
2E31  53020000           [073] getupval   9   0      
2E35  4EC2C404           [074] gettable   9   9   275  ; "maxHealthAsDamage"
2E39  4A028004           [075] len        9   9      
2E3D  92020003           [076] move       10  6      
2E41  22828001           [077] call       8   3   2  
2E45  CE018203           [078] gettable   7   7   8  
2E49  13020000           [079] getupval   8   0      
2E4D  0E824504           [080] gettable   8   8   278  ; "damageRange"
2E51  5D020500           [081] getglobal  9   20       ; math
2E55  4E42C504           [082] gettable   9   9   277  ; 1710846250
2E59  93020000           [083] getupval   10  0      
2E5D  8E824505           [084] gettable   10  10  278  ; "damageRange"
2E61  8A020005           [085] len        10  10     
2E65  D2020003           [086] move       11  6      
2E69  62828001           [087] call       9   3   2  
2E6D  0E420204           [088] gettable   8   8   9  
2E71  5DC20500           [089] getglobal  9   23       ; Engine
2E75  4E02C604           [090] gettable   9   9   280  ; -98643418
2E79  62828000           [091] call       9   1   2  
2E7D  A4824600           [092] self       10  0   282  ; 945541886
2E81  A2820001           [093] call       10  2   2  
2E85  84C20105           [094] mul        10  10  7  
2E89  4C82828C           [095] settable   9   281 10   ; "baseAmount"
2E8D  A4C2C604           [096] self       10  9   283  ; -995861768
2E91  1DC30500           [097] getglobal  12  23       ; Engine
2E95  0E034706           [098] gettable   12  12  284  ; "DT_ELECTRICITY"
2E99  59430700           [099] loadk      13  29       ; 0
2E9D  A2420002           [100] call       10  4   1  
2EA1  9D820700           [101] getglobal  10  30       ; -332969190
2EA5  D9C20700           [102] loadk      11  31       ; "TENNO"
2EA9  A2820001           [103] call       10  2   2  
2EAD  DDC20200           [104] getglobal  11  11       ; gRegion
2EB1  E402C805           [105] self       11  11  288  ; 152279552
2EB5  5D430800           [106] getglobal  13  33       ; gLotusNpcAvatarType
2EB9  A4834800           [107] self       14  0   290  ; 196800914
2EBD  A2830001           [108] call       14  2   2  
2EC1  D9830100           [109] loadk      15  6        ; 0
2EC5  12040004           [110] move       16  8      
2EC9  E2820003           [111] call       11  6   2  
2ECD  19430700           [112] loadk      12  29       ; 0
2ED1  4A038005           [113] len        13  11     
2ED5  99430700           [114] loadk      14  29       ; 0
2ED9  10830580           [115] forprep    12  23       ; to [139]
2EDD  1DC40000           [116] getglobal  16  3        ; 1074689893
2EE1  4EC48305           [117] gettable   17  11  15 
2EE5  22840001           [118] call       16  2   2  
2EE9  18440000           [119] test       16      1    ; to [121] if false
2EED  1A400480           [120] jmp        18           ; to [139]
2EF1  0EC48305           [121] gettable   16  11  15 
2EF5  24C44108           [122] self       16  16  263  ; 1511086594
2EF9  22840001           [123] call       16  2   2  
2EFD  18440000           [124] test       16      1    ; to [126] if false
2F01  1A000380           [125] jmp        13           ; to [139]
2F05  0EC48305           [126] gettable   16  11  15 
2F09  24C44808           [127] self       16  16  291  ; -1378742765
2F0D  92040005           [128] move       18  10     
2F11  22848001           [129] call       16  3   2  
2F15  18440000           [130] test       16      1    ; to [132] if false
2F19  1A800180           [131] jmp        7            ; to [139]
2F1D  0EC48305           [132] gettable   16  11  15 
fail op	35
2F21  63000008           [133] close      1  
2F25  1AC00080           [134] jmp        4            ; to [139]
2F29  0EC48305           [135] gettable   16  11  15 
2F2D  24044908           [136] self       16  16  292  ; 1193457265
2F31  92048004           [137] move       18  9      
2F35  22448001           [138] call       16  3   1  
2F39  14C3F97F           [139] forloop    12  -24      ; to [116] if loop
2F3D  1D440400           [140] getglobal  16  17       ; _T
2F41  0E844408           [141] gettable   16  16  274  ; "robotStun"
2F45  0C44C902           [142] settable   16  5   293  ; nil
2F49  1E008000           [143] return     0   1      
                         * constants:
2F4D  26                 sizek (38)
2F4E  04                 const type 4
2F4F  0D                 string size (13)
2F50  7374756E44757261+  "stunDura"
2F58  74696F6E00         "tion\0"
                         const [0]: "stunDuration"
2F5D  01                 const type 3
2F5E  68C51D9F           const [1]: (-1625438872)
2F62  04                 const type 4
2F63  18                 string size (24)
2F64  626C617374526F62+  "blastRob"
2F6C  6F745374756E6E65+  "otStunne"
2F74  6445666665637400   "dEffect\0"
                         const [2]: "blastRobotStunnedEffect"
2F7C  01                 const type 3
2F7D  65770E40           const [3]: (1074689893)
2F81  01                 const type 3
2F82  E4C68FF1           const [4]: (-242235676)
2F86  01                 const type 3
2F87  7FB7BA07           const [5]: (129677183)
2F8B  03                 const type 3
2F8C  00000000           const [6]: (0)
2F90  01                 const type 3
2F91  025A115A           const [7]: (1511086594)
2F95  01                 const type 3
2F96  FFF9DE4C           const [8]: (1289681407)
2F9A  01                 const type 3
2F9B  EA911120           const [9]: (538022378)
2F9F  01                 const type 3
2FA0  3F74C2D4           const [10]: (-725453761)
2FA4  04                 const type 4
2FA5  08                 string size (8)
2FA6  67526567696F6E00   "gRegion\0"
                         const [11]: "gRegion"
2FAE  01                 const type 3
2FAF  C64CD3BD           const [12]: (-1110225722)
2FB3  04                 const type 4
2FB4  18                 string size (24)
2FB5  626C617374526F62+  "blastRob"
2FBD  6F745374756E4578+  "otStunEx"
2FC5  706C6F73696F6E00   "plosion\0"
                         const [13]: "blastRobotStunExplosion"
2FCD  01                 const type 3
2FCE  2B3881E6           const [14]: (-427739093)
2FD2  04                 const type 4
2FD3  0E                 string size (14)
2FD4  5A45524F5F524F54+  "ZERO_ROT"
2FDC  4154494F4E00       "ATION\0"
                         const [15]: "ZERO_ROTATION"
2FE2  01                 const type 3
2FE3  B60FEFDB           const [16]: (-605089866)
2FE7  04                 const type 4
2FE8  03                 string size (3)
2FE9  5F5400             "_T\0"
                         const [17]: "_T"
2FEC  04                 const type 4
2FED  0A                 string size (10)
2FEE  726F626F74537475+  "robotStu"
2FF6  6E00               "n\0"
                         const [18]: "robotStun"
2FF8  04                 const type 4
2FF9  12                 string size (18)
2FFA  6D61784865616C74+  "maxHealt"
3002  68417344616D6167+  "hAsDamag"
300A  6500               "e\0"
                         const [19]: "maxHealthAsDamage"
300C  04                 const type 4
300D  05                 string size (5)
300E  6D61746800         "math\0"
                         const [20]: "math"
3013  01                 const type 3
3014  2A71F965           const [21]: (1710846250)
3018  04                 const type 4
3019  0C                 string size (12)
301A  64616D6167655261+  "damageRa"
3022  6E676500           "nge\0"
                         const [22]: "damageRange"
3026  04                 const type 4
3027  07                 string size (7)
3028  456E67696E6500     "Engine\0"
                         const [23]: "Engine"
302F  01                 const type 3
3030  26D21EFA           const [24]: (-98643418)
3034  04                 const type 4
3035  0B                 string size (11)
3036  62617365416D6F75+  "baseAmou"
303E  6E7400             "nt\0"
                         const [25]: "baseAmount"
3041  01                 const type 3
3042  FED25B38           const [26]: (945541886)
3046  01                 const type 3
3047  F85AA4C4           const [27]: (-995861768)
304B  04                 const type 4
304C  0F                 string size (15)
304D  44545F454C454354+  "DT_ELECT"
3055  52494349545900     "RICITY\0"
                         const [28]: "DT_ELECTRICITY"
305C  03                 const type 3
305D  0000803F           const [29]: (0)
3061  01                 const type 3
3062  1A4B27EC           const [30]: (-332969190)
3066  04                 const type 4
3067  06                 string size (6)
3068  54454E4E4F00       "TENNO\0"
                         const [31]: "TENNO"
306E  01                 const type 3
306F  009A1309           const [32]: (152279552)
3073  04                 const type 4
3074  14                 string size (20)
3075  674C6F7475734E70+  "gLotusNp"
307D  6341766174617254+  "cAvatarT"
3085  79706500           "ype\0"
                         const [33]: "gLotusNpcAvatarType"
3089  01                 const type 3
308A  92F1BA0B           const [34]: (196800914)
308E  01                 const type 3
308F  130ED2AD           const [35]: (-1378742765)
3093  01                 const type 3
3094  71B62247           const [36]: (1193457265)
3098  00                 const type 0
                         const [37]: nil
                         * functions:
3099  00                 sizep (0)
                         * lines:
309B  01                 sizelineinfo (143)
                         [pc] (line)
309C  A0                 [001] (-96)
309D  01                 [002] (-96)
309E  00                 [003] (-95)
309F  00                 [004] (-95)
30A0  A0                 [005] (-95)
30A1  01                 [006] (-94)
30A2  00                 [007] (-93)
30A3  00                 [008] (-93)
30A4  A1                 [009] (-93)
30A5  01                 [010] (-93)
30A6  00                 [011] (-93)
30A7  00                 [012] (-92)
30A8  A1                 [013] (-92)
30A9  01                 [014] (-91)
30AA  00                 [015] (-91)
30AB  00                 [016] (-91)
30AC  A1                 [017] (-91)
30AD  01                 [018] (-91)
30AE  00                 [019] (-90)
30AF  00                 [020] (-90)
30B0  A2                 [021] (-90)
30B1  01                 [022] (-90)
30B2  00                 [023] (-87)
30B3  00                 [024] (-87)
30B4  A3                 [025] (-87)
30B5  01                 [026] (-87)
30B6  00                 [027] (-87)
30B7  00                 [028] (-86)
30B8  A3                 [029] (-86)
30B9  01                 [030] (-86)
30BA  00                 [031] (-84)
30BB  00                 [032] (-84)
30BC  A3                 [033] (-84)
30BD  01                 [034] (-84)
30BE  00                 [035] (-84)
30BF  00                 [036] (-84)
30C0  A3                 [037] (-84)
30C1  01                 [038] (-84)
30C2  00                 [039] (-84)
30C3  00                 [040] (-84)
30C4  A3                 [041] (-84)
30C5  01                 [042] (-83)
30C6  00                 [043] (-83)
30C7  00                 [044] (-83)
30C8  A4                 [045] (-82)
30C9  01                 [046] (-82)
30CA  00                 [047] (-82)
30CB  00                 [048] (-82)
30CC  A4                 [049] (-79)
30CD  01                 [050] (-79)
30CE  00                 [051] (-79)
30CF  00                 [052] (-79)
30D0  A5                 [053] (-79)
30D1  01                 [054] (-78)
30D2  00                 [055] (-78)
30D3  00                 [056] (-76)
30D4  A5                 [057] (-76)
30D5  01                 [058] (-76)
30D6  00                 [059] (-76)
30D7  00                 [060] (-76)
30D8  A5                 [061] (-76)
30D9  01                 [062] (-76)
30DA  00                 [063] (-76)
30DB  00                 [064] (-74)
30DC  A5                 [065] (-74)
30DD  01                 [066] (-73)
30DE  00                 [067] (-73)
30DF  00                 [068] (-73)
30E0  A5                 [069] (-72)
30E1  01                 [070] (-72)
30E2  00                 [071] (-72)
30E3  00                 [072] (-72)
30E4  A6                 [073] (-72)
30E5  01                 [074] (-72)
30E6  00                 [075] (-72)
30E7  00                 [076] (-72)
30E8  A6                 [077] (-72)
30E9  01                 [078] (-72)
30EA  00                 [079] (-71)
30EB  00                 [080] (-71)
30EC  A6                 [081] (-71)
30ED  01                 [082] (-71)
30EE  00                 [083] (-71)
30EF  00                 [084] (-71)
30F0  A6                 [085] (-71)
30F1  01                 [086] (-71)
30F2  00                 [087] (-71)
30F3  00                 [088] (-71)
30F4  A9                 [089] (-69)
30F5  01                 [090] (-69)
30F6  00                 [091] (-69)
30F7  00                 [092] (-68)
30F8  A9                 [093] (-68)
30F9  01                 [094] (-68)
30FA  00                 [095] (-68)
30FB  00                 [096] (-67)
30FC  A9                 [097] (-67)
30FD  01                 [098] (-67)
30FE  00                 [099] (-67)
30FF  00                 [100] (-67)
3100  A9                 [101] (-65)
3101  01                 [102] (-65)
3102  00                 [103] (-65)
3103  00                 [104] (-64)
3104  A9                 [105] (-64)
3105  01                 [106] (-64)
3106  00                 [107] (-64)
3107  00                 [108] (-64)
3108  AA                 [109] (-64)
3109  01                 [110] (-64)
310A  00                 [111] (-64)
310B  00                 [112] (-63)
310C  AA                 [113] (-63)
310D  01                 [114] (-63)
310E  00                 [115] (-63)
310F  00                 [116] (-62)
3110  AA                 [117] (-62)
3111  01                 [118] (-62)
3112  00                 [119] (-62)
3113  00                 [120] (-62)
3114  AC                 [121] (-62)
3115  01                 [122] (-62)
3116  00                 [123] (-62)
3117  00                 [124] (-62)
3118  AC                 [125] (-62)
3119  01                 [126] (-62)
311A  00                 [127] (-62)
311B  00                 [128] (-62)
311C  AC                 [129] (-62)
311D  01                 [130] (-62)
311E  00                 [131] (-62)
311F  00                 [132] (-62)
3120  AC                 [133] (-62)
3121  01                 [134] (-62)
3122  00                 [135] (-61)
3123  00                 [136] (-61)
3124  AC                 [137] (-61)
3125  01                 [138] (-61)
3126  00                 [139] (-63)
3127  00                 [140] (-57)
3128  AC                 [141] (-57)
3129  01                 [142] (-57)
312A  00                 [143] (-56)
                         * locals:
32D8  00                 sizelocvars (0)
                         * upvalues:
32D9  00                 sizeupvalues (0)
                         ** end of function **

                         
32DA                     ** function [12] definition (level 2)
                         ** start of function **
32DA  00                 string size (0)
                         source name: (none)
32DC  03                 line defined (458)
32DD  F7                 last line defined (631)
32DE  04                 nups (11)
32DF  0B                 numparams (10)
32E0  0A                 is_vararg (0)
32E1  00                 maxstacksize (53)
                         * code:
32E4  04                 sizecode (514)
32E5  9D020000           [001] getglobal  10  0        ; Engine
32E9  8E424005           [002] gettable   10  10  257  ; "DHT_MELEE"
fail op	35
32ED  63800204           [003] close      1  
32F1  1A000080           [004] jmp        1            ; to [6]
32F5  1E008000           [005] return     0   1      
32F9  86028005           [006] loadnil    10  11     
32FD  1D830000           [007] getglobal  12  2        ; gRegion
3301  24C34006           [008] self       12  12  259  ; -1520831144
3305  22830001           [009] call       12  2   2  
3309  18030000           [010] test       12      0    ; to [12] if true
330D  1AC00E80           [011] jmp        60           ; to [72]
3311  24034100           [012] self       12  0   260  ; -1538682285
3315  22830001           [013] call       12  2   2  
3319  92020006           [014] move       10  12     
331D  13030000           [015] getupval   12  0      
3321  0E434106           [016] gettable   12  12  261  ; 518391456
3325  52030005           [017] move       13  10     
3329  22830001           [018] call       12  2   2  
332D  D2020006           [019] move       11  12     
3331  1D830100           [020] getglobal  12  6        ; Lotus_Game
3335  0EC34106           [021] gettable   12  12  263  ; "AP_WARD"
fail op	35
3339  23008305           [022] close      0  
333D  1AC00B80           [023] jmp        48           ; to [72]
fail op	21
3341  15000184           [024] concat     0   264 4  
3345  1A400B80           [025] jmp        46           ; to [72]
3349  13030000           [026] getupval   12  0      
334D  0E434206           [027] gettable   12  12  265  ; -75093794
3351  52030005           [028] move       13  10     
3355  93038000           [029] getupval   14  1      
3359  8E834207           [030] gettable   14  14  266  ; "tag"
335D  D3038000           [031] getupval   15  1      
3361  CEC3C207           [032] gettable   15  15  267  ; "duration"
3365  22830002           [033] call       12  4   2  
fail op	21
3369  15000384           [034] concat     0   264 12 
336D  1AC00880           [035] jmp        36           ; to [72]
3371  53038000           [036] getupval   13  1      
3375  4E03C306           [037] gettable   13  13  268  ; "chance"
3379  4E038306           [038] gettable   13  13  12 
337D  9D430300           [039] getglobal  14  13       ; -1941280958
3381  D9030200           [040] loadk      15  8        ; 0
3385  19840300           [041] loadk      16  14       ; 0
3389  A2838001           [042] call       14  3   2  
fail op	21
338D  15400307           [043] concat     0   14  13 
3391  1A800680           [044] jmp        27           ; to [72]
3395  9DC30300           [045] getglobal  14  15       ; ZERO_VECTOR
3399  DD030400           [046] getglobal  15  16       ; 1074689893
339D  12048001           [047] move       16  3      
33A1  E2830001           [048] call       15  2   2  
33A5  D8030000           [049] test       15      0    ; to [51] if true
33A9  1AC00080           [050] jmp        4            ; to [55]
33AD  E4434405           [051] self       15  10  273  ; 1839670529
33B1  E2830001           [052] call       15  2   2  
33B5  92038007           [053] move       14  15     
33B9  1A800080           [054] jmp        3            ; to [58]
33BD  E443C401           [055] self       15  3   273  ; 1839670529
33C1  E2830001           [056] call       15  2   2  
33C5  92038007           [057] move       14  15     
33C9  E4834405           [058] self       15  10  274  ; -365711519
33CD  E2830001           [059] call       15  2   2  
33D1  C4C3C407           [060] mul        15  15  275  ; 0
33D5  C3C30307           [061] add        15  14  15 
33D9  0E04C507           [062] gettable   16  15  276  ; "y"
33DD  03444508           [063] add        16  16  277  ; -51
33E1  CC03048A           [064] settable   15  276 16   ; "y"
33E5  1D840000           [065] getglobal  16  2        ; gRegion
33E9  24844508           [066] self       16  16  278  ; -1110225722
33ED  9DC40500           [067] getglobal  18  23       ; damagePickupType
33F1  D2048007           [068] move       19  15     
33F5  1D050600           [069] getglobal  20  24       ; ZERO_ROTATION
33F9  52050005           [070] move       21  10     
33FD  22440003           [071] call       16  6   1  
3401  1D040400           [072] getglobal  16  16       ; 1074689893
3405  52048001           [073] move       17  3      
3409  22840001           [074] call       16  2   2  
340D  18440000           [075] test       16      1    ; to [77] if false
3411  1A400280           [076] jmp        10           ; to [87]
3415  2444C601           [077] self       16  3   281  ; 1511086594
3419  22840001           [078] call       16  2   2  
341D  18440000           [079] test       16      1    ; to [81] if false
3421  1A400180           [080] jmp        6            ; to [87]
3425  2484C601           [081] self       16  3   282  ; 1230984527
3429  9D840100           [082] getglobal  18  6        ; Lotus_Game
342D  8EC44609           [083] gettable   18  18  283  ; "AR_IMMUNE_ALL"
3431  22848001           [084] call       16  3   2  
3435  18040000           [085] test       16      0    ; to [87] if true
3439  1A000080           [086] jmp        1            ; to [88]
343D  1E008000           [087] return     0   1      
3441  1D040400           [088] getglobal  16  16       ; 1074689893
3445  52040005           [089] move       17  10     
3449  22840001           [090] call       16  2   2  
344D  18040000           [091] test       16      0    ; to [93] if true
3451  1AC00180           [092] jmp        8            ; to [101]
3455  24044100           [093] self       16  0   260  ; -1538682285
3459  22840001           [094] call       16  2   2  
345D  92020008           [095] move       10  16     
3461  13040000           [096] getupval   16  0      
3465  0E444108           [097] gettable   16  16  261  ; 518391456
3469  52040005           [098] move       17  10     
346D  22840001           [099] call       16  2   2  
3471  D2020008           [100] move       11  16     
3475  1D840100           [101] getglobal  16  6        ; Lotus_Game
3479  0E044708           [102] gettable   16  16  284  ; "AP_POWER"
fail op	35
347D  23008405           [103] close      0  
3481  1AC00780           [104] jmp        32           ; to [137]
3485  1D840000           [105] getglobal  16  2        ; gRegion
3489  24C44008           [106] self       16  16  259  ; -1520831144
348D  22840001           [107] call       16  2   2  
3491  18040000           [108] test       16      0    ; to [110] if true
3495  1A802F80           [109] jmp        191          ; to [301]
3499  13040000           [110] getupval   16  0      
349D  0E444208           [111] gettable   16  16  265  ; -75093794
34A1  52040005           [112] move       17  10     
34A5  93040001           [113] getupval   18  2      
34A9  8E844209           [114] gettable   18  18  266  ; "tag"
34AD  D3040001           [115] getupval   19  2      
34B1  CE44C709           [116] gettable   19  19  285  ; "slow"
34B5  22840002           [117] call       16  4   2  
fail op	21
34B9  15000484           [118] concat     0   264 16 
34BD  1A002D80           [119] jmp        181          ; to [301]
34C1  53048001           [120] getupval   17  3      
34C5  93040001           [121] getupval   18  2      
34C9  8E444709           [122] gettable   18  18  285  ; "slow"
34CD  8E040409           [123] gettable   18  18  16 
34D1  4C84848E           [124] settable   17  285 18   ; "slow"
34D5  53048001           [125] getupval   17  3      
34D9  93040001           [126] getupval   18  2      
34DD  8EC44209           [127] gettable   18  18  267  ; "duration"
34E1  8E040409           [128] gettable   18  18  16 
34E5  4C848485           [129] settable   17  267 18   ; "duration"
34E9  6484C701           [130] self       17  3   286  ; -1302048094
34ED  DDC40700           [131] getglobal  19  31       ; -332969190
34F1  19050800           [132] loadk      20  32       ; "SlowTarget"
34F5  E2840001           [133] call       19  2   2  
34F9  17050000           [134] loadbool   20  0   0    ; false
34FD  62440002           [135] call       17  4   1  
3501  1AC02880           [136] jmp        164          ; to [301]
3505  5D840100           [137] getglobal  17  6        ; Lotus_Game
3509  4E44C808           [138] gettable   17  17  289  ; "AP_TACTIC"
fail op	35
350D  23408405           [139] close      0  
3511  1A401C80           [140] jmp        114          ; to [255]
3515  5D840000           [141] getglobal  17  2        ; gRegion
3519  64C4C008           [142] self       17  17  259  ; -1520831144
351D  62840001           [143] call       17  2   2  
3521  58040000           [144] test       17      0    ; to [146] if true
3525  1A802680           [145] jmp        155          ; to [301]
3529  53040000           [146] getupval   17  0      
352D  4E44C208           [147] gettable   17  17  265  ; -75093794
3531  92040005           [148] move       18  10     
3535  D3040002           [149] getupval   19  4      
3539  CE84C209           [150] gettable   19  19  266  ; "tag"
353D  13050002           [151] getupval   20  4      
3541  0E05430A           [152] gettable   20  20  268  ; "chance"
3545  62840002           [153] call       17  4   2  
fail op	21
3549  15400484           [154] concat     0   264 17 
354D  1A800480           [155] jmp        19           ; to [175]
3551  93040002           [156] getupval   18  4      
3555  8E044309           [157] gettable   18  18  268  ; "chance"
3559  8E440409           [158] gettable   18  18  17 
355D  DD440300           [159] getglobal  19  13       ; -1941280958
3561  19050200           [160] loadk      20  8        ; 0
3565  59850300           [161] loadk      21  14       ; 0
3569  E2848001           [162] call       19  3   2  
fail op	21
356D  15808409           [163] concat     0   19  18 
3571  1A400280           [164] jmp        10           ; to [175]
3575  D3040002           [165] getupval   19  4      
3579  CEC4C209           [166] gettable   19  19  267  ; "duration"
357D  CE448409           [167] gettable   19  19  17 
fail op	8
3581  C8048002           [168] setupval   19  5      
3585  E484C701           [169] self       19  3   286  ; -1302048094
3589  5DC50700           [170] getglobal  21  31       ; -332969190
358D  99850800           [171] loadk      22  34       ; "ConfuseTarget"
3591  62850001           [172] call       21  2   2  
3595  97050000           [173] loadbool   22  0   0    ; false
3599  E2440002           [174] call       19  4   1  
359D  E4C4C801           [175] self       19  3   291  ; -1238811972
35A1  E2840001           [176] call       19  2   2  
35A5  D8440000           [177] test       19      1    ; to [179] if false
35A9  1A401E80           [178] jmp        122          ; to [301]
35AD  E484C601           [179] self       19  3   282  ; 1230984527
35B1  5D850100           [180] getglobal  21  6        ; Lotus_Game
35B5  4E05C90A           [181] gettable   21  21  292  ; "AR_RESIST_ALL"
35B9  E2848001           [182] call       19  3   2  
35BD  D8440000           [183] test       19      1    ; to [185] if false
35C1  1AC01C80           [184] jmp        116          ; to [301]
35C5  DD040400           [185] getglobal  19  16       ; 1074689893
35C9  2445C901           [186] self       20  3   293  ; -1411785325
35CD  22050001           [187] call       20  2   0  
35D1  E2840000           [188] call       19  0   2  
35D5  D8440000           [189] test       19      1    ; to [191] if false
35D9  1A401B80           [190] jmp        110          ; to [301]
35DD  D3040000           [191] getupval   19  0      
35E1  CE44C209           [192] gettable   19  19  265  ; -75093794
35E5  12050005           [193] move       20  10     
35E9  53050003           [194] getupval   21  6      
35ED  4E85C20A           [195] gettable   21  21  266  ; "tag"
35F1  93050003           [196] getupval   22  6      
35F5  8E05430B           [197] gettable   22  22  268  ; "chance"
35F9  E2840002           [198] call       19  4   2  
fail op	21
35FD  15C00484           [199] concat     0   264 19 
3601  1AC01880           [200] jmp        100          ; to [301]
3605  13050003           [201] getupval   20  6      
3609  0E05430A           [202] gettable   20  20  268  ; "chance"
360D  0EC5040A           [203] gettable   20  20  19 
3611  5D450300           [204] getglobal  21  13       ; -1941280958
3615  99050200           [205] loadk      22  8        ; 0
3619  D9850300           [206] loadk      23  14       ; 0
361D  62858001           [207] call       21  3   2  
fail op	21
3621  1500850A           [208] concat     0   21  20 
3625  1A801680           [209] jmp        91           ; to [301]
3629  6485C901           [210] self       21  3   294  ; -1917464545
362D  62850001           [211] call       21  2   2  
3631  64C5C90A           [212] self       21  21  295  ; -1011769797
3635  62450001           [213] call       21  2   1  
3639  6445C901           [214] self       21  3   293  ; -1411785325
363D  62850001           [215] call       21  2   2  
3641  A405CA0A           [216] self       22  21  296  ; -899636345
3645  A2850001           [217] call       22  2   2  
3649  E445CA01           [218] self       23  3   297  ; 1743777602
364D  E2850001           [219] call       23  2   2  
3651  2486CA01           [220] self       24  3   298  ; -1265336035
3655  9DC60A00           [221] getglobal  26  43       ; disarmAgentType
3659  E406CB0A           [222] self       27  21  300  ; 1653689631
365D  E2860001           [223] call       27  2   2  
3661  2447CB01           [224] self       28  3   301  ; -1081228973
3665  22870001           [225] call       28  2   2  
3669  57070000           [226] loadbool   29  0   0    ; false
366D  22460003           [227] call       24  6   1  
3671  2446C901           [228] self       24  3   293  ; -1411785325
3675  22860001           [229] call       24  2   2  
3679  5D060400           [230] getglobal  25  16       ; 1074689893
367D  9206000C           [231] move       26  24     
3681  62860001           [232] call       25  2   2  
3685  58460000           [233] test       25      1    ; to [235] if false
3689  1A400180           [234] jmp        6            ; to [241]
368D  64864B0C           [235] self       25  24  302  ; -245162816
3691  D206000B           [236] move       27  22     
3695  62468001           [237] call       25  3   1  
3699  64C6CB01           [238] self       25  3   303  ; 2080276352
369D  D206800B           [239] move       27  23     
36A1  62468001           [240] call       25  3   1  
36A5  6406CC01           [241] self       25  3   304  ; 1570147337
36A9  62860001           [242] call       25  2   2  
fail op	35
36AD  6340CC0C           [243] close      1  
36B1  1A000180           [244] jmp        5            ; to [250]
36B5  A486CC01           [245] self       26  3   306  ; 1479835399
36B9  1207800C           [246] move       28  25     
36BD  57078000           [247] loadbool   29  1   0    ; true
36C1  A2460002           [248] call       26  4   1  
36C5  1A800C80           [249] jmp        51           ; to [301]
36C9  A486CC01           [250] self       26  3   306  ; 1479835399
36CD  1DC70C00           [251] getglobal  28  51       ; disarmMeleeWeapon
36D1  57078000           [252] loadbool   29  1   0    ; true
36D5  A2460002           [253] call       26  4   1  
36D9  1A400B80           [254] jmp        46           ; to [301]
36DD  9D860100           [255] getglobal  26  6        ; Lotus_Game
36E1  8EC6410D           [256] gettable   26  26  263  ; "AP_WARD"
fail op	35
36E5  23808605           [257] close      0  
36E9  1A400A80           [258] jmp        42           ; to [301]
36ED  93060000           [259] getupval   26  0      
36F1  8E46420D           [260] gettable   26  26  265  ; -75093794
36F5  D2060005           [261] move       27  10     
36F9  13078003           [262] getupval   28  7      
36FD  0E87420E           [263] gettable   28  28  266  ; "tag"
3701  53078003           [264] getupval   29  7      
3705  4EC7C20E           [265] gettable   29  29  267  ; "duration"
3709  A2860002           [266] call       26  4   2  
fail op	21
370D  15800684           [267] concat     0   264 26 
3711  1AC00780           [268] jmp        32           ; to [301]
3715  D2068001           [269] move       27  3      
3719  1D070400           [270] getglobal  28  16       ; 1074689893
371D  6407CD01           [271] self       29  3   308  ; -242235676
3721  62070001           [272] call       29  2   0  
3725  22870000           [273] call       28  0   2  
3729  18470000           [274] test       28      1    ; to [276] if false
372D  1A800080           [275] jmp        3            ; to [279]
3731  2407CD01           [276] self       28  3   308  ; -242235676
3735  22870001           [277] call       28  2   2  
3739  D206000E           [278] move       27  28     
373D  2447CD0D           [279] self       28  27  309  ; -1421644046
3741  9D870D00           [280] getglobal  30  54       ; bulletAttractorType
3745  DDC70700           [281] getglobal  31  31       ; -332969190
3749  19C80D00           [282] loadk      32  55       ; "GAME_C1_HIP1"
374D  E2870001           [283] call       31  2   2  
3751  1DC80300           [284] getglobal  32  15       ; ZERO_VECTOR
3755  5D080600           [285] getglobal  33  24       ; ZERO_ROTATION
3759  92080005           [286] move       34  10     
375D  22878003           [287] call       28  7   2  
3761  5D070400           [288] getglobal  29  16       ; 1074689893
3765  9207000E           [289] move       30  28     
3769  62870001           [290] call       29  2   2  
376D  58470000           [291] test       29      1    ; to [293] if false
3771  1AC00180           [292] jmp        8            ; to [301]
3775  64074E0E           [293] self       29  28  312  ; 1180689833
3779  D3078003           [294] getupval   31  7      
377D  CEC7C20F           [295] gettable   31  31  267  ; "duration"
3781  CE87860F           [296] gettable   31  31  26 
3785  62478001           [297] call       29  3   1  
3789  64474E00           [298] self       29  0   313  ; -2035091121
378D  D207000E           [299] move       31  28     
3791  62478001           [300] call       29  3   1  
3795  5D870000           [301] getglobal  29  2        ; gRegion
3799  64C7C00E           [302] self       29  29  259  ; -1520831144
379D  62870001           [303] call       29  2   2  
37A1  58070000           [304] test       29      0    ; to [306] if true
37A5  1AC03380           [305] jmp        208          ; to [514]
37A9  5D070400           [306] getglobal  29  16       ; 1074689893
37AD  92078001           [307] move       30  3      
37B1  62870001           [308] call       29  2   2  
37B5  58070000           [309] test       29      0    ; to [311] if true
37B9  1A000080           [310] jmp        1            ; to [312]
37BD  1E008000           [311] return     0   1      
37C1  64874E00           [312] self       29  0   314  ; 50729289
37C5  62870001           [313] call       29  2   2  
37C9  99070200           [314] loadk      30  8        ; 0
37CD  D9070200           [315] loadk      31  8        ; 0
37D1  19080200           [316] loadk      32  8        ; 0
37D5  59080200           [317] loadk      33  8        ; 0
37D9  8D88C30E           [318] sub        34  29  270  ; 0
37DD  D9880300           [319] loadk      35  14       ; 0
37E1  50080A80           [320] forprep    33  41       ; to [362]
37E5  64C94E00           [321] self       37  0   315  ; 955459000
37E9  D2090012           [322] move       39  36     
37ED  62898001           [323] call       37  3   2  
37F1  9D090400           [324] getglobal  38  16       ; 1074689893
37F5  D2098012           [325] move       39  37     
37F9  A2890001           [326] call       38  2   2  
37FD  98490000           [327] test       38      1    ; to [329] if false
3801  1A000880           [328] jmp        33           ; to [362]
3805  A409CF12           [329] self       38  37  316  ; -1957065004
3809  130A0004           [330] getupval   40  8      
380D  0E4A4F14           [331] gettable   40  40  317  ; "upgrade"
3811  A2898001           [332] call       38  3   2  
3815  98090000           [333] test       38      0    ; to [335] if true
3819  1A000180           [334] jmp        5            ; to [340]
381D  A489CF12           [335] self       38  37  318  ; 1866047198
3821  24CACF12           [336] self       40  37  319  ; -1792252530
3825  220A0001           [337] call       40  2   0  
3829  A2890000           [338] call       38  0   2  
382D  83874313           [339] add        30  38  270  ; 0
3831  A409CF12           [340] self       38  37  316  ; -1957065004
3835  130A8004           [341] getupval   40  9      
3839  0E4A4F14           [342] gettable   40  40  317  ; "upgrade"
383D  A2898001           [343] call       38  3   2  
3841  98090000           [344] test       38      0    ; to [346] if true
3845  1A000180           [345] jmp        5            ; to [351]
3849  A489CF12           [346] self       38  37  318  ; 1866047198
384D  24CACF12           [347] self       40  37  319  ; -1792252530
3851  220A0001           [348] call       40  2   0  
3855  A2890000           [349] call       38  0   2  
3859  C3874313           [350] add        31  38  270  ; 0
385D  A409CF12           [351] self       38  37  316  ; -1957065004
3861  130A0005           [352] getupval   40  10     
3865  0E4A4F14           [353] gettable   40  40  317  ; "upgrade"
3869  A2898001           [354] call       38  3   2  
386D  98090000           [355] test       38      0    ; to [357] if true
3871  1A000180           [356] jmp        5            ; to [362]
3875  A489CF12           [357] self       38  37  318  ; 1866047198
3879  24CACF12           [358] self       40  37  319  ; -1792252530
387D  220A0001           [359] call       40  2   0  
3881  A2890000           [360] call       38  0   2  
3885  03884313           [361] add        32  38  270  ; 0
3889  5448F57F           [362] forloop    33  -42      ; to [321] if loop
fail op	21
388D  15800784           [363] concat     0   264 30 
3891  1A800580           [364] jmp        23           ; to [388]
3895  93090004           [365] getupval   38  8      
3899  8E095013           [366] gettable   38  38  320  ; "resistance"
389D  DD491000           [367] getglobal  39  65       ; math
38A1  CE89D013           [368] gettable   39  39  322  ; 1710846250
38A5  130A0004           [369] getupval   40  8      
38A9  0E0A5014           [370] gettable   40  40  320  ; "resistance"
38AD  0A0A0014           [371] len        40  40     
38B1  520A000F           [372] move       41  30     
38B5  E2898001           [373] call       39  3   2  
38B9  8EC90913           [374] gettable   38  38  39 
fail op	0
38BD  80090013           [375] move       38  38     
38C1  E489C901           [376] self       39  3   294  ; -1917464545
38C5  E2890001           [377] call       39  2   2  
38C9  E4C9D013           [378] self       39  39  323  ; 991629753
38CD  5D0A1100           [379] getglobal  41  68       ; Game
38D1  4E4AD114           [380] gettable   41  41  325  ; "AVATAR_DAMAGE_RESISTANCE"
38D5  9D0A1100           [381] getglobal  42  68       ; Game
38D9  8E8A5115           [382] gettable   42  42  326  ; "ADD"
38DD  D20A0013           [383] move       43  38     
38E1  060B8016           [384] loadnil    44  45     
38E5  9D0B0000           [385] getglobal  46  0        ; Engine
38E9  8ECB5117           [386] gettable   46  46  327  ; "DT_FIRE"
38ED  E2490004           [387] call       39  8   1  
fail op	21
38F1  15C00784           [388] concat     0   264 31 
38F5  1A800580           [389] jmp        23           ; to [413]
38F9  D3098004           [390] getupval   39  9      
38FD  CE09D013           [391] gettable   39  39  320  ; "resistance"
3901  1D4A1000           [392] getglobal  40  65       ; math
3905  0E8A5014           [393] gettable   40  40  322  ; 1710846250
3909  530A8004           [394] getupval   41  9      
390D  4E0AD014           [395] gettable   41  41  320  ; "resistance"
3911  4A0A8014           [396] len        41  41     
3915  920A800F           [397] move       42  31     
3919  228A8001           [398] call       40  3   2  
391D  CE098A13           [399] gettable   39  39  40 
fail op	0
3921  C0098013           [400] move       39  39     
3925  248AC901           [401] self       40  3   294  ; -1917464545
3929  228A0001           [402] call       40  2   2  
392D  24CA5014           [403] self       40  40  323  ; 991629753
3931  9D0A1100           [404] getglobal  42  68       ; Game
3935  8E4A5115           [405] gettable   42  42  325  ; "AVATAR_DAMAGE_RESISTANCE"
3939  DD0A1100           [406] getglobal  43  68       ; Game
393D  CE8AD115           [407] gettable   43  43  326  ; "ADD"
3941  120B8013           [408] move       44  39     
3945  460B0017           [409] loadnil    45  46     
3949  DD0B0000           [410] getglobal  47  0        ; Engine
394D  CE0BD217           [411] gettable   47  47  328  ; "DT_PUNCTURE"
3951  224A0004           [412] call       40  8   1  
fail op	21
3955  15000884           [413] concat     0   264 32 
3959  1A801880           [414] jmp        99           ; to [514]
395D  244AD201           [415] self       40  3   329  ; -1544157541
3961  228A0001           [416] call       40  2   2  
3965  248A5214           [417] self       40  40  330  ; 179329687
3969  228A0001           [418] call       40  2   2  
396D  5D8A0100           [419] getglobal  41  6        ; Lotus_Game
3971  4ECAD214           [420] gettable   41  41  331  ; "ResistanceTable_RK_ROBOTIC"
fail op	35
3975  63400A14           [421] close      1  
3979  1A000180           [422] jmp        5            ; to [428]
397D  5D8A0100           [423] getglobal  41  6        ; Lotus_Game
3981  4E0AD314           [424] gettable   41  41  332  ; "ResistanceTable_RK_MACHINERY"
fail op	35
3985  63400A14           [425] close      1  
3989  1A000080           [426] jmp        1            ; to [428]
398D  574A0000           [427] loadbool   41  0   1    ; false, to [429]
3991  570A8000           [428] loadbool   41  1   0    ; true
3995  580A0000           [429] test       41      0    ; to [431] if true
3999  1A801480           [430] jmp        83           ; to [514]
399D  9D0A0400           [431] getglobal  42  16       ; 1074689893
39A1  DD4A1300           [432] getglobal  43  77       ; _T
39A5  CE8AD315           [433] gettable   43  43  334  ; "robotStun"
39A9  A28A0001           [434] call       42  2   2  
39AD  980A0000           [435] test       42      0    ; to [437] if true
39B1  1A800080           [436] jmp        3            ; to [440]
39B5  9D4A1300           [437] getglobal  42  77       ; _T
39B9  CB0A0000           [438] newtable   43  0   0    ; array=0, hash=0
39BD  8CCA0AA7           [439] settable   42  334 43   ; "robotStun"
39C1  A4CAD301           [440] self       42  3   335  ; -605089866
39C5  A28A0001           [441] call       42  2   2  
39C9  DD0A0400           [442] getglobal  43  16       ; 1074689893
39CD  1D4B1300           [443] getglobal  44  77       ; _T
39D1  0E8B5316           [444] gettable   44  44  334  ; "robotStun"
39D5  0E8B0A16           [445] gettable   44  44  42 
39D9  E28A0001           [446] call       43  2   2  
39DD  D80A0000           [447] test       43      0    ; to [449] if true
39E1  1A001080           [448] jmp        65           ; to [514]
39E5  DD4A1300           [449] getglobal  43  77       ; _T
39E9  CE8AD315           [450] gettable   43  43  334  ; "robotStun"
39ED  CC0A0815           [451] settable   43  42  32 
39F1  DD0A0000           [452] getglobal  43  0        ; Engine
39F5  CE0AD415           [453] gettable   43  43  336  ; -98643418
39F9  E28A8000           [454] call       43  1   2  
39FD  130B0005           [455] getupval   44  10     
3A01  0E4B5416           [456] gettable   44  44  337  ; "maxHealthAsDamage"
3A05  5D4B1000           [457] getglobal  45  65       ; math
3A09  4E8BD016           [458] gettable   45  45  322  ; 1710846250
3A0D  930B0005           [459] getupval   46  10     
3A11  8E4B5417           [460] gettable   46  46  337  ; "maxHealthAsDamage"
3A15  8A0B0017           [461] len        46  46     
3A19  D20B0010           [462] move       47  32     
3A1D  628B8001           [463] call       45  3   2  
3A21  0E4B0B16           [464] gettable   44  44  45 
3A25  64CBD401           [465] self       45  3   339  ; 945541886
3A29  628B0001           [466] call       45  2   2  
3A2D  440B8B16           [467] mul        45  45  44 
3A31  CC4A0BA9           [468] settable   43  338 45   ; "baseAmount"
3A35  640BD515           [469] self       45  43  340  ; -995861768
3A39  DD0B0000           [470] getglobal  47  0        ; Engine
3A3D  CE4BD517           [471] gettable   47  47  341  ; "DT_ELECTRICITY"
3A41  198C0300           [472] loadk      48  14       ; 0
3A45  624B0002           [473] call       45  4   1  
3A49  648BD515           [474] self       45  43  342  ; 1398603399
3A4D  DD0B1100           [475] getglobal  47  68       ; Game
3A51  CECBD517           [476] gettable   47  47  343  ; "PT_STUNNED"
3A55  170C8000           [477] loadbool   48  1   0    ; true
3A59  624B0002           [478] call       45  4   1  
3A5D  640BD615           [479] self       45  43  344  ; -364008556
3A61  D30B0005           [480] getupval   47  10     
3A65  CE4BD617           [481] gettable   47  47  345  ; "stunDuration"
3A69  624B8001           [482] call       45  3   1  
3A6D  648BD601           [483] self       45  3   346  ; 1193457265
3A71  D20B8015           [484] move       47  43     
3A75  624B8001           [485] call       45  3   1  
3A79  640BCD01           [486] self       45  3   308  ; -242235676
3A7D  628B0001           [487] call       45  2   2  
3A81  9D0B0400           [488] getglobal  46  16       ; 1074689893
3A85  D20B8016           [489] move       47  45     
3A89  A28B0001           [490] call       46  2   2  
3A8D  984B0000           [491] test       46      1    ; to [493] if false
3A91  1AC00180           [492] jmp        8            ; to [501]
3A95  A44BCD16           [493] self       46  45  309  ; -1421644046
3A99  1DCC1600           [494] getglobal  48  91       ; blastRobotStunnedEffect
3A9D  5D0C1700           [495] getglobal  49  92       ; EMPTY_SYMBOL
3AA1  9DCC0300           [496] getglobal  50  15       ; ZERO_VECTOR
3AA5  DD0C0600           [497] getglobal  51  24       ; ZERO_ROTATION
3AA9  120D0000           [498] move       52  0      
3AAD  A24B8003           [499] call       46  7   1  
3AB1  1A800180           [500] jmp        7            ; to [508]
3AB5  A44BCD01           [501] self       46  3   309  ; -1421644046
3AB9  1DCC1600           [502] getglobal  48  91       ; blastRobotStunnedEffect
3ABD  5D0C1700           [503] getglobal  49  92       ; EMPTY_SYMBOL
3AC1  9DCC0300           [504] getglobal  50  15       ; ZERO_VECTOR
3AC5  DD0C0600           [505] getglobal  51  24       ; ZERO_ROTATION
3AC9  120D0000           [506] move       52  0      
3ACD  A24B8003           [507] call       46  7   1  
3AD1  A48BC701           [508] self       46  3   286  ; -1302048094
3AD5  1DCC0700           [509] getglobal  48  31       ; -332969190
3AD9  594C1700           [510] loadk      49  93       ; "RobotStun"
3ADD  228C0001           [511] call       48  2   2  
3AE1  570C0000           [512] loadbool   49  0   0    ; false
3AE5  A24B0002           [513] call       46  4   1  
3AE9  1E008000           [514] return     0   1      
                         * constants:
3AED  5E                 sizek (94)
3AEE  04                 const type 4
3AEF  07                 string size (7)
3AF0  456E67696E6500     "Engine\0"
                         const [0]: "Engine"
3AF7  04                 const type 4
3AF8  0A                 string size (10)
3AF9  4448545F4D454C45+  "DHT_MELE"
3B01  4500               "E\0"
                         const [1]: "DHT_MELEE"
3B03  04                 const type 4
3B04  08                 string size (8)
3B05  67526567696F6E00   "gRegion\0"
                         const [2]: "gRegion"
3B0D  01                 const type 3
3B0E  58F559A5           const [3]: (-1520831144)
3B12  01                 const type 3
3B13  539249A4           const [4]: (-1538682285)
3B17  01                 const type 3
3B18  A006E61E           const [5]: (518391456)
3B1C  04                 const type 4
3B1D  0B                 string size (11)
3B1E  4C6F7475735F4761+  "Lotus_Ga"
3B26  6D6500             "me\0"
                         const [6]: "Lotus_Game"
3B29  04                 const type 4
3B2A  08                 string size (8)
3B2B  41505F5741524400   "AP_WARD\0"
                         const [7]: "AP_WARD"
3B33  03                 const type 3
3B34  00000000           const [8]: (0)
3B38  01                 const type 3
3B39  DE2886FB           const [9]: (-75093794)
3B3D  04                 const type 4
3B3E  04                 string size (4)
3B3F  74616700           "tag\0"
                         const [10]: "tag"
3B43  04                 const type 4
3B44  09                 string size (9)
3B45  6475726174696F6E+  "duration"
3B4D  00                 "\0"
                         const [11]: "duration"
3B4E  04                 const type 4
3B4F  07                 string size (7)
3B50  6368616E636500     "chance\0"
                         const [12]: "chance"
3B57  01                 const type 3
3B58  42674A8C           const [13]: (-1941280958)
3B5C  03                 const type 3
3B5D  0000803F           const [14]: (0)
3B61  04                 const type 4
3B62  0C                 string size (12)
3B63  5A45524F5F564543+  "ZERO_VEC"
3B6B  544F5200           "TOR\0"
                         const [15]: "ZERO_VECTOR"
3B6F  01                 const type 3
3B70  65770E40           const [16]: (1074689893)
3B74  01                 const type 3
3B75  0125A76D           const [17]: (1839670529)
3B79  01                 const type 3
3B7A  61AF33EA           const [18]: (-365711519)
3B7E  03                 const type 3
3B7F  00000040           const [19]: (0)
3B83  04                 const type 4
3B84  02                 string size (2)
3B85  7900               "y\0"
                         const [20]: "y"
3B87  03                 const type 3
3B88  CDCCCC3E           const [21]: (-51)
3B8C  01                 const type 3
3B8D  C64CD3BD           const [22]: (-1110225722)
3B91  04                 const type 4
3B92  11                 string size (17)
3B93  64616D6167655069+  "damagePi"
3B9B  636B757054797065+  "ckupType"
3BA3  00                 "\0"
                         const [23]: "damagePickupType"
3BA4  04                 const type 4
3BA5  0E                 string size (14)
3BA6  5A45524F5F524F54+  "ZERO_ROT"
3BAE  4154494F4E00       "ATION\0"
                         const [24]: "ZERO_ROTATION"
3BB4  01                 const type 3
3BB5  025A115A           const [25]: (1511086594)
3BB9  01                 const type 3
3BBA  4F555F49           const [26]: (1230984527)
3BBE  04                 const type 4
3BBF  0E                 string size (14)
3BC0  41525F494D4D554E+  "AR_IMMUN"
3BC8  455F414C4C00       "E_ALL\0"
                         const [27]: "AR_IMMUNE_ALL"
3BCE  04                 const type 4
3BCF  09                 string size (9)
3BD0  41505F504F574552+  "AP_POWER"
3BD8  00                 "\0"
                         const [28]: "AP_POWER"
3BD9  04                 const type 4
3BDA  05                 string size (5)
3BDB  736C6F7700         "slow\0"
                         const [29]: "slow"
3BE0  01                 const type 3
3BE1  A25264B2           const [30]: (-1302048094)
3BE5  01                 const type 3
3BE6  1A4B27EC           const [31]: (-332969190)
3BEA  04                 const type 4
3BEB  0B                 string size (11)
3BEC  536C6F7754617267+  "SlowTarg"
3BF4  657400             "et\0"
                         const [32]: "SlowTarget"
3BF7  04                 const type 4
3BF8  0A                 string size (10)
3BF9  41505F5441435449+  "AP_TACTI"
3C01  4300               "C\0"
                         const [33]: "AP_TACTIC"
3C03  04                 const type 4
3C04  0E                 string size (14)
3C05  436F6E6675736554+  "ConfuseT"
3C0D  617267657400       "arget\0"
                         const [34]: "ConfuseTarget"
3C13  01                 const type 3
3C14  BC3A29B6           const [35]: (-1238811972)
3C18  04                 const type 4
3C19  0E                 string size (14)
3C1A  41525F5245534953+  "AR_RESIS"
3C22  545F414C4C00       "T_ALL\0"
                         const [36]: "AR_RESIST_ALL"
3C28  01                 const type 3
3C29  93DDD9AB           const [37]: (-1411785325)
3C2D  01                 const type 3
3C2E  1FD0B58D           const [38]: (-1917464545)
3C32  01                 const type 3
3C33  3B9EB1C3           const [39]: (-1011769797)
3C37  01                 const type 3
3C38  87A360CA           const [40]: (-899636345)
3C3C  01                 const type 3
3C3D  42EFEF67           const [41]: (1743777602)
3C41  01                 const type 3
3C42  1D8194B4           const [42]: (-1265336035)
3C46  04                 const type 4
3C47  10                 string size (16)
3C48  64697361726D4167+  "disarmAg"
3C50  656E745479706500   "entType\0"
                         const [43]: "disarmAgentType"
3C58  01                 const type 3
3C59  1F4D9162           const [44]: (1653689631)
3C5D  01                 const type 3
3C5E  53C18DBF           const [45]: (-1081228973)
3C62  01                 const type 3
3C63  C01C63F1           const [46]: (-245162816)
3C67  01                 const type 3
3C68  807FFE7B           const [47]: (2080276352)
3C6C  01                 const type 3
3C6D  098C965D           const [48]: (1570147337)
3C71  00                 const type 0
                         const [49]: nil
3C72  01                 const type 3
3C73  077F3458           const [50]: (1479835399)
3C77  04                 const type 4
3C78  12                 string size (18)
3C79  64697361726D4D65+  "disarmMe"
3C81  6C6565576561706F+  "leeWeapo"
3C89  6E00               "n\0"
                         const [51]: "disarmMeleeWeapon"
3C8B  01                 const type 3
3C8C  E4C68FF1           const [52]: (-242235676)
3C90  01                 const type 3
3C91  F26E43AB           const [53]: (-1421644046)
3C95  04                 const type 4
3C96  14                 string size (20)
3C97  62756C6C65744174+  "bulletAt"
3C9F  74726163746F7254+  "tractorT"
3CA7  79706500           "ype\0"
                         const [54]: "bulletAttractorType"
3CAB  04                 const type 4
3CAC  0D                 string size (13)
3CAD  47414D455F43315F+  "GAME_C1_"
3CB5  4849503100         "HIP1\0"
                         const [55]: "GAME_C1_HIP1"
3CBA  01                 const type 3
3CBB  A9E55F46           const [56]: (1180689833)
3CBF  01                 const type 3
3CC0  4FF9B286           const [57]: (-2035091121)
3CC4  01                 const type 3
3CC5  49110603           const [58]: (50729289)
3CC9  01                 const type 3
3CCA  B825F338           const [59]: (955459000)
3CCE  01                 const type 3
3CCF  D48E598B           const [60]: (-1957065004)
3CD3  04                 const type 4
3CD4  08                 string size (8)
3CD5  7570677261646500   "upgrade\0"
                         const [61]: "upgrade"
3CDD  01                 const type 3
3CDE  DE9E396F           const [62]: (1866047198)
3CE2  01                 const type 3
3CE3  8E652C95           const [63]: (-1792252530)
3CE7  04                 const type 4
3CE8  0B                 string size (11)
3CE9  726573697374616E+  "resistan"
3CF1  636500             "ce\0"
                         const [64]: "resistance"
3CF4  04                 const type 4
3CF5  05                 string size (5)
3CF6  6D61746800         "math\0"
                         const [65]: "math"
3CFB  01                 const type 3
3CFC  2A71F965           const [66]: (1710846250)
3D00  01                 const type 3
3D01  B9111B3B           const [67]: (991629753)
3D05  04                 const type 4
3D06  05                 string size (5)
3D07  47616D6500         "Game\0"
                         const [68]: "Game"
3D0C  04                 const type 4
3D0D  19                 string size (25)
3D0E  4156415441525F44+  "AVATAR_D"
3D16  414D4147455F5245+  "AMAGE_RE"
3D1E  53495354414E4345+  "SISTANCE"
3D26  00                 "\0"
                         const [69]: "AVATAR_DAMAGE_RESISTANCE"
3D27  04                 const type 4
3D28  04                 string size (4)
3D29  41444400           "ADD\0"
                         const [70]: "ADD"
3D2D  04                 const type 4
3D2E  08                 string size (8)
3D2F  44545F4649524500   "DT_FIRE\0"
                         const [71]: "DT_FIRE"
3D37  04                 const type 4
3D38  0C                 string size (12)
3D39  44545F50554E4354+  "DT_PUNCT"
3D41  55524500           "URE\0"
                         const [72]: "DT_PUNCTURE"
3D45  01                 const type 3
3D46  9B06F6A3           const [73]: (-1544157541)
3D4A  01                 const type 3
3D4B  975AB00A           const [74]: (179329687)
3D4F  04                 const type 4
3D50  1B                 string size (27)
3D51  526573697374616E+  "Resistan"
3D59  63655461626C655F+  "ceTable_"
3D61  524B5F524F424F54+  "RK_ROBOT"
3D69  494300             "IC\0"
                         const [75]: "ResistanceTable_RK_ROBOTIC"
3D6C  04                 const type 4
3D6D  1D                 string size (29)
3D6E  526573697374616E+  "Resistan"
3D76  63655461626C655F+  "ceTable_"
3D7E  524B5F4D41434849+  "RK_MACHI"
3D86  4E45525900         "NERY\0"
                         const [76]: "ResistanceTable_RK_MACHINERY"
3D8B  04                 const type 4
3D8C  03                 string size (3)
3D8D  5F5400             "_T\0"
                         const [77]: "_T"
3D90  04                 const type 4
3D91  0A                 string size (10)
3D92  726F626F74537475+  "robotStu"
3D9A  6E00               "n\0"
                         const [78]: "robotStun"
3D9C  01                 const type 3
3D9D  B60FEFDB           const [79]: (-605089866)
3DA1  01                 const type 3
3DA2  26D21EFA           const [80]: (-98643418)
3DA6  04                 const type 4
3DA7  12                 string size (18)
3DA8  6D61784865616C74+  "maxHealt"
3DB0  68417344616D6167+  "hAsDamag"
3DB8  6500               "e\0"
                         const [81]: "maxHealthAsDamage"
3DBA  04                 const type 4
3DBB  0B                 string size (11)
3DBC  62617365416D6F75+  "baseAmou"
3DC4  6E7400             "nt\0"
                         const [82]: "baseAmount"
3DC7  01                 const type 3
3DC8  FED25B38           const [83]: (945541886)
3DCC  01                 const type 3
3DCD  F85AA4C4           const [84]: (-995861768)
3DD1  04                 const type 4
3DD2  0F                 string size (15)
3DD3  44545F454C454354+  "DT_ELECT"
3DDB  52494349545900     "RICITY\0"
                         const [85]: "DT_ELECTRICITY"
3DE2  01                 const type 3
3DE3  87FE5C53           const [86]: (1398603399)
3DE7  04                 const type 4
3DE8  0B                 string size (11)
3DE9  50545F5354554E4E+  "PT_STUNN"
3DF1  454400             "ED\0"
                         const [87]: "PT_STUNNED"
3DF4  01                 const type 3
3DF5  94AB4DEA           const [88]: (-364008556)
3DF9  04                 const type 4
3DFA  0D                 string size (13)
3DFB  7374756E44757261+  "stunDura"
3E03  74696F6E00         "tion\0"
                         const [89]: "stunDuration"
3E08  01                 const type 3
3E09  71B62247           const [90]: (1193457265)
3E0D  04                 const type 4
3E0E  18                 string size (24)
3E0F  626C617374526F62+  "blastRob"
3E17  6F745374756E6E65+  "otStunne"
3E1F  6445666665637400   "dEffect\0"
                         const [91]: "blastRobotStunnedEffect"
3E27  04                 const type 4
3E28  0D                 string size (13)
3E29  454D5054595F5359+  "EMPTY_SY"
3E31  4D424F4C00         "MBOL\0"
                         const [92]: "EMPTY_SYMBOL"
3E36  04                 const type 4
3E37  0A                 string size (10)
3E38  526F626F74537475+  "RobotStu"
3E40  6E00               "n\0"
                         const [93]: "RobotStun"
                         * functions:
3E42  00                 sizep (0)
                         * lines:
3E44  04                 sizelineinfo (514)
                         [pc] (line)
3E45  CB                 [001] (-53)
3E46  01                 [002] (-53)
3E47  00                 [003] (-53)
3E48  00                 [004] (-53)
3E49  CB                 [005] (-52)
3E4A  01                 [006] (-49)
3E4B  00                 [007] (-46)
3E4C  00                 [008] (-46)
3E4D  CB                 [009] (-46)
3E4E  01                 [010] (-46)
3E4F  00                 [011] (-46)
3E50  00                 [012] (-45)
3E51  CB                 [013] (-45)
3E52  01                 [014] (-45)
3E53  00                 [015] (-44)
3E54  00                 [016] (-44)
3E55  CC                 [017] (-44)
3E56  01                 [018] (-44)
3E57  00                 [019] (-44)
3E58  00                 [020] (-43)
3E59  CF                 [021] (-43)
3E5A  01                 [022] (-43)
3E5B  00                 [023] (-43)
3E5C  00                 [024] (-42)
3E5D  D2                 [025] (-42)
3E5E  01                 [026] (-41)
3E5F  00                 [027] (-41)
3E60  00                 [028] (-41)
3E61  D2                 [029] (-41)
3E62  01                 [030] (-41)
3E63  00                 [031] (-41)
3E64  00                 [032] (-41)
3E65  D2                 [033] (-41)
3E66  01                 [034] (-40)
3E67  00                 [035] (-40)
3E68  00                 [036] (-39)
3E69  D2                 [037] (-39)
3E6A  01                 [038] (-39)
3E6B  00                 [039] (-38)
3E6C  00                 [040] (-38)
3E6D  D2                 [041] (-38)
3E6E  01                 [042] (-38)
3E6F  00                 [043] (-38)
3E70  00                 [044] (-38)
3E71  D3                 [045] (-37)
3E72  01                 [046] (-36)
3E73  00                 [047] (-36)
3E74  00                 [048] (-36)
3E75  D3                 [049] (-36)
3E76  01                 [050] (-36)
3E77  00                 [051] (-35)
3E78  00                 [052] (-35)
3E79  D3                 [053] (-35)
3E7A  01                 [054] (-35)
3E7B  00                 [055] (-33)
3E7C  00                 [056] (-33)
3E7D  D4                 [057] (-33)
3E7E  01                 [058] (-31)
3E7F  00                 [059] (-31)
3E80  00                 [060] (-31)
3E81  D4                 [061] (-31)
3E82  01                 [062] (-30)
3E83  00                 [063] (-30)
3E84  00                 [064] (-30)
3E85  D4                 [065] (-29)
3E86  01                 [066] (-29)
3E87  00                 [067] (-29)
3E88  00                 [068] (-29)
3E89  D4                 [069] (-29)
3E8A  01                 [070] (-29)
3E8B  00                 [071] (-29)
3E8C  00                 [072] (-22)
3E8D  D4                 [073] (-22)
3E8E  01                 [074] (-22)
3E8F  00                 [075] (-22)
3E90  00                 [076] (-22)
3E91  D5                 [077] (-22)
3E92  01                 [078] (-22)
3E93  00                 [079] (-22)
3E94  00                 [080] (-22)
3E95  D5                 [081] (-22)
3E96  01                 [082] (-22)
3E97  00                 [083] (-22)
3E98  00                 [084] (-22)
3E99  D5                 [085] (-22)
3E9A  01                 [086] (-22)
3E9B  00                 [087] (-21)
3E9C  00                 [088] (-18)
3E9D  D5                 [089] (-18)
3E9E  01                 [090] (-18)
3E9F  00                 [091] (-18)
3EA0  00                 [092] (-18)
3EA1  D6                 [093] (-17)
3EA2  01                 [094] (-17)
3EA3  00                 [095] (-17)
3EA4  00                 [096] (-16)
3EA5  D6                 [097] (-16)
3EA6  01                 [098] (-16)
3EA7  00                 [099] (-16)
3EA8  00                 [100] (-16)
3EA9  D7                 [101] (-13)
3EAA  01                 [102] (-13)
3EAB  00                 [103] (-13)
3EAC  00                 [104] (-13)
3EAD  D7                 [105] (-12)
3EAE  01                 [106] (-12)
3EAF  00                 [107] (-12)
3EB0  00                 [108] (-12)
3EB1  D7                 [109] (-12)
3EB2  01                 [110] (-11)
3EB3  00                 [111] (-11)
3EB4  00                 [112] (-11)
3EB5  D7                 [113] (-11)
3EB6  01                 [114] (-11)
3EB7  00                 [115] (-11)
3EB8  00                 [116] (-11)
3EB9  D7                 [117] (-11)
3EBA  01                 [118] (-10)
3EBB  00                 [119] (-10)
3EBC  00                 [120] (-9)
3EBD  D7                 [121] (-9)
3EBE  01                 [122] (-9)
3EBF  00                 [123] (-9)
3EC0  00                 [124] (-9)
3EC1  D7                 [125] (-8)
3EC2  01                 [126] (-8)
3EC3  00                 [127] (-8)
3EC4  00                 [128] (-8)
3EC5  D7                 [129] (-8)
3EC6  01                 [130] (-7)
3EC7  00                 [131] (-7)
3EC8  00                 [132] (-7)
3EC9  D8                 [133] (-7)
3ECA  01                 [134] (-7)
3ECB  00                 [135] (-7)
3ECC  00                 [136] (-5)
3ECD  D8                 [137] (-4)
3ECE  01                 [138] (-4)
3ECF  00                 [139] (-4)
3ED0  00                 [140] (-4)
3ED1  D9                 [141] (-3)
3ED2  01                 [142] (-3)
3ED3  00                 [143] (-3)
3ED4  00                 [144] (-3)
3ED5  D9                 [145] (-3)
3ED6  01                 [146] (-2)
3ED7  00                 [147] (-2)
3ED8  00                 [148] (-2)
3ED9  D9                 [149] (-2)
3EDA  01                 [150] (-2)
3EDB  00                 [151] (-2)
3EDC  00                 [152] (-2)
3EDD  DA                 [153] (-2)
3EDE  01                 [154] (-1)
3EDF  00                 [155] (-1)
3EE0  00                 [156] (0)
3EE1  DA                 [157] (0)
3EE2  01                 [158] (0)
3EE3  00                 [159] (1)
3EE4  00                 [160] (1)
3EE5  DA                 [161] (1)
3EE6  01                 [162] (1)
3EE7  00                 [163] (1)
3EE8  00                 [164] (1)
3EE9  DA                 [165] (2)
3EEA  01                 [166] (2)
3EEB  00                 [167] (2)
3EEC  00                 [168] (2)
3EED  DA                 [169] (3)
3EEE  01                 [170] (3)
3EEF  00                 [171] (3)
3EF0  00                 [172] (3)
3EF1  DA                 [173] (3)
3EF2  01                 [174] (3)
3EF3  00                 [175] (7)
3EF4  00                 [176] (7)
3EF5  DB                 [177] (7)
3EF6  01                 [178] (7)
3EF7  00                 [179] (7)
3EF8  00                 [180] (7)
3EF9  DC                 [181] (7)
3EFA  01                 [182] (7)
3EFB  00                 [183] (7)
3EFC  00                 [184] (7)
3EFD  DC                 [185] (7)
3EFE  01                 [186] (7)
3EFF  00                 [187] (7)
3F00  00                 [188] (7)
3F01  DC                 [189] (7)
3F02  01                 [190] (7)
3F03  00                 [191] (8)
3F04  00                 [192] (8)
3F05  DC                 [193] (8)
3F06  01                 [194] (8)
3F07  00                 [195] (8)
3F08  00                 [196] (8)
3F09  DC                 [197] (8)
3F0A  01                 [198] (8)
3F0B  00                 [199] (9)
3F0C  00                 [200] (9)
3F0D  DD                 [201] (10)
3F0E  01                 [202] (10)
3F0F  00                 [203] (10)
3F10  00                 [204] (11)
3F11  DD                 [205] (11)
3F12  01                 [206] (11)
3F13  00                 [207] (11)
3F14  00                 [208] (11)
3F15  DD                 [209] (11)
3F16  01                 [210] (12)
3F17  00                 [211] (12)
3F18  00                 [212] (12)
3F19  DD                 [213] (12)
3F1A  01                 [214] (14)
3F1B  00                 [215] (14)
3F1C  00                 [216] (15)
3F1D  DF                 [217] (15)
3F1E  01                 [218] (16)
3F1F  00                 [219] (16)
3F20  00                 [220] (17)
3F21  DF                 [221] (17)
3F22  01                 [222] (17)
3F23  00                 [223] (17)
3F24  00                 [224] (17)
3F25  DF                 [225] (17)
3F26  01                 [226] (17)
3F27  00                 [227] (17)
3F28  00                 [228] (19)
3F29  E1                 [229] (19)
3F2A  01                 [230] (20)
3F2B  00                 [231] (20)
3F2C  00                 [232] (20)
3F2D  E1                 [233] (20)
3F2E  01                 [234] (20)
3F2F  00                 [235] (21)
3F30  00                 [236] (21)
3F31  E1                 [237] (21)
3F32  01                 [238] (22)
3F33  00                 [239] (22)
3F34  00                 [240] (22)
3F35  E1                 [241] (25)
3F36  01                 [242] (25)
3F37  00                 [243] (26)
3F38  00                 [244] (26)
3F39  E2                 [245] (27)
3F3A  01                 [246] (27)
3F3B  00                 [247] (27)
3F3C  00                 [248] (27)
3F3D  E2                 [249] (27)
3F3E  01                 [250] (29)
3F3F  00                 [251] (29)
3F40  00                 [252] (29)
3F41  E2                 [253] (29)
3F42  01                 [254] (34)
3F43  00                 [255] (35)
3F44  00                 [256] (35)
3F45  E3                 [257] (35)
3F46  01                 [258] (35)
3F47  00                 [259] (36)
3F48  00                 [260] (36)
3F49  E3                 [261] (36)
3F4A  01                 [262] (36)
3F4B  00                 [263] (36)
3F4C  00                 [264] (36)
3F4D  E3                 [265] (36)
3F4E  01                 [266] (36)
3F4F  00                 [267] (37)
3F50  00                 [268] (37)
3F51  E3                 [269] (38)
3F52  01                 [270] (39)
3F53  00                 [271] (39)
3F54  00                 [272] (39)
3F55  E3                 [273] (39)
3F56  01                 [274] (39)
3F57  00                 [275] (39)
3F58  00                 [276] (40)
3F59  E3                 [277] (40)
3F5A  01                 [278] (40)
3F5B  00                 [279] (43)
3F5C  00                 [280] (43)
3F5D  E3                 [281] (43)
3F5E  01                 [282] (43)
3F5F  00                 [283] (43)
3F60  00                 [284] (43)
3F61  EA                 [285] (43)
3F62  01                 [286] (43)
3F63  00                 [287] (43)
3F64  00                 [288] (44)
3F65  EA                 [289] (44)
3F66  01                 [290] (44)
3F67  00                 [291] (44)
3F68  00                 [292] (44)
3F69  EA                 [293] (45)
3F6A  01                 [294] (45)
3F6B  00                 [295] (45)
3F6C  00                 [296] (45)
3F6D  EA                 [297] (45)
3F6E  01                 [298] (46)
3F6F  00                 [299] (46)
3F70  00                 [300] (46)
3F71  EA                 [301] (51)
3F72  01                 [302] (51)
3F73  00                 [303] (51)
3F74  00                 [304] (51)
3F75  EA                 [305] (51)
3F76  01                 [306] (52)
3F77  00                 [307] (52)
3F78  00                 [308] (52)
3F79  EA                 [309] (52)
3F7A  01                 [310] (52)
3F7B  00                 [311] (53)
3F7C  00                 [312] (56)
3F7D  EA                 [313] (56)
3F7E  01                 [314] (57)
3F7F  00                 [315] (58)
3F80  00                 [316] (59)
3F81  EA                 [317] (60)
3F82  01                 [318] (60)
3F83  00                 [319] (60)
3F84  00                 [320] (60)
3F85  EA                 [321] (61)
3F86  01                 [322] (61)
3F87  00                 [323] (61)
3F88  00                 [324] (63)
3F89  EA                 [325] (63)
3F8A  01                 [326] (63)
3F8B  00                 [327] (63)
3F8C  00                 [328] (63)
3F8D  EA                 [329] (64)
3F8E  01                 [330] (64)
3F8F  00                 [331] (64)
3F90  00                 [332] (64)
3F91  EA                 [333] (64)
3F92  01                 [334] (64)
3F93  00                 [335] (65)
3F94  00                 [336] (65)
3F95  EA                 [337] (65)
3F96  01                 [338] (65)
3F97  00                 [339] (65)
3F98  00                 [340] (68)
3F99  EA                 [341] (68)
3F9A  01                 [342] (68)
3F9B  00                 [343] (68)
3F9C  00                 [344] (68)
3F9D  EB                 [345] (68)
3F9E  01                 [346] (69)
3F9F  00                 [347] (69)
3FA0  00                 [348] (69)
3FA1  EE                 [349] (69)
3FA2  01                 [350] (69)
3FA3  00                 [351] (72)
3FA4  00                 [352] (72)
3FA5  EE                 [353] (72)
3FA6  01                 [354] (72)
3FA7  00                 [355] (72)
3FA8  00                 [356] (72)
3FA9  EE                 [357] (73)
3FAA  01                 [358] (73)
3FAB  00                 [359] (73)
3FAC  00                 [360] (73)
3FAD  EE                 [361] (73)
3FAE  01                 [362] (60)
3FAF  00                 [363] (78)
3FB0  00                 [364] (78)
3FB1  EE                 [365] (79)
3FB2  01                 [366] (79)
3FB3  00                 [367] (79)
3FB4  00                 [368] (79)
3FB5  EF                 [369] (79)
3FB6  01                 [370] (79)
3FB7  00                 [371] (79)
3FB8  00                 [372] (79)
3FB9  EF                 [373] (79)
3FBA  01                 [374] (79)
3FBB  00                 [375] (79)
3FBC  00                 [376] (80)
3FBD  EF                 [377] (80)
3FBE  01                 [378] (80)
3FBF  00                 [379] (80)
3FC0  00                 [380] (80)
3FC1  F0                 [381] (80)
3FC2  01                 [382] (80)
3FC3  00                 [383] (80)
3FC4  00                 [384] (80)
3FC5  F0                 [385] (80)
3FC6  01                 [386] (80)
3FC7  00                 [387] (80)
3FC8  00                 [388] (83)
3FC9  F0                 [389] (83)
3FCA  01                 [390] (84)
3FCB  00                 [391] (84)
3FCC  00                 [392] (84)
3FCD  F0                 [393] (84)
3FCE  01                 [394] (84)
3FCF  00                 [395] (84)
3FD0  00                 [396] (84)
3FD1  F0                 [397] (84)
3FD2  01                 [398] (84)
3FD3  00                 [399] (84)
3FD4  00                 [400] (84)
3FD5  F3                 [401] (85)
3FD6  01                 [402] (85)
3FD7  00                 [403] (85)
3FD8  00                 [404] (85)
3FD9  F3                 [405] (85)
3FDA  01                 [406] (85)
3FDB  00                 [407] (85)
3FDC  00                 [408] (85)
3FDD  F3                 [409] (85)
3FDE  01                 [410] (85)
3FDF  00                 [411] (85)
3FE0  00                 [412] (85)
3FE1  F3                 [413] (88)
3FE2  01                 [414] (88)
3FE3  00                 [415] (89)
3FE4  00                 [416] (89)
3FE5  F4                 [417] (89)
3FE6  01                 [418] (89)
3FE7  00                 [419] (90)
3FE8  00                 [420] (90)
3FE9  F4                 [421] (90)
3FEA  01                 [422] (90)
3FEB  00                 [423] (90)
3FEC  00                 [424] (90)
3FED  F4                 [425] (90)
3FEE  01                 [426] (90)
3FEF  00                 [427] (90)
3FF0  00                 [428] (90)
3FF1  F4                 [429] (92)
3FF2  01                 [430] (92)
3FF3  00                 [431] (93)
3FF4  00                 [432] (93)
3FF5  F4                 [433] (93)
3FF6  01                 [434] (93)
3FF7  00                 [435] (93)
3FF8  00                 [436] (93)
3FF9  F5                 [437] (94)
3FFA  01                 [438] (94)
3FFB  00                 [439] (94)
3FFC  00                 [440] (97)
3FFD  F5                 [441] (97)
3FFE  01                 [442] (98)
3FFF  00                 [443] (98)
4000  00                 [444] (98)
4001  F5                 [445] (98)
4002  01                 [446] (98)
4003  00                 [447] (98)
4004  00                 [448] (98)
4005  F5                 [449] (99)
4006  01                 [450] (99)
4007  00                 [451] (99)
4008  00                 [452] (101)
4009  F5                 [453] (101)
400A  01                 [454] (101)
400B  00                 [455] (102)
400C  00                 [456] (102)
400D  F5                 [457] (102)
400E  01                 [458] (102)
400F  00                 [459] (102)
4010  00                 [460] (102)
4011  F5                 [461] (102)
4012  01                 [462] (102)
4013  00                 [463] (102)
4014  00                 [464] (102)
4015  F5                 [465] (103)
4016  01                 [466] (103)
4017  00                 [467] (103)
4018  00                 [468] (103)
4019  F6                 [469] (104)
401A  01                 [470] (104)
401B  00                 [471] (104)
401C  00                 [472] (104)
401D  F6                 [473] (104)
401E  01                 [474] (105)
401F  00                 [475] (105)
4020  00                 [476] (105)
4021  F7                 [477] (105)
4022  01                 [478] (105)
4023  00                 [479] (106)
4024  00                 [480] (106)
4025  F7                 [481] (106)
4026  01                 [482] (106)
4027  00                 [483] (107)
4028  00                 [484] (107)
4029  F7                 [485] (107)
402A  01                 [486] (108)
402B  00                 [487] (108)
402C  00                 [488] (109)
402D  F7                 [489] (109)
402E  01                 [490] (109)
402F  00                 [491] (109)
4030  00                 [492] (109)
4031  F7                 [493] (110)
4032  01                 [494] (110)
4033  00                 [495] (110)
4034  00                 [496] (110)
4035  F8                 [497] (110)
4036  01                 [498] (110)
4037  00                 [499] (110)
4038  00                 [500] (110)
4039  F8                 [501] (112)
403A  01                 [502] (112)
403B  00                 [503] (112)
403C  00                 [504] (112)
403D  F8                 [505] (112)
403E  01                 [506] (112)
403F  00                 [507] (112)
4040  00                 [508] (114)
4041  F8                 [509] (114)
4042  01                 [510] (114)
4043  00                 [511] (114)
4044  00                 [512] (114)
4045  F8                 [513] (114)
4046  01                 [514] (119)
                         * locals:
464D  00                 sizelocvars (0)
                         * upvalues:
464E  00                 sizeupvalues (0)
                         ** end of function **

                         
464F                     ** function [13] definition (level 2)
                         ** start of function **
464F  00                 string size (0)
                         source name: (none)
4651  04                 line defined (633)
4652  90                 last line defined (656)
4653  05                 nups (2)
4654  02                 numparams (2)
4655  02                 is_vararg (0)
4656  00                 maxstacksize (13)
                         * code:
4658  60                 sizecode (96)
4659  93000000           [01] getupval   2   0      
465D  8E004001           [02] gettable   2   2   256  ; -75093794
4661  D2008000           [03] move       3   1      
4665  13018000           [04] getupval   4   1      
4669  0E414002           [05] gettable   4   4   257  ; "tag"
466D  53018000           [06] getupval   5   1      
4671  4E81C002           [07] gettable   5   5   258  ; "absorbPerEnergy"
4675  A2800002           [08] call       2   4   2  
fail op	33
4679  21C04001           [09] tforloop   0       259  ; to [11] if exit
467D  1A000080           [10] jmp        1            ; to [12]
4681  1E008000           [11] return     0   1      
4685  D3008000           [12] getupval   3   1      
4689  CE80C001           [13] gettable   3   3   258  ; "absorbPerEnergy"
468D  CE808001           [14] gettable   3   3   2  
4691  DCC00082           [15] div        3   260 3    ; 0
4695  CDC00082           [16] sub        3   260 3    ; 0
4699  1D410100           [17] getglobal  4   5        ; gRegion
469D  24814102           [18] self       4   4   262  ; -1520831144
46A1  22810001           [19] call       4   2   2  
46A5  18010000           [20] test       4       0    ; to [22] if true
46A9  1AC00280           [21] jmp        12           ; to [34]
46AD  24C1C100           [22] self       4   1   263  ; -1917464545
46B1  22810001           [23] call       4   2   2  
46B5  24014202           [24] self       4   4   264  ; 991629753
46B9  9D410200           [25] getglobal  6   9        ; Game
46BD  8E814203           [26] gettable   6   6   266  ; "AVATAR_DAMAGE_RESISTANCE"
46C1  DD410200           [27] getglobal  7   9        ; Game
46C5  CEC1C203           [28] gettable   7   7   267  ; "SET"
46C9  12028001           [29] move       8   3      
46CD  46020005           [30] loadnil    9   10     
46D1  DD020300           [31] getglobal  11  12       ; Engine
46D5  CE42C305           [32] gettable   11  11  269  ; "DT_ENERGY_DRAIN"
46D9  22410004           [33] call       4   8   1  
46DD  2481C300           [34] self       4   1   270  ; -1421644046
46E1  9DC10300           [35] getglobal  6   15       ; selfShieldSpawner
46E5  DD010400           [36] getglobal  7   16       ; -332969190
46E9  19420400           [37] loadk      8   17       ; "GAME_R1_WEAPON1"
46ED  E2810001           [38] call       7   2   2  
46F1  1D820400           [39] getglobal  8   18       ; ZERO_VECTOR
46F5  5DC20400           [40] getglobal  9   19       ; ZERO_ROTATION
46F9  92028000           [41] move       10  1      
46FD  22818003           [42] call       4   7   2  
4701  5D010500           [43] getglobal  5   20       ; 1074689893
4705  92018000           [44] move       6   1      
4709  62810001           [45] call       5   2   2  
470D  58410000           [46] test       5       1    ; to [48] if false
4711  1A800480           [47] jmp        19           ; to [67]
4715  5D010500           [48] getglobal  5   20       ; 1074689893
4719  92010002           [49] move       6   4      
471D  62810001           [50] call       5   2   2  
4721  58410000           [51] test       5       1    ; to [53] if false
4725  1A400380           [52] jmp        14           ; to [67]
4729  6441C500           [53] self       5   1   277  ; 1511086594
472D  62810001           [54] call       5   2   2  
4731  58410000           [55] test       5       1    ; to [57] if false
4735  1A400280           [56] jmp        10           ; to [67]
4739  6481C500           [57] self       5   1   278  ; -214694299
473D  DD010300           [58] getglobal  7   12       ; Engine
4741  CEC1C503           [59] gettable   7   7   279  ; "PM_PARRY"
4745  62818001           [60] call       5   3   2  
4749  58010000           [61] test       5       0    ; to [63] if true
474D  1AC00080           [62] jmp        4            ; to [67]
4751  5D010600           [63] getglobal  5   24       ; 538022378
4755  99C10000           [64] loadk      6   3        ; 0
4759  62410001           [65] call       5   2   1  
475D  1AC0F97F           [66] jmp        -24          ; to [43]
4761  5D410100           [67] getglobal  5   5        ; gRegion
4765  6481C102           [68] self       5   5   262  ; -1520831144
4769  62810001           [69] call       5   2   2  
476D  58010000           [70] test       5       0    ; to [72] if true
4771  1A000480           [71] jmp        17           ; to [89]
4775  5D010500           [72] getglobal  5   20       ; 1074689893
4779  92018000           [73] move       6   1      
477D  62810001           [74] call       5   2   2  
4781  58410000           [75] test       5       1    ; to [77] if false
4785  1AC00280           [76] jmp        12           ; to [89]
4789  64C1C100           [77] self       5   1   263  ; -1917464545
478D  62810001           [78] call       5   2   2  
4791  6441C602           [79] self       5   5   281  ; -233482841
4795  DD410200           [80] getglobal  7   9        ; Game
4799  CE81C203           [81] gettable   7   7   266  ; "AVATAR_DAMAGE_RESISTANCE"
479D  1D420200           [82] getglobal  8   9        ; Game
47A1  0EC24204           [83] gettable   8   8   267  ; "SET"
47A5  52028001           [84] move       9   3      
47A9  86028005           [85] loadnil    10  11     
47AD  1D030300           [86] getglobal  12  12       ; Engine
47B1  0E434306           [87] gettable   12  12  269  ; "DT_ENERGY_DRAIN"
47B5  62410004           [88] call       5   8   1  
47B9  5D010500           [89] getglobal  5   20       ; 1074689893
47BD  92010002           [90] move       6   4      
47C1  62810001           [91] call       5   2   2  
47C5  58410000           [92] test       5       1    ; to [94] if false
47C9  1A400080           [93] jmp        2            ; to [96]
47CD  64814602           [94] self       5   4   282  ; -725453761
47D1  62410001           [95] call       5   2   1  
47D5  1E008000           [96] return     0   1      
                         * constants:
47D9  1B                 sizek (27)
47DA  01                 const type 3
47DB  DE2886FB           const [0]: (-75093794)
47DF  04                 const type 4
47E0  04                 string size (4)
47E1  74616700           "tag\0"
                         const [1]: "tag"
47E5  04                 const type 4
47E6  10                 string size (16)
47E7  6162736F72625065+  "absorbPe"
47EF  72456E6572677900   "rEnergy\0"
                         const [2]: "absorbPerEnergy"
47F7  03                 const type 3
47F8  00000000           const [3]: (0)
47FC  03                 const type 3
47FD  0000803F           const [4]: (0)
4801  04                 const type 4
4802  08                 string size (8)
4803  67526567696F6E00   "gRegion\0"
                         const [5]: "gRegion"
480B  01                 const type 3
480C  58F559A5           const [6]: (-1520831144)
4810  01                 const type 3
4811  1FD0B58D           const [7]: (-1917464545)
4815  01                 const type 3
4816  B9111B3B           const [8]: (991629753)
481A  04                 const type 4
481B  05                 string size (5)
481C  47616D6500         "Game\0"
                         const [9]: "Game"
4821  04                 const type 4
4822  19                 string size (25)
4823  4156415441525F44+  "AVATAR_D"
482B  414D4147455F5245+  "AMAGE_RE"
4833  53495354414E4345+  "SISTANCE"
483B  00                 "\0"
                         const [10]: "AVATAR_DAMAGE_RESISTANCE"
483C  04                 const type 4
483D  04                 string size (4)
483E  53455400           "SET\0"
                         const [11]: "SET"
4842  04                 const type 4
4843  07                 string size (7)
4844  456E67696E6500     "Engine\0"
                         const [12]: "Engine"
484B  04                 const type 4
484C  10                 string size (16)
484D  44545F454E455247+  "DT_ENERG"
4855  595F445241494E00   "Y_DRAIN\0"
                         const [13]: "DT_ENERGY_DRAIN"
485D  01                 const type 3
485E  F26E43AB           const [14]: (-1421644046)
4862  04                 const type 4
4863  12                 string size (18)
4864  73656C6653686965+  "selfShie"
486C  6C64537061776E65+  "ldSpawne"
4874  7200               "r\0"
                         const [15]: "selfShieldSpawner"
4876  01                 const type 3
4877  1A4B27EC           const [16]: (-332969190)
487B  04                 const type 4
487C  10                 string size (16)
487D  47414D455F52315F+  "GAME_R1_"
4885  574541504F4E3100   "WEAPON1\0"
                         const [17]: "GAME_R1_WEAPON1"
488D  04                 const type 4
488E  0C                 string size (12)
488F  5A45524F5F564543+  "ZERO_VEC"
4897  544F5200           "TOR\0"
                         const [18]: "ZERO_VECTOR"
489B  04                 const type 4
489C  0E                 string size (14)
489D  5A45524F5F524F54+  "ZERO_ROT"
48A5  4154494F4E00       "ATION\0"
                         const [19]: "ZERO_ROTATION"
48AB  01                 const type 3
48AC  65770E40           const [20]: (1074689893)
48B0  01                 const type 3
48B1  025A115A           const [21]: (1511086594)
48B5  01                 const type 3
48B6  650634F3           const [22]: (-214694299)
48BA  04                 const type 4
48BB  09                 string size (9)
48BC  504D5F5041525259+  "PM_PARRY"
48C4  00                 "\0"
                         const [23]: "PM_PARRY"
48C5  01                 const type 3
48C6  EA911120           const [24]: (538022378)
48CA  01                 const type 3
48CB  A75515F2           const [25]: (-233482841)
48CF  01                 const type 3
48D0  3F74C2D4           const [26]: (-725453761)
                         * functions:
48D4  00                 sizep (0)
                         * lines:
48D5  60                 sizelineinfo (96)
                         [pc] (line)
48D6  7A                 [01] (122)
48D7  02                 [02] (122)
48D8  00                 [03] (122)
48D9  00                 [04] (122)
48DA  7A                 [05] (122)
48DB  02                 [06] (122)
48DC  00                 [07] (122)
48DD  00                 [08] (122)
48DE  7A                 [09] (123)
48DF  02                 [10] (123)
48E0  00                 [11] (124)
48E1  00                 [12] (127)
48E2  7A                 [13] (127)
48E3  02                 [14] (127)
48E4  00                 [15] (127)
48E5  00                 [16] (127)
48E6  7A                 [17] (-128)
48E7  02                 [18] (-128)
48E8  00                 [19] (-128)
48E9  00                 [20] (-128)
48EA  7A                 [21] (-128)
48EB  02                 [22] (-127)
48EC  00                 [23] (-127)
48ED  00                 [24] (-127)
48EE  7A                 [25] (-127)
48EF  02                 [26] (-127)
48F0  00                 [27] (-127)
48F1  00                 [28] (-127)
48F2  7A                 [29] (-127)
48F3  02                 [30] (-127)
48F4  00                 [31] (-127)
48F5  00                 [32] (-127)
48F6  7B                 [33] (-127)
48F7  02                 [34] (-124)
48F8  00                 [35] (-124)
48F9  00                 [36] (-124)
48FA  7B                 [37] (-124)
48FB  02                 [38] (-124)
48FC  00                 [39] (-124)
48FD  00                 [40] (-124)
48FE  7C                 [41] (-124)
48FF  02                 [42] (-124)
4900  00                 [43] (-123)
4901  00                 [44] (-123)
4902  7F                 [45] (-123)
4903  02                 [46] (-123)
4904  00                 [47] (-123)
4905  00                 [48] (-123)
4906  7F                 [49] (-123)
4907  02                 [50] (-123)
4908  00                 [51] (-123)
4909  00                 [52] (-123)
490A  7F                 [53] (-123)
490B  02                 [54] (-123)
490C  00                 [55] (-123)
490D  00                 [56] (-123)
490E  7F                 [57] (-123)
490F  02                 [58] (-123)
4910  00                 [59] (-123)
4911  00                 [60] (-123)
4912  7F                 [61] (-123)
4913  02                 [62] (-123)
4914  00                 [63] (-122)
4915  00                 [64] (-122)
4916  80                 [65] (-122)
4917  02                 [66] (-122)
4918  00                 [67] (-119)
4919  00                 [68] (-119)
491A  80                 [69] (-119)
491B  02                 [70] (-119)
491C  00                 [71] (-119)
491D  00                 [72] (-119)
491E  80                 [73] (-119)
491F  02                 [74] (-119)
4920  00                 [75] (-119)
4921  00                 [76] (-119)
4922  80                 [77] (-118)
4923  02                 [78] (-118)
4924  00                 [79] (-118)
4925  00                 [80] (-118)
4926  80                 [81] (-118)
4927  02                 [82] (-118)
4928  00                 [83] (-118)
4929  00                 [84] (-118)
492A  81                 [85] (-118)
492B  02                 [86] (-118)
492C  00                 [87] (-118)
492D  00                 [88] (-118)
492E  81                 [89] (-115)
492F  02                 [90] (-115)
4930  00                 [91] (-115)
4931  00                 [92] (-115)
4932  81                 [93] (-115)
4933  02                 [94] (-114)
4934  00                 [95] (-114)
4935  00                 [96] (-112)
                         * locals:
4A56  00                 sizelocvars (0)
                         * upvalues:
4A57  00                 sizeupvalues (0)
                         ** end of function **

                         * lines:
4A59  02                 sizelineinfo (313)
                         [pc] (line)
4A5A  1D                 [001] (29)
4A5B  00                 [002] (29)
4A5C  00                 [003] (29)
4A5D  00                 [004] (30)
4A5E  1D                 [005] (30)
4A5F  00                 [006] (30)
4A60  00                 [007] (36)
4A61  00                 [008] (37)
4A62  1D                 [009] (37)
4A63  00                 [010] (37)
4A64  00                 [011] (37)
4A65  00                 [012] (38)
4A66  1E                 [013] (38)
4A67  00                 [014] (38)
4A68  00                 [015] (38)
4A69  00                 [016] (38)
4A6A  1E                 [017] (38)
4A6B  00                 [018] (38)
4A6C  00                 [019] (39)
4A6D  00                 [020] (39)
4A6E  1E                 [021] (39)
4A6F  00                 [022] (39)
4A70  00                 [023] (39)
4A71  00                 [024] (39)
4A72  24                 [025] (39)
4A73  00                 [026] (45)
4A74  00                 [027] (46)
4A75  00                 [028] (46)
4A76  25                 [029] (46)
4A77  00                 [030] (46)
4A78  00                 [031] (47)
4A79  00                 [032] (47)
4A7A  25                 [033] (47)
4A7B  00                 [034] (47)
4A7C  00                 [035] (47)
4A7D  00                 [036] (47)
4A7E  25                 [037] (47)
4A7F  00                 [038] (47)
4A80  00                 [039] (47)
4A81  00                 [040] (50)
4A82  25                 [041] (51)
4A83  00                 [042] (51)
4A84  00                 [043] (51)
4A85  00                 [044] (51)
4A86  26                 [045] (52)
4A87  00                 [046] (52)
4A88  00                 [047] (52)
4A89  00                 [048] (52)
4A8A  26                 [049] (52)
4A8B  00                 [050] (52)
4A8C  00                 [051] (52)
4A8D  00                 [052] (53)
4A8E  26                 [053] (53)
4A8F  00                 [054] (53)
4A90  00                 [055] (53)
4A91  00                 [056] (53)
4A92  26                 [057] (53)
4A93  00                 [058] (53)
4A94  00                 [059] (54)
4A95  00                 [060] (54)
4A96  26                 [061] (54)
4A97  00                 [062] (54)
4A98  00                 [063] (54)
4A99  00                 [064] (54)
4A9A  26                 [065] (54)
4A9B  00                 [066] (60)
4A9C  00                 [067] (61)
4A9D  00                 [068] (61)
4A9E  26                 [069] (61)
4A9F  00                 [070] (61)
4AA0  00                 [071] (62)
4AA1  00                 [072] (62)
4AA2  27                 [073] (62)
4AA3  00                 [074] (62)
4AA4  00                 [075] (62)
4AA5  00                 [076] (62)
4AA6  27                 [077] (62)
4AA7  00                 [078] (62)
4AA8  00                 [079] (62)
4AA9  00                 [080] (63)
4AAA  27                 [081] (63)
4AAB  00                 [082] (63)
4AAC  00                 [083] (63)
4AAD  00                 [084] (63)
4AAE  27                 [085] (63)
4AAF  00                 [086] (63)
4AB0  00                 [087] (63)
4AB1  00                 [088] (63)
4AB2  27                 [089] (66)
4AB3  00                 [090] (67)
4AB4  00                 [091] (67)
4AB5  00                 [092] (67)
4AB6  27                 [093] (67)
4AB7  00                 [094] (68)
4AB8  00                 [095] (68)
4AB9  00                 [096] (68)
4ABA  27                 [097] (68)
4ABB  00                 [098] (68)
4ABC  00                 [099] (68)
4ABD  00                 [100] (68)
4ABE  2D                 [101] (69)
4ABF  00                 [102] (69)
4AC0  00                 [103] (69)
4AC1  00                 [104] (69)
4AC2  2E                 [105] (69)
4AC3  00                 [106] (69)
4AC4  00                 [107] (69)
4AC5  00                 [108] (75)
4AC6  2E                 [109] (76)
4AC7  00                 [110] (76)
4AC8  00                 [111] (76)
4AC9  00                 [112] (76)
4ACA  2E                 [113] (77)
4ACB  00                 [114] (77)
4ACC  00                 [115] (77)
4ACD  00                 [116] (77)
4ACE  2E                 [117] (77)
4ACF  00                 [118] (77)
4AD0  00                 [119] (77)
4AD1  00                 [120] (78)
4AD2  2F                 [121] (78)
4AD3  00                 [122] (78)
4AD4  00                 [123] (78)
4AD5  00                 [124] (78)
4AD6  2F                 [125] (78)
4AD7  00                 [126] (78)
4AD8  00                 [127] (81)
4AD9  00                 [128] (82)
4ADA  2F                 [129] (82)
4ADB  00                 [130] (82)
4ADC  00                 [131] (82)
4ADD  00                 [132] (83)
4ADE  2F                 [133] (83)
4ADF  00                 [134] (83)
4AE0  00                 [135] (83)
4AE1  00                 [136] (83)
4AE2  2F                 [137] (83)
4AE3  00                 [138] (83)
4AE4  00                 [139] (83)
4AE5  00                 [140] (83)
4AE6  2F                 [141] (89)
4AE7  00                 [142] (90)
4AE8  00                 [143] (90)
4AE9  00                 [144] (90)
4AEA  2F                 [145] (90)
4AEB  00                 [146] (91)
4AEC  00                 [147] (91)
4AED  00                 [148] (91)
4AEE  2F                 [149] (91)
4AEF  00                 [150] (91)
4AF0  00                 [151] (91)
4AF1  00                 [152] (91)
4AF2  2F                 [153] (94)
4AF3  00                 [154] (95)
4AF4  00                 [155] (95)
4AF5  00                 [156] (95)
4AF6  32                 [157] (95)
4AF7  00                 [158] (96)
4AF8  00                 [159] (96)
4AF9  00                 [160] (96)
4AFA  33                 [161] (96)
4AFB  00                 [162] (96)
4AFC  00                 [163] (96)
4AFD  00                 [164] (96)
4AFE  33                 [165] (97)
4AFF  00                 [166] (97)
4B00  00                 [167] (97)
4B01  00                 [168] (97)
4B02  33                 [169] (97)
4B03  00                 [170] (97)
4B04  00                 [171] (97)
4B05  00                 [172] (98)
4B06  33                 [173] (98)
4B07  00                 [174] (98)
4B08  00                 [175] (98)
4B09  00                 [176] (98)
4B0A  34                 [177] (98)
4B0B  00                 [178] (98)
4B0C  00                 [179] (104)
4B0D  00                 [180] (105)
4B0E  34                 [181] (105)
4B0F  00                 [182] (105)
4B10  00                 [183] (105)
4B11  00                 [184] (106)
4B12  34                 [185] (106)
4B13  00                 [186] (106)
4B14  00                 [187] (106)
4B15  00                 [188] (106)
4B16  34                 [189] (106)
4B17  00                 [190] (106)
4B18  00                 [191] (109)
4B19  00                 [192] (110)
4B1A  34                 [193] (110)
4B1B  00                 [194] (110)
4B1C  00                 [195] (110)
4B1D  00                 [196] (111)
4B1E  34                 [197] (111)
4B1F  00                 [198] (111)
4B20  00                 [199] (111)
4B21  00                 [200] (111)
4B22  34                 [201] (111)
4B23  00                 [202] (111)
4B24  00                 [203] (114)
4B25  00                 [204] (115)
4B26  35                 [205] (115)
4B27  00                 [206] (115)
4B28  00                 [207] (115)
4B29  00                 [208] (116)
4B2A  35                 [209] (117)
4B2B  00                 [210] (117)
4B2C  00                 [211] (117)
4B2D  00                 [212] (117)
4B2E  35                 [213] (117)
4B2F  00                 [214] (117)
4B30  00                 [215] (117)
4B31  00                 [216] (118)
4B32  35                 [217] (118)
4B33  00                 [218] (118)
4B34  00                 [219] (118)
4B35  00                 [220] (118)
4B36  35                 [221] (118)
4B37  00                 [222] (118)
4B38  00                 [223] (-127)
4B39  00                 [224] (-127)
4B3A  35                 [225] (-127)
4B3B  00                 [226] (121)
4B3C  00                 [227] (-119)
4B3D  00                 [228] (-119)
4B3E  35                 [229] (-119)
4B3F  00                 [230] (-125)
4B40  00                 [231] (-111)
4B41  00                 [232] (-111)
4B42  36                 [233] (-111)
4B43  00                 [234] (-117)
4B44  00                 [235] (-50)
4B45  00                 [236] (-50)
4B46  36                 [237] (-50)
4B47  00                 [238] (-50)
4B48  00                 [239] (-50)
4B49  00                 [240] (-50)
4B4A  36                 [241] (-50)
4B4B  00                 [242] (-50)
4B4C  00                 [243] (-50)
4B4D  00                 [244] (-50)
4B4E  36                 [245] (-50)
4B4F  00                 [246] (-109)
4B50  00                 [247] (-9)
4B51  00                 [248] (-9)
4B52  36                 [249] (17)
4B53  00                 [250] (17)
4B54  00                 [251] (17)
4B55  00                 [252] (45)
4B56  36                 [253] (45)
4B57  00                 [254] (107)
4B58  00                 [255] (107)
4B59  00                 [256] (107)
4B5A  36                 [257] (107)
4B5B  00                 [258] (107)
4B5C  00                 [259] (107)
4B5D  00                 [260] (107)
4B5E  3C                 [261] (107)
4B5F  00                 [262] (107)
4B60  00                 [263] (107)
4B61  00                 [264] (107)
4B62  3D                 [265] (107)
4B63  00                 [266] (107)
4B64  00                 [267] (107)
4B65  00                 [268] (107)
4B66  3D                 [269] (107)
4B67  00                 [270] (107)
4B68  00                 [271] (47)
4B69  00                 [272] (109)
4B6A  3D                 [273] (110)
4B6B  00                 [274] (111)
4B6C  00                 [275] (121)
4B6D  00                 [276] (121)
4B6E  3D                 [277] (121)
4B6F  00                 [278] (121)
4B70  00                 [279] (113)
4B71  00                 [280] (123)
4B72  3E                 [281] (-123)
4B73  00                 [282] (-123)
4B74  00                 [283] (-123)
4B75  00                 [284] (124)
4B76  3E                 [285] (-99)
4B77  00                 [286] (-99)
4B78  00                 [287] (-99)
4B79  00                 [288] (-99)
4B7A  3E                 [289] (-121)
4B7B  00                 [290] (-56)
4B7C  00                 [291] (-56)
4B7D  00                 [292] (-56)
4B7E  3E                 [293] (-97)
4B7F  00                 [294] (119)
4B80  00                 [295] (119)
4B81  00                 [296] (119)
4B82  3E                 [297] (119)
4B83  00                 [298] (119)
4B84  00                 [299] (119)
4B85  00                 [300] (119)
4B86  3E                 [301] (119)
4B87  00                 [302] (119)
4B88  00                 [303] (119)
4B89  00                 [304] (119)
4B8A  3E                 [305] (119)
4B8B  00                 [306] (119)
4B8C  00                 [307] (-54)
4B8D  00                 [308] (-112)
4B8E  3E                 [309] (-112)
4B8F  00                 [310] (-112)
4B90  00                 [311] (-112)
4B91  00                 [312] (121)
4B92  3E                 [313] (-112)
                         * locals:
4F3E  00                 sizelocvars (0)
                         * upvalues:
4F3F  00                 sizeupvalues (0)
                         ** end of function **

4F40                     ** end of chunk **
