1	C:\wlua_dump\path\Lotus\Scripts\WeaponAttachmentsElementalEffects.lua
Pos   Hex Data           Description or Code
------------------------------------------------------------------------
0000                     ** source chunk: C:\wlua_dump\path\Lotus\Scripts\WeaponAttachmentsElementalEffects.lua
                         ** global header start **
0000  7F                 header signature: ""
0001  00                 version (major:minor hex digits)
0002  00                 format (0=official)
0003  00                 endianness (1=little endian)
0004  00                 size of int (bytes)
0005  00                 size of size_t (bytes)
0006  02                 size of Instruction (bytes)
0007  13                 size of number (bytes)
0008  4F                 integral (1=integral)
479
                         * number type: single
                         * x86 standard (32-bit, little endian, doubles)
                         ** global header end **
DT_IMPACT
DT_PUNCTURE
DT_SLASH
DT_FIRE
DT_FREEZE
DT_ELECTRICITY
DT_POISON
DT_EXPLOSION
DT_RADIATION
DT_GAS
DT_MAGNETIC
DT_VIRAL
DT_CORROSIVE
/Lotus/Powersuits/Harlequin/IllusionMirrorAvatar
Lotus.Scripts.Effects.EffectsColorUtilities
ElementFxLights
gWeaponAttachmentType
Engine
THIRD_PERSON
OFF_HAND
gGameRules
gLotusHubGameRulesType
gLotusAttractModeGameRulesType
MELEE
DT_CORROSIVE
damageTypeOfThisLight
                         
0001                     ** function [0] definition (level 1)
                         ** start of function **
0001  00                 string size (0)
                         source name: (none)
0002  00                 line defined (0)
0003  00                 last line defined (0)
0004  00                 nups (0)
0005  00                 numparams (0)
0006  02                 is_vararg (2)
0007  13                 maxstacksize (19)
                         * code:
0008  4F                 sizecode (79)
0009  0B008006           [01] newtable   0   13  0    ; array=13, hash=0
000D  59000000           [02] loadk      1   0        ; "DT_IMPACT"
0011  99400000           [03] loadk      2   1        ; "DT_PUNCTURE"
0015  D9800000           [04] loadk      3   2        ; "DT_SLASH"
0019  19C10000           [05] loadk      4   3        ; "DT_FIRE"
001D  59010100           [06] loadk      5   4        ; "DT_FREEZE"
0021  99410100           [07] loadk      6   5        ; "DT_ELECTRICITY"
0025  D9810100           [08] loadk      7   6        ; "DT_POISON"
0029  19C20100           [09] loadk      8   7        ; "DT_EXPLOSION"
002D  59020200           [10] loadk      9   8        ; "DT_RADIATION"
0031  99420200           [11] loadk      10  9        ; "DT_GAS"
0035  D9820200           [12] loadk      11  10       ; "DT_MAGNETIC"
0039  19C30200           [13] loadk      12  11       ; "DT_VIRAL"
003D  59030300           [14] loadk      13  12       ; "DT_CORROSIVE"
0041  1B408006           [15] setlist    0   13  1    ; index 1 to 13
0045  4B000006           [16] newtable   1   12  0    ; array=12, hash=0
0049  9D400300           [17] getglobal  2   13       ; -1247440829
004D  A2808000           [18] call       2   1   2  
0051  DD400300           [19] getglobal  3   13       ; -1247440829
0055  E2808000           [20] call       3   1   2  
0059  1D410300           [21] getglobal  4   13       ; -1247440829
005D  22818000           [22] call       4   1   2  
0061  5D410300           [23] getglobal  5   13       ; -1247440829
0065  99810300           [24] loadk      6   14       ; 0
0069  D9C10300           [25] loadk      7   15       ; 0
006D  19020400           [26] loadk      8   16       ; 0
0071  59820300           [27] loadk      9   14       ; 0
0075  62818002           [28] call       5   5   2  
0079  9D410300           [29] getglobal  6   13       ; -1247440829
007D  A2818000           [30] call       6   1   2  
0081  DD410300           [31] getglobal  7   13       ; -1247440829
0085  19420400           [32] loadk      8   17       ; 0
0089  59820400           [33] loadk      9   18       ; 0
008D  99820300           [34] loadk      10  14       ; 0
0091  D9820300           [35] loadk      11  14       ; 0
0095  E2818002           [36] call       7   5   2  
0099  1D420300           [37] getglobal  8   13       ; -1247440829
009D  22828000           [38] call       8   1   2  
00A1  5D420300           [39] getglobal  9   13       ; -1247440829
00A5  99820300           [40] loadk      10  14       ; 0
00A9  D9C20300           [41] loadk      11  15       ; 0
00AD  19030400           [42] loadk      12  16       ; 0
00B1  59830300           [43] loadk      13  14       ; 0
00B5  62828002           [44] call       9   5   2  
00B9  9D420300           [45] getglobal  10  13       ; -1247440829
00BD  D9C20400           [46] loadk      11  19       ; 0
00C1  19030500           [47] loadk      12  20       ; 0
00C5  59430500           [48] loadk      13  21       ; 0
00C9  99830300           [49] loadk      14  14       ; 0
00CD  A2828002           [50] call       10  5   2  
00D1  DD420300           [51] getglobal  11  13       ; -1247440829
00D5  E2828000           [52] call       11  1   2  
00D9  1D430300           [53] getglobal  12  13       ; -1247440829
00DD  59C30400           [54] loadk      13  19       ; 0
00E1  99C30300           [55] loadk      14  15       ; 0
00E5  D9830500           [56] loadk      15  22       ; 0
00E9  19840300           [57] loadk      16  14       ; 0
00ED  22838002           [58] call       12  5   2  
00F1  5D430300           [59] getglobal  13  13       ; -1247440829
00F5  62838000           [60] call       13  1   2  
00F9  9D430300           [61] getglobal  14  13       ; -1247440829
00FD  D9830500           [62] loadk      15  22       ; 0
0101  19840300           [63] loadk      16  14       ; 0
0105  59C40500           [64] loadk      17  23       ; 0
0109  99840300           [65] loadk      18  14       ; 0
010D  A2038002           [66] call       14  5   0  
0111  5B400000           [67] setlist    1   0   1    ; index 1 to top
0115  9D000600           [68] getglobal  2   24       ; 738251817
0119  D9400600           [69] loadk      3   25       ; "/Lotus/Powersuits/Harlequin/IllusionMirrorAvatar"
011D  A2800001           [70] call       2   2   2  
0121  DD800600           [71] getglobal  3   26       ; 849075268
0125  19C10600           [72] loadk      4   27       ; "Lotus.Scripts.Effects.EffectsColorUtilities"
0129  E2800001           [73] call       3   2   2  
012D  25010000           [74] closure    4   0      
0131  12000001           [75] move       0   2      
0135  12008001           [76] move       0   3      
0139  20010700           [77] setglobal  4   28       ; ElementFxLights
013D  20410700           [78] setglobal  4   29       ; -1627054725
0141  1E008000           [79] return     0   1      
                         * constants:
0145  1E                 sizek (30)
0146  04                 const type 4
0147  0A                 string size (10)
0148  44545F494D504143+  "DT_IMPAC"
0150  5400               "T\0"
                         const [0]: "DT_IMPACT"
0152  04                 const type 4
0153  0C                 string size (12)
0154  44545F50554E4354+  "DT_PUNCT"
015C  55524500           "URE\0"
                         const [1]: "DT_PUNCTURE"
0160  04                 const type 4
0161  09                 string size (9)
0162  44545F534C415348+  "DT_SLASH"
016A  00                 "\0"
                         const [2]: "DT_SLASH"
016B  04                 const type 4
016C  08                 string size (8)
016D  44545F4649524500   "DT_FIRE\0"
                         const [3]: "DT_FIRE"
0175  04                 const type 4
0176  0A                 string size (10)
0177  44545F465245455A+  "DT_FREEZ"
017F  4500               "E\0"
                         const [4]: "DT_FREEZE"
0181  04                 const type 4
0182  0F                 string size (15)
0183  44545F454C454354+  "DT_ELECT"
018B  52494349545900     "RICITY\0"
                         const [5]: "DT_ELECTRICITY"
0192  04                 const type 4
0193  0A                 string size (10)
0194  44545F504F49534F+  "DT_POISO"
019C  4E00               "N\0"
                         const [6]: "DT_POISON"
019E  04                 const type 4
019F  0D                 string size (13)
01A0  44545F4558504C4F+  "DT_EXPLO"
01A8  53494F4E00         "SION\0"
                         const [7]: "DT_EXPLOSION"
01AD  04                 const type 4
01AE  0D                 string size (13)
01AF  44545F5241444941+  "DT_RADIA"
01B7  54494F4E00         "TION\0"
                         const [8]: "DT_RADIATION"
01BC  04                 const type 4
01BD  07                 string size (7)
01BE  44545F47415300     "DT_GAS\0"
                         const [9]: "DT_GAS"
01C5  04                 const type 4
01C6  0C                 string size (12)
01C7  44545F4D41474E45+  "DT_MAGNE"
01CF  54494300           "TIC\0"
                         const [10]: "DT_MAGNETIC"
01D3  04                 const type 4
01D4  09                 string size (9)
01D5  44545F564952414C+  "DT_VIRAL"
01DD  00                 "\0"
                         const [11]: "DT_VIRAL"
01DE  04                 const type 4
01DF  0D                 string size (13)
01E0  44545F434F52524F+  "DT_CORRO"
01E8  5349564500         "SIVE\0"
                         const [12]: "DT_CORROSIVE"
01ED  01                 const type 3
01EE  4390A5B5           const [13]: (-1247440829)
01F2  03                 const type 3
01F3  00007F43           const [14]: (0)
01F7  03                 const type 3
01F8  00002643           const [15]: (0)
01FC  03                 const type 3
01FD  00001C42           const [16]: (0)
0201  03                 const type 3
0202  0000A042           const [17]: (0)
0206  03                 const type 3
0207  0000AC42           const [18]: (0)
020B  03                 const type 3
020C  0000C042           const [19]: (0)
0210  03                 const type 3
0211  00004143           const [20]: (0)
0215  03                 const type 3
0216  00003443           const [21]: (0)
021A  03                 const type 3
021B  00003943           const [22]: (0)
021F  03                 const type 3
0220  00003842           const [23]: (0)
0224  01                 const type 3
0225  29D4002C           const [24]: (738251817)
0229  04                 const type 4
022A  31                 string size (49)
022B  2F4C6F7475732F50+  "/Lotus/P"
0233  6F77657273756974+  "owersuit"
023B  732F4861726C6571+  "s/Harleq"
0243  75696E2F496C6C75+  "uin/Illu"
024B  73696F6E4D697272+  "sionMirr"
0253  6F72417661746172+  "orAvatar"
025B  00                 "\0"
                         const [25]: "/Lotus/Powersuits/Harlequin/IllusionMirrorAvatar"
025C  01                 const type 3
025D  44DC9B32           const [26]: (849075268)
0261  04                 const type 4
0262  2C                 string size (44)
0263  4C6F7475732E5363+  "Lotus.Sc"
026B  72697074732E4566+  "ripts.Ef"
0273  66656374732E4566+  "fects.Ef"
027B  6665637473436F6C+  "fectsCol"
0283  6F725574696C6974+  "orUtilit"
028B  69657300           "ies\0"
                         const [27]: "Lotus.Scripts.Effects.EffectsColorUtilities"
028F  04                 const type 4
0290  10                 string size (16)
0291  456C656D656E7446+  "ElementF"
0299  784C696768747300   "xLights\0"
                         const [28]: "ElementFxLights"
02A1  01                 const type 3
02A2  7B1D059F           const [29]: (-1627054725)
                         * functions:
02A6  01                 sizep (1)
                         
02A7                     ** function [0] definition (level 2)
                         ** start of function **
02A7  00                 string size (0)
                         source name: (none)
02A8  27                 line defined (39)
02A9  7C                 last line defined (124)
02AA  02                 nups (2)
02AB  01                 numparams (1)
02AC  00                 is_vararg (0)
02AD  18                 maxstacksize (24)
                         * code:
02AF  01                 sizecode (155)
02B0  5D000000           [001] getglobal  1   0        ; 538022378
02B4  99400000           [002] loadk      2   1        ; 0
02B8  62400001           [003] call       1   2   1  
02BC  64804000           [004] self       1   0   258  ; 129677183
02C0  62800001           [005] call       1   2   2  
02C4  9DC00000           [006] getglobal  2   3        ; 1074689893
02C8  D2008000           [007] move       3   1      
02CC  A2800001           [008] call       2   2   2  
02D0  98000000           [009] test       2       0    ; to [11] if true
02D4  1A000080           [010] jmp        1            ; to [12]
02D8  1E008000           [011] return     0   1      
02DC  A400C100           [012] self       2   1   260  ; -704974830
02E0  A2800001           [013] call       2   2   2  
02E4  DDC00000           [014] getglobal  3   3        ; 1074689893
02E8  12010001           [015] move       4   2      
02EC  E2800001           [016] call       3   2   2  
02F0  D8000000           [017] test       3       0    ; to [19] if true
02F4  1A000080           [018] jmp        1            ; to [20]
02F8  1E008000           [019] return     0   1      
02FC  E4404101           [020] self       3   2   261  ; -1957065004
0300  53010000           [021] getupval   5   0      
0304  E2808001           [022] call       3   3   2  
0308  D8000000           [023] test       3       0    ; to [25] if true
030C  1A800080           [024] jmp        3            ; to [28]
0310  E4804100           [025] self       3   0   262  ; 1493508408
0314  E2400001           [026] call       3   2   1  
0318  1E008000           [027] return     0   1      
031C  C6008001           [028] loadnil    3   3      
0320  2441C100           [029] self       4   1   261  ; -1957065004
0324  9DC10100           [030] getglobal  6   7        ; gWeaponAttachmentType
0328  22818001           [031] call       4   3   2  
032C  18010000           [032] test       4       0    ; to [34] if true
0330  1A400080           [033] jmp        2            ; to [36]
0334  D2008000           [034] move       3   1      
0338  1A800080           [035] jmp        3            ; to [39]
033C  2401C200           [036] self       4   1   264  ; -1870903749
0340  22810001           [037] call       4   2   2  
0344  D2000002           [038] move       3   4      
0348  1DC10000           [039] getglobal  4   3        ; 1074689893
034C  52018001           [040] move       5   3      
0350  22810001           [041] call       4   2   2  
0354  18410000           [042] test       4       1    ; to [44] if false
0358  1A000180           [043] jmp        5            ; to [49]
035C  2441C101           [044] self       4   3   261  ; -1957065004
0360  9DC10100           [045] getglobal  6   7        ; gWeaponAttachmentType
0364  22818001           [046] call       4   3   2  
0368  18410000           [047] test       4       1    ; to [49] if false
036C  1A000080           [048] jmp        1            ; to [50]
0370  1E008000           [049] return     0   1      
0374  2441C201           [050] self       4   3   265  ; 421792552
0378  22810001           [051] call       4   2   2  
037C  5DC10000           [052] getglobal  5   3        ; 1074689893
0380  92010002           [053] move       6   4      
0384  62810001           [054] call       5   2   2  
0388  58010000           [055] test       5       0    ; to [57] if true
038C  1A000080           [056] jmp        1            ; to [58]
0390  1E008000           [057] return     0   1      
0394  64814202           [058] self       5   4   266  ; -479621877
0398  DDC10200           [059] getglobal  7   11       ; Engine
039C  CE01C303           [060] gettable   7   7   268  ; "THIRD_PERSON"
03A0  1DC20200           [061] getglobal  8   11       ; Engine
03A4  0E424304           [062] gettable   8   8   269  ; "OFF_HAND"
03A8  62810002           [063] call       5   4   2  
03AC  9DC10000           [064] getglobal  6   3        ; 1074689893
03B0  D2018002           [065] move       7   5      
03B4  A2810001           [066] call       6   2   2  
03B8  98410000           [067] test       6       1    ; to [69] if false
03BC  1AC00980           [068] jmp        40           ; to [109]
fail op	35
03C0  23408101           [069] close      0  
03C4  1A400980           [070] jmp        38           ; to [109]
03C8  9DC10200           [071] getglobal  6   11       ; Engine
03CC  8E814303           [072] gettable   6   6   270  ; 1767719465
03D0  A2818000           [073] call       6   1   2  
03D4  98410000           [074] test       6       1    ; to [76] if false
03D8  1A800180           [075] jmp        7            ; to [83]
03DC  93018000           [076] getupval   6   1      
03E0  8EC14303           [077] gettable   6   6   271  ; -1824732170
03E4  A2818000           [078] call       6   1   2  
fail op	21
03E8  55004403           [079] concat     1   6   272
03EC  1A000080           [080] jmp        1            ; to [82]
03F0  97410000           [081] loadbool   6   0   1    ; false, to [83]
03F4  97018000           [082] loadbool   6   1   0    ; true
03F8  98010000           [083] test       6       0    ; to [85] if true
03FC  1AC00580           [084] jmp        24           ; to [109]
0400  DDC10000           [085] getglobal  7   3        ; 1074689893
0404  1D420400           [086] getglobal  8   17       ; gGameRules
0408  E2810001           [087] call       7   2   2  
040C  D8410000           [088] test       7       1    ; to [90] if false
0410  1AC00380           [089] jmp        16           ; to [106]
0414  DD410400           [090] getglobal  7   17       ; gGameRules
0418  E441C103           [091] self       7   7   261  ; -1957065004
041C  5D820400           [092] getglobal  9   18       ; gLotusHubGameRulesType
0420  E2818001           [093] call       7   3   2  
0424  D8410000           [094] test       7       1    ; to [96] if false
0428  1A400180           [095] jmp        6            ; to [102]
042C  DD410400           [096] getglobal  7   17       ; gGameRules
0430  E441C103           [097] self       7   7   261  ; -1957065004
0434  5DC20400           [098] getglobal  9   19       ; gLotusAttractModeGameRulesType
0438  E2818001           [099] call       7   3   2  
043C  D8010000           [100] test       7       0    ; to [102] if true
0440  1AC00080           [101] jmp        4            ; to [106]
0444  E4814100           [102] self       7   0   262  ; 1493508408
0448  E2410001           [103] call       7   2   1  
044C  1E008000           [104] return     0   1      
0450  1A800080           [105] jmp        3            ; to [109]
0454  E4014500           [106] self       7   0   276  ; 2079161041
0458  59420500           [107] loadk      9   21       ; 0
045C  E2418001           [108] call       7   3   1  
0460  E4814502           [109] self       7   4   278  ; 361010367
0464  57028000           [110] loadbool   9   1   0    ; true
0468  9DC20200           [111] getglobal  10  11       ; Engine
046C  8EC24505           [112] gettable   10  10  279  ; "MELEE"
0470  E2810002           [113] call       7   4   2  
0474  19420000           [114] loadk      8   1        ; 0
0478  59420000           [115] loadk      9   1        ; 0
047C  99420500           [116] loadk      10  21       ; 0
0480  DDC20200           [117] getglobal  11  11       ; Engine
0484  CE02C605           [118] gettable   11  11  280  ; "DT_CORROSIVE"
0488  19030400           [119] loadk      12  16       ; 0
048C  90820180           [120] forprep    10  7        ; to [128]
0490  A443C603           [121] self       14  7   281  ; -1221595085
0494  12048006           [122] move       16  13     
0498  A2838001           [123] call       14  3   2  
fail op	21
049C  15800304           [124] concat     0   8   14 
04A0  1A400080           [125] jmp        2            ; to [128]
04A4  12020007           [126] move       8   14     
04A8  52028006           [127] move       9   13     
04AC  94C2FD7F           [128] forloop    10  -8       ; to [121] if loop
04B0  D9430000           [129] loadk      15  1        ; 0
04B4  19420000           [130] loadk      8   1        ; 0
04B8  19440500           [131] loadk      16  21       ; 0
04BC  5DC40200           [132] getglobal  17  11       ; Engine
04C0  4E04C608           [133] gettable   17  17  280  ; "DT_CORROSIVE"
04C4  99040400           [134] loadk      18  16       ; 0
04C8  10040280           [135] forprep    16  9        ; to [145]
fail op	35
04CC  63408209           [136] close      1  
04D0  1A800180           [137] jmp        7            ; to [145]
04D4  2445C603           [138] self       20  7   281  ; -1221595085
04D8  92058009           [139] move       22  19     
04DC  22858001           [140] call       20  3   2  
fail op	21
04E0  15000504           [141] concat     0   8   20 
04E4  1A400080           [142] jmp        2            ; to [145]
04E8  1202000A           [143] move       8   20     
04EC  D2038009           [144] move       15  19     
04F0  1444FD7F           [145] forloop    16  -10      ; to [136] if loop
04F4  5D850600           [146] getglobal  21  26       ; damageTypeOfThisLight
fail op	35
04F8  63408504           [147] close      1  
04FC  1A800080           [148] jmp        3            ; to [152]
0500  64854100           [149] self       21  0   262  ; 1493508408
0504  62450001           [150] call       21  2   1  
0508  1E008000           [151] return     0   1      
050C  64C54602           [152] self       21  4   283  ; -2035091121
0510  D2050000           [153] move       23  0      
0514  62458001           [154] call       21  3   1  
0518  1E008000           [155] return     0   1      
                         * constants:
051C  1C                 sizek (28)
051D  01                 const type 3
051E  EA911120           const [0]: (538022378)
0522  03                 const type 3
0523  00000000           const [1]: (0)
0527  01                 const type 3
0528  7FB7BA07           const [2]: (129677183)
052C  01                 const type 3
052D  65770E40           const [3]: (1074689893)
0531  01                 const type 3
0532  12F0FAD5           const [4]: (-704974830)
0536  01                 const type 3
0537  D48E598B           const [5]: (-1957065004)
053B  01                 const type 3
053C  38210559           const [6]: (1493508408)
0540  04                 const type 4
0541  16                 string size (22)
0542  67576561706F6E41+  "gWeaponA"
054A  74746163686D656E+  "ttachmen"
0552  745479706500       "tType\0"
                         const [7]: "gWeaponAttachmentType"
0558  01                 const type 3
0559  3B467C90           const [8]: (-1870903749)
055D  01                 const type 3
055E  280B2419           const [9]: (421792552)
0562  01                 const type 3
0563  0B8D69E3           const [10]: (-479621877)
0567  04                 const type 4
0568  07                 string size (7)
0569  456E67696E6500     "Engine\0"
                         const [11]: "Engine"
0570  04                 const type 4
0571  0D                 string size (13)
0572  54484952445F5045+  "THIRD_PE"
057A  52534F4E00         "RSON\0"
                         const [12]: "THIRD_PERSON"
057F  04                 const type 4
0580  09                 string size (9)
0581  4F46465F48414E44+  "OFF_HAND"
0589  00                 "\0"
                         const [13]: "OFF_HAND"
058A  01                 const type 3
058B  29425D69           const [14]: (1767719465)
058F  01                 const type 3
0590  F6CB3C93           const [15]: (-1824732170)
0594  03                 const type 3
0595  0000803F           const [16]: (0)
0599  04                 const type 4
059A  0B                 string size (11)
059B  6747616D6552756C+  "gGameRul"
05A3  657300             "es\0"
                         const [17]: "gGameRules"
05A6  04                 const type 4
05A7  17                 string size (23)
05A8  674C6F7475734875+  "gLotusHu"
05B0  6247616D6552756C+  "bGameRul"
05B8  65735479706500     "esType\0"
                         const [18]: "gLotusHubGameRulesType"
05BF  04                 const type 4
05C0  1F                 string size (31)
05C1  674C6F7475734174+  "gLotusAt"
05C9  74726163744D6F64+  "tractMod"
05D1  6547616D6552756C+  "eGameRul"
05D9  65735479706500     "esType\0"
                         const [19]: "gLotusAttractModeGameRulesType"
05E0  01                 const type 3
05E1  D17AED7B           const [20]: (2079161041)
05E5  03                 const type 3
05E6  00004040           const [21]: (0)
05EA  01                 const type 3
05EB  BF948415           const [22]: (361010367)
05EF  04                 const type 4
05F0  06                 string size (6)
05F1  4D454C454500       "MELEE\0"
                         const [23]: "MELEE"
05F7  04                 const type 4
05F8  0D                 string size (13)
05F9  44545F434F52524F+  "DT_CORRO"
0601  5349564500         "SIVE\0"
                         const [24]: "DT_CORROSIVE"
0606  01                 const type 3
0607  33F02FB7           const [25]: (-1221595085)
060B  04                 const type 4
060C  16                 string size (22)
060D  64616D6167655479+  "damageTy"
0615  70654F6654686973+  "peOfThis"
061D  4C6967687400       "Light\0"
                         const [26]: "damageTypeOfThisLight"
0623  01                 const type 3
0624  4FF9B286           const [27]: (-2035091121)
                         * functions:
0628  00                 sizep (0)
                         * lines:
062A  01                 sizelineinfo (155)
                         [pc] (line)
062B  28                 [001] (40)
062C  00                 [002] (40)
062D  00                 [003] (40)
062E  00                 [004] (41)
062F  28                 [005] (41)
0630  00                 [006] (42)
0631  00                 [007] (42)
0632  00                 [008] (42)
0633  28                 [009] (42)
0634  00                 [010] (42)
0635  00                 [011] (43)
0636  00                 [012] (45)
0637  29                 [013] (45)
0638  00                 [014] (46)
0639  00                 [015] (46)
063A  00                 [016] (46)
063B  29                 [017] (46)
063C  00                 [018] (46)
063D  00                 [019] (47)
063E  00                 [020] (49)
063F  2A                 [021] (49)
0640  00                 [022] (49)
0641  00                 [023] (49)
0642  00                 [024] (49)
0643  2A                 [025] (50)
0644  00                 [026] (50)
0645  00                 [027] (51)
0646  00                 [028] (54)
0647  2A                 [029] (55)
0648  00                 [030] (55)
0649  00                 [031] (55)
064A  00                 [032] (55)
064B  2A                 [033] (55)
064C  00                 [034] (56)
064D  00                 [035] (56)
064E  00                 [036] (58)
064F  2A                 [037] (58)
0650  00                 [038] (58)
0651  00                 [039] (60)
0652  00                 [040] (60)
0653  2B                 [041] (60)
0654  00                 [042] (60)
0655  00                 [043] (60)
0656  00                 [044] (60)
0657  2D                 [045] (60)
0658  00                 [046] (60)
0659  00                 [047] (60)
065A  00                 [048] (60)
065B  2D                 [049] (61)
065C  00                 [050] (63)
065D  00                 [051] (63)
065E  00                 [052] (64)
065F  2E                 [053] (64)
0660  00                 [054] (64)
0661  00                 [055] (64)
0662  00                 [056] (64)
0663  2E                 [057] (65)
0664  00                 [058] (68)
0665  00                 [059] (68)
0666  00                 [060] (68)
0667  2E                 [061] (68)
0668  00                 [062] (68)
0669  00                 [063] (68)
066A  00                 [064] (69)
066B  2E                 [065] (69)
066C  00                 [066] (69)
066D  00                 [067] (69)
066E  00                 [068] (69)
066F  2E                 [069] (69)
0670  00                 [070] (69)
0671  00                 [071] (70)
0672  00                 [072] (70)
0673  2F                 [073] (70)
0674  00                 [074] (70)
0675  00                 [075] (70)
0676  00                 [076] (70)
0677  31                 [077] (70)
0678  00                 [078] (70)
0679  00                 [079] (70)
067A  00                 [080] (70)
067B  31                 [081] (70)
067C  00                 [082] (70)
067D  00                 [083] (71)
067E  00                 [084] (71)
067F  31                 [085] (72)
0680  00                 [086] (72)
0681  00                 [087] (72)
0682  00                 [088] (72)
0683  31                 [089] (72)
0684  00                 [090] (72)
0685  00                 [091] (72)
0686  00                 [092] (72)
0687  31                 [093] (72)
0688  00                 [094] (72)
0689  00                 [095] (72)
068A  00                 [096] (72)
068B  32                 [097] (72)
068C  00                 [098] (72)
068D  00                 [099] (72)
068E  00                 [100] (72)
068F  32                 [101] (72)
0690  00                 [102] (73)
0691  00                 [103] (73)
0692  00                 [104] (74)
0693  33                 [105] (74)
0694  00                 [106] (76)
0695  00                 [107] (76)
0696  00                 [108] (76)
0697  36                 [109] (82)
0698  00                 [110] (82)
0699  00                 [111] (82)
069A  00                 [112] (82)
069B  37                 [113] (82)
069C  00                 [114] (83)
069D  00                 [115] (84)
069E  00                 [116] (85)
069F  37                 [117] (85)
06A0  00                 [118] (85)
06A1  00                 [119] (85)
06A2  00                 [120] (85)
06A3  37                 [121] (86)
06A4  00                 [122] (86)
06A5  00                 [123] (86)
06A6  00                 [124] (87)
06A7  37                 [125] (87)
06A8  00                 [126] (88)
06A9  00                 [127] (89)
06AA  00                 [128] (85)
06AB  37                 [129] (94)
06AC  00                 [130] (95)
06AD  00                 [131] (96)
06AE  00                 [132] (96)
06AF  38                 [133] (96)
06B0  00                 [134] (96)
06B1  00                 [135] (96)
06B2  00                 [136] (97)
06B3  38                 [137] (97)
06B4  00                 [138] (98)
06B5  00                 [139] (98)
06B6  00                 [140] (98)
06B7  3A                 [141] (99)
06B8  00                 [142] (99)
06B9  00                 [143] (100)
06BA  00                 [144] (101)
06BB  3A                 [145] (96)
06BC  00                 [146] (107)
06BD  00                 [147] (107)
06BE  00                 [148] (107)
06BF  3A                 [149] (108)
06C0  00                 [150] (108)
06C1  00                 [151] (109)
06C2  00                 [152] (112)
06C3  3C                 [153] (112)
06C4  00                 [154] (112)
06C5  00                 [155] (124)
                         * locals:
0897  00                 sizelocvars (0)
                         * upvalues:
0898  00                 sizeupvalues (0)
                         ** end of function **

                         * lines:
0899  4F                 sizelineinfo (79)
                         [pc] (line)
089A  05                 [01] (5)
089B  00                 [02] (6)
089C  00                 [03] (7)
089D  00                 [04] (8)
089E  06                 [05] (9)
089F  00                 [06] (10)
08A0  00                 [07] (11)
08A1  00                 [08] (12)
08A2  07                 [09] (13)
08A3  00                 [10] (14)
08A4  00                 [11] (15)
08A5  00                 [12] (16)
08A6  08                 [13] (17)
08A7  00                 [14] (19)
08A8  00                 [15] (19)
08A9  00                 [16] (21)
08AA  09                 [17] (22)
08AB  00                 [18] (22)
08AC  00                 [19] (23)
08AD  00                 [20] (23)
08AE  0A                 [21] (24)
08AF  00                 [22] (24)
08B0  00                 [23] (25)
08B1  00                 [24] (25)
08B2  0B                 [25] (25)
08B3  00                 [26] (25)
08B4  00                 [27] (25)
08B5  00                 [28] (25)
08B6  0C                 [29] (26)
08B7  00                 [30] (26)
08B8  00                 [31] (27)
08B9  00                 [32] (27)
08BA  0D                 [33] (27)
08BB  00                 [34] (27)
08BC  00                 [35] (27)
08BD  00                 [36] (27)
08BE  0E                 [37] (28)
08BF  00                 [38] (28)
08C0  00                 [39] (29)
08C1  00                 [40] (29)
08C2  0F                 [41] (29)
08C3  00                 [42] (29)
08C4  00                 [43] (29)
08C5  00                 [44] (29)
08C6  10                 [45] (30)
08C7  00                 [46] (30)
08C8  00                 [47] (30)
08C9  00                 [48] (30)
08CA  11                 [49] (30)
08CB  00                 [50] (30)
08CC  00                 [51] (31)
08CD  00                 [52] (31)
08CE  13                 [53] (32)
08CF  00                 [54] (32)
08D0  00                 [55] (32)
08D1  00                 [56] (32)
08D2  13                 [57] (32)
08D3  00                 [58] (32)
08D4  00                 [59] (33)
08D5  00                 [60] (33)
08D6  15                 [61] (34)
08D7  00                 [62] (34)
08D8  00                 [63] (34)
08D9  00                 [64] (34)
08DA  16                 [65] (34)
08DB  00                 [66] (34)
08DC  00                 [67] (35)
08DD  00                 [68] (36)
08DE  16                 [69] (36)
08DF  00                 [70] (36)
08E0  00                 [71] (37)
08E1  00                 [72] (37)
08E2  17                 [73] (37)
08E3  00                 [74] (124)
08E4  00                 [75] (124)
08E5  00                 [76] (124)
08E6  17                 [77] (124)
08E7  00                 [78] (39)
08E8  00                 [79] (124)
                         * locals:
09D6  00                 sizelocvars (0)
                         * upvalues:
09D7  00                 sizeupvalues (0)
                         ** end of function **

09D8                     ** end of chunk **
