1	C:\wlua_dump\path\Lotus\Scripts\WeaponAttachmentsOperatorBeamWeapon.lua
Pos   Hex Data           Description or Code
------------------------------------------------------------------------
0000                     ** source chunk: C:\wlua_dump\path\Lotus\Scripts\WeaponAttachmentsOperatorBeamWeapon.lua
                         ** global header start **
0000  7F                 header signature: ""
0001  00                 version (major:minor hex digits)
0002  00                 format (0=official)
0003  00                 endianness (1=little endian)
0004  00                 size of int (bytes)
0005  00                 size of size_t (bytes)
0006  02                 size of Instruction (bytes)
0007  02                 size of number (bytes)
0008  0B                 integral (1=integral)
411
                         * number type: single
                         * x86 standard (32-bit, little endian, doubles)
                         ** global header end **
UnlitAtten
ChargedBeam
AmpBeam
gLotusOperatorAvatarType
Engine
PM_HELD
MAIN_HAND
bank
Lotus_Game
V_SCALES
smallBeamTypes
EMPTY_SYMBOL
ZERO_VECTOR
ZERO_ROTATION
table
gRegion
energyDrainRate
waveHeight
isDisabledVersion
gLensFlareType
energyDrainEnabled
gGameRules
gLotusPhotoBoothGameRulesType
NotifyAbilityActivateError
/Lotus/Language/Game/AbilityNeedMoreEnergy
gRegion
energyDrainRate
gGameRules
NotifyAbilityActivateError
/Lotus/Language/Game/AbilityNeedMoreEnergy
                         
0001                     ** function [0] definition (level 1)
                         ** start of function **
0001  00                 string size (0)
                         source name: (none)
0002  00                 line defined (0)
0003  00                 last line defined (0)
0004  00                 nups (0)
0005  00                 numparams (0)
0006  02                 is_vararg (2)
0007  02                 maxstacksize (2)
                         * code:
0008  0B                 sizecode (11)
0009  1D000000           [01] getglobal  0   0        ; -332969190
000D  59400000           [02] loadk      1   1        ; "UnlitAtten"
0011  22800001           [03] call       0   2   2  
0015  65000000           [04] closure    1   0      
0019  12000000           [05] move       0   0      
001D  60800000           [06] setglobal  1   2        ; ChargedBeam
0021  60C00000           [07] setglobal  1   3        ; -1278577432
0025  65400000           [08] closure    1   1      
0029  60000100           [09] setglobal  1   4        ; AmpBeam
002D  60400100           [10] setglobal  1   5        ; 1071692991
0031  1E008000           [11] return     0   1      
                         * constants:
0035  06                 sizek (6)
0036  01                 const type 3
0037  1A4B27EC           const [0]: (-332969190)
003B  04                 const type 4
003C  0B                 string size (11)
003D  556E6C6974417474+  "UnlitAtt"
0045  656E00             "en\0"
                         const [1]: "UnlitAtten"
0048  04                 const type 4
0049  0C                 string size (12)
004A  4368617267656442+  "ChargedB"
0052  65616D00           "eam\0"
                         const [2]: "ChargedBeam"
0056  01                 const type 3
0057  E874CAB3           const [3]: (-1278577432)
005B  04                 const type 4
005C  08                 string size (8)
005D  416D704265616D00   "AmpBeam\0"
                         const [4]: "AmpBeam"
0065  01                 const type 3
0066  BFBCE03F           const [5]: (1071692991)
                         * functions:
006A  02                 sizep (2)
                         
006B                     ** function [0] definition (level 2)
                         ** start of function **
006B  00                 string size (0)
                         source name: (none)
006C  0C                 line defined (12)
006D  7A                 last line defined (122)
006E  01                 nups (1)
006F  01                 numparams (1)
0070  00                 is_vararg (0)
0071  26                 maxstacksize (38)
                         * code:
0073  02                 sizecode (310)
0074  64004000           [001] self       1   0   256  ; -704974830
0078  62800001           [002] call       1   2   2  
007C  9D400000           [003] getglobal  2   1        ; 1074689893
0080  D2008000           [004] move       3   1      
0084  A2800001           [005] call       2   2   2  
0088  98400000           [006] test       2       1    ; to [8] if false
008C  1A000180           [007] jmp        5            ; to [13]
0090  A480C000           [008] self       2   1   258  ; -1957065004
0094  1DC10000           [009] getglobal  4   3        ; gLotusOperatorAvatarType
0098  A2808001           [010] call       2   3   2  
009C  98400000           [011] test       2       1    ; to [13] if false
00A0  1A000080           [012] jmp        1            ; to [14]
00A4  1E008000           [013] return     0   1      
00A8  A400C100           [014] self       2   1   260  ; -452063099
00AC  1D410100           [015] getglobal  4   5        ; Engine
00B0  0E814102           [016] gettable   4   4   262  ; "PM_HELD"
00B4  57010000           [017] loadbool   5   0   0    ; false
00B8  A2400002           [018] call       2   4   1  
00BC  A4C0C100           [019] self       2   1   263  ; -1917464545
00C0  A2800001           [020] call       2   2   2  
00C4  E4004201           [021] self       3   2   264  ; 1769516121
00C8  E2800001           [022] call       3   2   2  
00CC  24414201           [023] self       4   2   265  ; 1856017039
00D0  9D410100           [024] getglobal  6   5        ; Engine
00D4  8E814203           [025] gettable   6   6   266  ; "MAIN_HAND"
00D8  22818001           [026] call       4   3   2  
00DC  64C14200           [027] self       5   0   267  ; 196800914
00E0  62810001           [028] call       5   2   2  
00E4  A4014301           [029] self       6   2   268  ; -2079759465
00E8  A2810001           [030] call       6   2   2  
00EC  DD410300           [031] getglobal  7   13       ; -304944129
00F0  12028002           [032] move       8   5      
00F4  52020003           [033] move       9   6      
00F8  E2818001           [034] call       7   3   2  
00FC  1DC20300           [035] getglobal  8   15       ; -1941280958
0100  59020400           [036] loadk      9   16       ; 0
0104  99420400           [037] loadk      10  17       ; 0
0108  22828001           [038] call       8   3   2  
010C  CC010287           [039] settable   7   270 8    ; "bank"
0110  06020004           [040] loadnil    8   8      
0114  5D820400           [041] getglobal  9   18       ; 562846818
0118  8D420103           [042] sub        10  6   5  
011C  62820001           [043] call       9   2   2  
0120  5CC2C404           [044] div        9   9   275  ; 0
0124  9D420000           [045] getglobal  10  1        ; 1074689893
0128  D2020004           [046] move       11  8      
012C  A2820001           [047] call       10  2   2  
0130  98420000           [048] test       10      1    ; to [50] if false
0134  1A800180           [049] jmp        7            ; to [57]
0138  A4024504           [050] self       10  8   276  ; -786111647
013C  1D430500           [051] getglobal  12  21       ; Lotus_Game
0140  0E834506           [052] gettable   12  12  278  ; "V_SCALES"
0144  59C30500           [053] loadk      13  23       ; 0
0148  99C30500           [054] loadk      14  23       ; 0
014C  D2038004           [055] move       15  9      
0150  A2420003           [056] call       10  6   1  
0154  8B020000           [057] newtable   10  0   0    ; array=0, hash=0
0158  D9C20500           [058] loadk      11  23       ; 0
015C  1D030600           [059] getglobal  12  24       ; smallBeamTypes
0160  0A030006           [060] len        12  12     
0164  59C30500           [061] loadk      13  23       ; 0
0168  D0420480           [062] forprep    11  18       ; to [81]
016C  E4434600           [063] self       15  0   281  ; -1421644046
0170  5D040600           [064] getglobal  17  24       ; smallBeamTypes
0174  4E848308           [065] gettable   17  17  14 
0178  9D840600           [066] getglobal  18  26       ; EMPTY_SYMBOL
017C  DDC40600           [067] getglobal  19  27       ; ZERO_VECTOR
0180  1D050700           [068] getglobal  20  28       ; ZERO_ROTATION
0184  52050002           [069] move       21  4      
0188  E2838003           [070] call       15  7   2  
018C  1D440000           [071] getglobal  16  1        ; 1074689893
0190  52048007           [072] move       17  15     
0194  22840001           [073] call       16  2   2  
0198  18440000           [074] test       16      1    ; to [76] if false
019C  1A000180           [075] jmp        5            ; to [81]
01A0  1D440700           [076] getglobal  16  29       ; table
01A4  0E844708           [077] gettable   16  16  286  ; -431682403
01A8  52040005           [078] move       17  10     
01AC  92048007           [079] move       18  15     
01B0  22448001           [080] call       16  3   1  
01B4  D402FB7F           [081] forloop    11  -19      ; to [63] if loop
01B8  06040008           [082] loadnil    16  16     
01BC  64C4C700           [083] self       17  1   287  ; -1201586349
01C0  62840001           [084] call       17  2   2  
01C4  9D040800           [085] getglobal  18  32       ; gRegion
01C8  A4444809           [086] self       18  18  289  ; -1520831144
01CC  A2840001           [087] call       18  2   2  
01D0  E4844802           [088] self       19  4   290  ; -2007349844
01D4  E2840001           [089] call       19  2   2  
01D8  2485C000           [090] self       20  1   258  ; -1957065004
01DC  9DC50000           [091] getglobal  22  3        ; gLotusOperatorAvatarType
01E0  22858001           [092] call       20  3   2  
01E4  18050000           [093] test       20      0    ; to [95] if true
01E8  1A400080           [094] jmp        2            ; to [97]
01EC  24C5C800           [095] self       20  1   291  ; -1921329643
01F0  22850001           [096] call       20  2   2  
01F4  18050000           [097] test       20      0    ; to [99] if true
01F8  1AC00180           [098] jmp        8            ; to [107]
01FC  6405C900           [099] self       21  1   292  ; 337092777
0200  62450001           [100] call       21  2   1  
0204  5D450900           [101] getglobal  21  37       ; energyDrainRate
0208  A485C900           [102] self       22  1   294  ; -2002712127
020C  A2850001           [103] call       22  2   2  
0210  4385850A           [104] add        21  21  22 
0214  60450900           [105] setglobal  21  37       ; energyDrainRate
0218  1A800180           [106] jmp        7            ; to [114]
021C  64C5C901           [107] self       21  3   295  ; 142650380
0220  62450001           [108] call       21  2   1  
0224  5D450900           [109] getglobal  21  37       ; energyDrainRate
0228  A405CA01           [110] self       22  3   296  ; 1747770159
022C  A2850001           [111] call       22  2   2  
0230  4385850A           [112] add        21  21  22 
0234  60450900           [113] setglobal  21  37       ; energyDrainRate
0238  5D450A00           [114] getglobal  21  41       ; 572299008
023C  9DC50300           [115] getglobal  22  15       ; -1941280958
0240  DD850A00           [116] getglobal  23  42       ; waveHeight
fail op	0
0244  C005800B           [117] move       23  23     
0248  1D860A00           [118] getglobal  24  42       ; waveHeight
024C  A2858001           [119] call       22  3   2  
0250  DDC50300           [120] getglobal  23  15       ; -1941280958
0254  1D860A00           [121] getglobal  24  42       ; waveHeight
fail op	0
0258  0006000C           [122] move       24  24     
025C  5D860A00           [123] getglobal  25  42       ; waveHeight
0260  E2858001           [124] call       23  3   2  
0264  1DC60300           [125] getglobal  24  15       ; -1941280958
0268  5D860A00           [126] getglobal  25  42       ; waveHeight
fail op	0
026C  4006800C           [127] move       25  25     
0270  9D860A00           [128] getglobal  26  42       ; waveHeight
0274  22068001           [129] call       24  3   0  
0278  62850000           [130] call       21  0   2  
027C  99C50A00           [131] loadk      22  43       ; 0
0280  DD450000           [132] getglobal  23  1        ; 1074689893
0284  12060000           [133] move       24  0      
0288  E2850001           [134] call       23  2   2  
028C  D8450000           [135] test       23      1    ; to [137] if false
0290  1AC02880           [136] jmp        164          ; to [301]
0294  DD450000           [137] getglobal  23  1        ; 1074689893
0298  12068000           [138] move       24  1      
029C  E2850001           [139] call       23  2   2  
02A0  D8450000           [140] test       23      1    ; to [142] if false
02A4  1A802780           [141] jmp        159          ; to [301]
02A8  E4C54200           [142] self       23  0   267  ; 196800914
02AC  E2850001           [143] call       23  2   2  
02B0  5201800B           [144] move       5   23     
02B4  E4054301           [145] self       23  2   268  ; -2079759465
02B8  E2850001           [146] call       23  2   2  
02BC  9201800B           [147] move       6   23     
02C0  DD850400           [148] getglobal  23  18       ; 562846818
02C4  0D460103           [149] sub        24  6   5  
02C8  E2850001           [150] call       23  2   2  
02CC  5CC2C40B           [151] div        9   23  275  ; 0
02D0  DD450000           [152] getglobal  23  1        ; 1074689893
02D4  12060004           [153] move       24  8      
02D8  E2850001           [154] call       23  2   2  
02DC  D8450000           [155] test       23      1    ; to [157] if false
02E0  1A400380           [156] jmp        14           ; to [171]
02E4  E4054504           [157] self       23  8   276  ; -786111647
02E8  5D460500           [158] getglobal  25  21       ; Lotus_Game
02EC  4E86C50C           [159] gettable   25  25  278  ; "V_SCALES"
02F0  99060B00           [160] loadk      26  44       ; -113
02F4  D9060B00           [161] loadk      27  44       ; -113
02F8  04478296           [162] mul        28  301 9    ; 0
02FC  E2450003           [163] call       23  6   1  
0300  E4854B04           [164] self       23  8   302  ; -1484030041
0304  5DC60600           [165] getglobal  25  27       ; ZERO_VECTOR
0308  9D460300           [166] getglobal  26  13       ; -304944129
030C  D2068002           [167] move       27  5      
0310  12070003           [168] move       28  6      
0314  A2068001           [169] call       26  3   0  
0318  E2450000           [170] call       23  0   1  
031C  D9C50500           [171] loadk      23  23       ; 0
0320  0A060005           [172] len        24  10     
0324  59C60500           [173] loadk      25  23       ; 0
0328  D0C50080           [174] forprep    23  4        ; to [179]
032C  CE860605           [175] gettable   27  10  26 
0330  E4C6CB0D           [176] self       27  27  303  ; 1311555023
0334  52070003           [177] move       29  6      
0338  E2468001           [178] call       27  3   1  
033C  D485FE7F           [179] forloop    23  -5       ; to [175] if loop
0340  DD060C00           [180] getglobal  27  48       ; isDisabledVersion
0344  D8060000           [181] test       27      0    ; to [183] if true
0348  1AC00880           [182] jmp        36           ; to [219]
034C  DD460C00           [183] getglobal  27  49       ; 1668611480
0350  1D870C00           [184] getglobal  28  50       ; -1045091108
0354  5DC70C00           [185] getglobal  29  51       ; 1491452635
0358  62878000           [186] call       29  1   2  
035C  4407CD0E           [187] mul        29  29  308  ; 0
0360  22870001           [188] call       28  2   2  
0364  0D474D0E           [189] sub        28  28  309  ; -51
0368  04874D0E           [190] mul        28  28  310  ; 0
036C  59C70A00           [191] loadk      29  43       ; 0
0370  99C70500           [192] loadk      30  23       ; 0
0374  E2860002           [193] call       27  4   2  
0378  24C74D00           [194] self       28  0   311  ; -412619612
037C  84C7069C           [195] mul        30  312 27   ; 10
0380  22478001           [196] call       28  3   1  
0384  1D470000           [197] getglobal  28  1        ; 1074689893
0388  52070008           [198] move       29  16     
038C  22870001           [199] call       28  2   2  
0390  18470000           [200] test       28      1    ; to [202] if false
0394  1AC00080           [201] jmp        4            ; to [206]
0398  24474E08           [202] self       28  16  313  ; -1107555868
039C  9207800D           [203] move       30  27     
03A0  22478001           [204] call       28  3   1  
03A4  1AC00080           [205] jmp        4            ; to [210]
03A8  24874E00           [206] self       28  0   314  ; -1625438872
03AC  9DC70E00           [207] getglobal  30  59       ; gLensFlareType
03B0  22878001           [208] call       28  3   2  
03B4  1204000E           [209] move       16  28     
03B8  19C70500           [210] loadk      28  23       ; 0
03BC  4A070005           [211] len        29  10     
03C0  99C70500           [212] loadk      30  23       ; 0
03C4  10C70080           [213] forprep    28  4        ; to [218]
03C8  0EC80705           [214] gettable   32  10  31 
03CC  24C84D10           [215] self       32  32  311  ; -412619612
03D0  84C8069E           [216] mul        34  316 27   ; 10
03D4  22488001           [217] call       32  3   1  
03D8  1487FE7F           [218] forloop    28  -5       ; to [214] if loop
03DC  1D480F00           [219] getglobal  32  61       ; energyDrainEnabled
03E0  18080000           [220] test       32      0    ; to [222] if true
03E4  1AC01180           [221] jmp        72           ; to [294]
03E8  1D480000           [222] getglobal  32  1        ; 1074689893
03EC  5D880F00           [223] getglobal  33  62       ; gGameRules
03F0  22880001           [224] call       32  2   2  
03F4  18480000           [225] test       32      1    ; to [227] if false
03F8  1A400180           [226] jmp        6            ; to [233]
03FC  1D880F00           [227] getglobal  32  62       ; gGameRules
0400  24884010           [228] self       32  32  258  ; -1957065004
0404  9DC80F00           [229] getglobal  34  63       ; gLotusPhotoBoothGameRulesType
0408  22888001           [230] call       32  3   2  
040C  18480000           [231] test       32      1    ; to [233] if false
0410  1A000F80           [232] jmp        61           ; to [294]
0414  19C80A00           [233] loadk      32  43       ; 0
0418  18050000           [234] test       20      0    ; to [236] if true
041C  1A000380           [235] jmp        13           ; to [249]
0420  6408D000           [236] self       33  1   320  ; -1651413375
0424  DD480900           [237] getglobal  35  37       ; energyDrainRate
fail op	0
0428  C0088011           [238] move       35  35     
042C  1D491000           [239] getglobal  36  65       ; 1289681407
0430  22898000           [240] call       36  1   2  
0434  C4088911           [241] mul        35  35  36 
0438  62488001           [242] call       33  3   1  
043C  6408C900           [243] self       33  1   292  ; 337092777
0440  62480001           [244] call       33  2   1  
0444  6488D000           [245] self       33  1   322  ; 1370982198
0448  62880001           [246] call       33  2   2  
044C  12088010           [247] move       32  33     
0450  1AC00280           [248] jmp        12           ; to [261]
0454  64C8D001           [249] self       33  3   323  ; -338878752
0458  DD480900           [250] getglobal  35  37       ; energyDrainRate
fail op	0
045C  C0088011           [251] move       35  35     
0460  1D491000           [252] getglobal  36  65       ; 1289681407
0464  22898000           [253] call       36  1   2  
0468  C4088911           [254] mul        35  35  36 
046C  62488001           [255] call       33  3   1  
0470  64C8C901           [256] self       33  3   295  ; 142650380
0474  62480001           [257] call       33  2   1  
0478  6408D101           [258] self       33  3   324  ; 1722612532
047C  62880001           [259] call       33  2   2  
0480  12088010           [260] move       32  33     
0484  58440000           [261] test       17      1    ; to [263] if false
0488  1A400080           [262] jmp        2            ; to [265]
048C  98040000           [263] test       18      0    ; to [265] if true
0490  1A000780           [264] jmp        29           ; to [294]
fail op	33
0494  21C00410           [265] tforloop   0       19   ; to [267] if exit
0498  1A800680           [266] jmp        27           ; to [294]
049C  58040000           [267] test       17      0    ; to [269] if true
04A0  1A000480           [268] jmp        17           ; to [286]
04A4  5D480000           [269] getglobal  33  1        ; 1074689893
04A8  9D880F00           [270] getglobal  34  62       ; gGameRules
04AC  62880001           [271] call       33  2   2  
04B0  58480000           [272] test       33      1    ; to [274] if false
04B4  1AC00280           [273] jmp        12           ; to [286]
04B8  5D880F00           [274] getglobal  33  62       ; gGameRules
04BC  6448D110           [275] self       33  33  325  ; -2029400442
04C0  62880001           [276] call       33  2   2  
04C4  9D480000           [277] getglobal  34  1        ; 1074689893
04C8  D2088010           [278] move       35  33     
04CC  A2880001           [279] call       34  2   2  
04D0  98480000           [280] test       34      1    ; to [282] if false
04D4  1AC00080           [281] jmp        4            ; to [286]
04D8  A488D110           [282] self       34  33  326  ; 1167009705
04DC  19C91100           [283] loadk      36  71       ; "NotifyAbilityActivateError"
04E0  59091200           [284] loadk      37  72       ; "/Lotus/Language/Game/AbilityNeedMoreEnergy"
04E4  A2480002           [285] call       34  4   1  
04E8  A4485201           [286] self       34  2   329  ; 402026009
04EC  A2480001           [287] call       34  2   1  
04F0  A4885201           [288] self       34  2   330  ; 1815503922
04F4  17090000           [289] loadbool   36  0   0    ; false
04F8  A2488001           [290] call       34  3   1  
04FC  A4885201           [291] self       34  2   330  ; 1815503922
0500  17098000           [292] loadbool   36  1   0    ; true
0504  A2488001           [293] call       34  3   1  
0508  9D481000           [294] getglobal  34  65       ; 1289681407
050C  A2888000           [295] call       34  1   2  
0510  8385080B           [296] add        22  22  34 
0514  9DC81200           [297] getglobal  34  75       ; 538022378
0518  D9C80A00           [298] loadk      35  43       ; 0
051C  A2480001           [299] call       34  2   1  
0520  1A80D57F           [300] jmp        -169         ; to [132]
0524  9D480000           [301] getglobal  34  1        ; 1074689893
0528  D2080000           [302] move       35  0      
052C  A2880001           [303] call       34  2   2  
0530  98480000           [304] test       34      1    ; to [306] if false
0534  1AC00080           [305] jmp        4            ; to [310]
0538  A4084500           [306] self       34  0   276  ; -786111647
053C  13090000           [307] getupval   36  0      
0540  59C90A00           [308] loadk      37  43       ; 0
0544  A2480002           [309] call       34  4   1  
0548  1E008000           [310] return     0   1      
                         * constants:
054C  4C                 sizek (76)
054D  01                 const type 3
054E  12F0FAD5           const [0]: (-704974830)
0552  01                 const type 3
0553  65770E40           const [1]: (1074689893)
0557  01                 const type 3
0558  D48E598B           const [2]: (-1957065004)
055C  04                 const type 4
055D  19                 string size (25)
055E  674C6F7475734F70+  "gLotusOp"
0566  657261746F724176+  "eratorAv"
056E  6174617254797065+  "atarType"
0576  00                 "\0"
                         const [3]: "gLotusOperatorAvatarType"
0577  01                 const type 3
0578  85100EE5           const [4]: (-452063099)
057C  04                 const type 4
057D  07                 string size (7)
057E  456E67696E6500     "Engine\0"
                         const [5]: "Engine"
0585  04                 const type 4
0586  08                 string size (8)
0587  504D5F48454C4400   "PM_HELD\0"
                         const [6]: "PM_HELD"
058F  01                 const type 3
0590  1FD0B58D           const [7]: (-1917464545)
0594  01                 const type 3
0595  59AC7869           const [8]: (1769516121)
0599  01                 const type 3
059A  8F92A06E           const [9]: (1856017039)
059E  04                 const type 4
059F  0A                 string size (10)
05A0  4D41494E5F48414E+  "MAIN_HAN"
05A8  4400               "D\0"
                         const [10]: "MAIN_HAND"
05AA  01                 const type 3
05AB  92F1BA0B           const [11]: (196800914)
05AF  01                 const type 3
05B0  97630984           const [12]: (-2079759465)
05B4  01                 const type 3
05B5  FFEBD2ED           const [13]: (-304944129)
05B9  04                 const type 4
05BA  05                 string size (5)
05BB  62616E6B00         "bank\0"
                         const [14]: "bank"
05C0  01                 const type 3
05C1  42674A8C           const [15]: (-1941280958)
05C5  03                 const type 3
05C6  000034C3           const [16]: (0)
05CA  03                 const type 3
05CB  00003443           const [17]: (0)
05CF  01                 const type 3
05D0  625C8C21           const [18]: (562846818)
05D4  03                 const type 3
05D5  00008041           const [19]: (0)
05D9  01                 const type 3
05DA  61E324D1           const [20]: (-786111647)
05DE  04                 const type 4
05DF  0B                 string size (11)
05E0  4C6F7475735F4761+  "Lotus_Ga"
05E8  6D6500             "me\0"
                         const [21]: "Lotus_Game"
05EB  04                 const type 4
05EC  09                 string size (9)
05ED  565F5343414C4553+  "V_SCALES"
05F5  00                 "\0"
                         const [22]: "V_SCALES"
05F6  03                 const type 3
05F7  0000803F           const [23]: (0)
05FB  04                 const type 4
05FC  0F                 string size (15)
05FD  736D616C6C426561+  "smallBea"
0605  6D547970657300     "mTypes\0"
                         const [24]: "smallBeamTypes"
060C  01                 const type 3
060D  F26E43AB           const [25]: (-1421644046)
0611  04                 const type 4
0612  0D                 string size (13)
0613  454D5054595F5359+  "EMPTY_SY"
061B  4D424F4C00         "MBOL\0"
                         const [26]: "EMPTY_SYMBOL"
0620  04                 const type 4
0621  0C                 string size (12)
0622  5A45524F5F564543+  "ZERO_VEC"
062A  544F5200           "TOR\0"
                         const [27]: "ZERO_VECTOR"
062E  04                 const type 4
062F  0E                 string size (14)
0630  5A45524F5F524F54+  "ZERO_ROT"
0638  4154494F4E00       "ATION\0"
                         const [28]: "ZERO_ROTATION"
063E  04                 const type 4
063F  06                 string size (6)
0640  7461626C6500       "table\0"
                         const [29]: "table"
0646  01                 const type 3
0647  9D0C45E6           const [30]: (-431682403)
064B  01                 const type 3
064C  533F61B8           const [31]: (-1201586349)
0650  04                 const type 4
0651  08                 string size (8)
0652  67526567696F6E00   "gRegion\0"
                         const [32]: "gRegion"
065A  01                 const type 3
065B  58F559A5           const [33]: (-1520831144)
065F  01                 const type 3
0660  AC455A88           const [34]: (-2007349844)
0664  01                 const type 3
0665  15D67A8D           const [35]: (-1921329643)
0669  01                 const type 3
066A  A9A01714           const [36]: (337092777)
066E  04                 const type 4
066F  10                 string size (16)
0670  656E657267794472+  "energyDr"
0678  61696E5261746500   "ainRate\0"
                         const [37]: "energyDrainRate"
0680  01                 const type 3
0681  C109A188           const [38]: (-2002712127)
0685  01                 const type 3
0686  0CAC8008           const [39]: (142650380)
068A  01                 const type 3
068B  2FDB2C68           const [40]: (1747770159)
068F  01                 const type 3
0690  00971C22           const [41]: (572299008)
0694  04                 const type 4
0695  0B                 string size (11)
0696  7761766548656967+  "waveHeig"
069E  687400             "ht\0"
                         const [42]: "waveHeight"
06A1  03                 const type 3
06A2  00000000           const [43]: (0)
06A6  03                 const type 3
06A7  8FC2753E           const [44]: (-113)
06AB  03                 const type 3
06AC  0000803E           const [45]: (0)
06B0  01                 const type 3
06B1  A77F8BA7           const [46]: (-1484030041)
06B5  01                 const type 3
06B6  CFBD2C4E           const [47]: (1311555023)
06BA  04                 const type 4
06BB  12                 string size (18)
06BC  697344697361626C+  "isDisabl"
06C4  656456657273696F+  "edVersio"
06CC  6E00               "n\0"
                         const [48]: "isDisabledVersion"
06CE  01                 const type 3
06CF  98FD7463           const [49]: (1668611480)
06D3  01                 const type 3
06D4  DC2CB5C1           const [50]: (-1045091108)
06D8  01                 const type 3
06D9  DBC2E558           const [51]: (1491452635)
06DD  03                 const type 3
06DE  00000040           const [52]: (0)
06E2  03                 const type 3
06E3  CDCCCC3D           const [53]: (-51)
06E7  03                 const type 3
06E8  0000A040           const [54]: (0)
06EC  01                 const type 3
06ED  A4EC67E7           const [55]: (-412619612)
06F1  03                 const type 3
06F2  0AD7A33D           const [56]: (10)
06F6  01                 const type 3
06F7  E409FCBD           const [57]: (-1107555868)
06FB  01                 const type 3
06FC  68C51D9F           const [58]: (-1625438872)
0700  04                 const type 4
0701  0F                 string size (15)
0702  674C656E73466C61+  "gLensFla"
070A  72655479706500     "reType\0"
                         const [59]: "gLensFlareType"
0711  03                 const type 3
0712  0AD7233C           const [60]: (10)
0716  04                 const type 4
0717  13                 string size (19)
0718  656E657267794472+  "energyDr"
0720  61696E456E61626C+  "ainEnabl"
0728  656400             "ed\0"
                         const [61]: "energyDrainEnabled"
072B  04                 const type 4
072C  0B                 string size (11)
072D  6747616D6552756C+  "gGameRul"
0735  657300             "es\0"
                         const [62]: "gGameRules"
0738  04                 const type 4
0739  1E                 string size (30)
073A  674C6F7475735068+  "gLotusPh"
0742  6F746F426F6F7468+  "otoBooth"
074A  47616D6552756C65+  "GameRule"
0752  735479706500       "sType\0"
                         const [63]: "gLotusPhotoBoothGameRulesType"
0758  01                 const type 3
0759  816E919D           const [64]: (-1651413375)
075D  01                 const type 3
075E  FFF9DE4C           const [65]: (1289681407)
0762  01                 const type 3
0763  3687B751           const [66]: (1370982198)
0767  01                 const type 3
0768  E01ECDEB           const [67]: (-338878752)
076C  01                 const type 3
076D  34FBAC66           const [68]: (1722612532)
0771  01                 const type 3
0772  86CE0987           const [69]: (-2029400442)
0776  01                 const type 3
0777  A9278F45           const [70]: (1167009705)
077B  04                 const type 4
077C  1B                 string size (27)
077D  4E6F746966794162+  "NotifyAb"
0785  696C697479416374+  "ilityAct"
078D  6976617465457272+  "ivateErr"
0795  6F7200             "or\0"
                         const [71]: "NotifyAbilityActivateError"
0798  04                 const type 4
0799  2B                 string size (43)
079A  2F4C6F7475732F4C+  "/Lotus/L"
07A2  616E67756167652F+  "anguage/"
07AA  47616D652F416269+  "Game/Abi"
07B2  6C6974794E656564+  "lityNeed"
07BA  4D6F7265456E6572+  "MoreEner"
07C2  677900             "gy\0"
                         const [72]: "/Lotus/Language/Game/AbilityNeedMoreEnergy"
07C5  01                 const type 3
07C6  196EF617           const [73]: (402026009)
07CA  01                 const type 3
07CB  3264366C           const [74]: (1815503922)
07CF  01                 const type 3
07D0  EA911120           const [75]: (538022378)
                         * functions:
07D4  00                 sizep (0)
                         * lines:
07D6  02                 sizelineinfo (310)
                         [pc] (line)
07D7  0D                 [001] (13)
07D8  00                 [002] (13)
07D9  00                 [003] (14)
07DA  00                 [004] (14)
07DB  0D                 [005] (14)
07DC  00                 [006] (14)
07DD  00                 [007] (14)
07DE  00                 [008] (14)
07DF  0E                 [009] (14)
07E0  00                 [010] (14)
07E1  00                 [011] (14)
07E2  00                 [012] (14)
07E3  0E                 [013] (15)
07E4  00                 [014] (17)
07E5  00                 [015] (17)
07E6  00                 [016] (17)
07E7  0E                 [017] (17)
07E8  00                 [018] (17)
07E9  00                 [019] (18)
07EA  00                 [020] (18)
07EB  0E                 [021] (19)
07EC  00                 [022] (19)
07ED  00                 [023] (20)
07EE  00                 [024] (20)
07EF  0E                 [025] (20)
07F0  00                 [026] (20)
07F1  00                 [027] (22)
07F2  00                 [028] (22)
07F3  0E                 [029] (23)
07F4  00                 [030] (23)
07F5  00                 [031] (24)
07F6  00                 [032] (24)
07F7  0E                 [033] (24)
07F8  00                 [034] (24)
07F9  00                 [035] (25)
07FA  00                 [036] (25)
07FB  0E                 [037] (25)
07FC  00                 [038] (25)
07FD  00                 [039] (25)
07FE  00                 [040] (27)
07FF  0E                 [041] (28)
0800  00                 [042] (28)
0801  00                 [043] (28)
0802  00                 [044] (28)
0803  0E                 [045] (29)
0804  00                 [046] (29)
0805  00                 [047] (29)
0806  00                 [048] (29)
0807  0F                 [049] (29)
0808  00                 [050] (30)
0809  00                 [051] (30)
080A  00                 [052] (30)
080B  11                 [053] (30)
080C  00                 [054] (30)
080D  00                 [055] (30)
080E  00                 [056] (30)
080F  11                 [057] (33)
0810  00                 [058] (34)
0811  00                 [059] (34)
0812  00                 [060] (34)
0813  11                 [061] (34)
0814  00                 [062] (34)
0815  00                 [063] (35)
0816  00                 [064] (35)
0817  11                 [065] (35)
0818  00                 [066] (35)
0819  00                 [067] (35)
081A  00                 [068] (35)
081B  11                 [069] (35)
081C  00                 [070] (35)
081D  00                 [071] (36)
081E  00                 [072] (36)
081F  12                 [073] (36)
0820  00                 [074] (36)
0821  00                 [075] (36)
0822  00                 [076] (37)
0823  12                 [077] (37)
0824  00                 [078] (37)
0825  00                 [079] (37)
0826  00                 [080] (37)
0827  13                 [081] (34)
0828  00                 [082] (40)
0829  00                 [083] (43)
082A  00                 [084] (43)
082B  13                 [085] (44)
082C  00                 [086] (44)
082D  00                 [087] (44)
082E  00                 [088] (45)
082F  14                 [089] (45)
0830  00                 [090] (47)
0831  00                 [091] (47)
0832  00                 [092] (47)
0833  14                 [093] (47)
0834  00                 [094] (47)
0835  00                 [095] (47)
0836  00                 [096] (47)
0837  14                 [097] (48)
0838  00                 [098] (48)
0839  00                 [099] (49)
083A  00                 [100] (49)
083B  14                 [101] (50)
083C  00                 [102] (50)
083D  00                 [103] (50)
083E  00                 [104] (50)
083F  16                 [105] (50)
0840  00                 [106] (50)
0841  00                 [107] (52)
0842  00                 [108] (52)
0843  16                 [109] (53)
0844  00                 [110] (53)
0845  00                 [111] (53)
0846  00                 [112] (53)
0847  17                 [113] (53)
0848  00                 [114] (56)
0849  00                 [115] (56)
084A  00                 [116] (56)
084B  17                 [117] (56)
084C  00                 [118] (56)
084D  00                 [119] (56)
084E  00                 [120] (56)
084F  18                 [121] (56)
0850  00                 [122] (56)
0851  00                 [123] (56)
0852  00                 [124] (56)
0853  18                 [125] (56)
0854  00                 [126] (56)
0855  00                 [127] (56)
0856  00                 [128] (56)
0857  18                 [129] (56)
0858  00                 [130] (56)
0859  00                 [131] (57)
085A  00                 [132] (58)
085B  18                 [133] (58)
085C  00                 [134] (58)
085D  00                 [135] (58)
085E  00                 [136] (58)
085F  19                 [137] (58)
0860  00                 [138] (58)
0861  00                 [139] (58)
0862  00                 [140] (58)
0863  19                 [141] (58)
0864  00                 [142] (66)
0865  00                 [143] (66)
0866  00                 [144] (66)
0867  19                 [145] (67)
0868  00                 [146] (67)
0869  00                 [147] (67)
086A  00                 [148] (68)
086B  19                 [149] (68)
086C  00                 [150] (68)
086D  00                 [151] (68)
086E  00                 [152] (69)
086F  19                 [153] (69)
0870  00                 [154] (69)
0871  00                 [155] (69)
0872  00                 [156] (69)
0873  1B                 [157] (70)
0874  00                 [158] (70)
0875  00                 [159] (70)
0876  00                 [160] (70)
0877  1C                 [161] (70)
0878  00                 [162] (70)
0879  00                 [163] (70)
087A  00                 [164] (72)
087B  1C                 [165] (72)
087C  00                 [166] (72)
087D  00                 [167] (72)
087E  00                 [168] (72)
087F  1C                 [169] (72)
0880  00                 [170] (72)
0881  00                 [171] (75)
0882  00                 [172] (75)
0883  1C                 [173] (75)
0884  00                 [174] (75)
0885  00                 [175] (76)
0886  00                 [176] (76)
0887  1D                 [177] (76)
0888  00                 [178] (76)
0889  00                 [179] (75)
088A  00                 [180] (79)
088B  1D                 [181] (79)
088C  00                 [182] (79)
088D  00                 [183] (80)
088E  00                 [184] (80)
088F  1D                 [185] (80)
0890  00                 [186] (80)
0891  00                 [187] (80)
0892  00                 [188] (80)
0893  1D                 [189] (80)
0894  00                 [190] (80)
0895  00                 [191] (80)
0896  00                 [192] (80)
0897  1D                 [193] (80)
0898  00                 [194] (81)
0899  00                 [195] (81)
089A  00                 [196] (81)
089B  1E                 [197] (82)
089C  00                 [198] (82)
089D  00                 [199] (82)
089E  00                 [200] (82)
089F  1E                 [201] (82)
08A0  00                 [202] (83)
08A1  00                 [203] (83)
08A2  00                 [204] (83)
08A3  1E                 [205] (83)
08A4  00                 [206] (85)
08A5  00                 [207] (85)
08A6  00                 [208] (85)
08A7  1E                 [209] (85)
08A8  00                 [210] (87)
08A9  00                 [211] (87)
08AA  00                 [212] (87)
08AB  1E                 [213] (87)
08AC  00                 [214] (88)
08AD  00                 [215] (88)
08AE  00                 [216] (88)
08AF  1E                 [217] (88)
08B0  00                 [218] (87)
08B1  00                 [219] (92)
08B2  00                 [220] (92)
08B3  1E                 [221] (92)
08B4  00                 [222] (92)
08B5  00                 [223] (92)
08B6  00                 [224] (92)
08B7  21                 [225] (92)
08B8  00                 [226] (92)
08B9  00                 [227] (92)
08BA  00                 [228] (92)
08BB  22                 [229] (92)
08BC  00                 [230] (92)
08BD  00                 [231] (92)
08BE  00                 [232] (92)
08BF  22                 [233] (93)
08C0  00                 [234] (94)
08C1  00                 [235] (94)
08C2  00                 [236] (95)
08C3  22                 [237] (95)
08C4  00                 [238] (95)
08C5  00                 [239] (95)
08C6  00                 [240] (95)
08C7  22                 [241] (95)
08C8  00                 [242] (95)
08C9  00                 [243] (96)
08CA  00                 [244] (96)
08CB  22                 [245] (97)
08CC  00                 [246] (97)
08CD  00                 [247] (97)
08CE  00                 [248] (97)
08CF  23                 [249] (99)
08D0  00                 [250] (99)
08D1  00                 [251] (99)
08D2  00                 [252] (99)
08D3  23                 [253] (99)
08D4  00                 [254] (99)
08D5  00                 [255] (99)
08D6  00                 [256] (100)
08D7  23                 [257] (100)
08D8  00                 [258] (101)
08D9  00                 [259] (101)
08DA  00                 [260] (101)
08DB  23                 [261] (103)
08DC  00                 [262] (103)
08DD  00                 [263] (103)
08DE  00                 [264] (103)
08DF  23                 [265] (103)
08E0  00                 [266] (103)
08E1  00                 [267] (104)
08E2  00                 [268] (104)
08E3  23                 [269] (104)
08E4  00                 [270] (104)
08E5  00                 [271] (104)
08E6  00                 [272] (104)
08E7  23                 [273] (104)
08E8  00                 [274] (105)
08E9  00                 [275] (105)
08EA  00                 [276] (105)
08EB  23                 [277] (106)
08EC  00                 [278] (106)
08ED  00                 [279] (106)
08EE  00                 [280] (106)
08EF  24                 [281] (106)
08F0  00                 [282] (107)
08F1  00                 [283] (107)
08F2  00                 [284] (107)
08F3  24                 [285] (107)
08F4  00                 [286] (110)
08F5  00                 [287] (110)
08F6  00                 [288] (111)
08F7  24                 [289] (111)
08F8  00                 [290] (111)
08F9  00                 [291] (112)
08FA  00                 [292] (112)
08FB  24                 [293] (112)
08FC  00                 [294] (116)
08FD  00                 [295] (116)
08FE  00                 [296] (116)
08FF  24                 [297] (117)
0900  00                 [298] (117)
0901  00                 [299] (117)
0902  00                 [300] (117)
0903  25                 [301] (119)
0904  00                 [302] (119)
0905  00                 [303] (119)
0906  00                 [304] (119)
0907  25                 [305] (119)
0908  00                 [306] (120)
0909  00                 [307] (120)
090A  00                 [308] (120)
090B  25                 [309] (120)
090C  00                 [310] (122)
                         * locals:
0CAF  00                 sizelocvars (0)
                         * upvalues:
0CB0  00                 sizeupvalues (0)
                         ** end of function **

                         
0CB1                     ** function [1] definition (level 2)
                         ** start of function **
0CB1  00                 string size (0)
                         source name: (none)
0CB2  7C                 line defined (124)
0CB3  A0                 last line defined (160)
0CB4  01                 nups (0)
0CB5  00                 numparams (1)
0CB6  01                 is_vararg (0)
0CB7  00                 maxstacksize (16)
                         * code:
0CB9  79                 sizecode (121)
0CBA  64004000           [001] self       1   0   256  ; -704974830
0CBE  62800001           [002] call       1   2   2  
0CC2  A440C000           [003] self       2   1   257  ; -1201586349
0CC6  A2800001           [004] call       2   2   2  
0CCA  DD800000           [005] getglobal  3   2        ; gRegion
0CCE  E4C0C001           [006] self       3   3   259  ; -1520831144
0CD2  E2800001           [007] call       3   2   2  
0CD6  2401C100           [008] self       4   1   260  ; -1917464545
0CDA  22810001           [009] call       4   2   2  
0CDE  5D410100           [010] getglobal  5   5        ; -1941280958
0CE2  99810100           [011] loadk      6   6        ; -51
0CE6  D9C10100           [012] loadk      7   7        ; -51
0CEA  62818001           [013] call       5   3   2  
0CEE  99010200           [014] loadk      6   8        ; 0
0CF2  DD410200           [015] getglobal  7   9        ; 572299008
0CF6  1D420100           [016] getglobal  8   5        ; -1941280958
0CFA  59820200           [017] loadk      9   10       ; -102
0CFE  99C20200           [018] loadk      10  11       ; -102
0D02  22828001           [019] call       8   3   2  
0D06  5D420100           [020] getglobal  9   5        ; -1941280958
0D0A  99820200           [021] loadk      10  10       ; -102
0D0E  D9C20200           [022] loadk      11  11       ; -102
0D12  62828001           [023] call       9   3   2  
0D16  9D420100           [024] getglobal  10  5        ; -1941280958
0D1A  D9820200           [025] loadk      11  10       ; -102
0D1E  19C30200           [026] loadk      12  11       ; -102
0D22  A2028001           [027] call       10  3   0  
0D26  E2810000           [028] call       7   0   2  
0D2A  24024300           [029] self       8   0   268  ; 1476164854
0D2E  92028003           [030] move       10  7      
0D32  22428001           [031] call       8   3   1  
0D36  1D420300           [032] getglobal  8   13       ; 1074689893
0D3A  52020000           [033] move       9   0      
0D3E  22820001           [034] call       8   2   2  
0D42  18420000           [035] test       8       1    ; to [37] if false
0D46  1AC01480           [036] jmp        84           ; to [121]
0D4A  1D420300           [037] getglobal  8   13       ; 1074689893
0D4E  52028000           [038] move       9   1      
0D52  22820001           [039] call       8   2   2  
0D56  18420000           [040] test       8       1    ; to [42] if false
0D5A  1A801380           [041] jmp        79           ; to [121]
0D5E  19020200           [042] loadk      8   8        ; 0
0D62  6482C300           [043] self       9   1   270  ; -1651413375
0D66  DDC20300           [044] getglobal  11  15       ; energyDrainRate
fail op	0
0D6A  C0028005           [045] move       11  11     
0D6E  1D030400           [046] getglobal  12  16       ; 1289681407
0D72  22838000           [047] call       12  1   2  
0D76  C4028305           [048] mul        11  11  12 
0D7A  62428001           [049] call       9   3   1  
0D7E  6442C400           [050] self       9   1   273  ; 337092777
0D82  62420001           [051] call       9   2   1  
0D86  6482C400           [052] self       9   1   274  ; 1370982198
0D8A  62820001           [053] call       9   2   2  
0D8E  12028004           [054] move       8   9      
0D92  98400000           [055] test       2       1    ; to [57] if false
0D96  1A400080           [056] jmp        2            ; to [59]
0D9A  D8000000           [057] test       3       0    ; to [59] if true
0D9E  1A000780           [058] jmp        29           ; to [88]
fail op	33
0DA2  21004204           [059] tforloop   0       264  ; to [61] if exit
0DA6  1A800680           [060] jmp        27           ; to [88]
0DAA  98000000           [061] test       2       0    ; to [63] if true
0DAE  1A000480           [062] jmp        17           ; to [80]
0DB2  5D420300           [063] getglobal  9   13       ; 1074689893
0DB6  9DC20400           [064] getglobal  10  19       ; gGameRules
0DBA  62820001           [065] call       9   2   2  
0DBE  58420000           [066] test       9       1    ; to [68] if false
0DC2  1AC00280           [067] jmp        12           ; to [80]
0DC6  5DC20400           [068] getglobal  9   19       ; gGameRules
0DCA  6402C504           [069] self       9   9   276  ; -2029400442
0DCE  62820001           [070] call       9   2   2  
0DD2  9D420300           [071] getglobal  10  13       ; 1074689893
0DD6  D2028004           [072] move       11  9      
0DDA  A2820001           [073] call       10  2   2  
0DDE  98420000           [074] test       10      1    ; to [76] if false
0DE2  1AC00080           [075] jmp        4            ; to [80]
0DE6  A442C504           [076] self       10  9   277  ; 1167009705
0DEA  19830500           [077] loadk      12  22       ; "NotifyAbilityActivateError"
0DEE  59C30500           [078] loadk      13  23       ; "/Lotus/Language/Game/AbilityNeedMoreEnergy"
0DF2  A2420002           [079] call       10  4   1  
0DF6  A4024602           [080] self       10  4   280  ; 402026009
0DFA  A2420001           [081] call       10  2   1  
0DFE  A4424602           [082] self       10  4   281  ; 1815503922
0E02  17030000           [083] loadbool   12  0   0    ; false
0E06  A2428001           [084] call       10  3   1  
0E0A  A4424602           [085] self       10  4   281  ; 1815503922
0E0E  17038000           [086] loadbool   12  1   0    ; true
0E12  A2428001           [087] call       10  3   1  
0E16  9D020400           [088] getglobal  10  16       ; 1289681407
0E1A  A2828000           [089] call       10  1   2  
0E1E  83810203           [090] add        6   6   10 
fail op	33
0E22  21808102           [091] tforloop   0       6    ; to [93] if exit
0E26  1AC00580           [092] jmp        24           ; to [117]
0E2A  9D420100           [093] getglobal  10  5        ; -1941280958
0E2E  D9820100           [094] loadk      11  6        ; -51
0E32  19C30100           [095] loadk      12  7        ; -51
0E36  A2828001           [096] call       10  3   2  
0E3A  52010005           [097] move       5   10     
0E3E  9D420200           [098] getglobal  10  9        ; 572299008
0E42  DD420100           [099] getglobal  11  5        ; -1941280958
0E46  19830200           [100] loadk      12  10       ; -102
0E4A  59C30200           [101] loadk      13  11       ; -102
0E4E  E2828001           [102] call       11  3   2  
0E52  1D430100           [103] getglobal  12  5        ; -1941280958
0E56  59830200           [104] loadk      13  10       ; -102
0E5A  99C30200           [105] loadk      14  11       ; -102
0E5E  22838001           [106] call       12  3   2  
0E62  5D430100           [107] getglobal  13  5        ; -1941280958
0E66  99830200           [108] loadk      14  10       ; -102
0E6A  D9C30200           [109] loadk      15  11       ; -102
0E6E  62038001           [110] call       13  3   0  
0E72  A2820000           [111] call       10  0   2  
0E76  D2010005           [112] move       7   10     
0E7A  A4024300           [113] self       10  0   268  ; 1476164854
0E7E  12038003           [114] move       12  7      
0E82  A2428001           [115] call       10  3   1  
0E86  99010200           [116] loadk      6   8        ; 0
0E8A  9D820600           [117] getglobal  10  26       ; 538022378
0E8E  D9020200           [118] loadk      11  8        ; 0
0E92  A2420001           [119] call       10  2   1  
0E96  1A80E97F           [120] jmp        -89          ; to [32]
0E9A  1E008000           [121] return     0   1      
                         * constants:
0E9E  1B                 sizek (27)
0E9F  01                 const type 3
0EA0  12F0FAD5           const [0]: (-704974830)
0EA4  01                 const type 3
0EA5  533F61B8           const [1]: (-1201586349)
0EA9  04                 const type 4
0EAA  08                 string size (8)
0EAB  67526567696F6E00   "gRegion\0"
                         const [2]: "gRegion"
0EB3  01                 const type 3
0EB4  58F559A5           const [3]: (-1520831144)
0EB8  01                 const type 3
0EB9  1FD0B58D           const [4]: (-1917464545)
0EBD  01                 const type 3
0EBE  42674A8C           const [5]: (-1941280958)
0EC2  03                 const type 3
0EC3  CDCCCC3E           const [6]: (-51)
0EC7  03                 const type 3
0EC8  CDCC4C3F           const [7]: (-51)
0ECC  03                 const type 3
0ECD  00000000           const [8]: (0)
0ED1  01                 const type 3
0ED2  00971C22           const [9]: (572299008)
0ED6  03                 const type 3
0ED7  9A9919BE           const [10]: (-102)
0EDB  03                 const type 3
0EDC  9A99193E           const [11]: (-102)
0EE0  01                 const type 3
0EE1  F67CFC57           const [12]: (1476164854)
0EE5  01                 const type 3
0EE6  65770E40           const [13]: (1074689893)
0EEA  01                 const type 3
0EEB  816E919D           const [14]: (-1651413375)
0EEF  04                 const type 4
0EF0  10                 string size (16)
0EF1  656E657267794472+  "energyDr"
0EF9  61696E5261746500   "ainRate\0"
                         const [15]: "energyDrainRate"
0F01  01                 const type 3
0F02  FFF9DE4C           const [16]: (1289681407)
0F06  01                 const type 3
0F07  A9A01714           const [17]: (337092777)
0F0B  01                 const type 3
0F0C  3687B751           const [18]: (1370982198)
0F10  04                 const type 4
0F11  0B                 string size (11)
0F12  6747616D6552756C+  "gGameRul"
0F1A  657300             "es\0"
                         const [19]: "gGameRules"
0F1D  01                 const type 3
0F1E  86CE0987           const [20]: (-2029400442)
0F22  01                 const type 3
0F23  A9278F45           const [21]: (1167009705)
0F27  04                 const type 4
0F28  1B                 string size (27)
0F29  4E6F746966794162+  "NotifyAb"
0F31  696C697479416374+  "ilityAct"
0F39  6976617465457272+  "ivateErr"
0F41  6F7200             "or\0"
                         const [22]: "NotifyAbilityActivateError"
0F44  04                 const type 4
0F45  2B                 string size (43)
0F46  2F4C6F7475732F4C+  "/Lotus/L"
0F4E  616E67756167652F+  "anguage/"
0F56  47616D652F416269+  "Game/Abi"
0F5E  6C6974794E656564+  "lityNeed"
0F66  4D6F7265456E6572+  "MoreEner"
0F6E  677900             "gy\0"
                         const [23]: "/Lotus/Language/Game/AbilityNeedMoreEnergy"
0F71  01                 const type 3
0F72  196EF617           const [24]: (402026009)
0F76  01                 const type 3
0F77  3264366C           const [25]: (1815503922)
0F7B  01                 const type 3
0F7C  EA911120           const [26]: (538022378)
                         * functions:
0F80  00                 sizep (0)
                         * lines:
0F81  79                 sizelineinfo (121)
                         [pc] (line)
0F82  7D                 [001] (125)
0F83  00                 [002] (125)
0F84  00                 [003] (126)
0F85  00                 [004] (126)
0F86  7D                 [005] (127)
0F87  00                 [006] (127)
0F88  00                 [007] (127)
0F89  00                 [008] (-128)
0F8A  7E                 [009] (-128)
0F8B  00                 [010] (-127)
0F8C  00                 [011] (-127)
0F8D  00                 [012] (-127)
0F8E  7E                 [013] (-127)
0F8F  00                 [014] (-126)
0F90  00                 [015] (-125)
0F91  00                 [016] (-125)
0F92  7F                 [017] (-125)
0F93  00                 [018] (-125)
0F94  00                 [019] (-125)
0F95  00                 [020] (-125)
0F96  7F                 [021] (-125)
0F97  00                 [022] (-125)
0F98  00                 [023] (-125)
0F99  00                 [024] (-125)
0F9A  7F                 [025] (-125)
0F9B  00                 [026] (-125)
0F9C  00                 [027] (-125)
0F9D  00                 [028] (-125)
0F9E  80                 [029] (-124)
0F9F  00                 [030] (-124)
0FA0  00                 [031] (-124)
0FA1  00                 [032] (-123)
0FA2  80                 [033] (-123)
0FA3  00                 [034] (-123)
0FA4  00                 [035] (-123)
0FA5  00                 [036] (-123)
0FA6  81                 [037] (-123)
0FA7  00                 [038] (-123)
0FA8  00                 [039] (-123)
0FA9  00                 [040] (-123)
0FAA  81                 [041] (-123)
0FAB  00                 [042] (-122)
0FAC  00                 [043] (-121)
0FAD  00                 [044] (-121)
0FAE  81                 [045] (-121)
0FAF  00                 [046] (-121)
0FB0  00                 [047] (-121)
0FB1  00                 [048] (-121)
0FB2  81                 [049] (-121)
0FB3  00                 [050] (-120)
0FB4  00                 [051] (-120)
0FB5  00                 [052] (-119)
0FB6  82                 [053] (-119)
0FB7  00                 [054] (-119)
0FB8  00                 [055] (-117)
0FB9  00                 [056] (-117)
0FBA  83                 [057] (-117)
0FBB  00                 [058] (-117)
0FBC  00                 [059] (-117)
0FBD  00                 [060] (-117)
0FBE  83                 [061] (-116)
0FBF  00                 [062] (-116)
0FC0  00                 [063] (-116)
0FC1  00                 [064] (-116)
0FC2  83                 [065] (-116)
0FC3  00                 [066] (-116)
0FC4  00                 [067] (-116)
0FC5  00                 [068] (-115)
0FC6  83                 [069] (-115)
0FC7  00                 [070] (-115)
0FC8  00                 [071] (-114)
0FC9  00                 [072] (-114)
0FCA  83                 [073] (-114)
0FCB  00                 [074] (-114)
0FCC  00                 [075] (-114)
0FCD  00                 [076] (-113)
0FCE  83                 [077] (-113)
0FCF  00                 [078] (-113)
0FD0  00                 [079] (-113)
0FD1  00                 [080] (-110)
0FD2  83                 [081] (-110)
0FD3  00                 [082] (-109)
0FD4  00                 [083] (-109)
0FD5  00                 [084] (-109)
0FD6  83                 [085] (-108)
0FD7  00                 [086] (-108)
0FD8  00                 [087] (-108)
0FD9  00                 [088] (-105)
0FDA  83                 [089] (-105)
0FDB  00                 [090] (-105)
0FDC  00                 [091] (-104)
0FDD  00                 [092] (-104)
0FDE  83                 [093] (-103)
0FDF  00                 [094] (-103)
0FE0  00                 [095] (-103)
0FE1  00                 [096] (-103)
0FE2  83                 [097] (-103)
0FE3  00                 [098] (-102)
0FE4  00                 [099] (-102)
0FE5  00                 [100] (-102)
0FE6  83                 [101] (-102)
0FE7  00                 [102] (-102)
0FE8  00                 [103] (-102)
0FE9  00                 [104] (-102)
0FEA  83                 [105] (-102)
0FEB  00                 [106] (-102)
0FEC  00                 [107] (-102)
0FED  00                 [108] (-102)
0FEE  83                 [109] (-102)
0FEF  00                 [110] (-102)
0FF0  00                 [111] (-102)
0FF1  00                 [112] (-102)
0FF2  84                 [113] (-101)
0FF3  00                 [114] (-101)
0FF4  00                 [115] (-101)
0FF5  00                 [116] (-100)
0FF6  84                 [117] (-98)
0FF7  00                 [118] (-98)
0FF8  00                 [119] (-98)
0FF9  00                 [120] (-98)
0FFA  84                 [121] (-96)
                         * locals:
1166  00                 sizelocvars (0)
                         * upvalues:
1167  00                 sizeupvalues (0)
                         ** end of function **

                         * lines:
1168  0B                 sizelineinfo (11)
                         [pc] (line)
1169  0A                 [01] (10)
116A  00                 [02] (10)
116B  00                 [03] (10)
116C  00                 [04] (122)
116D  0A                 [05] (122)
116E  00                 [06] (122)
116F  00                 [07] (12)
1170  00                 [08] (-96)
1171  0A                 [09] (-96)
1172  00                 [10] (124)
1173  00                 [11] (-96)
                         * locals:
1195  00                 sizelocvars (0)
                         * upvalues:
1196  00                 sizeupvalues (0)
                         ** end of function **

1197                     ** end of chunk **
